///////////////////////////////////////////////////////////////////////////////
//
// IAR C/C++ Compiler V10.30.1.6000 for 8051              16/Jul/2020  23:39:12
// Copyright 2004-2018 IAR Systems AB.
// PC-locked license - IAR Embedded Workbench for 8051
//
//    Core               =  plain
//    Code model         =  banked
//    Data model         =  large
//    Calling convention =  xdata reentrant
//    Constant location  =  data_rom
//    Dptr setup         =  1,16
//                          
//    Source file        =  
//        D:\AA\Z-Stack
//        3.0.2\Projects\zstack\HomeAutomation\SampleThermostat\Source\uart0.c
//    Command line       =  
//        -f C:\Users\sunli\AppData\Local\Temp\EWBCF9.tmp ("D:\AA\Z-Stack
//        3.0.2\Projects\zstack\HomeAutomation\SampleThermostat\Source\uart0.c"
//        -D ZCL_REPORT_DESTINATION_DEVICE -D BDB_REPORTING -D SECURE=1 -D
//        TC_LINKKEY_JOIN -D NV_INIT -D xNV_RESTORE -D xZTOOL_P1 -D xMT_TASK -D
//        xMT_APP_FUNC -D xMT_SYS_FUNC -D xMT_ZDO_FUNC -D xMT_APP_CNF_FUNC -D
//        LCD_SUPPORTED=DEBUG -D MULTICAST_ENABLED=FALSE -D ZCL_READ -D
//        ZCL_DISCOVER -D ZCL_WRITE -D ZCL_BASIC -D ZCL_IDENTIFY -D ZCL_ON_OFF
//        -D ZCL_HVAC_CLUSTER -D ZCL_GROUPS -lC "D:\AA\Z-Stack
//        3.0.2\Projects\zstack\HomeAutomation\SampleThermostat\CC2530DB\CoordinatorEB\List"
//        -lA "D:\AA\Z-Stack
//        3.0.2\Projects\zstack\HomeAutomation\SampleThermostat\CC2530DB\CoordinatorEB\List"
//        --diag_suppress Pe001,Pa010 -o "D:\AA\Z-Stack
//        3.0.2\Projects\zstack\HomeAutomation\SampleThermostat\CC2530DB\CoordinatorEB\Obj"
//        -e --debug --core=plain --dptr=16,1 --data_model=large
//        --code_model=banked --calling_convention=xdata_reentrant
//        --place_constants=data_rom --nr_virtual_regs 16 -f "D:\AA\Z-Stack
//        3.0.2\Projects\zstack\HomeAutomation\SampleThermostat\CC2530DB\..\..\..\Tools\CC2530DB\f8wCoord.cfg"
//        (-DCPU32MHZ -DROOT=__near_func -DMAC_CFG_APP_PENDING_QUEUE=TRUE
//        -DMAC_CFG_TX_DATA_MAX=5 -DMAC_CFG_TX_MAX=8 -DMAC_CFG_RX_MAX=5
//        -DZDO_COORDINATOR -DRTR_NWK) -f "D:\AA\Z-Stack
//        3.0.2\Projects\zstack\HomeAutomation\SampleThermostat\CC2530DB\..\..\..\Tools\CC2530DB\f8wConfig.cfg"
//        (-DZIGBEEPRO -DSECURE=1 -DZG_SECURE_DYNAMIC=0 -DREFLECTOR
//        -DDEFAULT_CHANLIST=0x00000800 -DZDAPP_CONFIG_PAN_ID=0xFFFF
//        -DNWK_START_DELAY=100 -DEXTENDED_JOINING_RANDOM_MASK=0x007F
//        -DBEACON_REQUEST_DELAY=100 -DBEACON_REQ_DELAY_MASK=0x00FF
//        -DLINK_STATUS_JITTER_MASK=0x007F -DROUTE_EXPIRY_TIME=30
//        -DAPSC_ACK_WAIT_DURATION_POLLED=3000 -DNWK_INDIRECT_MSG_TIMEOUT=7
//        -DMAX_RREQ_ENTRIES=8 -DAPSC_MAX_FRAME_RETRIES=3
//        -DNWK_MAX_DATA_RETRIES=2 -DMAX_POLL_FAILURE_RETRIES=2 -DMAX_BCAST=9
//        -DAPS_MAX_GROUPS=16 -DMAX_RTG_ENTRIES=40 -DNWK_MAX_BINDING_ENTRIES=4
//        -DMAX_BINDING_CLUSTER_IDS=4 -DDEFAULT_KEY={0}
//        -DMAC_MAX_FRAME_SIZE=116 -DZDNWKMGR_MIN_TRANSMISSIONS=20
//        "-DCONST=const __code" -DGENERIC=__generic -DRFD_RCVC_ALWAYS_ON=FALSE
//        -DPOLL_RATE=1000 -DQUEUED_POLL_RATE=100 -DRESPONSE_POLL_RATE=100
//        -DREJOIN_POLL_RATE=440 -DREJOIN_BACKOFF=900000 -DREJOIN_SCAN=900000
//        -DENABLE_LED4_DISABLE_S1) -f "D:\AA\Z-Stack
//        3.0.2\Projects\zstack\HomeAutomation\SampleThermostat\CC2530DB\..\..\..\Tools\CC2530DB\f8wZCL.cfg"
//        -I "D:\AA\Z-Stack
//        3.0.2\Projects\zstack\HomeAutomation\SampleThermostat\CC2530DB\" -I
//        "D:\AA\Z-Stack
//        3.0.2\Projects\zstack\HomeAutomation\SampleThermostat\CC2530DB\..\Source\"
//        -I "D:\AA\Z-Stack
//        3.0.2\Projects\zstack\HomeAutomation\SampleThermostat\CC2530DB\..\..\Source\"
//        -I "D:\AA\Z-Stack
//        3.0.2\Projects\zstack\HomeAutomation\SampleThermostat\CC2530DB\..\..\..\ZMain\TI2530DB\"
//        -I "D:\AA\Z-Stack
//        3.0.2\Projects\zstack\HomeAutomation\SampleThermostat\CC2530DB\..\..\..\..\..\Components\hal\include\"
//        -I "D:\AA\Z-Stack
//        3.0.2\Projects\zstack\HomeAutomation\SampleThermostat\CC2530DB\..\..\..\..\..\Components\hal\target\CC2530EB\"
//        -I "D:\AA\Z-Stack
//        3.0.2\Projects\zstack\HomeAutomation\SampleThermostat\CC2530DB\..\..\..\..\..\Components\mac\include\"
//        -I "D:\AA\Z-Stack
//        3.0.2\Projects\zstack\HomeAutomation\SampleThermostat\CC2530DB\..\..\..\..\..\Components\mac\high_level\"
//        -I "D:\AA\Z-Stack
//        3.0.2\Projects\zstack\HomeAutomation\SampleThermostat\CC2530DB\..\..\..\..\..\Components\mac\low_level\srf04\"
//        -I "D:\AA\Z-Stack
//        3.0.2\Projects\zstack\HomeAutomation\SampleThermostat\CC2530DB\..\..\..\..\..\Components\mac\low_level\srf04\single_chip\"
//        -I "D:\AA\Z-Stack
//        3.0.2\Projects\zstack\HomeAutomation\SampleThermostat\CC2530DB\..\..\..\..\..\Components\mt\"
//        -I "D:\AA\Z-Stack
//        3.0.2\Projects\zstack\HomeAutomation\SampleThermostat\CC2530DB\..\..\..\..\..\Components\osal\include\"
//        -I "D:\AA\Z-Stack
//        3.0.2\Projects\zstack\HomeAutomation\SampleThermostat\CC2530DB\..\..\..\..\..\Components\services\saddr\"
//        -I "D:\AA\Z-Stack
//        3.0.2\Projects\zstack\HomeAutomation\SampleThermostat\CC2530DB\..\..\..\..\..\Components\services\sdata\"
//        -I "D:\AA\Z-Stack
//        3.0.2\Projects\zstack\HomeAutomation\SampleThermostat\CC2530DB\..\..\..\..\..\Components\stack\af\"
//        -I "D:\AA\Z-Stack
//        3.0.2\Projects\zstack\HomeAutomation\SampleThermostat\CC2530DB\..\..\..\..\..\Components\stack\bdb\"
//        -I "D:\AA\Z-Stack
//        3.0.2\Projects\zstack\HomeAutomation\SampleThermostat\CC2530DB\..\..\..\..\..\Components\stack\gp\"
//        -I "D:\AA\Z-Stack
//        3.0.2\Projects\zstack\HomeAutomation\SampleThermostat\CC2530DB\..\..\..\..\..\Components\stack\nwk\"
//        -I "D:\AA\Z-Stack
//        3.0.2\Projects\zstack\HomeAutomation\SampleThermostat\CC2530DB\..\..\..\..\..\Components\stack\sapi\"
//        -I "D:\AA\Z-Stack
//        3.0.2\Projects\zstack\HomeAutomation\SampleThermostat\CC2530DB\..\..\..\..\..\Components\stack\sec\"
//        -I "D:\AA\Z-Stack
//        3.0.2\Projects\zstack\HomeAutomation\SampleThermostat\CC2530DB\..\..\..\..\..\Components\stack\sys\"
//        -I "D:\AA\Z-Stack
//        3.0.2\Projects\zstack\HomeAutomation\SampleThermostat\CC2530DB\..\..\..\..\..\Components\stack\zcl\"
//        -I "D:\AA\Z-Stack
//        3.0.2\Projects\zstack\HomeAutomation\SampleThermostat\CC2530DB\..\..\..\..\..\Components\stack\zdo\"
//        -I "D:\AA\Z-Stack
//        3.0.2\Projects\zstack\HomeAutomation\SampleThermostat\CC2530DB\..\..\..\..\..\Components\zmac\"
//        -I "D:\AA\Z-Stack
//        3.0.2\Projects\zstack\HomeAutomation\SampleThermostat\CC2530DB\..\..\..\..\..\Components\zmac\f8w\"
//        -Ohz --require_prototypes)
//    Locale             =  Chinese (Simplified)_CHN.936
//    List file          =  
//        D:\AA\Z-Stack
//        3.0.2\Projects\zstack\HomeAutomation\SampleThermostat\CC2530DB\CoordinatorEB\List\uart0.s51
//
///////////////////////////////////////////////////////////////////////////////

        NAME uart0

        RTMODEL "__SystemLibrary", "CLib"
        RTMODEL "__calling_convention", "xdata_reentrant"
        RTMODEL "__code_model", "banked"
        RTMODEL "__core", "plain"
        RTMODEL "__data_model", "large"
        RTMODEL "__dptr_size", "16"
        RTMODEL "__extended_stack", "disabled"
        RTMODEL "__location_for_constants", "data"
        RTMODEL "__number_of_dptrs", "1"
        RTMODEL "__register_banks", "*"
        RTMODEL "__rt_version", "1"

        RSEG DOVERLAY:DATA:NOROOT(0)
        RSEG IOVERLAY:IDATA:NOROOT(0)
        RSEG ISTACK:IDATA:NOROOT(0)
        RSEG PSTACK:XDATA:NOROOT(0)
        RSEG XSTACK:XDATA:NOROOT(0)

        EXTERN ?V0
        EXTERN ?V1
        EXTERN ?ALLOC_XSTACK8
        EXTERN ?BANKED_ENTER_XDATA
        EXTERN ?BANKED_LEAVE_XDATA
        EXTERN ?BDISPATCH
        EXTERN ?BRET
        EXTERN ?DEALLOC_XSTACK8
        EXTERN ?PUSH_XSTACK_I_TWO
        EXTERN ?XSP
        EXTERN ?XSTACK_DISP0_8
        EXTERN __INIT_XDATA_I
        EXTERN __INIT_XDATA_Z

        PUBLIC `??RegisterForUart0::?relay`
        FUNCTION `??RegisterForUart0::?relay`,0203H
        PUBLIC `??Uart0_Handle::?relay`
        FUNCTION `??Uart0_Handle::?relay`,0203H
        PUBLIC `??Uart0_Init::?relay`
        FUNCTION `??Uart0_Init::?relay`,0203H
        PUBLIC `??Uart0_Process::?relay`
        FUNCTION `??Uart0_Process::?relay`,0203H
        PUBLIC `??Uart0_Reset::?relay`
        FUNCTION `??Uart0_Reset::?relay`,0203H
        PUBLIC RegisterForUart0
        FUNCTION RegisterForUart0,0203H
        ARGFRAME XSTACK, 0, STACK
        LOCFRAME ISTACK, 2, STACK
        PUBLIC UART0_RX_BUFF
        PUBLIC UART0_RX_LEN
        PUBLIC UART0_RX_STA
        PUBLIC Uart0_Handle
        FUNCTION Uart0_Handle,0203H
        ARGFRAME XSTACK, 0, STACK
        PUBLIC Uart0_Init
        FUNCTION Uart0_Init,021203H
        ARGFRAME XSTACK, 0, STACK
        LOCFRAME ISTACK, 1, STACK
        LOCFRAME XSTACK, 38, STACK
        PUBLIC Uart0_Process
        FUNCTION Uart0_Process,0a1603H
        ARGFRAME XSTACK, 0, STACK
        LOCFRAME ISTACK, 1, STACK
        LOCFRAME XSTACK, 11, STACK
        PUBLIC Uart0_Reset
        FUNCTION Uart0_Reset,0a1203H
        ARGFRAME XSTACK, 11, STACK
        ARGFRAME IOVERLAY, 0, STATIC
        ARGFRAME DOVERLAY, 0, STATIC
        LOCFRAME XSTACK, 12, STACK
        
          CFI Names cfiNames0
          CFI StackFrame CFA_SP SP IDATA
          CFI StackFrame CFA_PSP16 PSP16 XDATA
          CFI StackFrame CFA_XSP16 XSP16 XDATA
          CFI StaticOverlayFrame CFA_IOVERLAY IOVERLAY
          CFI StaticOverlayFrame CFA_DOVERLAY DOVERLAY
          CFI Resource `PSW.CY`:1, `B.BR0`:1, `B.BR1`:1, `B.BR2`:1, `B.BR3`:1
          CFI Resource `B.BR4`:1, `B.BR5`:1, `B.BR6`:1, `B.BR7`:1, `VB.BR8`:1
          CFI Resource `VB.BR9`:1, `VB.BR10`:1, `VB.BR11`:1, `VB.BR12`:1
          CFI Resource `VB.BR13`:1, `VB.BR14`:1, `VB.BR15`:1, VB:8, B:8, A:8
          CFI Resource PSW:8, DPL0:8, DPH0:8, R0:8, R1:8, R2:8, R3:8, R4:8, R5:8
          CFI Resource R6:8, R7:8, V0:8, V1:8, V2:8, V3:8, V4:8, V5:8, V6:8, V7:8
          CFI Resource V8:8, V9:8, V10:8, V11:8, V12:8, V13:8, V14:8, V15:8, SP:8
          CFI Resource PSPH:8, PSPL:8, PSP16:16, XSPH:8, XSPL:8, XSP16:16
          CFI VirtualResource ?RET:24
          CFI Resource ?BRET_EXT:8
          CFI VirtualResource ?RET_HIGH:8, ?RET_LOW:8
          CFI ResourceParts PSP16 PSPH, PSPL
          CFI ResourceParts XSP16 XSPH, XSPL
          CFI ResourceParts ?RET ?BRET_EXT, ?RET_HIGH, ?RET_LOW
          CFI EndNames cfiNames0
        
          CFI Common cfiCommon0 Using cfiNames0
          CFI CodeAlign 1
          CFI DataAlign -1
          CFI ReturnAddress ?RET CODE
          CFI CFA_DOVERLAY Used
          CFI CFA_IOVERLAY Used
          CFI CFA_SP SP+-3
          CFI CFA_PSP16 PSP16+0
          CFI CFA_XSP16 XSP16+0
          CFI `PSW.CY` SameValue
          CFI `B.BR0` SameValue
          CFI `B.BR1` SameValue
          CFI `B.BR2` SameValue
          CFI `B.BR3` SameValue
          CFI `B.BR4` SameValue
          CFI `B.BR5` SameValue
          CFI `B.BR6` SameValue
          CFI `B.BR7` SameValue
          CFI `VB.BR8` SameValue
          CFI `VB.BR9` SameValue
          CFI `VB.BR10` SameValue
          CFI `VB.BR11` SameValue
          CFI `VB.BR12` SameValue
          CFI `VB.BR13` SameValue
          CFI `VB.BR14` SameValue
          CFI `VB.BR15` SameValue
          CFI VB SameValue
          CFI B Undefined
          CFI A Undefined
          CFI PSW SameValue
          CFI DPL0 SameValue
          CFI DPH0 SameValue
          CFI R0 Undefined
          CFI R1 Undefined
          CFI R2 Undefined
          CFI R3 Undefined
          CFI R4 Undefined
          CFI R5 Undefined
          CFI R6 SameValue
          CFI R7 SameValue
          CFI V0 SameValue
          CFI V1 SameValue
          CFI V2 SameValue
          CFI V3 SameValue
          CFI V4 SameValue
          CFI V5 SameValue
          CFI V6 SameValue
          CFI V7 SameValue
          CFI V8 SameValue
          CFI V9 SameValue
          CFI V10 SameValue
          CFI V11 SameValue
          CFI V12 SameValue
          CFI V13 SameValue
          CFI V14 SameValue
          CFI V15 SameValue
          CFI PSPH Undefined
          CFI PSPL Undefined
          CFI XSPH Undefined
          CFI XSPL Undefined
          CFI ?RET Concat
          CFI ?BRET_EXT Frame(CFA_SP, 3)
          CFI ?RET_HIGH Frame(CFA_SP, 2)
          CFI ?RET_LOW Frame(CFA_SP, 1)
          CFI EndCommon cfiCommon0
        
HalUARTOpen         SYMBOL "HalUARTOpen"
`??HalUARTOpen::?relay` SYMBOL "?relay", HalUARTOpen
HalUARTRead         SYMBOL "HalUARTRead"
`??HalUARTRead::?relay` SYMBOL "?relay", HalUARTRead
Hal_UART_RxBufLen   SYMBOL "Hal_UART_RxBufLen"
`??Hal_UART_RxBufLen::?relay` SYMBOL "?relay", Hal_UART_RxBufLen
memset              SYMBOL "memset"
`??memset::?relay`  SYMBOL "?relay", memset
RegisterForUart0    SYMBOL "RegisterForUart0"
`??RegisterForUart0::?relay` SYMBOL "?relay", RegisterForUart0
Uart0_Handle        SYMBOL "Uart0_Handle"
`??Uart0_Handle::?relay` SYMBOL "?relay", Uart0_Handle
Uart0_Init          SYMBOL "Uart0_Init"
`??Uart0_Init::?relay` SYMBOL "?relay", Uart0_Init
Uart0_Process       SYMBOL "Uart0_Process"
`??Uart0_Process::?relay` SYMBOL "?relay", Uart0_Process
Uart0_Reset         SYMBOL "Uart0_Reset"
`??Uart0_Reset::?relay` SYMBOL "?relay", Uart0_Reset

        EXTERN `??HalUARTOpen::?relay`
        FUNCTION `??HalUARTOpen::?relay`,00H
        EXTERN `??HalUARTRead::?relay`
        FUNCTION `??HalUARTRead::?relay`,00H
        EXTERN `??Hal_UART_RxBufLen::?relay`
        FUNCTION `??Hal_UART_RxBufLen::?relay`,00H
        EXTERN `??memset::?relay`
        FUNCTION `??memset::?relay`,00H
        EXTERN HalUARTOpen
        FUNCTION HalUARTOpen,0202H
        ARGFRAME ISTACK, 0, STACK
        ARGFRAME PSTACK, 0, STACK
        ARGFRAME XSTACK, 38, STACK
        ARGFRAME IOVERLAY, 0, STATIC
        ARGFRAME DOVERLAY, 0, STATIC
        EXTERN HalUARTRead
        FUNCTION HalUARTRead,0202H
        ARGFRAME ISTACK, 0, STACK
        ARGFRAME PSTACK, 0, STACK
        ARGFRAME XSTACK, 11, STACK
        ARGFRAME IOVERLAY, 0, STATIC
        ARGFRAME DOVERLAY, 0, STATIC
        EXTERN Hal_UART_RxBufLen
        FUNCTION Hal_UART_RxBufLen,0202H
        ARGFRAME ISTACK, 0, STACK
        ARGFRAME PSTACK, 0, STACK
        ARGFRAME XSTACK, 11, STACK
        ARGFRAME IOVERLAY, 0, STATIC
        ARGFRAME DOVERLAY, 0, STATIC
        EXTERN memset
        FUNCTION memset,010202H
        ARGFRAME ISTACK, 0, STACK
        ARGFRAME PSTACK, 0, STACK
        ARGFRAME XSTACK, 12, STACK
        ARGFRAME IOVERLAY, 0, STATIC
        ARGFRAME DOVERLAY, 0, STATIC

// D:\AA\Z-Stack 3.0.2\Projects\zstack\HomeAutomation\SampleThermostat\Source\uart0.c
//    1 #include "uart0.h"
//    2 #include "hal_uart.h"
//    3 #include "string.h"
//    4 #include "user_printf.h"
//    5 #include "OSAL.h"
//    6 #include "comdef.h"
//    7 #include "ZComDef.h"
//    8 #include "OnBoard.h"
//    9 
//   10 #define NO_TASK_ID 0xFF
//   11 
//   12 void Uart0_Handle( void );
//   13 void Uart0_Reset( void );
//   14 

        RSEG XDATA_Z:XDATA:NOROOT(0)
        DATA8
//   15 uint8 UART0_RX_BUFF[UART0_RX_BUFF_MAX];//接收缓存区
UART0_RX_BUFF:
        DS 60
        REQUIRE __INIT_XDATA_Z

        RSEG XDATA_Z:XDATA:NOROOT(0)
        DATA8
//   16 uint8 UART0_RX_STA = 0;                //接收状态标记
UART0_RX_STA:
        DS 1
        REQUIRE __INIT_XDATA_Z

        RSEG XDATA_Z:XDATA:NOROOT(0)
        DATA8
//   17 uint8 UART0_RX_LEN = 0;                //接收数据长度
UART0_RX_LEN:
        DS 1
        REQUIRE __INIT_XDATA_Z
//   18 

        RSEG XDATA_I:XDATA:NOROOT(0)
//   19 static uint8 registeredUart0TaskID = NO_TASK_ID;
registeredUart0TaskID:
        DATA8
        DS 1
        REQUIRE `?<Initializer for registeredUart0TaskID>`
        REQUIRE __INIT_XDATA_I
//   20 

        RSEG BANKED_CODE:HUGECODE:NOROOT(0)
//   21 uint8 RegisterForUart0( uint8 task_id )
RegisterForUart0:
          CFI Block cfiBlock0 Using cfiCommon0
          CFI Function RegisterForUart0
        CODE
//   22 {
        PUSH      DPL
          CFI DPL0 Frame(CFA_SP, 4)
          CFI CFA_SP SP+-4
        PUSH      DPH
          CFI DPH0 Frame(CFA_SP, 5)
          CFI CFA_SP SP+-5
        ; Saved register size: 2
        ; Auto size: 0
//   23   if ( registeredUart0TaskID == NO_TASK_ID )
        MOV       DPTR,#registeredUart0TaskID
        MOVX      A,@DPTR
        CPL       A
        JNZ       ??RegisterForUart0_0
//   24   {
//   25     registeredUart0TaskID = task_id;
        MOV       A,R1
        MOVX      @DPTR,A
//   26     return ( true );
        MOV       R1,#0x1
        SJMP      ??RegisterForUart0_1
//   27   }
//   28   else
//   29     return ( false );
??RegisterForUart0_0:
        MOV       R1,#0x0
??RegisterForUart0_1:
        POP       DPH
          CFI DPH0 SameValue
          CFI CFA_SP SP+-4
        POP       DPL
          CFI DPL0 SameValue
          CFI CFA_SP SP+-3
        LJMP      ?BRET
//   30 }
          CFI EndBlock cfiBlock0
//   31 

        RSEG BANKED_CODE:HUGECODE:NOROOT(0)
//   32 void Uart0_Init(uint8 baudRate)
Uart0_Init:
          CFI Block cfiBlock1 Using cfiCommon0
          CFI Function Uart0_Init
        CODE
//   33 {
        FUNCALL Uart0_Init, HalUARTOpen
        LOCFRAME ISTACK, 0, STACK
        LOCFRAME PSTACK, 0, STACK
        LOCFRAME XSTACK, 38, STACK
        LOCFRAME IOVERLAY, 0, STATIC
        LOCFRAME DOVERLAY, 0, STATIC
        ARGFRAME ISTACK, 0, STACK
        ARGFRAME PSTACK, 0, STACK
        ARGFRAME XSTACK, 38, STACK
        ARGFRAME IOVERLAY, 0, STATIC
        ARGFRAME DOVERLAY, 0, STATIC
        MOV       A,#-0x9
        LCALL     ?BANKED_ENTER_XDATA
          CFI DPH0 load(1, XDATA, add(CFA_XSP16, literal(-1)))
          CFI DPL0 load(1, XDATA, add(CFA_XSP16, literal(-2)))
          CFI ?BRET_EXT load(1, XDATA, add(CFA_XSP16, literal(-3)))
          CFI ?RET_HIGH load(1, XDATA, add(CFA_XSP16, literal(-4)))
          CFI ?RET_LOW load(1, XDATA, add(CFA_XSP16, literal(-5)))
          CFI R7 load(1, XDATA, add(CFA_XSP16, literal(-6)))
          CFI V0 load(1, XDATA, add(CFA_XSP16, literal(-7)))
          CFI VB load(1, XDATA, add(CFA_XSP16, literal(-8)))
          CFI R6 load(1, XDATA, add(CFA_XSP16, literal(-9)))
          CFI CFA_SP SP+0
          CFI CFA_XSP16 add(XSP16, 9)
        ; Saved register size: 9
        ; Auto size: 29
        MOV       A,#-0x1d
        LCALL     ?ALLOC_XSTACK8
          CFI CFA_XSP16 add(XSP16, 38)
//   34   halUARTCfg_t uartConfig;
//   35 
//   36   uartConfig.configured           = TRUE;
        MOV       DPL,?XSP + 0
        MOV       DPH,?XSP + 1
        MOV       A,#0x1
        MOVX      @DPTR,A
//   37   uartConfig.baudRate             = baudRate;
        LCALL     ?XSTACK_DISP0_8
        MOV       A,R1
        MOVX      @DPTR,A
//   38   uartConfig.flowControl          = FALSE;
        MOV       A,#0x2
        LCALL     ?XSTACK_DISP0_8
        CLR       A
        MOVX      @DPTR,A
//   39   uartConfig.flowControlThreshold = UART0_THRESHOLD;
        MOV       A,#0x3
        LCALL     ?XSTACK_DISP0_8
        MOV       A,#0x1e
        MOVX      @DPTR,A
        INC       DPTR
        CLR       A
        MOVX      @DPTR,A
//   40   uartConfig.rx.maxBufSize        = UART0_RX_BUFF_MAX;
        MOV       A,#0xa
        LCALL     ?XSTACK_DISP0_8
        MOV       A,#0x3c
        MOVX      @DPTR,A
        INC       DPTR
        CLR       A
        MOVX      @DPTR,A
//   41   uartConfig.tx.maxBufSize        = UART0_TX_BUFF_MAX;
        MOV       A,#0x12
        LCALL     ?XSTACK_DISP0_8
        MOV       A,#0x3c
        MOVX      @DPTR,A
        INC       DPTR
        CLR       A
        MOVX      @DPTR,A
//   42   uartConfig.idleTimeout          = UART0_IDLE_TIMEOUT;
        MOV       A,#0x5
        LCALL     ?XSTACK_DISP0_8
        MOV       A,#0x6
        MOVX      @DPTR,A
//   43   uartConfig.intEnable            = TRUE;
        MOV       A,#0x16
        LCALL     ?XSTACK_DISP0_8
        MOV       A,#0x1
        MOVX      @DPTR,A
//   44   uartConfig.callBackFunc         = Uart0_Process;
        MOV       A,#0x1b
        LCALL     ?XSTACK_DISP0_8
        MOV       A,#`??Uart0_Process::?relay` & 0xff
        MOVX      @DPTR,A
        INC       DPTR
        MOV       A,#(`??Uart0_Process::?relay` >> 8) & 0xff
        MOVX      @DPTR,A
//   45 
//   46   HalUARTOpen (HAL_UART_PORT_0, &uartConfig);
        ; Setup parameters for call to function HalUARTOpen
        MOV       R2,?XSP + 0
        MOV       R3,?XSP + 1
        MOV       R1,#0x0
        LCALL     `??HalUARTOpen::?relay`; Banked call to: HalUARTOpen
//   47 }
        MOV       A,#0x1d
        LCALL     ?DEALLOC_XSTACK8
          CFI CFA_XSP16 add(XSP16, 9)
        MOV       R7,#0x1
        LJMP      ?BANKED_LEAVE_XDATA
          CFI EndBlock cfiBlock1
//   48 

        RSEG BANKED_CODE:HUGECODE:NOROOT(0)
//   49 void Uart0_Process( uint8 port, uint8 event )
Uart0_Process:
          CFI Block cfiBlock2 Using cfiCommon0
          CFI Function Uart0_Process
        CODE
//   50 {
        FUNCALL Uart0_Process, Hal_UART_RxBufLen
        LOCFRAME ISTACK, 0, STACK
        LOCFRAME PSTACK, 0, STACK
        LOCFRAME XSTACK, 11, STACK
        LOCFRAME IOVERLAY, 0, STATIC
        LOCFRAME DOVERLAY, 0, STATIC
        ARGFRAME ISTACK, 0, STACK
        ARGFRAME PSTACK, 0, STACK
        ARGFRAME XSTACK, 11, STACK
        ARGFRAME IOVERLAY, 0, STATIC
        ARGFRAME DOVERLAY, 0, STATIC
        FUNCALL Uart0_Process, HalUARTRead
        LOCFRAME ISTACK, 0, STACK
        LOCFRAME PSTACK, 0, STACK
        LOCFRAME XSTACK, 11, STACK
        LOCFRAME IOVERLAY, 0, STATIC
        LOCFRAME DOVERLAY, 0, STATIC
        ARGFRAME ISTACK, 0, STACK
        ARGFRAME PSTACK, 0, STACK
        ARGFRAME XSTACK, 11, STACK
        ARGFRAME IOVERLAY, 0, STATIC
        ARGFRAME DOVERLAY, 0, STATIC
        FUNCALL Uart0_Process, Uart0_Reset
        LOCFRAME ISTACK, 0, STACK
        LOCFRAME PSTACK, 0, STACK
        LOCFRAME XSTACK, 11, STACK
        LOCFRAME IOVERLAY, 0, STATIC
        LOCFRAME DOVERLAY, 0, STATIC
        ARGFRAME ISTACK, 0, STACK
        ARGFRAME PSTACK, 0, STACK
        ARGFRAME XSTACK, 11, STACK
        ARGFRAME IOVERLAY, 0, STATIC
        ARGFRAME DOVERLAY, 0, STATIC
        REQUIRE ?V0
        REQUIRE ?V1
        MOV       A,#-0xa
        LCALL     ?BANKED_ENTER_XDATA
          CFI DPH0 load(1, XDATA, add(CFA_XSP16, literal(-1)))
          CFI DPL0 load(1, XDATA, add(CFA_XSP16, literal(-2)))
          CFI ?BRET_EXT load(1, XDATA, add(CFA_XSP16, literal(-3)))
          CFI ?RET_HIGH load(1, XDATA, add(CFA_XSP16, literal(-4)))
          CFI ?RET_LOW load(1, XDATA, add(CFA_XSP16, literal(-5)))
          CFI R7 load(1, XDATA, add(CFA_XSP16, literal(-6)))
          CFI V1 load(1, XDATA, add(CFA_XSP16, literal(-7)))
          CFI V0 load(1, XDATA, add(CFA_XSP16, literal(-8)))
          CFI VB load(1, XDATA, add(CFA_XSP16, literal(-9)))
          CFI R6 load(1, XDATA, add(CFA_XSP16, literal(-10)))
          CFI CFA_SP SP+0
          CFI CFA_XSP16 add(XSP16, 10)
        ; Saved register size: 10
        ; Auto size: 1
        MOV       A,#-0x1
        LCALL     ?ALLOC_XSTACK8
          CFI CFA_XSP16 add(XSP16, 11)
        MOV       A,R1
        MOV       R6,A
//   51   UART0_RX_STA = 0;
        MOV       DPTR,#UART0_RX_STA
        CLR       A
        MOVX      @DPTR,A
//   52   UART0_RX_LEN = 0;
        MOV       DPTR,#UART0_RX_LEN
        MOVX      @DPTR,A
//   53   uint8 Res;
//   54   (void)event;  // Intentionally unreferenced parameter
//   55 
//   56   while (Hal_UART_RxBufLen(port))
??Uart0_Process_0:
        ; Setup parameters for call to function Hal_UART_RxBufLen
        MOV       A,R6
        MOV       R1,A
        LCALL     `??Hal_UART_RxBufLen::?relay`; Banked call to: Hal_UART_RxBufLen
        MOV       A,R2
        ORL       A,R3
        JZ        ??Uart0_Process_1
//   57   {
//   58     HalUARTRead (port, &Res, 1);//读取一个字节
        ; Setup parameters for call to function HalUARTRead
        MOV       R4,#0x1
        MOV       R5,#0x0
        MOV       R2,?XSP + 0
        MOV       R3,?XSP + 1
        MOV       A,R6
        MOV       R1,A
        LCALL     `??HalUARTRead::?relay`; Banked call to: HalUARTRead
//   59     UART0_RX_BUFF[UART0_RX_STA&0x3F]=Res ;
        MOV       DPL,?XSP + 0
        MOV       DPH,?XSP + 1
        MOVX      A,@DPTR
        PUSH      A
          CFI CFA_SP SP+-1
        MOV       DPTR,#UART0_RX_STA
        MOVX      A,@DPTR
        ANL       A,#0x3f
        MOV       R0,A
        MOV       A,#UART0_RX_BUFF & 0xff
        ADD       A,R0
        MOV       DPL,A
        CLR       A
        ADDC      A,#(UART0_RX_BUFF >> 8) & 0xff
        MOV       DPH,A
        POP       A
          CFI CFA_SP SP+0
        MOVX      @DPTR,A
//   60     UART0_RX_STA++;
        MOV       DPTR,#UART0_RX_STA
        MOVX      A,@DPTR
        INC       A
        MOVX      @DPTR,A
//   61 
//   62     if((UART0_RX_STA&0x80)==0)//接收未完成
        MOV       C,0xE0 /* A   */.7
        JC        ??Uart0_Process_2
//   63     {
//   64       if(UART0_RX_STA&0x40)//前一个接收到的数据结束符的“前一半”
        MOV       C,0xE0 /* A   */.6
        MOV       DPL,?XSP + 0
        MOV       DPH,?XSP + 1
        MOVX      A,@DPTR
        JNC       ??Uart0_Process_3
//   65       {
//   66         if     (Res==0x0A)
        XRL       A,#0xa
        JNZ       ??Uart0_Process_4
//   67         {
//   68           UART0_RX_STA |= 0x80;//接收完成了
        MOV       DPTR,#UART0_RX_STA
        MOVX      A,@DPTR
        SETB      0xE0 /* A   */.7
        SJMP      ??Uart0_Process_5
//   69         }
//   70         else if(Res!=0x0D)
??Uart0_Process_4:
        MOVX      A,@DPTR
        XRL       A,#0xd
        JZ        ??Uart0_Process_2
//   71         {
//   72           UART0_RX_STA &= 0xBF;//不是结束符，则将前半个结束符标志置0
        MOV       DPTR,#UART0_RX_STA
        MOVX      A,@DPTR
        CLR       0xE0 /* A   */.6
        SJMP      ??Uart0_Process_5
//   73         }
//   74       }
//   75       else
//   76       {
//   77         if(Res==0x0D)
??Uart0_Process_3:
        XRL       A,#0xd
        JNZ       ??Uart0_Process_2
//   78         {
//   79           UART0_RX_STA |= 0x40;
        MOV       DPTR,#UART0_RX_STA
        MOVX      A,@DPTR
        SETB      0xE0 /* A   */.6
??Uart0_Process_5:
        MOVX      @DPTR,A
//   80         }
//   81       }
//   82     }
//   83 
//   84     if((UART0_RX_STA&0x80)==0x80)
??Uart0_Process_2:
        MOV       DPTR,#UART0_RX_STA
        MOVX      A,@DPTR
        MOV       C,0xE0 /* A   */.7
        JNC       ??Uart0_Process_0
//   85     {
//   86       UART0_RX_LEN = (UART0_RX_STA&0x3F)-2;
        ANL       A,#0x3f
        ADD       A,#-0x2
        MOV       DPTR,#UART0_RX_LEN
        MOVX      @DPTR,A
//   87       Uart0_Handle();
//   88       Uart0_Reset();
        ; Setup parameters for call to function Uart0_Reset
        LCALL     `??Uart0_Reset::?relay`; Banked call to: Uart0_Reset
//   89       break;
//   90     }
//   91   }
//   92 }
??Uart0_Process_1:
        MOV       A,#0x1
        LCALL     ?DEALLOC_XSTACK8
          CFI EndBlock cfiBlock2
        REQUIRE ?Subroutine0
        ; // Fall through to label ?Subroutine0

        RSEG BANKED_CODE:HUGECODE:NOROOT(0)
?Subroutine0:
          CFI Block cfiBlock3 Using cfiCommon0
          CFI NoFunction
          CFI CFA_SP SP+0
          CFI CFA_XSP16 add(XSP16, 10)
          CFI VB load(1, XDATA, add(CFA_XSP16, literal(-9)))
          CFI DPL0 load(1, XDATA, add(CFA_XSP16, literal(-2)))
          CFI DPH0 load(1, XDATA, add(CFA_XSP16, literal(-1)))
          CFI R6 load(1, XDATA, add(CFA_XSP16, literal(-10)))
          CFI R7 load(1, XDATA, add(CFA_XSP16, literal(-6)))
          CFI V0 load(1, XDATA, add(CFA_XSP16, literal(-8)))
          CFI V1 load(1, XDATA, add(CFA_XSP16, literal(-7)))
          CFI ?BRET_EXT load(1, XDATA, add(CFA_XSP16, literal(-3)))
          CFI ?RET_HIGH load(1, XDATA, add(CFA_XSP16, literal(-4)))
          CFI ?RET_LOW load(1, XDATA, add(CFA_XSP16, literal(-5)))
        MOV       R7,#0x2
        LJMP      ?BANKED_LEAVE_XDATA
          CFI EndBlock cfiBlock3
//   93 

        RSEG BANKED_CODE:HUGECODE:NOROOT(0)
//   94 void Uart0_Handle( void )
Uart0_Handle:
          CFI Block cfiBlock4 Using cfiCommon0
          CFI Function Uart0_Handle
        CODE
//   95 {
        ; Saved register size: 0
        ; Auto size: 0
//   96 //  if(strstr((const char*)UART0_RX_BUFF,"LED1_ON"))
//   97 //  {
//   98 //    printf("Router LED1_ON\n");
//   99 //    UART0_t *msgPtr;
//  100 //    msgPtr = (UART0_t *)osal_msg_allocate( sizeof(UART0_t) );
//  101 //    if ( msgPtr )
//  102 //    {
//  103 //      msgPtr->hdr.event = UART0_MESSAGE_LED1_ON;
//  104 //
//  105 //      osal_msg_send( registeredUart0TaskID, (uint8 *)msgPtr );
//  106 //    }
//  107 //  }
//  108 //  else if(strstr((const char*)UART0_RX_BUFF,"LED1_OFF"))
//  109 //  {
//  110 //    printf("Router LED1_OFF\n");
//  111 //    UART0_t *msgPtr;
//  112 //    msgPtr = (UART0_t *)osal_msg_allocate( sizeof(UART0_t) );
//  113 //    if ( msgPtr )
//  114 //    {
//  115 //      msgPtr->hdr.event = UART0_MESSAGE_LED1_OFF;
//  116 //
//  117 //      osal_msg_send( registeredUart0TaskID, (uint8 *)msgPtr );
//  118 //    }
//  119 //  }
//  120 }
        LJMP      ?BRET
          CFI EndBlock cfiBlock4
//  121 

        RSEG BANKED_CODE:HUGECODE:NOROOT(0)
//  122 void Uart0_Reset( void )
Uart0_Reset:
          CFI Block cfiBlock5 Using cfiCommon0
          CFI Function Uart0_Reset
        CODE
//  123 {
        FUNCALL Uart0_Reset, memset
        LOCFRAME ISTACK, 0, STACK
        LOCFRAME PSTACK, 0, STACK
        LOCFRAME XSTACK, 12, STACK
        LOCFRAME IOVERLAY, 0, STATIC
        LOCFRAME DOVERLAY, 0, STATIC
        ARGFRAME ISTACK, 0, STACK
        ARGFRAME PSTACK, 0, STACK
        ARGFRAME XSTACK, 12, STACK
        ARGFRAME IOVERLAY, 0, STATIC
        ARGFRAME DOVERLAY, 0, STATIC
        REQUIRE ?V0
        REQUIRE ?V1
        MOV       A,#-0xa
        LCALL     ?BANKED_ENTER_XDATA
          CFI DPH0 load(1, XDATA, add(CFA_XSP16, literal(-1)))
          CFI DPL0 load(1, XDATA, add(CFA_XSP16, literal(-2)))
          CFI ?BRET_EXT load(1, XDATA, add(CFA_XSP16, literal(-3)))
          CFI ?RET_HIGH load(1, XDATA, add(CFA_XSP16, literal(-4)))
          CFI ?RET_LOW load(1, XDATA, add(CFA_XSP16, literal(-5)))
          CFI R7 load(1, XDATA, add(CFA_XSP16, literal(-6)))
          CFI V1 load(1, XDATA, add(CFA_XSP16, literal(-7)))
          CFI V0 load(1, XDATA, add(CFA_XSP16, literal(-8)))
          CFI VB load(1, XDATA, add(CFA_XSP16, literal(-9)))
          CFI R6 load(1, XDATA, add(CFA_XSP16, literal(-10)))
          CFI CFA_SP SP+0
          CFI CFA_XSP16 add(XSP16, 10)
        ; Saved register size: 10
        ; Auto size: 0
//  124   memset(UART0_RX_BUFF,0,UART0_RX_BUFF_MAX);
        ; Setup parameters for call to function memset
        MOV       ?V0,#0x3c
        MOV       ?V1,#0x0
        MOV       R0,#?V0
        LCALL     ?PUSH_XSTACK_I_TWO
          CFI CFA_XSP16 add(XSP16, 12)
        MOV       R4,#0x0
        MOV       R5,#0x0
        MOV       R2,#UART0_RX_BUFF & 0xff
        MOV       R3,#(UART0_RX_BUFF >> 8) & 0xff
        LCALL     `??memset::?relay`; Banked call to: memset
        MOV       A,#0x2
        LCALL     ?DEALLOC_XSTACK8
          CFI CFA_XSP16 add(XSP16, 10)
//  125   UART0_RX_STA = 0;
        MOV       DPTR,#UART0_RX_STA
        CLR       A
        MOVX      @DPTR,A
//  126 }
        SJMP      ?Subroutine0
          CFI EndBlock cfiBlock5

        RSEG XDATA_ID:CODE:NOROOT(0)
`?<Initializer for registeredUart0TaskID>`:
        DATA8
        DB 255

        RSEG BANK_RELAYS:CODE:REORDER:NOROOT(0)
`??RegisterForUart0::?relay`:
        CODE
        LCALL   ?BDISPATCH
        DATA24
        DC24    RegisterForUart0

        RSEG BANK_RELAYS:CODE:REORDER:NOROOT(0)
`??Uart0_Init::?relay`:
        CODE
        LCALL   ?BDISPATCH
        DATA24
        DC24    Uart0_Init

        RSEG BANK_RELAYS:CODE:REORDER:NOROOT(0)
`??Uart0_Process::?relay`:
        CODE
        LCALL   ?BDISPATCH
        DATA24
        DC24    Uart0_Process

        RSEG BANK_RELAYS:CODE:REORDER:NOROOT(0)
`??Uart0_Handle::?relay`:
        CODE
        LCALL   ?BDISPATCH
        DATA24
        DC24    Uart0_Handle

        RSEG BANK_RELAYS:CODE:REORDER:NOROOT(0)
`??Uart0_Reset::?relay`:
        CODE
        LCALL   ?BDISPATCH
        DATA24
        DC24    Uart0_Reset

        END
// 
// 337 bytes in segment BANKED_CODE
//  30 bytes in segment BANK_RELAYS
//   1 byte  in segment XDATA_I
//   1 byte  in segment XDATA_ID
//  62 bytes in segment XDATA_Z
// 
//  31 bytes of CODE     memory
// 337 bytes of HUGECODE memory
//  63 bytes of XDATA    memory
//
//Errors: none
//Warnings: none
