///////////////////////////////////////////////////////////////////////////////
//
// IAR C/C++ Compiler V10.30.1.6000 for 8051              05/Aug/2020  22:50:55
// Copyright 2004-2018 IAR Systems AB.
// PC-locked license - IAR Embedded Workbench for 8051
//
//    Core               =  plain
//    Code model         =  banked
//    Data model         =  large
//    Calling convention =  xdata reentrant
//    Constant location  =  data_rom
//    Dptr setup         =  1,16
//                          
//    Source file        =  
//        D:\AA\Z-Stack 3.0.2\Components\stack\bdb\bdb_tlCommissioning.c
//    Command line       =  
//        -f C:\Users\sunli\AppData\Local\Temp\EWDA0.tmp ("D:\AA\Z-Stack
//        3.0.2\Components\stack\bdb\bdb_tlCommissioning.c" -D SECURE=1 -D
//        TC_LINKKEY_JOIN -D NV_INIT -D NV_RESTORE -D POWER_SAVING -D
//        NWK_AUTO_POLL -D xZTOOL_P1 -D xMT_TASK -D xMT_APP_FUNC -D
//        xMT_SYS_FUNC -D xMT_ZDO_FUNC -D xMT_ZDO_MGMT -D xMT_APP_CNF_FUNC -D
//        LCD_SUPPORTED=DEBUG -D MULTICAST_ENABLED=FALSE -D ZCL_READ -D
//        ZCL_DISCOVER -D ZCL_WRITE -D ZCL_BASIC -D ZCL_IDENTIFY -D ZCL_ON_OFF
//        -D ZCL_GROUPS -D BDB_TL_INITIATOR -D INTER_PAN -lC "D:\AA\Z-Stack
//        3.0.2\Projects\zstack\HomeAutomation\SampleSwitch\CC2530DB\EndDeviceEB\List"
//        -lA "D:\AA\Z-Stack
//        3.0.2\Projects\zstack\HomeAutomation\SampleSwitch\CC2530DB\EndDeviceEB\List"
//        --diag_suppress Pe001,Pa010 -o "D:\AA\Z-Stack
//        3.0.2\Projects\zstack\HomeAutomation\SampleSwitch\CC2530DB\EndDeviceEB\Obj"
//        -e --debug --core=plain --dptr=16,1 --data_model=large
//        --code_model=banked --calling_convention=xdata_reentrant
//        --place_constants=data_rom --nr_virtual_regs 16 -f "D:\AA\Z-Stack
//        3.0.2\Projects\zstack\HomeAutomation\SampleSwitch\CC2530DB\..\..\..\Tools\CC2530DB\f8wEndev.cfg"
//        (-DCPU32MHZ -DROOT=__near_func -DMAC_CFG_TX_DATA_MAX=3
//        -DMAC_CFG_TX_MAX=6 -DMAC_CFG_RX_MAX=3) -f "D:\AA\Z-Stack
//        3.0.2\Projects\zstack\HomeAutomation\SampleSwitch\CC2530DB\..\..\..\Tools\CC2530DB\f8wConfig.cfg"
//        (-DZIGBEEPRO -DSECURE=1 -DZG_SECURE_DYNAMIC=0 -DREFLECTOR
//        -DDEFAULT_CHANLIST=0x00000800 -DZDAPP_CONFIG_PAN_ID=0xFFFF
//        -DNWK_START_DELAY=100 -DEXTENDED_JOINING_RANDOM_MASK=0x007F
//        -DBEACON_REQUEST_DELAY=100 -DBEACON_REQ_DELAY_MASK=0x00FF
//        -DLINK_STATUS_JITTER_MASK=0x007F -DROUTE_EXPIRY_TIME=30
//        -DAPSC_ACK_WAIT_DURATION_POLLED=3000 -DNWK_INDIRECT_MSG_TIMEOUT=7
//        -DMAX_RREQ_ENTRIES=8 -DAPSC_MAX_FRAME_RETRIES=3
//        -DNWK_MAX_DATA_RETRIES=2 -DMAX_POLL_FAILURE_RETRIES=2 -DMAX_BCAST=9
//        -DAPS_MAX_GROUPS=16 -DMAX_RTG_ENTRIES=40 -DNWK_MAX_BINDING_ENTRIES=4
//        -DMAX_BINDING_CLUSTER_IDS=4 -DDEFAULT_KEY={0}
//        -DMAC_MAX_FRAME_SIZE=116 -DZDNWKMGR_MIN_TRANSMISSIONS=20
//        "-DCONST=const __code" -DGENERIC=__generic -DRFD_RCVC_ALWAYS_ON=FALSE
//        -DPOLL_RATE=0 -DQUEUED_POLL_RATE=0 -DRESPONSE_POLL_RATE=0
//        -DREJOIN_POLL_RATE=0 -DREJOIN_BACKOFF=900000 -DREJOIN_SCAN=900000
//        -DENABLE_LED4_DISABLE_S1) -f "D:\AA\Z-Stack
//        3.0.2\Projects\zstack\HomeAutomation\SampleSwitch\CC2530DB\..\..\..\Tools\CC2530DB\f8wZCL.cfg"
//        -I "D:\AA\Z-Stack
//        3.0.2\Projects\zstack\HomeAutomation\SampleSwitch\CC2530DB\" -I
//        "D:\AA\Z-Stack
//        3.0.2\Projects\zstack\HomeAutomation\SampleSwitch\CC2530DB\..\Source\"
//        -I "D:\AA\Z-Stack
//        3.0.2\Projects\zstack\HomeAutomation\SampleSwitch\CC2530DB\..\..\Source\"
//        -I "D:\AA\Z-Stack
//        3.0.2\Projects\zstack\HomeAutomation\SampleSwitch\CC2530DB\..\..\..\ZMain\TI2530DB\"
//        -I "D:\AA\Z-Stack
//        3.0.2\Projects\zstack\HomeAutomation\SampleSwitch\CC2530DB\..\..\..\..\..\Components\hal\include\"
//        -I "D:\AA\Z-Stack
//        3.0.2\Projects\zstack\HomeAutomation\SampleSwitch\CC2530DB\..\..\..\..\..\Components\hal\target\CC2530EB\"
//        -I "D:\AA\Z-Stack
//        3.0.2\Projects\zstack\HomeAutomation\SampleSwitch\CC2530DB\..\..\..\..\..\Components\mac\include\"
//        -I "D:\AA\Z-Stack
//        3.0.2\Projects\zstack\HomeAutomation\SampleSwitch\CC2530DB\..\..\..\..\..\Components\mac\high_level\"
//        -I "D:\AA\Z-Stack
//        3.0.2\Projects\zstack\HomeAutomation\SampleSwitch\CC2530DB\..\..\..\..\..\Components\mac\low_level\srf04\"
//        -I "D:\AA\Z-Stack
//        3.0.2\Projects\zstack\HomeAutomation\SampleSwitch\CC2530DB\..\..\..\..\..\Components\mac\low_level\srf04\single_chip\"
//        -I "D:\AA\Z-Stack
//        3.0.2\Projects\zstack\HomeAutomation\SampleSwitch\CC2530DB\..\..\..\..\..\Components\mt\"
//        -I "D:\AA\Z-Stack
//        3.0.2\Projects\zstack\HomeAutomation\SampleSwitch\CC2530DB\..\..\..\..\..\Components\osal\include\"
//        -I "D:\AA\Z-Stack
//        3.0.2\Projects\zstack\HomeAutomation\SampleSwitch\CC2530DB\..\..\..\..\..\Components\services\saddr\"
//        -I "D:\AA\Z-Stack
//        3.0.2\Projects\zstack\HomeAutomation\SampleSwitch\CC2530DB\..\..\..\..\..\Components\services\sdata\"
//        -I "D:\AA\Z-Stack
//        3.0.2\Projects\zstack\HomeAutomation\SampleSwitch\CC2530DB\..\..\..\..\..\Components\stack\af\"
//        -I "D:\AA\Z-Stack
//        3.0.2\Projects\zstack\HomeAutomation\SampleSwitch\CC2530DB\..\..\..\..\..\Components\stack\bdb\"
//        -I "D:\AA\Z-Stack
//        3.0.2\Projects\zstack\HomeAutomation\SampleSwitch\CC2530DB\..\..\..\..\..\Components\stack\gp\"
//        -I "D:\AA\Z-Stack
//        3.0.2\Projects\zstack\HomeAutomation\SampleSwitch\CC2530DB\..\..\..\..\..\Components\stack\nwk\"
//        -I "D:\AA\Z-Stack
//        3.0.2\Projects\zstack\HomeAutomation\SampleSwitch\CC2530DB\..\..\..\..\..\Components\stack\sapi\"
//        -I "D:\AA\Z-Stack
//        3.0.2\Projects\zstack\HomeAutomation\SampleSwitch\CC2530DB\..\..\..\..\..\Components\stack\sec\"
//        -I "D:\AA\Z-Stack
//        3.0.2\Projects\zstack\HomeAutomation\SampleSwitch\CC2530DB\..\..\..\..\..\Components\stack\sys\"
//        -I "D:\AA\Z-Stack
//        3.0.2\Projects\zstack\HomeAutomation\SampleSwitch\CC2530DB\..\..\..\..\..\Components\stack\zcl\"
//        -I "D:\AA\Z-Stack
//        3.0.2\Projects\zstack\HomeAutomation\SampleSwitch\CC2530DB\..\..\..\..\..\Components\stack\zdo\"
//        -I "D:\AA\Z-Stack
//        3.0.2\Projects\zstack\HomeAutomation\SampleSwitch\CC2530DB\..\..\..\..\..\Components\zmac\"
//        -I "D:\AA\Z-Stack
//        3.0.2\Projects\zstack\HomeAutomation\SampleSwitch\CC2530DB\..\..\..\..\..\Components\zmac\f8w\"
//        -On --require_prototypes --no_cse --no_unroll --no_inline
//        --no_code_motion --no_tbaa --no_cross_call)
//    Locale             =  Chinese (Simplified)_CHN.936
//    List file          =  
//        D:\AA\Z-Stack
//        3.0.2\Projects\zstack\HomeAutomation\SampleSwitch\CC2530DB\EndDeviceEB\List\bdb_tlCommissioning.s51
//
///////////////////////////////////////////////////////////////////////////////

        NAME bdb_tlCommissioning

        RTMODEL "__SystemLibrary", "CLib"
        RTMODEL "__calling_convention", "xdata_reentrant"
        RTMODEL "__code_model", "banked"
        RTMODEL "__core", "plain"
        RTMODEL "__data_model", "large"
        RTMODEL "__dptr_size", "16"
        RTMODEL "__extended_stack", "disabled"
        RTMODEL "__location_for_constants", "data"
        RTMODEL "__number_of_dptrs", "1"
        RTMODEL "__register_banks", "*"
        RTMODEL "__rt_version", "1"

        RSEG DOVERLAY:DATA:NOROOT(0)
        RSEG IOVERLAY:IDATA:NOROOT(0)
        RSEG ISTACK:IDATA:NOROOT(0)
        RSEG PSTACK:XDATA:NOROOT(0)
        RSEG XSTACK:XDATA:NOROOT(0)

        EXTERN ?V0
        EXTERN ?V1
        EXTERN ?V2
        EXTERN ?V3
        EXTERN ?V4
        EXTERN ?V6
        EXTERN ?V7
        EXTERN ?V5
        EXTERN ?V8
        EXTERN ?V9
        EXTERN ?V10
        EXTERN ?V11
        EXTERN ?V12
        EXTERN ?V13
        EXTERN ?V14
        EXTERN ?V15
        EXTERN ?ALLOC_XSTACK8
        EXTERN ?BANKED_ENTER_XDATA
        EXTERN ?BANKED_LEAVE_XDATA
        EXTERN ?BDISPATCH
        EXTERN ?BRET
        EXTERN ?CALL_IND
        EXTERN ?DEALLOC_XSTACK8
        EXTERN ?PUSH_XSTACK8_X_FOUR
        EXTERN ?PUSH_XSTACK_I_ONE
        EXTERN ?PUSH_XSTACK_I_THREE
        EXTERN ?PUSH_XSTACK_I_TWO
        EXTERN ?XSP
        EXTERN ?XSTACK_DISP0_8
        EXTERN ?XSTACK_DISP101_8
        EXTERN ?XSTORE_R0123
        EXTERN ?XSTORE_R2345
        EXTERN __INIT_XDATA_Z

        FUNCTION `??bdbTL_FindCallbacks::?relay`,0203H
        FUNCTION `??bdbTL_HdlInInterPANCommands::?relay`,0203H
        FUNCTION `??bdbTL_HdlInSpecificCommands::?relay`,0203H
        FUNCTION `??bdbTL_HdlIncoming::?relay`,0203H
        FUNCTION `??bdbTL_ParseInCmd_NwkJoinReq::?relay`,0203H
        FUNCTION `??bdbTL_ProcessInCmd_DeviceInfoReq::?relay`,0203H
        FUNCTION `??bdbTL_ProcessInCmd_DeviceInfoRsp::?relay`,0203H
        FUNCTION `??bdbTL_ProcessInCmd_EndpointInfo::?relay`,0203H
        FUNCTION `??bdbTL_ProcessInCmd_GetEPListReq::?relay`,0203H
        FUNCTION `??bdbTL_ProcessInCmd_GetEPListRsp::?relay`,0203H
        FUNCTION `??bdbTL_ProcessInCmd_GetGrpIDsReq::?relay`,0203H
        FUNCTION `??bdbTL_ProcessInCmd_GetGrpIDsRsp::?relay`,0203H
        FUNCTION `??bdbTL_ProcessInCmd_IdentifyReq::?relay`,0203H
        FUNCTION `??bdbTL_ProcessInCmd_NwkJoinEDReq::?relay`,0203H
        FUNCTION `??bdbTL_ProcessInCmd_NwkJoinEDRsp::?relay`,0203H
        FUNCTION `??bdbTL_ProcessInCmd_NwkJoinRtrReq::?relay`,0203H
        FUNCTION `??bdbTL_ProcessInCmd_NwkJoinRtrRsp::?relay`,0203H
        FUNCTION `??bdbTL_ProcessInCmd_NwkStartReq::?relay`,0203H
        FUNCTION `??bdbTL_ProcessInCmd_NwkStartRsp::?relay`,0203H
        FUNCTION `??bdbTL_ProcessInCmd_NwkUpdateReq::?relay`,0203H
        FUNCTION `??bdbTL_ProcessInCmd_ResetToFNReq::?relay`,0203H
        FUNCTION `??bdbTL_ProcessInCmd_ScanReq::?relay`,0203H
        FUNCTION `??bdbTL_ProcessInCmd_ScanRsp::?relay`,0203H
        FUNCTION `??bdbTL_ProcessInLLCmds::?relay`,0203H
        FUNCTION `??bdbTL_ProcessInLLInterPANCmds::?relay`,0203H
        PUBLIC `??bdbTL_RegisterCmdCallbacks::?relay`
        FUNCTION `??bdbTL_RegisterCmdCallbacks::?relay`,0203H
        PUBLIC `??bdbTL_RegisterInterPANCmdCallbacks::?relay`
        FUNCTION `??bdbTL_RegisterInterPANCmdCallbacks::?relay`,0203H
        FUNCTION `??bdbTL_SendInterPANCommand::?relay`,0203H
        PUBLIC `??bdbTL_Send_DeviceInfoReq::?relay`
        FUNCTION `??bdbTL_Send_DeviceInfoReq::?relay`,0203H
        PUBLIC `??bdbTL_Send_DeviceInfoRsp::?relay`
        FUNCTION `??bdbTL_Send_DeviceInfoRsp::?relay`,0203H
        PUBLIC `??bdbTL_Send_EndpointInfo::?relay`
        FUNCTION `??bdbTL_Send_EndpointInfo::?relay`,0203H
        PUBLIC `??bdbTL_Send_GetEPListRsp::?relay`
        FUNCTION `??bdbTL_Send_GetEPListRsp::?relay`,0203H
        PUBLIC `??bdbTL_Send_GetGrpIDsRsp::?relay`
        FUNCTION `??bdbTL_Send_GetGrpIDsRsp::?relay`,0203H
        PUBLIC `??bdbTL_Send_IndentifyReq::?relay`
        FUNCTION `??bdbTL_Send_IndentifyReq::?relay`,0203H
        PUBLIC `??bdbTL_Send_NwkJoinReq::?relay`
        FUNCTION `??bdbTL_Send_NwkJoinReq::?relay`,0203H
        PUBLIC `??bdbTL_Send_NwkJoinRsp::?relay`
        FUNCTION `??bdbTL_Send_NwkJoinRsp::?relay`,0203H
        PUBLIC `??bdbTL_Send_NwkStartReq::?relay`
        FUNCTION `??bdbTL_Send_NwkStartReq::?relay`,0203H
        PUBLIC `??bdbTL_Send_NwkStartRsp::?relay`
        FUNCTION `??bdbTL_Send_NwkStartRsp::?relay`,0203H
        PUBLIC `??bdbTL_Send_NwkUpdateReq::?relay`
        FUNCTION `??bdbTL_Send_NwkUpdateReq::?relay`,0203H
        PUBLIC `??bdbTL_Send_ResetToFNReq::?relay`
        FUNCTION `??bdbTL_Send_ResetToFNReq::?relay`,0203H
        PUBLIC `??bdbTL_Send_ScanReq::?relay`
        FUNCTION `??bdbTL_Send_ScanReq::?relay`,0203H
        PUBLIC `??bdbTL_Send_ScanRsp::?relay`
        FUNCTION `??bdbTL_Send_ScanRsp::?relay`,0203H
        FUNCTION bdbTL_FindCallbacks,0203H
        ARGFRAME XSTACK, 14, STACK
        ARGFRAME IOVERLAY, 0, STATIC
        ARGFRAME DOVERLAY, 0, STATIC
        LOCFRAME ISTACK, 2, STACK
        FUNCTION bdbTL_HdlInInterPANCommands,0a1203H
        ARGFRAME XSTACK, 9, STACK
        ARGFRAME IOVERLAY, 0, STATIC
        ARGFRAME DOVERLAY, 0, STATIC
        LOCFRAME XSTACK, 9, STACK
        FUNCTION bdbTL_HdlInSpecificCommands,0a1203H
        ARGFRAME XSTACK, 9, STACK
        ARGFRAME IOVERLAY, 0, STATIC
        ARGFRAME DOVERLAY, 0, STATIC
        LOCFRAME XSTACK, 14, STACK
        FUNCTION bdbTL_HdlIncoming,0a1603H
        ARGFRAME XSTACK, 0, STACK
        LOCFRAME XSTACK, 9, STACK
        FUNCTION bdbTL_ParseInCmd_NwkJoinReq,0a1203H
        ARGFRAME XSTACK, 14, STACK
        ARGFRAME IOVERLAY, 0, STATIC
        ARGFRAME DOVERLAY, 0, STATIC
        LOCFRAME ISTACK, 1, STACK
        LOCFRAME XSTACK, 18, STACK
        FUNCTION bdbTL_ProcessInCmd_DeviceInfoReq,021203H
        ARGFRAME XSTACK, 9, STACK
        ARGFRAME IOVERLAY, 0, STATIC
        ARGFRAME DOVERLAY, 0, STATIC
        LOCFRAME ISTACK, 1, STACK
        LOCFRAME XSTACK, 14, STACK
        FUNCTION bdbTL_ProcessInCmd_DeviceInfoRsp,0a1203H
        ARGFRAME XSTACK, 9, STACK
        ARGFRAME IOVERLAY, 0, STATIC
        ARGFRAME DOVERLAY, 0, STATIC
        LOCFRAME ISTACK, 1, STACK
        LOCFRAME XSTACK, 18, STACK
        FUNCTION bdbTL_ProcessInCmd_EndpointInfo,0a1203H
        ARGFRAME XSTACK, 11, STACK
        ARGFRAME IOVERLAY, 0, STATIC
        ARGFRAME DOVERLAY, 0, STATIC
        LOCFRAME ISTACK, 1, STACK
        LOCFRAME XSTACK, 18, STACK
        FUNCTION bdbTL_ProcessInCmd_GetEPListReq,080203H
        ARGFRAME XSTACK, 11, STACK
        ARGFRAME IOVERLAY, 0, STATIC
        ARGFRAME DOVERLAY, 0, STATIC
        LOCFRAME ISTACK, 1, STACK
        LOCFRAME XSTACK, 11, STACK
        FUNCTION bdbTL_ProcessInCmd_GetEPListRsp,0a1203H
        ARGFRAME XSTACK, 11, STACK
        ARGFRAME IOVERLAY, 0, STATIC
        ARGFRAME DOVERLAY, 0, STATIC
        LOCFRAME ISTACK, 1, STACK
        LOCFRAME XSTACK, 20, STACK
        FUNCTION bdbTL_ProcessInCmd_GetGrpIDsReq,080203H
        ARGFRAME XSTACK, 11, STACK
        ARGFRAME IOVERLAY, 0, STATIC
        ARGFRAME DOVERLAY, 0, STATIC
        LOCFRAME ISTACK, 1, STACK
        LOCFRAME XSTACK, 11, STACK
        FUNCTION bdbTL_ProcessInCmd_GetGrpIDsRsp,0a1203H
        ARGFRAME XSTACK, 11, STACK
        ARGFRAME IOVERLAY, 0, STATIC
        ARGFRAME DOVERLAY, 0, STATIC
        LOCFRAME ISTACK, 1, STACK
        LOCFRAME XSTACK, 20, STACK
        FUNCTION bdbTL_ProcessInCmd_IdentifyReq,021203H
        ARGFRAME XSTACK, 9, STACK
        ARGFRAME IOVERLAY, 0, STATIC
        ARGFRAME DOVERLAY, 0, STATIC
        LOCFRAME XSTACK, 15, STACK
        FUNCTION bdbTL_ProcessInCmd_NwkJoinEDReq,0a1203H
        ARGFRAME XSTACK, 9, STACK
        ARGFRAME IOVERLAY, 0, STATIC
        ARGFRAME DOVERLAY, 0, STATIC
        LOCFRAME XSTACK, 14, STACK
        FUNCTION bdbTL_ProcessInCmd_NwkJoinEDRsp,021203H
        ARGFRAME XSTACK, 9, STACK
        ARGFRAME IOVERLAY, 0, STATIC
        ARGFRAME DOVERLAY, 0, STATIC
        LOCFRAME ISTACK, 1, STACK
        LOCFRAME XSTACK, 14, STACK
        FUNCTION bdbTL_ProcessInCmd_NwkJoinRtrReq,0a1203H
        ARGFRAME XSTACK, 9, STACK
        ARGFRAME IOVERLAY, 0, STATIC
        ARGFRAME DOVERLAY, 0, STATIC
        LOCFRAME XSTACK, 14, STACK
        FUNCTION bdbTL_ProcessInCmd_NwkJoinRtrRsp,021203H
        ARGFRAME XSTACK, 9, STACK
        ARGFRAME IOVERLAY, 0, STATIC
        ARGFRAME DOVERLAY, 0, STATIC
        LOCFRAME ISTACK, 1, STACK
        LOCFRAME XSTACK, 14, STACK
        FUNCTION bdbTL_ProcessInCmd_NwkStartReq,0a1203H
        ARGFRAME XSTACK, 9, STACK
        ARGFRAME IOVERLAY, 0, STATIC
        ARGFRAME DOVERLAY, 0, STATIC
        LOCFRAME ISTACK, 1, STACK
        LOCFRAME XSTACK, 21, STACK
        FUNCTION bdbTL_ProcessInCmd_NwkStartRsp,0a1203H
        ARGFRAME XSTACK, 9, STACK
        ARGFRAME IOVERLAY, 0, STATIC
        ARGFRAME DOVERLAY, 0, STATIC
        LOCFRAME ISTACK, 1, STACK
        LOCFRAME XSTACK, 16, STACK
        FUNCTION bdbTL_ProcessInCmd_NwkUpdateReq,0a1203H
        ARGFRAME XSTACK, 9, STACK
        ARGFRAME IOVERLAY, 0, STATIC
        ARGFRAME DOVERLAY, 0, STATIC
        LOCFRAME ISTACK, 1, STACK
        LOCFRAME XSTACK, 16, STACK
        FUNCTION bdbTL_ProcessInCmd_ResetToFNReq,021203H
        ARGFRAME XSTACK, 9, STACK
        ARGFRAME IOVERLAY, 0, STATIC
        ARGFRAME DOVERLAY, 0, STATIC
        LOCFRAME XSTACK, 13, STACK
        FUNCTION bdbTL_ProcessInCmd_ScanReq,021203H
        ARGFRAME XSTACK, 9, STACK
        ARGFRAME IOVERLAY, 0, STATIC
        ARGFRAME DOVERLAY, 0, STATIC
        LOCFRAME ISTACK, 1, STACK
        LOCFRAME XSTACK, 17, STACK
        FUNCTION bdbTL_ProcessInCmd_ScanRsp,0a1203H
        ARGFRAME XSTACK, 9, STACK
        ARGFRAME IOVERLAY, 0, STATIC
        ARGFRAME DOVERLAY, 0, STATIC
        LOCFRAME ISTACK, 1, STACK
        LOCFRAME XSTACK, 16, STACK
        FUNCTION bdbTL_ProcessInLLCmds,0a1203H
        ARGFRAME XSTACK, 14, STACK
        ARGFRAME IOVERLAY, 0, STATIC
        ARGFRAME DOVERLAY, 0, STATIC
        LOCFRAME XSTACK, 11, STACK
        FUNCTION bdbTL_ProcessInLLInterPANCmds,0a1203H
        ARGFRAME XSTACK, 9, STACK
        ARGFRAME IOVERLAY, 0, STATIC
        ARGFRAME DOVERLAY, 0, STATIC
        LOCFRAME XSTACK, 9, STACK
        PUBLIC bdbTL_RegisterCmdCallbacks
        FUNCTION bdbTL_RegisterCmdCallbacks,0a1203H
        ARGFRAME XSTACK, 0, STACK
        LOCFRAME ISTACK, 1, STACK
        LOCFRAME XSTACK, 18, STACK
        PUBLIC bdbTL_RegisterInterPANCmdCallbacks
        FUNCTION bdbTL_RegisterInterPANCmdCallbacks,0a1203H
        ARGFRAME XSTACK, 0, STACK
        LOCFRAME XSTACK, 12, STACK
        FUNCTION bdbTL_SendInterPANCommand,0a1203H
        ARGFRAME XSTACK, 29, STACK
        ARGFRAME IOVERLAY, 0, STATIC
        ARGFRAME DOVERLAY, 0, STATIC
        LOCFRAME XSTACK, 29, STACK
        PUBLIC bdbTL_Send_DeviceInfoReq
        FUNCTION bdbTL_Send_DeviceInfoReq,0a1203H
        ARGFRAME XSTACK, 1, STACK
        LOCFRAME ISTACK, 1, STACK
        LOCFRAME XSTACK, 26, STACK
        PUBLIC bdbTL_Send_DeviceInfoRsp
        FUNCTION bdbTL_Send_DeviceInfoRsp,0a1203H
        ARGFRAME XSTACK, 1, STACK
        LOCFRAME ISTACK, 1, STACK
        LOCFRAME XSTACK, 29, STACK
        PUBLIC bdbTL_Send_EndpointInfo
        FUNCTION bdbTL_Send_EndpointInfo,0a1203H
        ARGFRAME XSTACK, 2, STACK
        LOCFRAME ISTACK, 1, STACK
        LOCFRAME XSTACK, 31, STACK
        PUBLIC bdbTL_Send_GetEPListRsp
        FUNCTION bdbTL_Send_GetEPListRsp,0a1203H
        ARGFRAME XSTACK, 2, STACK
        LOCFRAME ISTACK, 1, STACK
        LOCFRAME XSTACK, 33, STACK
        PUBLIC bdbTL_Send_GetGrpIDsRsp
        FUNCTION bdbTL_Send_GetGrpIDsRsp,0a1203H
        ARGFRAME XSTACK, 2, STACK
        LOCFRAME ISTACK, 1, STACK
        LOCFRAME XSTACK, 33, STACK
        PUBLIC bdbTL_Send_IndentifyReq
        FUNCTION bdbTL_Send_IndentifyReq,0a1203H
        ARGFRAME XSTACK, 1, STACK
        LOCFRAME ISTACK, 1, STACK
        LOCFRAME XSTACK, 27, STACK
        PUBLIC bdbTL_Send_NwkJoinReq
        FUNCTION bdbTL_Send_NwkJoinReq,0a1203H
        ARGFRAME XSTACK, 2, STACK
        LOCFRAME ISTACK, 1, STACK
        LOCFRAME XSTACK, 27, STACK
        PUBLIC bdbTL_Send_NwkJoinRsp
        FUNCTION bdbTL_Send_NwkJoinRsp,0a1203H
        ARGFRAME XSTACK, 2, STACK
        LOCFRAME ISTACK, 1, STACK
        LOCFRAME XSTACK, 28, STACK
        PUBLIC bdbTL_Send_NwkStartReq
        FUNCTION bdbTL_Send_NwkStartReq,0a1203H
        ARGFRAME XSTACK, 1, STACK
        LOCFRAME ISTACK, 1, STACK
        LOCFRAME XSTACK, 25, STACK
        PUBLIC bdbTL_Send_NwkStartRsp
        FUNCTION bdbTL_Send_NwkStartRsp,0a1203H
        ARGFRAME XSTACK, 1, STACK
        LOCFRAME ISTACK, 1, STACK
        LOCFRAME XSTACK, 25, STACK
        PUBLIC bdbTL_Send_NwkUpdateReq
        FUNCTION bdbTL_Send_NwkUpdateReq,0a1203H
        ARGFRAME XSTACK, 1, STACK
        LOCFRAME ISTACK, 1, STACK
        LOCFRAME XSTACK, 25, STACK
        PUBLIC bdbTL_Send_ResetToFNReq
        FUNCTION bdbTL_Send_ResetToFNReq,0a1203H
        ARGFRAME XSTACK, 1, STACK
        LOCFRAME XSTACK, 25, STACK
        PUBLIC bdbTL_Send_ScanReq
        FUNCTION bdbTL_Send_ScanReq,0a1203H
        ARGFRAME XSTACK, 1, STACK
        LOCFRAME ISTACK, 1, STACK
        LOCFRAME XSTACK, 27, STACK
        PUBLIC bdbTL_Send_ScanRsp
        FUNCTION bdbTL_Send_ScanRsp,0a1203H
        ARGFRAME XSTACK, 1, STACK
        LOCFRAME ISTACK, 1, STACK
        LOCFRAME XSTACK, 25, STACK
        
          CFI Names cfiNames0
          CFI StackFrame CFA_SP SP IDATA
          CFI StackFrame CFA_PSP16 PSP16 XDATA
          CFI StackFrame CFA_XSP16 XSP16 XDATA
          CFI StaticOverlayFrame CFA_IOVERLAY IOVERLAY
          CFI StaticOverlayFrame CFA_DOVERLAY DOVERLAY
          CFI Resource `PSW.CY`:1, `B.BR0`:1, `B.BR1`:1, `B.BR2`:1, `B.BR3`:1
          CFI Resource `B.BR4`:1, `B.BR5`:1, `B.BR6`:1, `B.BR7`:1, `VB.BR8`:1
          CFI Resource `VB.BR9`:1, `VB.BR10`:1, `VB.BR11`:1, `VB.BR12`:1
          CFI Resource `VB.BR13`:1, `VB.BR14`:1, `VB.BR15`:1, VB:8, B:8, A:8
          CFI Resource PSW:8, DPL0:8, DPH0:8, R0:8, R1:8, R2:8, R3:8, R4:8, R5:8
          CFI Resource R6:8, R7:8, V0:8, V1:8, V2:8, V3:8, V4:8, V5:8, V6:8, V7:8
          CFI Resource V8:8, V9:8, V10:8, V11:8, V12:8, V13:8, V14:8, V15:8, SP:8
          CFI Resource PSPH:8, PSPL:8, PSP16:16, XSPH:8, XSPL:8, XSP16:16
          CFI VirtualResource ?RET:24
          CFI Resource ?BRET_EXT:8
          CFI VirtualResource ?RET_HIGH:8, ?RET_LOW:8
          CFI ResourceParts PSP16 PSPH, PSPL
          CFI ResourceParts XSP16 XSPH, XSPL
          CFI ResourceParts ?RET ?BRET_EXT, ?RET_HIGH, ?RET_LOW
          CFI EndNames cfiNames0
        
          CFI Common cfiCommon0 Using cfiNames0
          CFI CodeAlign 1
          CFI DataAlign -1
          CFI ReturnAddress ?RET CODE
          CFI CFA_DOVERLAY Used
          CFI CFA_IOVERLAY Used
          CFI CFA_SP SP+-3
          CFI CFA_PSP16 PSP16+0
          CFI CFA_XSP16 XSP16+0
          CFI `PSW.CY` SameValue
          CFI `B.BR0` SameValue
          CFI `B.BR1` SameValue
          CFI `B.BR2` SameValue
          CFI `B.BR3` SameValue
          CFI `B.BR4` SameValue
          CFI `B.BR5` SameValue
          CFI `B.BR6` SameValue
          CFI `B.BR7` SameValue
          CFI `VB.BR8` SameValue
          CFI `VB.BR9` SameValue
          CFI `VB.BR10` SameValue
          CFI `VB.BR11` SameValue
          CFI `VB.BR12` SameValue
          CFI `VB.BR13` SameValue
          CFI `VB.BR14` SameValue
          CFI `VB.BR15` SameValue
          CFI VB SameValue
          CFI B Undefined
          CFI A Undefined
          CFI PSW SameValue
          CFI DPL0 SameValue
          CFI DPH0 SameValue
          CFI R0 Undefined
          CFI R1 Undefined
          CFI R2 Undefined
          CFI R3 Undefined
          CFI R4 Undefined
          CFI R5 Undefined
          CFI R6 SameValue
          CFI R7 SameValue
          CFI V0 SameValue
          CFI V1 SameValue
          CFI V2 SameValue
          CFI V3 SameValue
          CFI V4 SameValue
          CFI V5 SameValue
          CFI V6 SameValue
          CFI V7 SameValue
          CFI V8 SameValue
          CFI V9 SameValue
          CFI V10 SameValue
          CFI V11 SameValue
          CFI V12 SameValue
          CFI V13 SameValue
          CFI V14 SameValue
          CFI V15 SameValue
          CFI PSPH Undefined
          CFI PSPL Undefined
          CFI XSPH Undefined
          CFI XSPL Undefined
          CFI ?RET Concat
          CFI ?BRET_EXT Frame(CFA_SP, 3)
          CFI ?RET_HIGH Frame(CFA_SP, 2)
          CFI ?RET_LOW Frame(CFA_SP, 1)
          CFI EndCommon cfiCommon0
        
StubAPS_InterPan    SYMBOL "StubAPS_InterPan"
`??StubAPS_InterPan::?relay` SYMBOL "?relay", StubAPS_InterPan
osal_buffer_uint32  SYMBOL "osal_buffer_uint32"
`??osal_buffer_uint32::?relay` SYMBOL "?relay", osal_buffer_uint32
osal_build_uint32   SYMBOL "osal_build_uint32"
`??osal_build_uint32::?relay` SYMBOL "?relay", osal_build_uint32
osal_mem_alloc      SYMBOL "osal_mem_alloc"
`??osal_mem_alloc::?relay` SYMBOL "?relay", osal_mem_alloc
osal_mem_free       SYMBOL "osal_mem_free"
`??osal_mem_free::?relay` SYMBOL "?relay", osal_mem_free
osal_memcpy         SYMBOL "osal_memcpy"
`??osal_memcpy::?relay` SYMBOL "?relay", osal_memcpy
osal_memset         SYMBOL "osal_memset"
`??osal_memset::?relay` SYMBOL "?relay", osal_memset
sAddrExtCpy         SYMBOL "sAddrExtCpy"
`??sAddrExtCpy::?relay` SYMBOL "?relay", sAddrExtCpy
zcl_SendCommand     SYMBOL "zcl_SendCommand"
`??zcl_SendCommand::?relay` SYMBOL "?relay", zcl_SendCommand
zcl_registerPlugin  SYMBOL "zcl_registerPlugin"
`??zcl_registerPlugin::?relay` SYMBOL "?relay", zcl_registerPlugin
bdbTL_RegisterCmdCallbacks SYMBOL "bdbTL_RegisterCmdCallbacks"
`??bdbTL_RegisterCmdCallbacks::?relay` SYMBOL "?relay", bdbTL_RegisterCmdCallbacks
bdbTL_RegisterInterPANCmdCallbacks SYMBOL "bdbTL_RegisterInterPANCmdCallbacks"
`??bdbTL_RegisterInterPANCmdCallbacks::?relay` SYMBOL "?relay", bdbTL_RegisterInterPANCmdCallbacks
bdbTL_Send_DeviceInfoReq SYMBOL "bdbTL_Send_DeviceInfoReq"
`??bdbTL_Send_DeviceInfoReq::?relay` SYMBOL "?relay", bdbTL_Send_DeviceInfoReq
bdbTL_Send_DeviceInfoRsp SYMBOL "bdbTL_Send_DeviceInfoRsp"
`??bdbTL_Send_DeviceInfoRsp::?relay` SYMBOL "?relay", bdbTL_Send_DeviceInfoRsp
bdbTL_Send_EndpointInfo SYMBOL "bdbTL_Send_EndpointInfo"
`??bdbTL_Send_EndpointInfo::?relay` SYMBOL "?relay", bdbTL_Send_EndpointInfo
bdbTL_Send_GetEPListRsp SYMBOL "bdbTL_Send_GetEPListRsp"
`??bdbTL_Send_GetEPListRsp::?relay` SYMBOL "?relay", bdbTL_Send_GetEPListRsp
bdbTL_Send_GetGrpIDsRsp SYMBOL "bdbTL_Send_GetGrpIDsRsp"
`??bdbTL_Send_GetGrpIDsRsp::?relay` SYMBOL "?relay", bdbTL_Send_GetGrpIDsRsp
bdbTL_Send_IndentifyReq SYMBOL "bdbTL_Send_IndentifyReq"
`??bdbTL_Send_IndentifyReq::?relay` SYMBOL "?relay", bdbTL_Send_IndentifyReq
bdbTL_Send_NwkJoinReq SYMBOL "bdbTL_Send_NwkJoinReq"
`??bdbTL_Send_NwkJoinReq::?relay` SYMBOL "?relay", bdbTL_Send_NwkJoinReq
bdbTL_Send_NwkJoinRsp SYMBOL "bdbTL_Send_NwkJoinRsp"
`??bdbTL_Send_NwkJoinRsp::?relay` SYMBOL "?relay", bdbTL_Send_NwkJoinRsp
bdbTL_Send_NwkStartReq SYMBOL "bdbTL_Send_NwkStartReq"
`??bdbTL_Send_NwkStartReq::?relay` SYMBOL "?relay", bdbTL_Send_NwkStartReq
bdbTL_Send_NwkStartRsp SYMBOL "bdbTL_Send_NwkStartRsp"
`??bdbTL_Send_NwkStartRsp::?relay` SYMBOL "?relay", bdbTL_Send_NwkStartRsp
bdbTL_Send_NwkUpdateReq SYMBOL "bdbTL_Send_NwkUpdateReq"
`??bdbTL_Send_NwkUpdateReq::?relay` SYMBOL "?relay", bdbTL_Send_NwkUpdateReq
bdbTL_Send_ResetToFNReq SYMBOL "bdbTL_Send_ResetToFNReq"
`??bdbTL_Send_ResetToFNReq::?relay` SYMBOL "?relay", bdbTL_Send_ResetToFNReq
bdbTL_Send_ScanReq  SYMBOL "bdbTL_Send_ScanReq"
`??bdbTL_Send_ScanReq::?relay` SYMBOL "?relay", bdbTL_Send_ScanReq
bdbTL_Send_ScanRsp  SYMBOL "bdbTL_Send_ScanRsp"
`??bdbTL_Send_ScanRsp::?relay` SYMBOL "?relay", bdbTL_Send_ScanRsp

        EXTERN `??StubAPS_InterPan::?relay`
        FUNCTION `??StubAPS_InterPan::?relay`,00H
        EXTERN `??osal_buffer_uint32::?relay`
        FUNCTION `??osal_buffer_uint32::?relay`,00H
        EXTERN `??osal_build_uint32::?relay`
        FUNCTION `??osal_build_uint32::?relay`,00H
        EXTERN `??osal_mem_alloc::?relay`
        FUNCTION `??osal_mem_alloc::?relay`,00H
        EXTERN `??osal_mem_free::?relay`
        FUNCTION `??osal_mem_free::?relay`,00H
        EXTERN `??osal_memcpy::?relay`
        FUNCTION `??osal_memcpy::?relay`,00H
        EXTERN `??osal_memset::?relay`
        FUNCTION `??osal_memset::?relay`,00H
        EXTERN `??sAddrExtCpy::?relay`
        FUNCTION `??sAddrExtCpy::?relay`,00H
        EXTERN `??zcl_SendCommand::?relay`
        FUNCTION `??zcl_SendCommand::?relay`,00H
        EXTERN `??zcl_registerPlugin::?relay`
        FUNCTION `??zcl_registerPlugin::?relay`,00H
        EXTERN StubAPS_InterPan
        FUNCTION StubAPS_InterPan,0202H
        ARGFRAME ISTACK, 0, STACK
        ARGFRAME PSTACK, 0, STACK
        ARGFRAME XSTACK, 9, STACK
        ARGFRAME IOVERLAY, 0, STATIC
        ARGFRAME DOVERLAY, 0, STATIC
        EXTERN osal_buffer_uint32
        FUNCTION osal_buffer_uint32,0202H
        ARGFRAME ISTACK, 0, STACK
        ARGFRAME PSTACK, 0, STACK
        ARGFRAME XSTACK, 28, STACK
        ARGFRAME IOVERLAY, 0, STATIC
        ARGFRAME DOVERLAY, 0, STATIC
        EXTERN osal_build_uint32
        FUNCTION osal_build_uint32,0202H
        ARGFRAME ISTACK, 0, STACK
        ARGFRAME PSTACK, 0, STACK
        ARGFRAME XSTACK, 18, STACK
        ARGFRAME IOVERLAY, 0, STATIC
        ARGFRAME DOVERLAY, 0, STATIC
        EXTERN osal_mem_alloc
        FUNCTION osal_mem_alloc,0202H
        ARGFRAME ISTACK, 0, STACK
        ARGFRAME PSTACK, 0, STACK
        ARGFRAME XSTACK, 24, STACK
        ARGFRAME IOVERLAY, 0, STATIC
        ARGFRAME DOVERLAY, 0, STATIC
        EXTERN osal_mem_free
        FUNCTION osal_mem_free,0202H
        ARGFRAME ISTACK, 0, STACK
        ARGFRAME PSTACK, 0, STACK
        ARGFRAME XSTACK, 24, STACK
        ARGFRAME IOVERLAY, 0, STATIC
        ARGFRAME DOVERLAY, 0, STATIC
        EXTERN osal_memcpy
        FUNCTION osal_memcpy,0202H
        ARGFRAME ISTACK, 0, STACK
        ARGFRAME PSTACK, 0, STACK
        ARGFRAME XSTACK, 25, STACK
        ARGFRAME IOVERLAY, 0, STATIC
        ARGFRAME DOVERLAY, 0, STATIC
        EXTERN osal_memset
        FUNCTION osal_memset,0202H
        ARGFRAME ISTACK, 0, STACK
        ARGFRAME PSTACK, 0, STACK
        ARGFRAME XSTACK, 16, STACK
        ARGFRAME IOVERLAY, 0, STATIC
        ARGFRAME DOVERLAY, 0, STATIC
        EXTERN sAddrExtCpy
        FUNCTION sAddrExtCpy,0202H
        ARGFRAME ISTACK, 0, STACK
        ARGFRAME PSTACK, 0, STACK
        ARGFRAME XSTACK, 24, STACK
        ARGFRAME IOVERLAY, 0, STATIC
        ARGFRAME DOVERLAY, 0, STATIC
        EXTERN zcl_SendCommand
        FUNCTION zcl_SendCommand,0202H
        ARGFRAME ISTACK, 0, STACK
        ARGFRAME PSTACK, 0, STACK
        ARGFRAME XSTACK, 33, STACK
        ARGFRAME IOVERLAY, 0, STATIC
        ARGFRAME DOVERLAY, 0, STATIC
        EXTERN zcl_registerPlugin
        FUNCTION zcl_registerPlugin,0202H
        ARGFRAME ISTACK, 0, STACK
        ARGFRAME PSTACK, 0, STACK
        ARGFRAME XSTACK, 18, STACK
        ARGFRAME IOVERLAY, 0, STATIC
        ARGFRAME DOVERLAY, 0, STATIC

// D:\AA\Z-Stack 3.0.2\Components\stack\bdb\bdb_tlCommissioning.c
//    1 /**************************************************************************************************
//    2   Filename:       bdb_tlCommissioning.c
//    3   Revised:        $Date: 2013-09-10 17:57:03 -0700 (Tue, 10 Sep 2013) $
//    4   Revision:       $Revision: 35271 $
//    5 
//    6   Description:    Zigbee Cluster Library - Light Link commissioning cluster.
//    7 
//    8 
//    9   Copyright 2011-2013 Texas Instruments Incorporated. All rights reserved.
//   10 
//   11   IMPORTANT: Your use of this Software is limited to those specific rights
//   12   granted under the terms of a software license agreement between the user
//   13   who downloaded the software, his/her employer (which must be your employer)
//   14   and Texas Instruments Incorporated (the "License").  You may not use this
//   15   Software unless you agree to abide by the terms of the License. The License
//   16   limits your use, and you acknowledge, that the Software may not be modified,
//   17   copied or distributed unless embedded on a Texas Instruments microcontroller
//   18   or used solely and exclusively in conjunction with a Texas Instruments radio
//   19   frequency transceiver, which is integrated into your product.  Other than for
//   20   the foregoing purpose, you may not use, reproduce, copy, prepare derivative
//   21   works of, modify, distribute, perform, display or sell this Software and/or
//   22   its documentation for any purpose.
//   23 
//   24   YOU FURTHER ACKNOWLEDGE AND AGREE THAT THE SOFTWARE AND DOCUMENTATION ARE
//   25   PROVIDED “AS IS” WITHOUT WARRANTY OF ANY KIND, EITHER EXPRESS OR IMPLIED,
//   26   INCLUDING WITHOUT LIMITATION, ANY WARRANTY OF MERCHANTABILITY, TITLE,
//   27   NON-INFRINGEMENT AND FITNESS FOR A PARTICULAR PURPOSE. IN NO EVENT SHALL
//   28   TEXAS INSTRUMENTS OR ITS LICENSORS BE LIABLE OR OBLIGATED UNDER CONTRACT,
//   29   NEGLIGENCE, STRICT LIABILITY, CONTRIBUTION, BREACH OF WARRANTY, OR OTHER
//   30   LEGAL EQUITABLE THEORY ANY DIRECT OR INDIRECT DAMAGES OR EXPENSES
//   31   INCLUDING BUT NOT LIMITED TO ANY INCIDENTAL, SPECIAL, INDIRECT, PUNITIVE
//   32   OR CONSEQUENTIAL DAMAGES, LOST PROFITS OR LOST DATA, COST OF PROCUREMENT
//   33   OF SUBSTITUTE GOODS, TECHNOLOGY, SERVICES, OR ANY CLAIMS BY THIRD PARTIES
//   34   (INCLUDING BUT NOT LIMITED TO ANY DEFENSE THEREOF), OR OTHER SIMILAR COSTS.
//   35 
//   36   Should you have any questions regarding your right to use this Software,
//   37   contact Texas Instruments Incorporated at www.TI.com.
//   38 **************************************************************************************************/
//   39 
//   40 
//   41 /*********************************************************************
//   42  * INCLUDES
//   43  */
//   44 #include "zcl.h"
//   45 #include "zcl_general.h"
//   46 #include "bdb_tlCommissioning.h"
//   47 #include "bdb.h"
//   48 #include "bdb_interface.h"
//   49 #include "bdb_touchlink.h"
//   50 
//   51 #include "stub_aps.h"
//   52 
//   53 #if defined ( BDB_TL_TARGET ) || defined ( BDB_TL_INITIATOR )
//   54    
//   55 /*********************************************************************
//   56  * MACROS
//   57  */
//   58 
//   59 /*********************************************************************
//   60  * CONSTANTS
//   61  */
//   62 
//   63 /*********************************************************************
//   64  * TYPEDEFS
//   65  */
//   66 
//   67 typedef struct bdbTLCBRec
//   68 {
//   69   struct bdbTLCBRec     *next;
//   70   uint8 endpoint;               // Used to link it into the endpoint descriptor
//   71   bdbTL_AppCallbacks_t  *CBs;   // Pointer to Callback function
//   72 } bdbTLCBRec_t;
//   73 
//   74 /*********************************************************************
//   75  * GLOBAL VARIABLES
//   76  */
//   77 
//   78 /*********************************************************************
//   79  * GLOBAL FUNCTIONS
//   80  */
//   81 
//   82 /*********************************************************************
//   83  * LOCAL VARIABLES
//   84  */

        RSEG XDATA_Z:XDATA:NOROOT(0)
        DATA16
//   85 static bdbTLCBRec_t *bdbTLCBs = (bdbTLCBRec_t *)NULL;
bdbTLCBs:
        DS 2
        REQUIRE __INIT_XDATA_Z

        RSEG XDATA_Z:XDATA:NOROOT(0)
        DATA8
//   86 static uint8 bdbTLPluginRegisted = FALSE;
bdbTLPluginRegisted:
        DS 1
        REQUIRE __INIT_XDATA_Z
//   87 

        RSEG XDATA_Z:XDATA:NOROOT(0)
        DATA16
//   88 static bdbTL_InterPANCallbacks_t *pInterPANCBs = (bdbTL_InterPANCallbacks_t *)NULL;
pInterPANCBs:
        DS 2
        REQUIRE __INIT_XDATA_Z
//   89 
//   90 /*********************************************************************
//   91  * LOCAL FUNCTIONS
//   92  */
//   93 
//   94 static ZStatus_t bdbTL_SendInterPANCommand( uint8 srcEP, afAddrType_t *destAddr, uint8 cmd,
//   95                                             uint8 direction, uint8 seqNum, uint16 cmdFormatLen, 
//   96                                             uint8 *cmdFormat );
//   97 static bdbTL_AppCallbacks_t *bdbTL_FindCallbacks( uint8 endpoint );
//   98 static ZStatus_t bdbTL_HdlIncoming( zclIncoming_t *pInMsg );
//   99 static ZStatus_t bdbTL_HdlInSpecificCommands( zclIncoming_t *pInMsg );
//  100 static ZStatus_t bdbTL_ProcessInLLCmds( zclIncoming_t *pInMsg, bdbTL_AppCallbacks_t *pCBs );
//  101 
//  102 static ZStatus_t bdbTL_ProcessInCmd_GetGrpIDsReq( zclIncoming_t *pInMsg, bdbTL_AppCallbacks_t *pCBs );
//  103 static ZStatus_t bdbTL_ProcessInCmd_GetEPListReq( zclIncoming_t *pInMsg, bdbTL_AppCallbacks_t *pCBs );
//  104 
//  105 static ZStatus_t bdbTL_ProcessInCmd_EndpointInfo( zclIncoming_t *pInMsg, bdbTL_AppCallbacks_t *pCBs );
//  106 static ZStatus_t bdbTL_ProcessInCmd_GetGrpIDsRsp( zclIncoming_t *pInMsg, bdbTL_AppCallbacks_t *pCBs );
//  107 static ZStatus_t bdbTL_ProcessInCmd_GetEPListRsp( zclIncoming_t *pInMsg, bdbTL_AppCallbacks_t *pCBs );
//  108 
//  109 static ZStatus_t bdbTL_HdlInInterPANCommands( zclIncoming_t *pInMsg );
//  110 static ZStatus_t bdbTL_ProcessInLLInterPANCmds( zclIncoming_t *pInMsg );
//  111 
//  112 static void bdbTL_ParseInCmd_NwkJoinReq( uint8 *pBuf, bdbTLNwkJoinReq_t *pReq );
//  113 
//  114 static ZStatus_t bdbTL_ProcessInCmd_ScanReq( zclIncoming_t *pInMsg );
//  115 static ZStatus_t bdbTL_ProcessInCmd_DeviceInfoReq( zclIncoming_t *pInMsg );
//  116 static ZStatus_t bdbTL_ProcessInCmd_IdentifyReq( zclIncoming_t *pInMsg );
//  117 static ZStatus_t bdbTL_ProcessInCmd_ResetToFNReq( zclIncoming_t *pInMsg );
//  118 static ZStatus_t bdbTL_ProcessInCmd_NwkStartReq( zclIncoming_t *pInMsg );
//  119 static ZStatus_t bdbTL_ProcessInCmd_NwkJoinRtrReq( zclIncoming_t *pInMsg );
//  120 static ZStatus_t bdbTL_ProcessInCmd_NwkJoinEDReq( zclIncoming_t *pInMsg );
//  121 static ZStatus_t bdbTL_ProcessInCmd_NwkUpdateReq( zclIncoming_t *pInMsg );
//  122 
//  123 static ZStatus_t bdbTL_ProcessInCmd_ScanRsp( zclIncoming_t *pInMsg );
//  124 static ZStatus_t bdbTL_ProcessInCmd_DeviceInfoRsp( zclIncoming_t *pInMsg );
//  125 static ZStatus_t bdbTL_ProcessInCmd_NwkStartRsp( zclIncoming_t *pInMsg );
//  126 static ZStatus_t bdbTL_ProcessInCmd_NwkJoinRtrRsp( zclIncoming_t *pInMsg );
//  127 static ZStatus_t bdbTL_ProcessInCmd_NwkJoinEDRsp( zclIncoming_t *pInMsg );
//  128 
//  129 
//  130 /*********************************************************************
//  131  * @fn      bdbTL_RegisterCmdCallbacks
//  132  *
//  133  * @brief   Register an applications command callbacks
//  134  *
//  135  * @param   endpoint - application's endpoint
//  136  * @param   callbacks - pointer to the callback record.
//  137  *
//  138  * @return  ZMemError if not able to allocate
//  139  */

        RSEG BANKED_CODE:HUGECODE:NOROOT(0)
//  140 ZStatus_t bdbTL_RegisterCmdCallbacks( uint8 endpoint, bdbTL_AppCallbacks_t *callbacks )
bdbTL_RegisterCmdCallbacks:
          CFI Block cfiBlock0 Using cfiCommon0
          CFI Function bdbTL_RegisterCmdCallbacks
        CODE
//  141 {
        FUNCALL bdbTL_RegisterCmdCallbacks, zcl_registerPlugin
        LOCFRAME ISTACK, 0, STACK
        LOCFRAME PSTACK, 0, STACK
        LOCFRAME XSTACK, 18, STACK
        LOCFRAME IOVERLAY, 0, STATIC
        LOCFRAME DOVERLAY, 0, STATIC
        ARGFRAME ISTACK, 0, STACK
        ARGFRAME PSTACK, 0, STACK
        ARGFRAME XSTACK, 18, STACK
        ARGFRAME IOVERLAY, 0, STATIC
        ARGFRAME DOVERLAY, 0, STATIC
        FUNCALL bdbTL_RegisterCmdCallbacks, osal_mem_alloc
        LOCFRAME ISTACK, 0, STACK
        LOCFRAME PSTACK, 0, STACK
        LOCFRAME XSTACK, 16, STACK
        LOCFRAME IOVERLAY, 0, STATIC
        LOCFRAME DOVERLAY, 0, STATIC
        ARGFRAME ISTACK, 0, STACK
        ARGFRAME PSTACK, 0, STACK
        ARGFRAME XSTACK, 16, STACK
        ARGFRAME IOVERLAY, 0, STATIC
        ARGFRAME DOVERLAY, 0, STATIC
        REQUIRE ?V0
        REQUIRE ?V1
        REQUIRE ?V2
        REQUIRE ?V3
        REQUIRE ?V4
        REQUIRE ?V6
        REQUIRE ?V7
        MOV       A,#-0x10
        LCALL     ?BANKED_ENTER_XDATA
          CFI DPH0 load(1, XDATA, add(CFA_XSP16, literal(-1)))
          CFI DPL0 load(1, XDATA, add(CFA_XSP16, literal(-2)))
          CFI ?BRET_EXT load(1, XDATA, add(CFA_XSP16, literal(-3)))
          CFI ?RET_HIGH load(1, XDATA, add(CFA_XSP16, literal(-4)))
          CFI ?RET_LOW load(1, XDATA, add(CFA_XSP16, literal(-5)))
          CFI R7 load(1, XDATA, add(CFA_XSP16, literal(-6)))
          CFI V7 load(1, XDATA, add(CFA_XSP16, literal(-7)))
          CFI V6 load(1, XDATA, add(CFA_XSP16, literal(-8)))
          CFI V5 load(1, XDATA, add(CFA_XSP16, literal(-9)))
          CFI V4 load(1, XDATA, add(CFA_XSP16, literal(-10)))
          CFI V3 load(1, XDATA, add(CFA_XSP16, literal(-11)))
          CFI V2 load(1, XDATA, add(CFA_XSP16, literal(-12)))
          CFI V1 load(1, XDATA, add(CFA_XSP16, literal(-13)))
          CFI V0 load(1, XDATA, add(CFA_XSP16, literal(-14)))
          CFI VB load(1, XDATA, add(CFA_XSP16, literal(-15)))
          CFI R6 load(1, XDATA, add(CFA_XSP16, literal(-16)))
          CFI CFA_SP SP+0
          CFI CFA_XSP16 add(XSP16, 16)
        ; Saved register size: 16
        ; Auto size: 0
        MOV       ?V4,R1
        MOV       ?V2,R2
        MOV       ?V3,R3
//  142   bdbTLCBRec_t *pNewItem;
//  143   bdbTLCBRec_t *pLoop;
//  144 
//  145   // Register as a ZCL Plugin
//  146   if ( !bdbTLPluginRegisted )
        MOV       DPTR,#bdbTLPluginRegisted
        MOVX      A,@DPTR
        JNZ       ??bdbTL_RegisterCmdCallbacks_0
//  147   {
//  148     zcl_registerPlugin( ZCL_CLUSTER_ID_TOUCHLINK,
//  149                         ZCL_CLUSTER_ID_TOUCHLINK,
//  150                         bdbTL_HdlIncoming );
        ; Setup parameters for call to function zcl_registerPlugin
        MOV       ?V6,#`??bdbTL_HdlIncoming::?relay` & 0xff
        MOV       ?V7,#(`??bdbTL_HdlIncoming::?relay` >> 8) & 0xff
        MOV       R0,#?V6
        LCALL     ?PUSH_XSTACK_I_TWO
          CFI CFA_XSP16 add(XSP16, 18)
        MOV       R4,#0x0
        MOV       R5,#0x10
        MOV       R2,#0x0
        MOV       R3,#0x10
        LCALL     `??zcl_registerPlugin::?relay`; Banked call to: zcl_registerPlugin
        MOV       A,#0x2
        LCALL     ?DEALLOC_XSTACK8
          CFI CFA_XSP16 add(XSP16, 16)
        MOV       A,R1
//  151     bdbTLPluginRegisted = TRUE;
        MOV       DPTR,#bdbTLPluginRegisted
        MOV       A,#0x1
        MOVX      @DPTR,A
//  152   }
//  153 
//  154   // Fill in the new profile list
//  155   pNewItem = zcl_mem_alloc( sizeof( bdbTLCBRec_t ) );
??bdbTL_RegisterCmdCallbacks_0:
        ; Setup parameters for call to function osal_mem_alloc
        MOV       R2,#0x5
        MOV       R3,#0x0
        LCALL     `??osal_mem_alloc::?relay`; Banked call to: osal_mem_alloc
        MOV       ?V6,R2
        MOV       ?V7,R3
        MOV       R6,?V6
        MOV       R7,?V7
//  156   if ( pNewItem == NULL )
        MOV       A,R6
        ORL       A,R7
        JNZ       ??bdbTL_RegisterCmdCallbacks_1
//  157     return (ZMemError);
        MOV       R1,#0x10
        SJMP      ??bdbTL_RegisterCmdCallbacks_2
//  158 
//  159   pNewItem->next = (bdbTLCBRec_t *)NULL;
??bdbTL_RegisterCmdCallbacks_1:
        MOV       DPL,R6
        MOV       DPH,R7
        MOV       A,#0x0
        MOVX      @DPTR,A
        INC       DPTR
        MOV       A,#0x0
        MOVX      @DPTR,A
//  160   pNewItem->endpoint = endpoint;
        MOV       A,?V4
        PUSH      A
          CFI CFA_SP SP+-1
        MOV       DPL,R6
        MOV       DPH,R7
        INC       DPTR
        INC       DPTR
        POP       A
          CFI CFA_SP SP+0
        MOVX      @DPTR,A
//  161   pNewItem->CBs = callbacks;
        MOV       DPL,R6
        MOV       DPH,R7
        INC       DPTR
        INC       DPTR
        INC       DPTR
        MOV       A,?V2
        MOVX      @DPTR,A
        INC       DPTR
        MOV       A,?V3
        MOVX      @DPTR,A
//  162 
//  163   // Find spot in list
//  164   if ( bdbTLCBs == NULL )
        MOV       DPTR,#bdbTLCBs
        MOVX      A,@DPTR
        MOV       R0,A
        INC       DPTR
        MOVX      A,@DPTR
        MOV       R1,A
        MOV       A,R0
        ORL       A,R1
        JNZ       ??bdbTL_RegisterCmdCallbacks_3
//  165   {
//  166     bdbTLCBs = pNewItem;
        MOV       DPTR,#bdbTLCBs
        MOV       A,R6
        MOVX      @DPTR,A
        INC       DPTR
        MOV       A,R7
        MOVX      @DPTR,A
        SJMP      ??bdbTL_RegisterCmdCallbacks_4
//  167   }
//  168   else
//  169   {
//  170     // Look for end of list
//  171     pLoop = bdbTLCBs;
??bdbTL_RegisterCmdCallbacks_3:
        MOV       DPTR,#bdbTLCBs
        MOVX      A,@DPTR
        MOV       R0,A
        INC       DPTR
        MOVX      A,@DPTR
        MOV       R1,A
        MOV       ?V0,R0
        MOV       ?V1,R1
//  172     while ( pLoop->next != NULL )
??bdbTL_RegisterCmdCallbacks_5:
        MOV       DPL,?V0
        MOV       DPH,?V1
        MOVX      A,@DPTR
        MOV       R0,A
        INC       DPTR
        MOVX      A,@DPTR
        MOV       R1,A
        MOV       A,R0
        ORL       A,R1
        JZ        ??bdbTL_RegisterCmdCallbacks_6
//  173       pLoop = pLoop->next;
        MOV       DPL,?V0
        MOV       DPH,?V1
        MOVX      A,@DPTR
        MOV       ?V0,A
        INC       DPTR
        MOVX      A,@DPTR
        MOV       ?V1,A
        SJMP      ??bdbTL_RegisterCmdCallbacks_5
//  174 
//  175     // Put new item at end of list
//  176     pLoop->next = pNewItem;
??bdbTL_RegisterCmdCallbacks_6:
        MOV       DPL,?V0
        MOV       DPH,?V1
        MOV       A,R6
        MOVX      @DPTR,A
        INC       DPTR
        MOV       A,R7
        MOVX      @DPTR,A
//  177   }
//  178 
//  179   return ( ZSuccess );
??bdbTL_RegisterCmdCallbacks_4:
        MOV       R1,#0x0
??bdbTL_RegisterCmdCallbacks_2:
        MOV       R7,#0x8
        LJMP      ?BANKED_LEAVE_XDATA
//  180 }
          CFI EndBlock cfiBlock0
//  181 
//  182 /*********************************************************************
//  183  * @fn      bdbTL_RegisterInterPANCmdCallbacks
//  184  *
//  185  * @brief   Register an applications Inter-PAN command callbacks
//  186  *
//  187  * @param   callbacks - pointer to the callback record.
//  188  *
//  189  * @return  ZSuccess
//  190  */

        RSEG BANKED_CODE:HUGECODE:NOROOT(0)
//  191 ZStatus_t bdbTL_RegisterInterPANCmdCallbacks( bdbTL_InterPANCallbacks_t *callbacks )
bdbTL_RegisterInterPANCmdCallbacks:
          CFI Block cfiBlock1 Using cfiCommon0
          CFI Function bdbTL_RegisterInterPANCmdCallbacks
        CODE
//  192 {
        FUNCALL bdbTL_RegisterInterPANCmdCallbacks, zcl_registerPlugin
        LOCFRAME ISTACK, 0, STACK
        LOCFRAME PSTACK, 0, STACK
        LOCFRAME XSTACK, 12, STACK
        LOCFRAME IOVERLAY, 0, STATIC
        LOCFRAME DOVERLAY, 0, STATIC
        ARGFRAME ISTACK, 0, STACK
        ARGFRAME PSTACK, 0, STACK
        ARGFRAME XSTACK, 12, STACK
        ARGFRAME IOVERLAY, 0, STATIC
        ARGFRAME DOVERLAY, 0, STATIC
        REQUIRE ?V0
        REQUIRE ?V1
        MOV       A,#-0xa
        LCALL     ?BANKED_ENTER_XDATA
          CFI DPH0 load(1, XDATA, add(CFA_XSP16, literal(-1)))
          CFI DPL0 load(1, XDATA, add(CFA_XSP16, literal(-2)))
          CFI ?BRET_EXT load(1, XDATA, add(CFA_XSP16, literal(-3)))
          CFI ?RET_HIGH load(1, XDATA, add(CFA_XSP16, literal(-4)))
          CFI ?RET_LOW load(1, XDATA, add(CFA_XSP16, literal(-5)))
          CFI R7 load(1, XDATA, add(CFA_XSP16, literal(-6)))
          CFI V1 load(1, XDATA, add(CFA_XSP16, literal(-7)))
          CFI V0 load(1, XDATA, add(CFA_XSP16, literal(-8)))
          CFI VB load(1, XDATA, add(CFA_XSP16, literal(-9)))
          CFI R6 load(1, XDATA, add(CFA_XSP16, literal(-10)))
          CFI CFA_SP SP+0
          CFI CFA_XSP16 add(XSP16, 10)
        ; Saved register size: 10
        ; Auto size: 0
        MOV       A,R2
        MOV       R6,A
        MOV       A,R3
        MOV       R7,A
//  193   // Register as a ZCL Plugin
//  194   if ( !bdbTLPluginRegisted )
        MOV       DPTR,#bdbTLPluginRegisted
        MOVX      A,@DPTR
        JNZ       ??bdbTL_RegisterInterPANCmdCallbacks_0
//  195   {
//  196     zcl_registerPlugin( ZCL_CLUSTER_ID_TOUCHLINK,
//  197                         ZCL_CLUSTER_ID_TOUCHLINK,
//  198                         bdbTL_HdlIncoming );
        ; Setup parameters for call to function zcl_registerPlugin
        MOV       ?V0,#`??bdbTL_HdlIncoming::?relay` & 0xff
        MOV       ?V1,#(`??bdbTL_HdlIncoming::?relay` >> 8) & 0xff
        MOV       R0,#?V0
        LCALL     ?PUSH_XSTACK_I_TWO
          CFI CFA_XSP16 add(XSP16, 12)
        MOV       R4,#0x0
        MOV       R5,#0x10
        MOV       R2,#0x0
        MOV       R3,#0x10
        LCALL     `??zcl_registerPlugin::?relay`; Banked call to: zcl_registerPlugin
        MOV       A,#0x2
        LCALL     ?DEALLOC_XSTACK8
          CFI CFA_XSP16 add(XSP16, 10)
        MOV       A,R1
//  199     bdbTLPluginRegisted = TRUE;
        MOV       DPTR,#bdbTLPluginRegisted
        MOV       A,#0x1
        MOVX      @DPTR,A
//  200   }
//  201   pInterPANCBs = callbacks;
??bdbTL_RegisterInterPANCmdCallbacks_0:
        MOV       DPTR,#pInterPANCBs
        MOV       A,R6
        MOVX      @DPTR,A
        INC       DPTR
        MOV       A,R7
        MOVX      @DPTR,A
//  202 
//  203   return ( ZSuccess );
        MOV       R1,#0x0
        MOV       R7,#0x2
        LJMP      ?BANKED_LEAVE_XDATA
//  204 }
          CFI EndBlock cfiBlock1
//  205 
//  206 /*********************************************************************
//  207  * @fn      bdbTL_Send_ScanReq
//  208  *
//  209  * @brief   Call to send out an Scan Request command
//  210  *
//  211  * @param   srcEP - sending application's endpoint
//  212  * @param   dstAddr - where you want the message to go
//  213  * @param   pReq - request parameters
//  214  * @param   seqNum - sequence number
//  215  *
//  216  * @return  ZStatus_t
//  217  */

        RSEG BANKED_CODE:HUGECODE:NOROOT(0)
//  218 ZStatus_t bdbTL_Send_ScanReq( uint8 srcEP, afAddrType_t *dstAddr,
bdbTL_Send_ScanReq:
          CFI Block cfiBlock2 Using cfiCommon0
          CFI Function bdbTL_Send_ScanReq
        CODE
//  219                               bdbTLScanReq_t *pReq, uint8 seqNum )
//  220 {
        FUNCALL bdbTL_Send_ScanReq, osal_buffer_uint32
        LOCFRAME ISTACK, 0, STACK
        LOCFRAME PSTACK, 0, STACK
        LOCFRAME XSTACK, 26, STACK
        LOCFRAME IOVERLAY, 0, STATIC
        LOCFRAME DOVERLAY, 0, STATIC
        ARGFRAME ISTACK, 0, STACK
        ARGFRAME PSTACK, 0, STACK
        ARGFRAME XSTACK, 26, STACK
        ARGFRAME IOVERLAY, 0, STATIC
        ARGFRAME DOVERLAY, 0, STATIC
        FUNCALL bdbTL_Send_ScanReq, bdbTL_SendInterPANCommand
        LOCFRAME ISTACK, 0, STACK
        LOCFRAME PSTACK, 0, STACK
        LOCFRAME XSTACK, 27, STACK
        LOCFRAME IOVERLAY, 0, STATIC
        LOCFRAME DOVERLAY, 0, STATIC
        ARGFRAME ISTACK, 0, STACK
        ARGFRAME PSTACK, 0, STACK
        ARGFRAME XSTACK, 27, STACK
        ARGFRAME IOVERLAY, 0, STATIC
        ARGFRAME DOVERLAY, 0, STATIC
        REQUIRE ?V0
        REQUIRE ?V1
        REQUIRE ?V2
        REQUIRE ?V3
        REQUIRE ?V4
        REQUIRE ?V5
        REQUIRE ?V6
        REQUIRE ?V7
        MOV       A,#-0x10
        LCALL     ?BANKED_ENTER_XDATA
          CFI DPH0 load(1, XDATA, add(CFA_XSP16, literal(-1)))
          CFI DPL0 load(1, XDATA, add(CFA_XSP16, literal(-2)))
          CFI ?BRET_EXT load(1, XDATA, add(CFA_XSP16, literal(-3)))
          CFI ?RET_HIGH load(1, XDATA, add(CFA_XSP16, literal(-4)))
          CFI ?RET_LOW load(1, XDATA, add(CFA_XSP16, literal(-5)))
          CFI R7 load(1, XDATA, add(CFA_XSP16, literal(-6)))
          CFI V7 load(1, XDATA, add(CFA_XSP16, literal(-7)))
          CFI V6 load(1, XDATA, add(CFA_XSP16, literal(-8)))
          CFI V5 load(1, XDATA, add(CFA_XSP16, literal(-9)))
          CFI V4 load(1, XDATA, add(CFA_XSP16, literal(-10)))
          CFI V3 load(1, XDATA, add(CFA_XSP16, literal(-11)))
          CFI V2 load(1, XDATA, add(CFA_XSP16, literal(-12)))
          CFI V1 load(1, XDATA, add(CFA_XSP16, literal(-13)))
          CFI V0 load(1, XDATA, add(CFA_XSP16, literal(-14)))
          CFI VB load(1, XDATA, add(CFA_XSP16, literal(-15)))
          CFI R6 load(1, XDATA, add(CFA_XSP16, literal(-16)))
          CFI CFA_SP SP+0
          CFI CFA_XSP16 add(XSP16, 16)
        ; Saved register size: 16
        ; Auto size: 6
        MOV       A,#-0x6
        LCALL     ?ALLOC_XSTACK8
          CFI CFA_XSP16 add(XSP16, 22)
        MOV       ?V1,R1
        MOV       ?V2,R2
        MOV       ?V3,R3
        MOV       A,R4
        MOV       R6,A
        MOV       A,R5
        MOV       R7,A
        MOV       A,#0x16
        LCALL     ?XSTACK_DISP0_8
        MOVX      A,@DPTR
        MOV       ?V0,A
//  221   uint8 buf[TOUCHLINK_CMDLEN_SCAN_REQ];
//  222 
//  223   VOID zcl_buffer_uint32( buf, pReq->transID );
        ; Setup parameters for call to function osal_buffer_uint32
        MOV       DPL,R6
        MOV       DPH,R7
        LCALL     ?PUSH_XSTACK8_X_FOUR
          CFI CFA_XSP16 add(XSP16, 26)
        MOV       A,#0x4
        LCALL     ?XSTACK_DISP101_8
        LCALL     `??osal_buffer_uint32::?relay`; Banked call to: osal_buffer_uint32
        MOV       A,#0x4
        LCALL     ?DEALLOC_XSTACK8
          CFI CFA_XSP16 add(XSP16, 22)
        MOV       ?V6,R2
        MOV       ?V7,R3
        MOV       ?V4,?V6
        MOV       ?V5,?V7
//  224 
//  225   buf[4] = pReq->zInfo.zInfoByte;
        MOV       DPL,R6
        MOV       DPH,R7
        INC       DPTR
        INC       DPTR
        INC       DPTR
        INC       DPTR
        MOVX      A,@DPTR
        PUSH      A
          CFI CFA_SP SP+-1
        MOV       A,#0x4
        LCALL     ?XSTACK_DISP0_8
        POP       A
          CFI CFA_SP SP+0
        MOVX      @DPTR,A
//  226   buf[5] = pReq->touchLinkInfo.touchLinkInfoByte;
        MOV       DPL,R6
        MOV       DPH,R7
        INC       DPTR
        INC       DPTR
        INC       DPTR
        INC       DPTR
        INC       DPTR
        INC       DPTR
        MOVX      A,@DPTR
        PUSH      A
          CFI CFA_SP SP+-1
        MOV       A,#0x5
        LCALL     ?XSTACK_DISP0_8
        POP       A
          CFI CFA_SP SP+0
        MOVX      @DPTR,A
//  227 
//  228   return bdbTL_SendInterPANCommand( srcEP, dstAddr, COMMAND_TOUCHLINK_SCAN_REQ,
//  229                                     ZCL_FRAME_CLIENT_SERVER_DIR, seqNum, TOUCHLINK_CMDLEN_SCAN_REQ, buf );
        ; Setup parameters for call to function bdbTL_SendInterPANCommand
        MOV       R0,?XSP + 0
        MOV       R1,?XSP + 1
        MOV       ?V6,R0
        MOV       ?V7,R1
        MOV       R0,#?V6
        LCALL     ?PUSH_XSTACK_I_TWO
          CFI CFA_XSP16 add(XSP16, 24)
        MOV       ?V6,#0x6
        MOV       ?V7,#0x0
        MOV       R0,#?V6
        LCALL     ?PUSH_XSTACK_I_TWO
          CFI CFA_XSP16 add(XSP16, 26)
        MOV       A,?V0
        MOV       ?V6,A
        MOV       R0,#?V6
        LCALL     ?PUSH_XSTACK_I_ONE
          CFI CFA_XSP16 add(XSP16, 27)
        MOV       R5,#0x0
        MOV       R4,#0x0
        MOV       R2,?V2
        MOV       R3,?V3
        MOV       R1,?V1
        LCALL     `??bdbTL_SendInterPANCommand::?relay`; Banked call to: bdbTL_SendInterPANCommand
        MOV       A,#0x5
        LCALL     ?DEALLOC_XSTACK8
          CFI CFA_XSP16 add(XSP16, 22)
        MOV       A,#0x6
        LCALL     ?DEALLOC_XSTACK8
          CFI CFA_XSP16 add(XSP16, 16)
        MOV       R7,#0x8
        LJMP      ?BANKED_LEAVE_XDATA
//  230 }
          CFI EndBlock cfiBlock2
//  231 
//  232 /*********************************************************************
//  233  * @fn      bdbTL_Send_DeviceInfoReq
//  234  *
//  235  * @brief   Call to send out a Device Information Request command
//  236  *
//  237  * @param   srcEP - sending application's endpoint
//  238  * @param   dstAddr - where you want the message to go
//  239  * @param   pReq - request parameters
//  240  * @param   seqNum - sequence number
//  241  *
//  242  * @return  ZStatus_t
//  243  */

        RSEG BANKED_CODE:HUGECODE:NOROOT(0)
//  244 ZStatus_t bdbTL_Send_DeviceInfoReq( uint8 srcEP, afAddrType_t *dstAddr,
bdbTL_Send_DeviceInfoReq:
          CFI Block cfiBlock3 Using cfiCommon0
          CFI Function bdbTL_Send_DeviceInfoReq
        CODE
//  245                                     bdbTLDeviceInfoReq_t *pReq, uint8 seqNum )
//  246 {
        FUNCALL bdbTL_Send_DeviceInfoReq, osal_buffer_uint32
        LOCFRAME ISTACK, 0, STACK
        LOCFRAME PSTACK, 0, STACK
        LOCFRAME XSTACK, 25, STACK
        LOCFRAME IOVERLAY, 0, STATIC
        LOCFRAME DOVERLAY, 0, STATIC
        ARGFRAME ISTACK, 0, STACK
        ARGFRAME PSTACK, 0, STACK
        ARGFRAME XSTACK, 25, STACK
        ARGFRAME IOVERLAY, 0, STATIC
        ARGFRAME DOVERLAY, 0, STATIC
        FUNCALL bdbTL_Send_DeviceInfoReq, bdbTL_SendInterPANCommand
        LOCFRAME ISTACK, 0, STACK
        LOCFRAME PSTACK, 0, STACK
        LOCFRAME XSTACK, 26, STACK
        LOCFRAME IOVERLAY, 0, STATIC
        LOCFRAME DOVERLAY, 0, STATIC
        ARGFRAME ISTACK, 0, STACK
        ARGFRAME PSTACK, 0, STACK
        ARGFRAME XSTACK, 26, STACK
        ARGFRAME IOVERLAY, 0, STATIC
        ARGFRAME DOVERLAY, 0, STATIC
        REQUIRE ?V0
        REQUIRE ?V1
        REQUIRE ?V2
        REQUIRE ?V3
        REQUIRE ?V4
        REQUIRE ?V5
        REQUIRE ?V6
        REQUIRE ?V7
        MOV       A,#-0x10
        LCALL     ?BANKED_ENTER_XDATA
          CFI DPH0 load(1, XDATA, add(CFA_XSP16, literal(-1)))
          CFI DPL0 load(1, XDATA, add(CFA_XSP16, literal(-2)))
          CFI ?BRET_EXT load(1, XDATA, add(CFA_XSP16, literal(-3)))
          CFI ?RET_HIGH load(1, XDATA, add(CFA_XSP16, literal(-4)))
          CFI ?RET_LOW load(1, XDATA, add(CFA_XSP16, literal(-5)))
          CFI R7 load(1, XDATA, add(CFA_XSP16, literal(-6)))
          CFI V7 load(1, XDATA, add(CFA_XSP16, literal(-7)))
          CFI V6 load(1, XDATA, add(CFA_XSP16, literal(-8)))
          CFI V5 load(1, XDATA, add(CFA_XSP16, literal(-9)))
          CFI V4 load(1, XDATA, add(CFA_XSP16, literal(-10)))
          CFI V3 load(1, XDATA, add(CFA_XSP16, literal(-11)))
          CFI V2 load(1, XDATA, add(CFA_XSP16, literal(-12)))
          CFI V1 load(1, XDATA, add(CFA_XSP16, literal(-13)))
          CFI V0 load(1, XDATA, add(CFA_XSP16, literal(-14)))
          CFI VB load(1, XDATA, add(CFA_XSP16, literal(-15)))
          CFI R6 load(1, XDATA, add(CFA_XSP16, literal(-16)))
          CFI CFA_SP SP+0
          CFI CFA_XSP16 add(XSP16, 16)
        ; Saved register size: 16
        ; Auto size: 5
        MOV       A,#-0x5
        LCALL     ?ALLOC_XSTACK8
          CFI CFA_XSP16 add(XSP16, 21)
        MOV       ?V1,R1
        MOV       ?V2,R2
        MOV       ?V3,R3
        MOV       A,R4
        MOV       R6,A
        MOV       A,R5
        MOV       R7,A
        MOV       A,#0x15
        LCALL     ?XSTACK_DISP0_8
        MOVX      A,@DPTR
        MOV       ?V0,A
//  247   uint8 buf[TOUCHLINK_CMDLEN_DEVICE_INFO_REQ];
//  248 
//  249   VOID zcl_buffer_uint32( buf, pReq->transID );
        ; Setup parameters for call to function osal_buffer_uint32
        MOV       DPL,R6
        MOV       DPH,R7
        LCALL     ?PUSH_XSTACK8_X_FOUR
          CFI CFA_XSP16 add(XSP16, 25)
        MOV       A,#0x4
        LCALL     ?XSTACK_DISP101_8
        LCALL     `??osal_buffer_uint32::?relay`; Banked call to: osal_buffer_uint32
        MOV       A,#0x4
        LCALL     ?DEALLOC_XSTACK8
          CFI CFA_XSP16 add(XSP16, 21)
        MOV       ?V6,R2
        MOV       ?V7,R3
        MOV       ?V4,?V6
        MOV       ?V5,?V7
//  250 
//  251   buf[4] = pReq->startIndex;
        MOV       DPL,R6
        MOV       DPH,R7
        INC       DPTR
        INC       DPTR
        INC       DPTR
        INC       DPTR
        MOVX      A,@DPTR
        PUSH      A
          CFI CFA_SP SP+-1
        MOV       A,#0x4
        LCALL     ?XSTACK_DISP0_8
        POP       A
          CFI CFA_SP SP+0
        MOVX      @DPTR,A
//  252 
//  253   return bdbTL_SendInterPANCommand( srcEP, dstAddr, COMMAND_TOUCHLINK_DEVICE_INFO_REQ,
//  254                                     ZCL_FRAME_CLIENT_SERVER_DIR, seqNum, TOUCHLINK_CMDLEN_DEVICE_INFO_REQ, buf );
        ; Setup parameters for call to function bdbTL_SendInterPANCommand
        MOV       R0,?XSP + 0
        MOV       R1,?XSP + 1
        MOV       ?V6,R0
        MOV       ?V7,R1
        MOV       R0,#?V6
        LCALL     ?PUSH_XSTACK_I_TWO
          CFI CFA_XSP16 add(XSP16, 23)
        MOV       ?V6,#0x5
        MOV       ?V7,#0x0
        MOV       R0,#?V6
        LCALL     ?PUSH_XSTACK_I_TWO
          CFI CFA_XSP16 add(XSP16, 25)
        MOV       A,?V0
        MOV       ?V6,A
        MOV       R0,#?V6
        LCALL     ?PUSH_XSTACK_I_ONE
          CFI CFA_XSP16 add(XSP16, 26)
        MOV       R5,#0x0
        MOV       R4,#0x2
        MOV       R2,?V2
        MOV       R3,?V3
        MOV       R1,?V1
        LCALL     `??bdbTL_SendInterPANCommand::?relay`; Banked call to: bdbTL_SendInterPANCommand
        MOV       A,#0x5
        LCALL     ?DEALLOC_XSTACK8
          CFI CFA_XSP16 add(XSP16, 21)
        MOV       A,#0x5
        LCALL     ?DEALLOC_XSTACK8
          CFI CFA_XSP16 add(XSP16, 16)
        MOV       R7,#0x8
        LJMP      ?BANKED_LEAVE_XDATA
//  255 }
          CFI EndBlock cfiBlock3
//  256 
//  257 /*********************************************************************
//  258  * @fn      bdbTL_Send_IndentifyReq
//  259  *
//  260  * @brief   Call to send out a Identify Request command
//  261  *
//  262  * @param   srcEP - sending application's endpoint
//  263  * @param   dstAddr - where you want the message to go
//  264  * @param   pReq - request parameters
//  265  * @param   seqNum - sequence number
//  266  *
//  267  * @return  ZStatus_t
//  268  */

        RSEG BANKED_CODE:HUGECODE:NOROOT(0)
//  269 ZStatus_t bdbTL_Send_IndentifyReq( uint8 srcEP, afAddrType_t *dstAddr,
bdbTL_Send_IndentifyReq:
          CFI Block cfiBlock4 Using cfiCommon0
          CFI Function bdbTL_Send_IndentifyReq
        CODE
//  270                                    bdbTLIdentifyReq_t *pReq, uint8 seqNum )
//  271 {
        FUNCALL bdbTL_Send_IndentifyReq, osal_buffer_uint32
        LOCFRAME ISTACK, 0, STACK
        LOCFRAME PSTACK, 0, STACK
        LOCFRAME XSTACK, 26, STACK
        LOCFRAME IOVERLAY, 0, STATIC
        LOCFRAME DOVERLAY, 0, STATIC
        ARGFRAME ISTACK, 0, STACK
        ARGFRAME PSTACK, 0, STACK
        ARGFRAME XSTACK, 26, STACK
        ARGFRAME IOVERLAY, 0, STATIC
        ARGFRAME DOVERLAY, 0, STATIC
        FUNCALL bdbTL_Send_IndentifyReq, bdbTL_SendInterPANCommand
        LOCFRAME ISTACK, 0, STACK
        LOCFRAME PSTACK, 0, STACK
        LOCFRAME XSTACK, 27, STACK
        LOCFRAME IOVERLAY, 0, STATIC
        LOCFRAME DOVERLAY, 0, STATIC
        ARGFRAME ISTACK, 0, STACK
        ARGFRAME PSTACK, 0, STACK
        ARGFRAME XSTACK, 27, STACK
        ARGFRAME IOVERLAY, 0, STATIC
        ARGFRAME DOVERLAY, 0, STATIC
        REQUIRE ?V0
        REQUIRE ?V1
        REQUIRE ?V2
        REQUIRE ?V3
        REQUIRE ?V4
        REQUIRE ?V5
        REQUIRE ?V6
        REQUIRE ?V7
        MOV       A,#-0x10
        LCALL     ?BANKED_ENTER_XDATA
          CFI DPH0 load(1, XDATA, add(CFA_XSP16, literal(-1)))
          CFI DPL0 load(1, XDATA, add(CFA_XSP16, literal(-2)))
          CFI ?BRET_EXT load(1, XDATA, add(CFA_XSP16, literal(-3)))
          CFI ?RET_HIGH load(1, XDATA, add(CFA_XSP16, literal(-4)))
          CFI ?RET_LOW load(1, XDATA, add(CFA_XSP16, literal(-5)))
          CFI R7 load(1, XDATA, add(CFA_XSP16, literal(-6)))
          CFI V7 load(1, XDATA, add(CFA_XSP16, literal(-7)))
          CFI V6 load(1, XDATA, add(CFA_XSP16, literal(-8)))
          CFI V5 load(1, XDATA, add(CFA_XSP16, literal(-9)))
          CFI V4 load(1, XDATA, add(CFA_XSP16, literal(-10)))
          CFI V3 load(1, XDATA, add(CFA_XSP16, literal(-11)))
          CFI V2 load(1, XDATA, add(CFA_XSP16, literal(-12)))
          CFI V1 load(1, XDATA, add(CFA_XSP16, literal(-13)))
          CFI V0 load(1, XDATA, add(CFA_XSP16, literal(-14)))
          CFI VB load(1, XDATA, add(CFA_XSP16, literal(-15)))
          CFI R6 load(1, XDATA, add(CFA_XSP16, literal(-16)))
          CFI CFA_SP SP+0
          CFI CFA_XSP16 add(XSP16, 16)
        ; Saved register size: 16
        ; Auto size: 6
        MOV       A,#-0x6
        LCALL     ?ALLOC_XSTACK8
          CFI CFA_XSP16 add(XSP16, 22)
        MOV       ?V1,R1
        MOV       ?V2,R2
        MOV       ?V3,R3
        MOV       A,R4
        MOV       R6,A
        MOV       A,R5
        MOV       R7,A
        MOV       A,#0x16
        LCALL     ?XSTACK_DISP0_8
        MOVX      A,@DPTR
        MOV       ?V0,A
//  272   uint8 buf[TOUCHLINK_CMDLEN_IDENTIFY_REQ];
//  273 
//  274   VOID zcl_buffer_uint32( buf, pReq->transID );
        ; Setup parameters for call to function osal_buffer_uint32
        MOV       DPL,R6
        MOV       DPH,R7
        LCALL     ?PUSH_XSTACK8_X_FOUR
          CFI CFA_XSP16 add(XSP16, 26)
        MOV       A,#0x4
        LCALL     ?XSTACK_DISP101_8
        LCALL     `??osal_buffer_uint32::?relay`; Banked call to: osal_buffer_uint32
        MOV       A,#0x4
        LCALL     ?DEALLOC_XSTACK8
          CFI CFA_XSP16 add(XSP16, 22)
        MOV       ?V6,R2
        MOV       ?V7,R3
        MOV       ?V4,?V6
        MOV       ?V5,?V7
//  275 
//  276   buf[4] = LO_UINT16( pReq->IdDuration );
        MOV       DPL,R6
        MOV       DPH,R7
        INC       DPTR
        INC       DPTR
        INC       DPTR
        INC       DPTR
        MOVX      A,@DPTR
        MOV       R0,A
        INC       DPTR
        MOVX      A,@DPTR
        MOV       R1,A
        MOV       A,R0
        PUSH      A
          CFI CFA_SP SP+-1
        MOV       A,#0x4
        LCALL     ?XSTACK_DISP0_8
        POP       A
          CFI CFA_SP SP+0
        MOVX      @DPTR,A
//  277   buf[5] = HI_UINT16( pReq->IdDuration );
        MOV       DPL,R6
        MOV       DPH,R7
        INC       DPTR
        INC       DPTR
        INC       DPTR
        INC       DPTR
        MOVX      A,@DPTR
        MOV       R0,A
        INC       DPTR
        MOVX      A,@DPTR
        MOV       R1,A
        CLR       A
        XCH       A,R1
        MOV       R0,A
        MOV       A,R0
        PUSH      A
          CFI CFA_SP SP+-1
        MOV       A,#0x5
        LCALL     ?XSTACK_DISP0_8
        POP       A
          CFI CFA_SP SP+0
        MOVX      @DPTR,A
//  278 
//  279   return bdbTL_SendInterPANCommand( srcEP, dstAddr, COMMAND_TOUCHLINK_IDENTIFY_REQ,
//  280                                     ZCL_FRAME_CLIENT_SERVER_DIR, seqNum, TOUCHLINK_CMDLEN_IDENTIFY_REQ, buf );
        ; Setup parameters for call to function bdbTL_SendInterPANCommand
        MOV       R0,?XSP + 0
        MOV       R1,?XSP + 1
        MOV       ?V6,R0
        MOV       ?V7,R1
        MOV       R0,#?V6
        LCALL     ?PUSH_XSTACK_I_TWO
          CFI CFA_XSP16 add(XSP16, 24)
        MOV       ?V6,#0x6
        MOV       ?V7,#0x0
        MOV       R0,#?V6
        LCALL     ?PUSH_XSTACK_I_TWO
          CFI CFA_XSP16 add(XSP16, 26)
        MOV       A,?V0
        MOV       ?V6,A
        MOV       R0,#?V6
        LCALL     ?PUSH_XSTACK_I_ONE
          CFI CFA_XSP16 add(XSP16, 27)
        MOV       R5,#0x0
        MOV       R4,#0x6
        MOV       R2,?V2
        MOV       R3,?V3
        MOV       R1,?V1
        LCALL     `??bdbTL_SendInterPANCommand::?relay`; Banked call to: bdbTL_SendInterPANCommand
        MOV       A,#0x5
        LCALL     ?DEALLOC_XSTACK8
          CFI CFA_XSP16 add(XSP16, 22)
        MOV       A,#0x6
        LCALL     ?DEALLOC_XSTACK8
          CFI CFA_XSP16 add(XSP16, 16)
        MOV       R7,#0x8
        LJMP      ?BANKED_LEAVE_XDATA
//  281 }
          CFI EndBlock cfiBlock4
//  282 
//  283 /*********************************************************************
//  284  * @fn      bdbTL_Send_ResetToFNReq
//  285  *
//  286  * @brief   Call to send out a Reset to Factory New Request command
//  287  *
//  288  * @param   srcEP - sending application's endpoint
//  289  * @param   dstAddr - where you want the message to go
//  290  * @param   pReq - request parameters
//  291  * @param   seqNum - sequence number
//  292  *
//  293  * @return  ZStatus_t
//  294  */

        RSEG BANKED_CODE:HUGECODE:NOROOT(0)
//  295 ZStatus_t bdbTL_Send_ResetToFNReq( uint8 srcEP, afAddrType_t *dstAddr,
bdbTL_Send_ResetToFNReq:
          CFI Block cfiBlock5 Using cfiCommon0
          CFI Function bdbTL_Send_ResetToFNReq
        CODE
//  296                                    bdbTLResetToFNReq_t *pReq, uint8 seqNum )
//  297 {
        FUNCALL bdbTL_Send_ResetToFNReq, osal_buffer_uint32
        LOCFRAME ISTACK, 0, STACK
        LOCFRAME PSTACK, 0, STACK
        LOCFRAME XSTACK, 24, STACK
        LOCFRAME IOVERLAY, 0, STATIC
        LOCFRAME DOVERLAY, 0, STATIC
        ARGFRAME ISTACK, 0, STACK
        ARGFRAME PSTACK, 0, STACK
        ARGFRAME XSTACK, 24, STACK
        ARGFRAME IOVERLAY, 0, STATIC
        ARGFRAME DOVERLAY, 0, STATIC
        FUNCALL bdbTL_Send_ResetToFNReq, bdbTL_SendInterPANCommand
        LOCFRAME ISTACK, 0, STACK
        LOCFRAME PSTACK, 0, STACK
        LOCFRAME XSTACK, 25, STACK
        LOCFRAME IOVERLAY, 0, STATIC
        LOCFRAME DOVERLAY, 0, STATIC
        ARGFRAME ISTACK, 0, STACK
        ARGFRAME PSTACK, 0, STACK
        ARGFRAME XSTACK, 25, STACK
        ARGFRAME IOVERLAY, 0, STATIC
        ARGFRAME DOVERLAY, 0, STATIC
        REQUIRE ?V0
        REQUIRE ?V1
        REQUIRE ?V2
        REQUIRE ?V3
        REQUIRE ?V4
        REQUIRE ?V5
        REQUIRE ?V6
        REQUIRE ?V7
        MOV       A,#-0x10
        LCALL     ?BANKED_ENTER_XDATA
          CFI DPH0 load(1, XDATA, add(CFA_XSP16, literal(-1)))
          CFI DPL0 load(1, XDATA, add(CFA_XSP16, literal(-2)))
          CFI ?BRET_EXT load(1, XDATA, add(CFA_XSP16, literal(-3)))
          CFI ?RET_HIGH load(1, XDATA, add(CFA_XSP16, literal(-4)))
          CFI ?RET_LOW load(1, XDATA, add(CFA_XSP16, literal(-5)))
          CFI R7 load(1, XDATA, add(CFA_XSP16, literal(-6)))
          CFI V7 load(1, XDATA, add(CFA_XSP16, literal(-7)))
          CFI V6 load(1, XDATA, add(CFA_XSP16, literal(-8)))
          CFI V5 load(1, XDATA, add(CFA_XSP16, literal(-9)))
          CFI V4 load(1, XDATA, add(CFA_XSP16, literal(-10)))
          CFI V3 load(1, XDATA, add(CFA_XSP16, literal(-11)))
          CFI V2 load(1, XDATA, add(CFA_XSP16, literal(-12)))
          CFI V1 load(1, XDATA, add(CFA_XSP16, literal(-13)))
          CFI V0 load(1, XDATA, add(CFA_XSP16, literal(-14)))
          CFI VB load(1, XDATA, add(CFA_XSP16, literal(-15)))
          CFI R6 load(1, XDATA, add(CFA_XSP16, literal(-16)))
          CFI CFA_SP SP+0
          CFI CFA_XSP16 add(XSP16, 16)
        ; Saved register size: 16
        ; Auto size: 4
        MOV       A,#-0x4
        LCALL     ?ALLOC_XSTACK8
          CFI CFA_XSP16 add(XSP16, 20)
        MOV       ?V2,R1
        MOV       A,R2
        MOV       R6,A
        MOV       A,R3
        MOV       R7,A
        MOV       ?V0,R4
        MOV       ?V1,R5
        MOV       A,#0x14
        LCALL     ?XSTACK_DISP0_8
        MOVX      A,@DPTR
        MOV       ?V3,A
//  298   uint8 buf[TOUCHLINK_CMDLEN_RESET_TO_FN_REQ];
//  299 
//  300   VOID zcl_buffer_uint32( buf, pReq->transID );
        ; Setup parameters for call to function osal_buffer_uint32
        MOV       DPL,?V0
        MOV       DPH,?V1
        LCALL     ?PUSH_XSTACK8_X_FOUR
          CFI CFA_XSP16 add(XSP16, 24)
        MOV       A,#0x4
        LCALL     ?XSTACK_DISP101_8
        LCALL     `??osal_buffer_uint32::?relay`; Banked call to: osal_buffer_uint32
        MOV       A,#0x4
        LCALL     ?DEALLOC_XSTACK8
          CFI CFA_XSP16 add(XSP16, 20)
        MOV       ?V6,R2
        MOV       ?V7,R3
        MOV       ?V4,?V6
        MOV       ?V5,?V7
//  301 
//  302   return bdbTL_SendInterPANCommand( srcEP, dstAddr, COMMAND_TOUCHLINK_RESET_TO_FN_REQ,
//  303                                     ZCL_FRAME_CLIENT_SERVER_DIR, seqNum, TOUCHLINK_CMDLEN_RESET_TO_FN_REQ, buf );
        ; Setup parameters for call to function bdbTL_SendInterPANCommand
        MOV       R0,?XSP + 0
        MOV       R1,?XSP + 1
        MOV       ?V6,R0
        MOV       ?V7,R1
        MOV       R0,#?V6
        LCALL     ?PUSH_XSTACK_I_TWO
          CFI CFA_XSP16 add(XSP16, 22)
        MOV       ?V6,#0x4
        MOV       ?V7,#0x0
        MOV       R0,#?V6
        LCALL     ?PUSH_XSTACK_I_TWO
          CFI CFA_XSP16 add(XSP16, 24)
        MOV       A,?V3
        MOV       ?V6,A
        MOV       R0,#?V6
        LCALL     ?PUSH_XSTACK_I_ONE
          CFI CFA_XSP16 add(XSP16, 25)
        MOV       R5,#0x0
        MOV       R4,#0x7
        MOV       A,R6
        MOV       R2,A
        MOV       A,R7
        MOV       R3,A
        MOV       R1,?V2
        LCALL     `??bdbTL_SendInterPANCommand::?relay`; Banked call to: bdbTL_SendInterPANCommand
        MOV       A,#0x5
        LCALL     ?DEALLOC_XSTACK8
          CFI CFA_XSP16 add(XSP16, 20)
        MOV       A,#0x4
        LCALL     ?DEALLOC_XSTACK8
          CFI CFA_XSP16 add(XSP16, 16)
        MOV       R7,#0x8
        LJMP      ?BANKED_LEAVE_XDATA
//  304 }
          CFI EndBlock cfiBlock5
//  305 
//  306 /*********************************************************************
//  307  * @fn      bdbTL_Send_NwkStartReq
//  308  *
//  309  * @brief   Call to send out a Network Start Request command
//  310  *
//  311  * @param   srcEP - sending application's endpoint
//  312  * @param   dstAddr - where you want the message to go
//  313  * @param   pRsp - response parameters
//  314  * @param   seqNum - sequence number
//  315  *
//  316  * @return  ZStatus_t
//  317  */

        RSEG BANKED_CODE:HUGECODE:NOROOT(0)
//  318 ZStatus_t bdbTL_Send_NwkStartReq( uint8 srcEP, afAddrType_t *dstAddr,
bdbTL_Send_NwkStartReq:
          CFI Block cfiBlock6 Using cfiCommon0
          CFI Function bdbTL_Send_NwkStartReq
        CODE
//  319                                   bdbTLNwkStartReq_t *pRsp, uint8 seqNum )
//  320 {
        FUNCALL bdbTL_Send_NwkStartReq, osal_mem_alloc
        LOCFRAME ISTACK, 0, STACK
        LOCFRAME PSTACK, 0, STACK
        LOCFRAME XSTACK, 20, STACK
        LOCFRAME IOVERLAY, 0, STATIC
        LOCFRAME DOVERLAY, 0, STATIC
        ARGFRAME ISTACK, 0, STACK
        ARGFRAME PSTACK, 0, STACK
        ARGFRAME XSTACK, 20, STACK
        ARGFRAME IOVERLAY, 0, STATIC
        ARGFRAME DOVERLAY, 0, STATIC
        FUNCALL bdbTL_Send_NwkStartReq, osal_buffer_uint32
        LOCFRAME ISTACK, 0, STACK
        LOCFRAME PSTACK, 0, STACK
        LOCFRAME XSTACK, 24, STACK
        LOCFRAME IOVERLAY, 0, STATIC
        LOCFRAME DOVERLAY, 0, STATIC
        ARGFRAME ISTACK, 0, STACK
        ARGFRAME PSTACK, 0, STACK
        ARGFRAME XSTACK, 24, STACK
        ARGFRAME IOVERLAY, 0, STATIC
        ARGFRAME DOVERLAY, 0, STATIC
        FUNCALL bdbTL_Send_NwkStartReq, sAddrExtCpy
        LOCFRAME ISTACK, 0, STACK
        LOCFRAME PSTACK, 0, STACK
        LOCFRAME XSTACK, 20, STACK
        LOCFRAME IOVERLAY, 0, STATIC
        LOCFRAME DOVERLAY, 0, STATIC
        ARGFRAME ISTACK, 0, STACK
        ARGFRAME PSTACK, 0, STACK
        ARGFRAME XSTACK, 20, STACK
        ARGFRAME IOVERLAY, 0, STATIC
        ARGFRAME DOVERLAY, 0, STATIC
        FUNCALL bdbTL_Send_NwkStartReq, osal_memcpy
        LOCFRAME ISTACK, 0, STACK
        LOCFRAME PSTACK, 0, STACK
        LOCFRAME XSTACK, 23, STACK
        LOCFRAME IOVERLAY, 0, STATIC
        LOCFRAME DOVERLAY, 0, STATIC
        ARGFRAME ISTACK, 0, STACK
        ARGFRAME PSTACK, 0, STACK
        ARGFRAME XSTACK, 23, STACK
        ARGFRAME IOVERLAY, 0, STATIC
        ARGFRAME DOVERLAY, 0, STATIC
        FUNCALL bdbTL_Send_NwkStartReq, sAddrExtCpy
        LOCFRAME ISTACK, 0, STACK
        LOCFRAME PSTACK, 0, STACK
        LOCFRAME XSTACK, 20, STACK
        LOCFRAME IOVERLAY, 0, STATIC
        LOCFRAME DOVERLAY, 0, STATIC
        ARGFRAME ISTACK, 0, STACK
        ARGFRAME PSTACK, 0, STACK
        ARGFRAME XSTACK, 20, STACK
        ARGFRAME IOVERLAY, 0, STATIC
        ARGFRAME DOVERLAY, 0, STATIC
        FUNCALL bdbTL_Send_NwkStartReq, bdbTL_SendInterPANCommand
        LOCFRAME ISTACK, 0, STACK
        LOCFRAME PSTACK, 0, STACK
        LOCFRAME XSTACK, 25, STACK
        LOCFRAME IOVERLAY, 0, STATIC
        LOCFRAME DOVERLAY, 0, STATIC
        ARGFRAME ISTACK, 0, STACK
        ARGFRAME PSTACK, 0, STACK
        ARGFRAME XSTACK, 25, STACK
        ARGFRAME IOVERLAY, 0, STATIC
        ARGFRAME DOVERLAY, 0, STATIC
        FUNCALL bdbTL_Send_NwkStartReq, osal_mem_free
        LOCFRAME ISTACK, 0, STACK
        LOCFRAME PSTACK, 0, STACK
        LOCFRAME XSTACK, 20, STACK
        LOCFRAME IOVERLAY, 0, STATIC
        LOCFRAME DOVERLAY, 0, STATIC
        ARGFRAME ISTACK, 0, STACK
        ARGFRAME PSTACK, 0, STACK
        ARGFRAME XSTACK, 20, STACK
        ARGFRAME IOVERLAY, 0, STATIC
        ARGFRAME DOVERLAY, 0, STATIC
        REQUIRE ?V0
        REQUIRE ?V1
        REQUIRE ?V2
        REQUIRE ?V3
        REQUIRE ?V4
        REQUIRE ?V5
        REQUIRE ?V6
        REQUIRE ?V7
        REQUIRE ?V8
        REQUIRE ?V9
        REQUIRE ?V10
        REQUIRE ?V11
        MOV       A,#-0x14
        LCALL     ?BANKED_ENTER_XDATA
          CFI DPH0 load(1, XDATA, add(CFA_XSP16, literal(-1)))
          CFI DPL0 load(1, XDATA, add(CFA_XSP16, literal(-2)))
          CFI ?BRET_EXT load(1, XDATA, add(CFA_XSP16, literal(-3)))
          CFI ?RET_HIGH load(1, XDATA, add(CFA_XSP16, literal(-4)))
          CFI ?RET_LOW load(1, XDATA, add(CFA_XSP16, literal(-5)))
          CFI R7 load(1, XDATA, add(CFA_XSP16, literal(-6)))
          CFI V11 load(1, XDATA, add(CFA_XSP16, literal(-7)))
          CFI V10 load(1, XDATA, add(CFA_XSP16, literal(-8)))
          CFI V9 load(1, XDATA, add(CFA_XSP16, literal(-9)))
          CFI V8 load(1, XDATA, add(CFA_XSP16, literal(-10)))
          CFI V7 load(1, XDATA, add(CFA_XSP16, literal(-11)))
          CFI V6 load(1, XDATA, add(CFA_XSP16, literal(-12)))
          CFI V5 load(1, XDATA, add(CFA_XSP16, literal(-13)))
          CFI V4 load(1, XDATA, add(CFA_XSP16, literal(-14)))
          CFI V3 load(1, XDATA, add(CFA_XSP16, literal(-15)))
          CFI V2 load(1, XDATA, add(CFA_XSP16, literal(-16)))
          CFI V1 load(1, XDATA, add(CFA_XSP16, literal(-17)))
          CFI V0 load(1, XDATA, add(CFA_XSP16, literal(-18)))
          CFI VB load(1, XDATA, add(CFA_XSP16, literal(-19)))
          CFI R6 load(1, XDATA, add(CFA_XSP16, literal(-20)))
          CFI CFA_SP SP+0
          CFI CFA_XSP16 add(XSP16, 20)
        ; Saved register size: 20
        ; Auto size: 0
        MOV       ?V10,R1
        MOV       ?V8,R2
        MOV       ?V9,R3
        MOV       ?V0,R4
        MOV       ?V1,R5
        MOV       A,#0x14
        LCALL     ?XSTACK_DISP0_8
        MOVX      A,@DPTR
        MOV       ?V11,A
//  321   uint8 *buf;
//  322   uint8 *pBuf;
//  323   ZStatus_t status;
//  324 
//  325   buf = zcl_mem_alloc( TOUCHLINK_CMDLEN_NWK_START_REQ );
        ; Setup parameters for call to function osal_mem_alloc
        MOV       R2,#0x38
        MOV       R3,#0x0
        LCALL     `??osal_mem_alloc::?relay`; Banked call to: osal_mem_alloc
        MOV       ?V4,R2
        MOV       ?V5,R3
        MOV       ?V2,?V4
        MOV       ?V3,?V5
//  326   if ( buf != NULL )
        MOV       A,?V2
        ORL       A,?V3
        JNZ       $+5
        LJMP      ??bdbTL_Send_NwkStartReq_0 & 0xFFFF
//  327   {
//  328     pBuf = buf;
        MOV       R6,?V2
        MOV       R7,?V3
//  329 
//  330     pBuf = zcl_buffer_uint32( pBuf, pRsp->transID );
        ; Setup parameters for call to function osal_buffer_uint32
        MOV       DPL,?V0
        MOV       DPH,?V1
        LCALL     ?PUSH_XSTACK8_X_FOUR
          CFI CFA_XSP16 add(XSP16, 24)
        MOV       A,R6
        MOV       R2,A
        MOV       A,R7
        MOV       R3,A
        LCALL     `??osal_buffer_uint32::?relay`; Banked call to: osal_buffer_uint32
        MOV       A,#0x4
        LCALL     ?DEALLOC_XSTACK8
          CFI CFA_XSP16 add(XSP16, 20)
        MOV       ?V4,R2
        MOV       ?V5,R3
        MOV       R6,?V4
        MOV       R7,?V5
//  331     pBuf = zcl_cpyExtAddr( pBuf, pRsp->nwkParams.extendedPANID );
        ; Setup parameters for call to function sAddrExtCpy
        MOV       A,?V0
        ADD       A,#0x4
        MOV       R4,A
        CLR       A
        ADDC      A,?V1
        MOV       R5,A
        MOV       A,R6
        MOV       R2,A
        MOV       A,R7
        MOV       R3,A
        LCALL     `??sAddrExtCpy::?relay`; Banked call to: sAddrExtCpy
        MOV       ?V4,R2
        MOV       ?V5,R3
        MOV       R6,?V4
        MOV       R7,?V5
//  332 
//  333     *pBuf++ = pRsp->nwkParams.keyIndex;
        MOV       A,?V0
        ADD       A,#0xc
        MOV       DPL,A
        CLR       A
        ADDC      A,?V1
        MOV       DPH,A
        MOVX      A,@DPTR
        PUSH      A
          CFI CFA_SP SP+-1
        MOV       DPL,R6
        MOV       DPH,R7
        POP       A
          CFI CFA_SP SP+0
        MOVX      @DPTR,A
        MOV       DPL,R6
        MOV       DPH,R7
        INC       DPTR
        MOV       R6,DPL
        MOV       R7,DPH
//  334 
//  335     pBuf = zcl_memcpy( pBuf, pRsp->nwkParams.nwkKey, SEC_KEY_LEN );
        ; Setup parameters for call to function osal_memcpy
        MOV       A,?V0
        ADD       A,#0xd
        MOV       ?V4,A
        CLR       A
        ADDC      A,?V1
        MOV       ?V5,A
        MOV       ?V6,#0x0
        MOV       R0,#?V4
        LCALL     ?PUSH_XSTACK_I_THREE
          CFI CFA_XSP16 add(XSP16, 23)
        MOV       R4,#0x10
        MOV       R5,#0x0
        MOV       A,R6
        MOV       R2,A
        MOV       A,R7
        MOV       R3,A
        LCALL     `??osal_memcpy::?relay`; Banked call to: osal_memcpy
        MOV       A,#0x3
        LCALL     ?DEALLOC_XSTACK8
          CFI CFA_XSP16 add(XSP16, 20)
        MOV       ?V4,R2
        MOV       ?V5,R3
        MOV       R6,?V4
        MOV       R7,?V5
//  336 
//  337     *pBuf++ = pRsp->nwkParams.logicalChannel;
        MOV       A,?V0
        ADD       A,#0x1d
        MOV       DPL,A
        CLR       A
        ADDC      A,?V1
        MOV       DPH,A
        MOVX      A,@DPTR
        PUSH      A
          CFI CFA_SP SP+-1
        MOV       DPL,R6
        MOV       DPH,R7
        POP       A
          CFI CFA_SP SP+0
        MOVX      @DPTR,A
        MOV       DPL,R6
        MOV       DPH,R7
        INC       DPTR
        MOV       R6,DPL
        MOV       R7,DPH
//  338 
//  339     *pBuf++ = LO_UINT16( pRsp->nwkParams.panId );
        MOV       A,?V0
        ADD       A,#0x1e
        MOV       DPL,A
        CLR       A
        ADDC      A,?V1
        MOV       DPH,A
        MOVX      A,@DPTR
        MOV       R0,A
        INC       DPTR
        MOVX      A,@DPTR
        MOV       R1,A
        MOV       A,R0
        PUSH      A
          CFI CFA_SP SP+-1
        MOV       DPL,R6
        MOV       DPH,R7
        POP       A
          CFI CFA_SP SP+0
        MOVX      @DPTR,A
        MOV       DPL,R6
        MOV       DPH,R7
        INC       DPTR
        MOV       R6,DPL
        MOV       R7,DPH
//  340     *pBuf++ = HI_UINT16( pRsp->nwkParams.panId );
        MOV       A,?V0
        ADD       A,#0x1e
        MOV       DPL,A
        CLR       A
        ADDC      A,?V1
        MOV       DPH,A
        MOVX      A,@DPTR
        MOV       R0,A
        INC       DPTR
        MOVX      A,@DPTR
        MOV       R1,A
        CLR       A
        XCH       A,R1
        MOV       R0,A
        MOV       A,R0
        PUSH      A
          CFI CFA_SP SP+-1
        MOV       DPL,R6
        MOV       DPH,R7
        POP       A
          CFI CFA_SP SP+0
        MOVX      @DPTR,A
        MOV       DPL,R6
        MOV       DPH,R7
        INC       DPTR
        MOV       R6,DPL
        MOV       R7,DPH
//  341 
//  342     *pBuf++ = LO_UINT16( pRsp->nwkParams.nwkAddr );
        MOV       A,?V0
        ADD       A,#0x20
        MOV       DPL,A
        CLR       A
        ADDC      A,?V1
        MOV       DPH,A
        MOVX      A,@DPTR
        MOV       R0,A
        INC       DPTR
        MOVX      A,@DPTR
        MOV       R1,A
        MOV       A,R0
        PUSH      A
          CFI CFA_SP SP+-1
        MOV       DPL,R6
        MOV       DPH,R7
        POP       A
          CFI CFA_SP SP+0
        MOVX      @DPTR,A
        MOV       DPL,R6
        MOV       DPH,R7
        INC       DPTR
        MOV       R6,DPL
        MOV       R7,DPH
//  343     *pBuf++ = HI_UINT16( pRsp->nwkParams.nwkAddr );
        MOV       A,?V0
        ADD       A,#0x20
        MOV       DPL,A
        CLR       A
        ADDC      A,?V1
        MOV       DPH,A
        MOVX      A,@DPTR
        MOV       R0,A
        INC       DPTR
        MOVX      A,@DPTR
        MOV       R1,A
        CLR       A
        XCH       A,R1
        MOV       R0,A
        MOV       A,R0
        PUSH      A
          CFI CFA_SP SP+-1
        MOV       DPL,R6
        MOV       DPH,R7
        POP       A
          CFI CFA_SP SP+0
        MOVX      @DPTR,A
        MOV       DPL,R6
        MOV       DPH,R7
        INC       DPTR
        MOV       R6,DPL
        MOV       R7,DPH
//  344 
//  345     *pBuf++ = LO_UINT16( pRsp->nwkParams.grpIDsBegin );
        MOV       A,?V0
        ADD       A,#0x22
        MOV       DPL,A
        CLR       A
        ADDC      A,?V1
        MOV       DPH,A
        MOVX      A,@DPTR
        MOV       R0,A
        INC       DPTR
        MOVX      A,@DPTR
        MOV       R1,A
        MOV       A,R0
        PUSH      A
          CFI CFA_SP SP+-1
        MOV       DPL,R6
        MOV       DPH,R7
        POP       A
          CFI CFA_SP SP+0
        MOVX      @DPTR,A
        MOV       DPL,R6
        MOV       DPH,R7
        INC       DPTR
        MOV       R6,DPL
        MOV       R7,DPH
//  346     *pBuf++ = HI_UINT16( pRsp->nwkParams.grpIDsBegin );
        MOV       A,?V0
        ADD       A,#0x22
        MOV       DPL,A
        CLR       A
        ADDC      A,?V1
        MOV       DPH,A
        MOVX      A,@DPTR
        MOV       R0,A
        INC       DPTR
        MOVX      A,@DPTR
        MOV       R1,A
        CLR       A
        XCH       A,R1
        MOV       R0,A
        MOV       A,R0
        PUSH      A
          CFI CFA_SP SP+-1
        MOV       DPL,R6
        MOV       DPH,R7
        POP       A
          CFI CFA_SP SP+0
        MOVX      @DPTR,A
        MOV       DPL,R6
        MOV       DPH,R7
        INC       DPTR
        MOV       R6,DPL
        MOV       R7,DPH
//  347 
//  348     *pBuf++ = LO_UINT16( pRsp->nwkParams.grpIDsEnd );
        MOV       A,?V0
        ADD       A,#0x24
        MOV       DPL,A
        CLR       A
        ADDC      A,?V1
        MOV       DPH,A
        MOVX      A,@DPTR
        MOV       R0,A
        INC       DPTR
        MOVX      A,@DPTR
        MOV       R1,A
        MOV       A,R0
        PUSH      A
          CFI CFA_SP SP+-1
        MOV       DPL,R6
        MOV       DPH,R7
        POP       A
          CFI CFA_SP SP+0
        MOVX      @DPTR,A
        MOV       DPL,R6
        MOV       DPH,R7
        INC       DPTR
        MOV       R6,DPL
        MOV       R7,DPH
//  349     *pBuf++ = HI_UINT16( pRsp->nwkParams.grpIDsEnd );
        MOV       A,?V0
        ADD       A,#0x24
        MOV       DPL,A
        CLR       A
        ADDC      A,?V1
        MOV       DPH,A
        MOVX      A,@DPTR
        MOV       R0,A
        INC       DPTR
        MOVX      A,@DPTR
        MOV       R1,A
        CLR       A
        XCH       A,R1
        MOV       R0,A
        MOV       A,R0
        PUSH      A
          CFI CFA_SP SP+-1
        MOV       DPL,R6
        MOV       DPH,R7
        POP       A
          CFI CFA_SP SP+0
        MOVX      @DPTR,A
        MOV       DPL,R6
        MOV       DPH,R7
        INC       DPTR
        MOV       R6,DPL
        MOV       R7,DPH
//  350 
//  351     *pBuf++ = LO_UINT16( pRsp->nwkParams.freeNwkAddrBegin );
        MOV       A,?V0
        ADD       A,#0x26
        MOV       DPL,A
        CLR       A
        ADDC      A,?V1
        MOV       DPH,A
        MOVX      A,@DPTR
        MOV       R0,A
        INC       DPTR
        MOVX      A,@DPTR
        MOV       R1,A
        MOV       A,R0
        PUSH      A
          CFI CFA_SP SP+-1
        MOV       DPL,R6
        MOV       DPH,R7
        POP       A
          CFI CFA_SP SP+0
        MOVX      @DPTR,A
        MOV       DPL,R6
        MOV       DPH,R7
        INC       DPTR
        MOV       R6,DPL
        MOV       R7,DPH
//  352     *pBuf++ = HI_UINT16( pRsp->nwkParams.freeNwkAddrBegin );
        MOV       A,?V0
        ADD       A,#0x26
        MOV       DPL,A
        CLR       A
        ADDC      A,?V1
        MOV       DPH,A
        MOVX      A,@DPTR
        MOV       R0,A
        INC       DPTR
        MOVX      A,@DPTR
        MOV       R1,A
        CLR       A
        XCH       A,R1
        MOV       R0,A
        MOV       A,R0
        PUSH      A
          CFI CFA_SP SP+-1
        MOV       DPL,R6
        MOV       DPH,R7
        POP       A
          CFI CFA_SP SP+0
        MOVX      @DPTR,A
        MOV       DPL,R6
        MOV       DPH,R7
        INC       DPTR
        MOV       R6,DPL
        MOV       R7,DPH
//  353 
//  354     *pBuf++ = LO_UINT16( pRsp->nwkParams.freeNwkAddrEnd );
        MOV       A,?V0
        ADD       A,#0x28
        MOV       DPL,A
        CLR       A
        ADDC      A,?V1
        MOV       DPH,A
        MOVX      A,@DPTR
        MOV       R0,A
        INC       DPTR
        MOVX      A,@DPTR
        MOV       R1,A
        MOV       A,R0
        PUSH      A
          CFI CFA_SP SP+-1
        MOV       DPL,R6
        MOV       DPH,R7
        POP       A
          CFI CFA_SP SP+0
        MOVX      @DPTR,A
        MOV       DPL,R6
        MOV       DPH,R7
        INC       DPTR
        MOV       R6,DPL
        MOV       R7,DPH
//  355     *pBuf++ = HI_UINT16( pRsp->nwkParams.freeNwkAddrEnd );
        MOV       A,?V0
        ADD       A,#0x28
        MOV       DPL,A
        CLR       A
        ADDC      A,?V1
        MOV       DPH,A
        MOVX      A,@DPTR
        MOV       R0,A
        INC       DPTR
        MOVX      A,@DPTR
        MOV       R1,A
        CLR       A
        XCH       A,R1
        MOV       R0,A
        MOV       A,R0
        PUSH      A
          CFI CFA_SP SP+-1
        MOV       DPL,R6
        MOV       DPH,R7
        POP       A
          CFI CFA_SP SP+0
        MOVX      @DPTR,A
        MOV       DPL,R6
        MOV       DPH,R7
        INC       DPTR
        MOV       R6,DPL
        MOV       R7,DPH
//  356 
//  357     *pBuf++ = LO_UINT16( pRsp->nwkParams.freeGrpIDBegin );
        MOV       A,?V0
        ADD       A,#0x2a
        MOV       DPL,A
        CLR       A
        ADDC      A,?V1
        MOV       DPH,A
        MOVX      A,@DPTR
        MOV       R0,A
        INC       DPTR
        MOVX      A,@DPTR
        MOV       R1,A
        MOV       A,R0
        PUSH      A
          CFI CFA_SP SP+-1
        MOV       DPL,R6
        MOV       DPH,R7
        POP       A
          CFI CFA_SP SP+0
        MOVX      @DPTR,A
        MOV       DPL,R6
        MOV       DPH,R7
        INC       DPTR
        MOV       R6,DPL
        MOV       R7,DPH
//  358     *pBuf++ = HI_UINT16( pRsp->nwkParams.freeGrpIDBegin );
        MOV       A,?V0
        ADD       A,#0x2a
        MOV       DPL,A
        CLR       A
        ADDC      A,?V1
        MOV       DPH,A
        MOVX      A,@DPTR
        MOV       R0,A
        INC       DPTR
        MOVX      A,@DPTR
        MOV       R1,A
        CLR       A
        XCH       A,R1
        MOV       R0,A
        MOV       A,R0
        PUSH      A
          CFI CFA_SP SP+-1
        MOV       DPL,R6
        MOV       DPH,R7
        POP       A
          CFI CFA_SP SP+0
        MOVX      @DPTR,A
        MOV       DPL,R6
        MOV       DPH,R7
        INC       DPTR
        MOV       R6,DPL
        MOV       R7,DPH
//  359 
//  360     *pBuf++ = LO_UINT16( pRsp->nwkParams.freeGrpIDEnd );
        MOV       A,?V0
        ADD       A,#0x2c
        MOV       DPL,A
        CLR       A
        ADDC      A,?V1
        MOV       DPH,A
        MOVX      A,@DPTR
        MOV       R0,A
        INC       DPTR
        MOVX      A,@DPTR
        MOV       R1,A
        MOV       A,R0
        PUSH      A
          CFI CFA_SP SP+-1
        MOV       DPL,R6
        MOV       DPH,R7
        POP       A
          CFI CFA_SP SP+0
        MOVX      @DPTR,A
        MOV       DPL,R6
        MOV       DPH,R7
        INC       DPTR
        MOV       R6,DPL
        MOV       R7,DPH
//  361     *pBuf++ = HI_UINT16( pRsp->nwkParams.freeGrpIDEnd );
        MOV       A,?V0
        ADD       A,#0x2c
        MOV       DPL,A
        CLR       A
        ADDC      A,?V1
        MOV       DPH,A
        MOVX      A,@DPTR
        MOV       R0,A
        INC       DPTR
        MOVX      A,@DPTR
        MOV       R1,A
        CLR       A
        XCH       A,R1
        MOV       R0,A
        MOV       A,R0
        PUSH      A
          CFI CFA_SP SP+-1
        MOV       DPL,R6
        MOV       DPH,R7
        POP       A
          CFI CFA_SP SP+0
        MOVX      @DPTR,A
        MOV       DPL,R6
        MOV       DPH,R7
        INC       DPTR
        MOV       R6,DPL
        MOV       R7,DPH
//  362 
//  363     pBuf = zcl_cpyExtAddr( pBuf, pRsp->initiatorIeeeAddr );
        ; Setup parameters for call to function sAddrExtCpy
        MOV       A,?V0
        ADD       A,#0x2e
        MOV       R4,A
        CLR       A
        ADDC      A,?V1
        MOV       R5,A
        MOV       A,R6
        MOV       R2,A
        MOV       A,R7
        MOV       R3,A
        LCALL     `??sAddrExtCpy::?relay`; Banked call to: sAddrExtCpy
        MOV       ?V4,R2
        MOV       ?V5,R3
        MOV       R6,?V4
        MOV       R7,?V5
//  364 
//  365     *pBuf++ = LO_UINT16( pRsp->initiatorNwkAddr );
        MOV       A,?V0
        ADD       A,#0x36
        MOV       DPL,A
        CLR       A
        ADDC      A,?V1
        MOV       DPH,A
        MOVX      A,@DPTR
        MOV       R0,A
        INC       DPTR
        MOVX      A,@DPTR
        MOV       R1,A
        MOV       A,R0
        PUSH      A
          CFI CFA_SP SP+-1
        MOV       DPL,R6
        MOV       DPH,R7
        POP       A
          CFI CFA_SP SP+0
        MOVX      @DPTR,A
        MOV       DPL,R6
        MOV       DPH,R7
        INC       DPTR
        MOV       R6,DPL
        MOV       R7,DPH
//  366     *pBuf++ = HI_UINT16( pRsp->initiatorNwkAddr );
        MOV       A,?V0
        ADD       A,#0x36
        MOV       DPL,A
        CLR       A
        ADDC      A,?V1
        MOV       DPH,A
        MOVX      A,@DPTR
        MOV       R0,A
        INC       DPTR
        MOVX      A,@DPTR
        MOV       R1,A
        CLR       A
        XCH       A,R1
        MOV       R0,A
        MOV       A,R0
        PUSH      A
          CFI CFA_SP SP+-1
        MOV       DPL,R6
        MOV       DPH,R7
        POP       A
          CFI CFA_SP SP+0
        MOVX      @DPTR,A
        MOV       DPL,R6
        MOV       DPH,R7
        INC       DPTR
        MOV       R6,DPL
        MOV       R7,DPH
//  367 
//  368     status = bdbTL_SendInterPANCommand( srcEP, dstAddr, COMMAND_TOUCHLINK_NWK_START_REQ,
//  369                                         ZCL_FRAME_CLIENT_SERVER_DIR, seqNum, TOUCHLINK_CMDLEN_NWK_START_REQ, buf );
        ; Setup parameters for call to function bdbTL_SendInterPANCommand
        MOV       R0,#?V2
        LCALL     ?PUSH_XSTACK_I_TWO
          CFI CFA_XSP16 add(XSP16, 22)
        MOV       ?V4,#0x38
        MOV       ?V5,#0x0
        MOV       R0,#?V4
        LCALL     ?PUSH_XSTACK_I_TWO
          CFI CFA_XSP16 add(XSP16, 24)
        MOV       A,?V11
        MOV       ?V4,A
        MOV       R0,#?V4
        LCALL     ?PUSH_XSTACK_I_ONE
          CFI CFA_XSP16 add(XSP16, 25)
        MOV       R5,#0x0
        MOV       R4,#0x10
        MOV       R2,?V8
        MOV       R3,?V9
        MOV       R1,?V10
        LCALL     `??bdbTL_SendInterPANCommand::?relay`; Banked call to: bdbTL_SendInterPANCommand
        MOV       A,#0x5
        LCALL     ?DEALLOC_XSTACK8
          CFI CFA_XSP16 add(XSP16, 20)
        MOV       A,R1
        MOV       ?V7,A
//  370     zcl_mem_free( buf );
        ; Setup parameters for call to function osal_mem_free
        MOV       R2,?V2
        MOV       R3,?V3
        LCALL     `??osal_mem_free::?relay`; Banked call to: osal_mem_free
        SJMP      ??bdbTL_Send_NwkStartReq_1
//  371   }
//  372   else
//  373   {
//  374     status = ZMemError;
??bdbTL_Send_NwkStartReq_0:
        MOV       ?V7,#0x10
//  375   }
//  376 
//  377   return ( status );
??bdbTL_Send_NwkStartReq_1:
        MOV       R1,?V7
        MOV       R7,#0xc
        LJMP      ?BANKED_LEAVE_XDATA
//  378 }
          CFI EndBlock cfiBlock6
//  379 
//  380 /*********************************************************************
//  381  * @fn      bdbTL_Send_NwkJoinReq
//  382  *
//  383  * @brief   Call to send out a Network Join Router/End Device Request command
//  384  *
//  385  * @param   srcEP - sending application's endpoint
//  386  * @param   dstAddr - where you want the message to go
//  387  * @param   pRsp - response parameters
//  388  * @param   cmd - COMMAND_TOUCHLINK_NWK_JOIN_RTR_REQ or COMMAND_TOUCHLINK_NWK_JOIN_ED_REQ
//  389  * @param   seqNum - sequence number
//  390  *
//  391  * @return  ZStatus_t
//  392  */

        RSEG BANKED_CODE:HUGECODE:NOROOT(0)
//  393 ZStatus_t bdbTL_Send_NwkJoinReq( uint8 srcEP, afAddrType_t *dstAddr,
bdbTL_Send_NwkJoinReq:
          CFI Block cfiBlock7 Using cfiCommon0
          CFI Function bdbTL_Send_NwkJoinReq
        CODE
//  394                                  bdbTLNwkJoinReq_t *pRsp, uint8 cmd, uint8 seqNum )
//  395 {
        FUNCALL bdbTL_Send_NwkJoinReq, osal_mem_alloc
        LOCFRAME ISTACK, 0, STACK
        LOCFRAME PSTACK, 0, STACK
        LOCFRAME XSTACK, 22, STACK
        LOCFRAME IOVERLAY, 0, STATIC
        LOCFRAME DOVERLAY, 0, STATIC
        ARGFRAME ISTACK, 0, STACK
        ARGFRAME PSTACK, 0, STACK
        ARGFRAME XSTACK, 22, STACK
        ARGFRAME IOVERLAY, 0, STATIC
        ARGFRAME DOVERLAY, 0, STATIC
        FUNCALL bdbTL_Send_NwkJoinReq, osal_buffer_uint32
        LOCFRAME ISTACK, 0, STACK
        LOCFRAME PSTACK, 0, STACK
        LOCFRAME XSTACK, 26, STACK
        LOCFRAME IOVERLAY, 0, STATIC
        LOCFRAME DOVERLAY, 0, STATIC
        ARGFRAME ISTACK, 0, STACK
        ARGFRAME PSTACK, 0, STACK
        ARGFRAME XSTACK, 26, STACK
        ARGFRAME IOVERLAY, 0, STATIC
        ARGFRAME DOVERLAY, 0, STATIC
        FUNCALL bdbTL_Send_NwkJoinReq, sAddrExtCpy
        LOCFRAME ISTACK, 0, STACK
        LOCFRAME PSTACK, 0, STACK
        LOCFRAME XSTACK, 22, STACK
        LOCFRAME IOVERLAY, 0, STATIC
        LOCFRAME DOVERLAY, 0, STATIC
        ARGFRAME ISTACK, 0, STACK
        ARGFRAME PSTACK, 0, STACK
        ARGFRAME XSTACK, 22, STACK
        ARGFRAME IOVERLAY, 0, STATIC
        ARGFRAME DOVERLAY, 0, STATIC
        FUNCALL bdbTL_Send_NwkJoinReq, osal_memcpy
        LOCFRAME ISTACK, 0, STACK
        LOCFRAME PSTACK, 0, STACK
        LOCFRAME XSTACK, 25, STACK
        LOCFRAME IOVERLAY, 0, STATIC
        LOCFRAME DOVERLAY, 0, STATIC
        ARGFRAME ISTACK, 0, STACK
        ARGFRAME PSTACK, 0, STACK
        ARGFRAME XSTACK, 25, STACK
        ARGFRAME IOVERLAY, 0, STATIC
        ARGFRAME DOVERLAY, 0, STATIC
        FUNCALL bdbTL_Send_NwkJoinReq, bdbTL_SendInterPANCommand
        LOCFRAME ISTACK, 0, STACK
        LOCFRAME PSTACK, 0, STACK
        LOCFRAME XSTACK, 27, STACK
        LOCFRAME IOVERLAY, 0, STATIC
        LOCFRAME DOVERLAY, 0, STATIC
        ARGFRAME ISTACK, 0, STACK
        ARGFRAME PSTACK, 0, STACK
        ARGFRAME XSTACK, 27, STACK
        ARGFRAME IOVERLAY, 0, STATIC
        ARGFRAME DOVERLAY, 0, STATIC
        FUNCALL bdbTL_Send_NwkJoinReq, osal_mem_free
        LOCFRAME ISTACK, 0, STACK
        LOCFRAME PSTACK, 0, STACK
        LOCFRAME XSTACK, 22, STACK
        LOCFRAME IOVERLAY, 0, STATIC
        LOCFRAME DOVERLAY, 0, STATIC
        ARGFRAME ISTACK, 0, STACK
        ARGFRAME PSTACK, 0, STACK
        ARGFRAME XSTACK, 22, STACK
        ARGFRAME IOVERLAY, 0, STATIC
        ARGFRAME DOVERLAY, 0, STATIC
        REQUIRE ?V0
        REQUIRE ?V1
        REQUIRE ?V2
        REQUIRE ?V3
        REQUIRE ?V4
        REQUIRE ?V5
        REQUIRE ?V6
        REQUIRE ?V7
        REQUIRE ?V8
        REQUIRE ?V9
        REQUIRE ?V10
        REQUIRE ?V12
        REQUIRE ?V13
        MOV       A,#-0x16
        LCALL     ?BANKED_ENTER_XDATA
          CFI DPH0 load(1, XDATA, add(CFA_XSP16, literal(-1)))
          CFI DPL0 load(1, XDATA, add(CFA_XSP16, literal(-2)))
          CFI ?BRET_EXT load(1, XDATA, add(CFA_XSP16, literal(-3)))
          CFI ?RET_HIGH load(1, XDATA, add(CFA_XSP16, literal(-4)))
          CFI ?RET_LOW load(1, XDATA, add(CFA_XSP16, literal(-5)))
          CFI R7 load(1, XDATA, add(CFA_XSP16, literal(-6)))
          CFI V13 load(1, XDATA, add(CFA_XSP16, literal(-7)))
          CFI V12 load(1, XDATA, add(CFA_XSP16, literal(-8)))
          CFI V11 load(1, XDATA, add(CFA_XSP16, literal(-9)))
          CFI V10 load(1, XDATA, add(CFA_XSP16, literal(-10)))
          CFI V9 load(1, XDATA, add(CFA_XSP16, literal(-11)))
          CFI V8 load(1, XDATA, add(CFA_XSP16, literal(-12)))
          CFI V7 load(1, XDATA, add(CFA_XSP16, literal(-13)))
          CFI V6 load(1, XDATA, add(CFA_XSP16, literal(-14)))
          CFI V5 load(1, XDATA, add(CFA_XSP16, literal(-15)))
          CFI V4 load(1, XDATA, add(CFA_XSP16, literal(-16)))
          CFI V3 load(1, XDATA, add(CFA_XSP16, literal(-17)))
          CFI V2 load(1, XDATA, add(CFA_XSP16, literal(-18)))
          CFI V1 load(1, XDATA, add(CFA_XSP16, literal(-19)))
          CFI V0 load(1, XDATA, add(CFA_XSP16, literal(-20)))
          CFI VB load(1, XDATA, add(CFA_XSP16, literal(-21)))
          CFI R6 load(1, XDATA, add(CFA_XSP16, literal(-22)))
          CFI CFA_SP SP+0
          CFI CFA_XSP16 add(XSP16, 22)
        ; Saved register size: 22
        ; Auto size: 0
        MOV       ?V9,R1
        MOV       ?V12,R2
        MOV       ?V13,R3
        MOV       ?V0,R4
        MOV       ?V1,R5
        MOV       A,#0x16
        LCALL     ?XSTACK_DISP0_8
        MOVX      A,@DPTR
        MOV       ?V8,A
        MOV       A,#0x17
        LCALL     ?XSTACK_DISP0_8
        MOVX      A,@DPTR
        MOV       ?V10,A
//  396   uint8 *buf;
//  397   uint8 *pBuf;
//  398   ZStatus_t status;
//  399 
//  400   buf = zcl_mem_alloc( TOUCHLINK_CMDLEN_NWK_JOIN_REQ );
        ; Setup parameters for call to function osal_mem_alloc
        MOV       R2,#0x2f
        MOV       R3,#0x0
        LCALL     `??osal_mem_alloc::?relay`; Banked call to: osal_mem_alloc
        MOV       ?V4,R2
        MOV       ?V5,R3
        MOV       ?V2,?V4
        MOV       ?V3,?V5
//  401   if ( buf != NULL )
        MOV       A,?V2
        ORL       A,?V3
        JNZ       $+5
        LJMP      ??bdbTL_Send_NwkJoinReq_0 & 0xFFFF
//  402   {
//  403     pBuf = buf;
        MOV       R6,?V2
        MOV       R7,?V3
//  404 
//  405     pBuf = zcl_buffer_uint32( pBuf, pRsp->transID );
        ; Setup parameters for call to function osal_buffer_uint32
        MOV       DPL,?V0
        MOV       DPH,?V1
        LCALL     ?PUSH_XSTACK8_X_FOUR
          CFI CFA_XSP16 add(XSP16, 26)
        MOV       A,R6
        MOV       R2,A
        MOV       A,R7
        MOV       R3,A
        LCALL     `??osal_buffer_uint32::?relay`; Banked call to: osal_buffer_uint32
        MOV       A,#0x4
        LCALL     ?DEALLOC_XSTACK8
          CFI CFA_XSP16 add(XSP16, 22)
        MOV       ?V4,R2
        MOV       ?V5,R3
        MOV       R6,?V4
        MOV       R7,?V5
//  406     pBuf = zcl_cpyExtAddr( pBuf, pRsp->nwkParams.extendedPANID );
        ; Setup parameters for call to function sAddrExtCpy
        MOV       A,?V0
        ADD       A,#0x4
        MOV       R4,A
        CLR       A
        ADDC      A,?V1
        MOV       R5,A
        MOV       A,R6
        MOV       R2,A
        MOV       A,R7
        MOV       R3,A
        LCALL     `??sAddrExtCpy::?relay`; Banked call to: sAddrExtCpy
        MOV       ?V4,R2
        MOV       ?V5,R3
        MOV       R6,?V4
        MOV       R7,?V5
//  407 
//  408     *pBuf++ = pRsp->nwkParams.keyIndex;
        MOV       A,?V0
        ADD       A,#0xc
        MOV       DPL,A
        CLR       A
        ADDC      A,?V1
        MOV       DPH,A
        MOVX      A,@DPTR
        PUSH      A
          CFI CFA_SP SP+-1
        MOV       DPL,R6
        MOV       DPH,R7
        POP       A
          CFI CFA_SP SP+0
        MOVX      @DPTR,A
        MOV       DPL,R6
        MOV       DPH,R7
        INC       DPTR
        MOV       R6,DPL
        MOV       R7,DPH
//  409 
//  410     pBuf = zcl_memcpy( pBuf, pRsp->nwkParams.nwkKey, SEC_KEY_LEN );
        ; Setup parameters for call to function osal_memcpy
        MOV       A,?V0
        ADD       A,#0xd
        MOV       ?V4,A
        CLR       A
        ADDC      A,?V1
        MOV       ?V5,A
        MOV       ?V6,#0x0
        MOV       R0,#?V4
        LCALL     ?PUSH_XSTACK_I_THREE
          CFI CFA_XSP16 add(XSP16, 25)
        MOV       R4,#0x10
        MOV       R5,#0x0
        MOV       A,R6
        MOV       R2,A
        MOV       A,R7
        MOV       R3,A
        LCALL     `??osal_memcpy::?relay`; Banked call to: osal_memcpy
        MOV       A,#0x3
        LCALL     ?DEALLOC_XSTACK8
          CFI CFA_XSP16 add(XSP16, 22)
        MOV       ?V4,R2
        MOV       ?V5,R3
        MOV       R6,?V4
        MOV       R7,?V5
//  411 
//  412     *pBuf++ = pRsp->nwkUpdateId;
        MOV       A,?V0
        ADD       A,#0x2e
        MOV       DPL,A
        CLR       A
        ADDC      A,?V1
        MOV       DPH,A
        MOVX      A,@DPTR
        PUSH      A
          CFI CFA_SP SP+-1
        MOV       DPL,R6
        MOV       DPH,R7
        POP       A
          CFI CFA_SP SP+0
        MOVX      @DPTR,A
        MOV       DPL,R6
        MOV       DPH,R7
        INC       DPTR
        MOV       R6,DPL
        MOV       R7,DPH
//  413     *pBuf++ = pRsp->nwkParams.logicalChannel;
        MOV       A,?V0
        ADD       A,#0x1d
        MOV       DPL,A
        CLR       A
        ADDC      A,?V1
        MOV       DPH,A
        MOVX      A,@DPTR
        PUSH      A
          CFI CFA_SP SP+-1
        MOV       DPL,R6
        MOV       DPH,R7
        POP       A
          CFI CFA_SP SP+0
        MOVX      @DPTR,A
        MOV       DPL,R6
        MOV       DPH,R7
        INC       DPTR
        MOV       R6,DPL
        MOV       R7,DPH
//  414 
//  415     *pBuf++ = LO_UINT16( pRsp->nwkParams.panId );
        MOV       A,?V0
        ADD       A,#0x1e
        MOV       DPL,A
        CLR       A
        ADDC      A,?V1
        MOV       DPH,A
        MOVX      A,@DPTR
        MOV       R0,A
        INC       DPTR
        MOVX      A,@DPTR
        MOV       R1,A
        MOV       A,R0
        PUSH      A
          CFI CFA_SP SP+-1
        MOV       DPL,R6
        MOV       DPH,R7
        POP       A
          CFI CFA_SP SP+0
        MOVX      @DPTR,A
        MOV       DPL,R6
        MOV       DPH,R7
        INC       DPTR
        MOV       R6,DPL
        MOV       R7,DPH
//  416     *pBuf++ = HI_UINT16( pRsp->nwkParams.panId );
        MOV       A,?V0
        ADD       A,#0x1e
        MOV       DPL,A
        CLR       A
        ADDC      A,?V1
        MOV       DPH,A
        MOVX      A,@DPTR
        MOV       R0,A
        INC       DPTR
        MOVX      A,@DPTR
        MOV       R1,A
        CLR       A
        XCH       A,R1
        MOV       R0,A
        MOV       A,R0
        PUSH      A
          CFI CFA_SP SP+-1
        MOV       DPL,R6
        MOV       DPH,R7
        POP       A
          CFI CFA_SP SP+0
        MOVX      @DPTR,A
        MOV       DPL,R6
        MOV       DPH,R7
        INC       DPTR
        MOV       R6,DPL
        MOV       R7,DPH
//  417 
//  418     *pBuf++ = LO_UINT16( pRsp->nwkParams.nwkAddr );
        MOV       A,?V0
        ADD       A,#0x20
        MOV       DPL,A
        CLR       A
        ADDC      A,?V1
        MOV       DPH,A
        MOVX      A,@DPTR
        MOV       R0,A
        INC       DPTR
        MOVX      A,@DPTR
        MOV       R1,A
        MOV       A,R0
        PUSH      A
          CFI CFA_SP SP+-1
        MOV       DPL,R6
        MOV       DPH,R7
        POP       A
          CFI CFA_SP SP+0
        MOVX      @DPTR,A
        MOV       DPL,R6
        MOV       DPH,R7
        INC       DPTR
        MOV       R6,DPL
        MOV       R7,DPH
//  419     *pBuf++ = HI_UINT16( pRsp->nwkParams.nwkAddr );
        MOV       A,?V0
        ADD       A,#0x20
        MOV       DPL,A
        CLR       A
        ADDC      A,?V1
        MOV       DPH,A
        MOVX      A,@DPTR
        MOV       R0,A
        INC       DPTR
        MOVX      A,@DPTR
        MOV       R1,A
        CLR       A
        XCH       A,R1
        MOV       R0,A
        MOV       A,R0
        PUSH      A
          CFI CFA_SP SP+-1
        MOV       DPL,R6
        MOV       DPH,R7
        POP       A
          CFI CFA_SP SP+0
        MOVX      @DPTR,A
        MOV       DPL,R6
        MOV       DPH,R7
        INC       DPTR
        MOV       R6,DPL
        MOV       R7,DPH
//  420 
//  421     *pBuf++ = LO_UINT16( pRsp->nwkParams.grpIDsBegin );
        MOV       A,?V0
        ADD       A,#0x22
        MOV       DPL,A
        CLR       A
        ADDC      A,?V1
        MOV       DPH,A
        MOVX      A,@DPTR
        MOV       R0,A
        INC       DPTR
        MOVX      A,@DPTR
        MOV       R1,A
        MOV       A,R0
        PUSH      A
          CFI CFA_SP SP+-1
        MOV       DPL,R6
        MOV       DPH,R7
        POP       A
          CFI CFA_SP SP+0
        MOVX      @DPTR,A
        MOV       DPL,R6
        MOV       DPH,R7
        INC       DPTR
        MOV       R6,DPL
        MOV       R7,DPH
//  422     *pBuf++ = HI_UINT16( pRsp->nwkParams.grpIDsBegin );
        MOV       A,?V0
        ADD       A,#0x22
        MOV       DPL,A
        CLR       A
        ADDC      A,?V1
        MOV       DPH,A
        MOVX      A,@DPTR
        MOV       R0,A
        INC       DPTR
        MOVX      A,@DPTR
        MOV       R1,A
        CLR       A
        XCH       A,R1
        MOV       R0,A
        MOV       A,R0
        PUSH      A
          CFI CFA_SP SP+-1
        MOV       DPL,R6
        MOV       DPH,R7
        POP       A
          CFI CFA_SP SP+0
        MOVX      @DPTR,A
        MOV       DPL,R6
        MOV       DPH,R7
        INC       DPTR
        MOV       R6,DPL
        MOV       R7,DPH
//  423 
//  424     *pBuf++ = LO_UINT16( pRsp->nwkParams.grpIDsEnd );
        MOV       A,?V0
        ADD       A,#0x24
        MOV       DPL,A
        CLR       A
        ADDC      A,?V1
        MOV       DPH,A
        MOVX      A,@DPTR
        MOV       R0,A
        INC       DPTR
        MOVX      A,@DPTR
        MOV       R1,A
        MOV       A,R0
        PUSH      A
          CFI CFA_SP SP+-1
        MOV       DPL,R6
        MOV       DPH,R7
        POP       A
          CFI CFA_SP SP+0
        MOVX      @DPTR,A
        MOV       DPL,R6
        MOV       DPH,R7
        INC       DPTR
        MOV       R6,DPL
        MOV       R7,DPH
//  425     *pBuf++ = HI_UINT16( pRsp->nwkParams.grpIDsEnd );
        MOV       A,?V0
        ADD       A,#0x24
        MOV       DPL,A
        CLR       A
        ADDC      A,?V1
        MOV       DPH,A
        MOVX      A,@DPTR
        MOV       R0,A
        INC       DPTR
        MOVX      A,@DPTR
        MOV       R1,A
        CLR       A
        XCH       A,R1
        MOV       R0,A
        MOV       A,R0
        PUSH      A
          CFI CFA_SP SP+-1
        MOV       DPL,R6
        MOV       DPH,R7
        POP       A
          CFI CFA_SP SP+0
        MOVX      @DPTR,A
        MOV       DPL,R6
        MOV       DPH,R7
        INC       DPTR
        MOV       R6,DPL
        MOV       R7,DPH
//  426 
//  427     *pBuf++ = LO_UINT16( pRsp->nwkParams.freeNwkAddrBegin );
        MOV       A,?V0
        ADD       A,#0x26
        MOV       DPL,A
        CLR       A
        ADDC      A,?V1
        MOV       DPH,A
        MOVX      A,@DPTR
        MOV       R0,A
        INC       DPTR
        MOVX      A,@DPTR
        MOV       R1,A
        MOV       A,R0
        PUSH      A
          CFI CFA_SP SP+-1
        MOV       DPL,R6
        MOV       DPH,R7
        POP       A
          CFI CFA_SP SP+0
        MOVX      @DPTR,A
        MOV       DPL,R6
        MOV       DPH,R7
        INC       DPTR
        MOV       R6,DPL
        MOV       R7,DPH
//  428     *pBuf++ = HI_UINT16( pRsp->nwkParams.freeNwkAddrBegin );
        MOV       A,?V0
        ADD       A,#0x26
        MOV       DPL,A
        CLR       A
        ADDC      A,?V1
        MOV       DPH,A
        MOVX      A,@DPTR
        MOV       R0,A
        INC       DPTR
        MOVX      A,@DPTR
        MOV       R1,A
        CLR       A
        XCH       A,R1
        MOV       R0,A
        MOV       A,R0
        PUSH      A
          CFI CFA_SP SP+-1
        MOV       DPL,R6
        MOV       DPH,R7
        POP       A
          CFI CFA_SP SP+0
        MOVX      @DPTR,A
        MOV       DPL,R6
        MOV       DPH,R7
        INC       DPTR
        MOV       R6,DPL
        MOV       R7,DPH
//  429 
//  430     *pBuf++ = LO_UINT16( pRsp->nwkParams.freeNwkAddrEnd );
        MOV       A,?V0
        ADD       A,#0x28
        MOV       DPL,A
        CLR       A
        ADDC      A,?V1
        MOV       DPH,A
        MOVX      A,@DPTR
        MOV       R0,A
        INC       DPTR
        MOVX      A,@DPTR
        MOV       R1,A
        MOV       A,R0
        PUSH      A
          CFI CFA_SP SP+-1
        MOV       DPL,R6
        MOV       DPH,R7
        POP       A
          CFI CFA_SP SP+0
        MOVX      @DPTR,A
        MOV       DPL,R6
        MOV       DPH,R7
        INC       DPTR
        MOV       R6,DPL
        MOV       R7,DPH
//  431     *pBuf++ = HI_UINT16( pRsp->nwkParams.freeNwkAddrEnd );
        MOV       A,?V0
        ADD       A,#0x28
        MOV       DPL,A
        CLR       A
        ADDC      A,?V1
        MOV       DPH,A
        MOVX      A,@DPTR
        MOV       R0,A
        INC       DPTR
        MOVX      A,@DPTR
        MOV       R1,A
        CLR       A
        XCH       A,R1
        MOV       R0,A
        MOV       A,R0
        PUSH      A
          CFI CFA_SP SP+-1
        MOV       DPL,R6
        MOV       DPH,R7
        POP       A
          CFI CFA_SP SP+0
        MOVX      @DPTR,A
        MOV       DPL,R6
        MOV       DPH,R7
        INC       DPTR
        MOV       R6,DPL
        MOV       R7,DPH
//  432 
//  433     *pBuf++ = LO_UINT16( pRsp->nwkParams.freeGrpIDBegin );
        MOV       A,?V0
        ADD       A,#0x2a
        MOV       DPL,A
        CLR       A
        ADDC      A,?V1
        MOV       DPH,A
        MOVX      A,@DPTR
        MOV       R0,A
        INC       DPTR
        MOVX      A,@DPTR
        MOV       R1,A
        MOV       A,R0
        PUSH      A
          CFI CFA_SP SP+-1
        MOV       DPL,R6
        MOV       DPH,R7
        POP       A
          CFI CFA_SP SP+0
        MOVX      @DPTR,A
        MOV       DPL,R6
        MOV       DPH,R7
        INC       DPTR
        MOV       R6,DPL
        MOV       R7,DPH
//  434     *pBuf++ = HI_UINT16( pRsp->nwkParams.freeGrpIDBegin );
        MOV       A,?V0
        ADD       A,#0x2a
        MOV       DPL,A
        CLR       A
        ADDC      A,?V1
        MOV       DPH,A
        MOVX      A,@DPTR
        MOV       R0,A
        INC       DPTR
        MOVX      A,@DPTR
        MOV       R1,A
        CLR       A
        XCH       A,R1
        MOV       R0,A
        MOV       A,R0
        PUSH      A
          CFI CFA_SP SP+-1
        MOV       DPL,R6
        MOV       DPH,R7
        POP       A
          CFI CFA_SP SP+0
        MOVX      @DPTR,A
        MOV       DPL,R6
        MOV       DPH,R7
        INC       DPTR
        MOV       R6,DPL
        MOV       R7,DPH
//  435 
//  436     *pBuf++ = LO_UINT16( pRsp->nwkParams.freeGrpIDEnd );
        MOV       A,?V0
        ADD       A,#0x2c
        MOV       DPL,A
        CLR       A
        ADDC      A,?V1
        MOV       DPH,A
        MOVX      A,@DPTR
        MOV       R0,A
        INC       DPTR
        MOVX      A,@DPTR
        MOV       R1,A
        MOV       A,R0
        PUSH      A
          CFI CFA_SP SP+-1
        MOV       DPL,R6
        MOV       DPH,R7
        POP       A
          CFI CFA_SP SP+0
        MOVX      @DPTR,A
        MOV       DPL,R6
        MOV       DPH,R7
        INC       DPTR
        MOV       R6,DPL
        MOV       R7,DPH
//  437     *pBuf++ = HI_UINT16( pRsp->nwkParams.freeGrpIDEnd );
        MOV       A,?V0
        ADD       A,#0x2c
        MOV       DPL,A
        CLR       A
        ADDC      A,?V1
        MOV       DPH,A
        MOVX      A,@DPTR
        MOV       R0,A
        INC       DPTR
        MOVX      A,@DPTR
        MOV       R1,A
        CLR       A
        XCH       A,R1
        MOV       R0,A
        MOV       A,R0
        PUSH      A
          CFI CFA_SP SP+-1
        MOV       DPL,R6
        MOV       DPH,R7
        POP       A
          CFI CFA_SP SP+0
        MOVX      @DPTR,A
        MOV       DPL,R6
        MOV       DPH,R7
        INC       DPTR
        MOV       R6,DPL
        MOV       R7,DPH
//  438 
//  439     status = bdbTL_SendInterPANCommand( srcEP, dstAddr, cmd, ZCL_FRAME_CLIENT_SERVER_DIR, seqNum,
//  440                                         TOUCHLINK_CMDLEN_NWK_JOIN_REQ, buf );
        ; Setup parameters for call to function bdbTL_SendInterPANCommand
        MOV       R0,#?V2
        LCALL     ?PUSH_XSTACK_I_TWO
          CFI CFA_XSP16 add(XSP16, 24)
        MOV       ?V4,#0x2f
        MOV       ?V5,#0x0
        MOV       R0,#?V4
        LCALL     ?PUSH_XSTACK_I_TWO
          CFI CFA_XSP16 add(XSP16, 26)
        MOV       A,?V10
        MOV       ?V4,A
        MOV       R0,#?V4
        LCALL     ?PUSH_XSTACK_I_ONE
          CFI CFA_XSP16 add(XSP16, 27)
        MOV       R5,#0x0
        MOV       R4,?V8
        MOV       R2,?V12
        MOV       R3,?V13
        MOV       R1,?V9
        LCALL     `??bdbTL_SendInterPANCommand::?relay`; Banked call to: bdbTL_SendInterPANCommand
        MOV       A,#0x5
        LCALL     ?DEALLOC_XSTACK8
          CFI CFA_XSP16 add(XSP16, 22)
        MOV       A,R1
        MOV       ?V7,A
//  441     zcl_mem_free( buf );
        ; Setup parameters for call to function osal_mem_free
        MOV       R2,?V2
        MOV       R3,?V3
        LCALL     `??osal_mem_free::?relay`; Banked call to: osal_mem_free
        SJMP      ??bdbTL_Send_NwkJoinReq_1
//  442   }
//  443   else
//  444   {
//  445     status = ZMemError;
??bdbTL_Send_NwkJoinReq_0:
        MOV       ?V7,#0x10
//  446   }
//  447 
//  448   return ( status );
??bdbTL_Send_NwkJoinReq_1:
        MOV       R1,?V7
        MOV       R7,#0xe
        LJMP      ?BANKED_LEAVE_XDATA
//  449 }
          CFI EndBlock cfiBlock7
//  450 
//  451 /*********************************************************************
//  452  * @fn      bdbTL_Send_NwkUpdateReq
//  453  *
//  454  * @brief   Call to send out a Network Update Request command
//  455  *
//  456  * @param   srcEP - sending application's endpoint
//  457  * @param   dstAddr - where you want the message to go
//  458  * @param   pReq - response parameters
//  459  * @param   seqNum - sequence number
//  460  *
//  461  * @return  ZStatus_t
//  462  */

        RSEG BANKED_CODE:HUGECODE:NOROOT(0)
//  463 ZStatus_t bdbTL_Send_NwkUpdateReq( uint8 srcEP, afAddrType_t *dstAddr,
bdbTL_Send_NwkUpdateReq:
          CFI Block cfiBlock8 Using cfiCommon0
          CFI Function bdbTL_Send_NwkUpdateReq
        CODE
//  464                                    bdbTLNwkUpdateReq_t *pReq, uint8 seqNum )
//  465 {
        FUNCALL bdbTL_Send_NwkUpdateReq, osal_mem_alloc
        LOCFRAME ISTACK, 0, STACK
        LOCFRAME PSTACK, 0, STACK
        LOCFRAME XSTACK, 20, STACK
        LOCFRAME IOVERLAY, 0, STATIC
        LOCFRAME DOVERLAY, 0, STATIC
        ARGFRAME ISTACK, 0, STACK
        ARGFRAME PSTACK, 0, STACK
        ARGFRAME XSTACK, 20, STACK
        ARGFRAME IOVERLAY, 0, STATIC
        ARGFRAME DOVERLAY, 0, STATIC
        FUNCALL bdbTL_Send_NwkUpdateReq, osal_buffer_uint32
        LOCFRAME ISTACK, 0, STACK
        LOCFRAME PSTACK, 0, STACK
        LOCFRAME XSTACK, 24, STACK
        LOCFRAME IOVERLAY, 0, STATIC
        LOCFRAME DOVERLAY, 0, STATIC
        ARGFRAME ISTACK, 0, STACK
        ARGFRAME PSTACK, 0, STACK
        ARGFRAME XSTACK, 24, STACK
        ARGFRAME IOVERLAY, 0, STATIC
        ARGFRAME DOVERLAY, 0, STATIC
        FUNCALL bdbTL_Send_NwkUpdateReq, sAddrExtCpy
        LOCFRAME ISTACK, 0, STACK
        LOCFRAME PSTACK, 0, STACK
        LOCFRAME XSTACK, 20, STACK
        LOCFRAME IOVERLAY, 0, STATIC
        LOCFRAME DOVERLAY, 0, STATIC
        ARGFRAME ISTACK, 0, STACK
        ARGFRAME PSTACK, 0, STACK
        ARGFRAME XSTACK, 20, STACK
        ARGFRAME IOVERLAY, 0, STATIC
        ARGFRAME DOVERLAY, 0, STATIC
        FUNCALL bdbTL_Send_NwkUpdateReq, bdbTL_SendInterPANCommand
        LOCFRAME ISTACK, 0, STACK
        LOCFRAME PSTACK, 0, STACK
        LOCFRAME XSTACK, 25, STACK
        LOCFRAME IOVERLAY, 0, STATIC
        LOCFRAME DOVERLAY, 0, STATIC
        ARGFRAME ISTACK, 0, STACK
        ARGFRAME PSTACK, 0, STACK
        ARGFRAME XSTACK, 25, STACK
        ARGFRAME IOVERLAY, 0, STATIC
        ARGFRAME DOVERLAY, 0, STATIC
        FUNCALL bdbTL_Send_NwkUpdateReq, osal_mem_free
        LOCFRAME ISTACK, 0, STACK
        LOCFRAME PSTACK, 0, STACK
        LOCFRAME XSTACK, 20, STACK
        LOCFRAME IOVERLAY, 0, STATIC
        LOCFRAME DOVERLAY, 0, STATIC
        ARGFRAME ISTACK, 0, STACK
        ARGFRAME PSTACK, 0, STACK
        ARGFRAME XSTACK, 20, STACK
        ARGFRAME IOVERLAY, 0, STATIC
        ARGFRAME DOVERLAY, 0, STATIC
        REQUIRE ?V0
        REQUIRE ?V1
        REQUIRE ?V2
        REQUIRE ?V3
        REQUIRE ?V4
        REQUIRE ?V5
        REQUIRE ?V6
        REQUIRE ?V7
        REQUIRE ?V8
        REQUIRE ?V9
        REQUIRE ?V10
        REQUIRE ?V11
        MOV       A,#-0x14
        LCALL     ?BANKED_ENTER_XDATA
          CFI DPH0 load(1, XDATA, add(CFA_XSP16, literal(-1)))
          CFI DPL0 load(1, XDATA, add(CFA_XSP16, literal(-2)))
          CFI ?BRET_EXT load(1, XDATA, add(CFA_XSP16, literal(-3)))
          CFI ?RET_HIGH load(1, XDATA, add(CFA_XSP16, literal(-4)))
          CFI ?RET_LOW load(1, XDATA, add(CFA_XSP16, literal(-5)))
          CFI R7 load(1, XDATA, add(CFA_XSP16, literal(-6)))
          CFI V11 load(1, XDATA, add(CFA_XSP16, literal(-7)))
          CFI V10 load(1, XDATA, add(CFA_XSP16, literal(-8)))
          CFI V9 load(1, XDATA, add(CFA_XSP16, literal(-9)))
          CFI V8 load(1, XDATA, add(CFA_XSP16, literal(-10)))
          CFI V7 load(1, XDATA, add(CFA_XSP16, literal(-11)))
          CFI V6 load(1, XDATA, add(CFA_XSP16, literal(-12)))
          CFI V5 load(1, XDATA, add(CFA_XSP16, literal(-13)))
          CFI V4 load(1, XDATA, add(CFA_XSP16, literal(-14)))
          CFI V3 load(1, XDATA, add(CFA_XSP16, literal(-15)))
          CFI V2 load(1, XDATA, add(CFA_XSP16, literal(-16)))
          CFI V1 load(1, XDATA, add(CFA_XSP16, literal(-17)))
          CFI V0 load(1, XDATA, add(CFA_XSP16, literal(-18)))
          CFI VB load(1, XDATA, add(CFA_XSP16, literal(-19)))
          CFI R6 load(1, XDATA, add(CFA_XSP16, literal(-20)))
          CFI CFA_SP SP+0
          CFI CFA_XSP16 add(XSP16, 20)
        ; Saved register size: 20
        ; Auto size: 0
        MOV       ?V3,R1
        MOV       ?V6,R2
        MOV       ?V7,R3
        MOV       ?V0,R4
        MOV       ?V1,R5
        MOV       A,#0x14
        LCALL     ?XSTACK_DISP0_8
        MOVX      A,@DPTR
        MOV       ?V4,A
//  466   uint8 *buf;
//  467   uint8 *pBuf;
//  468   ZStatus_t status;
//  469 
//  470   buf = zcl_mem_alloc( TOUCHLINK_CMDLEN_NWK_UPDATE_REQ );
        ; Setup parameters for call to function osal_mem_alloc
        MOV       R2,#0x12
        MOV       R3,#0x0
        LCALL     `??osal_mem_alloc::?relay`; Banked call to: osal_mem_alloc
        MOV       ?V10,R2
        MOV       ?V11,R3
        MOV       ?V8,?V10
        MOV       ?V9,?V11
//  471   if ( buf != NULL )
        MOV       A,?V8
        ORL       A,?V9
        JNZ       $+5
        LJMP      ??bdbTL_Send_NwkUpdateReq_0 & 0xFFFF
//  472   {
//  473     pBuf = buf;
        MOV       R6,?V8
        MOV       R7,?V9
//  474 
//  475     pBuf = zcl_buffer_uint32( pBuf, pReq->transID );
        ; Setup parameters for call to function osal_buffer_uint32
        MOV       DPL,?V0
        MOV       DPH,?V1
        LCALL     ?PUSH_XSTACK8_X_FOUR
          CFI CFA_XSP16 add(XSP16, 24)
        MOV       A,R6
        MOV       R2,A
        MOV       A,R7
        MOV       R3,A
        LCALL     `??osal_buffer_uint32::?relay`; Banked call to: osal_buffer_uint32
        MOV       A,#0x4
        LCALL     ?DEALLOC_XSTACK8
          CFI CFA_XSP16 add(XSP16, 20)
        MOV       ?V10,R2
        MOV       ?V11,R3
        MOV       R6,?V10
        MOV       R7,?V11
//  476     pBuf = zcl_cpyExtAddr( pBuf, pReq->extendedPANID );
        ; Setup parameters for call to function sAddrExtCpy
        MOV       A,?V0
        ADD       A,#0x4
        MOV       R4,A
        CLR       A
        ADDC      A,?V1
        MOV       R5,A
        MOV       A,R6
        MOV       R2,A
        MOV       A,R7
        MOV       R3,A
        LCALL     `??sAddrExtCpy::?relay`; Banked call to: sAddrExtCpy
        MOV       ?V10,R2
        MOV       ?V11,R3
        MOV       R6,?V10
        MOV       R7,?V11
//  477 
//  478     *pBuf++ = pReq->nwkUpdateId;
        MOV       A,?V0
        ADD       A,#0xc
        MOV       DPL,A
        CLR       A
        ADDC      A,?V1
        MOV       DPH,A
        MOVX      A,@DPTR
        PUSH      A
          CFI CFA_SP SP+-1
        MOV       DPL,R6
        MOV       DPH,R7
        POP       A
          CFI CFA_SP SP+0
        MOVX      @DPTR,A
        MOV       DPL,R6
        MOV       DPH,R7
        INC       DPTR
        MOV       R6,DPL
        MOV       R7,DPH
//  479     *pBuf++ = pReq->logicalChannel;
        MOV       A,?V0
        ADD       A,#0xd
        MOV       DPL,A
        CLR       A
        ADDC      A,?V1
        MOV       DPH,A
        MOVX      A,@DPTR
        PUSH      A
          CFI CFA_SP SP+-1
        MOV       DPL,R6
        MOV       DPH,R7
        POP       A
          CFI CFA_SP SP+0
        MOVX      @DPTR,A
        MOV       DPL,R6
        MOV       DPH,R7
        INC       DPTR
        MOV       R6,DPL
        MOV       R7,DPH
//  480 
//  481     *pBuf++ = LO_UINT16( pReq->PANID );
        MOV       A,?V0
        ADD       A,#0xe
        MOV       DPL,A
        CLR       A
        ADDC      A,?V1
        MOV       DPH,A
        MOVX      A,@DPTR
        MOV       R0,A
        INC       DPTR
        MOVX      A,@DPTR
        MOV       R1,A
        MOV       A,R0
        PUSH      A
          CFI CFA_SP SP+-1
        MOV       DPL,R6
        MOV       DPH,R7
        POP       A
          CFI CFA_SP SP+0
        MOVX      @DPTR,A
        MOV       DPL,R6
        MOV       DPH,R7
        INC       DPTR
        MOV       R6,DPL
        MOV       R7,DPH
//  482     *pBuf++ = HI_UINT16( pReq->PANID );
        MOV       A,?V0
        ADD       A,#0xe
        MOV       DPL,A
        CLR       A
        ADDC      A,?V1
        MOV       DPH,A
        MOVX      A,@DPTR
        MOV       R0,A
        INC       DPTR
        MOVX      A,@DPTR
        MOV       R1,A
        CLR       A
        XCH       A,R1
        MOV       R0,A
        MOV       A,R0
        PUSH      A
          CFI CFA_SP SP+-1
        MOV       DPL,R6
        MOV       DPH,R7
        POP       A
          CFI CFA_SP SP+0
        MOVX      @DPTR,A
        MOV       DPL,R6
        MOV       DPH,R7
        INC       DPTR
        MOV       R6,DPL
        MOV       R7,DPH
//  483 
//  484     *pBuf++ = LO_UINT16( pReq->nwkAddr );
        MOV       A,?V0
        ADD       A,#0x10
        MOV       DPL,A
        CLR       A
        ADDC      A,?V1
        MOV       DPH,A
        MOVX      A,@DPTR
        MOV       R0,A
        INC       DPTR
        MOVX      A,@DPTR
        MOV       R1,A
        MOV       A,R0
        PUSH      A
          CFI CFA_SP SP+-1
        MOV       DPL,R6
        MOV       DPH,R7
        POP       A
          CFI CFA_SP SP+0
        MOVX      @DPTR,A
        MOV       DPL,R6
        MOV       DPH,R7
        INC       DPTR
        MOV       R6,DPL
        MOV       R7,DPH
//  485     *pBuf++ = HI_UINT16( pReq->nwkAddr );
        MOV       A,?V0
        ADD       A,#0x10
        MOV       DPL,A
        CLR       A
        ADDC      A,?V1
        MOV       DPH,A
        MOVX      A,@DPTR
        MOV       R0,A
        INC       DPTR
        MOVX      A,@DPTR
        MOV       R1,A
        CLR       A
        XCH       A,R1
        MOV       R0,A
        MOV       A,R0
        PUSH      A
          CFI CFA_SP SP+-1
        MOV       DPL,R6
        MOV       DPH,R7
        POP       A
          CFI CFA_SP SP+0
        MOVX      @DPTR,A
        MOV       DPL,R6
        MOV       DPH,R7
        INC       DPTR
        MOV       R6,DPL
        MOV       R7,DPH
//  486 
//  487     status = bdbTL_SendInterPANCommand( srcEP, dstAddr, COMMAND_TOUCHLINK_NWK_UPDATE_REQ,
//  488                                         ZCL_FRAME_CLIENT_SERVER_DIR, seqNum, TOUCHLINK_CMDLEN_NWK_UPDATE_REQ, buf );
        ; Setup parameters for call to function bdbTL_SendInterPANCommand
        MOV       R0,#?V8
        LCALL     ?PUSH_XSTACK_I_TWO
          CFI CFA_XSP16 add(XSP16, 22)
        MOV       ?V10,#0x12
        MOV       ?V11,#0x0
        MOV       R0,#?V10
        LCALL     ?PUSH_XSTACK_I_TWO
          CFI CFA_XSP16 add(XSP16, 24)
        MOV       A,?V4
        MOV       ?V5,A
        MOV       R0,#?V5
        LCALL     ?PUSH_XSTACK_I_ONE
          CFI CFA_XSP16 add(XSP16, 25)
        MOV       R5,#0x0
        MOV       R4,#0x16
        MOV       R2,?V6
        MOV       R3,?V7
        MOV       R1,?V3
        LCALL     `??bdbTL_SendInterPANCommand::?relay`; Banked call to: bdbTL_SendInterPANCommand
        MOV       A,#0x5
        LCALL     ?DEALLOC_XSTACK8
          CFI CFA_XSP16 add(XSP16, 20)
        MOV       A,R1
        MOV       ?V2,A
//  489     zcl_mem_free( buf );
        ; Setup parameters for call to function osal_mem_free
        MOV       R2,?V8
        MOV       R3,?V9
        LCALL     `??osal_mem_free::?relay`; Banked call to: osal_mem_free
        SJMP      ??bdbTL_Send_NwkUpdateReq_1
//  490   }
//  491   else
//  492   {
//  493     status = ZMemError;
??bdbTL_Send_NwkUpdateReq_0:
        MOV       ?V2,#0x10
//  494   }
//  495 
//  496   return ( status );
??bdbTL_Send_NwkUpdateReq_1:
        MOV       R1,?V2
        MOV       R7,#0xc
        LJMP      ?BANKED_LEAVE_XDATA
//  497 }
          CFI EndBlock cfiBlock8
//  498 
//  499 /*********************************************************************
//  500  * @fn      bdbTL_Send_ScanRsp
//  501  *
//  502  * @brief   Call to send out an Scan Response command
//  503  *
//  504  * @param   srcEP - sending application's endpoint
//  505  * @param   dstAddr - where you want the message to go
//  506  * @param   pRsp - response parameters
//  507  * @param   seqNum - sequence number
//  508  *
//  509  * @return  ZStatus_t
//  510  */

        RSEG BANKED_CODE:HUGECODE:NOROOT(0)
//  511 ZStatus_t bdbTL_Send_ScanRsp( uint8 srcEP, afAddrType_t *dstAddr,
bdbTL_Send_ScanRsp:
          CFI Block cfiBlock9 Using cfiCommon0
          CFI Function bdbTL_Send_ScanRsp
        CODE
//  512                               bdbTLScanRsp_t *pRsp, uint8 seqNum )
//  513 {
        FUNCALL bdbTL_Send_ScanRsp, osal_mem_alloc
        LOCFRAME ISTACK, 0, STACK
        LOCFRAME PSTACK, 0, STACK
        LOCFRAME XSTACK, 20, STACK
        LOCFRAME IOVERLAY, 0, STATIC
        LOCFRAME DOVERLAY, 0, STATIC
        ARGFRAME ISTACK, 0, STACK
        ARGFRAME PSTACK, 0, STACK
        ARGFRAME XSTACK, 20, STACK
        ARGFRAME IOVERLAY, 0, STATIC
        ARGFRAME DOVERLAY, 0, STATIC
        FUNCALL bdbTL_Send_ScanRsp, osal_buffer_uint32
        LOCFRAME ISTACK, 0, STACK
        LOCFRAME PSTACK, 0, STACK
        LOCFRAME XSTACK, 24, STACK
        LOCFRAME IOVERLAY, 0, STATIC
        LOCFRAME DOVERLAY, 0, STATIC
        ARGFRAME ISTACK, 0, STACK
        ARGFRAME PSTACK, 0, STACK
        ARGFRAME XSTACK, 24, STACK
        ARGFRAME IOVERLAY, 0, STATIC
        ARGFRAME DOVERLAY, 0, STATIC
        FUNCALL bdbTL_Send_ScanRsp, osal_buffer_uint32
        LOCFRAME ISTACK, 0, STACK
        LOCFRAME PSTACK, 0, STACK
        LOCFRAME XSTACK, 24, STACK
        LOCFRAME IOVERLAY, 0, STATIC
        LOCFRAME DOVERLAY, 0, STATIC
        ARGFRAME ISTACK, 0, STACK
        ARGFRAME PSTACK, 0, STACK
        ARGFRAME XSTACK, 24, STACK
        ARGFRAME IOVERLAY, 0, STATIC
        ARGFRAME DOVERLAY, 0, STATIC
        FUNCALL bdbTL_Send_ScanRsp, sAddrExtCpy
        LOCFRAME ISTACK, 0, STACK
        LOCFRAME PSTACK, 0, STACK
        LOCFRAME XSTACK, 20, STACK
        LOCFRAME IOVERLAY, 0, STATIC
        LOCFRAME DOVERLAY, 0, STATIC
        ARGFRAME ISTACK, 0, STACK
        ARGFRAME PSTACK, 0, STACK
        ARGFRAME XSTACK, 20, STACK
        ARGFRAME IOVERLAY, 0, STATIC
        ARGFRAME DOVERLAY, 0, STATIC
        FUNCALL bdbTL_Send_ScanRsp, bdbTL_SendInterPANCommand
        LOCFRAME ISTACK, 0, STACK
        LOCFRAME PSTACK, 0, STACK
        LOCFRAME XSTACK, 25, STACK
        LOCFRAME IOVERLAY, 0, STATIC
        LOCFRAME DOVERLAY, 0, STATIC
        ARGFRAME ISTACK, 0, STACK
        ARGFRAME PSTACK, 0, STACK
        ARGFRAME XSTACK, 25, STACK
        ARGFRAME IOVERLAY, 0, STATIC
        ARGFRAME DOVERLAY, 0, STATIC
        FUNCALL bdbTL_Send_ScanRsp, osal_mem_free
        LOCFRAME ISTACK, 0, STACK
        LOCFRAME PSTACK, 0, STACK
        LOCFRAME XSTACK, 20, STACK
        LOCFRAME IOVERLAY, 0, STATIC
        LOCFRAME DOVERLAY, 0, STATIC
        ARGFRAME ISTACK, 0, STACK
        ARGFRAME PSTACK, 0, STACK
        ARGFRAME XSTACK, 20, STACK
        ARGFRAME IOVERLAY, 0, STATIC
        ARGFRAME DOVERLAY, 0, STATIC
        REQUIRE ?V0
        REQUIRE ?V1
        REQUIRE ?V2
        REQUIRE ?V3
        REQUIRE ?V4
        REQUIRE ?V5
        REQUIRE ?V6
        REQUIRE ?V7
        REQUIRE ?V8
        REQUIRE ?V9
        REQUIRE ?V10
        REQUIRE ?V11
        MOV       A,#-0x14
        LCALL     ?BANKED_ENTER_XDATA
          CFI DPH0 load(1, XDATA, add(CFA_XSP16, literal(-1)))
          CFI DPL0 load(1, XDATA, add(CFA_XSP16, literal(-2)))
          CFI ?BRET_EXT load(1, XDATA, add(CFA_XSP16, literal(-3)))
          CFI ?RET_HIGH load(1, XDATA, add(CFA_XSP16, literal(-4)))
          CFI ?RET_LOW load(1, XDATA, add(CFA_XSP16, literal(-5)))
          CFI R7 load(1, XDATA, add(CFA_XSP16, literal(-6)))
          CFI V11 load(1, XDATA, add(CFA_XSP16, literal(-7)))
          CFI V10 load(1, XDATA, add(CFA_XSP16, literal(-8)))
          CFI V9 load(1, XDATA, add(CFA_XSP16, literal(-9)))
          CFI V8 load(1, XDATA, add(CFA_XSP16, literal(-10)))
          CFI V7 load(1, XDATA, add(CFA_XSP16, literal(-11)))
          CFI V6 load(1, XDATA, add(CFA_XSP16, literal(-12)))
          CFI V5 load(1, XDATA, add(CFA_XSP16, literal(-13)))
          CFI V4 load(1, XDATA, add(CFA_XSP16, literal(-14)))
          CFI V3 load(1, XDATA, add(CFA_XSP16, literal(-15)))
          CFI V2 load(1, XDATA, add(CFA_XSP16, literal(-16)))
          CFI V1 load(1, XDATA, add(CFA_XSP16, literal(-17)))
          CFI V0 load(1, XDATA, add(CFA_XSP16, literal(-18)))
          CFI VB load(1, XDATA, add(CFA_XSP16, literal(-19)))
          CFI R6 load(1, XDATA, add(CFA_XSP16, literal(-20)))
          CFI CFA_SP SP+0
          CFI CFA_XSP16 add(XSP16, 20)
        ; Saved register size: 20
        ; Auto size: 0
        MOV       ?V8,R1
        MOV       ?V6,R2
        MOV       ?V7,R3
        MOV       ?V0,R4
        MOV       ?V1,R5
        MOV       A,#0x14
        LCALL     ?XSTACK_DISP0_8
        MOVX      A,@DPTR
        MOV       ?V9,A
//  514   uint8 *buf;
//  515   uint8 bufLen = TOUCHLINK_CMDLEN_SCAN_RSP;
        MOV       ?V5,#0x1d
//  516   ZStatus_t status;
//  517 
//  518   // Calculate the total length needed
//  519   if ( pRsp->numSubDevices == 1 )
        MOV       A,?V0
        ADD       A,#0x1d
        MOV       DPL,A
        CLR       A
        ADDC      A,?V1
        MOV       DPH,A
        MOVX      A,@DPTR
        XRL       A,#0x1
        JNZ       ??bdbTL_Send_ScanRsp_0
//  520   {
//  521     bufLen += TOUCHLINK_CMDLENOPTIONAL_SCAN_RSP;
        MOV       A,#0x7
        ADD       A,?V5
        MOV       ?V5,A
//  522   }
//  523 
//  524   buf = zcl_mem_alloc( bufLen );
??bdbTL_Send_ScanRsp_0:
        ; Setup parameters for call to function osal_mem_alloc
        MOV       A,?V5
        MOV       R2,A
        MOV       R3,#0x0
        LCALL     `??osal_mem_alloc::?relay`; Banked call to: osal_mem_alloc
        MOV       ?V10,R2
        MOV       ?V11,R3
        MOV       ?V2,?V10
        MOV       ?V3,?V11
//  525   if ( buf != NULL )
        MOV       A,?V2
        ORL       A,?V3
        JNZ       $+5
        LJMP      ??bdbTL_Send_ScanRsp_1 & 0xFFFF
//  526   {
//  527     uint8 *pBuf = buf;
        MOV       R6,?V2
        MOV       R7,?V3
//  528 
//  529     pBuf = zcl_buffer_uint32( pBuf, pRsp->transID );
        ; Setup parameters for call to function osal_buffer_uint32
        MOV       DPL,?V0
        MOV       DPH,?V1
        LCALL     ?PUSH_XSTACK8_X_FOUR
          CFI CFA_XSP16 add(XSP16, 24)
        MOV       A,R6
        MOV       R2,A
        MOV       A,R7
        MOV       R3,A
        LCALL     `??osal_buffer_uint32::?relay`; Banked call to: osal_buffer_uint32
        MOV       A,#0x4
        LCALL     ?DEALLOC_XSTACK8
          CFI CFA_XSP16 add(XSP16, 20)
        MOV       ?V10,R2
        MOV       ?V11,R3
        MOV       R6,?V10
        MOV       R7,?V11
//  530 
//  531     *pBuf++ = pRsp->rssiCorrection;
        MOV       DPL,?V0
        MOV       DPH,?V1
        INC       DPTR
        INC       DPTR
        INC       DPTR
        INC       DPTR
        MOVX      A,@DPTR
        PUSH      A
          CFI CFA_SP SP+-1
        MOV       DPL,R6
        MOV       DPH,R7
        POP       A
          CFI CFA_SP SP+0
        MOVX      @DPTR,A
        MOV       DPL,R6
        MOV       DPH,R7
        INC       DPTR
        MOV       R6,DPL
        MOV       R7,DPH
//  532     *pBuf++ = pRsp->zInfo.zInfoByte;
        MOV       DPL,?V0
        MOV       DPH,?V1
        INC       DPTR
        INC       DPTR
        INC       DPTR
        INC       DPTR
        INC       DPTR
        MOVX      A,@DPTR
        PUSH      A
          CFI CFA_SP SP+-1
        MOV       DPL,R6
        MOV       DPH,R7
        POP       A
          CFI CFA_SP SP+0
        MOVX      @DPTR,A
        MOV       DPL,R6
        MOV       DPH,R7
        INC       DPTR
        MOV       R6,DPL
        MOV       R7,DPH
//  533     *pBuf++ = pRsp->touchLinkInfo.touchLinkInfoByte;
        MOV       DPL,?V0
        MOV       DPH,?V1
        INC       DPTR
        INC       DPTR
        INC       DPTR
        INC       DPTR
        INC       DPTR
        INC       DPTR
        INC       DPTR
        MOVX      A,@DPTR
        PUSH      A
          CFI CFA_SP SP+-1
        MOV       DPL,R6
        MOV       DPH,R7
        POP       A
          CFI CFA_SP SP+0
        MOVX      @DPTR,A
        MOV       DPL,R6
        MOV       DPH,R7
        INC       DPTR
        MOV       R6,DPL
        MOV       R7,DPH
//  534 
//  535     *pBuf++ = LO_UINT16( pRsp->keyBitmask );
        MOV       DPL,?V0
        MOV       DPH,?V1
        INC       DPTR
        INC       DPTR
        INC       DPTR
        INC       DPTR
        INC       DPTR
        INC       DPTR
        INC       DPTR
        INC       DPTR
        INC       DPTR
        MOVX      A,@DPTR
        MOV       R0,A
        INC       DPTR
        MOVX      A,@DPTR
        MOV       R1,A
        MOV       A,R0
        PUSH      A
          CFI CFA_SP SP+-1
        MOV       DPL,R6
        MOV       DPH,R7
        POP       A
          CFI CFA_SP SP+0
        MOVX      @DPTR,A
        MOV       DPL,R6
        MOV       DPH,R7
        INC       DPTR
        MOV       R6,DPL
        MOV       R7,DPH
//  536     *pBuf++ = HI_UINT16( pRsp->keyBitmask );
        MOV       DPL,?V0
        MOV       DPH,?V1
        INC       DPTR
        INC       DPTR
        INC       DPTR
        INC       DPTR
        INC       DPTR
        INC       DPTR
        INC       DPTR
        INC       DPTR
        INC       DPTR
        MOVX      A,@DPTR
        MOV       R0,A
        INC       DPTR
        MOVX      A,@DPTR
        MOV       R1,A
        CLR       A
        XCH       A,R1
        MOV       R0,A
        MOV       A,R0
        PUSH      A
          CFI CFA_SP SP+-1
        MOV       DPL,R6
        MOV       DPH,R7
        POP       A
          CFI CFA_SP SP+0
        MOVX      @DPTR,A
        MOV       DPL,R6
        MOV       DPH,R7
        INC       DPTR
        MOV       R6,DPL
        MOV       R7,DPH
//  537 
//  538     pBuf = zcl_buffer_uint32( pBuf, pRsp->responseID );
        ; Setup parameters for call to function osal_buffer_uint32
        MOV       A,?V0
        ADD       A,#0xb
        MOV       DPL,A
        CLR       A
        ADDC      A,?V1
        MOV       DPH,A
        LCALL     ?PUSH_XSTACK8_X_FOUR
          CFI CFA_XSP16 add(XSP16, 24)
        MOV       A,R6
        MOV       R2,A
        MOV       A,R7
        MOV       R3,A
        LCALL     `??osal_buffer_uint32::?relay`; Banked call to: osal_buffer_uint32
        MOV       A,#0x4
        LCALL     ?DEALLOC_XSTACK8
          CFI CFA_XSP16 add(XSP16, 20)
        MOV       ?V10,R2
        MOV       ?V11,R3
        MOV       R6,?V10
        MOV       R7,?V11
//  539     pBuf = zcl_cpyExtAddr( pBuf, pRsp->extendedPANID );
        ; Setup parameters for call to function sAddrExtCpy
        MOV       A,?V0
        ADD       A,#0xf
        MOV       R4,A
        CLR       A
        ADDC      A,?V1
        MOV       R5,A
        MOV       A,R6
        MOV       R2,A
        MOV       A,R7
        MOV       R3,A
        LCALL     `??sAddrExtCpy::?relay`; Banked call to: sAddrExtCpy
        MOV       ?V10,R2
        MOV       ?V11,R3
        MOV       R6,?V10
        MOV       R7,?V11
//  540 
//  541     *pBuf++ = pRsp->nwkUpdateId;
        MOV       A,?V0
        ADD       A,#0x17
        MOV       DPL,A
        CLR       A
        ADDC      A,?V1
        MOV       DPH,A
        MOVX      A,@DPTR
        PUSH      A
          CFI CFA_SP SP+-1
        MOV       DPL,R6
        MOV       DPH,R7
        POP       A
          CFI CFA_SP SP+0
        MOVX      @DPTR,A
        MOV       DPL,R6
        MOV       DPH,R7
        INC       DPTR
        MOV       R6,DPL
        MOV       R7,DPH
//  542     *pBuf++ = pRsp->logicalChannel;
        MOV       A,?V0
        ADD       A,#0x18
        MOV       DPL,A
        CLR       A
        ADDC      A,?V1
        MOV       DPH,A
        MOVX      A,@DPTR
        PUSH      A
          CFI CFA_SP SP+-1
        MOV       DPL,R6
        MOV       DPH,R7
        POP       A
          CFI CFA_SP SP+0
        MOVX      @DPTR,A
        MOV       DPL,R6
        MOV       DPH,R7
        INC       DPTR
        MOV       R6,DPL
        MOV       R7,DPH
//  543 
//  544     *pBuf++ = LO_UINT16( pRsp->PANID );
        MOV       A,?V0
        ADD       A,#0x19
        MOV       DPL,A
        CLR       A
        ADDC      A,?V1
        MOV       DPH,A
        MOVX      A,@DPTR
        MOV       R0,A
        INC       DPTR
        MOVX      A,@DPTR
        MOV       R1,A
        MOV       A,R0
        PUSH      A
          CFI CFA_SP SP+-1
        MOV       DPL,R6
        MOV       DPH,R7
        POP       A
          CFI CFA_SP SP+0
        MOVX      @DPTR,A
        MOV       DPL,R6
        MOV       DPH,R7
        INC       DPTR
        MOV       R6,DPL
        MOV       R7,DPH
//  545     *pBuf++ = HI_UINT16( pRsp->PANID );
        MOV       A,?V0
        ADD       A,#0x19
        MOV       DPL,A
        CLR       A
        ADDC      A,?V1
        MOV       DPH,A
        MOVX      A,@DPTR
        MOV       R0,A
        INC       DPTR
        MOVX      A,@DPTR
        MOV       R1,A
        CLR       A
        XCH       A,R1
        MOV       R0,A
        MOV       A,R0
        PUSH      A
          CFI CFA_SP SP+-1
        MOV       DPL,R6
        MOV       DPH,R7
        POP       A
          CFI CFA_SP SP+0
        MOVX      @DPTR,A
        MOV       DPL,R6
        MOV       DPH,R7
        INC       DPTR
        MOV       R6,DPL
        MOV       R7,DPH
//  546 
//  547     *pBuf++ = LO_UINT16( pRsp->nwkAddr );
        MOV       A,?V0
        ADD       A,#0x1b
        MOV       DPL,A
        CLR       A
        ADDC      A,?V1
        MOV       DPH,A
        MOVX      A,@DPTR
        MOV       R0,A
        INC       DPTR
        MOVX      A,@DPTR
        MOV       R1,A
        MOV       A,R0
        PUSH      A
          CFI CFA_SP SP+-1
        MOV       DPL,R6
        MOV       DPH,R7
        POP       A
          CFI CFA_SP SP+0
        MOVX      @DPTR,A
        MOV       DPL,R6
        MOV       DPH,R7
        INC       DPTR
        MOV       R6,DPL
        MOV       R7,DPH
//  548     *pBuf++ = HI_UINT16( pRsp->nwkAddr );
        MOV       A,?V0
        ADD       A,#0x1b
        MOV       DPL,A
        CLR       A
        ADDC      A,?V1
        MOV       DPH,A
        MOVX      A,@DPTR
        MOV       R0,A
        INC       DPTR
        MOVX      A,@DPTR
        MOV       R1,A
        CLR       A
        XCH       A,R1
        MOV       R0,A
        MOV       A,R0
        PUSH      A
          CFI CFA_SP SP+-1
        MOV       DPL,R6
        MOV       DPH,R7
        POP       A
          CFI CFA_SP SP+0
        MOVX      @DPTR,A
        MOV       DPL,R6
        MOV       DPH,R7
        INC       DPTR
        MOV       R6,DPL
        MOV       R7,DPH
//  549 
//  550     *pBuf++ = pRsp->numSubDevices;
        MOV       A,?V0
        ADD       A,#0x1d
        MOV       DPL,A
        CLR       A
        ADDC      A,?V1
        MOV       DPH,A
        MOVX      A,@DPTR
        PUSH      A
          CFI CFA_SP SP+-1
        MOV       DPL,R6
        MOV       DPH,R7
        POP       A
          CFI CFA_SP SP+0
        MOVX      @DPTR,A
        MOV       DPL,R6
        MOV       DPH,R7
        INC       DPTR
        MOV       R6,DPL
        MOV       R7,DPH
//  551     *pBuf++ = pRsp->totalGrpIDs;
        MOV       A,?V0
        ADD       A,#0x1e
        MOV       DPL,A
        CLR       A
        ADDC      A,?V1
        MOV       DPH,A
        MOVX      A,@DPTR
        PUSH      A
          CFI CFA_SP SP+-1
        MOV       DPL,R6
        MOV       DPH,R7
        POP       A
          CFI CFA_SP SP+0
        MOVX      @DPTR,A
        MOV       DPL,R6
        MOV       DPH,R7
        INC       DPTR
        MOV       R6,DPL
        MOV       R7,DPH
//  552 
//  553     if ( pRsp->numSubDevices == 1 )
        MOV       A,?V0
        ADD       A,#0x1d
        MOV       DPL,A
        CLR       A
        ADDC      A,?V1
        MOV       DPH,A
        MOVX      A,@DPTR
        XRL       A,#0x1
        JZ        $+5
        LJMP      ??bdbTL_Send_ScanRsp_2 & 0xFFFF
//  554     {
//  555       *pBuf++ = pRsp->deviceInfo.endpoint;
        MOV       A,?V0
        ADD       A,#0x1f
        MOV       DPL,A
        CLR       A
        ADDC      A,?V1
        MOV       DPH,A
        MOVX      A,@DPTR
        PUSH      A
          CFI CFA_SP SP+-1
        MOV       DPL,R6
        MOV       DPH,R7
        POP       A
          CFI CFA_SP SP+0
        MOVX      @DPTR,A
        MOV       DPL,R6
        MOV       DPH,R7
        INC       DPTR
        MOV       R6,DPL
        MOV       R7,DPH
//  556 
//  557       *pBuf++ = LO_UINT16( pRsp->deviceInfo.profileID );
        MOV       A,?V0
        ADD       A,#0x20
        MOV       DPL,A
        CLR       A
        ADDC      A,?V1
        MOV       DPH,A
        MOVX      A,@DPTR
        MOV       R0,A
        INC       DPTR
        MOVX      A,@DPTR
        MOV       R1,A
        MOV       A,R0
        PUSH      A
          CFI CFA_SP SP+-1
        MOV       DPL,R6
        MOV       DPH,R7
        POP       A
          CFI CFA_SP SP+0
        MOVX      @DPTR,A
        MOV       DPL,R6
        MOV       DPH,R7
        INC       DPTR
        MOV       R6,DPL
        MOV       R7,DPH
//  558       *pBuf++ = HI_UINT16( pRsp->deviceInfo.profileID );
        MOV       A,?V0
        ADD       A,#0x20
        MOV       DPL,A
        CLR       A
        ADDC      A,?V1
        MOV       DPH,A
        MOVX      A,@DPTR
        MOV       R0,A
        INC       DPTR
        MOVX      A,@DPTR
        MOV       R1,A
        CLR       A
        XCH       A,R1
        MOV       R0,A
        MOV       A,R0
        PUSH      A
          CFI CFA_SP SP+-1
        MOV       DPL,R6
        MOV       DPH,R7
        POP       A
          CFI CFA_SP SP+0
        MOVX      @DPTR,A
        MOV       DPL,R6
        MOV       DPH,R7
        INC       DPTR
        MOV       R6,DPL
        MOV       R7,DPH
//  559 
//  560       *pBuf++ = LO_UINT16( pRsp->deviceInfo.deviceID );
        MOV       A,?V0
        ADD       A,#0x22
        MOV       DPL,A
        CLR       A
        ADDC      A,?V1
        MOV       DPH,A
        MOVX      A,@DPTR
        MOV       R0,A
        INC       DPTR
        MOVX      A,@DPTR
        MOV       R1,A
        MOV       A,R0
        PUSH      A
          CFI CFA_SP SP+-1
        MOV       DPL,R6
        MOV       DPH,R7
        POP       A
          CFI CFA_SP SP+0
        MOVX      @DPTR,A
        MOV       DPL,R6
        MOV       DPH,R7
        INC       DPTR
        MOV       R6,DPL
        MOV       R7,DPH
//  561       *pBuf++ = HI_UINT16( pRsp->deviceInfo.deviceID );
        MOV       A,?V0
        ADD       A,#0x22
        MOV       DPL,A
        CLR       A
        ADDC      A,?V1
        MOV       DPH,A
        MOVX      A,@DPTR
        MOV       R0,A
        INC       DPTR
        MOVX      A,@DPTR
        MOV       R1,A
        CLR       A
        XCH       A,R1
        MOV       R0,A
        MOV       A,R0
        PUSH      A
          CFI CFA_SP SP+-1
        MOV       DPL,R6
        MOV       DPH,R7
        POP       A
          CFI CFA_SP SP+0
        MOVX      @DPTR,A
        MOV       DPL,R6
        MOV       DPH,R7
        INC       DPTR
        MOV       R6,DPL
        MOV       R7,DPH
//  562 
//  563       *pBuf++ = pRsp->deviceInfo.version;
        MOV       A,?V0
        ADD       A,#0x24
        MOV       DPL,A
        CLR       A
        ADDC      A,?V1
        MOV       DPH,A
        MOVX      A,@DPTR
        PUSH      A
          CFI CFA_SP SP+-1
        MOV       DPL,R6
        MOV       DPH,R7
        POP       A
          CFI CFA_SP SP+0
        MOVX      @DPTR,A
        MOV       DPL,R6
        MOV       DPH,R7
        INC       DPTR
        MOV       R6,DPL
        MOV       R7,DPH
//  564       *pBuf++ = pRsp->deviceInfo.grpIdCnt;
        MOV       A,?V0
        ADD       A,#0x25
        MOV       DPL,A
        CLR       A
        ADDC      A,?V1
        MOV       DPH,A
        MOVX      A,@DPTR
        PUSH      A
          CFI CFA_SP SP+-1
        MOV       DPL,R6
        MOV       DPH,R7
        POP       A
          CFI CFA_SP SP+0
        MOVX      @DPTR,A
        MOV       DPL,R6
        MOV       DPH,R7
        INC       DPTR
        MOV       R6,DPL
        MOV       R7,DPH
//  565     }
//  566 
//  567     status = bdbTL_SendInterPANCommand( srcEP, dstAddr, COMMAND_TOUCHLINK_SCAN_RSP,
//  568                                         ZCL_FRAME_SERVER_CLIENT_DIR, seqNum, bufLen, buf );
??bdbTL_Send_ScanRsp_2:
        ; Setup parameters for call to function bdbTL_SendInterPANCommand
        MOV       R0,#?V2
        LCALL     ?PUSH_XSTACK_I_TWO
          CFI CFA_XSP16 add(XSP16, 22)
        MOV       A,?V5
        MOV       ?V10,A
        MOV       ?V11,#0x0
        MOV       R0,#?V10
        LCALL     ?PUSH_XSTACK_I_TWO
          CFI CFA_XSP16 add(XSP16, 24)
        MOV       A,?V9
        MOV       ?V10,A
        MOV       R0,#?V10
        LCALL     ?PUSH_XSTACK_I_ONE
          CFI CFA_XSP16 add(XSP16, 25)
        MOV       R5,#0x1
        MOV       R4,#0x1
        MOV       R2,?V6
        MOV       R3,?V7
        MOV       R1,?V8
        LCALL     `??bdbTL_SendInterPANCommand::?relay`; Banked call to: bdbTL_SendInterPANCommand
        MOV       A,#0x5
        LCALL     ?DEALLOC_XSTACK8
          CFI CFA_XSP16 add(XSP16, 20)
        MOV       A,R1
        MOV       ?V4,A
//  569     zcl_mem_free( buf );
        ; Setup parameters for call to function osal_mem_free
        MOV       R2,?V2
        MOV       R3,?V3
        LCALL     `??osal_mem_free::?relay`; Banked call to: osal_mem_free
        SJMP      ??bdbTL_Send_ScanRsp_3
//  570   }
//  571   else
//  572   {
//  573     status = ZMemError;
??bdbTL_Send_ScanRsp_1:
        MOV       ?V4,#0x10
//  574   }
//  575 
//  576   return ( status );
??bdbTL_Send_ScanRsp_3:
        MOV       R1,?V4
        MOV       R7,#0xc
        LJMP      ?BANKED_LEAVE_XDATA
//  577 }
          CFI EndBlock cfiBlock9
//  578 
//  579 /*********************************************************************
//  580  * @fn      bdbTL_Send_DeviceInfoRsp
//  581  *
//  582  * @brief   Call to send out a Device Information Response command
//  583  *
//  584  * @param   srcEP - sending application's endpoint
//  585  * @param   dstAddr - where you want the message to go
//  586  * @param   pRsp - response parameters
//  587  * @param   seqNum - sequence number
//  588  *
//  589  * @return  ZStatus_t
//  590  */

        RSEG BANKED_CODE:HUGECODE:NOROOT(0)
//  591 ZStatus_t bdbTL_Send_DeviceInfoRsp( uint8 srcEP, afAddrType_t *dstAddr,
bdbTL_Send_DeviceInfoRsp:
          CFI Block cfiBlock10 Using cfiCommon0
          CFI Function bdbTL_Send_DeviceInfoRsp
        CODE
//  592                                     bdbTLDeviceInfoRsp_t *pRsp, uint8 seqNum )
//  593 {
        FUNCALL bdbTL_Send_DeviceInfoRsp, osal_mem_alloc
        LOCFRAME ISTACK, 0, STACK
        LOCFRAME PSTACK, 0, STACK
        LOCFRAME XSTACK, 24, STACK
        LOCFRAME IOVERLAY, 0, STATIC
        LOCFRAME DOVERLAY, 0, STATIC
        ARGFRAME ISTACK, 0, STACK
        ARGFRAME PSTACK, 0, STACK
        ARGFRAME XSTACK, 24, STACK
        ARGFRAME IOVERLAY, 0, STATIC
        ARGFRAME DOVERLAY, 0, STATIC
        FUNCALL bdbTL_Send_DeviceInfoRsp, osal_buffer_uint32
        LOCFRAME ISTACK, 0, STACK
        LOCFRAME PSTACK, 0, STACK
        LOCFRAME XSTACK, 28, STACK
        LOCFRAME IOVERLAY, 0, STATIC
        LOCFRAME DOVERLAY, 0, STATIC
        ARGFRAME ISTACK, 0, STACK
        ARGFRAME PSTACK, 0, STACK
        ARGFRAME XSTACK, 28, STACK
        ARGFRAME IOVERLAY, 0, STATIC
        ARGFRAME DOVERLAY, 0, STATIC
        FUNCALL bdbTL_Send_DeviceInfoRsp, sAddrExtCpy
        LOCFRAME ISTACK, 0, STACK
        LOCFRAME PSTACK, 0, STACK
        LOCFRAME XSTACK, 24, STACK
        LOCFRAME IOVERLAY, 0, STATIC
        LOCFRAME DOVERLAY, 0, STATIC
        ARGFRAME ISTACK, 0, STACK
        ARGFRAME PSTACK, 0, STACK
        ARGFRAME XSTACK, 24, STACK
        ARGFRAME IOVERLAY, 0, STATIC
        ARGFRAME DOVERLAY, 0, STATIC
        FUNCALL bdbTL_Send_DeviceInfoRsp, bdbTL_SendInterPANCommand
        LOCFRAME ISTACK, 0, STACK
        LOCFRAME PSTACK, 0, STACK
        LOCFRAME XSTACK, 29, STACK
        LOCFRAME IOVERLAY, 0, STATIC
        LOCFRAME DOVERLAY, 0, STATIC
        ARGFRAME ISTACK, 0, STACK
        ARGFRAME PSTACK, 0, STACK
        ARGFRAME XSTACK, 29, STACK
        ARGFRAME IOVERLAY, 0, STATIC
        ARGFRAME DOVERLAY, 0, STATIC
        FUNCALL bdbTL_Send_DeviceInfoRsp, osal_mem_free
        LOCFRAME ISTACK, 0, STACK
        LOCFRAME PSTACK, 0, STACK
        LOCFRAME XSTACK, 24, STACK
        LOCFRAME IOVERLAY, 0, STATIC
        LOCFRAME DOVERLAY, 0, STATIC
        ARGFRAME ISTACK, 0, STACK
        ARGFRAME PSTACK, 0, STACK
        ARGFRAME XSTACK, 24, STACK
        ARGFRAME IOVERLAY, 0, STATIC
        ARGFRAME DOVERLAY, 0, STATIC
        REQUIRE ?V0
        REQUIRE ?V1
        REQUIRE ?V2
        REQUIRE ?V3
        REQUIRE ?V4
        REQUIRE ?V5
        REQUIRE ?V6
        REQUIRE ?V7
        REQUIRE ?V8
        REQUIRE ?V9
        REQUIRE ?V10
        REQUIRE ?V11
        REQUIRE ?V12
        REQUIRE ?V14
        REQUIRE ?V15
        MOV       A,#-0x18
        LCALL     ?BANKED_ENTER_XDATA
          CFI DPH0 load(1, XDATA, add(CFA_XSP16, literal(-1)))
          CFI DPL0 load(1, XDATA, add(CFA_XSP16, literal(-2)))
          CFI ?BRET_EXT load(1, XDATA, add(CFA_XSP16, literal(-3)))
          CFI ?RET_HIGH load(1, XDATA, add(CFA_XSP16, literal(-4)))
          CFI ?RET_LOW load(1, XDATA, add(CFA_XSP16, literal(-5)))
          CFI R7 load(1, XDATA, add(CFA_XSP16, literal(-6)))
          CFI V15 load(1, XDATA, add(CFA_XSP16, literal(-7)))
          CFI V14 load(1, XDATA, add(CFA_XSP16, literal(-8)))
          CFI V13 load(1, XDATA, add(CFA_XSP16, literal(-9)))
          CFI V12 load(1, XDATA, add(CFA_XSP16, literal(-10)))
          CFI V11 load(1, XDATA, add(CFA_XSP16, literal(-11)))
          CFI V10 load(1, XDATA, add(CFA_XSP16, literal(-12)))
          CFI V9 load(1, XDATA, add(CFA_XSP16, literal(-13)))
          CFI V8 load(1, XDATA, add(CFA_XSP16, literal(-14)))
          CFI V7 load(1, XDATA, add(CFA_XSP16, literal(-15)))
          CFI V6 load(1, XDATA, add(CFA_XSP16, literal(-16)))
          CFI V5 load(1, XDATA, add(CFA_XSP16, literal(-17)))
          CFI V4 load(1, XDATA, add(CFA_XSP16, literal(-18)))
          CFI V3 load(1, XDATA, add(CFA_XSP16, literal(-19)))
          CFI V2 load(1, XDATA, add(CFA_XSP16, literal(-20)))
          CFI V1 load(1, XDATA, add(CFA_XSP16, literal(-21)))
          CFI V0 load(1, XDATA, add(CFA_XSP16, literal(-22)))
          CFI VB load(1, XDATA, add(CFA_XSP16, literal(-23)))
          CFI R6 load(1, XDATA, add(CFA_XSP16, literal(-24)))
          CFI CFA_SP SP+0
          CFI CFA_XSP16 add(XSP16, 24)
        ; Saved register size: 24
        ; Auto size: 0
        MOV       ?V7,R1
        MOV       ?V14,R2
        MOV       ?V15,R3
        MOV       ?V0,R4
        MOV       ?V1,R5
        MOV       A,#0x18
        LCALL     ?XSTACK_DISP0_8
        MOVX      A,@DPTR
        MOV       ?V12,A
//  594   uint8 *buf;
//  595   uint8 bufLen = TOUCHLINK_CMDLEN_DEVICE_INFO_RSP;
        MOV       ?V6,#0x7
//  596   ZStatus_t status;
//  597 
//  598   // Calculate the total length needed
//  599   bufLen += ( pRsp->cnt * TOUCHLINK_CMDLENOPTIONAL_DEVICE_INFO_RSP );
        MOV       B,#0x10
        MOV       DPL,?V0
        MOV       DPH,?V1
        INC       DPTR
        INC       DPTR
        INC       DPTR
        INC       DPTR
        INC       DPTR
        INC       DPTR
        MOVX      A,@DPTR
        MUL       AB
        ADD       A,?V6
        MOV       ?V6,A
//  600 
//  601   buf = zcl_mem_alloc( bufLen );
        ; Setup parameters for call to function osal_mem_alloc
        MOV       A,?V6
        MOV       R2,A
        MOV       R3,#0x0
        LCALL     `??osal_mem_alloc::?relay`; Banked call to: osal_mem_alloc
        MOV       ?V2,R2
        MOV       ?V3,R3
        MOV       ?V8,?V2
        MOV       ?V9,?V3
//  602   if ( buf != NULL )
        MOV       A,?V8
        ORL       A,?V9
        JNZ       $+5
        LJMP      ??bdbTL_Send_DeviceInfoRsp_0 & 0xFFFF
//  603   {
//  604     uint8 *pBuf = buf;
        MOV       R6,?V8
        MOV       R7,?V9
//  605     uint8 i;
//  606 
//  607     pBuf = zcl_buffer_uint32( pBuf, pRsp->transID );
        ; Setup parameters for call to function osal_buffer_uint32
        MOV       DPL,?V0
        MOV       DPH,?V1
        LCALL     ?PUSH_XSTACK8_X_FOUR
          CFI CFA_XSP16 add(XSP16, 28)
        MOV       A,R6
        MOV       R2,A
        MOV       A,R7
        MOV       R3,A
        LCALL     `??osal_buffer_uint32::?relay`; Banked call to: osal_buffer_uint32
        MOV       A,#0x4
        LCALL     ?DEALLOC_XSTACK8
          CFI CFA_XSP16 add(XSP16, 24)
        MOV       ?V2,R2
        MOV       ?V3,R3
        MOV       R6,?V2
        MOV       R7,?V3
//  608 
//  609     *pBuf++ = pRsp->numSubDevices;
        MOV       DPL,?V0
        MOV       DPH,?V1
        INC       DPTR
        INC       DPTR
        INC       DPTR
        INC       DPTR
        MOVX      A,@DPTR
        PUSH      A
          CFI CFA_SP SP+-1
        MOV       DPL,R6
        MOV       DPH,R7
        POP       A
          CFI CFA_SP SP+0
        MOVX      @DPTR,A
        MOV       DPL,R6
        MOV       DPH,R7
        INC       DPTR
        MOV       R6,DPL
        MOV       R7,DPH
//  610     *pBuf++ = pRsp->startIndex;
        MOV       DPL,?V0
        MOV       DPH,?V1
        INC       DPTR
        INC       DPTR
        INC       DPTR
        INC       DPTR
        INC       DPTR
        MOVX      A,@DPTR
        PUSH      A
          CFI CFA_SP SP+-1
        MOV       DPL,R6
        MOV       DPH,R7
        POP       A
          CFI CFA_SP SP+0
        MOVX      @DPTR,A
        MOV       DPL,R6
        MOV       DPH,R7
        INC       DPTR
        MOV       R6,DPL
        MOV       R7,DPH
//  611     *pBuf++ = pRsp->cnt;
        MOV       DPL,?V0
        MOV       DPH,?V1
        INC       DPTR
        INC       DPTR
        INC       DPTR
        INC       DPTR
        INC       DPTR
        INC       DPTR
        MOVX      A,@DPTR
        PUSH      A
          CFI CFA_SP SP+-1
        MOV       DPL,R6
        MOV       DPH,R7
        POP       A
          CFI CFA_SP SP+0
        MOVX      @DPTR,A
        MOV       DPL,R6
        MOV       DPH,R7
        INC       DPTR
        MOV       R6,DPL
        MOV       R7,DPH
//  612 
//  613     // Device information record
//  614     for ( i = 0; i < pRsp->cnt; i++ )
        MOV       ?V4,#0x0
??bdbTL_Send_DeviceInfoRsp_1:
        MOV       DPL,?V0
        MOV       DPH,?V1
        INC       DPTR
        INC       DPTR
        INC       DPTR
        INC       DPTR
        INC       DPTR
        INC       DPTR
        MOVX      A,@DPTR
        MOV       R0,A
        MOV       A,?V4
        CLR       C
        SUBB      A,R0
        JC        $+5
        LJMP      ??bdbTL_Send_DeviceInfoRsp_2 & 0xFFFF
//  615     {
//  616       devInfoRec_t *pRec = &(pRsp->devInfoRec[i]);
        MOV       A,?V4
        MOV       R0,A
        MOV       R1,#0x0
        MOV       A,R0
        MOV       B,#0x10
        MUL       AB
        XCH       A,R0
        MOV       R2,B
        MOV       B,#0x0
        MUL       AB
        ADD       A,R2
        MOV       R2,A
        MOV       B,#0x10
        MOV       A,R1
        MUL       AB
        ADD       A,R2
        MOV       R1,A
        MOV       A,?V0
        ADD       A,R0
        MOV       R0,A
        MOV       A,?V1
        ADDC      A,R1
        MOV       R1,A
        MOV       A,R0
        ADD       A,#0x7
        MOV       ?V2,A
        CLR       A
        ADDC      A,R1
        MOV       ?V3,A
//  617 
//  618       pBuf = zcl_cpyExtAddr( pBuf, pRec->ieeeAddr );
        ; Setup parameters for call to function sAddrExtCpy
        MOV       R4,?V2
        MOV       R5,?V3
        MOV       A,R6
        MOV       R2,A
        MOV       A,R7
        MOV       R3,A
        LCALL     `??sAddrExtCpy::?relay`; Banked call to: sAddrExtCpy
        MOV       ?V10,R2
        MOV       ?V11,R3
        MOV       R6,?V10
        MOV       R7,?V11
//  619 
//  620       *pBuf++ = pRec->deviceInfo.endpoint;
        MOV       DPL,?V2
        MOV       DPH,?V3
        INC       DPTR
        INC       DPTR
        INC       DPTR
        INC       DPTR
        INC       DPTR
        INC       DPTR
        INC       DPTR
        INC       DPTR
        MOVX      A,@DPTR
        PUSH      A
          CFI CFA_SP SP+-1
        MOV       DPL,R6
        MOV       DPH,R7
        POP       A
          CFI CFA_SP SP+0
        MOVX      @DPTR,A
        MOV       DPL,R6
        MOV       DPH,R7
        INC       DPTR
        MOV       R6,DPL
        MOV       R7,DPH
//  621 
//  622       *pBuf++ = LO_UINT16( pRec->deviceInfo.profileID );
        MOV       DPL,?V2
        MOV       DPH,?V3
        INC       DPTR
        INC       DPTR
        INC       DPTR
        INC       DPTR
        INC       DPTR
        INC       DPTR
        INC       DPTR
        INC       DPTR
        INC       DPTR
        MOVX      A,@DPTR
        MOV       R0,A
        INC       DPTR
        MOVX      A,@DPTR
        MOV       R1,A
        MOV       A,R0
        PUSH      A
          CFI CFA_SP SP+-1
        MOV       DPL,R6
        MOV       DPH,R7
        POP       A
          CFI CFA_SP SP+0
        MOVX      @DPTR,A
        MOV       DPL,R6
        MOV       DPH,R7
        INC       DPTR
        MOV       R6,DPL
        MOV       R7,DPH
//  623       *pBuf++ = HI_UINT16( pRec->deviceInfo.profileID );
        MOV       DPL,?V2
        MOV       DPH,?V3
        INC       DPTR
        INC       DPTR
        INC       DPTR
        INC       DPTR
        INC       DPTR
        INC       DPTR
        INC       DPTR
        INC       DPTR
        INC       DPTR
        MOVX      A,@DPTR
        MOV       R0,A
        INC       DPTR
        MOVX      A,@DPTR
        MOV       R1,A
        CLR       A
        XCH       A,R1
        MOV       R0,A
        MOV       A,R0
        PUSH      A
          CFI CFA_SP SP+-1
        MOV       DPL,R6
        MOV       DPH,R7
        POP       A
          CFI CFA_SP SP+0
        MOVX      @DPTR,A
        MOV       DPL,R6
        MOV       DPH,R7
        INC       DPTR
        MOV       R6,DPL
        MOV       R7,DPH
//  624 
//  625       *pBuf++ = LO_UINT16( pRec->deviceInfo.deviceID );
        MOV       A,?V2
        ADD       A,#0xb
        MOV       DPL,A
        CLR       A
        ADDC      A,?V3
        MOV       DPH,A
        MOVX      A,@DPTR
        MOV       R0,A
        INC       DPTR
        MOVX      A,@DPTR
        MOV       R1,A
        MOV       A,R0
        PUSH      A
          CFI CFA_SP SP+-1
        MOV       DPL,R6
        MOV       DPH,R7
        POP       A
          CFI CFA_SP SP+0
        MOVX      @DPTR,A
        MOV       DPL,R6
        MOV       DPH,R7
        INC       DPTR
        MOV       R6,DPL
        MOV       R7,DPH
//  626       *pBuf++ = HI_UINT16( pRec->deviceInfo.deviceID );
        MOV       A,?V2
        ADD       A,#0xb
        MOV       DPL,A
        CLR       A
        ADDC      A,?V3
        MOV       DPH,A
        MOVX      A,@DPTR
        MOV       R0,A
        INC       DPTR
        MOVX      A,@DPTR
        MOV       R1,A
        CLR       A
        XCH       A,R1
        MOV       R0,A
        MOV       A,R0
        PUSH      A
          CFI CFA_SP SP+-1
        MOV       DPL,R6
        MOV       DPH,R7
        POP       A
          CFI CFA_SP SP+0
        MOVX      @DPTR,A
        MOV       DPL,R6
        MOV       DPH,R7
        INC       DPTR
        MOV       R6,DPL
        MOV       R7,DPH
//  627 
//  628       *pBuf++ = pRec->deviceInfo.version;
        MOV       A,?V2
        ADD       A,#0xd
        MOV       DPL,A
        CLR       A
        ADDC      A,?V3
        MOV       DPH,A
        MOVX      A,@DPTR
        PUSH      A
          CFI CFA_SP SP+-1
        MOV       DPL,R6
        MOV       DPH,R7
        POP       A
          CFI CFA_SP SP+0
        MOVX      @DPTR,A
        MOV       DPL,R6
        MOV       DPH,R7
        INC       DPTR
        MOV       R6,DPL
        MOV       R7,DPH
//  629       *pBuf++ = pRec->deviceInfo.grpIdCnt;
        MOV       A,?V2
        ADD       A,#0xe
        MOV       DPL,A
        CLR       A
        ADDC      A,?V3
        MOV       DPH,A
        MOVX      A,@DPTR
        PUSH      A
          CFI CFA_SP SP+-1
        MOV       DPL,R6
        MOV       DPH,R7
        POP       A
          CFI CFA_SP SP+0
        MOVX      @DPTR,A
        MOV       DPL,R6
        MOV       DPH,R7
        INC       DPTR
        MOV       R6,DPL
        MOV       R7,DPH
//  630 
//  631       *pBuf++ = pRec->sort;
        MOV       A,?V2
        ADD       A,#0xf
        MOV       DPL,A
        CLR       A
        ADDC      A,?V3
        MOV       DPH,A
        MOVX      A,@DPTR
        PUSH      A
          CFI CFA_SP SP+-1
        MOV       DPL,R6
        MOV       DPH,R7
        POP       A
          CFI CFA_SP SP+0
        MOVX      @DPTR,A
        MOV       DPL,R6
        MOV       DPH,R7
        INC       DPTR
        MOV       R6,DPL
        MOV       R7,DPH
//  632     }
        INC       ?V4
        LJMP      ??bdbTL_Send_DeviceInfoRsp_1 & 0xFFFF
//  633 
//  634     status = bdbTL_SendInterPANCommand( srcEP, dstAddr, COMMAND_TOUCHLINK_DEVICE_INFO_RSP,
//  635                                         ZCL_FRAME_SERVER_CLIENT_DIR, seqNum, bufLen, buf );
??bdbTL_Send_DeviceInfoRsp_2:
        ; Setup parameters for call to function bdbTL_SendInterPANCommand
        MOV       R0,#?V8
        LCALL     ?PUSH_XSTACK_I_TWO
          CFI CFA_XSP16 add(XSP16, 26)
        MOV       A,?V6
        MOV       ?V2,A
        MOV       ?V3,#0x0
        MOV       R0,#?V2
        LCALL     ?PUSH_XSTACK_I_TWO
          CFI CFA_XSP16 add(XSP16, 28)
        MOV       A,?V12
        MOV       ?V2,A
        MOV       R0,#?V2
        LCALL     ?PUSH_XSTACK_I_ONE
          CFI CFA_XSP16 add(XSP16, 29)
        MOV       R5,#0x1
        MOV       R4,#0x3
        MOV       R2,?V14
        MOV       R3,?V15
        MOV       R1,?V7
        LCALL     `??bdbTL_SendInterPANCommand::?relay`; Banked call to: bdbTL_SendInterPANCommand
        MOV       A,#0x5
        LCALL     ?DEALLOC_XSTACK8
          CFI CFA_XSP16 add(XSP16, 24)
        MOV       A,R1
        MOV       ?V5,A
//  636     zcl_mem_free( buf );
        ; Setup parameters for call to function osal_mem_free
        MOV       R2,?V8
        MOV       R3,?V9
        LCALL     `??osal_mem_free::?relay`; Banked call to: osal_mem_free
        SJMP      ??bdbTL_Send_DeviceInfoRsp_3
//  637   }
//  638   else
//  639   {
//  640     status = ZMemError;
??bdbTL_Send_DeviceInfoRsp_0:
        MOV       ?V5,#0x10
//  641   }
//  642 
//  643   return ( status );
??bdbTL_Send_DeviceInfoRsp_3:
        MOV       R1,?V5
        MOV       R7,#0x10
        LJMP      ?BANKED_LEAVE_XDATA
//  644 }
          CFI EndBlock cfiBlock10
//  645 
//  646 /*********************************************************************
//  647  * @fn      bdbTL_Send_NwkStartRsp
//  648  *
//  649  * @brief   Call to send out a Network Start Response command
//  650  *
//  651  * @param   srcEP - sending application's endpoint
//  652  * @param   dstAddr - where you want the message to go
//  653  * @param   pRsp - response parameters
//  654  * @param   seqNum - sequence number
//  655  *
//  656  * @return  ZStatus_t
//  657  */

        RSEG BANKED_CODE:HUGECODE:NOROOT(0)
//  658 ZStatus_t bdbTL_Send_NwkStartRsp( uint8 srcEP, afAddrType_t *dstAddr,
bdbTL_Send_NwkStartRsp:
          CFI Block cfiBlock11 Using cfiCommon0
          CFI Function bdbTL_Send_NwkStartRsp
        CODE
//  659                                   bdbTLNwkStartRsp_t *pRsp, uint8 seqNum )
//  660 {
        FUNCALL bdbTL_Send_NwkStartRsp, osal_mem_alloc
        LOCFRAME ISTACK, 0, STACK
        LOCFRAME PSTACK, 0, STACK
        LOCFRAME XSTACK, 20, STACK
        LOCFRAME IOVERLAY, 0, STATIC
        LOCFRAME DOVERLAY, 0, STATIC
        ARGFRAME ISTACK, 0, STACK
        ARGFRAME PSTACK, 0, STACK
        ARGFRAME XSTACK, 20, STACK
        ARGFRAME IOVERLAY, 0, STATIC
        ARGFRAME DOVERLAY, 0, STATIC
        FUNCALL bdbTL_Send_NwkStartRsp, osal_buffer_uint32
        LOCFRAME ISTACK, 0, STACK
        LOCFRAME PSTACK, 0, STACK
        LOCFRAME XSTACK, 24, STACK
        LOCFRAME IOVERLAY, 0, STATIC
        LOCFRAME DOVERLAY, 0, STATIC
        ARGFRAME ISTACK, 0, STACK
        ARGFRAME PSTACK, 0, STACK
        ARGFRAME XSTACK, 24, STACK
        ARGFRAME IOVERLAY, 0, STATIC
        ARGFRAME DOVERLAY, 0, STATIC
        FUNCALL bdbTL_Send_NwkStartRsp, sAddrExtCpy
        LOCFRAME ISTACK, 0, STACK
        LOCFRAME PSTACK, 0, STACK
        LOCFRAME XSTACK, 20, STACK
        LOCFRAME IOVERLAY, 0, STATIC
        LOCFRAME DOVERLAY, 0, STATIC
        ARGFRAME ISTACK, 0, STACK
        ARGFRAME PSTACK, 0, STACK
        ARGFRAME XSTACK, 20, STACK
        ARGFRAME IOVERLAY, 0, STATIC
        ARGFRAME DOVERLAY, 0, STATIC
        FUNCALL bdbTL_Send_NwkStartRsp, bdbTL_SendInterPANCommand
        LOCFRAME ISTACK, 0, STACK
        LOCFRAME PSTACK, 0, STACK
        LOCFRAME XSTACK, 25, STACK
        LOCFRAME IOVERLAY, 0, STATIC
        LOCFRAME DOVERLAY, 0, STATIC
        ARGFRAME ISTACK, 0, STACK
        ARGFRAME PSTACK, 0, STACK
        ARGFRAME XSTACK, 25, STACK
        ARGFRAME IOVERLAY, 0, STATIC
        ARGFRAME DOVERLAY, 0, STATIC
        FUNCALL bdbTL_Send_NwkStartRsp, osal_mem_free
        LOCFRAME ISTACK, 0, STACK
        LOCFRAME PSTACK, 0, STACK
        LOCFRAME XSTACK, 20, STACK
        LOCFRAME IOVERLAY, 0, STATIC
        LOCFRAME DOVERLAY, 0, STATIC
        ARGFRAME ISTACK, 0, STACK
        ARGFRAME PSTACK, 0, STACK
        ARGFRAME XSTACK, 20, STACK
        ARGFRAME IOVERLAY, 0, STATIC
        ARGFRAME DOVERLAY, 0, STATIC
        REQUIRE ?V0
        REQUIRE ?V1
        REQUIRE ?V2
        REQUIRE ?V3
        REQUIRE ?V4
        REQUIRE ?V5
        REQUIRE ?V6
        REQUIRE ?V7
        REQUIRE ?V8
        REQUIRE ?V9
        REQUIRE ?V10
        REQUIRE ?V11
        MOV       A,#-0x14
        LCALL     ?BANKED_ENTER_XDATA
          CFI DPH0 load(1, XDATA, add(CFA_XSP16, literal(-1)))
          CFI DPL0 load(1, XDATA, add(CFA_XSP16, literal(-2)))
          CFI ?BRET_EXT load(1, XDATA, add(CFA_XSP16, literal(-3)))
          CFI ?RET_HIGH load(1, XDATA, add(CFA_XSP16, literal(-4)))
          CFI ?RET_LOW load(1, XDATA, add(CFA_XSP16, literal(-5)))
          CFI R7 load(1, XDATA, add(CFA_XSP16, literal(-6)))
          CFI V11 load(1, XDATA, add(CFA_XSP16, literal(-7)))
          CFI V10 load(1, XDATA, add(CFA_XSP16, literal(-8)))
          CFI V9 load(1, XDATA, add(CFA_XSP16, literal(-9)))
          CFI V8 load(1, XDATA, add(CFA_XSP16, literal(-10)))
          CFI V7 load(1, XDATA, add(CFA_XSP16, literal(-11)))
          CFI V6 load(1, XDATA, add(CFA_XSP16, literal(-12)))
          CFI V5 load(1, XDATA, add(CFA_XSP16, literal(-13)))
          CFI V4 load(1, XDATA, add(CFA_XSP16, literal(-14)))
          CFI V3 load(1, XDATA, add(CFA_XSP16, literal(-15)))
          CFI V2 load(1, XDATA, add(CFA_XSP16, literal(-16)))
          CFI V1 load(1, XDATA, add(CFA_XSP16, literal(-17)))
          CFI V0 load(1, XDATA, add(CFA_XSP16, literal(-18)))
          CFI VB load(1, XDATA, add(CFA_XSP16, literal(-19)))
          CFI R6 load(1, XDATA, add(CFA_XSP16, literal(-20)))
          CFI CFA_SP SP+0
          CFI CFA_XSP16 add(XSP16, 20)
        ; Saved register size: 20
        ; Auto size: 0
        MOV       ?V3,R1
        MOV       ?V6,R2
        MOV       ?V7,R3
        MOV       A,R4
        MOV       R6,A
        MOV       A,R5
        MOV       R7,A
        MOV       A,#0x14
        LCALL     ?XSTACK_DISP0_8
        MOVX      A,@DPTR
        MOV       ?V4,A
//  661   uint8 *buf;
//  662   ZStatus_t status;
//  663 
//  664   buf = zcl_mem_alloc( TOUCHLINK_CMDLEN_NWK_START_RSP );
        ; Setup parameters for call to function osal_mem_alloc
        MOV       R2,#0x11
        MOV       R3,#0x0
        LCALL     `??osal_mem_alloc::?relay`; Banked call to: osal_mem_alloc
        MOV       ?V0,R2
        MOV       ?V1,R3
        MOV       ?V8,?V0
        MOV       ?V9,?V1
//  665   if ( buf != NULL )
        MOV       A,?V8
        ORL       A,?V9
        JNZ       $+5
        LJMP      ??bdbTL_Send_NwkStartRsp_0 & 0xFFFF
//  666   {
//  667     uint8 *pBuf = buf;
        MOV       ?V0,?V8
        MOV       ?V1,?V9
//  668 
//  669     pBuf = zcl_buffer_uint32( pBuf, pRsp->transID );
        ; Setup parameters for call to function osal_buffer_uint32
        MOV       DPL,R6
        MOV       DPH,R7
        LCALL     ?PUSH_XSTACK8_X_FOUR
          CFI CFA_XSP16 add(XSP16, 24)
        MOV       R2,?V0
        MOV       R3,?V1
        LCALL     `??osal_buffer_uint32::?relay`; Banked call to: osal_buffer_uint32
        MOV       A,#0x4
        LCALL     ?DEALLOC_XSTACK8
          CFI CFA_XSP16 add(XSP16, 20)
        MOV       ?V10,R2
        MOV       ?V11,R3
        MOV       ?V0,?V10
        MOV       ?V1,?V11
//  670 
//  671     *pBuf++ = pRsp->status;
        MOV       DPL,R6
        MOV       DPH,R7
        INC       DPTR
        INC       DPTR
        INC       DPTR
        INC       DPTR
        MOVX      A,@DPTR
        PUSH      A
          CFI CFA_SP SP+-1
        MOV       DPL,?V0
        MOV       DPH,?V1
        POP       A
          CFI CFA_SP SP+0
        MOVX      @DPTR,A
        MOV       DPL,?V0
        MOV       DPH,?V1
        INC       DPTR
        MOV       ?V0,DPL
        MOV       ?V1,DPH
//  672 
//  673     pBuf = zcl_cpyExtAddr( pBuf, pRsp->extendedPANID );
        ; Setup parameters for call to function sAddrExtCpy
        MOV       A,R6
        ADD       A,#0x5
        MOV       R4,A
        CLR       A
        ADDC      A,R7
        MOV       R5,A
        MOV       R2,?V0
        MOV       R3,?V1
        LCALL     `??sAddrExtCpy::?relay`; Banked call to: sAddrExtCpy
        MOV       ?V10,R2
        MOV       ?V11,R3
        MOV       ?V0,?V10
        MOV       ?V1,?V11
//  674 
//  675     *pBuf++ = pRsp->nwkUpdateId;
        MOV       A,R6
        ADD       A,#0xd
        MOV       DPL,A
        CLR       A
        ADDC      A,R7
        MOV       DPH,A
        MOVX      A,@DPTR
        PUSH      A
          CFI CFA_SP SP+-1
        MOV       DPL,?V0
        MOV       DPH,?V1
        POP       A
          CFI CFA_SP SP+0
        MOVX      @DPTR,A
        MOV       DPL,?V0
        MOV       DPH,?V1
        INC       DPTR
        MOV       ?V0,DPL
        MOV       ?V1,DPH
//  676     *pBuf++ = pRsp->logicalChannel;
        MOV       A,R6
        ADD       A,#0xe
        MOV       DPL,A
        CLR       A
        ADDC      A,R7
        MOV       DPH,A
        MOVX      A,@DPTR
        PUSH      A
          CFI CFA_SP SP+-1
        MOV       DPL,?V0
        MOV       DPH,?V1
        POP       A
          CFI CFA_SP SP+0
        MOVX      @DPTR,A
        MOV       DPL,?V0
        MOV       DPH,?V1
        INC       DPTR
        MOV       ?V0,DPL
        MOV       ?V1,DPH
//  677 
//  678     *pBuf++ = LO_UINT16( pRsp->panId );
        MOV       A,R6
        ADD       A,#0xf
        MOV       DPL,A
        CLR       A
        ADDC      A,R7
        MOV       DPH,A
        MOVX      A,@DPTR
        MOV       R0,A
        INC       DPTR
        MOVX      A,@DPTR
        MOV       R1,A
        MOV       A,R0
        PUSH      A
          CFI CFA_SP SP+-1
        MOV       DPL,?V0
        MOV       DPH,?V1
        POP       A
          CFI CFA_SP SP+0
        MOVX      @DPTR,A
        MOV       DPL,?V0
        MOV       DPH,?V1
        INC       DPTR
        MOV       ?V0,DPL
        MOV       ?V1,DPH
//  679     *pBuf++ = HI_UINT16( pRsp->panId );
        MOV       A,R6
        ADD       A,#0xf
        MOV       DPL,A
        CLR       A
        ADDC      A,R7
        MOV       DPH,A
        MOVX      A,@DPTR
        MOV       R0,A
        INC       DPTR
        MOVX      A,@DPTR
        MOV       R1,A
        CLR       A
        XCH       A,R1
        MOV       R0,A
        MOV       A,R0
        PUSH      A
          CFI CFA_SP SP+-1
        MOV       DPL,?V0
        MOV       DPH,?V1
        POP       A
          CFI CFA_SP SP+0
        MOVX      @DPTR,A
        MOV       DPL,?V0
        MOV       DPH,?V1
        INC       DPTR
        MOV       ?V0,DPL
        MOV       ?V1,DPH
//  680 
//  681     status = bdbTL_SendInterPANCommand( srcEP, dstAddr, COMMAND_TOUCHLINK_NWK_START_RSP,
//  682                                         ZCL_FRAME_SERVER_CLIENT_DIR, seqNum, TOUCHLINK_CMDLEN_NWK_START_RSP, buf );
        ; Setup parameters for call to function bdbTL_SendInterPANCommand
        MOV       R0,#?V8
        LCALL     ?PUSH_XSTACK_I_TWO
          CFI CFA_XSP16 add(XSP16, 22)
        MOV       ?V10,#0x11
        MOV       ?V11,#0x0
        MOV       R0,#?V10
        LCALL     ?PUSH_XSTACK_I_TWO
          CFI CFA_XSP16 add(XSP16, 24)
        MOV       A,?V4
        MOV       ?V5,A
        MOV       R0,#?V5
        LCALL     ?PUSH_XSTACK_I_ONE
          CFI CFA_XSP16 add(XSP16, 25)
        MOV       R5,#0x1
        MOV       R4,#0x11
        MOV       R2,?V6
        MOV       R3,?V7
        MOV       R1,?V3
        LCALL     `??bdbTL_SendInterPANCommand::?relay`; Banked call to: bdbTL_SendInterPANCommand
        MOV       A,#0x5
        LCALL     ?DEALLOC_XSTACK8
          CFI CFA_XSP16 add(XSP16, 20)
        MOV       A,R1
        MOV       ?V2,A
//  683     zcl_mem_free( buf );
        ; Setup parameters for call to function osal_mem_free
        MOV       R2,?V8
        MOV       R3,?V9
        LCALL     `??osal_mem_free::?relay`; Banked call to: osal_mem_free
        SJMP      ??bdbTL_Send_NwkStartRsp_1
//  684   }
//  685   else
//  686   {
//  687     status = ZMemError;
??bdbTL_Send_NwkStartRsp_0:
        MOV       ?V2,#0x10
//  688   }
//  689 
//  690   return ( status );
??bdbTL_Send_NwkStartRsp_1:
        MOV       R1,?V2
        MOV       R7,#0xc
        LJMP      ?BANKED_LEAVE_XDATA
//  691 }
          CFI EndBlock cfiBlock11
//  692 
//  693 /*********************************************************************
//  694  * @fn      bdbTL_Send_NwkJoinRsp
//  695  *
//  696  * @brief   Call to send out a Network Join Response command
//  697  *
//  698  * @param   srcEP - sending application's endpoint
//  699  * @param   dstAddr - where you want the message to go
//  700  * @param   pRsp - response parameters
//  701  * @param   cmd - COMMAND_TOUCHLINK_NWK_JOIN_RTR_RSP or COMMAND_TOUCHLINK_NWK_JOIN_ED_RSP
//  702  * @param   seqNum - sequence number
//  703  *
//  704  * @return  ZStatus_t
//  705  */

        RSEG BANKED_CODE:HUGECODE:NOROOT(0)
//  706 ZStatus_t bdbTL_Send_NwkJoinRsp( uint8 srcEP, afAddrType_t *dstAddr,
bdbTL_Send_NwkJoinRsp:
          CFI Block cfiBlock12 Using cfiCommon0
          CFI Function bdbTL_Send_NwkJoinRsp
        CODE
//  707                                  bdbTLNwkJoinRsp_t *pRsp, uint8 cmd, uint8 seqNum )
//  708 {
        FUNCALL bdbTL_Send_NwkJoinRsp, osal_buffer_uint32
        LOCFRAME ISTACK, 0, STACK
        LOCFRAME PSTACK, 0, STACK
        LOCFRAME XSTACK, 27, STACK
        LOCFRAME IOVERLAY, 0, STATIC
        LOCFRAME DOVERLAY, 0, STATIC
        ARGFRAME ISTACK, 0, STACK
        ARGFRAME PSTACK, 0, STACK
        ARGFRAME XSTACK, 27, STACK
        ARGFRAME IOVERLAY, 0, STATIC
        ARGFRAME DOVERLAY, 0, STATIC
        FUNCALL bdbTL_Send_NwkJoinRsp, bdbTL_SendInterPANCommand
        LOCFRAME ISTACK, 0, STACK
        LOCFRAME PSTACK, 0, STACK
        LOCFRAME XSTACK, 28, STACK
        LOCFRAME IOVERLAY, 0, STATIC
        LOCFRAME DOVERLAY, 0, STATIC
        ARGFRAME ISTACK, 0, STACK
        ARGFRAME PSTACK, 0, STACK
        ARGFRAME XSTACK, 28, STACK
        ARGFRAME IOVERLAY, 0, STATIC
        ARGFRAME DOVERLAY, 0, STATIC
        REQUIRE ?V0
        REQUIRE ?V1
        REQUIRE ?V2
        REQUIRE ?V3
        REQUIRE ?V4
        REQUIRE ?V5
        REQUIRE ?V6
        REQUIRE ?V7
        REQUIRE ?V8
        REQUIRE ?V9
        MOV       A,#-0x12
        LCALL     ?BANKED_ENTER_XDATA
          CFI DPH0 load(1, XDATA, add(CFA_XSP16, literal(-1)))
          CFI DPL0 load(1, XDATA, add(CFA_XSP16, literal(-2)))
          CFI ?BRET_EXT load(1, XDATA, add(CFA_XSP16, literal(-3)))
          CFI ?RET_HIGH load(1, XDATA, add(CFA_XSP16, literal(-4)))
          CFI ?RET_LOW load(1, XDATA, add(CFA_XSP16, literal(-5)))
          CFI R7 load(1, XDATA, add(CFA_XSP16, literal(-6)))
          CFI V9 load(1, XDATA, add(CFA_XSP16, literal(-7)))
          CFI V8 load(1, XDATA, add(CFA_XSP16, literal(-8)))
          CFI V7 load(1, XDATA, add(CFA_XSP16, literal(-9)))
          CFI V6 load(1, XDATA, add(CFA_XSP16, literal(-10)))
          CFI V5 load(1, XDATA, add(CFA_XSP16, literal(-11)))
          CFI V4 load(1, XDATA, add(CFA_XSP16, literal(-12)))
          CFI V3 load(1, XDATA, add(CFA_XSP16, literal(-13)))
          CFI V2 load(1, XDATA, add(CFA_XSP16, literal(-14)))
          CFI V1 load(1, XDATA, add(CFA_XSP16, literal(-15)))
          CFI V0 load(1, XDATA, add(CFA_XSP16, literal(-16)))
          CFI VB load(1, XDATA, add(CFA_XSP16, literal(-17)))
          CFI R6 load(1, XDATA, add(CFA_XSP16, literal(-18)))
          CFI CFA_SP SP+0
          CFI CFA_XSP16 add(XSP16, 18)
        ; Saved register size: 18
        ; Auto size: 5
        MOV       A,#-0x5
        LCALL     ?ALLOC_XSTACK8
          CFI CFA_XSP16 add(XSP16, 23)
        MOV       ?V1,R1
        MOV       ?V2,R2
        MOV       ?V3,R3
        MOV       A,R4
        MOV       R6,A
        MOV       A,R5
        MOV       R7,A
        MOV       A,#0x17
        LCALL     ?XSTACK_DISP0_8
        MOVX      A,@DPTR
        MOV       ?V4,A
        MOV       A,#0x18
        LCALL     ?XSTACK_DISP0_8
        MOVX      A,@DPTR
        MOV       ?V0,A
//  709   uint8 buf[TOUCHLINK_CMDLEN_NWK_JOIN_RSP];
//  710 
//  711   VOID zcl_buffer_uint32( buf, pRsp->transID );
        ; Setup parameters for call to function osal_buffer_uint32
        MOV       DPL,R6
        MOV       DPH,R7
        LCALL     ?PUSH_XSTACK8_X_FOUR
          CFI CFA_XSP16 add(XSP16, 27)
        MOV       A,#0x4
        LCALL     ?XSTACK_DISP101_8
        LCALL     `??osal_buffer_uint32::?relay`; Banked call to: osal_buffer_uint32
        MOV       A,#0x4
        LCALL     ?DEALLOC_XSTACK8
          CFI CFA_XSP16 add(XSP16, 23)
        MOV       ?V8,R2
        MOV       ?V9,R3
        MOV       ?V6,?V8
        MOV       ?V7,?V9
//  712 
//  713   buf[4] = pRsp->status;
        MOV       DPL,R6
        MOV       DPH,R7
        INC       DPTR
        INC       DPTR
        INC       DPTR
        INC       DPTR
        MOVX      A,@DPTR
        PUSH      A
          CFI CFA_SP SP+-1
        MOV       A,#0x4
        LCALL     ?XSTACK_DISP0_8
        POP       A
          CFI CFA_SP SP+0
        MOVX      @DPTR,A
//  714 
//  715   return bdbTL_SendInterPANCommand( srcEP, dstAddr, cmd, ZCL_FRAME_SERVER_CLIENT_DIR, seqNum,
//  716                                     TOUCHLINK_CMDLEN_NWK_JOIN_RSP, buf );
        ; Setup parameters for call to function bdbTL_SendInterPANCommand
        MOV       R0,?XSP + 0
        MOV       R1,?XSP + 1
        MOV       ?V8,R0
        MOV       ?V9,R1
        MOV       R0,#?V8
        LCALL     ?PUSH_XSTACK_I_TWO
          CFI CFA_XSP16 add(XSP16, 25)
        MOV       ?V8,#0x5
        MOV       ?V9,#0x0
        MOV       R0,#?V8
        LCALL     ?PUSH_XSTACK_I_TWO
          CFI CFA_XSP16 add(XSP16, 27)
        MOV       A,?V0
        MOV       ?V5,A
        MOV       R0,#?V5
        LCALL     ?PUSH_XSTACK_I_ONE
          CFI CFA_XSP16 add(XSP16, 28)
        MOV       R5,#0x1
        MOV       R4,?V4
        MOV       R2,?V2
        MOV       R3,?V3
        MOV       R1,?V1
        LCALL     `??bdbTL_SendInterPANCommand::?relay`; Banked call to: bdbTL_SendInterPANCommand
        MOV       A,#0x5
        LCALL     ?DEALLOC_XSTACK8
          CFI CFA_XSP16 add(XSP16, 23)
        MOV       A,#0x5
        LCALL     ?DEALLOC_XSTACK8
          CFI CFA_XSP16 add(XSP16, 18)
        MOV       R7,#0xa
        LJMP      ?BANKED_LEAVE_XDATA
//  717 }
          CFI EndBlock cfiBlock12
//  718 
//  719 /*********************************************************************
//  720  * @fn      bdbTL_Send_EndpointInfo
//  721  *
//  722  * @brief   Call to send out an Endpoint Information command
//  723  *
//  724  * @param   srcEP - sending application's endpoint
//  725  * @param   dstAddr - where you want the message to go
//  726  * @param   pCmd - cmd parameters
//  727  * @param   disableDefaultRsp - whether to disable the Default Response command
//  728  * @param   seqNum - sequence number
//  729  *
//  730  * @return  ZStatus_t
//  731  */

        RSEG BANKED_CODE:HUGECODE:NOROOT(0)
//  732 ZStatus_t bdbTL_Send_EndpointInfo( uint8 srcEP, afAddrType_t *dstAddr,
bdbTL_Send_EndpointInfo:
          CFI Block cfiBlock13 Using cfiCommon0
          CFI Function bdbTL_Send_EndpointInfo
        CODE
//  733                                    bdbTLEndpointInfo_t *pCmd,
//  734                                    uint8 disableDefaultRsp, uint8 seqNum )
//  735 {
        FUNCALL bdbTL_Send_EndpointInfo, osal_mem_alloc
        LOCFRAME ISTACK, 0, STACK
        LOCFRAME PSTACK, 0, STACK
        LOCFRAME XSTACK, 20, STACK
        LOCFRAME IOVERLAY, 0, STATIC
        LOCFRAME DOVERLAY, 0, STATIC
        ARGFRAME ISTACK, 0, STACK
        ARGFRAME PSTACK, 0, STACK
        ARGFRAME XSTACK, 20, STACK
        ARGFRAME IOVERLAY, 0, STATIC
        ARGFRAME DOVERLAY, 0, STATIC
        FUNCALL bdbTL_Send_EndpointInfo, sAddrExtCpy
        LOCFRAME ISTACK, 0, STACK
        LOCFRAME PSTACK, 0, STACK
        LOCFRAME XSTACK, 20, STACK
        LOCFRAME IOVERLAY, 0, STATIC
        LOCFRAME DOVERLAY, 0, STATIC
        ARGFRAME ISTACK, 0, STACK
        ARGFRAME PSTACK, 0, STACK
        ARGFRAME XSTACK, 20, STACK
        ARGFRAME IOVERLAY, 0, STATIC
        ARGFRAME DOVERLAY, 0, STATIC
        FUNCALL bdbTL_Send_EndpointInfo, zcl_SendCommand
        LOCFRAME ISTACK, 0, STACK
        LOCFRAME PSTACK, 0, STACK
        LOCFRAME XSTACK, 31, STACK
        LOCFRAME IOVERLAY, 0, STATIC
        LOCFRAME DOVERLAY, 0, STATIC
        ARGFRAME ISTACK, 0, STACK
        ARGFRAME PSTACK, 0, STACK
        ARGFRAME XSTACK, 31, STACK
        ARGFRAME IOVERLAY, 0, STATIC
        ARGFRAME DOVERLAY, 0, STATIC
        FUNCALL bdbTL_Send_EndpointInfo, osal_mem_free
        LOCFRAME ISTACK, 0, STACK
        LOCFRAME PSTACK, 0, STACK
        LOCFRAME XSTACK, 20, STACK
        LOCFRAME IOVERLAY, 0, STATIC
        LOCFRAME DOVERLAY, 0, STATIC
        ARGFRAME ISTACK, 0, STACK
        ARGFRAME PSTACK, 0, STACK
        ARGFRAME XSTACK, 20, STACK
        ARGFRAME IOVERLAY, 0, STATIC
        ARGFRAME DOVERLAY, 0, STATIC
        REQUIRE ?V0
        REQUIRE ?V1
        REQUIRE ?V2
        REQUIRE ?V3
        REQUIRE ?V4
        REQUIRE ?V5
        REQUIRE ?V6
        REQUIRE ?V7
        REQUIRE ?V8
        REQUIRE ?V9
        REQUIRE ?V10
        REQUIRE ?V11
        MOV       A,#-0x14
        LCALL     ?BANKED_ENTER_XDATA
          CFI DPH0 load(1, XDATA, add(CFA_XSP16, literal(-1)))
          CFI DPL0 load(1, XDATA, add(CFA_XSP16, literal(-2)))
          CFI ?BRET_EXT load(1, XDATA, add(CFA_XSP16, literal(-3)))
          CFI ?RET_HIGH load(1, XDATA, add(CFA_XSP16, literal(-4)))
          CFI ?RET_LOW load(1, XDATA, add(CFA_XSP16, literal(-5)))
          CFI R7 load(1, XDATA, add(CFA_XSP16, literal(-6)))
          CFI V11 load(1, XDATA, add(CFA_XSP16, literal(-7)))
          CFI V10 load(1, XDATA, add(CFA_XSP16, literal(-8)))
          CFI V9 load(1, XDATA, add(CFA_XSP16, literal(-9)))
          CFI V8 load(1, XDATA, add(CFA_XSP16, literal(-10)))
          CFI V7 load(1, XDATA, add(CFA_XSP16, literal(-11)))
          CFI V6 load(1, XDATA, add(CFA_XSP16, literal(-12)))
          CFI V5 load(1, XDATA, add(CFA_XSP16, literal(-13)))
          CFI V4 load(1, XDATA, add(CFA_XSP16, literal(-14)))
          CFI V3 load(1, XDATA, add(CFA_XSP16, literal(-15)))
          CFI V2 load(1, XDATA, add(CFA_XSP16, literal(-16)))
          CFI V1 load(1, XDATA, add(CFA_XSP16, literal(-17)))
          CFI V0 load(1, XDATA, add(CFA_XSP16, literal(-18)))
          CFI VB load(1, XDATA, add(CFA_XSP16, literal(-19)))
          CFI R6 load(1, XDATA, add(CFA_XSP16, literal(-20)))
          CFI CFA_SP SP+0
          CFI CFA_XSP16 add(XSP16, 20)
        ; Saved register size: 20
        ; Auto size: 0
        MOV       ?V5,R1
        MOV       ?V10,R2
        MOV       ?V11,R3
        MOV       ?V0,R4
        MOV       ?V1,R5
        MOV       A,#0x14
        LCALL     ?XSTACK_DISP0_8
        MOVX      A,@DPTR
        MOV       ?V7,A
        MOV       A,#0x15
        LCALL     ?XSTACK_DISP0_8
        MOVX      A,@DPTR
        MOV       ?V6,A
//  736   uint8 *buf;
//  737   ZStatus_t status;
//  738 
//  739   buf = zcl_mem_alloc( TOUCHLINK_CMDLEN_EP_INFO );
        ; Setup parameters for call to function osal_mem_alloc
        MOV       R2,#0x10
        MOV       R3,#0x0
        LCALL     `??osal_mem_alloc::?relay`; Banked call to: osal_mem_alloc
        MOV       ?V8,R2
        MOV       ?V9,R3
        MOV       ?V2,?V8
        MOV       ?V3,?V9
//  740   if ( buf != NULL )
        MOV       A,?V2
        ORL       A,?V3
        JNZ       $+5
        LJMP      ??bdbTL_Send_EndpointInfo_0 & 0xFFFF
//  741   {
//  742     uint8 *pBuf = buf;
        MOV       R6,?V2
        MOV       R7,?V3
//  743 
//  744     pBuf = zcl_cpyExtAddr( pBuf, pCmd->ieeeAddr );
        ; Setup parameters for call to function sAddrExtCpy
        MOV       R4,?V0
        MOV       R5,?V1
        MOV       A,R6
        MOV       R2,A
        MOV       A,R7
        MOV       R3,A
        LCALL     `??sAddrExtCpy::?relay`; Banked call to: sAddrExtCpy
        MOV       ?V8,R2
        MOV       ?V9,R3
        MOV       R6,?V8
        MOV       R7,?V9
//  745 
//  746     *pBuf++ = LO_UINT16( pCmd->nwkAddr );
        MOV       DPL,?V0
        MOV       DPH,?V1
        INC       DPTR
        INC       DPTR
        INC       DPTR
        INC       DPTR
        INC       DPTR
        INC       DPTR
        INC       DPTR
        INC       DPTR
        MOVX      A,@DPTR
        MOV       R0,A
        INC       DPTR
        MOVX      A,@DPTR
        MOV       R1,A
        MOV       A,R0
        PUSH      A
          CFI CFA_SP SP+-1
        MOV       DPL,R6
        MOV       DPH,R7
        POP       A
          CFI CFA_SP SP+0
        MOVX      @DPTR,A
        MOV       DPL,R6
        MOV       DPH,R7
        INC       DPTR
        MOV       R6,DPL
        MOV       R7,DPH
//  747     *pBuf++ = HI_UINT16( pCmd->nwkAddr );
        MOV       DPL,?V0
        MOV       DPH,?V1
        INC       DPTR
        INC       DPTR
        INC       DPTR
        INC       DPTR
        INC       DPTR
        INC       DPTR
        INC       DPTR
        INC       DPTR
        MOVX      A,@DPTR
        MOV       R0,A
        INC       DPTR
        MOVX      A,@DPTR
        MOV       R1,A
        CLR       A
        XCH       A,R1
        MOV       R0,A
        MOV       A,R0
        PUSH      A
          CFI CFA_SP SP+-1
        MOV       DPL,R6
        MOV       DPH,R7
        POP       A
          CFI CFA_SP SP+0
        MOVX      @DPTR,A
        MOV       DPL,R6
        MOV       DPH,R7
        INC       DPTR
        MOV       R6,DPL
        MOV       R7,DPH
//  748 
//  749     *pBuf++ = pCmd->endpoint;
        MOV       DPL,?V0
        MOV       DPH,?V1
        INC       DPTR
        INC       DPTR
        INC       DPTR
        INC       DPTR
        INC       DPTR
        INC       DPTR
        INC       DPTR
        INC       DPTR
        INC       DPTR
        INC       DPTR
        MOVX      A,@DPTR
        PUSH      A
          CFI CFA_SP SP+-1
        MOV       DPL,R6
        MOV       DPH,R7
        POP       A
          CFI CFA_SP SP+0
        MOVX      @DPTR,A
        MOV       DPL,R6
        MOV       DPH,R7
        INC       DPTR
        MOV       R6,DPL
        MOV       R7,DPH
//  750 
//  751     *pBuf++ = LO_UINT16( pCmd->profileID );
        MOV       A,?V0
        ADD       A,#0xb
        MOV       DPL,A
        CLR       A
        ADDC      A,?V1
        MOV       DPH,A
        MOVX      A,@DPTR
        MOV       R0,A
        INC       DPTR
        MOVX      A,@DPTR
        MOV       R1,A
        MOV       A,R0
        PUSH      A
          CFI CFA_SP SP+-1
        MOV       DPL,R6
        MOV       DPH,R7
        POP       A
          CFI CFA_SP SP+0
        MOVX      @DPTR,A
        MOV       DPL,R6
        MOV       DPH,R7
        INC       DPTR
        MOV       R6,DPL
        MOV       R7,DPH
//  752     *pBuf++ = HI_UINT16( pCmd->profileID );
        MOV       A,?V0
        ADD       A,#0xb
        MOV       DPL,A
        CLR       A
        ADDC      A,?V1
        MOV       DPH,A
        MOVX      A,@DPTR
        MOV       R0,A
        INC       DPTR
        MOVX      A,@DPTR
        MOV       R1,A
        CLR       A
        XCH       A,R1
        MOV       R0,A
        MOV       A,R0
        PUSH      A
          CFI CFA_SP SP+-1
        MOV       DPL,R6
        MOV       DPH,R7
        POP       A
          CFI CFA_SP SP+0
        MOVX      @DPTR,A
        MOV       DPL,R6
        MOV       DPH,R7
        INC       DPTR
        MOV       R6,DPL
        MOV       R7,DPH
//  753 
//  754     *pBuf++ = LO_UINT16( pCmd->deviceID );
        MOV       A,?V0
        ADD       A,#0xd
        MOV       DPL,A
        CLR       A
        ADDC      A,?V1
        MOV       DPH,A
        MOVX      A,@DPTR
        MOV       R0,A
        INC       DPTR
        MOVX      A,@DPTR
        MOV       R1,A
        MOV       A,R0
        PUSH      A
          CFI CFA_SP SP+-1
        MOV       DPL,R6
        MOV       DPH,R7
        POP       A
          CFI CFA_SP SP+0
        MOVX      @DPTR,A
        MOV       DPL,R6
        MOV       DPH,R7
        INC       DPTR
        MOV       R6,DPL
        MOV       R7,DPH
//  755     *pBuf++ = HI_UINT16( pCmd->deviceID );
        MOV       A,?V0
        ADD       A,#0xd
        MOV       DPL,A
        CLR       A
        ADDC      A,?V1
        MOV       DPH,A
        MOVX      A,@DPTR
        MOV       R0,A
        INC       DPTR
        MOVX      A,@DPTR
        MOV       R1,A
        CLR       A
        XCH       A,R1
        MOV       R0,A
        MOV       A,R0
        PUSH      A
          CFI CFA_SP SP+-1
        MOV       DPL,R6
        MOV       DPH,R7
        POP       A
          CFI CFA_SP SP+0
        MOVX      @DPTR,A
        MOV       DPL,R6
        MOV       DPH,R7
        INC       DPTR
        MOV       R6,DPL
        MOV       R7,DPH
//  756 
//  757     *pBuf++ = pCmd->version;
        MOV       A,?V0
        ADD       A,#0xf
        MOV       DPL,A
        CLR       A
        ADDC      A,?V1
        MOV       DPH,A
        MOVX      A,@DPTR
        PUSH      A
          CFI CFA_SP SP+-1
        MOV       DPL,R6
        MOV       DPH,R7
        POP       A
          CFI CFA_SP SP+0
        MOVX      @DPTR,A
        MOV       DPL,R6
        MOV       DPH,R7
        INC       DPTR
        MOV       R6,DPL
        MOV       R7,DPH
//  758 
//  759     status = zcl_SendCommand( srcEP, dstAddr, ZCL_CLUSTER_ID_TOUCHLINK,
//  760                               COMMAND_TOUCHLINK_EP_INFO, TRUE, ZCL_FRAME_SERVER_CLIENT_DIR,
//  761                               disableDefaultRsp, 0, seqNum, TOUCHLINK_CMDLEN_EP_INFO, buf );
        ; Setup parameters for call to function zcl_SendCommand
        MOV       R0,#?V2
        LCALL     ?PUSH_XSTACK_I_TWO
          CFI CFA_XSP16 add(XSP16, 22)
        MOV       ?V8,#0x10
        MOV       ?V9,#0x0
        MOV       R0,#?V8
        LCALL     ?PUSH_XSTACK_I_TWO
          CFI CFA_XSP16 add(XSP16, 24)
        MOV       A,?V6
        MOV       ?V8,A
        MOV       R0,#?V8
        LCALL     ?PUSH_XSTACK_I_ONE
          CFI CFA_XSP16 add(XSP16, 25)
        CLR       A
        MOV       ?V8,A
        MOV       ?V9,A
        MOV       R0,#?V8
        LCALL     ?PUSH_XSTACK_I_TWO
          CFI CFA_XSP16 add(XSP16, 27)
        MOV       A,?V7
        MOV       ?V8,A
        MOV       R0,#?V8
        LCALL     ?PUSH_XSTACK_I_ONE
          CFI CFA_XSP16 add(XSP16, 28)
        MOV       ?V8,#0x1
        MOV       R0,#?V8
        LCALL     ?PUSH_XSTACK_I_ONE
          CFI CFA_XSP16 add(XSP16, 29)
        MOV       ?V8,#0x1
        MOV       R0,#?V8
        LCALL     ?PUSH_XSTACK_I_ONE
          CFI CFA_XSP16 add(XSP16, 30)
        MOV       ?V8,#0x40
        MOV       R0,#?V8
        LCALL     ?PUSH_XSTACK_I_ONE
          CFI CFA_XSP16 add(XSP16, 31)
        MOV       R4,#0x0
        MOV       R5,#0x10
        MOV       R2,?V10
        MOV       R3,?V11
        MOV       R1,?V5
        LCALL     `??zcl_SendCommand::?relay`; Banked call to: zcl_SendCommand
        MOV       A,#0xb
        LCALL     ?DEALLOC_XSTACK8
          CFI CFA_XSP16 add(XSP16, 20)
        MOV       A,R1
        MOV       ?V4,A
//  762     zcl_mem_free( buf );
        ; Setup parameters for call to function osal_mem_free
        MOV       R2,?V2
        MOV       R3,?V3
        LCALL     `??osal_mem_free::?relay`; Banked call to: osal_mem_free
        SJMP      ??bdbTL_Send_EndpointInfo_1
//  763   }
//  764   else
//  765   {
//  766     status = ZMemError;
??bdbTL_Send_EndpointInfo_0:
        MOV       ?V4,#0x10
//  767   }
//  768 
//  769   return ( status );
??bdbTL_Send_EndpointInfo_1:
        MOV       R1,?V4
        MOV       R7,#0xc
        LJMP      ?BANKED_LEAVE_XDATA
//  770 }
          CFI EndBlock cfiBlock13
//  771 
//  772 /*********************************************************************
//  773  * @fn      bdbTL_Send_GetGrpIDsRsp
//  774  *
//  775  * @brief   Call to send out a Get Group Identifiers Response command
//  776  *
//  777  * @param   srcEP - sending application's endpoint
//  778  * @param   dstAddr - where you want the message to go
//  779  * @param   pRsp - response parameters
//  780  * @param   disableDefaultRsp - whether to disable the Default Response command
//  781  * @param   seqNum - sequence number
//  782  *
//  783  * @return  ZStatus_t
//  784  */

        RSEG BANKED_CODE:HUGECODE:NOROOT(0)
//  785 ZStatus_t bdbTL_Send_GetGrpIDsRsp( uint8 srcEP, afAddrType_t *dstAddr,
bdbTL_Send_GetGrpIDsRsp:
          CFI Block cfiBlock14 Using cfiCommon0
          CFI Function bdbTL_Send_GetGrpIDsRsp
        CODE
//  786                                     bdbTLGetGrpIDsRsp_t *pRsp,
//  787                                     uint8 disableDefaultRsp, uint8 seqNum )
//  788 {
        FUNCALL bdbTL_Send_GetGrpIDsRsp, osal_mem_alloc
        LOCFRAME ISTACK, 0, STACK
        LOCFRAME PSTACK, 0, STACK
        LOCFRAME XSTACK, 22, STACK
        LOCFRAME IOVERLAY, 0, STATIC
        LOCFRAME DOVERLAY, 0, STATIC
        ARGFRAME ISTACK, 0, STACK
        ARGFRAME PSTACK, 0, STACK
        ARGFRAME XSTACK, 22, STACK
        ARGFRAME IOVERLAY, 0, STATIC
        ARGFRAME DOVERLAY, 0, STATIC
        FUNCALL bdbTL_Send_GetGrpIDsRsp, zcl_SendCommand
        LOCFRAME ISTACK, 0, STACK
        LOCFRAME PSTACK, 0, STACK
        LOCFRAME XSTACK, 33, STACK
        LOCFRAME IOVERLAY, 0, STATIC
        LOCFRAME DOVERLAY, 0, STATIC
        ARGFRAME ISTACK, 0, STACK
        ARGFRAME PSTACK, 0, STACK
        ARGFRAME XSTACK, 33, STACK
        ARGFRAME IOVERLAY, 0, STATIC
        ARGFRAME DOVERLAY, 0, STATIC
        FUNCALL bdbTL_Send_GetGrpIDsRsp, osal_mem_free
        LOCFRAME ISTACK, 0, STACK
        LOCFRAME PSTACK, 0, STACK
        LOCFRAME XSTACK, 22, STACK
        LOCFRAME IOVERLAY, 0, STATIC
        LOCFRAME DOVERLAY, 0, STATIC
        ARGFRAME ISTACK, 0, STACK
        ARGFRAME PSTACK, 0, STACK
        ARGFRAME XSTACK, 22, STACK
        ARGFRAME IOVERLAY, 0, STATIC
        ARGFRAME DOVERLAY, 0, STATIC
        REQUIRE ?V0
        REQUIRE ?V1
        REQUIRE ?V2
        REQUIRE ?V3
        REQUIRE ?V4
        REQUIRE ?V5
        REQUIRE ?V6
        REQUIRE ?V7
        REQUIRE ?V8
        REQUIRE ?V9
        REQUIRE ?V10
        REQUIRE ?V11
        REQUIRE ?V12
        REQUIRE ?V13
        MOV       A,#-0x16
        LCALL     ?BANKED_ENTER_XDATA
          CFI DPH0 load(1, XDATA, add(CFA_XSP16, literal(-1)))
          CFI DPL0 load(1, XDATA, add(CFA_XSP16, literal(-2)))
          CFI ?BRET_EXT load(1, XDATA, add(CFA_XSP16, literal(-3)))
          CFI ?RET_HIGH load(1, XDATA, add(CFA_XSP16, literal(-4)))
          CFI ?RET_LOW load(1, XDATA, add(CFA_XSP16, literal(-5)))
          CFI R7 load(1, XDATA, add(CFA_XSP16, literal(-6)))
          CFI V13 load(1, XDATA, add(CFA_XSP16, literal(-7)))
          CFI V12 load(1, XDATA, add(CFA_XSP16, literal(-8)))
          CFI V11 load(1, XDATA, add(CFA_XSP16, literal(-9)))
          CFI V10 load(1, XDATA, add(CFA_XSP16, literal(-10)))
          CFI V9 load(1, XDATA, add(CFA_XSP16, literal(-11)))
          CFI V8 load(1, XDATA, add(CFA_XSP16, literal(-12)))
          CFI V7 load(1, XDATA, add(CFA_XSP16, literal(-13)))
          CFI V6 load(1, XDATA, add(CFA_XSP16, literal(-14)))
          CFI V5 load(1, XDATA, add(CFA_XSP16, literal(-15)))
          CFI V4 load(1, XDATA, add(CFA_XSP16, literal(-16)))
          CFI V3 load(1, XDATA, add(CFA_XSP16, literal(-17)))
          CFI V2 load(1, XDATA, add(CFA_XSP16, literal(-18)))
          CFI V1 load(1, XDATA, add(CFA_XSP16, literal(-19)))
          CFI V0 load(1, XDATA, add(CFA_XSP16, literal(-20)))
          CFI VB load(1, XDATA, add(CFA_XSP16, literal(-21)))
          CFI R6 load(1, XDATA, add(CFA_XSP16, literal(-22)))
          CFI CFA_SP SP+0
          CFI CFA_XSP16 add(XSP16, 22)
        ; Saved register size: 22
        ; Auto size: 0
        MOV       ?V5,R1
        MOV       ?V12,R2
        MOV       ?V13,R3
        MOV       ?V0,R4
        MOV       ?V1,R5
        MOV       A,#0x16
        LCALL     ?XSTACK_DISP0_8
        MOVX      A,@DPTR
        MOV       ?V11,A
        MOV       A,#0x17
        LCALL     ?XSTACK_DISP0_8
        MOVX      A,@DPTR
        MOV       ?V10,A
//  789   uint8 *buf;
//  790   uint8 bufLen = TOUCHLINK_CMDLEN_GET_GRP_IDS_RSP;
        MOV       ?V4,#0x3
//  791   ZStatus_t status;
//  792 
//  793   // Calculate the total length needed
//  794   bufLen += ( pRsp->cnt * TOUCHLINK_CMDLENOPTIONAL_GET_GRP_IDS_RSP );
        MOV       B,#0x3
        MOV       DPL,?V0
        MOV       DPH,?V1
        INC       DPTR
        INC       DPTR
        MOVX      A,@DPTR
        MUL       AB
        ADD       A,?V4
        MOV       ?V4,A
//  795 
//  796   buf = zcl_mem_alloc( bufLen );
        ; Setup parameters for call to function osal_mem_alloc
        MOV       A,?V4
        MOV       R2,A
        MOV       R3,#0x0
        LCALL     `??osal_mem_alloc::?relay`; Banked call to: osal_mem_alloc
        MOV       ?V8,R2
        MOV       ?V9,R3
        MOV       ?V6,?V8
        MOV       ?V7,?V9
//  797   if ( buf != NULL )
        MOV       A,?V6
        ORL       A,?V7
        JNZ       $+5
        LJMP      ??bdbTL_Send_GetGrpIDsRsp_0 & 0xFFFF
//  798   {
//  799     uint8 *pBuf = buf;
        MOV       R6,?V6
        MOV       R7,?V7
//  800     uint8 i;
//  801 
//  802     *pBuf++ = pRsp->total;
        MOV       DPL,?V0
        MOV       DPH,?V1
        MOVX      A,@DPTR
        PUSH      A
          CFI CFA_SP SP+-1
        MOV       DPL,R6
        MOV       DPH,R7
        POP       A
          CFI CFA_SP SP+0
        MOVX      @DPTR,A
        MOV       DPL,R6
        MOV       DPH,R7
        INC       DPTR
        MOV       R6,DPL
        MOV       R7,DPH
//  803     *pBuf++ = pRsp->startIndex;
        MOV       DPL,?V0
        MOV       DPH,?V1
        INC       DPTR
        MOVX      A,@DPTR
        PUSH      A
          CFI CFA_SP SP+-1
        MOV       DPL,R6
        MOV       DPH,R7
        POP       A
          CFI CFA_SP SP+0
        MOVX      @DPTR,A
        MOV       DPL,R6
        MOV       DPH,R7
        INC       DPTR
        MOV       R6,DPL
        MOV       R7,DPH
//  804     *pBuf++ = pRsp->cnt;
        MOV       DPL,?V0
        MOV       DPH,?V1
        INC       DPTR
        INC       DPTR
        MOVX      A,@DPTR
        PUSH      A
          CFI CFA_SP SP+-1
        MOV       DPL,R6
        MOV       DPH,R7
        POP       A
          CFI CFA_SP SP+0
        MOVX      @DPTR,A
        MOV       DPL,R6
        MOV       DPH,R7
        INC       DPTR
        MOV       R6,DPL
        MOV       R7,DPH
//  805 
//  806     // Group information record
//  807     for ( i = 0; i < pRsp->cnt; i++ )
        MOV       ?V2,#0x0
??bdbTL_Send_GetGrpIDsRsp_1:
        MOV       DPL,?V0
        MOV       DPH,?V1
        INC       DPTR
        INC       DPTR
        MOVX      A,@DPTR
        MOV       R0,A
        MOV       A,?V2
        CLR       C
        SUBB      A,R0
        JC        $+5
        LJMP      ??bdbTL_Send_GetGrpIDsRsp_2 & 0xFFFF
//  808     {
//  809       grpInfoRec_t *pRec = &(pRsp->grpInfoRec[i]);
        MOV       A,?V2
        MOV       R0,A
        MOV       R1,#0x0
        MOV       A,R0
        MOV       B,#0x3
        MUL       AB
        XCH       A,R0
        MOV       R2,B
        MOV       B,#0x0
        MUL       AB
        ADD       A,R2
        MOV       R2,A
        MOV       B,#0x3
        MOV       A,R1
        MUL       AB
        ADD       A,R2
        MOV       R1,A
        MOV       DPL,?V0
        MOV       DPH,?V1
        INC       DPTR
        INC       DPTR
        INC       DPTR
        MOVX      A,@DPTR
        ADD       A,R0
        MOV       R0,A
        INC       DPTR
        MOVX      A,@DPTR
        ADDC      A,R1
        MOV       R1,A
//  810 
//  811       *pBuf++ = LO_UINT16( pRec->grpID );
        MOV       DPL,R0
        MOV       DPH,R1
        MOVX      A,@DPTR
        MOV       R2,A
        INC       DPTR
        MOVX      A,@DPTR
        MOV       R3,A
        MOV       A,R2
        PUSH      A
          CFI CFA_SP SP+-1
        MOV       DPL,R6
        MOV       DPH,R7
        POP       A
          CFI CFA_SP SP+0
        MOVX      @DPTR,A
        MOV       DPL,R6
        MOV       DPH,R7
        INC       DPTR
        MOV       R6,DPL
        MOV       R7,DPH
//  812       *pBuf++ = HI_UINT16( pRec->grpID );
        MOV       DPL,R0
        MOV       DPH,R1
        MOVX      A,@DPTR
        MOV       R2,A
        INC       DPTR
        MOVX      A,@DPTR
        MOV       R3,A
        CLR       A
        XCH       A,R3
        MOV       R2,A
        MOV       A,R2
        PUSH      A
          CFI CFA_SP SP+-1
        MOV       DPL,R6
        MOV       DPH,R7
        POP       A
          CFI CFA_SP SP+0
        MOVX      @DPTR,A
        MOV       DPL,R6
        MOV       DPH,R7
        INC       DPTR
        MOV       R6,DPL
        MOV       R7,DPH
//  813 
//  814       *pBuf++ = pRec->grpType;
        MOV       DPL,R0
        MOV       DPH,R1
        INC       DPTR
        INC       DPTR
        MOVX      A,@DPTR
        PUSH      A
          CFI CFA_SP SP+-1
        MOV       DPL,R6
        MOV       DPH,R7
        POP       A
          CFI CFA_SP SP+0
        MOVX      @DPTR,A
        MOV       DPL,R6
        MOV       DPH,R7
        INC       DPTR
        MOV       R6,DPL
        MOV       R7,DPH
//  815     }
        INC       ?V2
        LJMP      ??bdbTL_Send_GetGrpIDsRsp_1 & 0xFFFF
//  816 
//  817     status = zcl_SendCommand( srcEP, dstAddr, ZCL_CLUSTER_ID_TOUCHLINK,
//  818                               COMMAND_TOUCHLINK_GET_GRP_IDS_RSP, TRUE, ZCL_FRAME_SERVER_CLIENT_DIR,
//  819                               disableDefaultRsp, 0, seqNum, bufLen, buf );
??bdbTL_Send_GetGrpIDsRsp_2:
        ; Setup parameters for call to function zcl_SendCommand
        MOV       R0,#?V6
        LCALL     ?PUSH_XSTACK_I_TWO
          CFI CFA_XSP16 add(XSP16, 24)
        MOV       A,?V4
        MOV       ?V8,A
        MOV       ?V9,#0x0
        MOV       R0,#?V8
        LCALL     ?PUSH_XSTACK_I_TWO
          CFI CFA_XSP16 add(XSP16, 26)
        MOV       A,?V10
        MOV       ?V8,A
        MOV       R0,#?V8
        LCALL     ?PUSH_XSTACK_I_ONE
          CFI CFA_XSP16 add(XSP16, 27)
        CLR       A
        MOV       ?V8,A
        MOV       ?V9,A
        MOV       R0,#?V8
        LCALL     ?PUSH_XSTACK_I_TWO
          CFI CFA_XSP16 add(XSP16, 29)
        MOV       A,?V11
        MOV       ?V8,A
        MOV       R0,#?V8
        LCALL     ?PUSH_XSTACK_I_ONE
          CFI CFA_XSP16 add(XSP16, 30)
        MOV       ?V8,#0x1
        MOV       R0,#?V8
        LCALL     ?PUSH_XSTACK_I_ONE
          CFI CFA_XSP16 add(XSP16, 31)
        MOV       ?V8,#0x1
        MOV       R0,#?V8
        LCALL     ?PUSH_XSTACK_I_ONE
          CFI CFA_XSP16 add(XSP16, 32)
        MOV       ?V8,#0x41
        MOV       R0,#?V8
        LCALL     ?PUSH_XSTACK_I_ONE
          CFI CFA_XSP16 add(XSP16, 33)
        MOV       R4,#0x0
        MOV       R5,#0x10
        MOV       R2,?V12
        MOV       R3,?V13
        MOV       R1,?V5
        LCALL     `??zcl_SendCommand::?relay`; Banked call to: zcl_SendCommand
        MOV       A,#0xb
        LCALL     ?DEALLOC_XSTACK8
          CFI CFA_XSP16 add(XSP16, 22)
        MOV       A,R1
        MOV       ?V3,A
//  820     zcl_mem_free( buf );
        ; Setup parameters for call to function osal_mem_free
        MOV       R2,?V6
        MOV       R3,?V7
        LCALL     `??osal_mem_free::?relay`; Banked call to: osal_mem_free
        SJMP      ??bdbTL_Send_GetGrpIDsRsp_3
//  821   }
//  822   else
//  823   {
//  824     status = ZMemError;
??bdbTL_Send_GetGrpIDsRsp_0:
        MOV       ?V3,#0x10
//  825   }
//  826 
//  827   return ( status );
??bdbTL_Send_GetGrpIDsRsp_3:
        MOV       R1,?V3
        MOV       R7,#0xe
        LJMP      ?BANKED_LEAVE_XDATA
//  828 }
          CFI EndBlock cfiBlock14
//  829 
//  830 /*********************************************************************
//  831  * @fn      bdbTL_Send_GetEPListRsp
//  832  *
//  833  * @brief   Call to send out a Get Endpoint List Response command
//  834  *
//  835  * @param   srcEP - sending application's endpoint
//  836  * @param   dstAddr - where you want the message to go
//  837  * @param   pRsp - response parameters
//  838  * @param   disableDefaultRsp - whether to disable the Default Response command
//  839  * @param   seqNum - sequence number
//  840  *
//  841  * @return  ZStatus_t
//  842  */

        RSEG BANKED_CODE:HUGECODE:NOROOT(0)
//  843 ZStatus_t bdbTL_Send_GetEPListRsp( uint8 srcEP, afAddrType_t *dstAddr,
bdbTL_Send_GetEPListRsp:
          CFI Block cfiBlock15 Using cfiCommon0
          CFI Function bdbTL_Send_GetEPListRsp
        CODE
//  844                                    bdbTLGetEPListRsp_t *pRsp,
//  845                                    uint8 disableDefaultRsp, uint8 seqNum )
//  846 {
        FUNCALL bdbTL_Send_GetEPListRsp, osal_mem_alloc
        LOCFRAME ISTACK, 0, STACK
        LOCFRAME PSTACK, 0, STACK
        LOCFRAME XSTACK, 22, STACK
        LOCFRAME IOVERLAY, 0, STATIC
        LOCFRAME DOVERLAY, 0, STATIC
        ARGFRAME ISTACK, 0, STACK
        ARGFRAME PSTACK, 0, STACK
        ARGFRAME XSTACK, 22, STACK
        ARGFRAME IOVERLAY, 0, STATIC
        ARGFRAME DOVERLAY, 0, STATIC
        FUNCALL bdbTL_Send_GetEPListRsp, zcl_SendCommand
        LOCFRAME ISTACK, 0, STACK
        LOCFRAME PSTACK, 0, STACK
        LOCFRAME XSTACK, 33, STACK
        LOCFRAME IOVERLAY, 0, STATIC
        LOCFRAME DOVERLAY, 0, STATIC
        ARGFRAME ISTACK, 0, STACK
        ARGFRAME PSTACK, 0, STACK
        ARGFRAME XSTACK, 33, STACK
        ARGFRAME IOVERLAY, 0, STATIC
        ARGFRAME DOVERLAY, 0, STATIC
        FUNCALL bdbTL_Send_GetEPListRsp, osal_mem_free
        LOCFRAME ISTACK, 0, STACK
        LOCFRAME PSTACK, 0, STACK
        LOCFRAME XSTACK, 22, STACK
        LOCFRAME IOVERLAY, 0, STATIC
        LOCFRAME DOVERLAY, 0, STATIC
        ARGFRAME ISTACK, 0, STACK
        ARGFRAME PSTACK, 0, STACK
        ARGFRAME XSTACK, 22, STACK
        ARGFRAME IOVERLAY, 0, STATIC
        ARGFRAME DOVERLAY, 0, STATIC
        REQUIRE ?V0
        REQUIRE ?V1
        REQUIRE ?V2
        REQUIRE ?V3
        REQUIRE ?V4
        REQUIRE ?V5
        REQUIRE ?V6
        REQUIRE ?V7
        REQUIRE ?V8
        REQUIRE ?V9
        REQUIRE ?V10
        REQUIRE ?V11
        REQUIRE ?V12
        REQUIRE ?V13
        MOV       A,#-0x16
        LCALL     ?BANKED_ENTER_XDATA
          CFI DPH0 load(1, XDATA, add(CFA_XSP16, literal(-1)))
          CFI DPL0 load(1, XDATA, add(CFA_XSP16, literal(-2)))
          CFI ?BRET_EXT load(1, XDATA, add(CFA_XSP16, literal(-3)))
          CFI ?RET_HIGH load(1, XDATA, add(CFA_XSP16, literal(-4)))
          CFI ?RET_LOW load(1, XDATA, add(CFA_XSP16, literal(-5)))
          CFI R7 load(1, XDATA, add(CFA_XSP16, literal(-6)))
          CFI V13 load(1, XDATA, add(CFA_XSP16, literal(-7)))
          CFI V12 load(1, XDATA, add(CFA_XSP16, literal(-8)))
          CFI V11 load(1, XDATA, add(CFA_XSP16, literal(-9)))
          CFI V10 load(1, XDATA, add(CFA_XSP16, literal(-10)))
          CFI V9 load(1, XDATA, add(CFA_XSP16, literal(-11)))
          CFI V8 load(1, XDATA, add(CFA_XSP16, literal(-12)))
          CFI V7 load(1, XDATA, add(CFA_XSP16, literal(-13)))
          CFI V6 load(1, XDATA, add(CFA_XSP16, literal(-14)))
          CFI V5 load(1, XDATA, add(CFA_XSP16, literal(-15)))
          CFI V4 load(1, XDATA, add(CFA_XSP16, literal(-16)))
          CFI V3 load(1, XDATA, add(CFA_XSP16, literal(-17)))
          CFI V2 load(1, XDATA, add(CFA_XSP16, literal(-18)))
          CFI V1 load(1, XDATA, add(CFA_XSP16, literal(-19)))
          CFI V0 load(1, XDATA, add(CFA_XSP16, literal(-20)))
          CFI VB load(1, XDATA, add(CFA_XSP16, literal(-21)))
          CFI R6 load(1, XDATA, add(CFA_XSP16, literal(-22)))
          CFI CFA_SP SP+0
          CFI CFA_XSP16 add(XSP16, 22)
        ; Saved register size: 22
        ; Auto size: 0
        MOV       ?V7,R1
        MOV       ?V12,R2
        MOV       ?V13,R3
        MOV       ?V0,R4
        MOV       ?V1,R5
        MOV       A,#0x16
        LCALL     ?XSTACK_DISP0_8
        MOVX      A,@DPTR
        MOV       ?V11,A
        MOV       A,#0x17
        LCALL     ?XSTACK_DISP0_8
        MOVX      A,@DPTR
        MOV       ?V10,A
//  847   uint8 *buf;
//  848   uint8 bufLen = TOUCHLINK_CMDLEN_GET_EP_LIST_RSP;
        MOV       ?V6,#0x3
//  849   ZStatus_t status;
//  850 
//  851   // Calculate the total length needed
//  852   bufLen += ( pRsp->cnt * TOUCHLINK_CMDLENOPTIONAL_GET_EP_LIST_RSP );
        MOV       B,#0x8
        MOV       DPL,?V0
        MOV       DPH,?V1
        INC       DPTR
        INC       DPTR
        MOVX      A,@DPTR
        MUL       AB
        ADD       A,?V6
        MOV       ?V6,A
//  853 
//  854   buf = zcl_mem_alloc( bufLen );
        ; Setup parameters for call to function osal_mem_alloc
        MOV       A,?V6
        MOV       R2,A
        MOV       R3,#0x0
        LCALL     `??osal_mem_alloc::?relay`; Banked call to: osal_mem_alloc
        MOV       ?V8,R2
        MOV       ?V9,R3
        MOV       ?V2,?V8
        MOV       ?V3,?V9
//  855   if ( buf != NULL )
        MOV       A,?V2
        ORL       A,?V3
        JNZ       $+5
        LJMP      ??bdbTL_Send_GetEPListRsp_0 & 0xFFFF
//  856   {
//  857     uint8 *pBuf = buf;
        MOV       R6,?V2
        MOV       R7,?V3
//  858     uint8 i;
//  859 
//  860     *pBuf++ = pRsp->total;
        MOV       DPL,?V0
        MOV       DPH,?V1
        MOVX      A,@DPTR
        PUSH      A
          CFI CFA_SP SP+-1
        MOV       DPL,R6
        MOV       DPH,R7
        POP       A
          CFI CFA_SP SP+0
        MOVX      @DPTR,A
        MOV       DPL,R6
        MOV       DPH,R7
        INC       DPTR
        MOV       R6,DPL
        MOV       R7,DPH
//  861     *pBuf++ = pRsp->startIndex;
        MOV       DPL,?V0
        MOV       DPH,?V1
        INC       DPTR
        MOVX      A,@DPTR
        PUSH      A
          CFI CFA_SP SP+-1
        MOV       DPL,R6
        MOV       DPH,R7
        POP       A
          CFI CFA_SP SP+0
        MOVX      @DPTR,A
        MOV       DPL,R6
        MOV       DPH,R7
        INC       DPTR
        MOV       R6,DPL
        MOV       R7,DPH
//  862     *pBuf++ = pRsp->cnt;
        MOV       DPL,?V0
        MOV       DPH,?V1
        INC       DPTR
        INC       DPTR
        MOVX      A,@DPTR
        PUSH      A
          CFI CFA_SP SP+-1
        MOV       DPL,R6
        MOV       DPH,R7
        POP       A
          CFI CFA_SP SP+0
        MOVX      @DPTR,A
        MOV       DPL,R6
        MOV       DPH,R7
        INC       DPTR
        MOV       R6,DPL
        MOV       R7,DPH
//  863 
//  864     // Endpoint information record
//  865     for ( i = 0; i < pRsp->cnt; i++ )
        MOV       ?V4,#0x0
??bdbTL_Send_GetEPListRsp_1:
        MOV       DPL,?V0
        MOV       DPH,?V1
        INC       DPTR
        INC       DPTR
        MOVX      A,@DPTR
        MOV       R0,A
        MOV       A,?V4
        CLR       C
        SUBB      A,R0
        JC        $+5
        LJMP      ??bdbTL_Send_GetEPListRsp_2 & 0xFFFF
//  866     {
//  867       epInfoRec_t *pRec = &(pRsp->epInfoRec[i]);
        MOV       A,?V4
        MOV       R0,A
        MOV       R1,#0x0
        MOV       A,R0
        MOV       B,#0x8
        MUL       AB
        XCH       A,R0
        MOV       R2,B
        MOV       B,#0x0
        MUL       AB
        ADD       A,R2
        MOV       R2,A
        MOV       B,#0x8
        MOV       A,R1
        MUL       AB
        ADD       A,R2
        MOV       R1,A
        MOV       DPL,?V0
        MOV       DPH,?V1
        INC       DPTR
        INC       DPTR
        INC       DPTR
        MOVX      A,@DPTR
        ADD       A,R0
        MOV       R0,A
        INC       DPTR
        MOVX      A,@DPTR
        ADDC      A,R1
        MOV       R1,A
//  868 
//  869       *pBuf++ = LO_UINT16( pRec->nwkAddr );
        MOV       DPL,R0
        MOV       DPH,R1
        MOVX      A,@DPTR
        MOV       R2,A
        INC       DPTR
        MOVX      A,@DPTR
        MOV       R3,A
        MOV       A,R2
        PUSH      A
          CFI CFA_SP SP+-1
        MOV       DPL,R6
        MOV       DPH,R7
        POP       A
          CFI CFA_SP SP+0
        MOVX      @DPTR,A
        MOV       DPL,R6
        MOV       DPH,R7
        INC       DPTR
        MOV       R6,DPL
        MOV       R7,DPH
//  870       *pBuf++ = HI_UINT16( pRec->nwkAddr );
        MOV       DPL,R0
        MOV       DPH,R1
        MOVX      A,@DPTR
        MOV       R2,A
        INC       DPTR
        MOVX      A,@DPTR
        MOV       R3,A
        CLR       A
        XCH       A,R3
        MOV       R2,A
        MOV       A,R2
        PUSH      A
          CFI CFA_SP SP+-1
        MOV       DPL,R6
        MOV       DPH,R7
        POP       A
          CFI CFA_SP SP+0
        MOVX      @DPTR,A
        MOV       DPL,R6
        MOV       DPH,R7
        INC       DPTR
        MOV       R6,DPL
        MOV       R7,DPH
//  871 
//  872       *pBuf++ = pRec->endpoint;
        MOV       DPL,R0
        MOV       DPH,R1
        INC       DPTR
        INC       DPTR
        MOVX      A,@DPTR
        PUSH      A
          CFI CFA_SP SP+-1
        MOV       DPL,R6
        MOV       DPH,R7
        POP       A
          CFI CFA_SP SP+0
        MOVX      @DPTR,A
        MOV       DPL,R6
        MOV       DPH,R7
        INC       DPTR
        MOV       R6,DPL
        MOV       R7,DPH
//  873 
//  874       *pBuf++ = LO_UINT16( pRec->profileID );
        MOV       DPL,R0
        MOV       DPH,R1
        INC       DPTR
        INC       DPTR
        INC       DPTR
        MOVX      A,@DPTR
        MOV       R2,A
        INC       DPTR
        MOVX      A,@DPTR
        MOV       R3,A
        MOV       A,R2
        PUSH      A
          CFI CFA_SP SP+-1
        MOV       DPL,R6
        MOV       DPH,R7
        POP       A
          CFI CFA_SP SP+0
        MOVX      @DPTR,A
        MOV       DPL,R6
        MOV       DPH,R7
        INC       DPTR
        MOV       R6,DPL
        MOV       R7,DPH
//  875       *pBuf++ = HI_UINT16( pRec->profileID );
        MOV       DPL,R0
        MOV       DPH,R1
        INC       DPTR
        INC       DPTR
        INC       DPTR
        MOVX      A,@DPTR
        MOV       R2,A
        INC       DPTR
        MOVX      A,@DPTR
        MOV       R3,A
        CLR       A
        XCH       A,R3
        MOV       R2,A
        MOV       A,R2
        PUSH      A
          CFI CFA_SP SP+-1
        MOV       DPL,R6
        MOV       DPH,R7
        POP       A
          CFI CFA_SP SP+0
        MOVX      @DPTR,A
        MOV       DPL,R6
        MOV       DPH,R7
        INC       DPTR
        MOV       R6,DPL
        MOV       R7,DPH
//  876 
//  877       *pBuf++ = LO_UINT16( pRec->deviceID );
        MOV       DPL,R0
        MOV       DPH,R1
        INC       DPTR
        INC       DPTR
        INC       DPTR
        INC       DPTR
        INC       DPTR
        MOVX      A,@DPTR
        MOV       R2,A
        INC       DPTR
        MOVX      A,@DPTR
        MOV       R3,A
        MOV       A,R2
        PUSH      A
          CFI CFA_SP SP+-1
        MOV       DPL,R6
        MOV       DPH,R7
        POP       A
          CFI CFA_SP SP+0
        MOVX      @DPTR,A
        MOV       DPL,R6
        MOV       DPH,R7
        INC       DPTR
        MOV       R6,DPL
        MOV       R7,DPH
//  878       *pBuf++ = HI_UINT16( pRec->deviceID );
        MOV       DPL,R0
        MOV       DPH,R1
        INC       DPTR
        INC       DPTR
        INC       DPTR
        INC       DPTR
        INC       DPTR
        MOVX      A,@DPTR
        MOV       R2,A
        INC       DPTR
        MOVX      A,@DPTR
        MOV       R3,A
        CLR       A
        XCH       A,R3
        MOV       R2,A
        MOV       A,R2
        PUSH      A
          CFI CFA_SP SP+-1
        MOV       DPL,R6
        MOV       DPH,R7
        POP       A
          CFI CFA_SP SP+0
        MOVX      @DPTR,A
        MOV       DPL,R6
        MOV       DPH,R7
        INC       DPTR
        MOV       R6,DPL
        MOV       R7,DPH
//  879 
//  880       *pBuf++ = pRec->version;
        MOV       DPL,R0
        MOV       DPH,R1
        INC       DPTR
        INC       DPTR
        INC       DPTR
        INC       DPTR
        INC       DPTR
        INC       DPTR
        INC       DPTR
        MOVX      A,@DPTR
        PUSH      A
          CFI CFA_SP SP+-1
        MOV       DPL,R6
        MOV       DPH,R7
        POP       A
          CFI CFA_SP SP+0
        MOVX      @DPTR,A
        MOV       DPL,R6
        MOV       DPH,R7
        INC       DPTR
        MOV       R6,DPL
        MOV       R7,DPH
//  881     }
        INC       ?V4
        LJMP      ??bdbTL_Send_GetEPListRsp_1 & 0xFFFF
//  882 
//  883     status = zcl_SendCommand( srcEP, dstAddr, ZCL_CLUSTER_ID_TOUCHLINK,
//  884                               COMMAND_TOUCHLINK_GET_EP_LIST_RSP, TRUE, ZCL_FRAME_SERVER_CLIENT_DIR,
//  885                               disableDefaultRsp, 0, seqNum, bufLen, buf );
??bdbTL_Send_GetEPListRsp_2:
        ; Setup parameters for call to function zcl_SendCommand
        MOV       R0,#?V2
        LCALL     ?PUSH_XSTACK_I_TWO
          CFI CFA_XSP16 add(XSP16, 24)
        MOV       A,?V6
        MOV       ?V8,A
        MOV       ?V9,#0x0
        MOV       R0,#?V8
        LCALL     ?PUSH_XSTACK_I_TWO
          CFI CFA_XSP16 add(XSP16, 26)
        MOV       A,?V10
        MOV       ?V8,A
        MOV       R0,#?V8
        LCALL     ?PUSH_XSTACK_I_ONE
          CFI CFA_XSP16 add(XSP16, 27)
        CLR       A
        MOV       ?V8,A
        MOV       ?V9,A
        MOV       R0,#?V8
        LCALL     ?PUSH_XSTACK_I_TWO
          CFI CFA_XSP16 add(XSP16, 29)
        MOV       A,?V11
        MOV       ?V8,A
        MOV       R0,#?V8
        LCALL     ?PUSH_XSTACK_I_ONE
          CFI CFA_XSP16 add(XSP16, 30)
        MOV       ?V8,#0x1
        MOV       R0,#?V8
        LCALL     ?PUSH_XSTACK_I_ONE
          CFI CFA_XSP16 add(XSP16, 31)
        MOV       ?V8,#0x1
        MOV       R0,#?V8
        LCALL     ?PUSH_XSTACK_I_ONE
          CFI CFA_XSP16 add(XSP16, 32)
        MOV       ?V8,#0x42
        MOV       R0,#?V8
        LCALL     ?PUSH_XSTACK_I_ONE
          CFI CFA_XSP16 add(XSP16, 33)
        MOV       R4,#0x0
        MOV       R5,#0x10
        MOV       R2,?V12
        MOV       R3,?V13
        MOV       R1,?V7
        LCALL     `??zcl_SendCommand::?relay`; Banked call to: zcl_SendCommand
        MOV       A,#0xb
        LCALL     ?DEALLOC_XSTACK8
          CFI CFA_XSP16 add(XSP16, 22)
        MOV       A,R1
        MOV       ?V5,A
//  886     zcl_mem_free( buf );
        ; Setup parameters for call to function osal_mem_free
        MOV       R2,?V2
        MOV       R3,?V3
        LCALL     `??osal_mem_free::?relay`; Banked call to: osal_mem_free
        SJMP      ??bdbTL_Send_GetEPListRsp_3
//  887   }
//  888   else
//  889   {
//  890     status = ZMemError;
??bdbTL_Send_GetEPListRsp_0:
        MOV       ?V5,#0x10
//  891   }
//  892 
//  893   return ( status );
??bdbTL_Send_GetEPListRsp_3:
        MOV       R1,?V5
        MOV       R7,#0xe
        LJMP      ?BANKED_LEAVE_XDATA
//  894 }
          CFI EndBlock cfiBlock15
//  895 
//  896 /*********************************************************************
//  897  * @fn      bdbTL_SendInterPANCommand
//  898  *
//  899  * @brief   Used to send TOUCHLINK Profile and Cluster Specific Inter-PAN Command
//  900  *          messages.
//  901  *
//  902  *          NOTE: The calling application is responsible for incrementing
//  903  *                the Sequence Number.
//  904  *
//  905  * @param   srcEp - source endpoint
//  906  * @param   destAddr - destination address
//  907  * @param   cmd - command ID
//  908  * @param   direction - direction of the command
//  909  * @param   seqNumber - identification number for the transaction
//  910  * @param   cmdFormatLen - length of the command to be sent
//  911  * @param   cmdFormat - command to be sent
//  912  *
//  913  * @return  ZSuccess if OK
//  914  */

        RSEG BANKED_CODE:HUGECODE:NOROOT(0)
//  915 ZStatus_t bdbTL_SendInterPANCommand( uint8 srcEP, afAddrType_t *destAddr, uint8 cmd,
bdbTL_SendInterPANCommand:
          CFI Block cfiBlock16 Using cfiCommon0
          CFI Function bdbTL_SendInterPANCommand
        CODE
//  916                                      uint8 direction, uint8 seqNum, uint16 cmdFormatLen, uint8 *cmdFormat )
//  917 {
        FUNCALL bdbTL_SendInterPANCommand, zcl_SendCommand
        LOCFRAME ISTACK, 0, STACK
        LOCFRAME PSTACK, 0, STACK
        LOCFRAME XSTACK, 29, STACK
        LOCFRAME IOVERLAY, 0, STATIC
        LOCFRAME DOVERLAY, 0, STATIC
        ARGFRAME ISTACK, 0, STACK
        ARGFRAME PSTACK, 0, STACK
        ARGFRAME XSTACK, 29, STACK
        ARGFRAME IOVERLAY, 0, STATIC
        ARGFRAME DOVERLAY, 0, STATIC
        REQUIRE ?V0
        REQUIRE ?V1
        REQUIRE ?V2
        REQUIRE ?V3
        REQUIRE ?V4
        REQUIRE ?V5
        REQUIRE ?V6
        REQUIRE ?V7
        REQUIRE ?V8
        REQUIRE ?V9
        MOV       A,#-0x12
        LCALL     ?BANKED_ENTER_XDATA
          CFI DPH0 load(1, XDATA, add(CFA_XSP16, literal(-1)))
          CFI DPL0 load(1, XDATA, add(CFA_XSP16, literal(-2)))
          CFI ?BRET_EXT load(1, XDATA, add(CFA_XSP16, literal(-3)))
          CFI ?RET_HIGH load(1, XDATA, add(CFA_XSP16, literal(-4)))
          CFI ?RET_LOW load(1, XDATA, add(CFA_XSP16, literal(-5)))
          CFI R7 load(1, XDATA, add(CFA_XSP16, literal(-6)))
          CFI V9 load(1, XDATA, add(CFA_XSP16, literal(-7)))
          CFI V8 load(1, XDATA, add(CFA_XSP16, literal(-8)))
          CFI V7 load(1, XDATA, add(CFA_XSP16, literal(-9)))
          CFI V6 load(1, XDATA, add(CFA_XSP16, literal(-10)))
          CFI V5 load(1, XDATA, add(CFA_XSP16, literal(-11)))
          CFI V4 load(1, XDATA, add(CFA_XSP16, literal(-12)))
          CFI V3 load(1, XDATA, add(CFA_XSP16, literal(-13)))
          CFI V2 load(1, XDATA, add(CFA_XSP16, literal(-14)))
          CFI V1 load(1, XDATA, add(CFA_XSP16, literal(-15)))
          CFI V0 load(1, XDATA, add(CFA_XSP16, literal(-16)))
          CFI VB load(1, XDATA, add(CFA_XSP16, literal(-17)))
          CFI R6 load(1, XDATA, add(CFA_XSP16, literal(-18)))
          CFI CFA_SP SP+0
          CFI CFA_XSP16 add(XSP16, 18)
        ; Saved register size: 18
        ; Auto size: 0
        MOV       ?V1,R1
        MOV       A,R2
        MOV       R6,A
        MOV       A,R3
        MOV       R7,A
        MOV       ?V4,R4
        MOV       ?V5,R5
        MOV       A,#0x12
        LCALL     ?XSTACK_DISP0_8
        MOVX      A,@DPTR
        MOV       ?V0,A
        MOV       A,#0x13
        LCALL     ?XSTACK_DISP0_8
        MOVX      A,@DPTR
        MOV       ?V6,A
        INC       DPTR
        MOVX      A,@DPTR
        MOV       ?V7,A
        MOV       A,#0x15
        LCALL     ?XSTACK_DISP0_8
        MOVX      A,@DPTR
        MOV       ?V2,A
        INC       DPTR
        MOVX      A,@DPTR
        MOV       ?V3,A
//  918   //
//  919   // Note: TOUCHLINK Frame Control has a defferent format than ZCL Frame Control
//  920   //
//  921 
//  922   // TOUCHLINK Header Format:
//  923   // - Frame control (1 octect):
//  924   //   * b3-b0: TOUCHLINK version (0b0000)
//  925   //   * b7-b4: Reserved (0b0000)
//  926   // - Transaction sequence number (1 octet)
//  927   // - Command identifier (1 octect)
//  928   return zcl_SendCommand( srcEP, destAddr, ZCL_CLUSTER_ID_TOUCHLINK,
//  929                           cmd, TRUE, direction, TRUE, 0,
//  930                           seqNum, cmdFormatLen, cmdFormat );
        ; Setup parameters for call to function zcl_SendCommand
        MOV       R0,#?V2
        LCALL     ?PUSH_XSTACK_I_TWO
          CFI CFA_XSP16 add(XSP16, 20)
        MOV       R0,#?V6
        LCALL     ?PUSH_XSTACK_I_TWO
          CFI CFA_XSP16 add(XSP16, 22)
        MOV       A,?V0
        MOV       ?V8,A
        MOV       R0,#?V8
        LCALL     ?PUSH_XSTACK_I_ONE
          CFI CFA_XSP16 add(XSP16, 23)
        CLR       A
        MOV       ?V8,A
        MOV       ?V9,A
        MOV       R0,#?V8
        LCALL     ?PUSH_XSTACK_I_TWO
          CFI CFA_XSP16 add(XSP16, 25)
        MOV       ?V8,#0x1
        MOV       R0,#?V8
        LCALL     ?PUSH_XSTACK_I_ONE
          CFI CFA_XSP16 add(XSP16, 26)
        MOV       A,?V5
        MOV       ?V8,A
        MOV       R0,#?V8
        LCALL     ?PUSH_XSTACK_I_ONE
          CFI CFA_XSP16 add(XSP16, 27)
        MOV       ?V8,#0x1
        MOV       R0,#?V8
        LCALL     ?PUSH_XSTACK_I_ONE
          CFI CFA_XSP16 add(XSP16, 28)
        MOV       A,?V4
        MOV       ?V8,A
        MOV       R0,#?V8
        LCALL     ?PUSH_XSTACK_I_ONE
          CFI CFA_XSP16 add(XSP16, 29)
        MOV       R4,#0x0
        MOV       R5,#0x10
        MOV       A,R6
        MOV       R2,A
        MOV       A,R7
        MOV       R3,A
        MOV       R1,?V1
        LCALL     `??zcl_SendCommand::?relay`; Banked call to: zcl_SendCommand
        MOV       A,#0xb
        LCALL     ?DEALLOC_XSTACK8
          CFI CFA_XSP16 add(XSP16, 18)
        MOV       R7,#0xa
        LJMP      ?BANKED_LEAVE_XDATA
//  931 }
          CFI EndBlock cfiBlock16
//  932 
//  933 /*********************************************************************
//  934  * @fn      bdbTL_FindCallbacks
//  935  *
//  936  * @brief   Find the callbacks for an endpoint
//  937  *
//  938  * @param   endpoint
//  939  *
//  940  * @return  pointer to the callbacks
//  941  */

        RSEG BANKED_CODE:HUGECODE:NOROOT(0)
//  942 static bdbTL_AppCallbacks_t *bdbTL_FindCallbacks( uint8 endpoint )
bdbTL_FindCallbacks:
          CFI Block cfiBlock17 Using cfiCommon0
          CFI Function bdbTL_FindCallbacks
        CODE
//  943 {
        PUSH      DPL
          CFI DPL0 Frame(CFA_SP, 4)
          CFI CFA_SP SP+-4
        PUSH      DPH
          CFI DPH0 Frame(CFA_SP, 5)
          CFI CFA_SP SP+-5
        ; Saved register size: 2
        ; Auto size: 0
//  944   bdbTLCBRec_t *pCBs;
//  945 
//  946   pCBs = bdbTLCBs;
        MOV       DPTR,#bdbTLCBs
        MOVX      A,@DPTR
        MOV       R2,A
        INC       DPTR
        MOVX      A,@DPTR
        MOV       R3,A
        MOV       A,R2
        MOV       R4,A
        MOV       A,R3
        MOV       R5,A
//  947   while ( pCBs )
??bdbTL_FindCallbacks_0:
        MOV       A,R4
        ORL       A,R5
        JZ        ??bdbTL_FindCallbacks_1
//  948   {
//  949     if ( pCBs->endpoint == endpoint )
        MOV       DPL,R4
        MOV       DPH,R5
        INC       DPTR
        INC       DPTR
        MOVX      A,@DPTR
        XRL       A,R1
        JNZ       ??bdbTL_FindCallbacks_2
//  950       return ( pCBs->CBs );
        MOV       DPL,R4
        MOV       DPH,R5
        INC       DPTR
        INC       DPTR
        INC       DPTR
        MOVX      A,@DPTR
        MOV       R2,A
        INC       DPTR
        MOVX      A,@DPTR
        MOV       R3,A
        SJMP      ??bdbTL_FindCallbacks_3
//  951     pCBs = pCBs->next;
??bdbTL_FindCallbacks_2:
        MOV       DPL,R4
        MOV       DPH,R5
        MOVX      A,@DPTR
        MOV       R2,A
        INC       DPTR
        MOVX      A,@DPTR
        MOV       R3,A
        MOV       A,R2
        MOV       R4,A
        MOV       A,R3
        MOV       R5,A
        SJMP      ??bdbTL_FindCallbacks_0
//  952   }
//  953 
//  954   return ( (bdbTL_AppCallbacks_t *)NULL );
??bdbTL_FindCallbacks_1:
        MOV       R2,#0x0
        MOV       R3,#0x0
??bdbTL_FindCallbacks_3:
        POP       DPH
          CFI DPH0 SameValue
          CFI CFA_SP SP+-4
        POP       DPL
          CFI DPL0 SameValue
          CFI CFA_SP SP+-3
        LJMP      ?BRET
//  955 }
          CFI EndBlock cfiBlock17
//  956 
//  957 /*********************************************************************
//  958  * @fn      bdbTL_HdlIncoming
//  959  *
//  960  * @brief   Callback from ZCL to process incoming Commands specific
//  961  *          to this cluster library or Profile commands for attributes
//  962  *          that aren't in the attribute list
//  963  *
//  964  * @param   pInMsg - pointer to the incoming message
//  965  *
//  966  * @return  ZStatus_t
//  967  */

        RSEG BANKED_CODE:HUGECODE:NOROOT(0)
//  968 static ZStatus_t bdbTL_HdlIncoming(  zclIncoming_t *pInMsg )
bdbTL_HdlIncoming:
          CFI Block cfiBlock18 Using cfiCommon0
          CFI Function bdbTL_HdlIncoming
        CODE
//  969 {
        FUNCALL bdbTL_HdlIncoming, StubAPS_InterPan
        LOCFRAME ISTACK, 0, STACK
        LOCFRAME PSTACK, 0, STACK
        LOCFRAME XSTACK, 9, STACK
        LOCFRAME IOVERLAY, 0, STATIC
        LOCFRAME DOVERLAY, 0, STATIC
        ARGFRAME ISTACK, 0, STACK
        ARGFRAME PSTACK, 0, STACK
        ARGFRAME XSTACK, 9, STACK
        ARGFRAME IOVERLAY, 0, STATIC
        ARGFRAME DOVERLAY, 0, STATIC
        FUNCALL bdbTL_HdlIncoming, bdbTL_HdlInInterPANCommands
        LOCFRAME ISTACK, 0, STACK
        LOCFRAME PSTACK, 0, STACK
        LOCFRAME XSTACK, 9, STACK
        LOCFRAME IOVERLAY, 0, STATIC
        LOCFRAME DOVERLAY, 0, STATIC
        ARGFRAME ISTACK, 0, STACK
        ARGFRAME PSTACK, 0, STACK
        ARGFRAME XSTACK, 9, STACK
        ARGFRAME IOVERLAY, 0, STATIC
        ARGFRAME DOVERLAY, 0, STATIC
        FUNCALL bdbTL_HdlIncoming, bdbTL_HdlInSpecificCommands
        LOCFRAME ISTACK, 0, STACK
        LOCFRAME PSTACK, 0, STACK
        LOCFRAME XSTACK, 9, STACK
        LOCFRAME IOVERLAY, 0, STATIC
        LOCFRAME DOVERLAY, 0, STATIC
        ARGFRAME ISTACK, 0, STACK
        ARGFRAME PSTACK, 0, STACK
        ARGFRAME XSTACK, 9, STACK
        ARGFRAME IOVERLAY, 0, STATIC
        ARGFRAME DOVERLAY, 0, STATIC
        REQUIRE ?V0
        MOV       A,#-0x9
        LCALL     ?BANKED_ENTER_XDATA
          CFI DPH0 load(1, XDATA, add(CFA_XSP16, literal(-1)))
          CFI DPL0 load(1, XDATA, add(CFA_XSP16, literal(-2)))
          CFI ?BRET_EXT load(1, XDATA, add(CFA_XSP16, literal(-3)))
          CFI ?RET_HIGH load(1, XDATA, add(CFA_XSP16, literal(-4)))
          CFI ?RET_LOW load(1, XDATA, add(CFA_XSP16, literal(-5)))
          CFI R7 load(1, XDATA, add(CFA_XSP16, literal(-6)))
          CFI V0 load(1, XDATA, add(CFA_XSP16, literal(-7)))
          CFI VB load(1, XDATA, add(CFA_XSP16, literal(-8)))
          CFI R6 load(1, XDATA, add(CFA_XSP16, literal(-9)))
          CFI CFA_SP SP+0
          CFI CFA_XSP16 add(XSP16, 9)
        ; Saved register size: 9
        ; Auto size: 0
        MOV       A,R2
        MOV       R6,A
        MOV       A,R3
        MOV       R7,A
//  970   ZStatus_t status = ZSuccess;
        MOV       ?V0,#0x0
//  971 
//  972   if ( StubAPS_InterPan( pInMsg->msg->srcAddr.panId, pInMsg->msg->srcAddr.endPoint ) )
        ; Setup parameters for call to function StubAPS_InterPan
        MOV       DPL,R6
        MOV       DPH,R7
        MOVX      A,@DPTR
        MOV       R0,A
        INC       DPTR
        MOVX      A,@DPTR
        XCH       A,R0
        ADD       A,#0xf
        MOV       DPL,A
        XCH       A,R0
        ADDC      A,#0x0
        MOV       DPH,A
        MOVX      A,@DPTR
        MOV       R1,A
        MOV       DPL,R6
        MOV       DPH,R7
        MOVX      A,@DPTR
        MOV       R0,A
        INC       DPTR
        MOVX      A,@DPTR
        XCH       A,R0
        ADD       A,#0x10
        MOV       DPL,A
        XCH       A,R0
        ADDC      A,#0x0
        MOV       DPH,A
        MOVX      A,@DPTR
        MOV       R2,A
        INC       DPTR
        MOVX      A,@DPTR
        MOV       R3,A
        LCALL     `??StubAPS_InterPan::?relay`; Banked call to: StubAPS_InterPan
        MOV       A,R1
        JZ        ??bdbTL_HdlIncoming_0
//  973   {
//  974     return ( bdbTL_HdlInInterPANCommands( pInMsg ) );
        ; Setup parameters for call to function bdbTL_HdlInInterPANCommands
        MOV       A,R6
        MOV       R2,A
        MOV       A,R7
        MOV       R3,A
        LCALL     `??bdbTL_HdlInInterPANCommands::?relay`; Banked call to: bdbTL_HdlInInterPANCommands
        SJMP      ??bdbTL_HdlIncoming_1
//  975   }
//  976 
//  977   if ( zcl_ClusterCmd( pInMsg->hdr.fc.type ) )
??bdbTL_HdlIncoming_0:
        MOV       DPL,R6
        MOV       DPH,R7
        INC       DPTR
        INC       DPTR
        MOVX      A,@DPTR
        ANL       A,#0x3
        MOV       R0,A
        INC       DPTR
        MOVX      A,@DPTR
        ANL       A,#0x0
        MOV       R1,A
        MOV       A,R0
        XRL       A,#0x1
        JNZ       ??bdbTL_HdlIncoming_2
//  978   {
//  979     // Is this a manufacturer specific command?
//  980     if ( pInMsg->hdr.fc.manuSpecific == 0 )
        MOV       DPL,R6
        MOV       DPH,R7
        INC       DPTR
        INC       DPTR
        MOVX      A,@DPTR
        MOV       R0,A
        INC       DPTR
        MOVX      A,@DPTR
        MOV       R1,A
        MOV       A,R0
        RRC       A
        RRC       A
        ANL       A,#0x3f
        ANL       A,#0x1
        MOV       C,0xE0 /* A   */.0
        JC        ??bdbTL_HdlIncoming_3
//  981     {
//  982       status = bdbTL_HdlInSpecificCommands( pInMsg );
        ; Setup parameters for call to function bdbTL_HdlInSpecificCommands
        MOV       A,R6
        MOV       R2,A
        MOV       A,R7
        MOV       R3,A
        LCALL     `??bdbTL_HdlInSpecificCommands::?relay`; Banked call to: bdbTL_HdlInSpecificCommands
        MOV       A,R1
        MOV       ?V0,A
        SJMP      ??bdbTL_HdlIncoming_4
//  983     }
//  984     else
//  985     {
//  986       // We don't support any manufacturer specific command.
//  987       status = ZFailure;
??bdbTL_HdlIncoming_3:
        MOV       ?V0,#0x1
        SJMP      ??bdbTL_HdlIncoming_4
//  988     }
//  989   }
//  990   else
//  991   {
//  992     // Handle all the normal (Read, Write...) commands -- should never get here
//  993     status = ZFailure;
??bdbTL_HdlIncoming_2:
        MOV       ?V0,#0x1
//  994   }
//  995   return ( status );
??bdbTL_HdlIncoming_4:
        MOV       R1,?V0
??bdbTL_HdlIncoming_1:
        MOV       R7,#0x1
        LJMP      ?BANKED_LEAVE_XDATA
//  996 }
          CFI EndBlock cfiBlock18
//  997 
//  998 /*********************************************************************
//  999  * @fn      bdbTL_HdlInSpecificCommands
// 1000  *
// 1001  * @brief   Callback from ZCL to process incoming Commands specific
// 1002  *          to this cluster library
// 1003  *
// 1004  * @param   pInMsg - pointer to the incoming message
// 1005  *
// 1006  * @return  ZStatus_t
// 1007  */

        RSEG BANKED_CODE:HUGECODE:NOROOT(0)
// 1008 static ZStatus_t bdbTL_HdlInSpecificCommands( zclIncoming_t *pInMsg )
bdbTL_HdlInSpecificCommands:
          CFI Block cfiBlock19 Using cfiCommon0
          CFI Function bdbTL_HdlInSpecificCommands
        CODE
// 1009 {
        FUNCALL bdbTL_HdlInSpecificCommands, bdbTL_FindCallbacks
        LOCFRAME ISTACK, 0, STACK
        LOCFRAME PSTACK, 0, STACK
        LOCFRAME XSTACK, 14, STACK
        LOCFRAME IOVERLAY, 0, STATIC
        LOCFRAME DOVERLAY, 0, STATIC
        ARGFRAME ISTACK, 0, STACK
        ARGFRAME PSTACK, 0, STACK
        ARGFRAME XSTACK, 14, STACK
        ARGFRAME IOVERLAY, 0, STATIC
        ARGFRAME DOVERLAY, 0, STATIC
        FUNCALL bdbTL_HdlInSpecificCommands, bdbTL_ProcessInLLCmds
        LOCFRAME ISTACK, 0, STACK
        LOCFRAME PSTACK, 0, STACK
        LOCFRAME XSTACK, 14, STACK
        LOCFRAME IOVERLAY, 0, STATIC
        LOCFRAME DOVERLAY, 0, STATIC
        ARGFRAME ISTACK, 0, STACK
        ARGFRAME PSTACK, 0, STACK
        ARGFRAME XSTACK, 14, STACK
        ARGFRAME IOVERLAY, 0, STATIC
        ARGFRAME DOVERLAY, 0, STATIC
        REQUIRE ?V0
        REQUIRE ?V1
        REQUIRE ?V2
        REQUIRE ?V4
        REQUIRE ?V5
        MOV       A,#-0xe
        LCALL     ?BANKED_ENTER_XDATA
          CFI DPH0 load(1, XDATA, add(CFA_XSP16, literal(-1)))
          CFI DPL0 load(1, XDATA, add(CFA_XSP16, literal(-2)))
          CFI ?BRET_EXT load(1, XDATA, add(CFA_XSP16, literal(-3)))
          CFI ?RET_HIGH load(1, XDATA, add(CFA_XSP16, literal(-4)))
          CFI ?RET_LOW load(1, XDATA, add(CFA_XSP16, literal(-5)))
          CFI R7 load(1, XDATA, add(CFA_XSP16, literal(-6)))
          CFI V5 load(1, XDATA, add(CFA_XSP16, literal(-7)))
          CFI V4 load(1, XDATA, add(CFA_XSP16, literal(-8)))
          CFI V3 load(1, XDATA, add(CFA_XSP16, literal(-9)))
          CFI V2 load(1, XDATA, add(CFA_XSP16, literal(-10)))
          CFI V1 load(1, XDATA, add(CFA_XSP16, literal(-11)))
          CFI V0 load(1, XDATA, add(CFA_XSP16, literal(-12)))
          CFI VB load(1, XDATA, add(CFA_XSP16, literal(-13)))
          CFI R6 load(1, XDATA, add(CFA_XSP16, literal(-14)))
          CFI CFA_SP SP+0
          CFI CFA_XSP16 add(XSP16, 14)
        ; Saved register size: 14
        ; Auto size: 0
        MOV       A,R2
        MOV       R6,A
        MOV       A,R3
        MOV       R7,A
// 1010   ZStatus_t status;
// 1011   bdbTL_AppCallbacks_t *pCBs;
// 1012 
// 1013   // make sure endpoint exists
// 1014   pCBs = bdbTL_FindCallbacks( pInMsg->msg->endPoint );
        ; Setup parameters for call to function bdbTL_FindCallbacks
        MOV       DPL,R6
        MOV       DPH,R7
        MOVX      A,@DPTR
        MOV       R0,A
        INC       DPTR
        MOVX      A,@DPTR
        XCH       A,R0
        ADD       A,#0x14
        MOV       DPL,A
        XCH       A,R0
        ADDC      A,#0x0
        MOV       DPH,A
        MOVX      A,@DPTR
        MOV       R1,A
        LCALL     `??bdbTL_FindCallbacks::?relay`; Banked call to: bdbTL_FindCallbacks
        MOV       ?V4,R2
        MOV       ?V5,R3
        MOV       ?V0,?V4
        MOV       ?V1,?V5
// 1015   if ( pCBs == NULL )
        MOV       A,?V0
        ORL       A,?V1
        JNZ       ??bdbTL_HdlInSpecificCommands_0
// 1016     return ( ZFailure );
        MOV       R1,#0x1
        SJMP      ??bdbTL_HdlInSpecificCommands_1
// 1017 
// 1018   switch ( pInMsg->msg->clusterId )
??bdbTL_HdlInSpecificCommands_0:
        MOV       DPL,R6
        MOV       DPH,R7
        MOVX      A,@DPTR
        MOV       R0,A
        INC       DPTR
        MOVX      A,@DPTR
        MOV       DPH,A
        MOV       DPL,R0
        INC       DPTR
        INC       DPTR
        INC       DPTR
        INC       DPTR
        MOVX      A,@DPTR
        XRL       A,#0x0
        JNZ       ??bdbTL_HdlInSpecificCommands_2
        INC       DPTR
        MOVX      A,@DPTR
        XRL       A,#0x10
??bdbTL_HdlInSpecificCommands_2:
        JNZ       ??bdbTL_HdlInSpecificCommands_3
// 1019   {
// 1020     case ZCL_CLUSTER_ID_TOUCHLINK:
// 1021       status = bdbTL_ProcessInLLCmds( pInMsg, pCBs );
        ; Setup parameters for call to function bdbTL_ProcessInLLCmds
        MOV       R4,?V0
        MOV       R5,?V1
        MOV       A,R6
        MOV       R2,A
        MOV       A,R7
        MOV       R3,A
        LCALL     `??bdbTL_ProcessInLLCmds::?relay`; Banked call to: bdbTL_ProcessInLLCmds
        MOV       A,R1
        MOV       ?V2,A
// 1022       break;
        SJMP      ??bdbTL_HdlInSpecificCommands_4
// 1023 
// 1024     default:
// 1025       status = ZFailure;
??bdbTL_HdlInSpecificCommands_3:
        MOV       ?V2,#0x1
// 1026       break;
// 1027   }
// 1028 
// 1029   return ( status );
??bdbTL_HdlInSpecificCommands_4:
        MOV       R1,?V2
??bdbTL_HdlInSpecificCommands_1:
        MOV       R7,#0x6
        LJMP      ?BANKED_LEAVE_XDATA
// 1030 }
          CFI EndBlock cfiBlock19
// 1031 
// 1032 /*********************************************************************
// 1033  * @fn      bdbTL_ProcessInLLCmds
// 1034  *
// 1035  * @brief   Callback from ZCL to process incoming Commands specific
// 1036  *          to this cluster library on a command ID basis
// 1037  *
// 1038  * @param   pInMsg - pointer to the incoming message
// 1039  * @param   pCBs - pointer to callbacks
// 1040  *
// 1041  * @return  ZStatus_t
// 1042  */

        RSEG BANKED_CODE:HUGECODE:NOROOT(0)
// 1043 static ZStatus_t bdbTL_ProcessInLLCmds( zclIncoming_t *pInMsg, bdbTL_AppCallbacks_t *pCBs )
bdbTL_ProcessInLLCmds:
          CFI Block cfiBlock20 Using cfiCommon0
          CFI Function bdbTL_ProcessInLLCmds
        CODE
// 1044 {
        FUNCALL bdbTL_ProcessInLLCmds, bdbTL_ProcessInCmd_GetGrpIDsReq
        LOCFRAME ISTACK, 0, STACK
        LOCFRAME PSTACK, 0, STACK
        LOCFRAME XSTACK, 11, STACK
        LOCFRAME IOVERLAY, 0, STATIC
        LOCFRAME DOVERLAY, 0, STATIC
        ARGFRAME ISTACK, 0, STACK
        ARGFRAME PSTACK, 0, STACK
        ARGFRAME XSTACK, 11, STACK
        ARGFRAME IOVERLAY, 0, STATIC
        ARGFRAME DOVERLAY, 0, STATIC
        FUNCALL bdbTL_ProcessInLLCmds, bdbTL_ProcessInCmd_GetEPListReq
        LOCFRAME ISTACK, 0, STACK
        LOCFRAME PSTACK, 0, STACK
        LOCFRAME XSTACK, 11, STACK
        LOCFRAME IOVERLAY, 0, STATIC
        LOCFRAME DOVERLAY, 0, STATIC
        ARGFRAME ISTACK, 0, STACK
        ARGFRAME PSTACK, 0, STACK
        ARGFRAME XSTACK, 11, STACK
        ARGFRAME IOVERLAY, 0, STATIC
        ARGFRAME DOVERLAY, 0, STATIC
        FUNCALL bdbTL_ProcessInLLCmds, bdbTL_ProcessInCmd_EndpointInfo
        LOCFRAME ISTACK, 0, STACK
        LOCFRAME PSTACK, 0, STACK
        LOCFRAME XSTACK, 11, STACK
        LOCFRAME IOVERLAY, 0, STATIC
        LOCFRAME DOVERLAY, 0, STATIC
        ARGFRAME ISTACK, 0, STACK
        ARGFRAME PSTACK, 0, STACK
        ARGFRAME XSTACK, 11, STACK
        ARGFRAME IOVERLAY, 0, STATIC
        ARGFRAME DOVERLAY, 0, STATIC
        FUNCALL bdbTL_ProcessInLLCmds, bdbTL_ProcessInCmd_GetGrpIDsRsp
        LOCFRAME ISTACK, 0, STACK
        LOCFRAME PSTACK, 0, STACK
        LOCFRAME XSTACK, 11, STACK
        LOCFRAME IOVERLAY, 0, STATIC
        LOCFRAME DOVERLAY, 0, STATIC
        ARGFRAME ISTACK, 0, STACK
        ARGFRAME PSTACK, 0, STACK
        ARGFRAME XSTACK, 11, STACK
        ARGFRAME IOVERLAY, 0, STATIC
        ARGFRAME DOVERLAY, 0, STATIC
        FUNCALL bdbTL_ProcessInLLCmds, bdbTL_ProcessInCmd_GetEPListRsp
        LOCFRAME ISTACK, 0, STACK
        LOCFRAME PSTACK, 0, STACK
        LOCFRAME XSTACK, 11, STACK
        LOCFRAME IOVERLAY, 0, STATIC
        LOCFRAME DOVERLAY, 0, STATIC
        ARGFRAME ISTACK, 0, STACK
        ARGFRAME PSTACK, 0, STACK
        ARGFRAME XSTACK, 11, STACK
        ARGFRAME IOVERLAY, 0, STATIC
        ARGFRAME DOVERLAY, 0, STATIC
        REQUIRE ?V0
        REQUIRE ?V1
        REQUIRE ?V2
        MOV       A,#-0xb
        LCALL     ?BANKED_ENTER_XDATA
          CFI DPH0 load(1, XDATA, add(CFA_XSP16, literal(-1)))
          CFI DPL0 load(1, XDATA, add(CFA_XSP16, literal(-2)))
          CFI ?BRET_EXT load(1, XDATA, add(CFA_XSP16, literal(-3)))
          CFI ?RET_HIGH load(1, XDATA, add(CFA_XSP16, literal(-4)))
          CFI ?RET_LOW load(1, XDATA, add(CFA_XSP16, literal(-5)))
          CFI R7 load(1, XDATA, add(CFA_XSP16, literal(-6)))
          CFI V2 load(1, XDATA, add(CFA_XSP16, literal(-7)))
          CFI V1 load(1, XDATA, add(CFA_XSP16, literal(-8)))
          CFI V0 load(1, XDATA, add(CFA_XSP16, literal(-9)))
          CFI VB load(1, XDATA, add(CFA_XSP16, literal(-10)))
          CFI R6 load(1, XDATA, add(CFA_XSP16, literal(-11)))
          CFI CFA_SP SP+0
          CFI CFA_XSP16 add(XSP16, 11)
        ; Saved register size: 11
        ; Auto size: 0
        MOV       A,R2
        MOV       R6,A
        MOV       A,R3
        MOV       R7,A
        MOV       ?V0,R4
        MOV       ?V1,R5
// 1045   ZStatus_t status = SUCCESS;
        MOV       ?V2,#0x0
// 1046 
// 1047   if ( zcl_ServerCmd( pInMsg->hdr.fc.direction ) )
        MOV       DPL,R6
        MOV       DPH,R7
        INC       DPTR
        INC       DPTR
        MOVX      A,@DPTR
        MOV       R0,A
        INC       DPTR
        MOVX      A,@DPTR
        MOV       R1,A
        MOV       A,R0
        RRC       A
        RRC       A
        RRC       A
        ANL       A,#0x1f
        ANL       A,#0x1
        MOV       C,0xE0 /* A   */.0
        JC        ??bdbTL_ProcessInLLCmds_0
// 1048   {
// 1049     switch ( pInMsg->hdr.commandID )
        MOV       DPL,R6
        MOV       DPH,R7
        INC       DPTR
        INC       DPTR
        INC       DPTR
        INC       DPTR
        INC       DPTR
        INC       DPTR
        INC       DPTR
        MOVX      A,@DPTR
        ADD       A,#-0x41
        JZ        ??bdbTL_ProcessInLLCmds_1
        DEC       A
        JZ        ??bdbTL_ProcessInLLCmds_2
        SJMP      ??bdbTL_ProcessInLLCmds_3
// 1050     {
// 1051       case COMMAND_TOUCHLINK_GET_GRP_IDS_REQ:
// 1052         status = bdbTL_ProcessInCmd_GetGrpIDsReq( pInMsg, pCBs );
??bdbTL_ProcessInLLCmds_1:
        ; Setup parameters for call to function bdbTL_ProcessInCmd_GetGrpIDsReq
        MOV       R4,?V0
        MOV       R5,?V1
        MOV       A,R6
        MOV       R2,A
        MOV       A,R7
        MOV       R3,A
        LCALL     `??bdbTL_ProcessInCmd_GetGrpIDsReq::?relay`; Banked call to: bdbTL_ProcessInCmd_GetGrpIDsReq
        MOV       A,R1
        MOV       ?V2,A
// 1053         break;
        SJMP      ??bdbTL_ProcessInLLCmds_4
// 1054 
// 1055       case COMMAND_TOUCHLINK_GET_EP_LIST_REQ:
// 1056         status = bdbTL_ProcessInCmd_GetEPListReq( pInMsg, pCBs );
??bdbTL_ProcessInLLCmds_2:
        ; Setup parameters for call to function bdbTL_ProcessInCmd_GetEPListReq
        MOV       R4,?V0
        MOV       R5,?V1
        MOV       A,R6
        MOV       R2,A
        MOV       A,R7
        MOV       R3,A
        LCALL     `??bdbTL_ProcessInCmd_GetEPListReq::?relay`; Banked call to: bdbTL_ProcessInCmd_GetEPListReq
        MOV       A,R1
        MOV       ?V2,A
// 1057         break;
        SJMP      ??bdbTL_ProcessInLLCmds_4
// 1058 
// 1059       default:
// 1060         status = ZFailure;   // Error ignore the command
??bdbTL_ProcessInLLCmds_3:
        MOV       ?V2,#0x1
// 1061         break;
        SJMP      ??bdbTL_ProcessInLLCmds_4
// 1062      }
// 1063   }
// 1064   else // Client Commands
// 1065   {
// 1066     switch ( pInMsg->hdr.commandID )
??bdbTL_ProcessInLLCmds_0:
        MOV       DPL,R6
        MOV       DPH,R7
        INC       DPTR
        INC       DPTR
        INC       DPTR
        INC       DPTR
        INC       DPTR
        INC       DPTR
        INC       DPTR
        MOVX      A,@DPTR
        ADD       A,#-0x40
        JZ        ??bdbTL_ProcessInLLCmds_5
        DEC       A
        JZ        ??bdbTL_ProcessInLLCmds_6
        DEC       A
        JZ        ??bdbTL_ProcessInLLCmds_7
        SJMP      ??bdbTL_ProcessInLLCmds_8
// 1067     {
// 1068       case COMMAND_TOUCHLINK_EP_INFO:
// 1069         status = bdbTL_ProcessInCmd_EndpointInfo( pInMsg, pCBs );
??bdbTL_ProcessInLLCmds_5:
        ; Setup parameters for call to function bdbTL_ProcessInCmd_EndpointInfo
        MOV       R4,?V0
        MOV       R5,?V1
        MOV       A,R6
        MOV       R2,A
        MOV       A,R7
        MOV       R3,A
        LCALL     `??bdbTL_ProcessInCmd_EndpointInfo::?relay`; Banked call to: bdbTL_ProcessInCmd_EndpointInfo
        MOV       A,R1
        MOV       ?V2,A
// 1070         break;
        SJMP      ??bdbTL_ProcessInLLCmds_4
// 1071 
// 1072       case COMMAND_TOUCHLINK_GET_GRP_IDS_RSP:
// 1073         status = bdbTL_ProcessInCmd_GetGrpIDsRsp( pInMsg, pCBs );
??bdbTL_ProcessInLLCmds_6:
        ; Setup parameters for call to function bdbTL_ProcessInCmd_GetGrpIDsRsp
        MOV       R4,?V0
        MOV       R5,?V1
        MOV       A,R6
        MOV       R2,A
        MOV       A,R7
        MOV       R3,A
        LCALL     `??bdbTL_ProcessInCmd_GetGrpIDsRsp::?relay`; Banked call to: bdbTL_ProcessInCmd_GetGrpIDsRsp
        MOV       A,R1
        MOV       ?V2,A
// 1074         break;
        SJMP      ??bdbTL_ProcessInLLCmds_4
// 1075 
// 1076       case COMMAND_TOUCHLINK_GET_EP_LIST_RSP:
// 1077         status = bdbTL_ProcessInCmd_GetEPListRsp( pInMsg, pCBs );
??bdbTL_ProcessInLLCmds_7:
        ; Setup parameters for call to function bdbTL_ProcessInCmd_GetEPListRsp
        MOV       R4,?V0
        MOV       R5,?V1
        MOV       A,R6
        MOV       R2,A
        MOV       A,R7
        MOV       R3,A
        LCALL     `??bdbTL_ProcessInCmd_GetEPListRsp::?relay`; Banked call to: bdbTL_ProcessInCmd_GetEPListRsp
        MOV       A,R1
        MOV       ?V2,A
// 1078         break;
        SJMP      ??bdbTL_ProcessInLLCmds_4
// 1079 
// 1080       default:
// 1081         status = ZFailure;   // Error ignore the command
??bdbTL_ProcessInLLCmds_8:
        MOV       ?V2,#0x1
// 1082         break;
// 1083     }
// 1084   }
// 1085 
// 1086   return ( status );
??bdbTL_ProcessInLLCmds_4:
        MOV       R1,?V2
        MOV       R7,#0x3
        LJMP      ?BANKED_LEAVE_XDATA
// 1087 }
          CFI EndBlock cfiBlock20
// 1088 
// 1089 
// 1090 /*********************************************************************
// 1091  * @fn      bdbTL_ProcessInCmd_GetGrpIDsReq
// 1092  *
// 1093  * @brief   Process in the received Get Group Identifiers Request command.
// 1094  *
// 1095  * @param   pInMsg - pointer to the incoming message
// 1096  * @param   pCBs - pointer to the application callbacks
// 1097  *
// 1098  * @return  ZStatus_t
// 1099  */

        RSEG BANKED_CODE:HUGECODE:NOROOT(0)
// 1100 static ZStatus_t bdbTL_ProcessInCmd_GetGrpIDsReq( zclIncoming_t *pInMsg,
bdbTL_ProcessInCmd_GetGrpIDsReq:
          CFI Block cfiBlock21 Using cfiCommon0
          CFI Function bdbTL_ProcessInCmd_GetGrpIDsReq
        CODE
// 1101                                                   bdbTL_AppCallbacks_t *pCBs )
// 1102 {
        REQUIRE ?V0
        REQUIRE ?V1
        MOV       A,#-0xa
        LCALL     ?BANKED_ENTER_XDATA
          CFI DPH0 load(1, XDATA, add(CFA_XSP16, literal(-1)))
          CFI DPL0 load(1, XDATA, add(CFA_XSP16, literal(-2)))
          CFI ?BRET_EXT load(1, XDATA, add(CFA_XSP16, literal(-3)))
          CFI ?RET_HIGH load(1, XDATA, add(CFA_XSP16, literal(-4)))
          CFI ?RET_LOW load(1, XDATA, add(CFA_XSP16, literal(-5)))
          CFI R7 load(1, XDATA, add(CFA_XSP16, literal(-6)))
          CFI V1 load(1, XDATA, add(CFA_XSP16, literal(-7)))
          CFI V0 load(1, XDATA, add(CFA_XSP16, literal(-8)))
          CFI VB load(1, XDATA, add(CFA_XSP16, literal(-9)))
          CFI R6 load(1, XDATA, add(CFA_XSP16, literal(-10)))
          CFI CFA_SP SP+0
          CFI CFA_XSP16 add(XSP16, 10)
        ; Saved register size: 10
        ; Auto size: 1
        MOV       A,#-0x1
        LCALL     ?ALLOC_XSTACK8
          CFI CFA_XSP16 add(XSP16, 11)
        MOV       A,R2
        MOV       R6,A
        MOV       A,R3
        MOV       R7,A
        MOV       ?V0,R4
        MOV       ?V1,R5
// 1103   if ( pCBs->pfnGetGrpIDsReq )
        MOV       DPL,?V0
        MOV       DPH,?V1
        MOVX      A,@DPTR
        MOV       R0,A
        INC       DPTR
        MOVX      A,@DPTR
        MOV       R1,A
        MOV       A,R0
        ORL       A,R1
        JZ        ??bdbTL_ProcessInCmd_GetGrpIDsReq_0
// 1104   {
// 1105     bdbTLGetGrpIDsReq_t req;
// 1106 
// 1107     req.startIndex = pInMsg->pData[0];
        MOV       DPL,R6
        MOV       DPH,R7
        INC       DPTR
        INC       DPTR
        INC       DPTR
        INC       DPTR
        INC       DPTR
        INC       DPTR
        INC       DPTR
        INC       DPTR
        MOVX      A,@DPTR
        MOV       R0,A
        INC       DPTR
        MOVX      A,@DPTR
        MOV       DPH,A
        MOV       DPL,R0
        MOVX      A,@DPTR
        PUSH      A
          CFI CFA_SP SP+-1
        MOV       DPL,?XSP + 0
        MOV       DPH,?XSP + 1
        POP       A
          CFI CFA_SP SP+0
        MOVX      @DPTR,A
// 1108 
// 1109     if ( pCBs->pfnGetGrpIDsReq( &(pInMsg->msg->srcAddr), &req, pInMsg->hdr.transSeqNum ) == ZSuccess )
        ; Setup parameters for indirect call
        MOV       DPL,R6
        MOV       DPH,R7
        INC       DPTR
        INC       DPTR
        INC       DPTR
        INC       DPTR
        INC       DPTR
        INC       DPTR
        MOVX      A,@DPTR
        MOV       R1,A
        MOV       R4,?XSP + 0
        MOV       R5,?XSP + 1
        MOV       DPL,R6
        MOV       DPH,R7
        MOVX      A,@DPTR
        ADD       A,#0x6
        MOV       R2,A
        INC       DPTR
        MOVX      A,@DPTR
        ADDC      A,#0x0
        MOV       R3,A
        MOV       DPL,?V0
        MOV       DPH,?V1
        MOVX      A,@DPTR
        MOV       R0,A
        INC       DPTR
        MOVX      A,@DPTR
        MOV       DPH,A
        MOV       DPL,R0
        LCALL     ?CALL_IND
        MOV       A,R1
        JNZ       ??bdbTL_ProcessInCmd_GetGrpIDsReq_0
// 1110     {
// 1111       return ( ZCL_STATUS_CMD_HAS_RSP );
        MOV       R1,#-0x1
        SJMP      ??bdbTL_ProcessInCmd_GetGrpIDsReq_1
// 1112     }
// 1113   }
// 1114 
// 1115   return ( ZFailure );
??bdbTL_ProcessInCmd_GetGrpIDsReq_0:
        MOV       R1,#0x1
??bdbTL_ProcessInCmd_GetGrpIDsReq_1:
        MOV       A,#0x1
        LCALL     ?DEALLOC_XSTACK8
          CFI CFA_XSP16 add(XSP16, 10)
        MOV       R7,#0x2
        LJMP      ?BANKED_LEAVE_XDATA
// 1116 }
          CFI EndBlock cfiBlock21
// 1117 
// 1118 /*********************************************************************
// 1119  * @fn      bdbTL_ProcessInCmd_GetEPListReq
// 1120  *
// 1121  * @brief   Process in the received Get Endpoint List Request command.
// 1122  *
// 1123  * @param   pInMsg - pointer to the incoming message
// 1124  * @param   pCBs - pointer to the application callbacks
// 1125  *
// 1126  * @return  ZStatus_t
// 1127  */

        RSEG BANKED_CODE:HUGECODE:NOROOT(0)
// 1128 static ZStatus_t bdbTL_ProcessInCmd_GetEPListReq( zclIncoming_t *pInMsg,
bdbTL_ProcessInCmd_GetEPListReq:
          CFI Block cfiBlock22 Using cfiCommon0
          CFI Function bdbTL_ProcessInCmd_GetEPListReq
        CODE
// 1129                                                   bdbTL_AppCallbacks_t *pCBs )
// 1130 {
        REQUIRE ?V0
        REQUIRE ?V1
        MOV       A,#-0xa
        LCALL     ?BANKED_ENTER_XDATA
          CFI DPH0 load(1, XDATA, add(CFA_XSP16, literal(-1)))
          CFI DPL0 load(1, XDATA, add(CFA_XSP16, literal(-2)))
          CFI ?BRET_EXT load(1, XDATA, add(CFA_XSP16, literal(-3)))
          CFI ?RET_HIGH load(1, XDATA, add(CFA_XSP16, literal(-4)))
          CFI ?RET_LOW load(1, XDATA, add(CFA_XSP16, literal(-5)))
          CFI R7 load(1, XDATA, add(CFA_XSP16, literal(-6)))
          CFI V1 load(1, XDATA, add(CFA_XSP16, literal(-7)))
          CFI V0 load(1, XDATA, add(CFA_XSP16, literal(-8)))
          CFI VB load(1, XDATA, add(CFA_XSP16, literal(-9)))
          CFI R6 load(1, XDATA, add(CFA_XSP16, literal(-10)))
          CFI CFA_SP SP+0
          CFI CFA_XSP16 add(XSP16, 10)
        ; Saved register size: 10
        ; Auto size: 1
        MOV       A,#-0x1
        LCALL     ?ALLOC_XSTACK8
          CFI CFA_XSP16 add(XSP16, 11)
        MOV       A,R2
        MOV       R6,A
        MOV       A,R3
        MOV       R7,A
        MOV       ?V0,R4
        MOV       ?V1,R5
// 1131   if ( pCBs->pfnGetEPListReq )
        MOV       DPL,?V0
        MOV       DPH,?V1
        INC       DPTR
        INC       DPTR
        MOVX      A,@DPTR
        MOV       R0,A
        INC       DPTR
        MOVX      A,@DPTR
        MOV       R1,A
        MOV       A,R0
        ORL       A,R1
        JZ        ??bdbTL_ProcessInCmd_GetEPListReq_0
// 1132   {
// 1133     bdbTLGetEPListReq_t req;
// 1134 
// 1135     req.startIndex = pInMsg->pData[0];
        MOV       DPL,R6
        MOV       DPH,R7
        INC       DPTR
        INC       DPTR
        INC       DPTR
        INC       DPTR
        INC       DPTR
        INC       DPTR
        INC       DPTR
        INC       DPTR
        MOVX      A,@DPTR
        MOV       R0,A
        INC       DPTR
        MOVX      A,@DPTR
        MOV       DPH,A
        MOV       DPL,R0
        MOVX      A,@DPTR
        PUSH      A
          CFI CFA_SP SP+-1
        MOV       DPL,?XSP + 0
        MOV       DPH,?XSP + 1
        POP       A
          CFI CFA_SP SP+0
        MOVX      @DPTR,A
// 1136 
// 1137     if ( pCBs->pfnGetEPListReq( &(pInMsg->msg->srcAddr), &req, pInMsg->hdr.transSeqNum ) == ZSuccess )
        ; Setup parameters for indirect call
        MOV       DPL,R6
        MOV       DPH,R7
        INC       DPTR
        INC       DPTR
        INC       DPTR
        INC       DPTR
        INC       DPTR
        INC       DPTR
        MOVX      A,@DPTR
        MOV       R1,A
        MOV       R4,?XSP + 0
        MOV       R5,?XSP + 1
        MOV       DPL,R6
        MOV       DPH,R7
        MOVX      A,@DPTR
        ADD       A,#0x6
        MOV       R2,A
        INC       DPTR
        MOVX      A,@DPTR
        ADDC      A,#0x0
        MOV       R3,A
        MOV       DPL,?V0
        MOV       DPH,?V1
        INC       DPTR
        INC       DPTR
        MOVX      A,@DPTR
        MOV       R0,A
        INC       DPTR
        MOVX      A,@DPTR
        MOV       DPH,A
        MOV       DPL,R0
        LCALL     ?CALL_IND
        MOV       A,R1
        JNZ       ??bdbTL_ProcessInCmd_GetEPListReq_0
// 1138     {
// 1139       return ( ZCL_STATUS_CMD_HAS_RSP );
        MOV       R1,#-0x1
        SJMP      ??bdbTL_ProcessInCmd_GetEPListReq_1
// 1140     }
// 1141   }
// 1142 
// 1143   return ( ZFailure );
??bdbTL_ProcessInCmd_GetEPListReq_0:
        MOV       R1,#0x1
??bdbTL_ProcessInCmd_GetEPListReq_1:
        MOV       A,#0x1
        LCALL     ?DEALLOC_XSTACK8
          CFI CFA_XSP16 add(XSP16, 10)
        MOV       R7,#0x2
        LJMP      ?BANKED_LEAVE_XDATA
// 1144 }
          CFI EndBlock cfiBlock22
// 1145 
// 1146 
// 1147 /*********************************************************************
// 1148  * @fn      bdbTL_ProcessInCmd_EndpointInfo
// 1149  *
// 1150  * @brief   Process in the received Endpoint Information command.
// 1151  *
// 1152  * @param   pInMsg - pointer to the incoming message
// 1153  * @param   pCBs - pointer to the application callbacks
// 1154  *
// 1155  * @return  ZStatus_t
// 1156  */

        RSEG BANKED_CODE:HUGECODE:NOROOT(0)
// 1157 static ZStatus_t bdbTL_ProcessInCmd_EndpointInfo( zclIncoming_t *pInMsg,
bdbTL_ProcessInCmd_EndpointInfo:
          CFI Block cfiBlock23 Using cfiCommon0
          CFI Function bdbTL_ProcessInCmd_EndpointInfo
        CODE
// 1158                                                   bdbTL_AppCallbacks_t *pCBs )
// 1159 {
        FUNCALL bdbTL_ProcessInCmd_EndpointInfo, osal_mem_alloc
        LOCFRAME ISTACK, 0, STACK
        LOCFRAME PSTACK, 0, STACK
        LOCFRAME XSTACK, 18, STACK
        LOCFRAME IOVERLAY, 0, STATIC
        LOCFRAME DOVERLAY, 0, STATIC
        ARGFRAME ISTACK, 0, STACK
        ARGFRAME PSTACK, 0, STACK
        ARGFRAME XSTACK, 18, STACK
        ARGFRAME IOVERLAY, 0, STATIC
        ARGFRAME DOVERLAY, 0, STATIC
        FUNCALL bdbTL_ProcessInCmd_EndpointInfo, sAddrExtCpy
        LOCFRAME ISTACK, 0, STACK
        LOCFRAME PSTACK, 0, STACK
        LOCFRAME XSTACK, 18, STACK
        LOCFRAME IOVERLAY, 0, STATIC
        LOCFRAME DOVERLAY, 0, STATIC
        ARGFRAME ISTACK, 0, STACK
        ARGFRAME PSTACK, 0, STACK
        ARGFRAME XSTACK, 18, STACK
        ARGFRAME IOVERLAY, 0, STATIC
        ARGFRAME DOVERLAY, 0, STATIC
        FUNCALL bdbTL_ProcessInCmd_EndpointInfo, osal_mem_free
        LOCFRAME ISTACK, 0, STACK
        LOCFRAME PSTACK, 0, STACK
        LOCFRAME XSTACK, 18, STACK
        LOCFRAME IOVERLAY, 0, STATIC
        LOCFRAME DOVERLAY, 0, STATIC
        ARGFRAME ISTACK, 0, STACK
        ARGFRAME PSTACK, 0, STACK
        ARGFRAME XSTACK, 18, STACK
        ARGFRAME IOVERLAY, 0, STATIC
        ARGFRAME DOVERLAY, 0, STATIC
        REQUIRE ?V0
        REQUIRE ?V1
        REQUIRE ?V2
        REQUIRE ?V4
        REQUIRE ?V5
        REQUIRE ?V6
        REQUIRE ?V7
        REQUIRE ?V8
        REQUIRE ?V9
        MOV       A,#-0x12
        LCALL     ?BANKED_ENTER_XDATA
          CFI DPH0 load(1, XDATA, add(CFA_XSP16, literal(-1)))
          CFI DPL0 load(1, XDATA, add(CFA_XSP16, literal(-2)))
          CFI ?BRET_EXT load(1, XDATA, add(CFA_XSP16, literal(-3)))
          CFI ?RET_HIGH load(1, XDATA, add(CFA_XSP16, literal(-4)))
          CFI ?RET_LOW load(1, XDATA, add(CFA_XSP16, literal(-5)))
          CFI R7 load(1, XDATA, add(CFA_XSP16, literal(-6)))
          CFI V9 load(1, XDATA, add(CFA_XSP16, literal(-7)))
          CFI V8 load(1, XDATA, add(CFA_XSP16, literal(-8)))
          CFI V7 load(1, XDATA, add(CFA_XSP16, literal(-9)))
          CFI V6 load(1, XDATA, add(CFA_XSP16, literal(-10)))
          CFI V5 load(1, XDATA, add(CFA_XSP16, literal(-11)))
          CFI V4 load(1, XDATA, add(CFA_XSP16, literal(-12)))
          CFI V3 load(1, XDATA, add(CFA_XSP16, literal(-13)))
          CFI V2 load(1, XDATA, add(CFA_XSP16, literal(-14)))
          CFI V1 load(1, XDATA, add(CFA_XSP16, literal(-15)))
          CFI V0 load(1, XDATA, add(CFA_XSP16, literal(-16)))
          CFI VB load(1, XDATA, add(CFA_XSP16, literal(-17)))
          CFI R6 load(1, XDATA, add(CFA_XSP16, literal(-18)))
          CFI CFA_SP SP+0
          CFI CFA_XSP16 add(XSP16, 18)
        ; Saved register size: 18
        ; Auto size: 0
        MOV       ?V6,R2
        MOV       ?V7,R3
        MOV       ?V4,R4
        MOV       ?V5,R5
// 1160   ZStatus_t status = ZFailure;
        MOV       ?V2,#0x1
// 1161 
// 1162   if ( pCBs->pfnEndpointInfo )
        MOV       DPL,?V4
        MOV       DPH,?V5
        INC       DPTR
        INC       DPTR
        INC       DPTR
        INC       DPTR
        MOVX      A,@DPTR
        MOV       R0,A
        INC       DPTR
        MOVX      A,@DPTR
        MOV       R1,A
        MOV       A,R0
        ORL       A,R1
        JNZ       $+5
        LJMP      ??bdbTL_ProcessInCmd_EndpointInfo_0 & 0xFFFF
// 1163   {
// 1164     bdbTLEndpointInfo_t *pCmd;
// 1165 
// 1166     pCmd = (bdbTLEndpointInfo_t *)zcl_mem_alloc( sizeof( bdbTLEndpointInfo_t ) );
        ; Setup parameters for call to function osal_mem_alloc
        MOV       R2,#0x10
        MOV       R3,#0x0
        LCALL     `??osal_mem_alloc::?relay`; Banked call to: osal_mem_alloc
        MOV       ?V8,R2
        MOV       ?V9,R3
        MOV       ?V0,?V8
        MOV       ?V1,?V9
// 1167     if ( pCmd )
        MOV       A,?V0
        ORL       A,?V1
        JNZ       $+5
        LJMP      ??bdbTL_ProcessInCmd_EndpointInfo_1 & 0xFFFF
// 1168     {
// 1169       uint8 *pBuf = pInMsg->pData;
        MOV       DPL,?V6
        MOV       DPH,?V7
        INC       DPTR
        INC       DPTR
        INC       DPTR
        INC       DPTR
        INC       DPTR
        INC       DPTR
        INC       DPTR
        INC       DPTR
        MOVX      A,@DPTR
        MOV       R6,A
        INC       DPTR
        MOVX      A,@DPTR
        MOV       R7,A
// 1170 
// 1171       zcl_cpyExtAddr( pCmd->ieeeAddr, pBuf );
        ; Setup parameters for call to function sAddrExtCpy
        MOV       A,R6
        MOV       R4,A
        MOV       A,R7
        MOV       R5,A
        MOV       R2,?V0
        MOV       R3,?V1
        LCALL     `??sAddrExtCpy::?relay`; Banked call to: sAddrExtCpy
// 1172       pBuf += Z_EXTADDR_LEN;
        MOV       A,R6
        ADD       A,#0x8
        MOV       R6,A
        JNC       ??bdbTL_ProcessInCmd_EndpointInfo_2
        INC       R7
// 1173 
// 1174       pCmd->nwkAddr = BUILD_UINT16( pBuf[0], pBuf[1] );
??bdbTL_ProcessInCmd_EndpointInfo_2:
        MOV       DPL,R6
        MOV       DPH,R7
        MOVX      A,@DPTR
        MOV       R2,A
        MOV       R3,#0x0
        MOV       DPL,R6
        MOV       DPH,R7
        INC       DPTR
        MOVX      A,@DPTR
        MOV       R0,A
        MOV       R1,#0x0
        CLR       A
        XCH       A,R0
        MOV       R1,A
        MOV       A,R2
        ADD       A,R0
        MOV       R0,A
        MOV       A,R3
        ADDC      A,R1
        MOV       R1,A
        MOV       DPL,?V0
        MOV       DPH,?V1
        INC       DPTR
        INC       DPTR
        INC       DPTR
        INC       DPTR
        INC       DPTR
        INC       DPTR
        INC       DPTR
        INC       DPTR
        MOV       A,R0
        MOVX      @DPTR,A
        INC       DPTR
        MOV       A,R1
        MOVX      @DPTR,A
// 1175       pBuf += 2;
        MOV       A,R6
        ADD       A,#0x2
        MOV       R6,A
        JNC       ??bdbTL_ProcessInCmd_EndpointInfo_3
        INC       R7
// 1176 
// 1177       pCmd->endpoint = *pBuf++;
??bdbTL_ProcessInCmd_EndpointInfo_3:
        MOV       DPL,R6
        MOV       DPH,R7
        MOVX      A,@DPTR
        PUSH      A
          CFI CFA_SP SP+-1
        MOV       DPL,?V0
        MOV       DPH,?V1
        INC       DPTR
        INC       DPTR
        INC       DPTR
        INC       DPTR
        INC       DPTR
        INC       DPTR
        INC       DPTR
        INC       DPTR
        INC       DPTR
        INC       DPTR
        POP       A
          CFI CFA_SP SP+0
        MOVX      @DPTR,A
        MOV       DPL,R6
        MOV       DPH,R7
        INC       DPTR
        MOV       R6,DPL
        MOV       R7,DPH
// 1178 
// 1179       pCmd->profileID = BUILD_UINT16( pBuf[0], pBuf[1] );
        MOV       DPL,R6
        MOV       DPH,R7
        MOVX      A,@DPTR
        MOV       R2,A
        MOV       R3,#0x0
        MOV       DPL,R6
        MOV       DPH,R7
        INC       DPTR
        MOVX      A,@DPTR
        MOV       R0,A
        MOV       R1,#0x0
        CLR       A
        XCH       A,R0
        MOV       R1,A
        MOV       A,R2
        ADD       A,R0
        MOV       R0,A
        MOV       A,R3
        ADDC      A,R1
        MOV       R1,A
        MOV       A,?V0
        ADD       A,#0xb
        MOV       DPL,A
        CLR       A
        ADDC      A,?V1
        MOV       DPH,A
        MOV       A,R0
        MOVX      @DPTR,A
        INC       DPTR
        MOV       A,R1
        MOVX      @DPTR,A
// 1180       pBuf += 2;
        MOV       A,R6
        ADD       A,#0x2
        MOV       R6,A
        JNC       ??bdbTL_ProcessInCmd_EndpointInfo_4
        INC       R7
// 1181 
// 1182       pCmd->deviceID = BUILD_UINT16( pBuf[0], pBuf[1] );
??bdbTL_ProcessInCmd_EndpointInfo_4:
        MOV       DPL,R6
        MOV       DPH,R7
        MOVX      A,@DPTR
        MOV       R2,A
        MOV       R3,#0x0
        MOV       DPL,R6
        MOV       DPH,R7
        INC       DPTR
        MOVX      A,@DPTR
        MOV       R0,A
        MOV       R1,#0x0
        CLR       A
        XCH       A,R0
        MOV       R1,A
        MOV       A,R2
        ADD       A,R0
        MOV       R0,A
        MOV       A,R3
        ADDC      A,R1
        MOV       R1,A
        MOV       A,?V0
        ADD       A,#0xd
        MOV       DPL,A
        CLR       A
        ADDC      A,?V1
        MOV       DPH,A
        MOV       A,R0
        MOVX      @DPTR,A
        INC       DPTR
        MOV       A,R1
        MOVX      @DPTR,A
// 1183       pBuf += 2;
        MOV       A,R6
        ADD       A,#0x2
        MOV       R6,A
        JNC       ??bdbTL_ProcessInCmd_EndpointInfo_5
        INC       R7
// 1184 
// 1185       pCmd->version = *pBuf++;
??bdbTL_ProcessInCmd_EndpointInfo_5:
        MOV       DPL,R6
        MOV       DPH,R7
        MOVX      A,@DPTR
        PUSH      A
          CFI CFA_SP SP+-1
        MOV       A,?V0
        ADD       A,#0xf
        MOV       DPL,A
        CLR       A
        ADDC      A,?V1
        MOV       DPH,A
        POP       A
          CFI CFA_SP SP+0
        MOVX      @DPTR,A
        MOV       DPL,R6
        MOV       DPH,R7
        INC       DPTR
        MOV       R6,DPL
        MOV       R7,DPH
// 1186 
// 1187       status = pCBs->pfnEndpointInfo( &(pInMsg->msg->srcAddr), pCmd );
        ; Setup parameters for indirect call
        MOV       R4,?V0
        MOV       R5,?V1
        MOV       DPL,?V6
        MOV       DPH,?V7
        MOVX      A,@DPTR
        ADD       A,#0x6
        MOV       R2,A
        INC       DPTR
        MOVX      A,@DPTR
        ADDC      A,#0x0
        MOV       R3,A
        MOV       DPL,?V4
        MOV       DPH,?V5
        INC       DPTR
        INC       DPTR
        INC       DPTR
        INC       DPTR
        MOVX      A,@DPTR
        MOV       R0,A
        INC       DPTR
        MOVX      A,@DPTR
        MOV       DPH,A
        MOV       DPL,R0
        LCALL     ?CALL_IND
        MOV       A,R1
        MOV       ?V2,A
// 1188 
// 1189       zcl_mem_free( pCmd );
        ; Setup parameters for call to function osal_mem_free
        MOV       R2,?V0
        MOV       R3,?V1
        LCALL     `??osal_mem_free::?relay`; Banked call to: osal_mem_free
        SJMP      ??bdbTL_ProcessInCmd_EndpointInfo_1
// 1190     }
// 1191   }
// 1192   else
// 1193   {
// 1194     status = ZSuccess;
??bdbTL_ProcessInCmd_EndpointInfo_0:
        MOV       ?V2,#0x0
// 1195   }
// 1196 
// 1197   return ( status );
??bdbTL_ProcessInCmd_EndpointInfo_1:
        MOV       R1,?V2
        MOV       R7,#0xa
        LJMP      ?BANKED_LEAVE_XDATA
// 1198 }
          CFI EndBlock cfiBlock23
// 1199 
// 1200 /*********************************************************************
// 1201  * @fn      bdbTL_ProcessInCmd_GetGrpIDsRsp
// 1202  *
// 1203  * @brief   Process in the received Get Group Identifiers Response command.
// 1204  *
// 1205  * @param   pInMsg - pointer to the incoming message
// 1206  * @param   pCBs - pointer to the application callbacks
// 1207  *
// 1208  * @return  ZStatus_t
// 1209  */

        RSEG BANKED_CODE:HUGECODE:NOROOT(0)
// 1210 static ZStatus_t bdbTL_ProcessInCmd_GetGrpIDsRsp( zclIncoming_t *pInMsg,
bdbTL_ProcessInCmd_GetGrpIDsRsp:
          CFI Block cfiBlock24 Using cfiCommon0
          CFI Function bdbTL_ProcessInCmd_GetGrpIDsRsp
        CODE
// 1211                                                   bdbTL_AppCallbacks_t *pCBs )
// 1212 {
        FUNCALL bdbTL_ProcessInCmd_GetGrpIDsRsp, osal_mem_alloc
        LOCFRAME ISTACK, 0, STACK
        LOCFRAME PSTACK, 0, STACK
        LOCFRAME XSTACK, 20, STACK
        LOCFRAME IOVERLAY, 0, STATIC
        LOCFRAME DOVERLAY, 0, STATIC
        ARGFRAME ISTACK, 0, STACK
        ARGFRAME PSTACK, 0, STACK
        ARGFRAME XSTACK, 20, STACK
        ARGFRAME IOVERLAY, 0, STATIC
        ARGFRAME DOVERLAY, 0, STATIC
        FUNCALL bdbTL_ProcessInCmd_GetGrpIDsRsp, osal_mem_free
        LOCFRAME ISTACK, 0, STACK
        LOCFRAME PSTACK, 0, STACK
        LOCFRAME XSTACK, 20, STACK
        LOCFRAME IOVERLAY, 0, STATIC
        LOCFRAME DOVERLAY, 0, STATIC
        ARGFRAME ISTACK, 0, STACK
        ARGFRAME PSTACK, 0, STACK
        ARGFRAME XSTACK, 20, STACK
        ARGFRAME IOVERLAY, 0, STATIC
        ARGFRAME DOVERLAY, 0, STATIC
        REQUIRE ?V0
        REQUIRE ?V1
        REQUIRE ?V2
        REQUIRE ?V3
        REQUIRE ?V4
        REQUIRE ?V5
        REQUIRE ?V6
        REQUIRE ?V7
        REQUIRE ?V8
        REQUIRE ?V9
        REQUIRE ?V10
        REQUIRE ?V11
        MOV       A,#-0x14
        LCALL     ?BANKED_ENTER_XDATA
          CFI DPH0 load(1, XDATA, add(CFA_XSP16, literal(-1)))
          CFI DPL0 load(1, XDATA, add(CFA_XSP16, literal(-2)))
          CFI ?BRET_EXT load(1, XDATA, add(CFA_XSP16, literal(-3)))
          CFI ?RET_HIGH load(1, XDATA, add(CFA_XSP16, literal(-4)))
          CFI ?RET_LOW load(1, XDATA, add(CFA_XSP16, literal(-5)))
          CFI R7 load(1, XDATA, add(CFA_XSP16, literal(-6)))
          CFI V11 load(1, XDATA, add(CFA_XSP16, literal(-7)))
          CFI V10 load(1, XDATA, add(CFA_XSP16, literal(-8)))
          CFI V9 load(1, XDATA, add(CFA_XSP16, literal(-9)))
          CFI V8 load(1, XDATA, add(CFA_XSP16, literal(-10)))
          CFI V7 load(1, XDATA, add(CFA_XSP16, literal(-11)))
          CFI V6 load(1, XDATA, add(CFA_XSP16, literal(-12)))
          CFI V5 load(1, XDATA, add(CFA_XSP16, literal(-13)))
          CFI V4 load(1, XDATA, add(CFA_XSP16, literal(-14)))
          CFI V3 load(1, XDATA, add(CFA_XSP16, literal(-15)))
          CFI V2 load(1, XDATA, add(CFA_XSP16, literal(-16)))
          CFI V1 load(1, XDATA, add(CFA_XSP16, literal(-17)))
          CFI V0 load(1, XDATA, add(CFA_XSP16, literal(-18)))
          CFI VB load(1, XDATA, add(CFA_XSP16, literal(-19)))
          CFI R6 load(1, XDATA, add(CFA_XSP16, literal(-20)))
          CFI CFA_SP SP+0
          CFI CFA_XSP16 add(XSP16, 20)
        ; Saved register size: 20
        ; Auto size: 0
        MOV       ?V6,R2
        MOV       ?V7,R3
        MOV       ?V8,R4
        MOV       ?V9,R5
// 1213   ZStatus_t status = ZFailure;
        MOV       ?V2,#0x1
// 1214 
// 1215   if ( pCBs->pfnGetGrpIDsRsp )
        MOV       DPL,?V8
        MOV       DPH,?V9
        INC       DPTR
        INC       DPTR
        INC       DPTR
        INC       DPTR
        INC       DPTR
        INC       DPTR
        MOVX      A,@DPTR
        MOV       R0,A
        INC       DPTR
        MOVX      A,@DPTR
        MOV       R1,A
        MOV       A,R0
        ORL       A,R1
        JNZ       $+5
        LJMP      ??bdbTL_ProcessInCmd_GetGrpIDsRsp_0 & 0xFFFF
// 1216   {
// 1217     bdbTLGetGrpIDsRsp_t *pRsp;
// 1218     uint8 cnt = pInMsg->pData[TOUCHLINK_CMDLEN_GET_GRP_IDS_RSP-1];
        MOV       DPL,?V6
        MOV       DPH,?V7
        INC       DPTR
        INC       DPTR
        INC       DPTR
        INC       DPTR
        INC       DPTR
        INC       DPTR
        INC       DPTR
        INC       DPTR
        MOVX      A,@DPTR
        MOV       R0,A
        INC       DPTR
        MOVX      A,@DPTR
        MOV       DPH,A
        MOV       DPL,R0
        INC       DPTR
        INC       DPTR
        MOVX      A,@DPTR
        MOV       ?V4,A
// 1219     uint8 rspLen = sizeof( bdbTLGetGrpIDsRsp_t ) + ( cnt * sizeof( grpInfoRec_t ) );
        MOV       B,#0x3
        MOV       A,?V4
        MUL       AB
        ADD       A,#0x5
        MOV       ?V5,A
// 1220 
// 1221     pRsp = (bdbTLGetGrpIDsRsp_t *)zcl_mem_alloc( rspLen );
        ; Setup parameters for call to function osal_mem_alloc
        MOV       A,?V5
        MOV       R2,A
        MOV       R3,#0x0
        LCALL     `??osal_mem_alloc::?relay`; Banked call to: osal_mem_alloc
        MOV       ?V10,R2
        MOV       ?V11,R3
        MOV       ?V0,?V10
        MOV       ?V1,?V11
// 1222     if ( pRsp )
        MOV       A,?V0
        ORL       A,?V1
        JNZ       $+5
        LJMP      ??bdbTL_ProcessInCmd_GetGrpIDsRsp_0 & 0xFFFF
// 1223     {
// 1224       uint8 *pBuf = pInMsg->pData;
        MOV       DPL,?V6
        MOV       DPH,?V7
        INC       DPTR
        INC       DPTR
        INC       DPTR
        INC       DPTR
        INC       DPTR
        INC       DPTR
        INC       DPTR
        INC       DPTR
        MOVX      A,@DPTR
        MOV       R6,A
        INC       DPTR
        MOVX      A,@DPTR
        MOV       R7,A
// 1225       uint8 i;
// 1226 
// 1227       pRsp->total = *pBuf++;
        MOV       DPL,R6
        MOV       DPH,R7
        MOVX      A,@DPTR
        PUSH      A
          CFI CFA_SP SP+-1
        MOV       DPL,?V0
        MOV       DPH,?V1
        POP       A
          CFI CFA_SP SP+0
        MOVX      @DPTR,A
        MOV       DPL,R6
        MOV       DPH,R7
        INC       DPTR
        MOV       R6,DPL
        MOV       R7,DPH
// 1228       pRsp->startIndex = *pBuf++;
        MOV       DPL,R6
        MOV       DPH,R7
        MOVX      A,@DPTR
        PUSH      A
          CFI CFA_SP SP+-1
        MOV       DPL,?V0
        MOV       DPH,?V1
        INC       DPTR
        POP       A
          CFI CFA_SP SP+0
        MOVX      @DPTR,A
        MOV       DPL,R6
        MOV       DPH,R7
        INC       DPTR
        MOV       R6,DPL
        MOV       R7,DPH
// 1229       pRsp->cnt = *pBuf++;
        MOV       DPL,R6
        MOV       DPH,R7
        MOVX      A,@DPTR
        PUSH      A
          CFI CFA_SP SP+-1
        MOV       DPL,?V0
        MOV       DPH,?V1
        INC       DPTR
        INC       DPTR
        POP       A
          CFI CFA_SP SP+0
        MOVX      @DPTR,A
        MOV       DPL,R6
        MOV       DPH,R7
        INC       DPTR
        MOV       R6,DPL
        MOV       R7,DPH
// 1230       pRsp->grpInfoRec = (grpInfoRec_t *)(pRsp+1);
        MOV       A,?V0
        ADD       A,#0x5
        MOV       R0,A
        CLR       A
        ADDC      A,?V1
        MOV       R1,A
        MOV       DPL,?V0
        MOV       DPH,?V1
        INC       DPTR
        INC       DPTR
        INC       DPTR
        MOV       A,R0
        MOVX      @DPTR,A
        INC       DPTR
        MOV       A,R1
        MOVX      @DPTR,A
// 1231 
// 1232       for ( i = 0; i < cnt; i++ )
        MOV       ?V3,#0x0
??bdbTL_ProcessInCmd_GetGrpIDsRsp_1:
        MOV       A,?V3
        CLR       C
        SUBB      A,?V4
        JNC       ??bdbTL_ProcessInCmd_GetGrpIDsRsp_2
// 1233       {
// 1234         grpInfoRec_t *pRec = &(pRsp->grpInfoRec[i]);
        MOV       A,?V3
        MOV       R0,A
        MOV       R1,#0x0
        MOV       A,R0
        MOV       B,#0x3
        MUL       AB
        XCH       A,R0
        MOV       R2,B
        MOV       B,#0x0
        MUL       AB
        ADD       A,R2
        MOV       R2,A
        MOV       B,#0x3
        MOV       A,R1
        MUL       AB
        ADD       A,R2
        MOV       R1,A
        MOV       DPL,?V0
        MOV       DPH,?V1
        INC       DPTR
        INC       DPTR
        INC       DPTR
        MOVX      A,@DPTR
        ADD       A,R0
        MOV       R0,A
        INC       DPTR
        MOVX      A,@DPTR
        ADDC      A,R1
        MOV       R1,A
// 1235 
// 1236         pRec->grpID = BUILD_UINT16( pBuf[0], pBuf[1] );
        MOV       DPL,R6
        MOV       DPH,R7
        MOVX      A,@DPTR
        MOV       R4,A
        MOV       R5,#0x0
        MOV       DPL,R6
        MOV       DPH,R7
        INC       DPTR
        MOVX      A,@DPTR
        MOV       R2,A
        MOV       R3,#0x0
        CLR       A
        XCH       A,R2
        MOV       R3,A
        MOV       A,R4
        ADD       A,R2
        MOV       R2,A
        MOV       A,R5
        ADDC      A,R3
        MOV       R3,A
        MOV       DPL,R0
        MOV       DPH,R1
        MOV       A,R2
        MOVX      @DPTR,A
        INC       DPTR
        MOV       A,R3
        MOVX      @DPTR,A
// 1237         pBuf += 2;
        MOV       A,R6
        ADD       A,#0x2
        MOV       R6,A
        JNC       ??bdbTL_ProcessInCmd_GetGrpIDsRsp_3
        INC       R7
// 1238 
// 1239         pRec->grpType = *pBuf++;
??bdbTL_ProcessInCmd_GetGrpIDsRsp_3:
        MOV       DPL,R6
        MOV       DPH,R7
        MOVX      A,@DPTR
        PUSH      A
          CFI CFA_SP SP+-1
        MOV       DPL,R0
        MOV       DPH,R1
        INC       DPTR
        INC       DPTR
        POP       A
          CFI CFA_SP SP+0
        MOVX      @DPTR,A
        MOV       DPL,R6
        MOV       DPH,R7
        INC       DPTR
        MOV       R6,DPL
        MOV       R7,DPH
// 1240       }
        INC       ?V3
        SJMP      ??bdbTL_ProcessInCmd_GetGrpIDsRsp_1
// 1241 
// 1242       status = pCBs->pfnGetGrpIDsRsp( &(pInMsg->msg->srcAddr), pRsp );
??bdbTL_ProcessInCmd_GetGrpIDsRsp_2:
        ; Setup parameters for indirect call
        MOV       R4,?V0
        MOV       R5,?V1
        MOV       DPL,?V6
        MOV       DPH,?V7
        MOVX      A,@DPTR
        ADD       A,#0x6
        MOV       R2,A
        INC       DPTR
        MOVX      A,@DPTR
        ADDC      A,#0x0
        MOV       R3,A
        MOV       DPL,?V8
        MOV       DPH,?V9
        INC       DPTR
        INC       DPTR
        INC       DPTR
        INC       DPTR
        INC       DPTR
        INC       DPTR
        MOVX      A,@DPTR
        MOV       R0,A
        INC       DPTR
        MOVX      A,@DPTR
        MOV       DPH,A
        MOV       DPL,R0
        LCALL     ?CALL_IND
        MOV       A,R1
        MOV       ?V2,A
// 1243 
// 1244       zcl_mem_free( pRsp );
        ; Setup parameters for call to function osal_mem_free
        MOV       R2,?V0
        MOV       R3,?V1
        LCALL     `??osal_mem_free::?relay`; Banked call to: osal_mem_free
// 1245     }
// 1246   }
// 1247 
// 1248   return ( status );
??bdbTL_ProcessInCmd_GetGrpIDsRsp_0:
        MOV       R1,?V2
        MOV       R7,#0xc
        LJMP      ?BANKED_LEAVE_XDATA
// 1249 }
          CFI EndBlock cfiBlock24
// 1250 
// 1251 /*********************************************************************
// 1252  * @fn      bdbTL_ProcessInCmd_GetEPListRsp
// 1253  *
// 1254  * @brief   Process in the received Get Endpoint List Response command.
// 1255  *
// 1256  * @param   pInMsg - pointer to the incoming message
// 1257  * @param   pCBs - pointer to the application callbacks
// 1258  *
// 1259  * @return  ZStatus_t
// 1260  */

        RSEG BANKED_CODE:HUGECODE:NOROOT(0)
// 1261 static ZStatus_t bdbTL_ProcessInCmd_GetEPListRsp( zclIncoming_t *pInMsg,
bdbTL_ProcessInCmd_GetEPListRsp:
          CFI Block cfiBlock25 Using cfiCommon0
          CFI Function bdbTL_ProcessInCmd_GetEPListRsp
        CODE
// 1262                                                   bdbTL_AppCallbacks_t *pCBs )
// 1263 {
        FUNCALL bdbTL_ProcessInCmd_GetEPListRsp, osal_mem_alloc
        LOCFRAME ISTACK, 0, STACK
        LOCFRAME PSTACK, 0, STACK
        LOCFRAME XSTACK, 20, STACK
        LOCFRAME IOVERLAY, 0, STATIC
        LOCFRAME DOVERLAY, 0, STATIC
        ARGFRAME ISTACK, 0, STACK
        ARGFRAME PSTACK, 0, STACK
        ARGFRAME XSTACK, 20, STACK
        ARGFRAME IOVERLAY, 0, STATIC
        ARGFRAME DOVERLAY, 0, STATIC
        FUNCALL bdbTL_ProcessInCmd_GetEPListRsp, osal_mem_free
        LOCFRAME ISTACK, 0, STACK
        LOCFRAME PSTACK, 0, STACK
        LOCFRAME XSTACK, 20, STACK
        LOCFRAME IOVERLAY, 0, STATIC
        LOCFRAME DOVERLAY, 0, STATIC
        ARGFRAME ISTACK, 0, STACK
        ARGFRAME PSTACK, 0, STACK
        ARGFRAME XSTACK, 20, STACK
        ARGFRAME IOVERLAY, 0, STATIC
        ARGFRAME DOVERLAY, 0, STATIC
        REQUIRE ?V0
        REQUIRE ?V1
        REQUIRE ?V2
        REQUIRE ?V3
        REQUIRE ?V4
        REQUIRE ?V5
        REQUIRE ?V6
        REQUIRE ?V7
        REQUIRE ?V8
        REQUIRE ?V9
        REQUIRE ?V10
        REQUIRE ?V11
        MOV       A,#-0x14
        LCALL     ?BANKED_ENTER_XDATA
          CFI DPH0 load(1, XDATA, add(CFA_XSP16, literal(-1)))
          CFI DPL0 load(1, XDATA, add(CFA_XSP16, literal(-2)))
          CFI ?BRET_EXT load(1, XDATA, add(CFA_XSP16, literal(-3)))
          CFI ?RET_HIGH load(1, XDATA, add(CFA_XSP16, literal(-4)))
          CFI ?RET_LOW load(1, XDATA, add(CFA_XSP16, literal(-5)))
          CFI R7 load(1, XDATA, add(CFA_XSP16, literal(-6)))
          CFI V11 load(1, XDATA, add(CFA_XSP16, literal(-7)))
          CFI V10 load(1, XDATA, add(CFA_XSP16, literal(-8)))
          CFI V9 load(1, XDATA, add(CFA_XSP16, literal(-9)))
          CFI V8 load(1, XDATA, add(CFA_XSP16, literal(-10)))
          CFI V7 load(1, XDATA, add(CFA_XSP16, literal(-11)))
          CFI V6 load(1, XDATA, add(CFA_XSP16, literal(-12)))
          CFI V5 load(1, XDATA, add(CFA_XSP16, literal(-13)))
          CFI V4 load(1, XDATA, add(CFA_XSP16, literal(-14)))
          CFI V3 load(1, XDATA, add(CFA_XSP16, literal(-15)))
          CFI V2 load(1, XDATA, add(CFA_XSP16, literal(-16)))
          CFI V1 load(1, XDATA, add(CFA_XSP16, literal(-17)))
          CFI V0 load(1, XDATA, add(CFA_XSP16, literal(-18)))
          CFI VB load(1, XDATA, add(CFA_XSP16, literal(-19)))
          CFI R6 load(1, XDATA, add(CFA_XSP16, literal(-20)))
          CFI CFA_SP SP+0
          CFI CFA_XSP16 add(XSP16, 20)
        ; Saved register size: 20
        ; Auto size: 0
        MOV       ?V4,R2
        MOV       ?V5,R3
        MOV       ?V8,R4
        MOV       ?V9,R5
// 1264   ZStatus_t status = ZFailure;
        MOV       ?V3,#0x1
// 1265 
// 1266   if ( pCBs->pfnGetEPListRsp )
        MOV       DPL,?V8
        MOV       DPH,?V9
        INC       DPTR
        INC       DPTR
        INC       DPTR
        INC       DPTR
        INC       DPTR
        INC       DPTR
        INC       DPTR
        INC       DPTR
        MOVX      A,@DPTR
        MOV       R0,A
        INC       DPTR
        MOVX      A,@DPTR
        MOV       R1,A
        MOV       A,R0
        ORL       A,R1
        JNZ       $+5
        LJMP      ??bdbTL_ProcessInCmd_GetEPListRsp_0 & 0xFFFF
// 1267   {
// 1268     bdbTLGetEPListRsp_t *pRsp;
// 1269     uint8 cnt = pInMsg->pData[TOUCHLINK_CMDLEN_GET_EP_LIST_RSP-1];
        MOV       DPL,?V4
        MOV       DPH,?V5
        INC       DPTR
        INC       DPTR
        INC       DPTR
        INC       DPTR
        INC       DPTR
        INC       DPTR
        INC       DPTR
        INC       DPTR
        MOVX      A,@DPTR
        MOV       R0,A
        INC       DPTR
        MOVX      A,@DPTR
        MOV       DPH,A
        MOV       DPL,R0
        INC       DPTR
        INC       DPTR
        MOVX      A,@DPTR
        MOV       ?V6,A
// 1270     uint8 rspLen = sizeof( bdbTLGetEPListRsp_t ) + ( cnt * sizeof( epInfoRec_t ) );
        MOV       B,#0x8
        MOV       A,?V6
        MUL       AB
        ADD       A,#0x5
        MOV       ?V7,A
// 1271 
// 1272     pRsp = (bdbTLGetEPListRsp_t *)zcl_mem_alloc( rspLen );
        ; Setup parameters for call to function osal_mem_alloc
        MOV       A,?V7
        MOV       R2,A
        MOV       R3,#0x0
        LCALL     `??osal_mem_alloc::?relay`; Banked call to: osal_mem_alloc
        MOV       ?V10,R2
        MOV       ?V11,R3
        MOV       ?V0,?V10
        MOV       ?V1,?V11
// 1273     if ( pRsp )
        MOV       A,?V0
        ORL       A,?V1
        JNZ       $+5
        LJMP      ??bdbTL_ProcessInCmd_GetEPListRsp_0 & 0xFFFF
// 1274     {
// 1275       uint8 *pBuf = pInMsg->pData;
        MOV       DPL,?V4
        MOV       DPH,?V5
        INC       DPTR
        INC       DPTR
        INC       DPTR
        INC       DPTR
        INC       DPTR
        INC       DPTR
        INC       DPTR
        INC       DPTR
        MOVX      A,@DPTR
        MOV       R6,A
        INC       DPTR
        MOVX      A,@DPTR
        MOV       R7,A
// 1276       uint8 i;
// 1277 
// 1278       pRsp->total = *pBuf++;
        MOV       DPL,R6
        MOV       DPH,R7
        MOVX      A,@DPTR
        PUSH      A
          CFI CFA_SP SP+-1
        MOV       DPL,?V0
        MOV       DPH,?V1
        POP       A
          CFI CFA_SP SP+0
        MOVX      @DPTR,A
        MOV       DPL,R6
        MOV       DPH,R7
        INC       DPTR
        MOV       R6,DPL
        MOV       R7,DPH
// 1279       pRsp->startIndex = *pBuf++;
        MOV       DPL,R6
        MOV       DPH,R7
        MOVX      A,@DPTR
        PUSH      A
          CFI CFA_SP SP+-1
        MOV       DPL,?V0
        MOV       DPH,?V1
        INC       DPTR
        POP       A
          CFI CFA_SP SP+0
        MOVX      @DPTR,A
        MOV       DPL,R6
        MOV       DPH,R7
        INC       DPTR
        MOV       R6,DPL
        MOV       R7,DPH
// 1280       pRsp->cnt = *pBuf++;
        MOV       DPL,R6
        MOV       DPH,R7
        MOVX      A,@DPTR
        PUSH      A
          CFI CFA_SP SP+-1
        MOV       DPL,?V0
        MOV       DPH,?V1
        INC       DPTR
        INC       DPTR
        POP       A
          CFI CFA_SP SP+0
        MOVX      @DPTR,A
        MOV       DPL,R6
        MOV       DPH,R7
        INC       DPTR
        MOV       R6,DPL
        MOV       R7,DPH
// 1281       pRsp->epInfoRec = (epInfoRec_t *)(pRsp+1);
        MOV       A,?V0
        ADD       A,#0x5
        MOV       R0,A
        CLR       A
        ADDC      A,?V1
        MOV       R1,A
        MOV       DPL,?V0
        MOV       DPH,?V1
        INC       DPTR
        INC       DPTR
        INC       DPTR
        MOV       A,R0
        MOVX      @DPTR,A
        INC       DPTR
        MOV       A,R1
        MOVX      @DPTR,A
// 1282 
// 1283       for ( i = 0; i < cnt; i++ )
        MOV       ?V2,#0x0
??bdbTL_ProcessInCmd_GetEPListRsp_1:
        MOV       A,?V2
        CLR       C
        SUBB      A,?V6
        JC        $+5
        LJMP      ??bdbTL_ProcessInCmd_GetEPListRsp_2 & 0xFFFF
// 1284       {
// 1285         epInfoRec_t *pRec = &(pRsp->epInfoRec[i]);
        MOV       A,?V2
        MOV       R0,A
        MOV       R1,#0x0
        MOV       A,R0
        MOV       B,#0x8
        MUL       AB
        XCH       A,R0
        MOV       R2,B
        MOV       B,#0x0
        MUL       AB
        ADD       A,R2
        MOV       R2,A
        MOV       B,#0x8
        MOV       A,R1
        MUL       AB
        ADD       A,R2
        MOV       R1,A
        MOV       DPL,?V0
        MOV       DPH,?V1
        INC       DPTR
        INC       DPTR
        INC       DPTR
        MOVX      A,@DPTR
        ADD       A,R0
        MOV       R0,A
        INC       DPTR
        MOVX      A,@DPTR
        ADDC      A,R1
        MOV       R1,A
// 1286 
// 1287         pRec->nwkAddr = BUILD_UINT16( pBuf[0], pBuf[1] );
        MOV       DPL,R6
        MOV       DPH,R7
        MOVX      A,@DPTR
        MOV       R4,A
        MOV       R5,#0x0
        MOV       DPL,R6
        MOV       DPH,R7
        INC       DPTR
        MOVX      A,@DPTR
        MOV       R2,A
        MOV       R3,#0x0
        CLR       A
        XCH       A,R2
        MOV       R3,A
        MOV       A,R4
        ADD       A,R2
        MOV       R2,A
        MOV       A,R5
        ADDC      A,R3
        MOV       R3,A
        MOV       DPL,R0
        MOV       DPH,R1
        MOV       A,R2
        MOVX      @DPTR,A
        INC       DPTR
        MOV       A,R3
        MOVX      @DPTR,A
// 1288         pBuf += 2;
        MOV       A,R6
        ADD       A,#0x2
        MOV       R6,A
        JNC       ??bdbTL_ProcessInCmd_GetEPListRsp_3
        INC       R7
// 1289 
// 1290         pRec->endpoint = *pBuf++;
??bdbTL_ProcessInCmd_GetEPListRsp_3:
        MOV       DPL,R6
        MOV       DPH,R7
        MOVX      A,@DPTR
        PUSH      A
          CFI CFA_SP SP+-1
        MOV       DPL,R0
        MOV       DPH,R1
        INC       DPTR
        INC       DPTR
        POP       A
          CFI CFA_SP SP+0
        MOVX      @DPTR,A
        MOV       DPL,R6
        MOV       DPH,R7
        INC       DPTR
        MOV       R6,DPL
        MOV       R7,DPH
// 1291 
// 1292         pRec->profileID = BUILD_UINT16( pBuf[0], pBuf[1] );
        MOV       DPL,R6
        MOV       DPH,R7
        MOVX      A,@DPTR
        MOV       R4,A
        MOV       R5,#0x0
        MOV       DPL,R6
        MOV       DPH,R7
        INC       DPTR
        MOVX      A,@DPTR
        MOV       R2,A
        MOV       R3,#0x0
        CLR       A
        XCH       A,R2
        MOV       R3,A
        MOV       A,R4
        ADD       A,R2
        MOV       R2,A
        MOV       A,R5
        ADDC      A,R3
        MOV       R3,A
        MOV       DPL,R0
        MOV       DPH,R1
        INC       DPTR
        INC       DPTR
        INC       DPTR
        MOV       A,R2
        MOVX      @DPTR,A
        INC       DPTR
        MOV       A,R3
        MOVX      @DPTR,A
// 1293         pBuf += 2;
        MOV       A,R6
        ADD       A,#0x2
        MOV       R6,A
        JNC       ??bdbTL_ProcessInCmd_GetEPListRsp_4
        INC       R7
// 1294 
// 1295         pRec->deviceID = BUILD_UINT16( pBuf[0], pBuf[1] );
??bdbTL_ProcessInCmd_GetEPListRsp_4:
        MOV       DPL,R6
        MOV       DPH,R7
        MOVX      A,@DPTR
        MOV       R4,A
        MOV       R5,#0x0
        MOV       DPL,R6
        MOV       DPH,R7
        INC       DPTR
        MOVX      A,@DPTR
        MOV       R2,A
        MOV       R3,#0x0
        CLR       A
        XCH       A,R2
        MOV       R3,A
        MOV       A,R4
        ADD       A,R2
        MOV       R2,A
        MOV       A,R5
        ADDC      A,R3
        MOV       R3,A
        MOV       DPL,R0
        MOV       DPH,R1
        INC       DPTR
        INC       DPTR
        INC       DPTR
        INC       DPTR
        INC       DPTR
        MOV       A,R2
        MOVX      @DPTR,A
        INC       DPTR
        MOV       A,R3
        MOVX      @DPTR,A
// 1296         pBuf += 2;
        MOV       A,R6
        ADD       A,#0x2
        MOV       R6,A
        JNC       ??bdbTL_ProcessInCmd_GetEPListRsp_5
        INC       R7
// 1297 
// 1298         pRec->version = *pBuf++;
??bdbTL_ProcessInCmd_GetEPListRsp_5:
        MOV       DPL,R6
        MOV       DPH,R7
        MOVX      A,@DPTR
        PUSH      A
          CFI CFA_SP SP+-1
        MOV       DPL,R0
        MOV       DPH,R1
        INC       DPTR
        INC       DPTR
        INC       DPTR
        INC       DPTR
        INC       DPTR
        INC       DPTR
        INC       DPTR
        POP       A
          CFI CFA_SP SP+0
        MOVX      @DPTR,A
        MOV       DPL,R6
        MOV       DPH,R7
        INC       DPTR
        MOV       R6,DPL
        MOV       R7,DPH
// 1299       }
        INC       ?V2
        LJMP      ??bdbTL_ProcessInCmd_GetEPListRsp_1 & 0xFFFF
// 1300 
// 1301       status = pCBs->pfnGetEPListRsp( &(pInMsg->msg->srcAddr), pRsp );
??bdbTL_ProcessInCmd_GetEPListRsp_2:
        ; Setup parameters for indirect call
        MOV       R4,?V0
        MOV       R5,?V1
        MOV       DPL,?V4
        MOV       DPH,?V5
        MOVX      A,@DPTR
        ADD       A,#0x6
        MOV       R2,A
        INC       DPTR
        MOVX      A,@DPTR
        ADDC      A,#0x0
        MOV       R3,A
        MOV       DPL,?V8
        MOV       DPH,?V9
        INC       DPTR
        INC       DPTR
        INC       DPTR
        INC       DPTR
        INC       DPTR
        INC       DPTR
        INC       DPTR
        INC       DPTR
        MOVX      A,@DPTR
        MOV       R0,A
        INC       DPTR
        MOVX      A,@DPTR
        MOV       DPH,A
        MOV       DPL,R0
        LCALL     ?CALL_IND
        MOV       A,R1
        MOV       ?V3,A
// 1302 
// 1303       zcl_mem_free( pRsp );
        ; Setup parameters for call to function osal_mem_free
        MOV       R2,?V0
        MOV       R3,?V1
        LCALL     `??osal_mem_free::?relay`; Banked call to: osal_mem_free
// 1304     }
// 1305   }
// 1306 
// 1307   return ( status );
??bdbTL_ProcessInCmd_GetEPListRsp_0:
        MOV       R1,?V3
        MOV       R7,#0xc
        LJMP      ?BANKED_LEAVE_XDATA
// 1308 }
          CFI EndBlock cfiBlock25
// 1309 
// 1310 /*********************************************************************
// 1311 * Inter-PAN functions
// 1312 **********************************************************************/
// 1313 
// 1314 /*********************************************************************
// 1315  * @fn      bdbTL_HdlInInterPANCommands
// 1316  *
// 1317  * @brief   Callback from ZCL to process incoming Inter-PAN Commands
// 1318  *          specific to this cluster library
// 1319 
// 1320  * @param   pInMsg - pointer to the incoming message
// 1321  *
// 1322  * @return  ZStatus_t
// 1323  */

        RSEG BANKED_CODE:HUGECODE:NOROOT(0)
// 1324 static ZStatus_t bdbTL_HdlInInterPANCommands( zclIncoming_t *pInMsg )
bdbTL_HdlInInterPANCommands:
          CFI Block cfiBlock26 Using cfiCommon0
          CFI Function bdbTL_HdlInInterPANCommands
        CODE
// 1325 {
        FUNCALL bdbTL_HdlInInterPANCommands, bdbTL_ProcessInLLInterPANCmds
        LOCFRAME ISTACK, 0, STACK
        LOCFRAME PSTACK, 0, STACK
        LOCFRAME XSTACK, 9, STACK
        LOCFRAME IOVERLAY, 0, STATIC
        LOCFRAME DOVERLAY, 0, STATIC
        ARGFRAME ISTACK, 0, STACK
        ARGFRAME PSTACK, 0, STACK
        ARGFRAME XSTACK, 9, STACK
        ARGFRAME IOVERLAY, 0, STATIC
        ARGFRAME DOVERLAY, 0, STATIC
        REQUIRE ?V0
        MOV       A,#-0x9
        LCALL     ?BANKED_ENTER_XDATA
          CFI DPH0 load(1, XDATA, add(CFA_XSP16, literal(-1)))
          CFI DPL0 load(1, XDATA, add(CFA_XSP16, literal(-2)))
          CFI ?BRET_EXT load(1, XDATA, add(CFA_XSP16, literal(-3)))
          CFI ?RET_HIGH load(1, XDATA, add(CFA_XSP16, literal(-4)))
          CFI ?RET_LOW load(1, XDATA, add(CFA_XSP16, literal(-5)))
          CFI R7 load(1, XDATA, add(CFA_XSP16, literal(-6)))
          CFI V0 load(1, XDATA, add(CFA_XSP16, literal(-7)))
          CFI VB load(1, XDATA, add(CFA_XSP16, literal(-8)))
          CFI R6 load(1, XDATA, add(CFA_XSP16, literal(-9)))
          CFI CFA_SP SP+0
          CFI CFA_XSP16 add(XSP16, 9)
        ; Saved register size: 9
        ; Auto size: 0
        MOV       A,R2
        MOV       R6,A
        MOV       A,R3
        MOV       R7,A
// 1326   ZStatus_t status;
// 1327 
// 1328   // make sure Inter-PAN callbacks exist
// 1329   if ( pInterPANCBs == NULL )
        MOV       DPTR,#pInterPANCBs
        MOVX      A,@DPTR
        MOV       R0,A
        INC       DPTR
        MOVX      A,@DPTR
        MOV       R1,A
        MOV       A,R0
        ORL       A,R1
        JNZ       ??bdbTL_HdlInInterPANCommands_0
// 1330     return ( ZFailure );
        MOV       R1,#0x1
        SJMP      ??bdbTL_HdlInInterPANCommands_1
// 1331 
// 1332   switch ( pInMsg->msg->clusterId )
??bdbTL_HdlInInterPANCommands_0:
        MOV       DPL,R6
        MOV       DPH,R7
        MOVX      A,@DPTR
        MOV       R0,A
        INC       DPTR
        MOVX      A,@DPTR
        MOV       DPH,A
        MOV       DPL,R0
        INC       DPTR
        INC       DPTR
        INC       DPTR
        INC       DPTR
        MOVX      A,@DPTR
        XRL       A,#0x0
        JNZ       ??bdbTL_HdlInInterPANCommands_2
        INC       DPTR
        MOVX      A,@DPTR
        XRL       A,#0x10
??bdbTL_HdlInInterPANCommands_2:
        JNZ       ??bdbTL_HdlInInterPANCommands_3
// 1333   {
// 1334     case ZCL_CLUSTER_ID_TOUCHLINK:
// 1335       status = bdbTL_ProcessInLLInterPANCmds( pInMsg );
        ; Setup parameters for call to function bdbTL_ProcessInLLInterPANCmds
        MOV       A,R6
        MOV       R2,A
        MOV       A,R7
        MOV       R3,A
        LCALL     `??bdbTL_ProcessInLLInterPANCmds::?relay`; Banked call to: bdbTL_ProcessInLLInterPANCmds
        MOV       A,R1
        MOV       ?V0,A
// 1336       break;
        SJMP      ??bdbTL_HdlInInterPANCommands_4
// 1337 
// 1338     default:
// 1339       status = ZFailure;
??bdbTL_HdlInInterPANCommands_3:
        MOV       ?V0,#0x1
// 1340       break;
// 1341   }
// 1342 
// 1343   return ( status );
??bdbTL_HdlInInterPANCommands_4:
        MOV       R1,?V0
??bdbTL_HdlInInterPANCommands_1:
        MOV       R7,#0x1
        LJMP      ?BANKED_LEAVE_XDATA
// 1344 }
          CFI EndBlock cfiBlock26
// 1345 
// 1346 /*********************************************************************
// 1347  * @fn      bdbTL_ProcessInLLInterPANCmds
// 1348  *
// 1349  * @brief   Callback from ZCL to process incoming Inter-PAN Commands
// 1350  *          specific to this cluster library on a command ID basis
// 1351  *
// 1352  * @param   pInMsg - pointer to the incoming message
// 1353  *
// 1354  * @return  ZStatus_t
// 1355  */

        RSEG BANKED_CODE:HUGECODE:NOROOT(0)
// 1356 static ZStatus_t bdbTL_ProcessInLLInterPANCmds( zclIncoming_t *pInMsg )
bdbTL_ProcessInLLInterPANCmds:
          CFI Block cfiBlock27 Using cfiCommon0
          CFI Function bdbTL_ProcessInLLInterPANCmds
        CODE
// 1357 {
        FUNCALL bdbTL_ProcessInLLInterPANCmds, bdbTL_ProcessInCmd_ScanReq
        LOCFRAME ISTACK, 0, STACK
        LOCFRAME PSTACK, 0, STACK
        LOCFRAME XSTACK, 9, STACK
        LOCFRAME IOVERLAY, 0, STATIC
        LOCFRAME DOVERLAY, 0, STATIC
        ARGFRAME ISTACK, 0, STACK
        ARGFRAME PSTACK, 0, STACK
        ARGFRAME XSTACK, 9, STACK
        ARGFRAME IOVERLAY, 0, STATIC
        ARGFRAME DOVERLAY, 0, STATIC
        FUNCALL bdbTL_ProcessInLLInterPANCmds, bdbTL_ProcessInCmd_DeviceInfoReq
        LOCFRAME ISTACK, 0, STACK
        LOCFRAME PSTACK, 0, STACK
        LOCFRAME XSTACK, 9, STACK
        LOCFRAME IOVERLAY, 0, STATIC
        LOCFRAME DOVERLAY, 0, STATIC
        ARGFRAME ISTACK, 0, STACK
        ARGFRAME PSTACK, 0, STACK
        ARGFRAME XSTACK, 9, STACK
        ARGFRAME IOVERLAY, 0, STATIC
        ARGFRAME DOVERLAY, 0, STATIC
        FUNCALL bdbTL_ProcessInLLInterPANCmds, bdbTL_ProcessInCmd_IdentifyReq
        LOCFRAME ISTACK, 0, STACK
        LOCFRAME PSTACK, 0, STACK
        LOCFRAME XSTACK, 9, STACK
        LOCFRAME IOVERLAY, 0, STATIC
        LOCFRAME DOVERLAY, 0, STATIC
        ARGFRAME ISTACK, 0, STACK
        ARGFRAME PSTACK, 0, STACK
        ARGFRAME XSTACK, 9, STACK
        ARGFRAME IOVERLAY, 0, STATIC
        ARGFRAME DOVERLAY, 0, STATIC
        FUNCALL bdbTL_ProcessInLLInterPANCmds, bdbTL_ProcessInCmd_ResetToFNReq
        LOCFRAME ISTACK, 0, STACK
        LOCFRAME PSTACK, 0, STACK
        LOCFRAME XSTACK, 9, STACK
        LOCFRAME IOVERLAY, 0, STATIC
        LOCFRAME DOVERLAY, 0, STATIC
        ARGFRAME ISTACK, 0, STACK
        ARGFRAME PSTACK, 0, STACK
        ARGFRAME XSTACK, 9, STACK
        ARGFRAME IOVERLAY, 0, STATIC
        ARGFRAME DOVERLAY, 0, STATIC
        FUNCALL bdbTL_ProcessInLLInterPANCmds, bdbTL_ProcessInCmd_NwkStartReq
        LOCFRAME ISTACK, 0, STACK
        LOCFRAME PSTACK, 0, STACK
        LOCFRAME XSTACK, 9, STACK
        LOCFRAME IOVERLAY, 0, STATIC
        LOCFRAME DOVERLAY, 0, STATIC
        ARGFRAME ISTACK, 0, STACK
        ARGFRAME PSTACK, 0, STACK
        ARGFRAME XSTACK, 9, STACK
        ARGFRAME IOVERLAY, 0, STATIC
        ARGFRAME DOVERLAY, 0, STATIC
        FUNCALL bdbTL_ProcessInLLInterPANCmds, bdbTL_ProcessInCmd_NwkJoinRtrReq
        LOCFRAME ISTACK, 0, STACK
        LOCFRAME PSTACK, 0, STACK
        LOCFRAME XSTACK, 9, STACK
        LOCFRAME IOVERLAY, 0, STATIC
        LOCFRAME DOVERLAY, 0, STATIC
        ARGFRAME ISTACK, 0, STACK
        ARGFRAME PSTACK, 0, STACK
        ARGFRAME XSTACK, 9, STACK
        ARGFRAME IOVERLAY, 0, STATIC
        ARGFRAME DOVERLAY, 0, STATIC
        FUNCALL bdbTL_ProcessInLLInterPANCmds, bdbTL_ProcessInCmd_NwkJoinEDReq
        LOCFRAME ISTACK, 0, STACK
        LOCFRAME PSTACK, 0, STACK
        LOCFRAME XSTACK, 9, STACK
        LOCFRAME IOVERLAY, 0, STATIC
        LOCFRAME DOVERLAY, 0, STATIC
        ARGFRAME ISTACK, 0, STACK
        ARGFRAME PSTACK, 0, STACK
        ARGFRAME XSTACK, 9, STACK
        ARGFRAME IOVERLAY, 0, STATIC
        ARGFRAME DOVERLAY, 0, STATIC
        FUNCALL bdbTL_ProcessInLLInterPANCmds, bdbTL_ProcessInCmd_NwkUpdateReq
        LOCFRAME ISTACK, 0, STACK
        LOCFRAME PSTACK, 0, STACK
        LOCFRAME XSTACK, 9, STACK
        LOCFRAME IOVERLAY, 0, STATIC
        LOCFRAME DOVERLAY, 0, STATIC
        ARGFRAME ISTACK, 0, STACK
        ARGFRAME PSTACK, 0, STACK
        ARGFRAME XSTACK, 9, STACK
        ARGFRAME IOVERLAY, 0, STATIC
        ARGFRAME DOVERLAY, 0, STATIC
        FUNCALL bdbTL_ProcessInLLInterPANCmds, bdbTL_ProcessInCmd_ScanRsp
        LOCFRAME ISTACK, 0, STACK
        LOCFRAME PSTACK, 0, STACK
        LOCFRAME XSTACK, 9, STACK
        LOCFRAME IOVERLAY, 0, STATIC
        LOCFRAME DOVERLAY, 0, STATIC
        ARGFRAME ISTACK, 0, STACK
        ARGFRAME PSTACK, 0, STACK
        ARGFRAME XSTACK, 9, STACK
        ARGFRAME IOVERLAY, 0, STATIC
        ARGFRAME DOVERLAY, 0, STATIC
        FUNCALL bdbTL_ProcessInLLInterPANCmds, bdbTL_ProcessInCmd_DeviceInfoRsp
        LOCFRAME ISTACK, 0, STACK
        LOCFRAME PSTACK, 0, STACK
        LOCFRAME XSTACK, 9, STACK
        LOCFRAME IOVERLAY, 0, STATIC
        LOCFRAME DOVERLAY, 0, STATIC
        ARGFRAME ISTACK, 0, STACK
        ARGFRAME PSTACK, 0, STACK
        ARGFRAME XSTACK, 9, STACK
        ARGFRAME IOVERLAY, 0, STATIC
        ARGFRAME DOVERLAY, 0, STATIC
        FUNCALL bdbTL_ProcessInLLInterPANCmds, bdbTL_ProcessInCmd_NwkStartRsp
        LOCFRAME ISTACK, 0, STACK
        LOCFRAME PSTACK, 0, STACK
        LOCFRAME XSTACK, 9, STACK
        LOCFRAME IOVERLAY, 0, STATIC
        LOCFRAME DOVERLAY, 0, STATIC
        ARGFRAME ISTACK, 0, STACK
        ARGFRAME PSTACK, 0, STACK
        ARGFRAME XSTACK, 9, STACK
        ARGFRAME IOVERLAY, 0, STATIC
        ARGFRAME DOVERLAY, 0, STATIC
        FUNCALL bdbTL_ProcessInLLInterPANCmds, bdbTL_ProcessInCmd_NwkJoinRtrRsp
        LOCFRAME ISTACK, 0, STACK
        LOCFRAME PSTACK, 0, STACK
        LOCFRAME XSTACK, 9, STACK
        LOCFRAME IOVERLAY, 0, STATIC
        LOCFRAME DOVERLAY, 0, STATIC
        ARGFRAME ISTACK, 0, STACK
        ARGFRAME PSTACK, 0, STACK
        ARGFRAME XSTACK, 9, STACK
        ARGFRAME IOVERLAY, 0, STATIC
        ARGFRAME DOVERLAY, 0, STATIC
        FUNCALL bdbTL_ProcessInLLInterPANCmds, bdbTL_ProcessInCmd_NwkJoinEDRsp
        LOCFRAME ISTACK, 0, STACK
        LOCFRAME PSTACK, 0, STACK
        LOCFRAME XSTACK, 9, STACK
        LOCFRAME IOVERLAY, 0, STATIC
        LOCFRAME DOVERLAY, 0, STATIC
        ARGFRAME ISTACK, 0, STACK
        ARGFRAME PSTACK, 0, STACK
        ARGFRAME XSTACK, 9, STACK
        ARGFRAME IOVERLAY, 0, STATIC
        ARGFRAME DOVERLAY, 0, STATIC
        REQUIRE ?V0
        MOV       A,#-0x9
        LCALL     ?BANKED_ENTER_XDATA
          CFI DPH0 load(1, XDATA, add(CFA_XSP16, literal(-1)))
          CFI DPL0 load(1, XDATA, add(CFA_XSP16, literal(-2)))
          CFI ?BRET_EXT load(1, XDATA, add(CFA_XSP16, literal(-3)))
          CFI ?RET_HIGH load(1, XDATA, add(CFA_XSP16, literal(-4)))
          CFI ?RET_LOW load(1, XDATA, add(CFA_XSP16, literal(-5)))
          CFI R7 load(1, XDATA, add(CFA_XSP16, literal(-6)))
          CFI V0 load(1, XDATA, add(CFA_XSP16, literal(-7)))
          CFI VB load(1, XDATA, add(CFA_XSP16, literal(-8)))
          CFI R6 load(1, XDATA, add(CFA_XSP16, literal(-9)))
          CFI CFA_SP SP+0
          CFI CFA_XSP16 add(XSP16, 9)
        ; Saved register size: 9
        ; Auto size: 0
        MOV       A,R2
        MOV       R6,A
        MOV       A,R3
        MOV       R7,A
// 1358   ZStatus_t status = SUCCESS;
        MOV       ?V0,#0x0
// 1359   
// 1360 #if ( defined ( BDB_TL_TARGET ) && (BDB_TOUCHLINK_CAPABILITY_ENABLED == TRUE) )
// 1361   if ( touchLinkTargetEnabled == FALSE )
// 1362   {
// 1363     return status;
// 1364   }
// 1365 #endif
// 1366   
// 1367   switch ( pInMsg->hdr.commandID )
        MOV       DPL,R6
        MOV       DPH,R7
        INC       DPTR
        INC       DPTR
        INC       DPTR
        INC       DPTR
        INC       DPTR
        INC       DPTR
        INC       DPTR
        MOVX      A,@DPTR
        JZ        ??bdbTL_ProcessInLLInterPANCmds_0
        DEC       A
        JNZ       $+5
        LJMP      ??bdbTL_ProcessInLLInterPANCmds_1 & 0xFFFF
        DEC       A
        JZ        ??bdbTL_ProcessInLLInterPANCmds_2
        DEC       A
        JNZ       $+5
        LJMP      ??bdbTL_ProcessInLLInterPANCmds_3 & 0xFFFF
        ADD       A,#-0x3
        JZ        ??bdbTL_ProcessInLLInterPANCmds_4
        DEC       A
        JZ        ??bdbTL_ProcessInLLInterPANCmds_5
        ADD       A,#-0x9
        JZ        ??bdbTL_ProcessInLLInterPANCmds_6
        DEC       A
        JNZ       $+5
        LJMP      ??bdbTL_ProcessInLLInterPANCmds_7 & 0xFFFF
        DEC       A
        JZ        ??bdbTL_ProcessInLLInterPANCmds_8
        DEC       A
        JNZ       $+5
        LJMP      ??bdbTL_ProcessInLLInterPANCmds_9 & 0xFFFF
        DEC       A
        JZ        ??bdbTL_ProcessInLLInterPANCmds_10
        DEC       A
        JNZ       $+5
        LJMP      ??bdbTL_ProcessInLLInterPANCmds_11 & 0xFFFF
        DEC       A
        JZ        ??bdbTL_ProcessInLLInterPANCmds_12
        LJMP      ??bdbTL_ProcessInLLInterPANCmds_13 & 0xFFFF
// 1368   {
// 1369     case COMMAND_TOUCHLINK_SCAN_REQ:
// 1370       status = bdbTL_ProcessInCmd_ScanReq( pInMsg );
??bdbTL_ProcessInLLInterPANCmds_0:
        ; Setup parameters for call to function bdbTL_ProcessInCmd_ScanReq
        MOV       A,R6
        MOV       R2,A
        MOV       A,R7
        MOV       R3,A
        LCALL     `??bdbTL_ProcessInCmd_ScanReq::?relay`; Banked call to: bdbTL_ProcessInCmd_ScanReq
        MOV       A,R1
        MOV       ?V0,A
// 1371       break;
        LJMP      ??bdbTL_ProcessInLLInterPANCmds_14 & 0xFFFF
// 1372 
// 1373     case COMMAND_TOUCHLINK_DEVICE_INFO_REQ:
// 1374       status = bdbTL_ProcessInCmd_DeviceInfoReq( pInMsg );
??bdbTL_ProcessInLLInterPANCmds_2:
        ; Setup parameters for call to function bdbTL_ProcessInCmd_DeviceInfoReq
        MOV       A,R6
        MOV       R2,A
        MOV       A,R7
        MOV       R3,A
        LCALL     `??bdbTL_ProcessInCmd_DeviceInfoReq::?relay`; Banked call to: bdbTL_ProcessInCmd_DeviceInfoReq
        MOV       A,R1
        MOV       ?V0,A
// 1375       break;
        LJMP      ??bdbTL_ProcessInLLInterPANCmds_14 & 0xFFFF
// 1376 
// 1377     case COMMAND_TOUCHLINK_IDENTIFY_REQ:
// 1378       status = bdbTL_ProcessInCmd_IdentifyReq( pInMsg );
??bdbTL_ProcessInLLInterPANCmds_4:
        ; Setup parameters for call to function bdbTL_ProcessInCmd_IdentifyReq
        MOV       A,R6
        MOV       R2,A
        MOV       A,R7
        MOV       R3,A
        LCALL     `??bdbTL_ProcessInCmd_IdentifyReq::?relay`; Banked call to: bdbTL_ProcessInCmd_IdentifyReq
        MOV       A,R1
        MOV       ?V0,A
// 1379       break;
        SJMP      ??bdbTL_ProcessInLLInterPANCmds_14
// 1380 
// 1381     case COMMAND_TOUCHLINK_RESET_TO_FN_REQ:
// 1382       status = bdbTL_ProcessInCmd_ResetToFNReq( pInMsg );
??bdbTL_ProcessInLLInterPANCmds_5:
        ; Setup parameters for call to function bdbTL_ProcessInCmd_ResetToFNReq
        MOV       A,R6
        MOV       R2,A
        MOV       A,R7
        MOV       R3,A
        LCALL     `??bdbTL_ProcessInCmd_ResetToFNReq::?relay`; Banked call to: bdbTL_ProcessInCmd_ResetToFNReq
        MOV       A,R1
        MOV       ?V0,A
// 1383       break;
        SJMP      ??bdbTL_ProcessInLLInterPANCmds_14
// 1384 
// 1385     case COMMAND_TOUCHLINK_NWK_START_REQ:
// 1386       status = bdbTL_ProcessInCmd_NwkStartReq( pInMsg );
??bdbTL_ProcessInLLInterPANCmds_6:
        ; Setup parameters for call to function bdbTL_ProcessInCmd_NwkStartReq
        MOV       A,R6
        MOV       R2,A
        MOV       A,R7
        MOV       R3,A
        LCALL     `??bdbTL_ProcessInCmd_NwkStartReq::?relay`; Banked call to: bdbTL_ProcessInCmd_NwkStartReq
        MOV       A,R1
        MOV       ?V0,A
// 1387       break;
        SJMP      ??bdbTL_ProcessInLLInterPANCmds_14
// 1388 
// 1389     case COMMAND_TOUCHLINK_NWK_JOIN_RTR_REQ:
// 1390       status = bdbTL_ProcessInCmd_NwkJoinRtrReq( pInMsg );
??bdbTL_ProcessInLLInterPANCmds_8:
        ; Setup parameters for call to function bdbTL_ProcessInCmd_NwkJoinRtrReq
        MOV       A,R6
        MOV       R2,A
        MOV       A,R7
        MOV       R3,A
        LCALL     `??bdbTL_ProcessInCmd_NwkJoinRtrReq::?relay`; Banked call to: bdbTL_ProcessInCmd_NwkJoinRtrReq
        MOV       A,R1
        MOV       ?V0,A
// 1391       break;
        SJMP      ??bdbTL_ProcessInLLInterPANCmds_14
// 1392 
// 1393     case COMMAND_TOUCHLINK_NWK_JOIN_ED_REQ:
// 1394       status = bdbTL_ProcessInCmd_NwkJoinEDReq( pInMsg );
??bdbTL_ProcessInLLInterPANCmds_10:
        ; Setup parameters for call to function bdbTL_ProcessInCmd_NwkJoinEDReq
        MOV       A,R6
        MOV       R2,A
        MOV       A,R7
        MOV       R3,A
        LCALL     `??bdbTL_ProcessInCmd_NwkJoinEDReq::?relay`; Banked call to: bdbTL_ProcessInCmd_NwkJoinEDReq
        MOV       A,R1
        MOV       ?V0,A
// 1395       break;
        SJMP      ??bdbTL_ProcessInLLInterPANCmds_14
// 1396 
// 1397     case COMMAND_TOUCHLINK_NWK_UPDATE_REQ:
// 1398       status = bdbTL_ProcessInCmd_NwkUpdateReq( pInMsg );
??bdbTL_ProcessInLLInterPANCmds_12:
        ; Setup parameters for call to function bdbTL_ProcessInCmd_NwkUpdateReq
        MOV       A,R6
        MOV       R2,A
        MOV       A,R7
        MOV       R3,A
        LCALL     `??bdbTL_ProcessInCmd_NwkUpdateReq::?relay`; Banked call to: bdbTL_ProcessInCmd_NwkUpdateReq
        MOV       A,R1
        MOV       ?V0,A
// 1399       break;
        SJMP      ??bdbTL_ProcessInLLInterPANCmds_14
// 1400 
// 1401     case COMMAND_TOUCHLINK_SCAN_RSP:
// 1402       status = bdbTL_ProcessInCmd_ScanRsp( pInMsg );
??bdbTL_ProcessInLLInterPANCmds_1:
        ; Setup parameters for call to function bdbTL_ProcessInCmd_ScanRsp
        MOV       A,R6
        MOV       R2,A
        MOV       A,R7
        MOV       R3,A
        LCALL     `??bdbTL_ProcessInCmd_ScanRsp::?relay`; Banked call to: bdbTL_ProcessInCmd_ScanRsp
        MOV       A,R1
        MOV       ?V0,A
// 1403       break;
        SJMP      ??bdbTL_ProcessInLLInterPANCmds_14
// 1404 
// 1405     case COMMAND_TOUCHLINK_DEVICE_INFO_RSP:
// 1406       status = bdbTL_ProcessInCmd_DeviceInfoRsp( pInMsg );
??bdbTL_ProcessInLLInterPANCmds_3:
        ; Setup parameters for call to function bdbTL_ProcessInCmd_DeviceInfoRsp
        MOV       A,R6
        MOV       R2,A
        MOV       A,R7
        MOV       R3,A
        LCALL     `??bdbTL_ProcessInCmd_DeviceInfoRsp::?relay`; Banked call to: bdbTL_ProcessInCmd_DeviceInfoRsp
        MOV       A,R1
        MOV       ?V0,A
// 1407       break;
        SJMP      ??bdbTL_ProcessInLLInterPANCmds_14
// 1408 
// 1409     case COMMAND_TOUCHLINK_NWK_START_RSP:
// 1410       status = bdbTL_ProcessInCmd_NwkStartRsp( pInMsg );
??bdbTL_ProcessInLLInterPANCmds_7:
        ; Setup parameters for call to function bdbTL_ProcessInCmd_NwkStartRsp
        MOV       A,R6
        MOV       R2,A
        MOV       A,R7
        MOV       R3,A
        LCALL     `??bdbTL_ProcessInCmd_NwkStartRsp::?relay`; Banked call to: bdbTL_ProcessInCmd_NwkStartRsp
        MOV       A,R1
        MOV       ?V0,A
// 1411       break;
        SJMP      ??bdbTL_ProcessInLLInterPANCmds_14
// 1412 
// 1413     case COMMAND_TOUCHLINK_NWK_JOIN_RTR_RSP:
// 1414       status = bdbTL_ProcessInCmd_NwkJoinRtrRsp( pInMsg );
??bdbTL_ProcessInLLInterPANCmds_9:
        ; Setup parameters for call to function bdbTL_ProcessInCmd_NwkJoinRtrRsp
        MOV       A,R6
        MOV       R2,A
        MOV       A,R7
        MOV       R3,A
        LCALL     `??bdbTL_ProcessInCmd_NwkJoinRtrRsp::?relay`; Banked call to: bdbTL_ProcessInCmd_NwkJoinRtrRsp
        MOV       A,R1
        MOV       ?V0,A
// 1415       break;
        SJMP      ??bdbTL_ProcessInLLInterPANCmds_14
// 1416 
// 1417     case COMMAND_TOUCHLINK_NWK_JOIN_ED_RSP:
// 1418       status = bdbTL_ProcessInCmd_NwkJoinEDRsp( pInMsg );
??bdbTL_ProcessInLLInterPANCmds_11:
        ; Setup parameters for call to function bdbTL_ProcessInCmd_NwkJoinEDRsp
        MOV       A,R6
        MOV       R2,A
        MOV       A,R7
        MOV       R3,A
        LCALL     `??bdbTL_ProcessInCmd_NwkJoinEDRsp::?relay`; Banked call to: bdbTL_ProcessInCmd_NwkJoinEDRsp
        MOV       A,R1
        MOV       ?V0,A
// 1419       break;
        SJMP      ??bdbTL_ProcessInLLInterPANCmds_14
// 1420 
// 1421     default:
// 1422       status = ZFailure;   // Error ignore the command
??bdbTL_ProcessInLLInterPANCmds_13:
        MOV       ?V0,#0x1
// 1423       break;
// 1424   }
// 1425 
// 1426   return ( status );
??bdbTL_ProcessInLLInterPANCmds_14:
        MOV       R1,?V0
        MOV       R7,#0x1
        LJMP      ?BANKED_LEAVE_XDATA
// 1427 }
          CFI EndBlock cfiBlock27
// 1428 
// 1429 /*********************************************************************
// 1430  * @fn      bdbTL_ProcessInCmd_ScanReq
// 1431  *
// 1432  * @brief   Process in the received Scan Request command.
// 1433  *
// 1434  * @param   pInMsg - pointer to the incoming message
// 1435  *
// 1436  * @return  ZStatus_t
// 1437  */

        RSEG BANKED_CODE:HUGECODE:NOROOT(0)
// 1438 static ZStatus_t bdbTL_ProcessInCmd_ScanReq( zclIncoming_t *pInMsg )
bdbTL_ProcessInCmd_ScanReq:
          CFI Block cfiBlock28 Using cfiCommon0
          CFI Function bdbTL_ProcessInCmd_ScanReq
        CODE
// 1439 {
        FUNCALL bdbTL_ProcessInCmd_ScanReq, osal_build_uint32
        LOCFRAME ISTACK, 0, STACK
        LOCFRAME PSTACK, 0, STACK
        LOCFRAME XSTACK, 17, STACK
        LOCFRAME IOVERLAY, 0, STATIC
        LOCFRAME DOVERLAY, 0, STATIC
        ARGFRAME ISTACK, 0, STACK
        ARGFRAME PSTACK, 0, STACK
        ARGFRAME XSTACK, 17, STACK
        ARGFRAME IOVERLAY, 0, STATIC
        ARGFRAME DOVERLAY, 0, STATIC
        MOV       A,#-0x9
        LCALL     ?BANKED_ENTER_XDATA
          CFI DPH0 load(1, XDATA, add(CFA_XSP16, literal(-1)))
          CFI DPL0 load(1, XDATA, add(CFA_XSP16, literal(-2)))
          CFI ?BRET_EXT load(1, XDATA, add(CFA_XSP16, literal(-3)))
          CFI ?RET_HIGH load(1, XDATA, add(CFA_XSP16, literal(-4)))
          CFI ?RET_LOW load(1, XDATA, add(CFA_XSP16, literal(-5)))
          CFI R7 load(1, XDATA, add(CFA_XSP16, literal(-6)))
          CFI V0 load(1, XDATA, add(CFA_XSP16, literal(-7)))
          CFI VB load(1, XDATA, add(CFA_XSP16, literal(-8)))
          CFI R6 load(1, XDATA, add(CFA_XSP16, literal(-9)))
          CFI CFA_SP SP+0
          CFI CFA_XSP16 add(XSP16, 9)
        ; Saved register size: 9
        ; Auto size: 8
        MOV       A,#-0x8
        LCALL     ?ALLOC_XSTACK8
          CFI CFA_XSP16 add(XSP16, 17)
        MOV       A,R2
        MOV       R6,A
        MOV       A,R3
        MOV       R7,A
// 1440   if ( pInterPANCBs->pfnScanReq )
        MOV       DPTR,#pInterPANCBs
        MOVX      A,@DPTR
        MOV       R0,A
        INC       DPTR
        MOVX      A,@DPTR
        MOV       DPH,A
        MOV       DPL,R0
        MOVX      A,@DPTR
        MOV       R0,A
        INC       DPTR
        MOVX      A,@DPTR
        MOV       R1,A
        MOV       A,R0
        ORL       A,R1
        JNZ       $+5
        LJMP      ??bdbTL_ProcessInCmd_ScanReq_0 & 0xFFFF
// 1441   {
// 1442     bdbTLScanReq_t req;
// 1443 
// 1444     req.transID = zcl_build_uint32( pInMsg->pData, 4 );
        ; Setup parameters for call to function osal_build_uint32
        MOV       R1,#0x4
        MOV       DPL,R6
        MOV       DPH,R7
        INC       DPTR
        INC       DPTR
        INC       DPTR
        INC       DPTR
        INC       DPTR
        INC       DPTR
        INC       DPTR
        INC       DPTR
        MOVX      A,@DPTR
        MOV       R2,A
        INC       DPTR
        MOVX      A,@DPTR
        MOV       R3,A
        LCALL     `??osal_build_uint32::?relay`; Banked call to: osal_build_uint32
        MOV       A,R2
        MOV       R0,A
        MOV       A,R3
        MOV       R1,A
        MOV       A,R4
        MOV       R2,A
        MOV       A,R5
        MOV       R3,A
        MOV       DPL,?XSP + 0
        MOV       DPH,?XSP + 1
        LCALL     ?XSTORE_R0123
// 1445 
// 1446     req.zInfo.zInfoByte = pInMsg->pData[4];
        MOV       DPL,R6
        MOV       DPH,R7
        INC       DPTR
        INC       DPTR
        INC       DPTR
        INC       DPTR
        INC       DPTR
        INC       DPTR
        INC       DPTR
        INC       DPTR
        MOVX      A,@DPTR
        MOV       R0,A
        INC       DPTR
        MOVX      A,@DPTR
        MOV       DPH,A
        MOV       DPL,R0
        INC       DPTR
        INC       DPTR
        INC       DPTR
        INC       DPTR
        MOVX      A,@DPTR
        PUSH      A
          CFI CFA_SP SP+-1
        MOV       A,#0x4
        LCALL     ?XSTACK_DISP0_8
        POP       A
          CFI CFA_SP SP+0
        MOVX      @DPTR,A
// 1447     req.touchLinkInfo.touchLinkInfoByte = pInMsg->pData[5];
        MOV       DPL,R6
        MOV       DPH,R7
        INC       DPTR
        INC       DPTR
        INC       DPTR
        INC       DPTR
        INC       DPTR
        INC       DPTR
        INC       DPTR
        INC       DPTR
        MOVX      A,@DPTR
        MOV       R0,A
        INC       DPTR
        MOVX      A,@DPTR
        MOV       DPH,A
        MOV       DPL,R0
        INC       DPTR
        INC       DPTR
        INC       DPTR
        INC       DPTR
        INC       DPTR
        MOVX      A,@DPTR
        PUSH      A
          CFI CFA_SP SP+-1
        MOV       A,#0x6
        LCALL     ?XSTACK_DISP0_8
        POP       A
          CFI CFA_SP SP+0
        MOVX      @DPTR,A
// 1448 
// 1449     return ( pInterPANCBs->pfnScanReq( &(pInMsg->msg->srcAddr), &req,
// 1450                                        pInMsg->hdr.transSeqNum ) );
        ; Setup parameters for indirect call
        MOV       DPL,R6
        MOV       DPH,R7
        INC       DPTR
        INC       DPTR
        INC       DPTR
        INC       DPTR
        INC       DPTR
        INC       DPTR
        MOVX      A,@DPTR
        MOV       R1,A
        MOV       R4,?XSP + 0
        MOV       R5,?XSP + 1
        MOV       DPL,R6
        MOV       DPH,R7
        MOVX      A,@DPTR
        ADD       A,#0x6
        MOV       R2,A
        INC       DPTR
        MOVX      A,@DPTR
        ADDC      A,#0x0
        MOV       R3,A
        MOV       DPTR,#pInterPANCBs
        MOVX      A,@DPTR
        MOV       R0,A
        INC       DPTR
        MOVX      A,@DPTR
        MOV       DPH,A
        MOV       DPL,R0
        MOVX      A,@DPTR
        MOV       R0,A
        INC       DPTR
        MOVX      A,@DPTR
        MOV       DPH,A
        MOV       DPL,R0
        LCALL     ?CALL_IND
        SJMP      ??bdbTL_ProcessInCmd_ScanReq_1
// 1451   }
// 1452 
// 1453   return ( ZSuccess );
??bdbTL_ProcessInCmd_ScanReq_0:
        MOV       R1,#0x0
??bdbTL_ProcessInCmd_ScanReq_1:
        MOV       A,#0x8
        LCALL     ?DEALLOC_XSTACK8
          CFI CFA_XSP16 add(XSP16, 9)
        MOV       R7,#0x1
        LJMP      ?BANKED_LEAVE_XDATA
// 1454 }
          CFI EndBlock cfiBlock28
// 1455 
// 1456 /*********************************************************************
// 1457  * @fn      bdbTL_ProcessInCmd_DeviceInfoReq
// 1458  *
// 1459  * @brief   Process in the received Device Information Request command.
// 1460  *
// 1461  * @param   pInMsg - pointer to the incoming message
// 1462  *
// 1463  * @return  ZStatus_t
// 1464  */

        RSEG BANKED_CODE:HUGECODE:NOROOT(0)
// 1465 static ZStatus_t bdbTL_ProcessInCmd_DeviceInfoReq( zclIncoming_t *pInMsg )
bdbTL_ProcessInCmd_DeviceInfoReq:
          CFI Block cfiBlock29 Using cfiCommon0
          CFI Function bdbTL_ProcessInCmd_DeviceInfoReq
        CODE
// 1466 {
        FUNCALL bdbTL_ProcessInCmd_DeviceInfoReq, osal_build_uint32
        LOCFRAME ISTACK, 0, STACK
        LOCFRAME PSTACK, 0, STACK
        LOCFRAME XSTACK, 14, STACK
        LOCFRAME IOVERLAY, 0, STATIC
        LOCFRAME DOVERLAY, 0, STATIC
        ARGFRAME ISTACK, 0, STACK
        ARGFRAME PSTACK, 0, STACK
        ARGFRAME XSTACK, 14, STACK
        ARGFRAME IOVERLAY, 0, STATIC
        ARGFRAME DOVERLAY, 0, STATIC
        MOV       A,#-0x9
        LCALL     ?BANKED_ENTER_XDATA
          CFI DPH0 load(1, XDATA, add(CFA_XSP16, literal(-1)))
          CFI DPL0 load(1, XDATA, add(CFA_XSP16, literal(-2)))
          CFI ?BRET_EXT load(1, XDATA, add(CFA_XSP16, literal(-3)))
          CFI ?RET_HIGH load(1, XDATA, add(CFA_XSP16, literal(-4)))
          CFI ?RET_LOW load(1, XDATA, add(CFA_XSP16, literal(-5)))
          CFI R7 load(1, XDATA, add(CFA_XSP16, literal(-6)))
          CFI V0 load(1, XDATA, add(CFA_XSP16, literal(-7)))
          CFI VB load(1, XDATA, add(CFA_XSP16, literal(-8)))
          CFI R6 load(1, XDATA, add(CFA_XSP16, literal(-9)))
          CFI CFA_SP SP+0
          CFI CFA_XSP16 add(XSP16, 9)
        ; Saved register size: 9
        ; Auto size: 5
        MOV       A,#-0x5
        LCALL     ?ALLOC_XSTACK8
          CFI CFA_XSP16 add(XSP16, 14)
        MOV       A,R2
        MOV       R6,A
        MOV       A,R3
        MOV       R7,A
// 1467   if ( pInterPANCBs->pfnDeviceInfoReq )
        MOV       DPTR,#pInterPANCBs
        MOVX      A,@DPTR
        MOV       R0,A
        INC       DPTR
        MOVX      A,@DPTR
        MOV       DPH,A
        MOV       DPL,R0
        INC       DPTR
        INC       DPTR
        MOVX      A,@DPTR
        MOV       R0,A
        INC       DPTR
        MOVX      A,@DPTR
        MOV       R1,A
        MOV       A,R0
        ORL       A,R1
        JNZ       $+5
        LJMP      ??bdbTL_ProcessInCmd_DeviceInfoReq_0 & 0xFFFF
// 1468   {
// 1469     bdbTLDeviceInfoReq_t req;
// 1470 
// 1471     req.transID = zcl_build_uint32( pInMsg->pData, 4 );
        ; Setup parameters for call to function osal_build_uint32
        MOV       R1,#0x4
        MOV       DPL,R6
        MOV       DPH,R7
        INC       DPTR
        INC       DPTR
        INC       DPTR
        INC       DPTR
        INC       DPTR
        INC       DPTR
        INC       DPTR
        INC       DPTR
        MOVX      A,@DPTR
        MOV       R2,A
        INC       DPTR
        MOVX      A,@DPTR
        MOV       R3,A
        LCALL     `??osal_build_uint32::?relay`; Banked call to: osal_build_uint32
        MOV       A,R2
        MOV       R0,A
        MOV       A,R3
        MOV       R1,A
        MOV       A,R4
        MOV       R2,A
        MOV       A,R5
        MOV       R3,A
        MOV       DPL,?XSP + 0
        MOV       DPH,?XSP + 1
        LCALL     ?XSTORE_R0123
// 1472 
// 1473     req.startIndex = pInMsg->pData[4];
        MOV       DPL,R6
        MOV       DPH,R7
        INC       DPTR
        INC       DPTR
        INC       DPTR
        INC       DPTR
        INC       DPTR
        INC       DPTR
        INC       DPTR
        INC       DPTR
        MOVX      A,@DPTR
        MOV       R0,A
        INC       DPTR
        MOVX      A,@DPTR
        MOV       DPH,A
        MOV       DPL,R0
        INC       DPTR
        INC       DPTR
        INC       DPTR
        INC       DPTR
        MOVX      A,@DPTR
        PUSH      A
          CFI CFA_SP SP+-1
        MOV       A,#0x4
        LCALL     ?XSTACK_DISP0_8
        POP       A
          CFI CFA_SP SP+0
        MOVX      @DPTR,A
// 1474 
// 1475     return ( pInterPANCBs->pfnDeviceInfoReq( &(pInMsg->msg->srcAddr), &req,
// 1476                                              pInMsg->hdr.transSeqNum ) );
        ; Setup parameters for indirect call
        MOV       DPL,R6
        MOV       DPH,R7
        INC       DPTR
        INC       DPTR
        INC       DPTR
        INC       DPTR
        INC       DPTR
        INC       DPTR
        MOVX      A,@DPTR
        MOV       R1,A
        MOV       R4,?XSP + 0
        MOV       R5,?XSP + 1
        MOV       DPL,R6
        MOV       DPH,R7
        MOVX      A,@DPTR
        ADD       A,#0x6
        MOV       R2,A
        INC       DPTR
        MOVX      A,@DPTR
        ADDC      A,#0x0
        MOV       R3,A
        MOV       DPTR,#pInterPANCBs
        MOVX      A,@DPTR
        MOV       R0,A
        INC       DPTR
        MOVX      A,@DPTR
        MOV       DPH,A
        MOV       DPL,R0
        INC       DPTR
        INC       DPTR
        MOVX      A,@DPTR
        MOV       R0,A
        INC       DPTR
        MOVX      A,@DPTR
        MOV       DPH,A
        MOV       DPL,R0
        LCALL     ?CALL_IND
        SJMP      ??bdbTL_ProcessInCmd_DeviceInfoReq_1
// 1477   }
// 1478 
// 1479   return ( ZSuccess );
??bdbTL_ProcessInCmd_DeviceInfoReq_0:
        MOV       R1,#0x0
??bdbTL_ProcessInCmd_DeviceInfoReq_1:
        MOV       A,#0x5
        LCALL     ?DEALLOC_XSTACK8
          CFI CFA_XSP16 add(XSP16, 9)
        MOV       R7,#0x1
        LJMP      ?BANKED_LEAVE_XDATA
// 1480 }
          CFI EndBlock cfiBlock29
// 1481 
// 1482 
// 1483 /*********************************************************************
// 1484  * @fn      bdbTL_ProcessInCmd_IdentifyReq
// 1485  *
// 1486  * @brief   Process in the received Identify Request command.
// 1487  *
// 1488  * @param   pInMsg - pointer to the incoming message
// 1489  *
// 1490  * @return  ZStatus_t
// 1491  */

        RSEG BANKED_CODE:HUGECODE:NOROOT(0)
// 1492 static ZStatus_t bdbTL_ProcessInCmd_IdentifyReq( zclIncoming_t *pInMsg )
bdbTL_ProcessInCmd_IdentifyReq:
          CFI Block cfiBlock30 Using cfiCommon0
          CFI Function bdbTL_ProcessInCmd_IdentifyReq
        CODE
// 1493 {
        FUNCALL bdbTL_ProcessInCmd_IdentifyReq, osal_build_uint32
        LOCFRAME ISTACK, 0, STACK
        LOCFRAME PSTACK, 0, STACK
        LOCFRAME XSTACK, 15, STACK
        LOCFRAME IOVERLAY, 0, STATIC
        LOCFRAME DOVERLAY, 0, STATIC
        ARGFRAME ISTACK, 0, STACK
        ARGFRAME PSTACK, 0, STACK
        ARGFRAME XSTACK, 15, STACK
        ARGFRAME IOVERLAY, 0, STATIC
        ARGFRAME DOVERLAY, 0, STATIC
        MOV       A,#-0x9
        LCALL     ?BANKED_ENTER_XDATA
          CFI DPH0 load(1, XDATA, add(CFA_XSP16, literal(-1)))
          CFI DPL0 load(1, XDATA, add(CFA_XSP16, literal(-2)))
          CFI ?BRET_EXT load(1, XDATA, add(CFA_XSP16, literal(-3)))
          CFI ?RET_HIGH load(1, XDATA, add(CFA_XSP16, literal(-4)))
          CFI ?RET_LOW load(1, XDATA, add(CFA_XSP16, literal(-5)))
          CFI R7 load(1, XDATA, add(CFA_XSP16, literal(-6)))
          CFI V0 load(1, XDATA, add(CFA_XSP16, literal(-7)))
          CFI VB load(1, XDATA, add(CFA_XSP16, literal(-8)))
          CFI R6 load(1, XDATA, add(CFA_XSP16, literal(-9)))
          CFI CFA_SP SP+0
          CFI CFA_XSP16 add(XSP16, 9)
        ; Saved register size: 9
        ; Auto size: 6
        MOV       A,#-0x6
        LCALL     ?ALLOC_XSTACK8
          CFI CFA_XSP16 add(XSP16, 15)
        MOV       A,R2
        MOV       R6,A
        MOV       A,R3
        MOV       R7,A
// 1494   if ( pInterPANCBs->pfnIdentifyReq )
        MOV       DPTR,#pInterPANCBs
        MOVX      A,@DPTR
        MOV       R0,A
        INC       DPTR
        MOVX      A,@DPTR
        MOV       DPH,A
        MOV       DPL,R0
        INC       DPTR
        INC       DPTR
        INC       DPTR
        INC       DPTR
        MOVX      A,@DPTR
        MOV       R0,A
        INC       DPTR
        MOVX      A,@DPTR
        MOV       R1,A
        MOV       A,R0
        ORL       A,R1
        JNZ       $+5
        LJMP      ??bdbTL_ProcessInCmd_IdentifyReq_0 & 0xFFFF
// 1495   {
// 1496     bdbTLIdentifyReq_t req;
// 1497 
// 1498     req.transID = zcl_build_uint32( pInMsg->pData, 4 );
        ; Setup parameters for call to function osal_build_uint32
        MOV       R1,#0x4
        MOV       DPL,R6
        MOV       DPH,R7
        INC       DPTR
        INC       DPTR
        INC       DPTR
        INC       DPTR
        INC       DPTR
        INC       DPTR
        INC       DPTR
        INC       DPTR
        MOVX      A,@DPTR
        MOV       R2,A
        INC       DPTR
        MOVX      A,@DPTR
        MOV       R3,A
        LCALL     `??osal_build_uint32::?relay`; Banked call to: osal_build_uint32
        MOV       A,R2
        MOV       R0,A
        MOV       A,R3
        MOV       R1,A
        MOV       A,R4
        MOV       R2,A
        MOV       A,R5
        MOV       R3,A
        MOV       DPL,?XSP + 0
        MOV       DPH,?XSP + 1
        LCALL     ?XSTORE_R0123
// 1499 
// 1500     req.IdDuration = BUILD_UINT16( pInMsg->pData[4], pInMsg->pData[5] );
        MOV       DPL,R6
        MOV       DPH,R7
        INC       DPTR
        INC       DPTR
        INC       DPTR
        INC       DPTR
        INC       DPTR
        INC       DPTR
        INC       DPTR
        INC       DPTR
        MOVX      A,@DPTR
        MOV       R0,A
        INC       DPTR
        MOVX      A,@DPTR
        MOV       DPH,A
        MOV       DPL,R0
        INC       DPTR
        INC       DPTR
        INC       DPTR
        INC       DPTR
        MOVX      A,@DPTR
        MOV       R2,A
        MOV       R3,#0x0
        MOV       DPL,R6
        MOV       DPH,R7
        INC       DPTR
        INC       DPTR
        INC       DPTR
        INC       DPTR
        INC       DPTR
        INC       DPTR
        INC       DPTR
        INC       DPTR
        MOVX      A,@DPTR
        MOV       R0,A
        INC       DPTR
        MOVX      A,@DPTR
        MOV       DPH,A
        MOV       DPL,R0
        INC       DPTR
        INC       DPTR
        INC       DPTR
        INC       DPTR
        INC       DPTR
        MOVX      A,@DPTR
        MOV       R0,A
        MOV       R1,#0x0
        CLR       A
        XCH       A,R0
        MOV       R1,A
        MOV       A,R2
        ADD       A,R0
        MOV       R0,A
        MOV       A,R3
        ADDC      A,R1
        MOV       R1,A
        MOV       A,#0x4
        LCALL     ?XSTACK_DISP0_8
        MOV       A,R0
        MOVX      @DPTR,A
        INC       DPTR
        MOV       A,R1
        MOVX      @DPTR,A
// 1501 
// 1502     return ( pInterPANCBs->pfnIdentifyReq( &(pInMsg->msg->srcAddr), &req ) );
        ; Setup parameters for indirect call
        MOV       R4,?XSP + 0
        MOV       R5,?XSP + 1
        MOV       DPL,R6
        MOV       DPH,R7
        MOVX      A,@DPTR
        ADD       A,#0x6
        MOV       R2,A
        INC       DPTR
        MOVX      A,@DPTR
        ADDC      A,#0x0
        MOV       R3,A
        MOV       DPTR,#pInterPANCBs
        MOVX      A,@DPTR
        MOV       R0,A
        INC       DPTR
        MOVX      A,@DPTR
        MOV       DPH,A
        MOV       DPL,R0
        INC       DPTR
        INC       DPTR
        INC       DPTR
        INC       DPTR
        MOVX      A,@DPTR
        MOV       R0,A
        INC       DPTR
        MOVX      A,@DPTR
        MOV       DPH,A
        MOV       DPL,R0
        LCALL     ?CALL_IND
        SJMP      ??bdbTL_ProcessInCmd_IdentifyReq_1
// 1503   }
// 1504 
// 1505   return ( ZSuccess );
??bdbTL_ProcessInCmd_IdentifyReq_0:
        MOV       R1,#0x0
??bdbTL_ProcessInCmd_IdentifyReq_1:
        MOV       A,#0x6
        LCALL     ?DEALLOC_XSTACK8
          CFI CFA_XSP16 add(XSP16, 9)
        MOV       R7,#0x1
        LJMP      ?BANKED_LEAVE_XDATA
// 1506 }
          CFI EndBlock cfiBlock30
// 1507 
// 1508 /*********************************************************************
// 1509  * @fn      bdbTL_ProcessInCmd_ResetToFNReq
// 1510  *
// 1511  * @brief   Process in the received Reset to Factory New Request command.
// 1512  *
// 1513  * @param   pInMsg - pointer to the incoming message
// 1514  *
// 1515  * @return  ZStatus_t
// 1516  */

        RSEG BANKED_CODE:HUGECODE:NOROOT(0)
// 1517 static ZStatus_t bdbTL_ProcessInCmd_ResetToFNReq( zclIncoming_t *pInMsg )
bdbTL_ProcessInCmd_ResetToFNReq:
          CFI Block cfiBlock31 Using cfiCommon0
          CFI Function bdbTL_ProcessInCmd_ResetToFNReq
        CODE
// 1518 {
        FUNCALL bdbTL_ProcessInCmd_ResetToFNReq, osal_build_uint32
        LOCFRAME ISTACK, 0, STACK
        LOCFRAME PSTACK, 0, STACK
        LOCFRAME XSTACK, 13, STACK
        LOCFRAME IOVERLAY, 0, STATIC
        LOCFRAME DOVERLAY, 0, STATIC
        ARGFRAME ISTACK, 0, STACK
        ARGFRAME PSTACK, 0, STACK
        ARGFRAME XSTACK, 13, STACK
        ARGFRAME IOVERLAY, 0, STATIC
        ARGFRAME DOVERLAY, 0, STATIC
        MOV       A,#-0x9
        LCALL     ?BANKED_ENTER_XDATA
          CFI DPH0 load(1, XDATA, add(CFA_XSP16, literal(-1)))
          CFI DPL0 load(1, XDATA, add(CFA_XSP16, literal(-2)))
          CFI ?BRET_EXT load(1, XDATA, add(CFA_XSP16, literal(-3)))
          CFI ?RET_HIGH load(1, XDATA, add(CFA_XSP16, literal(-4)))
          CFI ?RET_LOW load(1, XDATA, add(CFA_XSP16, literal(-5)))
          CFI R7 load(1, XDATA, add(CFA_XSP16, literal(-6)))
          CFI V0 load(1, XDATA, add(CFA_XSP16, literal(-7)))
          CFI VB load(1, XDATA, add(CFA_XSP16, literal(-8)))
          CFI R6 load(1, XDATA, add(CFA_XSP16, literal(-9)))
          CFI CFA_SP SP+0
          CFI CFA_XSP16 add(XSP16, 9)
        ; Saved register size: 9
        ; Auto size: 4
        MOV       A,#-0x4
        LCALL     ?ALLOC_XSTACK8
          CFI CFA_XSP16 add(XSP16, 13)
        MOV       A,R2
        MOV       R6,A
        MOV       A,R3
        MOV       R7,A
// 1519   if ( pInterPANCBs->pfnResetToFNReq )
        MOV       DPTR,#pInterPANCBs
        MOVX      A,@DPTR
        MOV       R0,A
        INC       DPTR
        MOVX      A,@DPTR
        XCH       A,R0
        ADD       A,#0x6
        MOV       DPL,A
        XCH       A,R0
        ADDC      A,#0x0
        MOV       DPH,A
        MOVX      A,@DPTR
        MOV       R0,A
        INC       DPTR
        MOVX      A,@DPTR
        MOV       R1,A
        MOV       A,R0
        ORL       A,R1
        JZ        ??bdbTL_ProcessInCmd_ResetToFNReq_0
// 1520   {
// 1521     bdbTLResetToFNReq_t req;
// 1522 
// 1523     req.transID = zcl_build_uint32( pInMsg->pData, 4 );
        ; Setup parameters for call to function osal_build_uint32
        MOV       R1,#0x4
        MOV       DPL,R6
        MOV       DPH,R7
        INC       DPTR
        INC       DPTR
        INC       DPTR
        INC       DPTR
        INC       DPTR
        INC       DPTR
        INC       DPTR
        INC       DPTR
        MOVX      A,@DPTR
        MOV       R2,A
        INC       DPTR
        MOVX      A,@DPTR
        MOV       R3,A
        LCALL     `??osal_build_uint32::?relay`; Banked call to: osal_build_uint32
        MOV       A,R2
        MOV       R0,A
        MOV       A,R3
        MOV       R1,A
        MOV       A,R4
        MOV       R2,A
        MOV       A,R5
        MOV       R3,A
        MOV       DPL,?XSP + 0
        MOV       DPH,?XSP + 1
        LCALL     ?XSTORE_R0123
// 1524 
// 1525     return ( pInterPANCBs->pfnResetToFNReq( &(pInMsg->msg->srcAddr), &req ) );
        ; Setup parameters for indirect call
        MOV       R4,?XSP + 0
        MOV       R5,?XSP + 1
        MOV       DPL,R6
        MOV       DPH,R7
        MOVX      A,@DPTR
        ADD       A,#0x6
        MOV       R2,A
        INC       DPTR
        MOVX      A,@DPTR
        ADDC      A,#0x0
        MOV       R3,A
        MOV       DPTR,#pInterPANCBs
        MOVX      A,@DPTR
        MOV       R0,A
        INC       DPTR
        MOVX      A,@DPTR
        XCH       A,R0
        ADD       A,#0x6
        MOV       DPL,A
        XCH       A,R0
        ADDC      A,#0x0
        MOV       DPH,A
        MOVX      A,@DPTR
        MOV       R0,A
        INC       DPTR
        MOVX      A,@DPTR
        MOV       DPH,A
        MOV       DPL,R0
        LCALL     ?CALL_IND
        SJMP      ??bdbTL_ProcessInCmd_ResetToFNReq_1
// 1526   }
// 1527 
// 1528   return ( ZSuccess );
??bdbTL_ProcessInCmd_ResetToFNReq_0:
        MOV       R1,#0x0
??bdbTL_ProcessInCmd_ResetToFNReq_1:
        MOV       A,#0x4
        LCALL     ?DEALLOC_XSTACK8
          CFI CFA_XSP16 add(XSP16, 9)
        MOV       R7,#0x1
        LJMP      ?BANKED_LEAVE_XDATA
// 1529 }
          CFI EndBlock cfiBlock31
// 1530 
// 1531 /*********************************************************************
// 1532  * @fn      bdbTL_ProcessInCmd_NwkStartReq
// 1533  *
// 1534  * @brief   Process in the received Network Start Request command.
// 1535  *
// 1536  * @param   pInMsg - pointer to the incoming message
// 1537  *
// 1538  * @return  ZStatus_t
// 1539  */

        RSEG BANKED_CODE:HUGECODE:NOROOT(0)
// 1540 static ZStatus_t bdbTL_ProcessInCmd_NwkStartReq( zclIncoming_t *pInMsg )
bdbTL_ProcessInCmd_NwkStartReq:
          CFI Block cfiBlock32 Using cfiCommon0
          CFI Function bdbTL_ProcessInCmd_NwkStartReq
        CODE
// 1541 {
        FUNCALL bdbTL_ProcessInCmd_NwkStartReq, osal_mem_alloc
        LOCFRAME ISTACK, 0, STACK
        LOCFRAME PSTACK, 0, STACK
        LOCFRAME XSTACK, 18, STACK
        LOCFRAME IOVERLAY, 0, STATIC
        LOCFRAME DOVERLAY, 0, STATIC
        ARGFRAME ISTACK, 0, STACK
        ARGFRAME PSTACK, 0, STACK
        ARGFRAME XSTACK, 18, STACK
        ARGFRAME IOVERLAY, 0, STATIC
        ARGFRAME DOVERLAY, 0, STATIC
        FUNCALL bdbTL_ProcessInCmd_NwkStartReq, osal_build_uint32
        LOCFRAME ISTACK, 0, STACK
        LOCFRAME PSTACK, 0, STACK
        LOCFRAME XSTACK, 18, STACK
        LOCFRAME IOVERLAY, 0, STATIC
        LOCFRAME DOVERLAY, 0, STATIC
        ARGFRAME ISTACK, 0, STACK
        ARGFRAME PSTACK, 0, STACK
        ARGFRAME XSTACK, 18, STACK
        ARGFRAME IOVERLAY, 0, STATIC
        ARGFRAME DOVERLAY, 0, STATIC
        FUNCALL bdbTL_ProcessInCmd_NwkStartReq, sAddrExtCpy
        LOCFRAME ISTACK, 0, STACK
        LOCFRAME PSTACK, 0, STACK
        LOCFRAME XSTACK, 18, STACK
        LOCFRAME IOVERLAY, 0, STATIC
        LOCFRAME DOVERLAY, 0, STATIC
        ARGFRAME ISTACK, 0, STACK
        ARGFRAME PSTACK, 0, STACK
        ARGFRAME XSTACK, 18, STACK
        ARGFRAME IOVERLAY, 0, STATIC
        ARGFRAME DOVERLAY, 0, STATIC
        FUNCALL bdbTL_ProcessInCmd_NwkStartReq, osal_memcpy
        LOCFRAME ISTACK, 0, STACK
        LOCFRAME PSTACK, 0, STACK
        LOCFRAME XSTACK, 21, STACK
        LOCFRAME IOVERLAY, 0, STATIC
        LOCFRAME DOVERLAY, 0, STATIC
        ARGFRAME ISTACK, 0, STACK
        ARGFRAME PSTACK, 0, STACK
        ARGFRAME XSTACK, 21, STACK
        ARGFRAME IOVERLAY, 0, STATIC
        ARGFRAME DOVERLAY, 0, STATIC
        FUNCALL bdbTL_ProcessInCmd_NwkStartReq, sAddrExtCpy
        LOCFRAME ISTACK, 0, STACK
        LOCFRAME PSTACK, 0, STACK
        LOCFRAME XSTACK, 18, STACK
        LOCFRAME IOVERLAY, 0, STATIC
        LOCFRAME DOVERLAY, 0, STATIC
        ARGFRAME ISTACK, 0, STACK
        ARGFRAME PSTACK, 0, STACK
        ARGFRAME XSTACK, 18, STACK
        ARGFRAME IOVERLAY, 0, STATIC
        ARGFRAME DOVERLAY, 0, STATIC
        FUNCALL bdbTL_ProcessInCmd_NwkStartReq, osal_mem_free
        LOCFRAME ISTACK, 0, STACK
        LOCFRAME PSTACK, 0, STACK
        LOCFRAME XSTACK, 18, STACK
        LOCFRAME IOVERLAY, 0, STATIC
        LOCFRAME DOVERLAY, 0, STATIC
        ARGFRAME ISTACK, 0, STACK
        ARGFRAME PSTACK, 0, STACK
        ARGFRAME XSTACK, 18, STACK
        ARGFRAME IOVERLAY, 0, STATIC
        ARGFRAME DOVERLAY, 0, STATIC
        REQUIRE ?V0
        REQUIRE ?V1
        REQUIRE ?V2
        REQUIRE ?V4
        REQUIRE ?V5
        REQUIRE ?V6
        REQUIRE ?V8
        REQUIRE ?V9
        MOV       A,#-0x12
        LCALL     ?BANKED_ENTER_XDATA
          CFI DPH0 load(1, XDATA, add(CFA_XSP16, literal(-1)))
          CFI DPL0 load(1, XDATA, add(CFA_XSP16, literal(-2)))
          CFI ?BRET_EXT load(1, XDATA, add(CFA_XSP16, literal(-3)))
          CFI ?RET_HIGH load(1, XDATA, add(CFA_XSP16, literal(-4)))
          CFI ?RET_LOW load(1, XDATA, add(CFA_XSP16, literal(-5)))
          CFI R7 load(1, XDATA, add(CFA_XSP16, literal(-6)))
          CFI V9 load(1, XDATA, add(CFA_XSP16, literal(-7)))
          CFI V8 load(1, XDATA, add(CFA_XSP16, literal(-8)))
          CFI V7 load(1, XDATA, add(CFA_XSP16, literal(-9)))
          CFI V6 load(1, XDATA, add(CFA_XSP16, literal(-10)))
          CFI V5 load(1, XDATA, add(CFA_XSP16, literal(-11)))
          CFI V4 load(1, XDATA, add(CFA_XSP16, literal(-12)))
          CFI V3 load(1, XDATA, add(CFA_XSP16, literal(-13)))
          CFI V2 load(1, XDATA, add(CFA_XSP16, literal(-14)))
          CFI V1 load(1, XDATA, add(CFA_XSP16, literal(-15)))
          CFI V0 load(1, XDATA, add(CFA_XSP16, literal(-16)))
          CFI VB load(1, XDATA, add(CFA_XSP16, literal(-17)))
          CFI R6 load(1, XDATA, add(CFA_XSP16, literal(-18)))
          CFI CFA_SP SP+0
          CFI CFA_XSP16 add(XSP16, 18)
        ; Saved register size: 18
        ; Auto size: 0
        MOV       ?V8,R2
        MOV       ?V9,R3
// 1542   uint8 status = ZSuccess;
        MOV       ?V2,#0x0
// 1543 
// 1544   if ( pInterPANCBs->pfnNwkStartReq )
        MOV       DPTR,#pInterPANCBs
        MOVX      A,@DPTR
        MOV       R0,A
        INC       DPTR
        MOVX      A,@DPTR
        XCH       A,R0
        ADD       A,#0x8
        MOV       DPL,A
        XCH       A,R0
        ADDC      A,#0x0
        MOV       DPH,A
        MOVX      A,@DPTR
        MOV       R0,A
        INC       DPTR
        MOVX      A,@DPTR
        MOV       R1,A
        MOV       A,R0
        ORL       A,R1
        JNZ       $+5
        LJMP      ??bdbTL_ProcessInCmd_NwkStartReq_0 & 0xFFFF
// 1545   {
// 1546     bdbTLNwkStartReq_t *pReq;
// 1547 
// 1548     pReq = (bdbTLNwkStartReq_t *)zcl_mem_alloc( sizeof( bdbTLNwkStartReq_t ) );
        ; Setup parameters for call to function osal_mem_alloc
        MOV       R2,#0x38
        MOV       R3,#0x0
        LCALL     `??osal_mem_alloc::?relay`; Banked call to: osal_mem_alloc
        MOV       ?V4,R2
        MOV       ?V5,R3
        MOV       ?V0,?V4
        MOV       ?V1,?V5
// 1549     if ( pReq )
        MOV       A,?V0
        ORL       A,?V1
        JNZ       $+5
        LJMP      ??bdbTL_ProcessInCmd_NwkStartReq_0 & 0xFFFF
// 1550     {
// 1551       uint8 *pBuf = pInMsg->pData;
        MOV       DPL,?V8
        MOV       DPH,?V9
        INC       DPTR
        INC       DPTR
        INC       DPTR
        INC       DPTR
        INC       DPTR
        INC       DPTR
        INC       DPTR
        INC       DPTR
        MOVX      A,@DPTR
        MOV       R6,A
        INC       DPTR
        MOVX      A,@DPTR
        MOV       R7,A
// 1552 
// 1553       pReq->transID = zcl_build_uint32( pBuf, 4 );
        ; Setup parameters for call to function osal_build_uint32
        MOV       R1,#0x4
        MOV       A,R6
        MOV       R2,A
        MOV       A,R7
        MOV       R3,A
        LCALL     `??osal_build_uint32::?relay`; Banked call to: osal_build_uint32
        MOV       A,R2
        MOV       R0,A
        MOV       A,R3
        MOV       R1,A
        MOV       A,R4
        MOV       R2,A
        MOV       A,R5
        MOV       R3,A
        MOV       DPL,?V0
        MOV       DPH,?V1
        LCALL     ?XSTORE_R0123
// 1554       pBuf += 4;
        MOV       A,R6
        ADD       A,#0x4
        MOV       R6,A
        JNC       ??bdbTL_ProcessInCmd_NwkStartReq_1
        INC       R7
// 1555 
// 1556       zcl_cpyExtAddr( pReq->nwkParams.extendedPANID, pBuf );
??bdbTL_ProcessInCmd_NwkStartReq_1:
        ; Setup parameters for call to function sAddrExtCpy
        MOV       A,R6
        MOV       R4,A
        MOV       A,R7
        MOV       R5,A
        MOV       A,?V0
        ADD       A,#0x4
        MOV       R2,A
        CLR       A
        ADDC      A,?V1
        MOV       R3,A
        LCALL     `??sAddrExtCpy::?relay`; Banked call to: sAddrExtCpy
// 1557       pBuf += Z_EXTADDR_LEN;
        MOV       A,R6
        ADD       A,#0x8
        MOV       R6,A
        JNC       ??bdbTL_ProcessInCmd_NwkStartReq_2
        INC       R7
// 1558 
// 1559       pReq->nwkParams.keyIndex = *pBuf++;
??bdbTL_ProcessInCmd_NwkStartReq_2:
        MOV       DPL,R6
        MOV       DPH,R7
        MOVX      A,@DPTR
        PUSH      A
          CFI CFA_SP SP+-1
        MOV       A,?V0
        ADD       A,#0xc
        MOV       DPL,A
        CLR       A
        ADDC      A,?V1
        MOV       DPH,A
        POP       A
          CFI CFA_SP SP+0
        MOVX      @DPTR,A
        MOV       DPL,R6
        MOV       DPH,R7
        INC       DPTR
        MOV       R6,DPL
        MOV       R7,DPH
// 1560 
// 1561       zcl_memcpy( pReq->nwkParams.nwkKey, pBuf, SEC_KEY_LEN );
        ; Setup parameters for call to function osal_memcpy
        MOV       ?V4,R6
        MOV       ?V5,R7
        MOV       ?V6,#0x0
        MOV       R0,#?V4
        LCALL     ?PUSH_XSTACK_I_THREE
          CFI CFA_XSP16 add(XSP16, 21)
        MOV       R4,#0x10
        MOV       R5,#0x0
        MOV       A,?V0
        ADD       A,#0xd
        MOV       R2,A
        CLR       A
        ADDC      A,?V1
        MOV       R3,A
        LCALL     `??osal_memcpy::?relay`; Banked call to: osal_memcpy
        MOV       A,#0x3
        LCALL     ?DEALLOC_XSTACK8
          CFI CFA_XSP16 add(XSP16, 18)
// 1562       pBuf += SEC_KEY_LEN;
        MOV       A,R6
        ADD       A,#0x10
        MOV       R6,A
        JNC       ??bdbTL_ProcessInCmd_NwkStartReq_3
        INC       R7
// 1563 
// 1564       pReq->nwkParams.logicalChannel = *pBuf++;
??bdbTL_ProcessInCmd_NwkStartReq_3:
        MOV       DPL,R6
        MOV       DPH,R7
        MOVX      A,@DPTR
        PUSH      A
          CFI CFA_SP SP+-1
        MOV       A,?V0
        ADD       A,#0x1d
        MOV       DPL,A
        CLR       A
        ADDC      A,?V1
        MOV       DPH,A
        POP       A
          CFI CFA_SP SP+0
        MOVX      @DPTR,A
        MOV       DPL,R6
        MOV       DPH,R7
        INC       DPTR
        MOV       R6,DPL
        MOV       R7,DPH
// 1565 
// 1566       pReq->nwkParams.panId = BUILD_UINT16( pBuf[0], pBuf[1] );
        MOV       DPL,R6
        MOV       DPH,R7
        MOVX      A,@DPTR
        MOV       R2,A
        MOV       R3,#0x0
        MOV       DPL,R6
        MOV       DPH,R7
        INC       DPTR
        MOVX      A,@DPTR
        MOV       R0,A
        MOV       R1,#0x0
        CLR       A
        XCH       A,R0
        MOV       R1,A
        MOV       A,R2
        ADD       A,R0
        MOV       R0,A
        MOV       A,R3
        ADDC      A,R1
        MOV       R1,A
        MOV       A,?V0
        ADD       A,#0x1e
        MOV       DPL,A
        CLR       A
        ADDC      A,?V1
        MOV       DPH,A
        MOV       A,R0
        MOVX      @DPTR,A
        INC       DPTR
        MOV       A,R1
        MOVX      @DPTR,A
// 1567       pBuf += 2;
        MOV       A,R6
        ADD       A,#0x2
        MOV       R6,A
        JNC       ??bdbTL_ProcessInCmd_NwkStartReq_4
        INC       R7
// 1568 
// 1569       pReq->nwkParams.nwkAddr = BUILD_UINT16( pBuf[0], pBuf[1] );
??bdbTL_ProcessInCmd_NwkStartReq_4:
        MOV       DPL,R6
        MOV       DPH,R7
        MOVX      A,@DPTR
        MOV       R2,A
        MOV       R3,#0x0
        MOV       DPL,R6
        MOV       DPH,R7
        INC       DPTR
        MOVX      A,@DPTR
        MOV       R0,A
        MOV       R1,#0x0
        CLR       A
        XCH       A,R0
        MOV       R1,A
        MOV       A,R2
        ADD       A,R0
        MOV       R0,A
        MOV       A,R3
        ADDC      A,R1
        MOV       R1,A
        MOV       A,?V0
        ADD       A,#0x20
        MOV       DPL,A
        CLR       A
        ADDC      A,?V1
        MOV       DPH,A
        MOV       A,R0
        MOVX      @DPTR,A
        INC       DPTR
        MOV       A,R1
        MOVX      @DPTR,A
// 1570       pBuf += 2;
        MOV       A,R6
        ADD       A,#0x2
        MOV       R6,A
        JNC       ??bdbTL_ProcessInCmd_NwkStartReq_5
        INC       R7
// 1571 
// 1572       pReq->nwkParams.grpIDsBegin = BUILD_UINT16( pBuf[0], pBuf[1] );
??bdbTL_ProcessInCmd_NwkStartReq_5:
        MOV       DPL,R6
        MOV       DPH,R7
        MOVX      A,@DPTR
        MOV       R2,A
        MOV       R3,#0x0
        MOV       DPL,R6
        MOV       DPH,R7
        INC       DPTR
        MOVX      A,@DPTR
        MOV       R0,A
        MOV       R1,#0x0
        CLR       A
        XCH       A,R0
        MOV       R1,A
        MOV       A,R2
        ADD       A,R0
        MOV       R0,A
        MOV       A,R3
        ADDC      A,R1
        MOV       R1,A
        MOV       A,?V0
        ADD       A,#0x22
        MOV       DPL,A
        CLR       A
        ADDC      A,?V1
        MOV       DPH,A
        MOV       A,R0
        MOVX      @DPTR,A
        INC       DPTR
        MOV       A,R1
        MOVX      @DPTR,A
// 1573       pBuf += 2;
        MOV       A,R6
        ADD       A,#0x2
        MOV       R6,A
        JNC       ??bdbTL_ProcessInCmd_NwkStartReq_6
        INC       R7
// 1574 
// 1575       pReq->nwkParams.grpIDsEnd = BUILD_UINT16( pBuf[0], pBuf[1] );
??bdbTL_ProcessInCmd_NwkStartReq_6:
        MOV       DPL,R6
        MOV       DPH,R7
        MOVX      A,@DPTR
        MOV       R2,A
        MOV       R3,#0x0
        MOV       DPL,R6
        MOV       DPH,R7
        INC       DPTR
        MOVX      A,@DPTR
        MOV       R0,A
        MOV       R1,#0x0
        CLR       A
        XCH       A,R0
        MOV       R1,A
        MOV       A,R2
        ADD       A,R0
        MOV       R0,A
        MOV       A,R3
        ADDC      A,R1
        MOV       R1,A
        MOV       A,?V0
        ADD       A,#0x24
        MOV       DPL,A
        CLR       A
        ADDC      A,?V1
        MOV       DPH,A
        MOV       A,R0
        MOVX      @DPTR,A
        INC       DPTR
        MOV       A,R1
        MOVX      @DPTR,A
// 1576       pBuf += 2;
        MOV       A,R6
        ADD       A,#0x2
        MOV       R6,A
        JNC       ??bdbTL_ProcessInCmd_NwkStartReq_7
        INC       R7
// 1577 
// 1578       pReq->nwkParams.freeNwkAddrBegin = BUILD_UINT16( pBuf[0], pBuf[1] );
??bdbTL_ProcessInCmd_NwkStartReq_7:
        MOV       DPL,R6
        MOV       DPH,R7
        MOVX      A,@DPTR
        MOV       R2,A
        MOV       R3,#0x0
        MOV       DPL,R6
        MOV       DPH,R7
        INC       DPTR
        MOVX      A,@DPTR
        MOV       R0,A
        MOV       R1,#0x0
        CLR       A
        XCH       A,R0
        MOV       R1,A
        MOV       A,R2
        ADD       A,R0
        MOV       R0,A
        MOV       A,R3
        ADDC      A,R1
        MOV       R1,A
        MOV       A,?V0
        ADD       A,#0x26
        MOV       DPL,A
        CLR       A
        ADDC      A,?V1
        MOV       DPH,A
        MOV       A,R0
        MOVX      @DPTR,A
        INC       DPTR
        MOV       A,R1
        MOVX      @DPTR,A
// 1579       pBuf += 2;
        MOV       A,R6
        ADD       A,#0x2
        MOV       R6,A
        JNC       ??bdbTL_ProcessInCmd_NwkStartReq_8
        INC       R7
// 1580 
// 1581       pReq->nwkParams.freeNwkAddrEnd = BUILD_UINT16( pBuf[0], pBuf[1] );
??bdbTL_ProcessInCmd_NwkStartReq_8:
        MOV       DPL,R6
        MOV       DPH,R7
        MOVX      A,@DPTR
        MOV       R2,A
        MOV       R3,#0x0
        MOV       DPL,R6
        MOV       DPH,R7
        INC       DPTR
        MOVX      A,@DPTR
        MOV       R0,A
        MOV       R1,#0x0
        CLR       A
        XCH       A,R0
        MOV       R1,A
        MOV       A,R2
        ADD       A,R0
        MOV       R0,A
        MOV       A,R3
        ADDC      A,R1
        MOV       R1,A
        MOV       A,?V0
        ADD       A,#0x28
        MOV       DPL,A
        CLR       A
        ADDC      A,?V1
        MOV       DPH,A
        MOV       A,R0
        MOVX      @DPTR,A
        INC       DPTR
        MOV       A,R1
        MOVX      @DPTR,A
// 1582       pBuf += 2;
        MOV       A,R6
        ADD       A,#0x2
        MOV       R6,A
        JNC       ??bdbTL_ProcessInCmd_NwkStartReq_9
        INC       R7
// 1583 
// 1584       pReq->nwkParams.freeGrpIDBegin = BUILD_UINT16( pBuf[0], pBuf[1] );
??bdbTL_ProcessInCmd_NwkStartReq_9:
        MOV       DPL,R6
        MOV       DPH,R7
        MOVX      A,@DPTR
        MOV       R2,A
        MOV       R3,#0x0
        MOV       DPL,R6
        MOV       DPH,R7
        INC       DPTR
        MOVX      A,@DPTR
        MOV       R0,A
        MOV       R1,#0x0
        CLR       A
        XCH       A,R0
        MOV       R1,A
        MOV       A,R2
        ADD       A,R0
        MOV       R0,A
        MOV       A,R3
        ADDC      A,R1
        MOV       R1,A
        MOV       A,?V0
        ADD       A,#0x2a
        MOV       DPL,A
        CLR       A
        ADDC      A,?V1
        MOV       DPH,A
        MOV       A,R0
        MOVX      @DPTR,A
        INC       DPTR
        MOV       A,R1
        MOVX      @DPTR,A
// 1585       pBuf += 2;
        MOV       A,R6
        ADD       A,#0x2
        MOV       R6,A
        JNC       ??bdbTL_ProcessInCmd_NwkStartReq_10
        INC       R7
// 1586 
// 1587       pReq->nwkParams.freeGrpIDEnd = BUILD_UINT16( pBuf[0], pBuf[1] );
??bdbTL_ProcessInCmd_NwkStartReq_10:
        MOV       DPL,R6
        MOV       DPH,R7
        MOVX      A,@DPTR
        MOV       R2,A
        MOV       R3,#0x0
        MOV       DPL,R6
        MOV       DPH,R7
        INC       DPTR
        MOVX      A,@DPTR
        MOV       R0,A
        MOV       R1,#0x0
        CLR       A
        XCH       A,R0
        MOV       R1,A
        MOV       A,R2
        ADD       A,R0
        MOV       R0,A
        MOV       A,R3
        ADDC      A,R1
        MOV       R1,A
        MOV       A,?V0
        ADD       A,#0x2c
        MOV       DPL,A
        CLR       A
        ADDC      A,?V1
        MOV       DPH,A
        MOV       A,R0
        MOVX      @DPTR,A
        INC       DPTR
        MOV       A,R1
        MOVX      @DPTR,A
// 1588       pBuf += 2;
        MOV       A,R6
        ADD       A,#0x2
        MOV       R6,A
        JNC       ??bdbTL_ProcessInCmd_NwkStartReq_11
        INC       R7
// 1589 
// 1590       zcl_cpyExtAddr( pReq->initiatorIeeeAddr, pBuf );
??bdbTL_ProcessInCmd_NwkStartReq_11:
        ; Setup parameters for call to function sAddrExtCpy
        MOV       A,R6
        MOV       R4,A
        MOV       A,R7
        MOV       R5,A
        MOV       A,?V0
        ADD       A,#0x2e
        MOV       R2,A
        CLR       A
        ADDC      A,?V1
        MOV       R3,A
        LCALL     `??sAddrExtCpy::?relay`; Banked call to: sAddrExtCpy
// 1591       pBuf += Z_EXTADDR_LEN;
        MOV       A,R6
        ADD       A,#0x8
        MOV       R6,A
        JNC       ??bdbTL_ProcessInCmd_NwkStartReq_12
        INC       R7
// 1592 
// 1593       pReq->initiatorNwkAddr = BUILD_UINT16( pBuf[0], pBuf[1] );
??bdbTL_ProcessInCmd_NwkStartReq_12:
        MOV       DPL,R6
        MOV       DPH,R7
        MOVX      A,@DPTR
        MOV       R2,A
        MOV       R3,#0x0
        MOV       DPL,R6
        MOV       DPH,R7
        INC       DPTR
        MOVX      A,@DPTR
        MOV       R0,A
        MOV       R1,#0x0
        CLR       A
        XCH       A,R0
        MOV       R1,A
        MOV       A,R2
        ADD       A,R0
        MOV       R0,A
        MOV       A,R3
        ADDC      A,R1
        MOV       R1,A
        MOV       A,?V0
        ADD       A,#0x36
        MOV       DPL,A
        CLR       A
        ADDC      A,?V1
        MOV       DPH,A
        MOV       A,R0
        MOVX      @DPTR,A
        INC       DPTR
        MOV       A,R1
        MOVX      @DPTR,A
// 1594 
// 1595       status = pInterPANCBs->pfnNwkStartReq( &(pInMsg->msg->srcAddr), pReq,
// 1596                                              pInMsg->hdr.transSeqNum );
        ; Setup parameters for indirect call
        MOV       DPL,?V8
        MOV       DPH,?V9
        INC       DPTR
        INC       DPTR
        INC       DPTR
        INC       DPTR
        INC       DPTR
        INC       DPTR
        MOVX      A,@DPTR
        MOV       R1,A
        MOV       R4,?V0
        MOV       R5,?V1
        MOV       DPL,?V8
        MOV       DPH,?V9
        MOVX      A,@DPTR
        ADD       A,#0x6
        MOV       R2,A
        INC       DPTR
        MOVX      A,@DPTR
        ADDC      A,#0x0
        MOV       R3,A
        MOV       DPTR,#pInterPANCBs
        MOVX      A,@DPTR
        MOV       R0,A
        INC       DPTR
        MOVX      A,@DPTR
        XCH       A,R0
        ADD       A,#0x8
        MOV       DPL,A
        XCH       A,R0
        ADDC      A,#0x0
        MOV       DPH,A
        MOVX      A,@DPTR
        MOV       R0,A
        INC       DPTR
        MOVX      A,@DPTR
        MOV       DPH,A
        MOV       DPL,R0
        LCALL     ?CALL_IND
        MOV       A,R1
        MOV       ?V2,A
// 1597 
// 1598       zcl_mem_free( pReq );
        ; Setup parameters for call to function osal_mem_free
        MOV       R2,?V0
        MOV       R3,?V1
        LCALL     `??osal_mem_free::?relay`; Banked call to: osal_mem_free
// 1599     }
// 1600   }
// 1601 
// 1602   return ( status );
??bdbTL_ProcessInCmd_NwkStartReq_0:
        MOV       R1,?V2
        MOV       R7,#0xa
        LJMP      ?BANKED_LEAVE_XDATA
// 1603 }
          CFI EndBlock cfiBlock32
// 1604 
// 1605 /*********************************************************************
// 1606  * @fn      bdbTL_ParseInCmd_NwkJoinReq
// 1607  *
// 1608  * @brief   Parse in the received Network Router/End Device Join Request command.
// 1609  *
// 1610  * @param   pBuf - pointer to the incoming message
// 1611  *
// 1612  * @return  void
// 1613  */

        RSEG BANKED_CODE:HUGECODE:NOROOT(0)
// 1614 static void bdbTL_ParseInCmd_NwkJoinReq( uint8 *pBuf, bdbTLNwkJoinReq_t *pReq )
bdbTL_ParseInCmd_NwkJoinReq:
          CFI Block cfiBlock33 Using cfiCommon0
          CFI Function bdbTL_ParseInCmd_NwkJoinReq
        CODE
// 1615 {
        FUNCALL bdbTL_ParseInCmd_NwkJoinReq, osal_build_uint32
        LOCFRAME ISTACK, 0, STACK
        LOCFRAME PSTACK, 0, STACK
        LOCFRAME XSTACK, 15, STACK
        LOCFRAME IOVERLAY, 0, STATIC
        LOCFRAME DOVERLAY, 0, STATIC
        ARGFRAME ISTACK, 0, STACK
        ARGFRAME PSTACK, 0, STACK
        ARGFRAME XSTACK, 15, STACK
        ARGFRAME IOVERLAY, 0, STATIC
        ARGFRAME DOVERLAY, 0, STATIC
        FUNCALL bdbTL_ParseInCmd_NwkJoinReq, sAddrExtCpy
        LOCFRAME ISTACK, 0, STACK
        LOCFRAME PSTACK, 0, STACK
        LOCFRAME XSTACK, 15, STACK
        LOCFRAME IOVERLAY, 0, STATIC
        LOCFRAME DOVERLAY, 0, STATIC
        ARGFRAME ISTACK, 0, STACK
        ARGFRAME PSTACK, 0, STACK
        ARGFRAME XSTACK, 15, STACK
        ARGFRAME IOVERLAY, 0, STATIC
        ARGFRAME DOVERLAY, 0, STATIC
        FUNCALL bdbTL_ParseInCmd_NwkJoinReq, osal_memcpy
        LOCFRAME ISTACK, 0, STACK
        LOCFRAME PSTACK, 0, STACK
        LOCFRAME XSTACK, 18, STACK
        LOCFRAME IOVERLAY, 0, STATIC
        LOCFRAME DOVERLAY, 0, STATIC
        ARGFRAME ISTACK, 0, STACK
        ARGFRAME PSTACK, 0, STACK
        ARGFRAME XSTACK, 18, STACK
        ARGFRAME IOVERLAY, 0, STATIC
        ARGFRAME DOVERLAY, 0, STATIC
        REQUIRE ?V0
        REQUIRE ?V1
        REQUIRE ?V4
        REQUIRE ?V5
        REQUIRE ?V6
        MOV       A,#-0xf
        LCALL     ?BANKED_ENTER_XDATA
          CFI DPH0 load(1, XDATA, add(CFA_XSP16, literal(-1)))
          CFI DPL0 load(1, XDATA, add(CFA_XSP16, literal(-2)))
          CFI ?BRET_EXT load(1, XDATA, add(CFA_XSP16, literal(-3)))
          CFI ?RET_HIGH load(1, XDATA, add(CFA_XSP16, literal(-4)))
          CFI ?RET_LOW load(1, XDATA, add(CFA_XSP16, literal(-5)))
          CFI R7 load(1, XDATA, add(CFA_XSP16, literal(-6)))
          CFI V6 load(1, XDATA, add(CFA_XSP16, literal(-7)))
          CFI V5 load(1, XDATA, add(CFA_XSP16, literal(-8)))
          CFI V4 load(1, XDATA, add(CFA_XSP16, literal(-9)))
          CFI V3 load(1, XDATA, add(CFA_XSP16, literal(-10)))
          CFI V2 load(1, XDATA, add(CFA_XSP16, literal(-11)))
          CFI V1 load(1, XDATA, add(CFA_XSP16, literal(-12)))
          CFI V0 load(1, XDATA, add(CFA_XSP16, literal(-13)))
          CFI VB load(1, XDATA, add(CFA_XSP16, literal(-14)))
          CFI R6 load(1, XDATA, add(CFA_XSP16, literal(-15)))
          CFI CFA_SP SP+0
          CFI CFA_XSP16 add(XSP16, 15)
        ; Saved register size: 15
        ; Auto size: 0
        MOV       A,R2
        MOV       R6,A
        MOV       A,R3
        MOV       R7,A
        MOV       ?V0,R4
        MOV       ?V1,R5
// 1616   pReq->transID = zcl_build_uint32( pBuf, 4 );
        ; Setup parameters for call to function osal_build_uint32
        MOV       R1,#0x4
        MOV       A,R6
        MOV       R2,A
        MOV       A,R7
        MOV       R3,A
        LCALL     `??osal_build_uint32::?relay`; Banked call to: osal_build_uint32
        MOV       A,R2
        MOV       R0,A
        MOV       A,R3
        MOV       R1,A
        MOV       A,R4
        MOV       R2,A
        MOV       A,R5
        MOV       R3,A
        MOV       DPL,?V0
        MOV       DPH,?V1
        LCALL     ?XSTORE_R0123
// 1617   pBuf += 4;
        MOV       A,R6
        ADD       A,#0x4
        MOV       R6,A
        JNC       ??bdbTL_ParseInCmd_NwkJoinReq_0
        INC       R7
// 1618 
// 1619   zcl_cpyExtAddr( pReq->nwkParams.extendedPANID, pBuf );
??bdbTL_ParseInCmd_NwkJoinReq_0:
        ; Setup parameters for call to function sAddrExtCpy
        MOV       A,R6
        MOV       R4,A
        MOV       A,R7
        MOV       R5,A
        MOV       A,?V0
        ADD       A,#0x4
        MOV       R2,A
        CLR       A
        ADDC      A,?V1
        MOV       R3,A
        LCALL     `??sAddrExtCpy::?relay`; Banked call to: sAddrExtCpy
// 1620   pBuf += Z_EXTADDR_LEN;
        MOV       A,R6
        ADD       A,#0x8
        MOV       R6,A
        JNC       ??bdbTL_ParseInCmd_NwkJoinReq_1
        INC       R7
// 1621 
// 1622   pReq->nwkParams.keyIndex = *pBuf++;
??bdbTL_ParseInCmd_NwkJoinReq_1:
        MOV       DPL,R6
        MOV       DPH,R7
        MOVX      A,@DPTR
        PUSH      A
          CFI CFA_SP SP+-1
        MOV       A,?V0
        ADD       A,#0xc
        MOV       DPL,A
        CLR       A
        ADDC      A,?V1
        MOV       DPH,A
        POP       A
          CFI CFA_SP SP+0
        MOVX      @DPTR,A
        MOV       DPL,R6
        MOV       DPH,R7
        INC       DPTR
        MOV       R6,DPL
        MOV       R7,DPH
// 1623 
// 1624   zcl_memcpy( pReq->nwkParams.nwkKey, pBuf, SEC_KEY_LEN );
        ; Setup parameters for call to function osal_memcpy
        MOV       ?V4,R6
        MOV       ?V5,R7
        MOV       ?V6,#0x0
        MOV       R0,#?V4
        LCALL     ?PUSH_XSTACK_I_THREE
          CFI CFA_XSP16 add(XSP16, 18)
        MOV       R4,#0x10
        MOV       R5,#0x0
        MOV       A,?V0
        ADD       A,#0xd
        MOV       R2,A
        CLR       A
        ADDC      A,?V1
        MOV       R3,A
        LCALL     `??osal_memcpy::?relay`; Banked call to: osal_memcpy
        MOV       A,#0x3
        LCALL     ?DEALLOC_XSTACK8
          CFI CFA_XSP16 add(XSP16, 15)
// 1625   pBuf += SEC_KEY_LEN;
        MOV       A,R6
        ADD       A,#0x10
        MOV       R6,A
        JNC       ??bdbTL_ParseInCmd_NwkJoinReq_2
        INC       R7
// 1626 
// 1627   pReq->nwkUpdateId = *pBuf++;
??bdbTL_ParseInCmd_NwkJoinReq_2:
        MOV       DPL,R6
        MOV       DPH,R7
        MOVX      A,@DPTR
        PUSH      A
          CFI CFA_SP SP+-1
        MOV       A,?V0
        ADD       A,#0x2e
        MOV       DPL,A
        CLR       A
        ADDC      A,?V1
        MOV       DPH,A
        POP       A
          CFI CFA_SP SP+0
        MOVX      @DPTR,A
        MOV       DPL,R6
        MOV       DPH,R7
        INC       DPTR
        MOV       R6,DPL
        MOV       R7,DPH
// 1628   pReq->nwkParams.logicalChannel = *pBuf++;
        MOV       DPL,R6
        MOV       DPH,R7
        MOVX      A,@DPTR
        PUSH      A
          CFI CFA_SP SP+-1
        MOV       A,?V0
        ADD       A,#0x1d
        MOV       DPL,A
        CLR       A
        ADDC      A,?V1
        MOV       DPH,A
        POP       A
          CFI CFA_SP SP+0
        MOVX      @DPTR,A
        MOV       DPL,R6
        MOV       DPH,R7
        INC       DPTR
        MOV       R6,DPL
        MOV       R7,DPH
// 1629 
// 1630   pReq->nwkParams.panId = BUILD_UINT16( pBuf[0], pBuf[1] );
        MOV       DPL,R6
        MOV       DPH,R7
        MOVX      A,@DPTR
        MOV       R2,A
        MOV       R3,#0x0
        MOV       DPL,R6
        MOV       DPH,R7
        INC       DPTR
        MOVX      A,@DPTR
        MOV       R0,A
        MOV       R1,#0x0
        CLR       A
        XCH       A,R0
        MOV       R1,A
        MOV       A,R2
        ADD       A,R0
        MOV       R0,A
        MOV       A,R3
        ADDC      A,R1
        MOV       R1,A
        MOV       A,?V0
        ADD       A,#0x1e
        MOV       DPL,A
        CLR       A
        ADDC      A,?V1
        MOV       DPH,A
        MOV       A,R0
        MOVX      @DPTR,A
        INC       DPTR
        MOV       A,R1
        MOVX      @DPTR,A
// 1631   pBuf += 2;
        MOV       A,R6
        ADD       A,#0x2
        MOV       R6,A
        JNC       ??bdbTL_ParseInCmd_NwkJoinReq_3
        INC       R7
// 1632 
// 1633   pReq->nwkParams.nwkAddr = BUILD_UINT16( pBuf[0], pBuf[1] );
??bdbTL_ParseInCmd_NwkJoinReq_3:
        MOV       DPL,R6
        MOV       DPH,R7
        MOVX      A,@DPTR
        MOV       R2,A
        MOV       R3,#0x0
        MOV       DPL,R6
        MOV       DPH,R7
        INC       DPTR
        MOVX      A,@DPTR
        MOV       R0,A
        MOV       R1,#0x0
        CLR       A
        XCH       A,R0
        MOV       R1,A
        MOV       A,R2
        ADD       A,R0
        MOV       R0,A
        MOV       A,R3
        ADDC      A,R1
        MOV       R1,A
        MOV       A,?V0
        ADD       A,#0x20
        MOV       DPL,A
        CLR       A
        ADDC      A,?V1
        MOV       DPH,A
        MOV       A,R0
        MOVX      @DPTR,A
        INC       DPTR
        MOV       A,R1
        MOVX      @DPTR,A
// 1634   pBuf += 2;
        MOV       A,R6
        ADD       A,#0x2
        MOV       R6,A
        JNC       ??bdbTL_ParseInCmd_NwkJoinReq_4
        INC       R7
// 1635 
// 1636   pReq->nwkParams.grpIDsBegin = BUILD_UINT16( pBuf[0], pBuf[1] );
??bdbTL_ParseInCmd_NwkJoinReq_4:
        MOV       DPL,R6
        MOV       DPH,R7
        MOVX      A,@DPTR
        MOV       R2,A
        MOV       R3,#0x0
        MOV       DPL,R6
        MOV       DPH,R7
        INC       DPTR
        MOVX      A,@DPTR
        MOV       R0,A
        MOV       R1,#0x0
        CLR       A
        XCH       A,R0
        MOV       R1,A
        MOV       A,R2
        ADD       A,R0
        MOV       R0,A
        MOV       A,R3
        ADDC      A,R1
        MOV       R1,A
        MOV       A,?V0
        ADD       A,#0x22
        MOV       DPL,A
        CLR       A
        ADDC      A,?V1
        MOV       DPH,A
        MOV       A,R0
        MOVX      @DPTR,A
        INC       DPTR
        MOV       A,R1
        MOVX      @DPTR,A
// 1637   pBuf += 2;
        MOV       A,R6
        ADD       A,#0x2
        MOV       R6,A
        JNC       ??bdbTL_ParseInCmd_NwkJoinReq_5
        INC       R7
// 1638 
// 1639   pReq->nwkParams.grpIDsEnd = BUILD_UINT16( pBuf[0], pBuf[1] );
??bdbTL_ParseInCmd_NwkJoinReq_5:
        MOV       DPL,R6
        MOV       DPH,R7
        MOVX      A,@DPTR
        MOV       R2,A
        MOV       R3,#0x0
        MOV       DPL,R6
        MOV       DPH,R7
        INC       DPTR
        MOVX      A,@DPTR
        MOV       R0,A
        MOV       R1,#0x0
        CLR       A
        XCH       A,R0
        MOV       R1,A
        MOV       A,R2
        ADD       A,R0
        MOV       R0,A
        MOV       A,R3
        ADDC      A,R1
        MOV       R1,A
        MOV       A,?V0
        ADD       A,#0x24
        MOV       DPL,A
        CLR       A
        ADDC      A,?V1
        MOV       DPH,A
        MOV       A,R0
        MOVX      @DPTR,A
        INC       DPTR
        MOV       A,R1
        MOVX      @DPTR,A
// 1640   pBuf += 2;
        MOV       A,R6
        ADD       A,#0x2
        MOV       R6,A
        JNC       ??bdbTL_ParseInCmd_NwkJoinReq_6
        INC       R7
// 1641 
// 1642   pReq->nwkParams.freeNwkAddrBegin = BUILD_UINT16( pBuf[0], pBuf[1] );
??bdbTL_ParseInCmd_NwkJoinReq_6:
        MOV       DPL,R6
        MOV       DPH,R7
        MOVX      A,@DPTR
        MOV       R2,A
        MOV       R3,#0x0
        MOV       DPL,R6
        MOV       DPH,R7
        INC       DPTR
        MOVX      A,@DPTR
        MOV       R0,A
        MOV       R1,#0x0
        CLR       A
        XCH       A,R0
        MOV       R1,A
        MOV       A,R2
        ADD       A,R0
        MOV       R0,A
        MOV       A,R3
        ADDC      A,R1
        MOV       R1,A
        MOV       A,?V0
        ADD       A,#0x26
        MOV       DPL,A
        CLR       A
        ADDC      A,?V1
        MOV       DPH,A
        MOV       A,R0
        MOVX      @DPTR,A
        INC       DPTR
        MOV       A,R1
        MOVX      @DPTR,A
// 1643   pBuf += 2;
        MOV       A,R6
        ADD       A,#0x2
        MOV       R6,A
        JNC       ??bdbTL_ParseInCmd_NwkJoinReq_7
        INC       R7
// 1644 
// 1645   pReq->nwkParams.freeNwkAddrEnd = BUILD_UINT16( pBuf[0], pBuf[1] );
??bdbTL_ParseInCmd_NwkJoinReq_7:
        MOV       DPL,R6
        MOV       DPH,R7
        MOVX      A,@DPTR
        MOV       R2,A
        MOV       R3,#0x0
        MOV       DPL,R6
        MOV       DPH,R7
        INC       DPTR
        MOVX      A,@DPTR
        MOV       R0,A
        MOV       R1,#0x0
        CLR       A
        XCH       A,R0
        MOV       R1,A
        MOV       A,R2
        ADD       A,R0
        MOV       R0,A
        MOV       A,R3
        ADDC      A,R1
        MOV       R1,A
        MOV       A,?V0
        ADD       A,#0x28
        MOV       DPL,A
        CLR       A
        ADDC      A,?V1
        MOV       DPH,A
        MOV       A,R0
        MOVX      @DPTR,A
        INC       DPTR
        MOV       A,R1
        MOVX      @DPTR,A
// 1646   pBuf += 2;
        MOV       A,R6
        ADD       A,#0x2
        MOV       R6,A
        JNC       ??bdbTL_ParseInCmd_NwkJoinReq_8
        INC       R7
// 1647 
// 1648   pReq->nwkParams.freeGrpIDBegin = BUILD_UINT16( pBuf[0], pBuf[1] );
??bdbTL_ParseInCmd_NwkJoinReq_8:
        MOV       DPL,R6
        MOV       DPH,R7
        MOVX      A,@DPTR
        MOV       R2,A
        MOV       R3,#0x0
        MOV       DPL,R6
        MOV       DPH,R7
        INC       DPTR
        MOVX      A,@DPTR
        MOV       R0,A
        MOV       R1,#0x0
        CLR       A
        XCH       A,R0
        MOV       R1,A
        MOV       A,R2
        ADD       A,R0
        MOV       R0,A
        MOV       A,R3
        ADDC      A,R1
        MOV       R1,A
        MOV       A,?V0
        ADD       A,#0x2a
        MOV       DPL,A
        CLR       A
        ADDC      A,?V1
        MOV       DPH,A
        MOV       A,R0
        MOVX      @DPTR,A
        INC       DPTR
        MOV       A,R1
        MOVX      @DPTR,A
// 1649   pBuf += 2;
        MOV       A,R6
        ADD       A,#0x2
        MOV       R6,A
        JNC       ??bdbTL_ParseInCmd_NwkJoinReq_9
        INC       R7
// 1650 
// 1651   pReq->nwkParams.freeGrpIDEnd = BUILD_UINT16( pBuf[0], pBuf[1] );
??bdbTL_ParseInCmd_NwkJoinReq_9:
        MOV       DPL,R6
        MOV       DPH,R7
        MOVX      A,@DPTR
        MOV       R2,A
        MOV       R3,#0x0
        MOV       DPL,R6
        MOV       DPH,R7
        INC       DPTR
        MOVX      A,@DPTR
        MOV       R0,A
        MOV       R1,#0x0
        CLR       A
        XCH       A,R0
        MOV       R1,A
        MOV       A,R2
        ADD       A,R0
        MOV       R0,A
        MOV       A,R3
        ADDC      A,R1
        MOV       R1,A
        MOV       A,?V0
        ADD       A,#0x2c
        MOV       DPL,A
        CLR       A
        ADDC      A,?V1
        MOV       DPH,A
        MOV       A,R0
        MOVX      @DPTR,A
        INC       DPTR
        MOV       A,R1
        MOVX      @DPTR,A
// 1652 }
        MOV       R7,#0x7
        LJMP      ?BANKED_LEAVE_XDATA
          CFI EndBlock cfiBlock33
// 1653 
// 1654 /*********************************************************************
// 1655  * @fn      bdbTL_ProcessInCmd_NwkJoinRtrReq
// 1656  *
// 1657  * @brief   Process in the received Network Join Router Request command.
// 1658  *
// 1659  * @param   pInMsg - pointer to the incoming message
// 1660  *
// 1661  * @return  ZStatus_t
// 1662  */

        RSEG BANKED_CODE:HUGECODE:NOROOT(0)
// 1663 static ZStatus_t bdbTL_ProcessInCmd_NwkJoinRtrReq( zclIncoming_t *pInMsg )
bdbTL_ProcessInCmd_NwkJoinRtrReq:
          CFI Block cfiBlock34 Using cfiCommon0
          CFI Function bdbTL_ProcessInCmd_NwkJoinRtrReq
        CODE
// 1664 {
        FUNCALL bdbTL_ProcessInCmd_NwkJoinRtrReq, osal_mem_alloc
        LOCFRAME ISTACK, 0, STACK
        LOCFRAME PSTACK, 0, STACK
        LOCFRAME XSTACK, 14, STACK
        LOCFRAME IOVERLAY, 0, STATIC
        LOCFRAME DOVERLAY, 0, STATIC
        ARGFRAME ISTACK, 0, STACK
        ARGFRAME PSTACK, 0, STACK
        ARGFRAME XSTACK, 14, STACK
        ARGFRAME IOVERLAY, 0, STATIC
        ARGFRAME DOVERLAY, 0, STATIC
        FUNCALL bdbTL_ProcessInCmd_NwkJoinRtrReq, bdbTL_ParseInCmd_NwkJoinReq
        LOCFRAME ISTACK, 0, STACK
        LOCFRAME PSTACK, 0, STACK
        LOCFRAME XSTACK, 14, STACK
        LOCFRAME IOVERLAY, 0, STATIC
        LOCFRAME DOVERLAY, 0, STATIC
        ARGFRAME ISTACK, 0, STACK
        ARGFRAME PSTACK, 0, STACK
        ARGFRAME XSTACK, 14, STACK
        ARGFRAME IOVERLAY, 0, STATIC
        ARGFRAME DOVERLAY, 0, STATIC
        FUNCALL bdbTL_ProcessInCmd_NwkJoinRtrReq, osal_mem_free
        LOCFRAME ISTACK, 0, STACK
        LOCFRAME PSTACK, 0, STACK
        LOCFRAME XSTACK, 14, STACK
        LOCFRAME IOVERLAY, 0, STATIC
        LOCFRAME DOVERLAY, 0, STATIC
        ARGFRAME ISTACK, 0, STACK
        ARGFRAME PSTACK, 0, STACK
        ARGFRAME XSTACK, 14, STACK
        ARGFRAME IOVERLAY, 0, STATIC
        ARGFRAME DOVERLAY, 0, STATIC
        REQUIRE ?V0
        REQUIRE ?V1
        REQUIRE ?V2
        REQUIRE ?V4
        REQUIRE ?V5
        MOV       A,#-0xe
        LCALL     ?BANKED_ENTER_XDATA
          CFI DPH0 load(1, XDATA, add(CFA_XSP16, literal(-1)))
          CFI DPL0 load(1, XDATA, add(CFA_XSP16, literal(-2)))
          CFI ?BRET_EXT load(1, XDATA, add(CFA_XSP16, literal(-3)))
          CFI ?RET_HIGH load(1, XDATA, add(CFA_XSP16, literal(-4)))
          CFI ?RET_LOW load(1, XDATA, add(CFA_XSP16, literal(-5)))
          CFI R7 load(1, XDATA, add(CFA_XSP16, literal(-6)))
          CFI V5 load(1, XDATA, add(CFA_XSP16, literal(-7)))
          CFI V4 load(1, XDATA, add(CFA_XSP16, literal(-8)))
          CFI V3 load(1, XDATA, add(CFA_XSP16, literal(-9)))
          CFI V2 load(1, XDATA, add(CFA_XSP16, literal(-10)))
          CFI V1 load(1, XDATA, add(CFA_XSP16, literal(-11)))
          CFI V0 load(1, XDATA, add(CFA_XSP16, literal(-12)))
          CFI VB load(1, XDATA, add(CFA_XSP16, literal(-13)))
          CFI R6 load(1, XDATA, add(CFA_XSP16, literal(-14)))
          CFI CFA_SP SP+0
          CFI CFA_XSP16 add(XSP16, 14)
        ; Saved register size: 14
        ; Auto size: 0
        MOV       A,R2
        MOV       R6,A
        MOV       A,R3
        MOV       R7,A
// 1665   ZStatus_t status = ZSuccess;
        MOV       ?V2,#0x0
// 1666 
// 1667   if ( pInterPANCBs->pfnNwkJoinRtrReq )
        MOV       DPTR,#pInterPANCBs
        MOVX      A,@DPTR
        MOV       R0,A
        INC       DPTR
        MOVX      A,@DPTR
        XCH       A,R0
        ADD       A,#0xa
        MOV       DPL,A
        XCH       A,R0
        ADDC      A,#0x0
        MOV       DPH,A
        MOVX      A,@DPTR
        MOV       R0,A
        INC       DPTR
        MOVX      A,@DPTR
        MOV       R1,A
        MOV       A,R0
        ORL       A,R1
        JZ        ??bdbTL_ProcessInCmd_NwkJoinRtrReq_0
// 1668   {
// 1669     bdbTLNwkJoinReq_t *pReq;
// 1670 
// 1671     pReq = (bdbTLNwkJoinReq_t *)zcl_mem_alloc( sizeof( bdbTLNwkJoinReq_t ) );
        ; Setup parameters for call to function osal_mem_alloc
        MOV       R2,#0x2f
        MOV       R3,#0x0
        LCALL     `??osal_mem_alloc::?relay`; Banked call to: osal_mem_alloc
        MOV       ?V4,R2
        MOV       ?V5,R3
        MOV       ?V0,?V4
        MOV       ?V1,?V5
// 1672     if ( pReq )
        MOV       A,?V0
        ORL       A,?V1
        JZ        ??bdbTL_ProcessInCmd_NwkJoinRtrReq_0
// 1673     {
// 1674       bdbTL_ParseInCmd_NwkJoinReq( pInMsg->pData, pReq );
        ; Setup parameters for call to function bdbTL_ParseInCmd_NwkJoinReq
        MOV       R4,?V0
        MOV       R5,?V1
        MOV       DPL,R6
        MOV       DPH,R7
        INC       DPTR
        INC       DPTR
        INC       DPTR
        INC       DPTR
        INC       DPTR
        INC       DPTR
        INC       DPTR
        INC       DPTR
        MOVX      A,@DPTR
        MOV       R2,A
        INC       DPTR
        MOVX      A,@DPTR
        MOV       R3,A
        LCALL     `??bdbTL_ParseInCmd_NwkJoinReq::?relay`; Banked call to: bdbTL_ParseInCmd_NwkJoinReq
// 1675 
// 1676       status = pInterPANCBs->pfnNwkJoinRtrReq( &(pInMsg->msg->srcAddr), pReq,
// 1677                                                pInMsg->hdr.transSeqNum  );
        ; Setup parameters for indirect call
        MOV       DPL,R6
        MOV       DPH,R7
        INC       DPTR
        INC       DPTR
        INC       DPTR
        INC       DPTR
        INC       DPTR
        INC       DPTR
        MOVX      A,@DPTR
        MOV       R1,A
        MOV       R4,?V0
        MOV       R5,?V1
        MOV       DPL,R6
        MOV       DPH,R7
        MOVX      A,@DPTR
        ADD       A,#0x6
        MOV       R2,A
        INC       DPTR
        MOVX      A,@DPTR
        ADDC      A,#0x0
        MOV       R3,A
        MOV       DPTR,#pInterPANCBs
        MOVX      A,@DPTR
        MOV       R0,A
        INC       DPTR
        MOVX      A,@DPTR
        XCH       A,R0
        ADD       A,#0xa
        MOV       DPL,A
        XCH       A,R0
        ADDC      A,#0x0
        MOV       DPH,A
        MOVX      A,@DPTR
        MOV       R0,A
        INC       DPTR
        MOVX      A,@DPTR
        MOV       DPH,A
        MOV       DPL,R0
        LCALL     ?CALL_IND
        MOV       A,R1
        MOV       ?V2,A
// 1678       zcl_mem_free( pReq );
        ; Setup parameters for call to function osal_mem_free
        MOV       R2,?V0
        MOV       R3,?V1
        LCALL     `??osal_mem_free::?relay`; Banked call to: osal_mem_free
// 1679     }
// 1680   }
// 1681 
// 1682   return ( status );
??bdbTL_ProcessInCmd_NwkJoinRtrReq_0:
        MOV       R1,?V2
        MOV       R7,#0x6
        LJMP      ?BANKED_LEAVE_XDATA
// 1683 }
          CFI EndBlock cfiBlock34
// 1684 
// 1685 /*********************************************************************
// 1686  * @fn      bdbTL_ProcessInCmd_NwkJoinEDReq
// 1687  *
// 1688  * @brief   Process in the received Network Join End Device  Request command.
// 1689  *
// 1690  * @param   pInMsg - pointer to the incoming message
// 1691  *
// 1692  * @return  ZStatus_t
// 1693  */

        RSEG BANKED_CODE:HUGECODE:NOROOT(0)
// 1694 static ZStatus_t bdbTL_ProcessInCmd_NwkJoinEDReq( zclIncoming_t *pInMsg )
bdbTL_ProcessInCmd_NwkJoinEDReq:
          CFI Block cfiBlock35 Using cfiCommon0
          CFI Function bdbTL_ProcessInCmd_NwkJoinEDReq
        CODE
// 1695 {
        FUNCALL bdbTL_ProcessInCmd_NwkJoinEDReq, osal_mem_alloc
        LOCFRAME ISTACK, 0, STACK
        LOCFRAME PSTACK, 0, STACK
        LOCFRAME XSTACK, 14, STACK
        LOCFRAME IOVERLAY, 0, STATIC
        LOCFRAME DOVERLAY, 0, STATIC
        ARGFRAME ISTACK, 0, STACK
        ARGFRAME PSTACK, 0, STACK
        ARGFRAME XSTACK, 14, STACK
        ARGFRAME IOVERLAY, 0, STATIC
        ARGFRAME DOVERLAY, 0, STATIC
        FUNCALL bdbTL_ProcessInCmd_NwkJoinEDReq, bdbTL_ParseInCmd_NwkJoinReq
        LOCFRAME ISTACK, 0, STACK
        LOCFRAME PSTACK, 0, STACK
        LOCFRAME XSTACK, 14, STACK
        LOCFRAME IOVERLAY, 0, STATIC
        LOCFRAME DOVERLAY, 0, STATIC
        ARGFRAME ISTACK, 0, STACK
        ARGFRAME PSTACK, 0, STACK
        ARGFRAME XSTACK, 14, STACK
        ARGFRAME IOVERLAY, 0, STATIC
        ARGFRAME DOVERLAY, 0, STATIC
        FUNCALL bdbTL_ProcessInCmd_NwkJoinEDReq, osal_mem_free
        LOCFRAME ISTACK, 0, STACK
        LOCFRAME PSTACK, 0, STACK
        LOCFRAME XSTACK, 14, STACK
        LOCFRAME IOVERLAY, 0, STATIC
        LOCFRAME DOVERLAY, 0, STATIC
        ARGFRAME ISTACK, 0, STACK
        ARGFRAME PSTACK, 0, STACK
        ARGFRAME XSTACK, 14, STACK
        ARGFRAME IOVERLAY, 0, STATIC
        ARGFRAME DOVERLAY, 0, STATIC
        REQUIRE ?V0
        REQUIRE ?V1
        REQUIRE ?V2
        REQUIRE ?V4
        REQUIRE ?V5
        MOV       A,#-0xe
        LCALL     ?BANKED_ENTER_XDATA
          CFI DPH0 load(1, XDATA, add(CFA_XSP16, literal(-1)))
          CFI DPL0 load(1, XDATA, add(CFA_XSP16, literal(-2)))
          CFI ?BRET_EXT load(1, XDATA, add(CFA_XSP16, literal(-3)))
          CFI ?RET_HIGH load(1, XDATA, add(CFA_XSP16, literal(-4)))
          CFI ?RET_LOW load(1, XDATA, add(CFA_XSP16, literal(-5)))
          CFI R7 load(1, XDATA, add(CFA_XSP16, literal(-6)))
          CFI V5 load(1, XDATA, add(CFA_XSP16, literal(-7)))
          CFI V4 load(1, XDATA, add(CFA_XSP16, literal(-8)))
          CFI V3 load(1, XDATA, add(CFA_XSP16, literal(-9)))
          CFI V2 load(1, XDATA, add(CFA_XSP16, literal(-10)))
          CFI V1 load(1, XDATA, add(CFA_XSP16, literal(-11)))
          CFI V0 load(1, XDATA, add(CFA_XSP16, literal(-12)))
          CFI VB load(1, XDATA, add(CFA_XSP16, literal(-13)))
          CFI R6 load(1, XDATA, add(CFA_XSP16, literal(-14)))
          CFI CFA_SP SP+0
          CFI CFA_XSP16 add(XSP16, 14)
        ; Saved register size: 14
        ; Auto size: 0
        MOV       A,R2
        MOV       R6,A
        MOV       A,R3
        MOV       R7,A
// 1696   ZStatus_t status = ZSuccess;
        MOV       ?V2,#0x0
// 1697 
// 1698   if ( pInterPANCBs->pfnNwkJoinEDReq )
        MOV       DPTR,#pInterPANCBs
        MOVX      A,@DPTR
        MOV       R0,A
        INC       DPTR
        MOVX      A,@DPTR
        XCH       A,R0
        ADD       A,#0xc
        MOV       DPL,A
        XCH       A,R0
        ADDC      A,#0x0
        MOV       DPH,A
        MOVX      A,@DPTR
        MOV       R0,A
        INC       DPTR
        MOVX      A,@DPTR
        MOV       R1,A
        MOV       A,R0
        ORL       A,R1
        JZ        ??bdbTL_ProcessInCmd_NwkJoinEDReq_0
// 1699   {
// 1700     bdbTLNwkJoinReq_t *pReq;
// 1701 
// 1702     pReq = (bdbTLNwkJoinReq_t *)zcl_mem_alloc( sizeof( bdbTLNwkJoinReq_t ) );
        ; Setup parameters for call to function osal_mem_alloc
        MOV       R2,#0x2f
        MOV       R3,#0x0
        LCALL     `??osal_mem_alloc::?relay`; Banked call to: osal_mem_alloc
        MOV       ?V4,R2
        MOV       ?V5,R3
        MOV       ?V0,?V4
        MOV       ?V1,?V5
// 1703     if ( pReq )
        MOV       A,?V0
        ORL       A,?V1
        JZ        ??bdbTL_ProcessInCmd_NwkJoinEDReq_0
// 1704     {
// 1705       bdbTL_ParseInCmd_NwkJoinReq( pInMsg->pData, pReq );
        ; Setup parameters for call to function bdbTL_ParseInCmd_NwkJoinReq
        MOV       R4,?V0
        MOV       R5,?V1
        MOV       DPL,R6
        MOV       DPH,R7
        INC       DPTR
        INC       DPTR
        INC       DPTR
        INC       DPTR
        INC       DPTR
        INC       DPTR
        INC       DPTR
        INC       DPTR
        MOVX      A,@DPTR
        MOV       R2,A
        INC       DPTR
        MOVX      A,@DPTR
        MOV       R3,A
        LCALL     `??bdbTL_ParseInCmd_NwkJoinReq::?relay`; Banked call to: bdbTL_ParseInCmd_NwkJoinReq
// 1706 
// 1707       status = pInterPANCBs->pfnNwkJoinEDReq( &(pInMsg->msg->srcAddr), pReq,
// 1708                                               pInMsg->hdr.transSeqNum );
        ; Setup parameters for indirect call
        MOV       DPL,R6
        MOV       DPH,R7
        INC       DPTR
        INC       DPTR
        INC       DPTR
        INC       DPTR
        INC       DPTR
        INC       DPTR
        MOVX      A,@DPTR
        MOV       R1,A
        MOV       R4,?V0
        MOV       R5,?V1
        MOV       DPL,R6
        MOV       DPH,R7
        MOVX      A,@DPTR
        ADD       A,#0x6
        MOV       R2,A
        INC       DPTR
        MOVX      A,@DPTR
        ADDC      A,#0x0
        MOV       R3,A
        MOV       DPTR,#pInterPANCBs
        MOVX      A,@DPTR
        MOV       R0,A
        INC       DPTR
        MOVX      A,@DPTR
        XCH       A,R0
        ADD       A,#0xc
        MOV       DPL,A
        XCH       A,R0
        ADDC      A,#0x0
        MOV       DPH,A
        MOVX      A,@DPTR
        MOV       R0,A
        INC       DPTR
        MOVX      A,@DPTR
        MOV       DPH,A
        MOV       DPL,R0
        LCALL     ?CALL_IND
        MOV       A,R1
        MOV       ?V2,A
// 1709       zcl_mem_free( pReq );
        ; Setup parameters for call to function osal_mem_free
        MOV       R2,?V0
        MOV       R3,?V1
        LCALL     `??osal_mem_free::?relay`; Banked call to: osal_mem_free
// 1710     }
// 1711   }
// 1712 
// 1713   return ( status );
??bdbTL_ProcessInCmd_NwkJoinEDReq_0:
        MOV       R1,?V2
        MOV       R7,#0x6
        LJMP      ?BANKED_LEAVE_XDATA
// 1714 }
          CFI EndBlock cfiBlock35
// 1715 
// 1716 /*********************************************************************
// 1717  * @fn      bdbTL_ProcessInCmd_NwkUpdateReq
// 1718  *
// 1719  * @brief   Process in the received Network Update Request command.
// 1720  *
// 1721  * @param   pInMsg - pointer to the incoming message
// 1722  *
// 1723  * @return  ZStatus_t
// 1724  */

        RSEG BANKED_CODE:HUGECODE:NOROOT(0)
// 1725 static ZStatus_t bdbTL_ProcessInCmd_NwkUpdateReq( zclIncoming_t *pInMsg )
bdbTL_ProcessInCmd_NwkUpdateReq:
          CFI Block cfiBlock36 Using cfiCommon0
          CFI Function bdbTL_ProcessInCmd_NwkUpdateReq
        CODE
// 1726 {
        FUNCALL bdbTL_ProcessInCmd_NwkUpdateReq, osal_mem_alloc
        LOCFRAME ISTACK, 0, STACK
        LOCFRAME PSTACK, 0, STACK
        LOCFRAME XSTACK, 16, STACK
        LOCFRAME IOVERLAY, 0, STATIC
        LOCFRAME DOVERLAY, 0, STATIC
        ARGFRAME ISTACK, 0, STACK
        ARGFRAME PSTACK, 0, STACK
        ARGFRAME XSTACK, 16, STACK
        ARGFRAME IOVERLAY, 0, STATIC
        ARGFRAME DOVERLAY, 0, STATIC
        FUNCALL bdbTL_ProcessInCmd_NwkUpdateReq, osal_build_uint32
        LOCFRAME ISTACK, 0, STACK
        LOCFRAME PSTACK, 0, STACK
        LOCFRAME XSTACK, 16, STACK
        LOCFRAME IOVERLAY, 0, STATIC
        LOCFRAME DOVERLAY, 0, STATIC
        ARGFRAME ISTACK, 0, STACK
        ARGFRAME PSTACK, 0, STACK
        ARGFRAME XSTACK, 16, STACK
        ARGFRAME IOVERLAY, 0, STATIC
        ARGFRAME DOVERLAY, 0, STATIC
        FUNCALL bdbTL_ProcessInCmd_NwkUpdateReq, sAddrExtCpy
        LOCFRAME ISTACK, 0, STACK
        LOCFRAME PSTACK, 0, STACK
        LOCFRAME XSTACK, 16, STACK
        LOCFRAME IOVERLAY, 0, STATIC
        LOCFRAME DOVERLAY, 0, STATIC
        ARGFRAME ISTACK, 0, STACK
        ARGFRAME PSTACK, 0, STACK
        ARGFRAME XSTACK, 16, STACK
        ARGFRAME IOVERLAY, 0, STATIC
        ARGFRAME DOVERLAY, 0, STATIC
        FUNCALL bdbTL_ProcessInCmd_NwkUpdateReq, osal_mem_free
        LOCFRAME ISTACK, 0, STACK
        LOCFRAME PSTACK, 0, STACK
        LOCFRAME XSTACK, 16, STACK
        LOCFRAME IOVERLAY, 0, STATIC
        LOCFRAME DOVERLAY, 0, STATIC
        ARGFRAME ISTACK, 0, STACK
        ARGFRAME PSTACK, 0, STACK
        ARGFRAME XSTACK, 16, STACK
        ARGFRAME IOVERLAY, 0, STATIC
        ARGFRAME DOVERLAY, 0, STATIC
        REQUIRE ?V0
        REQUIRE ?V1
        REQUIRE ?V2
        REQUIRE ?V4
        REQUIRE ?V5
        REQUIRE ?V6
        REQUIRE ?V7
        MOV       A,#-0x10
        LCALL     ?BANKED_ENTER_XDATA
          CFI DPH0 load(1, XDATA, add(CFA_XSP16, literal(-1)))
          CFI DPL0 load(1, XDATA, add(CFA_XSP16, literal(-2)))
          CFI ?BRET_EXT load(1, XDATA, add(CFA_XSP16, literal(-3)))
          CFI ?RET_HIGH load(1, XDATA, add(CFA_XSP16, literal(-4)))
          CFI ?RET_LOW load(1, XDATA, add(CFA_XSP16, literal(-5)))
          CFI R7 load(1, XDATA, add(CFA_XSP16, literal(-6)))
          CFI V7 load(1, XDATA, add(CFA_XSP16, literal(-7)))
          CFI V6 load(1, XDATA, add(CFA_XSP16, literal(-8)))
          CFI V5 load(1, XDATA, add(CFA_XSP16, literal(-9)))
          CFI V4 load(1, XDATA, add(CFA_XSP16, literal(-10)))
          CFI V3 load(1, XDATA, add(CFA_XSP16, literal(-11)))
          CFI V2 load(1, XDATA, add(CFA_XSP16, literal(-12)))
          CFI V1 load(1, XDATA, add(CFA_XSP16, literal(-13)))
          CFI V0 load(1, XDATA, add(CFA_XSP16, literal(-14)))
          CFI VB load(1, XDATA, add(CFA_XSP16, literal(-15)))
          CFI R6 load(1, XDATA, add(CFA_XSP16, literal(-16)))
          CFI CFA_SP SP+0
          CFI CFA_XSP16 add(XSP16, 16)
        ; Saved register size: 16
        ; Auto size: 0
        MOV       ?V4,R2
        MOV       ?V5,R3
// 1727   ZStatus_t status = ZSuccess;
        MOV       ?V2,#0x0
// 1728 
// 1729   if ( pInterPANCBs->pfnNwkUpdateReq )
        MOV       DPTR,#pInterPANCBs
        MOVX      A,@DPTR
        MOV       R0,A
        INC       DPTR
        MOVX      A,@DPTR
        XCH       A,R0
        ADD       A,#0xe
        MOV       DPL,A
        XCH       A,R0
        ADDC      A,#0x0
        MOV       DPH,A
        MOVX      A,@DPTR
        MOV       R0,A
        INC       DPTR
        MOVX      A,@DPTR
        MOV       R1,A
        MOV       A,R0
        ORL       A,R1
        JNZ       $+5
        LJMP      ??bdbTL_ProcessInCmd_NwkUpdateReq_0 & 0xFFFF
// 1730   {
// 1731     bdbTLNwkUpdateReq_t *pReq;
// 1732 
// 1733     pReq = (bdbTLNwkUpdateReq_t *)zcl_mem_alloc( sizeof( bdbTLNwkUpdateReq_t ) );
        ; Setup parameters for call to function osal_mem_alloc
        MOV       R2,#0x12
        MOV       R3,#0x0
        LCALL     `??osal_mem_alloc::?relay`; Banked call to: osal_mem_alloc
        MOV       ?V6,R2
        MOV       ?V7,R3
        MOV       ?V0,?V6
        MOV       ?V1,?V7
// 1734     if ( pReq )
        MOV       A,?V0
        ORL       A,?V1
        JNZ       $+5
        LJMP      ??bdbTL_ProcessInCmd_NwkUpdateReq_0 & 0xFFFF
// 1735     {
// 1736       uint8 *pBuf = pInMsg->pData;
        MOV       DPL,?V4
        MOV       DPH,?V5
        INC       DPTR
        INC       DPTR
        INC       DPTR
        INC       DPTR
        INC       DPTR
        INC       DPTR
        INC       DPTR
        INC       DPTR
        MOVX      A,@DPTR
        MOV       R6,A
        INC       DPTR
        MOVX      A,@DPTR
        MOV       R7,A
// 1737 
// 1738       pReq->transID = zcl_build_uint32( pBuf, 4 );
        ; Setup parameters for call to function osal_build_uint32
        MOV       R1,#0x4
        MOV       A,R6
        MOV       R2,A
        MOV       A,R7
        MOV       R3,A
        LCALL     `??osal_build_uint32::?relay`; Banked call to: osal_build_uint32
        MOV       A,R2
        MOV       R0,A
        MOV       A,R3
        MOV       R1,A
        MOV       A,R4
        MOV       R2,A
        MOV       A,R5
        MOV       R3,A
        MOV       DPL,?V0
        MOV       DPH,?V1
        LCALL     ?XSTORE_R0123
// 1739       pBuf += 4;
        MOV       A,R6
        ADD       A,#0x4
        MOV       R6,A
        JNC       ??bdbTL_ProcessInCmd_NwkUpdateReq_1
        INC       R7
// 1740 
// 1741       zcl_cpyExtAddr( pReq->extendedPANID, pBuf );
??bdbTL_ProcessInCmd_NwkUpdateReq_1:
        ; Setup parameters for call to function sAddrExtCpy
        MOV       A,R6
        MOV       R4,A
        MOV       A,R7
        MOV       R5,A
        MOV       A,?V0
        ADD       A,#0x4
        MOV       R2,A
        CLR       A
        ADDC      A,?V1
        MOV       R3,A
        LCALL     `??sAddrExtCpy::?relay`; Banked call to: sAddrExtCpy
// 1742       pBuf += Z_EXTADDR_LEN;
        MOV       A,R6
        ADD       A,#0x8
        MOV       R6,A
        JNC       ??bdbTL_ProcessInCmd_NwkUpdateReq_2
        INC       R7
// 1743 
// 1744       pReq->nwkUpdateId = *pBuf++;
??bdbTL_ProcessInCmd_NwkUpdateReq_2:
        MOV       DPL,R6
        MOV       DPH,R7
        MOVX      A,@DPTR
        PUSH      A
          CFI CFA_SP SP+-1
        MOV       A,?V0
        ADD       A,#0xc
        MOV       DPL,A
        CLR       A
        ADDC      A,?V1
        MOV       DPH,A
        POP       A
          CFI CFA_SP SP+0
        MOVX      @DPTR,A
        MOV       DPL,R6
        MOV       DPH,R7
        INC       DPTR
        MOV       R6,DPL
        MOV       R7,DPH
// 1745       pReq->logicalChannel = *pBuf++;
        MOV       DPL,R6
        MOV       DPH,R7
        MOVX      A,@DPTR
        PUSH      A
          CFI CFA_SP SP+-1
        MOV       A,?V0
        ADD       A,#0xd
        MOV       DPL,A
        CLR       A
        ADDC      A,?V1
        MOV       DPH,A
        POP       A
          CFI CFA_SP SP+0
        MOVX      @DPTR,A
        MOV       DPL,R6
        MOV       DPH,R7
        INC       DPTR
        MOV       R6,DPL
        MOV       R7,DPH
// 1746 
// 1747       pReq->PANID = BUILD_UINT16( pBuf[0], pBuf[1] );
        MOV       DPL,R6
        MOV       DPH,R7
        MOVX      A,@DPTR
        MOV       R2,A
        MOV       R3,#0x0
        MOV       DPL,R6
        MOV       DPH,R7
        INC       DPTR
        MOVX      A,@DPTR
        MOV       R0,A
        MOV       R1,#0x0
        CLR       A
        XCH       A,R0
        MOV       R1,A
        MOV       A,R2
        ADD       A,R0
        MOV       R0,A
        MOV       A,R3
        ADDC      A,R1
        MOV       R1,A
        MOV       A,?V0
        ADD       A,#0xe
        MOV       DPL,A
        CLR       A
        ADDC      A,?V1
        MOV       DPH,A
        MOV       A,R0
        MOVX      @DPTR,A
        INC       DPTR
        MOV       A,R1
        MOVX      @DPTR,A
// 1748       pBuf += 2;
        MOV       A,R6
        ADD       A,#0x2
        MOV       R6,A
        JNC       ??bdbTL_ProcessInCmd_NwkUpdateReq_3
        INC       R7
// 1749 
// 1750       pReq->nwkAddr = BUILD_UINT16( pBuf[0], pBuf[1] );
??bdbTL_ProcessInCmd_NwkUpdateReq_3:
        MOV       DPL,R6
        MOV       DPH,R7
        MOVX      A,@DPTR
        MOV       R2,A
        MOV       R3,#0x0
        MOV       DPL,R6
        MOV       DPH,R7
        INC       DPTR
        MOVX      A,@DPTR
        MOV       R0,A
        MOV       R1,#0x0
        CLR       A
        XCH       A,R0
        MOV       R1,A
        MOV       A,R2
        ADD       A,R0
        MOV       R0,A
        MOV       A,R3
        ADDC      A,R1
        MOV       R1,A
        MOV       A,?V0
        ADD       A,#0x10
        MOV       DPL,A
        CLR       A
        ADDC      A,?V1
        MOV       DPH,A
        MOV       A,R0
        MOVX      @DPTR,A
        INC       DPTR
        MOV       A,R1
        MOVX      @DPTR,A
// 1751       pBuf += 2;
        MOV       A,R6
        ADD       A,#0x2
        MOV       R6,A
        JNC       ??bdbTL_ProcessInCmd_NwkUpdateReq_4
        INC       R7
// 1752 
// 1753       status = pInterPANCBs->pfnNwkUpdateReq( &(pInMsg->msg->srcAddr), pReq );
??bdbTL_ProcessInCmd_NwkUpdateReq_4:
        ; Setup parameters for indirect call
        MOV       R4,?V0
        MOV       R5,?V1
        MOV       DPL,?V4
        MOV       DPH,?V5
        MOVX      A,@DPTR
        ADD       A,#0x6
        MOV       R2,A
        INC       DPTR
        MOVX      A,@DPTR
        ADDC      A,#0x0
        MOV       R3,A
        MOV       DPTR,#pInterPANCBs
        MOVX      A,@DPTR
        MOV       R0,A
        INC       DPTR
        MOVX      A,@DPTR
        XCH       A,R0
        ADD       A,#0xe
        MOV       DPL,A
        XCH       A,R0
        ADDC      A,#0x0
        MOV       DPH,A
        MOVX      A,@DPTR
        MOV       R0,A
        INC       DPTR
        MOVX      A,@DPTR
        MOV       DPH,A
        MOV       DPL,R0
        LCALL     ?CALL_IND
        MOV       A,R1
        MOV       ?V2,A
// 1754 
// 1755       zcl_mem_free( pReq );
        ; Setup parameters for call to function osal_mem_free
        MOV       R2,?V0
        MOV       R3,?V1
        LCALL     `??osal_mem_free::?relay`; Banked call to: osal_mem_free
// 1756     }
// 1757   }
// 1758 
// 1759   return ( status );
??bdbTL_ProcessInCmd_NwkUpdateReq_0:
        MOV       R1,?V2
        MOV       R7,#0x8
        LJMP      ?BANKED_LEAVE_XDATA
// 1760 }
          CFI EndBlock cfiBlock36
// 1761 
// 1762 /*********************************************************************
// 1763  * @fn      bdbTL_ProcessInCmd_ScanRsp
// 1764  *
// 1765  * @brief   Process in the received Scan Response command.
// 1766  *
// 1767  * @param   pInMsg - pointer to the incoming message
// 1768  *
// 1769  * @return  ZStatus_t
// 1770  */

        RSEG BANKED_CODE:HUGECODE:NOROOT(0)
// 1771 static ZStatus_t bdbTL_ProcessInCmd_ScanRsp( zclIncoming_t *pInMsg )
bdbTL_ProcessInCmd_ScanRsp:
          CFI Block cfiBlock37 Using cfiCommon0
          CFI Function bdbTL_ProcessInCmd_ScanRsp
        CODE
// 1772 {
        FUNCALL bdbTL_ProcessInCmd_ScanRsp, osal_mem_alloc
        LOCFRAME ISTACK, 0, STACK
        LOCFRAME PSTACK, 0, STACK
        LOCFRAME XSTACK, 16, STACK
        LOCFRAME IOVERLAY, 0, STATIC
        LOCFRAME DOVERLAY, 0, STATIC
        ARGFRAME ISTACK, 0, STACK
        ARGFRAME PSTACK, 0, STACK
        ARGFRAME XSTACK, 16, STACK
        ARGFRAME IOVERLAY, 0, STATIC
        ARGFRAME DOVERLAY, 0, STATIC
        FUNCALL bdbTL_ProcessInCmd_ScanRsp, osal_memset
        LOCFRAME ISTACK, 0, STACK
        LOCFRAME PSTACK, 0, STACK
        LOCFRAME XSTACK, 16, STACK
        LOCFRAME IOVERLAY, 0, STATIC
        LOCFRAME DOVERLAY, 0, STATIC
        ARGFRAME ISTACK, 0, STACK
        ARGFRAME PSTACK, 0, STACK
        ARGFRAME XSTACK, 16, STACK
        ARGFRAME IOVERLAY, 0, STATIC
        ARGFRAME DOVERLAY, 0, STATIC
        FUNCALL bdbTL_ProcessInCmd_ScanRsp, osal_build_uint32
        LOCFRAME ISTACK, 0, STACK
        LOCFRAME PSTACK, 0, STACK
        LOCFRAME XSTACK, 16, STACK
        LOCFRAME IOVERLAY, 0, STATIC
        LOCFRAME DOVERLAY, 0, STATIC
        ARGFRAME ISTACK, 0, STACK
        ARGFRAME PSTACK, 0, STACK
        ARGFRAME XSTACK, 16, STACK
        ARGFRAME IOVERLAY, 0, STATIC
        ARGFRAME DOVERLAY, 0, STATIC
        FUNCALL bdbTL_ProcessInCmd_ScanRsp, osal_build_uint32
        LOCFRAME ISTACK, 0, STACK
        LOCFRAME PSTACK, 0, STACK
        LOCFRAME XSTACK, 16, STACK
        LOCFRAME IOVERLAY, 0, STATIC
        LOCFRAME DOVERLAY, 0, STATIC
        ARGFRAME ISTACK, 0, STACK
        ARGFRAME PSTACK, 0, STACK
        ARGFRAME XSTACK, 16, STACK
        ARGFRAME IOVERLAY, 0, STATIC
        ARGFRAME DOVERLAY, 0, STATIC
        FUNCALL bdbTL_ProcessInCmd_ScanRsp, sAddrExtCpy
        LOCFRAME ISTACK, 0, STACK
        LOCFRAME PSTACK, 0, STACK
        LOCFRAME XSTACK, 16, STACK
        LOCFRAME IOVERLAY, 0, STATIC
        LOCFRAME DOVERLAY, 0, STATIC
        ARGFRAME ISTACK, 0, STACK
        ARGFRAME PSTACK, 0, STACK
        ARGFRAME XSTACK, 16, STACK
        ARGFRAME IOVERLAY, 0, STATIC
        ARGFRAME DOVERLAY, 0, STATIC
        FUNCALL bdbTL_ProcessInCmd_ScanRsp, osal_mem_free
        LOCFRAME ISTACK, 0, STACK
        LOCFRAME PSTACK, 0, STACK
        LOCFRAME XSTACK, 16, STACK
        LOCFRAME IOVERLAY, 0, STATIC
        LOCFRAME DOVERLAY, 0, STATIC
        ARGFRAME ISTACK, 0, STACK
        ARGFRAME PSTACK, 0, STACK
        ARGFRAME XSTACK, 16, STACK
        ARGFRAME IOVERLAY, 0, STATIC
        ARGFRAME DOVERLAY, 0, STATIC
        REQUIRE ?V0
        REQUIRE ?V1
        REQUIRE ?V2
        REQUIRE ?V4
        REQUIRE ?V5
        REQUIRE ?V6
        REQUIRE ?V7
        MOV       A,#-0x10
        LCALL     ?BANKED_ENTER_XDATA
          CFI DPH0 load(1, XDATA, add(CFA_XSP16, literal(-1)))
          CFI DPL0 load(1, XDATA, add(CFA_XSP16, literal(-2)))
          CFI ?BRET_EXT load(1, XDATA, add(CFA_XSP16, literal(-3)))
          CFI ?RET_HIGH load(1, XDATA, add(CFA_XSP16, literal(-4)))
          CFI ?RET_LOW load(1, XDATA, add(CFA_XSP16, literal(-5)))
          CFI R7 load(1, XDATA, add(CFA_XSP16, literal(-6)))
          CFI V7 load(1, XDATA, add(CFA_XSP16, literal(-7)))
          CFI V6 load(1, XDATA, add(CFA_XSP16, literal(-8)))
          CFI V5 load(1, XDATA, add(CFA_XSP16, literal(-9)))
          CFI V4 load(1, XDATA, add(CFA_XSP16, literal(-10)))
          CFI V3 load(1, XDATA, add(CFA_XSP16, literal(-11)))
          CFI V2 load(1, XDATA, add(CFA_XSP16, literal(-12)))
          CFI V1 load(1, XDATA, add(CFA_XSP16, literal(-13)))
          CFI V0 load(1, XDATA, add(CFA_XSP16, literal(-14)))
          CFI VB load(1, XDATA, add(CFA_XSP16, literal(-15)))
          CFI R6 load(1, XDATA, add(CFA_XSP16, literal(-16)))
          CFI CFA_SP SP+0
          CFI CFA_XSP16 add(XSP16, 16)
        ; Saved register size: 16
        ; Auto size: 0
        MOV       ?V4,R2
        MOV       ?V5,R3
// 1773   ZStatus_t status = ZSuccess;
        MOV       ?V2,#0x0
// 1774 
// 1775   if ( pInterPANCBs->pfnScanRsp )
        MOV       DPTR,#pInterPANCBs
        MOVX      A,@DPTR
        MOV       R0,A
        INC       DPTR
        MOVX      A,@DPTR
        XCH       A,R0
        ADD       A,#0x10
        MOV       DPL,A
        XCH       A,R0
        ADDC      A,#0x0
        MOV       DPH,A
        MOVX      A,@DPTR
        MOV       R0,A
        INC       DPTR
        MOVX      A,@DPTR
        MOV       R1,A
        MOV       A,R0
        ORL       A,R1
        JNZ       $+5
        LJMP      ??bdbTL_ProcessInCmd_ScanRsp_0 & 0xFFFF
// 1776   {
// 1777     bdbTLScanRsp_t *pRsp;
// 1778 
// 1779     pRsp = (bdbTLScanRsp_t *)zcl_mem_alloc( sizeof( bdbTLScanRsp_t ) );
        ; Setup parameters for call to function osal_mem_alloc
        MOV       R2,#0x26
        MOV       R3,#0x0
        LCALL     `??osal_mem_alloc::?relay`; Banked call to: osal_mem_alloc
        MOV       ?V6,R2
        MOV       ?V7,R3
        MOV       ?V0,?V6
        MOV       ?V1,?V7
// 1780     if ( pRsp )
        MOV       A,?V0
        ORL       A,?V1
        JNZ       $+5
        LJMP      ??bdbTL_ProcessInCmd_ScanRsp_0 & 0xFFFF
// 1781     {
// 1782       uint8 *pBuf = pInMsg->pData;
        MOV       DPL,?V4
        MOV       DPH,?V5
        INC       DPTR
        INC       DPTR
        INC       DPTR
        INC       DPTR
        INC       DPTR
        INC       DPTR
        INC       DPTR
        INC       DPTR
        MOVX      A,@DPTR
        MOV       R6,A
        INC       DPTR
        MOVX      A,@DPTR
        MOV       R7,A
// 1783 
// 1784       zcl_memset( pRsp, 0, sizeof( bdbTLScanRsp_t ) );
        ; Setup parameters for call to function osal_memset
        MOV       R4,#0x26
        MOV       R5,#0x0
        MOV       R1,#0x0
        MOV       R2,?V0
        MOV       R3,?V1
        LCALL     `??osal_memset::?relay`; Banked call to: osal_memset
// 1785 
// 1786       pRsp->transID = zcl_build_uint32( pBuf, 4 );
        ; Setup parameters for call to function osal_build_uint32
        MOV       R1,#0x4
        MOV       A,R6
        MOV       R2,A
        MOV       A,R7
        MOV       R3,A
        LCALL     `??osal_build_uint32::?relay`; Banked call to: osal_build_uint32
        MOV       A,R2
        MOV       R0,A
        MOV       A,R3
        MOV       R1,A
        MOV       A,R4
        MOV       R2,A
        MOV       A,R5
        MOV       R3,A
        MOV       DPL,?V0
        MOV       DPH,?V1
        LCALL     ?XSTORE_R0123
// 1787       pBuf += 4;
        MOV       A,R6
        ADD       A,#0x4
        MOV       R6,A
        JNC       ??bdbTL_ProcessInCmd_ScanRsp_1
        INC       R7
// 1788 
// 1789       pRsp->rssiCorrection = *pBuf++;
??bdbTL_ProcessInCmd_ScanRsp_1:
        MOV       DPL,R6
        MOV       DPH,R7
        MOVX      A,@DPTR
        PUSH      A
          CFI CFA_SP SP+-1
        MOV       DPL,?V0
        MOV       DPH,?V1
        INC       DPTR
        INC       DPTR
        INC       DPTR
        INC       DPTR
        POP       A
          CFI CFA_SP SP+0
        MOVX      @DPTR,A
        MOV       DPL,R6
        MOV       DPH,R7
        INC       DPTR
        MOV       R6,DPL
        MOV       R7,DPH
// 1790       pRsp->zInfo.zInfoByte = *pBuf++;
        MOV       DPL,R6
        MOV       DPH,R7
        MOVX      A,@DPTR
        PUSH      A
          CFI CFA_SP SP+-1
        MOV       DPL,?V0
        MOV       DPH,?V1
        INC       DPTR
        INC       DPTR
        INC       DPTR
        INC       DPTR
        INC       DPTR
        POP       A
          CFI CFA_SP SP+0
        MOVX      @DPTR,A
        MOV       DPL,R6
        MOV       DPH,R7
        INC       DPTR
        MOV       R6,DPL
        MOV       R7,DPH
// 1791       pRsp->touchLinkInfo.touchLinkInfoByte = *pBuf++;
        MOV       DPL,R6
        MOV       DPH,R7
        MOVX      A,@DPTR
        PUSH      A
          CFI CFA_SP SP+-1
        MOV       DPL,?V0
        MOV       DPH,?V1
        INC       DPTR
        INC       DPTR
        INC       DPTR
        INC       DPTR
        INC       DPTR
        INC       DPTR
        INC       DPTR
        POP       A
          CFI CFA_SP SP+0
        MOVX      @DPTR,A
        MOV       DPL,R6
        MOV       DPH,R7
        INC       DPTR
        MOV       R6,DPL
        MOV       R7,DPH
// 1792 
// 1793       pRsp->keyBitmask = BUILD_UINT16( pBuf[0], pBuf[1] );
        MOV       DPL,R6
        MOV       DPH,R7
        MOVX      A,@DPTR
        MOV       R2,A
        MOV       R3,#0x0
        MOV       DPL,R6
        MOV       DPH,R7
        INC       DPTR
        MOVX      A,@DPTR
        MOV       R0,A
        MOV       R1,#0x0
        CLR       A
        XCH       A,R0
        MOV       R1,A
        MOV       A,R2
        ADD       A,R0
        MOV       R0,A
        MOV       A,R3
        ADDC      A,R1
        MOV       R1,A
        MOV       DPL,?V0
        MOV       DPH,?V1
        INC       DPTR
        INC       DPTR
        INC       DPTR
        INC       DPTR
        INC       DPTR
        INC       DPTR
        INC       DPTR
        INC       DPTR
        INC       DPTR
        MOV       A,R0
        MOVX      @DPTR,A
        INC       DPTR
        MOV       A,R1
        MOVX      @DPTR,A
// 1794       pBuf += 2;
        MOV       A,R6
        ADD       A,#0x2
        MOV       R6,A
        JNC       ??bdbTL_ProcessInCmd_ScanRsp_2
        INC       R7
// 1795 
// 1796       pRsp->responseID = zcl_build_uint32( pBuf, 4 );
??bdbTL_ProcessInCmd_ScanRsp_2:
        ; Setup parameters for call to function osal_build_uint32
        MOV       R1,#0x4
        MOV       A,R6
        MOV       R2,A
        MOV       A,R7
        MOV       R3,A
        LCALL     `??osal_build_uint32::?relay`; Banked call to: osal_build_uint32
        MOV       A,?V0
        ADD       A,#0xb
        MOV       DPL,A
        CLR       A
        ADDC      A,?V1
        MOV       DPH,A
        LCALL     ?XSTORE_R2345
// 1797       pBuf += 4;
        MOV       A,R6
        ADD       A,#0x4
        MOV       R6,A
        JNC       ??bdbTL_ProcessInCmd_ScanRsp_3
        INC       R7
// 1798 
// 1799       zcl_cpyExtAddr( pRsp->extendedPANID, pBuf );
??bdbTL_ProcessInCmd_ScanRsp_3:
        ; Setup parameters for call to function sAddrExtCpy
        MOV       A,R6
        MOV       R4,A
        MOV       A,R7
        MOV       R5,A
        MOV       A,?V0
        ADD       A,#0xf
        MOV       R2,A
        CLR       A
        ADDC      A,?V1
        MOV       R3,A
        LCALL     `??sAddrExtCpy::?relay`; Banked call to: sAddrExtCpy
// 1800       pBuf += Z_EXTADDR_LEN;
        MOV       A,R6
        ADD       A,#0x8
        MOV       R6,A
        JNC       ??bdbTL_ProcessInCmd_ScanRsp_4
        INC       R7
// 1801 
// 1802       pRsp->nwkUpdateId = *pBuf++;
??bdbTL_ProcessInCmd_ScanRsp_4:
        MOV       DPL,R6
        MOV       DPH,R7
        MOVX      A,@DPTR
        PUSH      A
          CFI CFA_SP SP+-1
        MOV       A,?V0
        ADD       A,#0x17
        MOV       DPL,A
        CLR       A
        ADDC      A,?V1
        MOV       DPH,A
        POP       A
          CFI CFA_SP SP+0
        MOVX      @DPTR,A
        MOV       DPL,R6
        MOV       DPH,R7
        INC       DPTR
        MOV       R6,DPL
        MOV       R7,DPH
// 1803       pRsp->logicalChannel = *pBuf++;
        MOV       DPL,R6
        MOV       DPH,R7
        MOVX      A,@DPTR
        PUSH      A
          CFI CFA_SP SP+-1
        MOV       A,?V0
        ADD       A,#0x18
        MOV       DPL,A
        CLR       A
        ADDC      A,?V1
        MOV       DPH,A
        POP       A
          CFI CFA_SP SP+0
        MOVX      @DPTR,A
        MOV       DPL,R6
        MOV       DPH,R7
        INC       DPTR
        MOV       R6,DPL
        MOV       R7,DPH
// 1804 
// 1805       pRsp->PANID = BUILD_UINT16( pBuf[0], pBuf[1] );
        MOV       DPL,R6
        MOV       DPH,R7
        MOVX      A,@DPTR
        MOV       R2,A
        MOV       R3,#0x0
        MOV       DPL,R6
        MOV       DPH,R7
        INC       DPTR
        MOVX      A,@DPTR
        MOV       R0,A
        MOV       R1,#0x0
        CLR       A
        XCH       A,R0
        MOV       R1,A
        MOV       A,R2
        ADD       A,R0
        MOV       R0,A
        MOV       A,R3
        ADDC      A,R1
        MOV       R1,A
        MOV       A,?V0
        ADD       A,#0x19
        MOV       DPL,A
        CLR       A
        ADDC      A,?V1
        MOV       DPH,A
        MOV       A,R0
        MOVX      @DPTR,A
        INC       DPTR
        MOV       A,R1
        MOVX      @DPTR,A
// 1806       pBuf += 2;
        MOV       A,R6
        ADD       A,#0x2
        MOV       R6,A
        JNC       ??bdbTL_ProcessInCmd_ScanRsp_5
        INC       R7
// 1807 
// 1808       pRsp->nwkAddr = BUILD_UINT16( pBuf[0], pBuf[1] );
??bdbTL_ProcessInCmd_ScanRsp_5:
        MOV       DPL,R6
        MOV       DPH,R7
        MOVX      A,@DPTR
        MOV       R2,A
        MOV       R3,#0x0
        MOV       DPL,R6
        MOV       DPH,R7
        INC       DPTR
        MOVX      A,@DPTR
        MOV       R0,A
        MOV       R1,#0x0
        CLR       A
        XCH       A,R0
        MOV       R1,A
        MOV       A,R2
        ADD       A,R0
        MOV       R0,A
        MOV       A,R3
        ADDC      A,R1
        MOV       R1,A
        MOV       A,?V0
        ADD       A,#0x1b
        MOV       DPL,A
        CLR       A
        ADDC      A,?V1
        MOV       DPH,A
        MOV       A,R0
        MOVX      @DPTR,A
        INC       DPTR
        MOV       A,R1
        MOVX      @DPTR,A
// 1809       pBuf += 2;
        MOV       A,R6
        ADD       A,#0x2
        MOV       R6,A
        JNC       ??bdbTL_ProcessInCmd_ScanRsp_6
        INC       R7
// 1810 
// 1811       pRsp->numSubDevices = *pBuf++;
??bdbTL_ProcessInCmd_ScanRsp_6:
        MOV       DPL,R6
        MOV       DPH,R7
        MOVX      A,@DPTR
        PUSH      A
          CFI CFA_SP SP+-1
        MOV       A,?V0
        ADD       A,#0x1d
        MOV       DPL,A
        CLR       A
        ADDC      A,?V1
        MOV       DPH,A
        POP       A
          CFI CFA_SP SP+0
        MOVX      @DPTR,A
        MOV       DPL,R6
        MOV       DPH,R7
        INC       DPTR
        MOV       R6,DPL
        MOV       R7,DPH
// 1812       pRsp->totalGrpIDs = *pBuf++;
        MOV       DPL,R6
        MOV       DPH,R7
        MOVX      A,@DPTR
        PUSH      A
          CFI CFA_SP SP+-1
        MOV       A,?V0
        ADD       A,#0x1e
        MOV       DPL,A
        CLR       A
        ADDC      A,?V1
        MOV       DPH,A
        POP       A
          CFI CFA_SP SP+0
        MOVX      @DPTR,A
        MOV       DPL,R6
        MOV       DPH,R7
        INC       DPTR
        MOV       R6,DPL
        MOV       R7,DPH
// 1813 
// 1814       if ( pRsp->numSubDevices == 1 )
        MOV       A,?V0
        ADD       A,#0x1d
        MOV       DPL,A
        CLR       A
        ADDC      A,?V1
        MOV       DPH,A
        MOVX      A,@DPTR
        XRL       A,#0x1
        JZ        $+5
        LJMP      ??bdbTL_ProcessInCmd_ScanRsp_7 & 0xFFFF
// 1815       {
// 1816         pRsp->deviceInfo.endpoint = *pBuf++;
        MOV       DPL,R6
        MOV       DPH,R7
        MOVX      A,@DPTR
        PUSH      A
          CFI CFA_SP SP+-1
        MOV       A,?V0
        ADD       A,#0x1f
        MOV       DPL,A
        CLR       A
        ADDC      A,?V1
        MOV       DPH,A
        POP       A
          CFI CFA_SP SP+0
        MOVX      @DPTR,A
        MOV       DPL,R6
        MOV       DPH,R7
        INC       DPTR
        MOV       R6,DPL
        MOV       R7,DPH
// 1817 
// 1818         pRsp->deviceInfo.profileID = BUILD_UINT16( pBuf[0], pBuf[1] );
        MOV       DPL,R6
        MOV       DPH,R7
        MOVX      A,@DPTR
        MOV       R2,A
        MOV       R3,#0x0
        MOV       DPL,R6
        MOV       DPH,R7
        INC       DPTR
        MOVX      A,@DPTR
        MOV       R0,A
        MOV       R1,#0x0
        CLR       A
        XCH       A,R0
        MOV       R1,A
        MOV       A,R2
        ADD       A,R0
        MOV       R0,A
        MOV       A,R3
        ADDC      A,R1
        MOV       R1,A
        MOV       A,?V0
        ADD       A,#0x20
        MOV       DPL,A
        CLR       A
        ADDC      A,?V1
        MOV       DPH,A
        MOV       A,R0
        MOVX      @DPTR,A
        INC       DPTR
        MOV       A,R1
        MOVX      @DPTR,A
// 1819         pBuf += 2;
        MOV       A,R6
        ADD       A,#0x2
        MOV       R6,A
        JNC       ??bdbTL_ProcessInCmd_ScanRsp_8
        INC       R7
// 1820 
// 1821         pRsp->deviceInfo.deviceID = BUILD_UINT16( pBuf[0], pBuf[1] );
??bdbTL_ProcessInCmd_ScanRsp_8:
        MOV       DPL,R6
        MOV       DPH,R7
        MOVX      A,@DPTR
        MOV       R2,A
        MOV       R3,#0x0
        MOV       DPL,R6
        MOV       DPH,R7
        INC       DPTR
        MOVX      A,@DPTR
        MOV       R0,A
        MOV       R1,#0x0
        CLR       A
        XCH       A,R0
        MOV       R1,A
        MOV       A,R2
        ADD       A,R0
        MOV       R0,A
        MOV       A,R3
        ADDC      A,R1
        MOV       R1,A
        MOV       A,?V0
        ADD       A,#0x22
        MOV       DPL,A
        CLR       A
        ADDC      A,?V1
        MOV       DPH,A
        MOV       A,R0
        MOVX      @DPTR,A
        INC       DPTR
        MOV       A,R1
        MOVX      @DPTR,A
// 1822         pBuf += 2;
        MOV       A,R6
        ADD       A,#0x2
        MOV       R6,A
        JNC       ??bdbTL_ProcessInCmd_ScanRsp_9
        INC       R7
// 1823 
// 1824         pRsp->deviceInfo.version = *pBuf++;
??bdbTL_ProcessInCmd_ScanRsp_9:
        MOV       DPL,R6
        MOV       DPH,R7
        MOVX      A,@DPTR
        PUSH      A
          CFI CFA_SP SP+-1
        MOV       A,?V0
        ADD       A,#0x24
        MOV       DPL,A
        CLR       A
        ADDC      A,?V1
        MOV       DPH,A
        POP       A
          CFI CFA_SP SP+0
        MOVX      @DPTR,A
        MOV       DPL,R6
        MOV       DPH,R7
        INC       DPTR
        MOV       R6,DPL
        MOV       R7,DPH
// 1825         pRsp->deviceInfo.grpIdCnt = *pBuf;
        MOV       DPL,R6
        MOV       DPH,R7
        MOVX      A,@DPTR
        PUSH      A
          CFI CFA_SP SP+-1
        MOV       A,?V0
        ADD       A,#0x25
        MOV       DPL,A
        CLR       A
        ADDC      A,?V1
        MOV       DPH,A
        POP       A
          CFI CFA_SP SP+0
        MOVX      @DPTR,A
// 1826       }
// 1827 
// 1828       status = pInterPANCBs->pfnScanRsp( &(pInMsg->msg->srcAddr), pRsp );
??bdbTL_ProcessInCmd_ScanRsp_7:
        ; Setup parameters for indirect call
        MOV       R4,?V0
        MOV       R5,?V1
        MOV       DPL,?V4
        MOV       DPH,?V5
        MOVX      A,@DPTR
        ADD       A,#0x6
        MOV       R2,A
        INC       DPTR
        MOVX      A,@DPTR
        ADDC      A,#0x0
        MOV       R3,A
        MOV       DPTR,#pInterPANCBs
        MOVX      A,@DPTR
        MOV       R0,A
        INC       DPTR
        MOVX      A,@DPTR
        XCH       A,R0
        ADD       A,#0x10
        MOV       DPL,A
        XCH       A,R0
        ADDC      A,#0x0
        MOV       DPH,A
        MOVX      A,@DPTR
        MOV       R0,A
        INC       DPTR
        MOVX      A,@DPTR
        MOV       DPH,A
        MOV       DPL,R0
        LCALL     ?CALL_IND
        MOV       A,R1
        MOV       ?V2,A
// 1829       zcl_mem_free( pRsp );
        ; Setup parameters for call to function osal_mem_free
        MOV       R2,?V0
        MOV       R3,?V1
        LCALL     `??osal_mem_free::?relay`; Banked call to: osal_mem_free
// 1830     }
// 1831   }
// 1832 
// 1833   return ( status );
??bdbTL_ProcessInCmd_ScanRsp_0:
        MOV       R1,?V2
        MOV       R7,#0x8
        LJMP      ?BANKED_LEAVE_XDATA
// 1834 }
          CFI EndBlock cfiBlock37
// 1835 
// 1836 /*********************************************************************
// 1837  * @fn      bdbTL_ProcessInCmd_DeviceInfoRsp
// 1838  *
// 1839  * @brief   Process in the received Device Information Response command.
// 1840  *
// 1841  * @param   pInMsg - pointer to the incoming message
// 1842  *
// 1843  * @return  ZStatus_t
// 1844  */

        RSEG BANKED_CODE:HUGECODE:NOROOT(0)
// 1845 static ZStatus_t bdbTL_ProcessInCmd_DeviceInfoRsp( zclIncoming_t *pInMsg )
bdbTL_ProcessInCmd_DeviceInfoRsp:
          CFI Block cfiBlock38 Using cfiCommon0
          CFI Function bdbTL_ProcessInCmd_DeviceInfoRsp
        CODE
// 1846 {
        FUNCALL bdbTL_ProcessInCmd_DeviceInfoRsp, osal_mem_alloc
        LOCFRAME ISTACK, 0, STACK
        LOCFRAME PSTACK, 0, STACK
        LOCFRAME XSTACK, 18, STACK
        LOCFRAME IOVERLAY, 0, STATIC
        LOCFRAME DOVERLAY, 0, STATIC
        ARGFRAME ISTACK, 0, STACK
        ARGFRAME PSTACK, 0, STACK
        ARGFRAME XSTACK, 18, STACK
        ARGFRAME IOVERLAY, 0, STATIC
        ARGFRAME DOVERLAY, 0, STATIC
        FUNCALL bdbTL_ProcessInCmd_DeviceInfoRsp, osal_build_uint32
        LOCFRAME ISTACK, 0, STACK
        LOCFRAME PSTACK, 0, STACK
        LOCFRAME XSTACK, 18, STACK
        LOCFRAME IOVERLAY, 0, STATIC
        LOCFRAME DOVERLAY, 0, STATIC
        ARGFRAME ISTACK, 0, STACK
        ARGFRAME PSTACK, 0, STACK
        ARGFRAME XSTACK, 18, STACK
        ARGFRAME IOVERLAY, 0, STATIC
        ARGFRAME DOVERLAY, 0, STATIC
        FUNCALL bdbTL_ProcessInCmd_DeviceInfoRsp, sAddrExtCpy
        LOCFRAME ISTACK, 0, STACK
        LOCFRAME PSTACK, 0, STACK
        LOCFRAME XSTACK, 18, STACK
        LOCFRAME IOVERLAY, 0, STATIC
        LOCFRAME DOVERLAY, 0, STATIC
        ARGFRAME ISTACK, 0, STACK
        ARGFRAME PSTACK, 0, STACK
        ARGFRAME XSTACK, 18, STACK
        ARGFRAME IOVERLAY, 0, STATIC
        ARGFRAME DOVERLAY, 0, STATIC
        FUNCALL bdbTL_ProcessInCmd_DeviceInfoRsp, osal_mem_free
        LOCFRAME ISTACK, 0, STACK
        LOCFRAME PSTACK, 0, STACK
        LOCFRAME XSTACK, 18, STACK
        LOCFRAME IOVERLAY, 0, STATIC
        LOCFRAME DOVERLAY, 0, STATIC
        ARGFRAME ISTACK, 0, STACK
        ARGFRAME PSTACK, 0, STACK
        ARGFRAME XSTACK, 18, STACK
        ARGFRAME IOVERLAY, 0, STATIC
        ARGFRAME DOVERLAY, 0, STATIC
        REQUIRE ?V0
        REQUIRE ?V1
        REQUIRE ?V2
        REQUIRE ?V3
        REQUIRE ?V4
        REQUIRE ?V5
        REQUIRE ?V6
        REQUIRE ?V7
        REQUIRE ?V8
        REQUIRE ?V9
        MOV       A,#-0x12
        LCALL     ?BANKED_ENTER_XDATA
          CFI DPH0 load(1, XDATA, add(CFA_XSP16, literal(-1)))
          CFI DPL0 load(1, XDATA, add(CFA_XSP16, literal(-2)))
          CFI ?BRET_EXT load(1, XDATA, add(CFA_XSP16, literal(-3)))
          CFI ?RET_HIGH load(1, XDATA, add(CFA_XSP16, literal(-4)))
          CFI ?RET_LOW load(1, XDATA, add(CFA_XSP16, literal(-5)))
          CFI R7 load(1, XDATA, add(CFA_XSP16, literal(-6)))
          CFI V9 load(1, XDATA, add(CFA_XSP16, literal(-7)))
          CFI V8 load(1, XDATA, add(CFA_XSP16, literal(-8)))
          CFI V7 load(1, XDATA, add(CFA_XSP16, literal(-9)))
          CFI V6 load(1, XDATA, add(CFA_XSP16, literal(-10)))
          CFI V5 load(1, XDATA, add(CFA_XSP16, literal(-11)))
          CFI V4 load(1, XDATA, add(CFA_XSP16, literal(-12)))
          CFI V3 load(1, XDATA, add(CFA_XSP16, literal(-13)))
          CFI V2 load(1, XDATA, add(CFA_XSP16, literal(-14)))
          CFI V1 load(1, XDATA, add(CFA_XSP16, literal(-15)))
          CFI V0 load(1, XDATA, add(CFA_XSP16, literal(-16)))
          CFI VB load(1, XDATA, add(CFA_XSP16, literal(-17)))
          CFI R6 load(1, XDATA, add(CFA_XSP16, literal(-18)))
          CFI CFA_SP SP+0
          CFI CFA_XSP16 add(XSP16, 18)
        ; Saved register size: 18
        ; Auto size: 0
        MOV       ?V6,R2
        MOV       ?V7,R3
// 1847   ZStatus_t status = ZSuccess;
        MOV       ?V3,#0x0
// 1848 
// 1849   if ( pInterPANCBs->pfnDeviceInfoRsp )
        MOV       DPTR,#pInterPANCBs
        MOVX      A,@DPTR
        MOV       R0,A
        INC       DPTR
        MOVX      A,@DPTR
        XCH       A,R0
        ADD       A,#0x12
        MOV       DPL,A
        XCH       A,R0
        ADDC      A,#0x0
        MOV       DPH,A
        MOVX      A,@DPTR
        MOV       R0,A
        INC       DPTR
        MOVX      A,@DPTR
        MOV       R1,A
        MOV       A,R0
        ORL       A,R1
        JNZ       $+5
        LJMP      ??bdbTL_ProcessInCmd_DeviceInfoRsp_0 & 0xFFFF
// 1850   {
// 1851     bdbTLDeviceInfoRsp_t *pRsp;
// 1852     uint8 cnt = pInMsg->pData[TOUCHLINK_CMDLEN_DEVICE_INFO_RSP-1];
        MOV       DPL,?V6
        MOV       DPH,?V7
        INC       DPTR
        INC       DPTR
        INC       DPTR
        INC       DPTR
        INC       DPTR
        INC       DPTR
        INC       DPTR
        INC       DPTR
        MOVX      A,@DPTR
        MOV       R0,A
        INC       DPTR
        MOVX      A,@DPTR
        XCH       A,R0
        ADD       A,#0x6
        MOV       DPL,A
        XCH       A,R0
        ADDC      A,#0x0
        MOV       DPH,A
        MOVX      A,@DPTR
        MOV       ?V8,A
// 1853     uint8 rspLen = sizeof( bdbTLDeviceInfoRsp_t ) + ( cnt * sizeof( devInfoRec_t ) );
        MOV       B,#0x10
        MOV       A,?V8
        MUL       AB
        ADD       A,#0x17
        MOV       ?V9,A
// 1854 
// 1855     pRsp = (bdbTLDeviceInfoRsp_t *)zcl_mem_alloc( rspLen );
        ; Setup parameters for call to function osal_mem_alloc
        MOV       A,?V9
        MOV       R2,A
        MOV       R3,#0x0
        LCALL     `??osal_mem_alloc::?relay`; Banked call to: osal_mem_alloc
        MOV       ?V4,R2
        MOV       ?V5,R3
        MOV       ?V0,?V4
        MOV       ?V1,?V5
// 1856     if ( pRsp )
        MOV       A,?V0
        ORL       A,?V1
        JNZ       $+5
        LJMP      ??bdbTL_ProcessInCmd_DeviceInfoRsp_0 & 0xFFFF
// 1857     {
// 1858       uint8 *pBuf = pInMsg->pData;
        MOV       DPL,?V6
        MOV       DPH,?V7
        INC       DPTR
        INC       DPTR
        INC       DPTR
        INC       DPTR
        INC       DPTR
        INC       DPTR
        INC       DPTR
        INC       DPTR
        MOVX      A,@DPTR
        MOV       R6,A
        INC       DPTR
        MOVX      A,@DPTR
        MOV       R7,A
// 1859       uint8 i;
// 1860 
// 1861       pRsp->transID = zcl_build_uint32( pBuf, 4 );
        ; Setup parameters for call to function osal_build_uint32
        MOV       R1,#0x4
        MOV       A,R6
        MOV       R2,A
        MOV       A,R7
        MOV       R3,A
        LCALL     `??osal_build_uint32::?relay`; Banked call to: osal_build_uint32
        MOV       A,R2
        MOV       R0,A
        MOV       A,R3
        MOV       R1,A
        MOV       A,R4
        MOV       R2,A
        MOV       A,R5
        MOV       R3,A
        MOV       DPL,?V0
        MOV       DPH,?V1
        LCALL     ?XSTORE_R0123
// 1862       pBuf += 4;
        MOV       A,R6
        ADD       A,#0x4
        MOV       R6,A
        JNC       ??bdbTL_ProcessInCmd_DeviceInfoRsp_1
        INC       R7
// 1863 
// 1864       pRsp->numSubDevices = *pBuf++;
??bdbTL_ProcessInCmd_DeviceInfoRsp_1:
        MOV       DPL,R6
        MOV       DPH,R7
        MOVX      A,@DPTR
        PUSH      A
          CFI CFA_SP SP+-1
        MOV       DPL,?V0
        MOV       DPH,?V1
        INC       DPTR
        INC       DPTR
        INC       DPTR
        INC       DPTR
        POP       A
          CFI CFA_SP SP+0
        MOVX      @DPTR,A
        MOV       DPL,R6
        MOV       DPH,R7
        INC       DPTR
        MOV       R6,DPL
        MOV       R7,DPH
// 1865       pRsp->startIndex = *pBuf++;
        MOV       DPL,R6
        MOV       DPH,R7
        MOVX      A,@DPTR
        PUSH      A
          CFI CFA_SP SP+-1
        MOV       DPL,?V0
        MOV       DPH,?V1
        INC       DPTR
        INC       DPTR
        INC       DPTR
        INC       DPTR
        INC       DPTR
        POP       A
          CFI CFA_SP SP+0
        MOVX      @DPTR,A
        MOV       DPL,R6
        MOV       DPH,R7
        INC       DPTR
        MOV       R6,DPL
        MOV       R7,DPH
// 1866       pRsp->cnt = *pBuf++;
        MOV       DPL,R6
        MOV       DPH,R7
        MOVX      A,@DPTR
        PUSH      A
          CFI CFA_SP SP+-1
        MOV       DPL,?V0
        MOV       DPH,?V1
        INC       DPTR
        INC       DPTR
        INC       DPTR
        INC       DPTR
        INC       DPTR
        INC       DPTR
        POP       A
          CFI CFA_SP SP+0
        MOVX      @DPTR,A
        MOV       DPL,R6
        MOV       DPH,R7
        INC       DPTR
        MOV       R6,DPL
        MOV       R7,DPH
// 1867 
// 1868       for ( i = 0; i < cnt; i++ )
        MOV       ?V2,#0x0
??bdbTL_ProcessInCmd_DeviceInfoRsp_2:
        MOV       A,?V2
        CLR       C
        SUBB      A,?V8
        JC        $+5
        LJMP      ??bdbTL_ProcessInCmd_DeviceInfoRsp_3 & 0xFFFF
// 1869       {
// 1870         devInfoRec_t *pRec = &(pRsp->devInfoRec[i]);
        MOV       A,?V2
        MOV       R0,A
        MOV       R1,#0x0
        MOV       A,R0
        MOV       B,#0x10
        MUL       AB
        XCH       A,R0
        MOV       R2,B
        MOV       B,#0x0
        MUL       AB
        ADD       A,R2
        MOV       R2,A
        MOV       B,#0x10
        MOV       A,R1
        MUL       AB
        ADD       A,R2
        MOV       R1,A
        MOV       A,?V0
        ADD       A,R0
        MOV       R0,A
        MOV       A,?V1
        ADDC      A,R1
        MOV       R1,A
        MOV       A,R0
        ADD       A,#0x7
        MOV       ?V4,A
        CLR       A
        ADDC      A,R1
        MOV       ?V5,A
// 1871 
// 1872         zcl_cpyExtAddr( pRec->ieeeAddr, pBuf );
        ; Setup parameters for call to function sAddrExtCpy
        MOV       A,R6
        MOV       R4,A
        MOV       A,R7
        MOV       R5,A
        MOV       R2,?V4
        MOV       R3,?V5
        LCALL     `??sAddrExtCpy::?relay`; Banked call to: sAddrExtCpy
// 1873         pBuf += Z_EXTADDR_LEN;
        MOV       A,R6
        ADD       A,#0x8
        MOV       R6,A
        JNC       ??bdbTL_ProcessInCmd_DeviceInfoRsp_4
        INC       R7
// 1874 
// 1875         pRec->deviceInfo.endpoint = *pBuf++;
??bdbTL_ProcessInCmd_DeviceInfoRsp_4:
        MOV       DPL,R6
        MOV       DPH,R7
        MOVX      A,@DPTR
        PUSH      A
          CFI CFA_SP SP+-1
        MOV       DPL,?V4
        MOV       DPH,?V5
        INC       DPTR
        INC       DPTR
        INC       DPTR
        INC       DPTR
        INC       DPTR
        INC       DPTR
        INC       DPTR
        INC       DPTR
        POP       A
          CFI CFA_SP SP+0
        MOVX      @DPTR,A
        MOV       DPL,R6
        MOV       DPH,R7
        INC       DPTR
        MOV       R6,DPL
        MOV       R7,DPH
// 1876 
// 1877         pRec->deviceInfo.profileID = BUILD_UINT16( pBuf[0], pBuf[1] );
        MOV       DPL,R6
        MOV       DPH,R7
        MOVX      A,@DPTR
        MOV       R2,A
        MOV       R3,#0x0
        MOV       DPL,R6
        MOV       DPH,R7
        INC       DPTR
        MOVX      A,@DPTR
        MOV       R0,A
        MOV       R1,#0x0
        CLR       A
        XCH       A,R0
        MOV       R1,A
        MOV       A,R2
        ADD       A,R0
        MOV       R0,A
        MOV       A,R3
        ADDC      A,R1
        MOV       R1,A
        MOV       DPL,?V4
        MOV       DPH,?V5
        INC       DPTR
        INC       DPTR
        INC       DPTR
        INC       DPTR
        INC       DPTR
        INC       DPTR
        INC       DPTR
        INC       DPTR
        INC       DPTR
        MOV       A,R0
        MOVX      @DPTR,A
        INC       DPTR
        MOV       A,R1
        MOVX      @DPTR,A
// 1878         pBuf += 2;
        MOV       A,R6
        ADD       A,#0x2
        MOV       R6,A
        JNC       ??bdbTL_ProcessInCmd_DeviceInfoRsp_5
        INC       R7
// 1879 
// 1880         pRec->deviceInfo.deviceID = BUILD_UINT16( pBuf[0], pBuf[1] );
??bdbTL_ProcessInCmd_DeviceInfoRsp_5:
        MOV       DPL,R6
        MOV       DPH,R7
        MOVX      A,@DPTR
        MOV       R2,A
        MOV       R3,#0x0
        MOV       DPL,R6
        MOV       DPH,R7
        INC       DPTR
        MOVX      A,@DPTR
        MOV       R0,A
        MOV       R1,#0x0
        CLR       A
        XCH       A,R0
        MOV       R1,A
        MOV       A,R2
        ADD       A,R0
        MOV       R0,A
        MOV       A,R3
        ADDC      A,R1
        MOV       R1,A
        MOV       A,?V4
        ADD       A,#0xb
        MOV       DPL,A
        CLR       A
        ADDC      A,?V5
        MOV       DPH,A
        MOV       A,R0
        MOVX      @DPTR,A
        INC       DPTR
        MOV       A,R1
        MOVX      @DPTR,A
// 1881         pBuf += 2;
        MOV       A,R6
        ADD       A,#0x2
        MOV       R6,A
        JNC       ??bdbTL_ProcessInCmd_DeviceInfoRsp_6
        INC       R7
// 1882 
// 1883         pRec->deviceInfo.version = *pBuf++;
??bdbTL_ProcessInCmd_DeviceInfoRsp_6:
        MOV       DPL,R6
        MOV       DPH,R7
        MOVX      A,@DPTR
        PUSH      A
          CFI CFA_SP SP+-1
        MOV       A,?V4
        ADD       A,#0xd
        MOV       DPL,A
        CLR       A
        ADDC      A,?V5
        MOV       DPH,A
        POP       A
          CFI CFA_SP SP+0
        MOVX      @DPTR,A
        MOV       DPL,R6
        MOV       DPH,R7
        INC       DPTR
        MOV       R6,DPL
        MOV       R7,DPH
// 1884         pRec->deviceInfo.grpIdCnt = *pBuf++;
        MOV       DPL,R6
        MOV       DPH,R7
        MOVX      A,@DPTR
        PUSH      A
          CFI CFA_SP SP+-1
        MOV       A,?V4
        ADD       A,#0xe
        MOV       DPL,A
        CLR       A
        ADDC      A,?V5
        MOV       DPH,A
        POP       A
          CFI CFA_SP SP+0
        MOVX      @DPTR,A
        MOV       DPL,R6
        MOV       DPH,R7
        INC       DPTR
        MOV       R6,DPL
        MOV       R7,DPH
// 1885 
// 1886         pRec->sort = *pBuf++;
        MOV       DPL,R6
        MOV       DPH,R7
        MOVX      A,@DPTR
        PUSH      A
          CFI CFA_SP SP+-1
        MOV       A,?V4
        ADD       A,#0xf
        MOV       DPL,A
        CLR       A
        ADDC      A,?V5
        MOV       DPH,A
        POP       A
          CFI CFA_SP SP+0
        MOVX      @DPTR,A
        MOV       DPL,R6
        MOV       DPH,R7
        INC       DPTR
        MOV       R6,DPL
        MOV       R7,DPH
// 1887       }
        INC       ?V2
        LJMP      ??bdbTL_ProcessInCmd_DeviceInfoRsp_2 & 0xFFFF
// 1888 
// 1889       status = pInterPANCBs->pfnDeviceInfoRsp( &(pInMsg->msg->srcAddr), pRsp );
??bdbTL_ProcessInCmd_DeviceInfoRsp_3:
        ; Setup parameters for indirect call
        MOV       R4,?V0
        MOV       R5,?V1
        MOV       DPL,?V6
        MOV       DPH,?V7
        MOVX      A,@DPTR
        ADD       A,#0x6
        MOV       R2,A
        INC       DPTR
        MOVX      A,@DPTR
        ADDC      A,#0x0
        MOV       R3,A
        MOV       DPTR,#pInterPANCBs
        MOVX      A,@DPTR
        MOV       R0,A
        INC       DPTR
        MOVX      A,@DPTR
        XCH       A,R0
        ADD       A,#0x12
        MOV       DPL,A
        XCH       A,R0
        ADDC      A,#0x0
        MOV       DPH,A
        MOVX      A,@DPTR
        MOV       R0,A
        INC       DPTR
        MOVX      A,@DPTR
        MOV       DPH,A
        MOV       DPL,R0
        LCALL     ?CALL_IND
        MOV       A,R1
        MOV       ?V3,A
// 1890 
// 1891       zcl_mem_free( pRsp );
        ; Setup parameters for call to function osal_mem_free
        MOV       R2,?V0
        MOV       R3,?V1
        LCALL     `??osal_mem_free::?relay`; Banked call to: osal_mem_free
// 1892     }
// 1893   }
// 1894 
// 1895   return ( status );
??bdbTL_ProcessInCmd_DeviceInfoRsp_0:
        MOV       R1,?V3
        MOV       R7,#0xa
        LJMP      ?BANKED_LEAVE_XDATA
// 1896 }
          CFI EndBlock cfiBlock38
// 1897 
// 1898 /*********************************************************************
// 1899  * @fn      bdbTL_ProcessInCmd_NwkStartRsp
// 1900  *
// 1901  * @brief   Process in the received Network Start Response command.
// 1902  *
// 1903  * @param   pInMsg - pointer to the incoming message
// 1904  *
// 1905  * @return  ZStatus_t
// 1906  */

        RSEG BANKED_CODE:HUGECODE:NOROOT(0)
// 1907 static ZStatus_t bdbTL_ProcessInCmd_NwkStartRsp( zclIncoming_t *pInMsg )
bdbTL_ProcessInCmd_NwkStartRsp:
          CFI Block cfiBlock39 Using cfiCommon0
          CFI Function bdbTL_ProcessInCmd_NwkStartRsp
        CODE
// 1908 {
        FUNCALL bdbTL_ProcessInCmd_NwkStartRsp, osal_mem_alloc
        LOCFRAME ISTACK, 0, STACK
        LOCFRAME PSTACK, 0, STACK
        LOCFRAME XSTACK, 16, STACK
        LOCFRAME IOVERLAY, 0, STATIC
        LOCFRAME DOVERLAY, 0, STATIC
        ARGFRAME ISTACK, 0, STACK
        ARGFRAME PSTACK, 0, STACK
        ARGFRAME XSTACK, 16, STACK
        ARGFRAME IOVERLAY, 0, STATIC
        ARGFRAME DOVERLAY, 0, STATIC
        FUNCALL bdbTL_ProcessInCmd_NwkStartRsp, osal_build_uint32
        LOCFRAME ISTACK, 0, STACK
        LOCFRAME PSTACK, 0, STACK
        LOCFRAME XSTACK, 16, STACK
        LOCFRAME IOVERLAY, 0, STATIC
        LOCFRAME DOVERLAY, 0, STATIC
        ARGFRAME ISTACK, 0, STACK
        ARGFRAME PSTACK, 0, STACK
        ARGFRAME XSTACK, 16, STACK
        ARGFRAME IOVERLAY, 0, STATIC
        ARGFRAME DOVERLAY, 0, STATIC
        FUNCALL bdbTL_ProcessInCmd_NwkStartRsp, sAddrExtCpy
        LOCFRAME ISTACK, 0, STACK
        LOCFRAME PSTACK, 0, STACK
        LOCFRAME XSTACK, 16, STACK
        LOCFRAME IOVERLAY, 0, STATIC
        LOCFRAME DOVERLAY, 0, STATIC
        ARGFRAME ISTACK, 0, STACK
        ARGFRAME PSTACK, 0, STACK
        ARGFRAME XSTACK, 16, STACK
        ARGFRAME IOVERLAY, 0, STATIC
        ARGFRAME DOVERLAY, 0, STATIC
        FUNCALL bdbTL_ProcessInCmd_NwkStartRsp, osal_mem_free
        LOCFRAME ISTACK, 0, STACK
        LOCFRAME PSTACK, 0, STACK
        LOCFRAME XSTACK, 16, STACK
        LOCFRAME IOVERLAY, 0, STATIC
        LOCFRAME DOVERLAY, 0, STATIC
        ARGFRAME ISTACK, 0, STACK
        ARGFRAME PSTACK, 0, STACK
        ARGFRAME XSTACK, 16, STACK
        ARGFRAME IOVERLAY, 0, STATIC
        ARGFRAME DOVERLAY, 0, STATIC
        REQUIRE ?V0
        REQUIRE ?V1
        REQUIRE ?V2
        REQUIRE ?V4
        REQUIRE ?V5
        REQUIRE ?V6
        REQUIRE ?V7
        MOV       A,#-0x10
        LCALL     ?BANKED_ENTER_XDATA
          CFI DPH0 load(1, XDATA, add(CFA_XSP16, literal(-1)))
          CFI DPL0 load(1, XDATA, add(CFA_XSP16, literal(-2)))
          CFI ?BRET_EXT load(1, XDATA, add(CFA_XSP16, literal(-3)))
          CFI ?RET_HIGH load(1, XDATA, add(CFA_XSP16, literal(-4)))
          CFI ?RET_LOW load(1, XDATA, add(CFA_XSP16, literal(-5)))
          CFI R7 load(1, XDATA, add(CFA_XSP16, literal(-6)))
          CFI V7 load(1, XDATA, add(CFA_XSP16, literal(-7)))
          CFI V6 load(1, XDATA, add(CFA_XSP16, literal(-8)))
          CFI V5 load(1, XDATA, add(CFA_XSP16, literal(-9)))
          CFI V4 load(1, XDATA, add(CFA_XSP16, literal(-10)))
          CFI V3 load(1, XDATA, add(CFA_XSP16, literal(-11)))
          CFI V2 load(1, XDATA, add(CFA_XSP16, literal(-12)))
          CFI V1 load(1, XDATA, add(CFA_XSP16, literal(-13)))
          CFI V0 load(1, XDATA, add(CFA_XSP16, literal(-14)))
          CFI VB load(1, XDATA, add(CFA_XSP16, literal(-15)))
          CFI R6 load(1, XDATA, add(CFA_XSP16, literal(-16)))
          CFI CFA_SP SP+0
          CFI CFA_XSP16 add(XSP16, 16)
        ; Saved register size: 16
        ; Auto size: 0
        MOV       ?V4,R2
        MOV       ?V5,R3
// 1909   ZStatus_t status = ZSuccess;
        MOV       ?V2,#0x0
// 1910 
// 1911   if ( pInterPANCBs->pfnNwkStartRsp )
        MOV       DPTR,#pInterPANCBs
        MOVX      A,@DPTR
        MOV       R0,A
        INC       DPTR
        MOVX      A,@DPTR
        XCH       A,R0
        ADD       A,#0x14
        MOV       DPL,A
        XCH       A,R0
        ADDC      A,#0x0
        MOV       DPH,A
        MOVX      A,@DPTR
        MOV       R0,A
        INC       DPTR
        MOVX      A,@DPTR
        MOV       R1,A
        MOV       A,R0
        ORL       A,R1
        JNZ       $+5
        LJMP      ??bdbTL_ProcessInCmd_NwkStartRsp_0 & 0xFFFF
// 1912   {
// 1913     bdbTLNwkStartRsp_t *pRsp;
// 1914 
// 1915     pRsp = (bdbTLNwkStartRsp_t *)zcl_mem_alloc( sizeof( bdbTLNwkStartRsp_t ) );
        ; Setup parameters for call to function osal_mem_alloc
        MOV       R2,#0x11
        MOV       R3,#0x0
        LCALL     `??osal_mem_alloc::?relay`; Banked call to: osal_mem_alloc
        MOV       ?V6,R2
        MOV       ?V7,R3
        MOV       ?V0,?V6
        MOV       ?V1,?V7
// 1916     if ( pRsp )
        MOV       A,?V0
        ORL       A,?V1
        JNZ       $+5
        LJMP      ??bdbTL_ProcessInCmd_NwkStartRsp_0 & 0xFFFF
// 1917     {
// 1918       uint8 *pBuf = pInMsg->pData;
        MOV       DPL,?V4
        MOV       DPH,?V5
        INC       DPTR
        INC       DPTR
        INC       DPTR
        INC       DPTR
        INC       DPTR
        INC       DPTR
        INC       DPTR
        INC       DPTR
        MOVX      A,@DPTR
        MOV       R6,A
        INC       DPTR
        MOVX      A,@DPTR
        MOV       R7,A
// 1919 
// 1920       pRsp->transID = zcl_build_uint32( pBuf, 4 );
        ; Setup parameters for call to function osal_build_uint32
        MOV       R1,#0x4
        MOV       A,R6
        MOV       R2,A
        MOV       A,R7
        MOV       R3,A
        LCALL     `??osal_build_uint32::?relay`; Banked call to: osal_build_uint32
        MOV       A,R2
        MOV       R0,A
        MOV       A,R3
        MOV       R1,A
        MOV       A,R4
        MOV       R2,A
        MOV       A,R5
        MOV       R3,A
        MOV       DPL,?V0
        MOV       DPH,?V1
        LCALL     ?XSTORE_R0123
// 1921       pBuf += 4;
        MOV       A,R6
        ADD       A,#0x4
        MOV       R6,A
        JNC       ??bdbTL_ProcessInCmd_NwkStartRsp_1
        INC       R7
// 1922 
// 1923       pRsp->status = *pBuf++;
??bdbTL_ProcessInCmd_NwkStartRsp_1:
        MOV       DPL,R6
        MOV       DPH,R7
        MOVX      A,@DPTR
        PUSH      A
          CFI CFA_SP SP+-1
        MOV       DPL,?V0
        MOV       DPH,?V1
        INC       DPTR
        INC       DPTR
        INC       DPTR
        INC       DPTR
        POP       A
          CFI CFA_SP SP+0
        MOVX      @DPTR,A
        MOV       DPL,R6
        MOV       DPH,R7
        INC       DPTR
        MOV       R6,DPL
        MOV       R7,DPH
// 1924 
// 1925       zcl_cpyExtAddr( pRsp->extendedPANID, pBuf );
        ; Setup parameters for call to function sAddrExtCpy
        MOV       A,R6
        MOV       R4,A
        MOV       A,R7
        MOV       R5,A
        MOV       A,?V0
        ADD       A,#0x5
        MOV       R2,A
        CLR       A
        ADDC      A,?V1
        MOV       R3,A
        LCALL     `??sAddrExtCpy::?relay`; Banked call to: sAddrExtCpy
// 1926       pBuf += Z_EXTADDR_LEN;
        MOV       A,R6
        ADD       A,#0x8
        MOV       R6,A
        JNC       ??bdbTL_ProcessInCmd_NwkStartRsp_2
        INC       R7
// 1927 
// 1928       pRsp->nwkUpdateId = *pBuf++;
??bdbTL_ProcessInCmd_NwkStartRsp_2:
        MOV       DPL,R6
        MOV       DPH,R7
        MOVX      A,@DPTR
        PUSH      A
          CFI CFA_SP SP+-1
        MOV       A,?V0
        ADD       A,#0xd
        MOV       DPL,A
        CLR       A
        ADDC      A,?V1
        MOV       DPH,A
        POP       A
          CFI CFA_SP SP+0
        MOVX      @DPTR,A
        MOV       DPL,R6
        MOV       DPH,R7
        INC       DPTR
        MOV       R6,DPL
        MOV       R7,DPH
// 1929       pRsp->logicalChannel = *pBuf++;
        MOV       DPL,R6
        MOV       DPH,R7
        MOVX      A,@DPTR
        PUSH      A
          CFI CFA_SP SP+-1
        MOV       A,?V0
        ADD       A,#0xe
        MOV       DPL,A
        CLR       A
        ADDC      A,?V1
        MOV       DPH,A
        POP       A
          CFI CFA_SP SP+0
        MOVX      @DPTR,A
        MOV       DPL,R6
        MOV       DPH,R7
        INC       DPTR
        MOV       R6,DPL
        MOV       R7,DPH
// 1930 
// 1931       pRsp->panId = BUILD_UINT16( pBuf[0], pBuf[1] );
        MOV       DPL,R6
        MOV       DPH,R7
        MOVX      A,@DPTR
        MOV       R2,A
        MOV       R3,#0x0
        MOV       DPL,R6
        MOV       DPH,R7
        INC       DPTR
        MOVX      A,@DPTR
        MOV       R0,A
        MOV       R1,#0x0
        CLR       A
        XCH       A,R0
        MOV       R1,A
        MOV       A,R2
        ADD       A,R0
        MOV       R0,A
        MOV       A,R3
        ADDC      A,R1
        MOV       R1,A
        MOV       A,?V0
        ADD       A,#0xf
        MOV       DPL,A
        CLR       A
        ADDC      A,?V1
        MOV       DPH,A
        MOV       A,R0
        MOVX      @DPTR,A
        INC       DPTR
        MOV       A,R1
        MOVX      @DPTR,A
// 1932 
// 1933       status = pInterPANCBs->pfnNwkStartRsp( &(pInMsg->msg->srcAddr), pRsp );
        ; Setup parameters for indirect call
        MOV       R4,?V0
        MOV       R5,?V1
        MOV       DPL,?V4
        MOV       DPH,?V5
        MOVX      A,@DPTR
        ADD       A,#0x6
        MOV       R2,A
        INC       DPTR
        MOVX      A,@DPTR
        ADDC      A,#0x0
        MOV       R3,A
        MOV       DPTR,#pInterPANCBs
        MOVX      A,@DPTR
        MOV       R0,A
        INC       DPTR
        MOVX      A,@DPTR
        XCH       A,R0
        ADD       A,#0x14
        MOV       DPL,A
        XCH       A,R0
        ADDC      A,#0x0
        MOV       DPH,A
        MOVX      A,@DPTR
        MOV       R0,A
        INC       DPTR
        MOVX      A,@DPTR
        MOV       DPH,A
        MOV       DPL,R0
        LCALL     ?CALL_IND
        MOV       A,R1
        MOV       ?V2,A
// 1934 
// 1935       zcl_mem_free( pRsp );
        ; Setup parameters for call to function osal_mem_free
        MOV       R2,?V0
        MOV       R3,?V1
        LCALL     `??osal_mem_free::?relay`; Banked call to: osal_mem_free
// 1936     }
// 1937   }
// 1938 
// 1939   return ( status );
??bdbTL_ProcessInCmd_NwkStartRsp_0:
        MOV       R1,?V2
        MOV       R7,#0x8
        LJMP      ?BANKED_LEAVE_XDATA
// 1940 }
          CFI EndBlock cfiBlock39
// 1941 
// 1942 /*********************************************************************
// 1943  * @fn      bdbTL_ProcessInCmd_NwkJoinRtrRsp
// 1944  *
// 1945  * @brief   Process in the received Network Join Router Response command.
// 1946  *
// 1947  * @param   pInMsg - pointer to the incoming message
// 1948  *
// 1949  * @return  ZStatus_t
// 1950  */

        RSEG BANKED_CODE:HUGECODE:NOROOT(0)
// 1951 static ZStatus_t bdbTL_ProcessInCmd_NwkJoinRtrRsp( zclIncoming_t *pInMsg )
bdbTL_ProcessInCmd_NwkJoinRtrRsp:
          CFI Block cfiBlock40 Using cfiCommon0
          CFI Function bdbTL_ProcessInCmd_NwkJoinRtrRsp
        CODE
// 1952 {
        FUNCALL bdbTL_ProcessInCmd_NwkJoinRtrRsp, osal_build_uint32
        LOCFRAME ISTACK, 0, STACK
        LOCFRAME PSTACK, 0, STACK
        LOCFRAME XSTACK, 14, STACK
        LOCFRAME IOVERLAY, 0, STATIC
        LOCFRAME DOVERLAY, 0, STATIC
        ARGFRAME ISTACK, 0, STACK
        ARGFRAME PSTACK, 0, STACK
        ARGFRAME XSTACK, 14, STACK
        ARGFRAME IOVERLAY, 0, STATIC
        ARGFRAME DOVERLAY, 0, STATIC
        MOV       A,#-0x9
        LCALL     ?BANKED_ENTER_XDATA
          CFI DPH0 load(1, XDATA, add(CFA_XSP16, literal(-1)))
          CFI DPL0 load(1, XDATA, add(CFA_XSP16, literal(-2)))
          CFI ?BRET_EXT load(1, XDATA, add(CFA_XSP16, literal(-3)))
          CFI ?RET_HIGH load(1, XDATA, add(CFA_XSP16, literal(-4)))
          CFI ?RET_LOW load(1, XDATA, add(CFA_XSP16, literal(-5)))
          CFI R7 load(1, XDATA, add(CFA_XSP16, literal(-6)))
          CFI V0 load(1, XDATA, add(CFA_XSP16, literal(-7)))
          CFI VB load(1, XDATA, add(CFA_XSP16, literal(-8)))
          CFI R6 load(1, XDATA, add(CFA_XSP16, literal(-9)))
          CFI CFA_SP SP+0
          CFI CFA_XSP16 add(XSP16, 9)
        ; Saved register size: 9
        ; Auto size: 5
        MOV       A,#-0x5
        LCALL     ?ALLOC_XSTACK8
          CFI CFA_XSP16 add(XSP16, 14)
        MOV       A,R2
        MOV       R6,A
        MOV       A,R3
        MOV       R7,A
// 1953   if ( pInterPANCBs->pfnNwkJoinRtrRsp )
        MOV       DPTR,#pInterPANCBs
        MOVX      A,@DPTR
        MOV       R0,A
        INC       DPTR
        MOVX      A,@DPTR
        XCH       A,R0
        ADD       A,#0x16
        MOV       DPL,A
        XCH       A,R0
        ADDC      A,#0x0
        MOV       DPH,A
        MOVX      A,@DPTR
        MOV       R0,A
        INC       DPTR
        MOVX      A,@DPTR
        MOV       R1,A
        MOV       A,R0
        ORL       A,R1
        JZ        ??bdbTL_ProcessInCmd_NwkJoinRtrRsp_0
// 1954   {
// 1955     bdbTLNwkJoinRsp_t rsp;
// 1956 
// 1957     rsp.transID = zcl_build_uint32( pInMsg->pData, 4 );
        ; Setup parameters for call to function osal_build_uint32
        MOV       R1,#0x4
        MOV       DPL,R6
        MOV       DPH,R7
        INC       DPTR
        INC       DPTR
        INC       DPTR
        INC       DPTR
        INC       DPTR
        INC       DPTR
        INC       DPTR
        INC       DPTR
        MOVX      A,@DPTR
        MOV       R2,A
        INC       DPTR
        MOVX      A,@DPTR
        MOV       R3,A
        LCALL     `??osal_build_uint32::?relay`; Banked call to: osal_build_uint32
        MOV       A,R2
        MOV       R0,A
        MOV       A,R3
        MOV       R1,A
        MOV       A,R4
        MOV       R2,A
        MOV       A,R5
        MOV       R3,A
        MOV       DPL,?XSP + 0
        MOV       DPH,?XSP + 1
        LCALL     ?XSTORE_R0123
// 1958 
// 1959     rsp.status = pInMsg->pData[4];
        MOV       DPL,R6
        MOV       DPH,R7
        INC       DPTR
        INC       DPTR
        INC       DPTR
        INC       DPTR
        INC       DPTR
        INC       DPTR
        INC       DPTR
        INC       DPTR
        MOVX      A,@DPTR
        MOV       R0,A
        INC       DPTR
        MOVX      A,@DPTR
        MOV       DPH,A
        MOV       DPL,R0
        INC       DPTR
        INC       DPTR
        INC       DPTR
        INC       DPTR
        MOVX      A,@DPTR
        PUSH      A
          CFI CFA_SP SP+-1
        MOV       A,#0x4
        LCALL     ?XSTACK_DISP0_8
        POP       A
          CFI CFA_SP SP+0
        MOVX      @DPTR,A
// 1960 
// 1961     return ( pInterPANCBs->pfnNwkJoinRtrRsp( &(pInMsg->msg->srcAddr), &rsp ) );
        ; Setup parameters for indirect call
        MOV       R4,?XSP + 0
        MOV       R5,?XSP + 1
        MOV       DPL,R6
        MOV       DPH,R7
        MOVX      A,@DPTR
        ADD       A,#0x6
        MOV       R2,A
        INC       DPTR
        MOVX      A,@DPTR
        ADDC      A,#0x0
        MOV       R3,A
        MOV       DPTR,#pInterPANCBs
        MOVX      A,@DPTR
        MOV       R0,A
        INC       DPTR
        MOVX      A,@DPTR
        XCH       A,R0
        ADD       A,#0x16
        MOV       DPL,A
        XCH       A,R0
        ADDC      A,#0x0
        MOV       DPH,A
        MOVX      A,@DPTR
        MOV       R0,A
        INC       DPTR
        MOVX      A,@DPTR
        MOV       DPH,A
        MOV       DPL,R0
        LCALL     ?CALL_IND
        SJMP      ??bdbTL_ProcessInCmd_NwkJoinRtrRsp_1
// 1962   }
// 1963 
// 1964   return ( ZSuccess );
??bdbTL_ProcessInCmd_NwkJoinRtrRsp_0:
        MOV       R1,#0x0
??bdbTL_ProcessInCmd_NwkJoinRtrRsp_1:
        MOV       A,#0x5
        LCALL     ?DEALLOC_XSTACK8
          CFI CFA_XSP16 add(XSP16, 9)
        MOV       R7,#0x1
        LJMP      ?BANKED_LEAVE_XDATA
// 1965 }
          CFI EndBlock cfiBlock40
// 1966 
// 1967 
// 1968 /*********************************************************************
// 1969  * @fn      bdbTL_ProcessInCmd_NwkJoinEDRsp
// 1970  *
// 1971  * @brief   Process in the received Network Join End Device Response command.
// 1972  *
// 1973  * @param   pInMsg - pointer to the incoming message
// 1974  *
// 1975  * @return  ZStatus_t
// 1976  */

        RSEG BANKED_CODE:HUGECODE:NOROOT(0)
// 1977 static ZStatus_t bdbTL_ProcessInCmd_NwkJoinEDRsp( zclIncoming_t *pInMsg )
bdbTL_ProcessInCmd_NwkJoinEDRsp:
          CFI Block cfiBlock41 Using cfiCommon0
          CFI Function bdbTL_ProcessInCmd_NwkJoinEDRsp
        CODE
// 1978 {
        FUNCALL bdbTL_ProcessInCmd_NwkJoinEDRsp, osal_build_uint32
        LOCFRAME ISTACK, 0, STACK
        LOCFRAME PSTACK, 0, STACK
        LOCFRAME XSTACK, 14, STACK
        LOCFRAME IOVERLAY, 0, STATIC
        LOCFRAME DOVERLAY, 0, STATIC
        ARGFRAME ISTACK, 0, STACK
        ARGFRAME PSTACK, 0, STACK
        ARGFRAME XSTACK, 14, STACK
        ARGFRAME IOVERLAY, 0, STATIC
        ARGFRAME DOVERLAY, 0, STATIC
        MOV       A,#-0x9
        LCALL     ?BANKED_ENTER_XDATA
          CFI DPH0 load(1, XDATA, add(CFA_XSP16, literal(-1)))
          CFI DPL0 load(1, XDATA, add(CFA_XSP16, literal(-2)))
          CFI ?BRET_EXT load(1, XDATA, add(CFA_XSP16, literal(-3)))
          CFI ?RET_HIGH load(1, XDATA, add(CFA_XSP16, literal(-4)))
          CFI ?RET_LOW load(1, XDATA, add(CFA_XSP16, literal(-5)))
          CFI R7 load(1, XDATA, add(CFA_XSP16, literal(-6)))
          CFI V0 load(1, XDATA, add(CFA_XSP16, literal(-7)))
          CFI VB load(1, XDATA, add(CFA_XSP16, literal(-8)))
          CFI R6 load(1, XDATA, add(CFA_XSP16, literal(-9)))
          CFI CFA_SP SP+0
          CFI CFA_XSP16 add(XSP16, 9)
        ; Saved register size: 9
        ; Auto size: 5
        MOV       A,#-0x5
        LCALL     ?ALLOC_XSTACK8
          CFI CFA_XSP16 add(XSP16, 14)
        MOV       A,R2
        MOV       R6,A
        MOV       A,R3
        MOV       R7,A
// 1979   if ( pInterPANCBs->pfnNwkJoinEDRsp )
        MOV       DPTR,#pInterPANCBs
        MOVX      A,@DPTR
        MOV       R0,A
        INC       DPTR
        MOVX      A,@DPTR
        XCH       A,R0
        ADD       A,#0x18
        MOV       DPL,A
        XCH       A,R0
        ADDC      A,#0x0
        MOV       DPH,A
        MOVX      A,@DPTR
        MOV       R0,A
        INC       DPTR
        MOVX      A,@DPTR
        MOV       R1,A
        MOV       A,R0
        ORL       A,R1
        JZ        ??bdbTL_ProcessInCmd_NwkJoinEDRsp_0
// 1980   {
// 1981     bdbTLNwkJoinRsp_t rsp;
// 1982 
// 1983     rsp.transID = zcl_build_uint32( pInMsg->pData, 4 );
        ; Setup parameters for call to function osal_build_uint32
        MOV       R1,#0x4
        MOV       DPL,R6
        MOV       DPH,R7
        INC       DPTR
        INC       DPTR
        INC       DPTR
        INC       DPTR
        INC       DPTR
        INC       DPTR
        INC       DPTR
        INC       DPTR
        MOVX      A,@DPTR
        MOV       R2,A
        INC       DPTR
        MOVX      A,@DPTR
        MOV       R3,A
        LCALL     `??osal_build_uint32::?relay`; Banked call to: osal_build_uint32
        MOV       A,R2
        MOV       R0,A
        MOV       A,R3
        MOV       R1,A
        MOV       A,R4
        MOV       R2,A
        MOV       A,R5
        MOV       R3,A
        MOV       DPL,?XSP + 0
        MOV       DPH,?XSP + 1
        LCALL     ?XSTORE_R0123
// 1984 
// 1985     rsp.status = pInMsg->pData[4];
        MOV       DPL,R6
        MOV       DPH,R7
        INC       DPTR
        INC       DPTR
        INC       DPTR
        INC       DPTR
        INC       DPTR
        INC       DPTR
        INC       DPTR
        INC       DPTR
        MOVX      A,@DPTR
        MOV       R0,A
        INC       DPTR
        MOVX      A,@DPTR
        MOV       DPH,A
        MOV       DPL,R0
        INC       DPTR
        INC       DPTR
        INC       DPTR
        INC       DPTR
        MOVX      A,@DPTR
        PUSH      A
          CFI CFA_SP SP+-1
        MOV       A,#0x4
        LCALL     ?XSTACK_DISP0_8
        POP       A
          CFI CFA_SP SP+0
        MOVX      @DPTR,A
// 1986 
// 1987     return ( pInterPANCBs->pfnNwkJoinEDRsp( &(pInMsg->msg->srcAddr), &rsp ) );
        ; Setup parameters for indirect call
        MOV       R4,?XSP + 0
        MOV       R5,?XSP + 1
        MOV       DPL,R6
        MOV       DPH,R7
        MOVX      A,@DPTR
        ADD       A,#0x6
        MOV       R2,A
        INC       DPTR
        MOVX      A,@DPTR
        ADDC      A,#0x0
        MOV       R3,A
        MOV       DPTR,#pInterPANCBs
        MOVX      A,@DPTR
        MOV       R0,A
        INC       DPTR
        MOVX      A,@DPTR
        XCH       A,R0
        ADD       A,#0x18
        MOV       DPL,A
        XCH       A,R0
        ADDC      A,#0x0
        MOV       DPH,A
        MOVX      A,@DPTR
        MOV       R0,A
        INC       DPTR
        MOVX      A,@DPTR
        MOV       DPH,A
        MOV       DPL,R0
        LCALL     ?CALL_IND
        SJMP      ??bdbTL_ProcessInCmd_NwkJoinEDRsp_1
// 1988   }
// 1989 
// 1990   return ( ZSuccess );
??bdbTL_ProcessInCmd_NwkJoinEDRsp_0:
        MOV       R1,#0x0
??bdbTL_ProcessInCmd_NwkJoinEDRsp_1:
        MOV       A,#0x5
        LCALL     ?DEALLOC_XSTACK8
          CFI CFA_XSP16 add(XSP16, 9)
        MOV       R7,#0x1
        LJMP      ?BANKED_LEAVE_XDATA
// 1991 }
          CFI EndBlock cfiBlock41

        RSEG BANK_RELAYS:CODE:REORDER:NOROOT(0)
`??bdbTL_RegisterCmdCallbacks::?relay`:
        CODE
        LCALL   ?BDISPATCH
        DATA24
        DC24    bdbTL_RegisterCmdCallbacks

        RSEG BANK_RELAYS:CODE:REORDER:NOROOT(0)
`??bdbTL_RegisterInterPANCmdCallbacks::?relay`:
        CODE
        LCALL   ?BDISPATCH
        DATA24
        DC24    bdbTL_RegisterInterPANCmdCallbacks

        RSEG BANK_RELAYS:CODE:REORDER:NOROOT(0)
`??bdbTL_Send_ScanReq::?relay`:
        CODE
        LCALL   ?BDISPATCH
        DATA24
        DC24    bdbTL_Send_ScanReq

        RSEG BANK_RELAYS:CODE:REORDER:NOROOT(0)
`??bdbTL_Send_DeviceInfoReq::?relay`:
        CODE
        LCALL   ?BDISPATCH
        DATA24
        DC24    bdbTL_Send_DeviceInfoReq

        RSEG BANK_RELAYS:CODE:REORDER:NOROOT(0)
`??bdbTL_Send_IndentifyReq::?relay`:
        CODE
        LCALL   ?BDISPATCH
        DATA24
        DC24    bdbTL_Send_IndentifyReq

        RSEG BANK_RELAYS:CODE:REORDER:NOROOT(0)
`??bdbTL_Send_ResetToFNReq::?relay`:
        CODE
        LCALL   ?BDISPATCH
        DATA24
        DC24    bdbTL_Send_ResetToFNReq

        RSEG BANK_RELAYS:CODE:REORDER:NOROOT(0)
`??bdbTL_Send_NwkStartReq::?relay`:
        CODE
        LCALL   ?BDISPATCH
        DATA24
        DC24    bdbTL_Send_NwkStartReq

        RSEG BANK_RELAYS:CODE:REORDER:NOROOT(0)
`??bdbTL_Send_NwkJoinReq::?relay`:
        CODE
        LCALL   ?BDISPATCH
        DATA24
        DC24    bdbTL_Send_NwkJoinReq

        RSEG BANK_RELAYS:CODE:REORDER:NOROOT(0)
`??bdbTL_Send_NwkUpdateReq::?relay`:
        CODE
        LCALL   ?BDISPATCH
        DATA24
        DC24    bdbTL_Send_NwkUpdateReq

        RSEG BANK_RELAYS:CODE:REORDER:NOROOT(0)
`??bdbTL_Send_ScanRsp::?relay`:
        CODE
        LCALL   ?BDISPATCH
        DATA24
        DC24    bdbTL_Send_ScanRsp

        RSEG BANK_RELAYS:CODE:REORDER:NOROOT(0)
`??bdbTL_Send_DeviceInfoRsp::?relay`:
        CODE
        LCALL   ?BDISPATCH
        DATA24
        DC24    bdbTL_Send_DeviceInfoRsp

        RSEG BANK_RELAYS:CODE:REORDER:NOROOT(0)
`??bdbTL_Send_NwkStartRsp::?relay`:
        CODE
        LCALL   ?BDISPATCH
        DATA24
        DC24    bdbTL_Send_NwkStartRsp

        RSEG BANK_RELAYS:CODE:REORDER:NOROOT(0)
`??bdbTL_Send_NwkJoinRsp::?relay`:
        CODE
        LCALL   ?BDISPATCH
        DATA24
        DC24    bdbTL_Send_NwkJoinRsp

        RSEG BANK_RELAYS:CODE:REORDER:NOROOT(0)
`??bdbTL_Send_EndpointInfo::?relay`:
        CODE
        LCALL   ?BDISPATCH
        DATA24
        DC24    bdbTL_Send_EndpointInfo

        RSEG BANK_RELAYS:CODE:REORDER:NOROOT(0)
`??bdbTL_Send_GetGrpIDsRsp::?relay`:
        CODE
        LCALL   ?BDISPATCH
        DATA24
        DC24    bdbTL_Send_GetGrpIDsRsp

        RSEG BANK_RELAYS:CODE:REORDER:NOROOT(0)
`??bdbTL_Send_GetEPListRsp::?relay`:
        CODE
        LCALL   ?BDISPATCH
        DATA24
        DC24    bdbTL_Send_GetEPListRsp

        RSEG BANK_RELAYS:CODE:REORDER:NOROOT(0)
`??bdbTL_SendInterPANCommand::?relay`:
        CODE
        LCALL   ?BDISPATCH
        DATA24
        DC24    bdbTL_SendInterPANCommand

        RSEG BANK_RELAYS:CODE:REORDER:NOROOT(0)
`??bdbTL_FindCallbacks::?relay`:
        CODE
        LCALL   ?BDISPATCH
        DATA24
        DC24    bdbTL_FindCallbacks

        RSEG BANK_RELAYS:CODE:REORDER:NOROOT(0)
`??bdbTL_HdlIncoming::?relay`:
        CODE
        LCALL   ?BDISPATCH
        DATA24
        DC24    bdbTL_HdlIncoming

        RSEG BANK_RELAYS:CODE:REORDER:NOROOT(0)
`??bdbTL_HdlInSpecificCommands::?relay`:
        CODE
        LCALL   ?BDISPATCH
        DATA24
        DC24    bdbTL_HdlInSpecificCommands

        RSEG BANK_RELAYS:CODE:REORDER:NOROOT(0)
`??bdbTL_ProcessInLLCmds::?relay`:
        CODE
        LCALL   ?BDISPATCH
        DATA24
        DC24    bdbTL_ProcessInLLCmds

        RSEG BANK_RELAYS:CODE:REORDER:NOROOT(0)
`??bdbTL_ProcessInCmd_GetGrpIDsReq::?relay`:
        CODE
        LCALL   ?BDISPATCH
        DATA24
        DC24    bdbTL_ProcessInCmd_GetGrpIDsReq

        RSEG BANK_RELAYS:CODE:REORDER:NOROOT(0)
`??bdbTL_ProcessInCmd_GetEPListReq::?relay`:
        CODE
        LCALL   ?BDISPATCH
        DATA24
        DC24    bdbTL_ProcessInCmd_GetEPListReq

        RSEG BANK_RELAYS:CODE:REORDER:NOROOT(0)
`??bdbTL_ProcessInCmd_EndpointInfo::?relay`:
        CODE
        LCALL   ?BDISPATCH
        DATA24
        DC24    bdbTL_ProcessInCmd_EndpointInfo

        RSEG BANK_RELAYS:CODE:REORDER:NOROOT(0)
`??bdbTL_ProcessInCmd_GetGrpIDsRsp::?relay`:
        CODE
        LCALL   ?BDISPATCH
        DATA24
        DC24    bdbTL_ProcessInCmd_GetGrpIDsRsp

        RSEG BANK_RELAYS:CODE:REORDER:NOROOT(0)
`??bdbTL_ProcessInCmd_GetEPListRsp::?relay`:
        CODE
        LCALL   ?BDISPATCH
        DATA24
        DC24    bdbTL_ProcessInCmd_GetEPListRsp

        RSEG BANK_RELAYS:CODE:REORDER:NOROOT(0)
`??bdbTL_HdlInInterPANCommands::?relay`:
        CODE
        LCALL   ?BDISPATCH
        DATA24
        DC24    bdbTL_HdlInInterPANCommands

        RSEG BANK_RELAYS:CODE:REORDER:NOROOT(0)
`??bdbTL_ProcessInLLInterPANCmds::?relay`:
        CODE
        LCALL   ?BDISPATCH
        DATA24
        DC24    bdbTL_ProcessInLLInterPANCmds

        RSEG BANK_RELAYS:CODE:REORDER:NOROOT(0)
`??bdbTL_ProcessInCmd_ScanReq::?relay`:
        CODE
        LCALL   ?BDISPATCH
        DATA24
        DC24    bdbTL_ProcessInCmd_ScanReq

        RSEG BANK_RELAYS:CODE:REORDER:NOROOT(0)
`??bdbTL_ProcessInCmd_DeviceInfoReq::?relay`:
        CODE
        LCALL   ?BDISPATCH
        DATA24
        DC24    bdbTL_ProcessInCmd_DeviceInfoReq

        RSEG BANK_RELAYS:CODE:REORDER:NOROOT(0)
`??bdbTL_ProcessInCmd_IdentifyReq::?relay`:
        CODE
        LCALL   ?BDISPATCH
        DATA24
        DC24    bdbTL_ProcessInCmd_IdentifyReq

        RSEG BANK_RELAYS:CODE:REORDER:NOROOT(0)
`??bdbTL_ProcessInCmd_ResetToFNReq::?relay`:
        CODE
        LCALL   ?BDISPATCH
        DATA24
        DC24    bdbTL_ProcessInCmd_ResetToFNReq

        RSEG BANK_RELAYS:CODE:REORDER:NOROOT(0)
`??bdbTL_ProcessInCmd_NwkStartReq::?relay`:
        CODE
        LCALL   ?BDISPATCH
        DATA24
        DC24    bdbTL_ProcessInCmd_NwkStartReq

        RSEG BANK_RELAYS:CODE:REORDER:NOROOT(0)
`??bdbTL_ParseInCmd_NwkJoinReq::?relay`:
        CODE
        LCALL   ?BDISPATCH
        DATA24
        DC24    bdbTL_ParseInCmd_NwkJoinReq

        RSEG BANK_RELAYS:CODE:REORDER:NOROOT(0)
`??bdbTL_ProcessInCmd_NwkJoinRtrReq::?relay`:
        CODE
        LCALL   ?BDISPATCH
        DATA24
        DC24    bdbTL_ProcessInCmd_NwkJoinRtrReq

        RSEG BANK_RELAYS:CODE:REORDER:NOROOT(0)
`??bdbTL_ProcessInCmd_NwkJoinEDReq::?relay`:
        CODE
        LCALL   ?BDISPATCH
        DATA24
        DC24    bdbTL_ProcessInCmd_NwkJoinEDReq

        RSEG BANK_RELAYS:CODE:REORDER:NOROOT(0)
`??bdbTL_ProcessInCmd_NwkUpdateReq::?relay`:
        CODE
        LCALL   ?BDISPATCH
        DATA24
        DC24    bdbTL_ProcessInCmd_NwkUpdateReq

        RSEG BANK_RELAYS:CODE:REORDER:NOROOT(0)
`??bdbTL_ProcessInCmd_ScanRsp::?relay`:
        CODE
        LCALL   ?BDISPATCH
        DATA24
        DC24    bdbTL_ProcessInCmd_ScanRsp

        RSEG BANK_RELAYS:CODE:REORDER:NOROOT(0)
`??bdbTL_ProcessInCmd_DeviceInfoRsp::?relay`:
        CODE
        LCALL   ?BDISPATCH
        DATA24
        DC24    bdbTL_ProcessInCmd_DeviceInfoRsp

        RSEG BANK_RELAYS:CODE:REORDER:NOROOT(0)
`??bdbTL_ProcessInCmd_NwkStartRsp::?relay`:
        CODE
        LCALL   ?BDISPATCH
        DATA24
        DC24    bdbTL_ProcessInCmd_NwkStartRsp

        RSEG BANK_RELAYS:CODE:REORDER:NOROOT(0)
`??bdbTL_ProcessInCmd_NwkJoinRtrRsp::?relay`:
        CODE
        LCALL   ?BDISPATCH
        DATA24
        DC24    bdbTL_ProcessInCmd_NwkJoinRtrRsp

        RSEG BANK_RELAYS:CODE:REORDER:NOROOT(0)
`??bdbTL_ProcessInCmd_NwkJoinEDRsp::?relay`:
        CODE
        LCALL   ?BDISPATCH
        DATA24
        DC24    bdbTL_ProcessInCmd_NwkJoinEDRsp

        END
// 1992 
// 1993 #endif // BDB_TL_TARGET || BDB_TL_INITIATOR
// 1994 
// 1995 /********************************************************************************************
// 1996 *********************************************************************************************/
// 
// 14 055 bytes in segment BANKED_CODE
//    252 bytes in segment BANK_RELAYS
//      5 bytes in segment XDATA_Z
// 
//    252 bytes of CODE     memory
// 14 055 bytes of HUGECODE memory
//      5 bytes of XDATA    memory
//
//Errors: none
//Warnings: none
