///////////////////////////////////////////////////////////////////////////////
//
// IAR C/C++ Compiler V10.30.1.6000 for 8051              30/Jul/2020  15:22:09
// Copyright 2004-2018 IAR Systems AB.
// PC-locked license - IAR Embedded Workbench for 8051
//
//    Core               =  plain
//    Code model         =  banked
//    Data model         =  large
//    Calling convention =  xdata reentrant
//    Constant location  =  data_rom
//    Dptr setup         =  1,16
//                          
//    Source file        =  
//        D:\AA\Z-Stack 3.0.2\Components\hal\target\CC2530EB\hal_key.c
//    Command line       =  
//        -f C:\Users\sunli\AppData\Local\Temp\EW8A5.tmp ("D:\AA\Z-Stack
//        3.0.2\Components\hal\target\CC2530EB\hal_key.c" -D SECURE=1 -D
//        TC_LINKKEY_JOIN -D NV_INIT -D NV_RESTORE -D xPOWER_SAVING -D
//        NWK_AUTO_POLL -D xZTOOL_P1 -D xMT_TASK -D xMT_APP_FUNC -D
//        xMT_SYS_FUNC -D xMT_ZDO_FUNC -D xMT_ZDO_MGMT -D xMT_APP_CNF_FUNC -D
//        LCD_SUPPORTED=DEBUG -D MULTICAST_ENABLED=FALSE -D ZCL_READ -D
//        ZCL_DISCOVER -D ZCL_WRITE -D ZCL_BASIC -D ZCL_IDENTIFY -D ZCL_ON_OFF
//        -D ZCL_GROUPS -D BDB_TL_INITIATOR -D INTER_PAN -lC "D:\AA\Z-Stack
//        3.0.2\Projects\zstack\HomeAutomation\SampleSwitch\CC2530DB\EndDeviceEB\List"
//        -lA "D:\AA\Z-Stack
//        3.0.2\Projects\zstack\HomeAutomation\SampleSwitch\CC2530DB\EndDeviceEB\List"
//        --diag_suppress Pe001,Pa010 -o "D:\AA\Z-Stack
//        3.0.2\Projects\zstack\HomeAutomation\SampleSwitch\CC2530DB\EndDeviceEB\Obj"
//        -e --debug --core=plain --dptr=16,1 --data_model=large
//        --code_model=banked --calling_convention=xdata_reentrant
//        --place_constants=data_rom --nr_virtual_regs 16 -f "D:\AA\Z-Stack
//        3.0.2\Projects\zstack\HomeAutomation\SampleSwitch\CC2530DB\..\..\..\Tools\CC2530DB\f8wEndev.cfg"
//        (-DCPU32MHZ -DROOT=__near_func -DMAC_CFG_TX_DATA_MAX=3
//        -DMAC_CFG_TX_MAX=6 -DMAC_CFG_RX_MAX=3) -f "D:\AA\Z-Stack
//        3.0.2\Projects\zstack\HomeAutomation\SampleSwitch\CC2530DB\..\..\..\Tools\CC2530DB\f8wConfig.cfg"
//        (-DZIGBEEPRO -DSECURE=1 -DZG_SECURE_DYNAMIC=0 -DREFLECTOR
//        -DDEFAULT_CHANLIST=0x00000800 -DZDAPP_CONFIG_PAN_ID=0xFFFF
//        -DNWK_START_DELAY=100 -DEXTENDED_JOINING_RANDOM_MASK=0x007F
//        -DBEACON_REQUEST_DELAY=100 -DBEACON_REQ_DELAY_MASK=0x00FF
//        -DLINK_STATUS_JITTER_MASK=0x007F -DROUTE_EXPIRY_TIME=30
//        -DAPSC_ACK_WAIT_DURATION_POLLED=3000 -DNWK_INDIRECT_MSG_TIMEOUT=7
//        -DMAX_RREQ_ENTRIES=8 -DAPSC_MAX_FRAME_RETRIES=3
//        -DNWK_MAX_DATA_RETRIES=2 -DMAX_POLL_FAILURE_RETRIES=2 -DMAX_BCAST=9
//        -DAPS_MAX_GROUPS=16 -DMAX_RTG_ENTRIES=40 -DNWK_MAX_BINDING_ENTRIES=4
//        -DMAX_BINDING_CLUSTER_IDS=4 -DDEFAULT_KEY={0}
//        -DMAC_MAX_FRAME_SIZE=116 -DZDNWKMGR_MIN_TRANSMISSIONS=20
//        "-DCONST=const __code" -DGENERIC=__generic -DRFD_RCVC_ALWAYS_ON=FALSE
//        -DPOLL_RATE=1000 -DQUEUED_POLL_RATE=100 -DRESPONSE_POLL_RATE=100
//        -DREJOIN_POLL_RATE=440 -DREJOIN_BACKOFF=900000 -DREJOIN_SCAN=900000
//        -DENABLE_LED4_DISABLE_S1) -f "D:\AA\Z-Stack
//        3.0.2\Projects\zstack\HomeAutomation\SampleSwitch\CC2530DB\..\..\..\Tools\CC2530DB\f8wZCL.cfg"
//        -I "D:\AA\Z-Stack
//        3.0.2\Projects\zstack\HomeAutomation\SampleSwitch\CC2530DB\" -I
//        "D:\AA\Z-Stack
//        3.0.2\Projects\zstack\HomeAutomation\SampleSwitch\CC2530DB\..\Source\"
//        -I "D:\AA\Z-Stack
//        3.0.2\Projects\zstack\HomeAutomation\SampleSwitch\CC2530DB\..\..\Source\"
//        -I "D:\AA\Z-Stack
//        3.0.2\Projects\zstack\HomeAutomation\SampleSwitch\CC2530DB\..\..\..\ZMain\TI2530DB\"
//        -I "D:\AA\Z-Stack
//        3.0.2\Projects\zstack\HomeAutomation\SampleSwitch\CC2530DB\..\..\..\..\..\Components\hal\include\"
//        -I "D:\AA\Z-Stack
//        3.0.2\Projects\zstack\HomeAutomation\SampleSwitch\CC2530DB\..\..\..\..\..\Components\hal\target\CC2530EB\"
//        -I "D:\AA\Z-Stack
//        3.0.2\Projects\zstack\HomeAutomation\SampleSwitch\CC2530DB\..\..\..\..\..\Components\mac\include\"
//        -I "D:\AA\Z-Stack
//        3.0.2\Projects\zstack\HomeAutomation\SampleSwitch\CC2530DB\..\..\..\..\..\Components\mac\high_level\"
//        -I "D:\AA\Z-Stack
//        3.0.2\Projects\zstack\HomeAutomation\SampleSwitch\CC2530DB\..\..\..\..\..\Components\mac\low_level\srf04\"
//        -I "D:\AA\Z-Stack
//        3.0.2\Projects\zstack\HomeAutomation\SampleSwitch\CC2530DB\..\..\..\..\..\Components\mac\low_level\srf04\single_chip\"
//        -I "D:\AA\Z-Stack
//        3.0.2\Projects\zstack\HomeAutomation\SampleSwitch\CC2530DB\..\..\..\..\..\Components\mt\"
//        -I "D:\AA\Z-Stack
//        3.0.2\Projects\zstack\HomeAutomation\SampleSwitch\CC2530DB\..\..\..\..\..\Components\osal\include\"
//        -I "D:\AA\Z-Stack
//        3.0.2\Projects\zstack\HomeAutomation\SampleSwitch\CC2530DB\..\..\..\..\..\Components\services\saddr\"
//        -I "D:\AA\Z-Stack
//        3.0.2\Projects\zstack\HomeAutomation\SampleSwitch\CC2530DB\..\..\..\..\..\Components\services\sdata\"
//        -I "D:\AA\Z-Stack
//        3.0.2\Projects\zstack\HomeAutomation\SampleSwitch\CC2530DB\..\..\..\..\..\Components\stack\af\"
//        -I "D:\AA\Z-Stack
//        3.0.2\Projects\zstack\HomeAutomation\SampleSwitch\CC2530DB\..\..\..\..\..\Components\stack\bdb\"
//        -I "D:\AA\Z-Stack
//        3.0.2\Projects\zstack\HomeAutomation\SampleSwitch\CC2530DB\..\..\..\..\..\Components\stack\gp\"
//        -I "D:\AA\Z-Stack
//        3.0.2\Projects\zstack\HomeAutomation\SampleSwitch\CC2530DB\..\..\..\..\..\Components\stack\nwk\"
//        -I "D:\AA\Z-Stack
//        3.0.2\Projects\zstack\HomeAutomation\SampleSwitch\CC2530DB\..\..\..\..\..\Components\stack\sapi\"
//        -I "D:\AA\Z-Stack
//        3.0.2\Projects\zstack\HomeAutomation\SampleSwitch\CC2530DB\..\..\..\..\..\Components\stack\sec\"
//        -I "D:\AA\Z-Stack
//        3.0.2\Projects\zstack\HomeAutomation\SampleSwitch\CC2530DB\..\..\..\..\..\Components\stack\sys\"
//        -I "D:\AA\Z-Stack
//        3.0.2\Projects\zstack\HomeAutomation\SampleSwitch\CC2530DB\..\..\..\..\..\Components\stack\zcl\"
//        -I "D:\AA\Z-Stack
//        3.0.2\Projects\zstack\HomeAutomation\SampleSwitch\CC2530DB\..\..\..\..\..\Components\stack\zdo\"
//        -I "D:\AA\Z-Stack
//        3.0.2\Projects\zstack\HomeAutomation\SampleSwitch\CC2530DB\..\..\..\..\..\Components\zmac\"
//        -I "D:\AA\Z-Stack
//        3.0.2\Projects\zstack\HomeAutomation\SampleSwitch\CC2530DB\..\..\..\..\..\Components\zmac\f8w\"
//        -On --require_prototypes --no_cse --no_unroll --no_inline
//        --no_code_motion --no_tbaa --no_cross_call)
//    Locale             =  Chinese (Simplified)_CHN.936
//    List file          =  
//        D:\AA\Z-Stack
//        3.0.2\Projects\zstack\HomeAutomation\SampleSwitch\CC2530DB\EndDeviceEB\List\hal_key.s51
//
///////////////////////////////////////////////////////////////////////////////

        NAME hal_key

        RTMODEL "__SystemLibrary", "CLib"
        RTMODEL "__calling_convention", "xdata_reentrant"
        RTMODEL "__code_model", "banked"
        RTMODEL "__core", "plain"
        RTMODEL "__data_model", "large"
        RTMODEL "__dptr_size", "16"
        RTMODEL "__extended_stack", "disabled"
        RTMODEL "__location_for_constants", "data"
        RTMODEL "__number_of_dptrs", "1"
        RTMODEL "__register_banks", "*"
        RTMODEL "__rt_version", "1"

        RSEG DOVERLAY:DATA:NOROOT(0)
        RSEG IOVERLAY:IDATA:NOROOT(0)
        RSEG ISTACK:IDATA:NOROOT(0)
        RSEG PSTACK:XDATA:NOROOT(0)
        RSEG XSTACK:XDATA:NOROOT(0)

        EXTERN ?V0
        EXTERN ?BANKED_ENTER_XDATA
        EXTERN ?BANKED_LEAVE_XDATA
        EXTERN ?BDISPATCH
        EXTERN ?BRET
        EXTERN ?CALL_IND
        EXTERN ?DEALLOC_XSTACK8
        EXTERN ?INTERRUPT_ENTER_XSP
        EXTERN ?INTERRUPT_LEAVE_XSP
        EXTERN ?PUSH_XSTACK8_X_FOUR
        EXTERN __INIT_XDATA_Z

        PUBLIC `??HalKeyConfig::?relay`
        FUNCTION `??HalKeyConfig::?relay`,0203H
        PUBLIC `??HalKeyEnterSleep::?relay`
        FUNCTION `??HalKeyEnterSleep::?relay`,0203H
        PUBLIC `??HalKeyExitSleep::?relay`
        FUNCTION `??HalKeyExitSleep::?relay`,0203H
        PUBLIC `??HalKeyInit::?relay`
        FUNCTION `??HalKeyInit::?relay`,0203H
        PUBLIC `??HalKeyPoll::?relay`
        FUNCTION `??HalKeyPoll::?relay`,0203H
        PUBLIC `??HalKeyRead::?relay`
        FUNCTION `??HalKeyRead::?relay`,0203H
        PUBLIC `??halGetJoyKeyInput::?relay`
        FUNCTION `??halGetJoyKeyInput::?relay`,0203H
        PUBWEAK `??halKeyPort0Isr::??INTVEC 107`
        PUBWEAK `??halKeyPort2Isr::??INTVEC 51`
        PUBLIC `??halProcessKeyInterrupt::?relay`
        FUNCTION `??halProcessKeyInterrupt::?relay`,0203H
        PUBLIC HalKeyConfig
        FUNCTION HalKeyConfig,0a1203H
        ARGFRAME XSTACK, 0, STACK
        LOCFRAME XSTACK, 9, STACK
        PUBLIC HalKeyEnterSleep
        FUNCTION HalKeyEnterSleep,0203H
        ARGFRAME XSTACK, 0, STACK
        PUBLIC HalKeyExitSleep
        FUNCTION HalKeyExitSleep,021203H
        ARGFRAME XSTACK, 0, STACK
        LOCFRAME ISTACK, 2, STACK
        PUBLIC HalKeyInit
        FUNCTION HalKeyInit,0203H
        ARGFRAME XSTACK, 0, STACK
        LOCFRAME ISTACK, 2, STACK
        PUBLIC HalKeyPoll
        FUNCTION HalKeyPoll,021203H
        ARGFRAME XSTACK, 0, STACK
        LOCFRAME XSTACK, 9, STACK
        PUBLIC HalKeyRead
        FUNCTION HalKeyRead,021203H
        ARGFRAME XSTACK, 0, STACK
        ARGFRAME IOVERLAY, 0, STATIC
        ARGFRAME DOVERLAY, 0, STATIC
        LOCFRAME XSTACK, 9, STACK
        PUBLIC Hal_KeyIntEnable
        PUBWEAK IEN2
        PUBWEAK P0DIR
        PUBWEAK P0IEN
        PUBWEAK P0IFG
        PUBWEAK P0INP
        PUBWEAK P0SEL
        PUBWEAK P2DIR
        PUBWEAK P2IEN
        PUBWEAK P2IFG
        PUBWEAK P2INP
        PUBWEAK P2SEL
        PUBWEAK PICTL
        PUBWEAK _A_IEN0
        PUBWEAK _A_IEN1
        PUBWEAK _A_IRCON
        PUBWEAK _A_IRCON2
        PUBWEAK _A_P0
        PUBWEAK _A_P2
        PUBWEAK __Constant_19
        PUBLIC halGetJoyKeyInput
        FUNCTION halGetJoyKeyInput,0a1203H
        ARGFRAME XSTACK, 9, STACK
        ARGFRAME IOVERLAY, 0, STATIC
        ARGFRAME DOVERLAY, 0, STATIC
        LOCFRAME XSTACK, 9, STACK
        PUBLIC halKeyPort0Isr
        FUNCTION halKeyPort0Isr,021233H
        ARGFRAME XSTACK, 0, STACK
        LOCFRAME XSTACK, 14, STACK
        PUBLIC halKeyPort2Isr
        FUNCTION halKeyPort2Isr,021233H
        ARGFRAME XSTACK, 0, STACK
        LOCFRAME XSTACK, 14, STACK
        PUBLIC halProcessKeyInterrupt
        FUNCTION halProcessKeyInterrupt,021203H
        ARGFRAME XSTACK, 14, STACK
        ARGFRAME IOVERLAY, 0, STATIC
        ARGFRAME DOVERLAY, 0, STATIC
        LOCFRAME XSTACK, 13, STACK
        
          CFI Names cfiNames0
          CFI StackFrame CFA_SP SP IDATA
          CFI StackFrame CFA_PSP16 PSP16 XDATA
          CFI StackFrame CFA_XSP16 XSP16 XDATA
          CFI StaticOverlayFrame CFA_IOVERLAY IOVERLAY
          CFI StaticOverlayFrame CFA_DOVERLAY DOVERLAY
          CFI Resource `PSW.CY`:1, `B.BR0`:1, `B.BR1`:1, `B.BR2`:1, `B.BR3`:1
          CFI Resource `B.BR4`:1, `B.BR5`:1, `B.BR6`:1, `B.BR7`:1, `VB.BR8`:1
          CFI Resource `VB.BR9`:1, `VB.BR10`:1, `VB.BR11`:1, `VB.BR12`:1
          CFI Resource `VB.BR13`:1, `VB.BR14`:1, `VB.BR15`:1, VB:8, B:8, A:8
          CFI Resource PSW:8, DPL0:8, DPH0:8, R0:8, R1:8, R2:8, R3:8, R4:8, R5:8
          CFI Resource R6:8, R7:8, V0:8, V1:8, V2:8, V3:8, V4:8, V5:8, V6:8, V7:8
          CFI Resource V8:8, V9:8, V10:8, V11:8, V12:8, V13:8, V14:8, V15:8, SP:8
          CFI Resource PSPH:8, PSPL:8, PSP16:16, XSPH:8, XSPL:8, XSP16:16
          CFI VirtualResource ?RET:24
          CFI Resource ?BRET_EXT:8
          CFI VirtualResource ?RET_HIGH:8, ?RET_LOW:8
          CFI ResourceParts PSP16 PSPH, PSPL
          CFI ResourceParts XSP16 XSPH, XSPL
          CFI ResourceParts ?RET ?BRET_EXT, ?RET_HIGH, ?RET_LOW
          CFI EndNames cfiNames0
        
          CFI Common cfiCommon0 Using cfiNames0
          CFI CodeAlign 1
          CFI DataAlign -1
          CFI ReturnAddress ?RET CODE
          CFI CFA_DOVERLAY Used
          CFI CFA_IOVERLAY Used
          CFI CFA_SP SP+-3
          CFI CFA_PSP16 PSP16+0
          CFI CFA_XSP16 XSP16+0
          CFI `PSW.CY` SameValue
          CFI `B.BR0` SameValue
          CFI `B.BR1` SameValue
          CFI `B.BR2` SameValue
          CFI `B.BR3` SameValue
          CFI `B.BR4` SameValue
          CFI `B.BR5` SameValue
          CFI `B.BR6` SameValue
          CFI `B.BR7` SameValue
          CFI `VB.BR8` SameValue
          CFI `VB.BR9` SameValue
          CFI `VB.BR10` SameValue
          CFI `VB.BR11` SameValue
          CFI `VB.BR12` SameValue
          CFI `VB.BR13` SameValue
          CFI `VB.BR14` SameValue
          CFI `VB.BR15` SameValue
          CFI VB SameValue
          CFI B Undefined
          CFI A Undefined
          CFI PSW SameValue
          CFI DPL0 SameValue
          CFI DPH0 SameValue
          CFI R0 Undefined
          CFI R1 Undefined
          CFI R2 Undefined
          CFI R3 Undefined
          CFI R4 Undefined
          CFI R5 Undefined
          CFI R6 SameValue
          CFI R7 SameValue
          CFI V0 SameValue
          CFI V1 SameValue
          CFI V2 SameValue
          CFI V3 SameValue
          CFI V4 SameValue
          CFI V5 SameValue
          CFI V6 SameValue
          CFI V7 SameValue
          CFI V8 SameValue
          CFI V9 SameValue
          CFI V10 SameValue
          CFI V11 SameValue
          CFI V12 SameValue
          CFI V13 SameValue
          CFI V14 SameValue
          CFI V15 SameValue
          CFI PSPH Undefined
          CFI PSPL Undefined
          CFI XSPH Undefined
          CFI XSPL Undefined
          CFI ?RET Concat
          CFI ?BRET_EXT Frame(CFA_SP, 3)
          CFI ?RET_HIGH Frame(CFA_SP, 2)
          CFI ?RET_LOW Frame(CFA_SP, 1)
          CFI EndCommon cfiCommon0
        
        
          CFI Common cfiCommon1 Using cfiNames0
          CFI CodeAlign 1
          CFI DataAlign -1
          CFI ReturnAddress ?RET CODE
          CFI CFA_DOVERLAY Used
          CFI CFA_IOVERLAY Used
          CFI CFA_SP SP+-2
          CFI CFA_PSP16 PSP16+0
          CFI CFA_XSP16 XSP16+0
          CFI `PSW.CY` SameValue
          CFI `B.BR0` SameValue
          CFI `B.BR1` SameValue
          CFI `B.BR2` SameValue
          CFI `B.BR3` SameValue
          CFI `B.BR4` SameValue
          CFI `B.BR5` SameValue
          CFI `B.BR6` SameValue
          CFI `B.BR7` SameValue
          CFI `VB.BR8` SameValue
          CFI `VB.BR9` SameValue
          CFI `VB.BR10` SameValue
          CFI `VB.BR11` SameValue
          CFI `VB.BR12` SameValue
          CFI `VB.BR13` SameValue
          CFI `VB.BR14` SameValue
          CFI `VB.BR15` SameValue
          CFI VB SameValue
          CFI B SameValue
          CFI A SameValue
          CFI PSW SameValue
          CFI DPL0 SameValue
          CFI DPH0 SameValue
          CFI R0 SameValue
          CFI R1 SameValue
          CFI R2 SameValue
          CFI R3 SameValue
          CFI R4 SameValue
          CFI R5 SameValue
          CFI R6 SameValue
          CFI R7 SameValue
          CFI V0 SameValue
          CFI V1 SameValue
          CFI V2 SameValue
          CFI V3 SameValue
          CFI V4 SameValue
          CFI V5 SameValue
          CFI V6 SameValue
          CFI V7 SameValue
          CFI V8 SameValue
          CFI V9 SameValue
          CFI V10 SameValue
          CFI V11 SameValue
          CFI V12 SameValue
          CFI V13 SameValue
          CFI V14 SameValue
          CFI V15 SameValue
          CFI PSPH Undefined
          CFI PSPL Undefined
          CFI XSPH Undefined
          CFI XSPL Undefined
          CFI ?RET Concat
          CFI ?BRET_EXT SameValue
          CFI ?RET_HIGH Frame(CFA_SP, 2)
          CFI ?RET_LOW Frame(CFA_SP, 1)
          CFI EndCommon cfiCommon1
        
HalAdcRead          SYMBOL "HalAdcRead"
`??HalAdcRead::?relay` SYMBOL "?relay", HalAdcRead
osal_set_event      SYMBOL "osal_set_event"
`??osal_set_event::?relay` SYMBOL "?relay", osal_set_event
osal_start_timerEx  SYMBOL "osal_start_timerEx"
`??osal_start_timerEx::?relay` SYMBOL "?relay", osal_start_timerEx
osal_stop_timerEx   SYMBOL "osal_stop_timerEx"
`??osal_stop_timerEx::?relay` SYMBOL "?relay", osal_stop_timerEx
HalKeyConfig        SYMBOL "HalKeyConfig"
`??HalKeyConfig::?relay` SYMBOL "?relay", HalKeyConfig
HalKeyEnterSleep    SYMBOL "HalKeyEnterSleep"
`??HalKeyEnterSleep::?relay` SYMBOL "?relay", HalKeyEnterSleep
HalKeyExitSleep     SYMBOL "HalKeyExitSleep"
`??HalKeyExitSleep::?relay` SYMBOL "?relay", HalKeyExitSleep
HalKeyInit          SYMBOL "HalKeyInit"
`??HalKeyInit::?relay` SYMBOL "?relay", HalKeyInit
HalKeyPoll          SYMBOL "HalKeyPoll"
`??HalKeyPoll::?relay` SYMBOL "?relay", HalKeyPoll
HalKeyRead          SYMBOL "HalKeyRead"
`??HalKeyRead::?relay` SYMBOL "?relay", HalKeyRead
halGetJoyKeyInput   SYMBOL "halGetJoyKeyInput"
`??halGetJoyKeyInput::?relay` SYMBOL "?relay", halGetJoyKeyInput
halKeyPort0Isr      SYMBOL "halKeyPort0Isr"
`??halKeyPort0Isr::??INTVEC 107` SYMBOL "??INTVEC 107", halKeyPort0Isr
halKeyPort2Isr      SYMBOL "halKeyPort2Isr"
`??halKeyPort2Isr::??INTVEC 51` SYMBOL "??INTVEC 51", halKeyPort2Isr
halProcessKeyInterrupt SYMBOL "halProcessKeyInterrupt"
`??halProcessKeyInterrupt::?relay` SYMBOL "?relay", halProcessKeyInterrupt

        EXTERN `??HalAdcRead::?relay`
        FUNCTION `??HalAdcRead::?relay`,00H
        EXTERN `??osal_set_event::?relay`
        FUNCTION `??osal_set_event::?relay`,00H
        EXTERN `??osal_start_timerEx::?relay`
        FUNCTION `??osal_start_timerEx::?relay`,00H
        EXTERN `??osal_stop_timerEx::?relay`
        FUNCTION `??osal_stop_timerEx::?relay`,00H
        EXTERN HalAdcRead
        FUNCTION HalAdcRead,0202H
        ARGFRAME ISTACK, 0, STACK
        ARGFRAME PSTACK, 0, STACK
        ARGFRAME XSTACK, 9, STACK
        ARGFRAME IOVERLAY, 0, STATIC
        ARGFRAME DOVERLAY, 0, STATIC
        EXTERN Hal_TaskID
        EXTERN osal_set_event
        FUNCTION osal_set_event,0202H
        ARGFRAME ISTACK, 0, STACK
        ARGFRAME PSTACK, 0, STACK
        ARGFRAME XSTACK, 9, STACK
        ARGFRAME IOVERLAY, 0, STATIC
        ARGFRAME DOVERLAY, 0, STATIC
        EXTERN osal_start_timerEx
        FUNCTION osal_start_timerEx,0202H
        ARGFRAME ISTACK, 0, STACK
        ARGFRAME PSTACK, 0, STACK
        ARGFRAME XSTACK, 13, STACK
        ARGFRAME IOVERLAY, 0, STATIC
        ARGFRAME DOVERLAY, 0, STATIC
        EXTERN osal_stop_timerEx
        FUNCTION osal_stop_timerEx,0202H
        ARGFRAME ISTACK, 0, STACK
        ARGFRAME PSTACK, 0, STACK
        ARGFRAME XSTACK, 9, STACK
        ARGFRAME IOVERLAY, 0, STATIC
        ARGFRAME DOVERLAY, 0, STATIC

// D:\AA\Z-Stack 3.0.2\Components\hal\target\CC2530EB\hal_key.c
//    1 /**************************************************************************************************
//    2   Filename:       hal_key.c
//    3   Revised:        $Date: 2010-09-15 19:02:45 -0700 (Wed, 15 Sep 2010) $
//    4   Revision:       $Revision: 23815 $
//    5 
//    6   Description:    This file contains the interface to the HAL KEY Service.
//    7 
//    8 
//    9   Copyright 2006-2010 Texas Instruments Incorporated. All rights reserved.
//   10 
//   11   IMPORTANT: Your use of this Software is limited to those specific rights
//   12   granted under the terms of a software license agreement between the user
//   13   who downloaded the software, his/her employer (which must be your employer)
//   14   and Texas Instruments Incorporated (the "License").  You may not use this
//   15   Software unless you agree to abide by the terms of the License. The License
//   16   limits your use, and you acknowledge, that the Software may not be modified,
//   17   copied or distributed unless embedded on a Texas Instruments microcontroller
//   18   or used solely and exclusively in conjunction with a Texas Instruments radio
//   19   frequency transceiver, which is integrated into your product.  Other than for
//   20   the foregoing purpose, you may not use, reproduce, copy, prepare derivative
//   21   works of, modify, distribute, perform, display or sell this Software and/or
//   22   its documentation for any purpose.
//   23 
//   24   YOU FURTHER ACKNOWLEDGE AND AGREE THAT THE SOFTWARE AND DOCUMENTATION ARE
//   25   PROVIDED “AS IS” WITHOUT WARRANTY OF ANY KIND, EITHER EXPRESS OR IMPLIED,
//   26   INCLUDING WITHOUT LIMITATION, ANY WARRANTY OF MERCHANTABILITY, TITLE,
//   27   NON-INFRINGEMENT AND FITNESS FOR A PARTICULAR PURPOSE. IN NO EVENT SHALL
//   28   TEXAS INSTRUMENTS OR ITS LICENSORS BE LIABLE OR OBLIGATED UNDER CONTRACT,
//   29   NEGLIGENCE, STRICT LIABILITY, CONTRIBUTION, BREACH OF WARRANTY, OR OTHER
//   30   LEGAL EQUITABLE THEORY ANY DIRECT OR INDIRECT DAMAGES OR EXPENSES
//   31   INCLUDING BUT NOT LIMITED TO ANY INCIDENTAL, SPECIAL, INDIRECT, PUNITIVE
//   32   OR CONSEQUENTIAL DAMAGES, LOST PROFITS OR LOST DATA, COST OF PROCUREMENT
//   33   OF SUBSTITUTE GOODS, TECHNOLOGY, SERVICES, OR ANY CLAIMS BY THIRD PARTIES
//   34   (INCLUDING BUT NOT LIMITED TO ANY DEFENSE THEREOF), OR OTHER SIMILAR COSTS.
//   35 
//   36   Should you have any questions regarding your right to use this Software,
//   37   contact Texas Instruments Incorporated at www.TI.com.
//   38 **************************************************************************************************/
//   39 /*********************************************************************
//   40  NOTE: If polling is used, the hal_driver task schedules the KeyRead()
//   41        to occur every 100ms.  This should be long enough to naturally
//   42        debounce the keys.  The KeyRead() function remembers the key
//   43        state of the previous poll and will only return a non-zero
//   44        value if the key state changes.
//   45 
//   46  NOTE: If interrupts are used, the KeyRead() function is scheduled
//   47        25ms after the interrupt occurs by the ISR.  This delay is used
//   48        for key debouncing.  The ISR disables any further Key interrupt
//   49        until KeyRead() is executed.  KeyRead() will re-enable Key
//   50        interrupts after executing.  Unlike polling, when interrupts
//   51        are enabled, the previous key state is not remembered.  This
//   52        means that KeyRead() will return the current state of the keys
//   53        (not a change in state of the keys).
//   54 
//   55  NOTE: If interrupts are used, the KeyRead() fucntion is scheduled by
//   56        the ISR.  Therefore, the joystick movements will only be detected
//   57        during a pushbutton interrupt caused by S1 or the center joystick
//   58        pushbutton.
//   59 
//   60  NOTE: When a switch like S1 is pushed, the S1 signal goes from a normally
//   61        high state to a low state.  This transition is typically clean.  The
//   62        duration of the low state is around 200ms.  When the signal returns
//   63        to the high state, there is a high likelihood of signal bounce, which
//   64        causes a unwanted interrupts.  Normally, we would set the interrupt
//   65        edge to falling edge to generate an interrupt when S1 is pushed, but
//   66        because of the signal bounce, it is better to set the edge to rising
//   67        edge to generate an interrupt when S1 is released.  The debounce logic
//   68        can then filter out the signal bounce.  The result is that we typically
//   69        get only 1 interrupt per button push.  This mechanism is not totally
//   70        foolproof because occasionally, signal bound occurs during the falling
//   71        edge as well.  A similar mechanism is used to handle the joystick
//   72        pushbutton on the DB.  For the EB, we do not have independent control
//   73        of the interrupt edge for the S1 and center joystick pushbutton.  As
//   74        a result, only one or the other pushbuttons work reasonably well with
//   75        interrupts.  The default is the make the S1 switch on the EB work more
//   76        reliably.
//   77 
//   78 *********************************************************************/
//   79 
//   80 /**************************************************************************************************
//   81  *                                            INCLUDES
//   82  **************************************************************************************************/
//   83 #include "hal_mcu.h"

        ASEGN SFR_AN:DATA:NOROOT,080H
// union <unnamed> volatile __sfr _A_P0
_A_P0:
        DATA8
        DS 1

        ASEGN SFR_AN:DATA:NOROOT,089H
// unsigned char volatile __sfr P0IFG
P0IFG:
        DATA8
        DS 1

        ASEGN SFR_AN:DATA:NOROOT,08bH
// unsigned char volatile __sfr P2IFG
P2IFG:
        DATA8
        DS 1

        ASEGN SFR_AN:DATA:NOROOT,08cH
// unsigned char volatile __sfr PICTL
PICTL:
        DATA8
        DS 1

        ASEGN SFR_AN:DATA:NOROOT,08fH
// unsigned char volatile __sfr P0INP
P0INP:
        DATA8
        DS 1

        ASEGN SFR_AN:DATA:NOROOT,09aH
// unsigned char volatile __sfr IEN2
IEN2:
        DATA8
        DS 1

        ASEGN SFR_AN:DATA:NOROOT,0a0H
// union <unnamed> volatile __sfr _A_P2
_A_P2:
        DATA8
        DS 1

        ASEGN SFR_AN:DATA:NOROOT,0a8H
// union <unnamed> volatile __sfr _A_IEN0
_A_IEN0:
        DATA8
        DS 1

        ASEGN SFR_AN:DATA:NOROOT,0abH
// unsigned char volatile __sfr P0IEN
P0IEN:
        DATA8
        DS 1

        ASEGN SFR_AN:DATA:NOROOT,0acH
// unsigned char volatile __sfr P2IEN
P2IEN:
        DATA8
        DS 1

        ASEGN SFR_AN:DATA:NOROOT,0b8H
// union <unnamed> volatile __sfr _A_IEN1
_A_IEN1:
        DATA8
        DS 1

        ASEGN SFR_AN:DATA:NOROOT,0c0H
// union <unnamed> volatile __sfr _A_IRCON
_A_IRCON:
        DATA8
        DS 1

        ASEGN SFR_AN:DATA:NOROOT,0e8H
// union <unnamed> volatile __sfr _A_IRCON2
_A_IRCON2:
        DATA8
        DS 1

        ASEGN SFR_AN:DATA:NOROOT,0f3H
// unsigned char volatile __sfr P0SEL
P0SEL:
        DATA8
        DS 1

        ASEGN SFR_AN:DATA:NOROOT,0f5H
// unsigned char volatile __sfr P2SEL
P2SEL:
        DATA8
        DS 1

        ASEGN SFR_AN:DATA:NOROOT,0f7H
// unsigned char volatile __sfr P2INP
P2INP:
        DATA8
        DS 1

        ASEGN SFR_AN:DATA:NOROOT,0fdH
// unsigned char volatile __sfr P0DIR
P0DIR:
        DATA8
        DS 1

        ASEGN SFR_AN:DATA:NOROOT,0ffH
// unsigned char volatile __sfr P2DIR
P2DIR:
        DATA8
        DS 1
//   84 #include "hal_defs.h"
//   85 #include "hal_types.h"
//   86 #include "hal_board.h"
//   87 #include "hal_drivers.h"
//   88 #include "hal_adc.h"
//   89 #include "hal_key.h"
//   90 #include "osal.h"
//   91 
//   92 #if (defined HAL_KEY) && (HAL_KEY == TRUE)
//   93 
//   94 /**************************************************************************************************
//   95  *                                              MACROS
//   96  **************************************************************************************************/
//   97 
//   98 /**************************************************************************************************
//   99  *                                            CONSTANTS
//  100  **************************************************************************************************/
//  101 #define HAL_KEY_RISING_EDGE   0
//  102 #define HAL_KEY_FALLING_EDGE  1
//  103 
//  104 #define HAL_KEY_DEBOUNCE_VALUE  25
//  105 
//  106 /* CPU port interrupt */
//  107 #define HAL_KEY_CPU_PORT_0_IF P0IF
//  108 #define HAL_KEY_CPU_PORT_2_IF P2IF
//  109 
//  110 /* SW_6 is at P0.1 */
//  111 #define HAL_KEY_SW_6_PORT   P0
//  112 #define HAL_KEY_SW_6_BIT    BV(1)
//  113 #define HAL_KEY_SW_6_SEL    P0SEL
//  114 #define HAL_KEY_SW_6_DIR    P0DIR
//  115 
//  116 /* SW3 */
//  117 #define HAL_KEY_SW3_PORT   P0
//  118 #define HAL_KEY_SW3_BIT    BV(5)
//  119 #define HAL_KEY_SW3_SEL    P0SEL
//  120 #define HAL_KEY_SW3_DIR    P0DIR
//  121 
//  122 /* edge interrupt */ 
//  123 #define HAL_KEY_SW_6_EDGEBIT  BV(0)
//  124 #define HAL_KEY_SW_6_EDGE     HAL_KEY_FALLING_EDGE
//  125 
//  126 #define HAL_KEY_SW3_EDGEBIT  BV(3)
//  127 #define HAL_KEY_SW3_EDGE     HAL_KEY_FALLING_EDGE
//  128 
//  129 /* SW_6 interrupts */
//  130 #define HAL_KEY_SW_6_IEN      IEN1  /* CPU interrupt mask register */
//  131 #define HAL_KEY_SW_6_IENBIT   BV(5) /* Mask bit for all of Port_0 */
//  132 #define HAL_KEY_SW_6_ICTL     P0IEN /* Port Interrupt Control register */
//  133 #define HAL_KEY_SW_6_ICTLBIT  BV(1) /* P0IEN - P0.1 enable/disable bit */
//  134 #define HAL_KEY_SW_6_PXIFG    P0IFG /* Interrupt flag at source */
//  135 
//  136 #define HAL_KEY_SW3_IEN      IEN1  /* CPU interrupt mask register */
//  137 #define HAL_KEY_SW3_IENBIT   BV(5) /* Mask bit for all of Port_2 */
//  138 #define HAL_KEY_SW3_ICTL     P0IEN /* Port Interrupt Control register */
//  139 #define HAL_KEY_SW3_ICTLBIT  BV(5) /* P2IENL - P2.0<->P2.3 enable/disable bit */
//  140 #define HAL_KEY_SW3_PXIFG    P0IFG /* Interrupt flag at source */
//  141 
//  142 /* Joy stick move at P2.0 */
//  143 #define HAL_KEY_JOY_MOVE_PORT   P2
//  144 #define HAL_KEY_JOY_MOVE_BIT    BV(0)
//  145 #define HAL_KEY_JOY_MOVE_SEL    P2SEL
//  146 #define HAL_KEY_JOY_MOVE_DIR    P2DIR
//  147 
//  148 /* edge interrupt */
//  149 #define HAL_KEY_JOY_MOVE_EDGEBIT  BV(3)
//  150 //#define HAL_KEY_JOY_MOVE_EDGE     HAL_KEY_FALLING_EDGE 
//  151 #define HAL_KEY_JOY_MOVE_EDGE     HAL_KEY_RISING_EDGE
//  152 
//  153 /* Joy move interrupts */
//  154 #define HAL_KEY_JOY_MOVE_IEN      IEN2  /* CPU interrupt mask register */
//  155 #define HAL_KEY_JOY_MOVE_IENBIT   BV(1) /* Mask bit for all of Port_2 */
//  156 #define HAL_KEY_JOY_MOVE_ICTL     P2IEN /* Port Interrupt Control register */
//  157 #define HAL_KEY_JOY_MOVE_ICTLBIT  BV(0) /* P2IENL - P2.0<->P2.3 enable/disable bit */
//  158 #define HAL_KEY_JOY_MOVE_PXIFG    P2IFG /* Interrupt flag at source */
//  159 
//  160 #define HAL_KEY_JOY_CHN   HAL_ADC_CHANNEL_6
//  161 
//  162 
//  163 /**************************************************************************************************
//  164  *                                            TYPEDEFS
//  165  **************************************************************************************************/
//  166 
//  167 
//  168 /**************************************************************************************************
//  169  *                                        GLOBAL VARIABLES
//  170  **************************************************************************************************/

        RSEG XDATA_Z:XDATA:NOROOT(0)
        DATA8
//  171 static uint8 halKeySavedKeys;     /* used to store previous key state in polling mode */
halKeySavedKeys:
        DS 1
        REQUIRE __INIT_XDATA_Z

        RSEG XDATA_Z:XDATA:NOROOT(0)
        DATA16
//  172 static halKeyCBack_t pHalKeyProcessFunction;
pHalKeyProcessFunction:
        DS 2
        REQUIRE __INIT_XDATA_Z

        RSEG XDATA_Z:XDATA:NOROOT(0)
        DATA8
//  173 static uint8 HalKeyConfigured;
HalKeyConfigured:
        DS 1
        REQUIRE __INIT_XDATA_Z

        RSEG XDATA_Z:XDATA:NOROOT(0)
        DATA8
//  174 bool Hal_KeyIntEnable;            /* interrupt enable/disable flag */
Hal_KeyIntEnable:
        DS 1
        REQUIRE __INIT_XDATA_Z
//  175 
//  176 /**************************************************************************************************
//  177  *                                        FUNCTIONS - Local
//  178  **************************************************************************************************/
//  179 void halProcessKeyInterrupt(void);
//  180 uint8 halGetJoyKeyInput(void);
//  181 
//  182 
//  183 
//  184 /**************************************************************************************************
//  185  *                                        FUNCTIONS - API
//  186  **************************************************************************************************/
//  187 
//  188 
//  189 /**************************************************************************************************
//  190  * @fn      HalKeyInit
//  191  *
//  192  * @brief   Initilize Key Service
//  193  *
//  194  * @param   none
//  195  *
//  196  * @return  None
//  197  **************************************************************************************************/

        RSEG BANKED_CODE:HUGECODE:NOROOT(0)
//  198 void HalKeyInit( void )
HalKeyInit:
          CFI Block cfiBlock0 Using cfiCommon0
          CFI Function HalKeyInit
        CODE
//  199 {
        PUSH      DPL
          CFI DPL0 Frame(CFA_SP, 4)
          CFI CFA_SP SP+-4
        PUSH      DPH
          CFI DPH0 Frame(CFA_SP, 5)
          CFI CFA_SP SP+-5
        ; Saved register size: 2
        ; Auto size: 0
//  200   /* Initialize previous key to 0 */
//  201   halKeySavedKeys = 0;
        MOV       DPTR,#halKeySavedKeys
        MOV       A,#0x0
        MOVX      @DPTR,A
//  202 
//  203   HAL_KEY_SW_6_SEL &= ~(HAL_KEY_SW_6_BIT);    /* Set pin function to GPIO */
        ANL       0xf3,#0xfd
//  204   HAL_KEY_SW_6_DIR &= ~(HAL_KEY_SW_6_BIT);    /* Set pin direction to Input */
        ANL       0xfd,#0xfd
//  205   P0INP &= ~(HAL_KEY_SW_6_BIT);
        ANL       0x8f,#0xfd
//  206   P2INP &= ~BV(5);
        ANL       0xf7,#0xdf
//  207   
//  208   HAL_KEY_JOY_MOVE_SEL &= ~(HAL_KEY_JOY_MOVE_BIT); /* Set pin function to GPIO */
        ANL       0xf5,#0xfe
//  209   HAL_KEY_JOY_MOVE_DIR &= ~(HAL_KEY_JOY_MOVE_BIT); /* Set pin direction to Input */
        ANL       0xff,#0xfe
//  210   P2INP &= ~(HAL_KEY_JOY_MOVE_BIT);
        ANL       0xf7,#0xfe
//  211   P2INP |= BV(7);
        ORL       0xf7,#0x80
//  212 
//  213   HAL_KEY_SW3_SEL &= ~(HAL_KEY_SW3_BIT); /* Set pin function to GPIO */
        ANL       0xf3,#0xdf
//  214   HAL_KEY_SW3_DIR &= ~(HAL_KEY_SW3_BIT); /* Set pin direction to Input */
        ANL       0xfd,#0xdf
//  215   P0INP &= ~(HAL_KEY_SW3_BIT);
        ANL       0x8f,#0xdf
//  216 
//  217   /* Initialize callback function */
//  218   pHalKeyProcessFunction  = NULL;
        MOV       DPTR,#pHalKeyProcessFunction
        MOV       A,#0x0
        MOVX      @DPTR,A
        INC       DPTR
        MOV       A,#0x0
        MOVX      @DPTR,A
//  219 
//  220   /* Start with key is not configured */
//  221   HalKeyConfigured = FALSE;
        MOV       DPTR,#HalKeyConfigured
        MOV       A,#0x0
        MOVX      @DPTR,A
//  222 }
        POP       DPH
          CFI DPH0 SameValue
          CFI CFA_SP SP+-4
        POP       DPL
          CFI DPL0 SameValue
          CFI CFA_SP SP+-3
        LJMP      ?BRET
          CFI EndBlock cfiBlock0
        REQUIRE P0SEL
        REQUIRE P0DIR
        REQUIRE P0INP
        REQUIRE P2INP
        REQUIRE P2SEL
        REQUIRE P2DIR
//  223 
//  224 
//  225 /**************************************************************************************************
//  226  * @fn      HalKeyConfig
//  227  *
//  228  * @brief   Configure the Key serivce
//  229  *
//  230  * @param   interruptEnable - TRUE/FALSE, enable/disable interrupt
//  231  *          cback - pointer to the CallBack function
//  232  *
//  233  * @return  None
//  234  **************************************************************************************************/

        RSEG BANKED_CODE:HUGECODE:NOROOT(0)
//  235 void HalKeyConfig (bool interruptEnable, halKeyCBack_t cback)
HalKeyConfig:
          CFI Block cfiBlock1 Using cfiCommon0
          CFI Function HalKeyConfig
        CODE
//  236 {
        FUNCALL HalKeyConfig, osal_stop_timerEx
        LOCFRAME ISTACK, 0, STACK
        LOCFRAME PSTACK, 0, STACK
        LOCFRAME XSTACK, 9, STACK
        LOCFRAME IOVERLAY, 0, STATIC
        LOCFRAME DOVERLAY, 0, STATIC
        ARGFRAME ISTACK, 0, STACK
        ARGFRAME PSTACK, 0, STACK
        ARGFRAME XSTACK, 9, STACK
        ARGFRAME IOVERLAY, 0, STATIC
        ARGFRAME DOVERLAY, 0, STATIC
        FUNCALL HalKeyConfig, osal_set_event
        LOCFRAME ISTACK, 0, STACK
        LOCFRAME PSTACK, 0, STACK
        LOCFRAME XSTACK, 9, STACK
        LOCFRAME IOVERLAY, 0, STATIC
        LOCFRAME DOVERLAY, 0, STATIC
        ARGFRAME ISTACK, 0, STACK
        ARGFRAME PSTACK, 0, STACK
        ARGFRAME XSTACK, 9, STACK
        ARGFRAME IOVERLAY, 0, STATIC
        ARGFRAME DOVERLAY, 0, STATIC
        REQUIRE ?V0
        MOV       A,#-0x9
        LCALL     ?BANKED_ENTER_XDATA
          CFI DPH0 load(1, XDATA, add(CFA_XSP16, literal(-1)))
          CFI DPL0 load(1, XDATA, add(CFA_XSP16, literal(-2)))
          CFI ?BRET_EXT load(1, XDATA, add(CFA_XSP16, literal(-3)))
          CFI ?RET_HIGH load(1, XDATA, add(CFA_XSP16, literal(-4)))
          CFI ?RET_LOW load(1, XDATA, add(CFA_XSP16, literal(-5)))
          CFI R7 load(1, XDATA, add(CFA_XSP16, literal(-6)))
          CFI V0 load(1, XDATA, add(CFA_XSP16, literal(-7)))
          CFI VB load(1, XDATA, add(CFA_XSP16, literal(-8)))
          CFI R6 load(1, XDATA, add(CFA_XSP16, literal(-9)))
          CFI CFA_SP SP+0
          CFI CFA_XSP16 add(XSP16, 9)
        ; Saved register size: 9
        ; Auto size: 0
        MOV       ?V0,R1
        MOV       A,R2
        MOV       R6,A
        MOV       A,R3
        MOV       R7,A
//  237   /* Enable/Disable Interrupt or */
//  238   Hal_KeyIntEnable = interruptEnable;
        MOV       A,?V0
        MOV       DPTR,#Hal_KeyIntEnable
        MOVX      @DPTR,A
//  239 
//  240   /* Register the callback fucntion */
//  241   pHalKeyProcessFunction = cback;
        MOV       DPTR,#pHalKeyProcessFunction
        MOV       A,R6
        MOVX      @DPTR,A
        INC       DPTR
        MOV       A,R7
        MOVX      @DPTR,A
//  242 
//  243   /* Determine if interrupt is enable or not */
//  244   if (Hal_KeyIntEnable)
        MOV       DPTR,#Hal_KeyIntEnable
        MOVX      A,@DPTR
        JZ        ??HalKeyConfig_0
//  245   {
//  246     /* Rising/Falling edge configuratinn */
//  247 
//  248     PICTL &= ~(HAL_KEY_SW_6_EDGEBIT);    /* Clear the edge bit */
        ANL       0x8c,#0xfe
//  249     /* For falling edge, the bit must be set. */
//  250   #if (HAL_KEY_SW_6_EDGE == HAL_KEY_FALLING_EDGE)
//  251     PICTL |= HAL_KEY_SW_6_EDGEBIT;
        ORL       0x8c,#0x1
//  252   #endif
//  253 
//  254 
//  255     /* Interrupt configuration:
//  256      * - Enable interrupt generation at the port
//  257      * - Enable CPU interrupt
//  258      * - Clear any pending interrupt
//  259      */
//  260     HAL_KEY_SW_6_ICTL |= HAL_KEY_SW_6_ICTLBIT;
        ORL       0xab,#0x2
//  261     HAL_KEY_SW_6_IEN |= HAL_KEY_SW_6_IENBIT;
        SETB      0xb8.5
//  262     HAL_KEY_SW_6_PXIFG = ~(HAL_KEY_SW_6_BIT);
        MOV       0x89,#-0x3
//  263 
//  264 
//  265 
//  266     /* Rising/Falling edge configuratinn */
//  267 
//  268     HAL_KEY_JOY_MOVE_ICTL &= ~(HAL_KEY_JOY_MOVE_EDGEBIT);    /* Clear the edge bit */
        ANL       0xac,#0xf7
//  269     /* For falling edge, the bit must be set. */
//  270   #if (HAL_KEY_JOY_MOVE_EDGE == HAL_KEY_RISING_EDGE)
//  271 //    HAL_KEY_JOY_MOVE_ICTL &= ~HAL_KEY_JOY_MOVE_EDGEBIT;
//  272     PICTL &= ~HAL_KEY_JOY_MOVE_EDGEBIT;
        ANL       0x8c,#0xf7
//  273   #endif
//  274 
//  275 
//  276     /* Interrupt configuration:
//  277      * - Enable interrupt generation at the port
//  278      * - Enable CPU interrupt
//  279      * - Clear any pending interrupt
//  280      */
//  281     HAL_KEY_JOY_MOVE_ICTL |= HAL_KEY_JOY_MOVE_ICTLBIT;
        ORL       0xac,#0x1
//  282     HAL_KEY_JOY_MOVE_IEN |= HAL_KEY_JOY_MOVE_IENBIT;
        ORL       0x9a,#0x2
//  283     HAL_KEY_JOY_MOVE_PXIFG = ~(HAL_KEY_JOY_MOVE_BIT);
        MOV       0x8b,#-0x2
//  284 
//  285     
//  286 
//  287     /* SW3 INIT */
//  288     HAL_KEY_SW3_ICTL &= ~(HAL_KEY_SW3_EDGEBIT);    /* Clear the edge bit */
        ANL       0xab,#0xf7
//  289     /* For falling edge, the bit must be set. */
//  290   #if (HAL_KEY_JOY_MOVE_EDGE == HAL_KEY_RISING_EDGE)
//  291 //    HAL_KEY_SW3_ICTL &= ~HAL_KEY_SW3_EDGEBIT;
//  292     PICTL |= HAL_KEY_SW_6_EDGEBIT;
        ORL       0x8c,#0x1
//  293   #endif
//  294 
//  295 
//  296     /* Interrupt configuration:
//  297      * - Enable interrupt generation at the port
//  298      * - Enable CPU interrupt
//  299      * - Clear any pending interrupt
//  300      */
//  301     HAL_KEY_SW3_ICTL |= HAL_KEY_SW3_ICTLBIT;
        ORL       0xab,#0x20
//  302     HAL_KEY_SW3_IEN |= HAL_KEY_SW3_IENBIT;
        SETB      0xb8.5
//  303     HAL_KEY_SW3_PXIFG = ~(HAL_KEY_SW3_BIT);
        MOV       0x89,#-0x21
//  304 
//  305 
//  306     /* Do this only after the hal_key is configured - to work with sleep stuff */
//  307     if (HalKeyConfigured == TRUE)
        MOV       DPTR,#HalKeyConfigured
        MOVX      A,@DPTR
        XRL       A,#0x1
        JNZ       ??HalKeyConfig_1
//  308     {
//  309       osal_stop_timerEx(Hal_TaskID, HAL_KEY_EVENT);  /* Cancel polling if active */
        ; Setup parameters for call to function osal_stop_timerEx
        MOV       R2,#0x10
        MOV       R3,#0x0
        MOV       DPTR,#Hal_TaskID
        MOVX      A,@DPTR
        MOV       R1,A
        LCALL     `??osal_stop_timerEx::?relay`; Banked call to: osal_stop_timerEx
        MOV       A,R1
        SJMP      ??HalKeyConfig_1
//  310     }
//  311   }
//  312   else    /* Interrupts NOT enabled */
//  313   {
//  314     HAL_KEY_SW_6_ICTL &= ~(HAL_KEY_SW_6_ICTLBIT); /* don't generate interrupt */
??HalKeyConfig_0:
        ANL       0xab,#0xfd
//  315     HAL_KEY_SW_6_IEN &= ~(HAL_KEY_SW_6_IENBIT);   /* Clear interrupt enable bit */
        CLR       0xb8.5
//  316 
//  317     osal_set_event(Hal_TaskID, HAL_KEY_EVENT);
        ; Setup parameters for call to function osal_set_event
        MOV       R2,#0x10
        MOV       R3,#0x0
        MOV       DPTR,#Hal_TaskID
        MOVX      A,@DPTR
        MOV       R1,A
        LCALL     `??osal_set_event::?relay`; Banked call to: osal_set_event
        MOV       A,R1
//  318   }
//  319 
//  320   /* Key now is configured */
//  321   HalKeyConfigured = TRUE;
??HalKeyConfig_1:
        MOV       DPTR,#HalKeyConfigured
        MOV       A,#0x1
        MOVX      @DPTR,A
//  322 }
        MOV       R7,#0x1
        LJMP      ?BANKED_LEAVE_XDATA
          CFI EndBlock cfiBlock1
        REQUIRE PICTL
        REQUIRE P0IEN
        REQUIRE _A_IEN1
        REQUIRE P0IFG
        REQUIRE P2IEN
        REQUIRE IEN2
        REQUIRE P2IFG
//  323 
//  324 
//  325 /**************************************************************************************************
//  326  * @fn      HalKeyRead
//  327  *
//  328  * @brief   Read the current value of a key
//  329  *
//  330  * @param   None
//  331  *
//  332  * @return  keys - current keys status
//  333  **************************************************************************************************/

        RSEG BANKED_CODE:HUGECODE:NOROOT(0)
//  334 uint8 HalKeyRead ( void )
HalKeyRead:
          CFI Block cfiBlock2 Using cfiCommon0
          CFI Function HalKeyRead
        CODE
//  335 {
        FUNCALL HalKeyRead, halGetJoyKeyInput
        LOCFRAME ISTACK, 0, STACK
        LOCFRAME PSTACK, 0, STACK
        LOCFRAME XSTACK, 9, STACK
        LOCFRAME IOVERLAY, 0, STATIC
        LOCFRAME DOVERLAY, 0, STATIC
        ARGFRAME ISTACK, 0, STACK
        ARGFRAME PSTACK, 0, STACK
        ARGFRAME XSTACK, 9, STACK
        ARGFRAME IOVERLAY, 0, STATIC
        ARGFRAME DOVERLAY, 0, STATIC
        MOV       A,#-0x9
        LCALL     ?BANKED_ENTER_XDATA
          CFI DPH0 load(1, XDATA, add(CFA_XSP16, literal(-1)))
          CFI DPL0 load(1, XDATA, add(CFA_XSP16, literal(-2)))
          CFI ?BRET_EXT load(1, XDATA, add(CFA_XSP16, literal(-3)))
          CFI ?RET_HIGH load(1, XDATA, add(CFA_XSP16, literal(-4)))
          CFI ?RET_LOW load(1, XDATA, add(CFA_XSP16, literal(-5)))
          CFI R7 load(1, XDATA, add(CFA_XSP16, literal(-6)))
          CFI V0 load(1, XDATA, add(CFA_XSP16, literal(-7)))
          CFI VB load(1, XDATA, add(CFA_XSP16, literal(-8)))
          CFI R6 load(1, XDATA, add(CFA_XSP16, literal(-9)))
          CFI CFA_SP SP+0
          CFI CFA_XSP16 add(XSP16, 9)
        ; Saved register size: 9
        ; Auto size: 0
//  336   uint8 keys = 0;
        MOV       R6,#0x0
//  337 
//  338   if (HAL_PUSH_BUTTON1())
        MOV       C,0x80.1
        JC        ??HalKeyRead_0
//  339   {
//  340     keys |= HAL_KEY_SW_6;
        SETB      C
        MOV       A,R6
        MOV       0xE0 /* A   */.5,C
        MOV       R6,A
//  341   }
//  342 
//  343   if ((HAL_KEY_JOY_MOVE_PORT & HAL_KEY_JOY_MOVE_BIT))  /* Key is active low */
??HalKeyRead_0:
        MOV       C,0xa0.0
        JNC       ??HalKeyRead_1
//  344   {
//  345     keys |= halGetJoyKeyInput();
        ; Setup parameters for call to function halGetJoyKeyInput
        LCALL     `??halGetJoyKeyInput::?relay`; Banked call to: halGetJoyKeyInput
        MOV       A,R1
        XCH       A,R6
        ORL       A,R6
        XCH       A,R6
//  346   }
//  347 
//  348   return keys;
??HalKeyRead_1:
        MOV       A,R6
        MOV       R1,A
        MOV       R7,#0x1
        LJMP      ?BANKED_LEAVE_XDATA
          CFI EndBlock cfiBlock2
        REQUIRE _A_P0
        REQUIRE _A_P2
//  349 }
//  350 
//  351 
//  352 /**************************************************************************************************
//  353  * @fn      HalKeyPoll
//  354  *
//  355  * @brief   Called by hal_driver to poll the keys
//  356  *
//  357  * @param   None
//  358  *
//  359  * @return  None
//  360  **************************************************************************************************/

        RSEG BANKED_CODE:HUGECODE:NOROOT(0)
//  361 void HalKeyPoll (void)
HalKeyPoll:
          CFI Block cfiBlock3 Using cfiCommon0
          CFI Function HalKeyPoll
        CODE
//  362 {
        FUNCALL HalKeyPoll, halGetJoyKeyInput
        LOCFRAME ISTACK, 0, STACK
        LOCFRAME PSTACK, 0, STACK
        LOCFRAME XSTACK, 9, STACK
        LOCFRAME IOVERLAY, 0, STATIC
        LOCFRAME DOVERLAY, 0, STATIC
        ARGFRAME ISTACK, 0, STACK
        ARGFRAME PSTACK, 0, STACK
        ARGFRAME XSTACK, 9, STACK
        ARGFRAME IOVERLAY, 0, STATIC
        ARGFRAME DOVERLAY, 0, STATIC
        MOV       A,#-0x9
        LCALL     ?BANKED_ENTER_XDATA
          CFI DPH0 load(1, XDATA, add(CFA_XSP16, literal(-1)))
          CFI DPL0 load(1, XDATA, add(CFA_XSP16, literal(-2)))
          CFI ?BRET_EXT load(1, XDATA, add(CFA_XSP16, literal(-3)))
          CFI ?RET_HIGH load(1, XDATA, add(CFA_XSP16, literal(-4)))
          CFI ?RET_LOW load(1, XDATA, add(CFA_XSP16, literal(-5)))
          CFI R7 load(1, XDATA, add(CFA_XSP16, literal(-6)))
          CFI V0 load(1, XDATA, add(CFA_XSP16, literal(-7)))
          CFI VB load(1, XDATA, add(CFA_XSP16, literal(-8)))
          CFI R6 load(1, XDATA, add(CFA_XSP16, literal(-9)))
          CFI CFA_SP SP+0
          CFI CFA_XSP16 add(XSP16, 9)
        ; Saved register size: 9
        ; Auto size: 0
//  363   uint8 keys = 0;
        MOV       R6,#0x0
//  364 
//  365   if ((HAL_KEY_JOY_MOVE_PORT & HAL_KEY_JOY_MOVE_BIT))  /* Key is active HIGH */
        MOV       C,0xa0.0
        JNC       ??HalKeyPoll_0
//  366   {
//  367     keys = halGetJoyKeyInput();
        ; Setup parameters for call to function halGetJoyKeyInput
        LCALL     `??halGetJoyKeyInput::?relay`; Banked call to: halGetJoyKeyInput
        MOV       A,R1
        MOV       R6,A
//  368   }
//  369 
//  370   /* If interrupts are not enabled, previous key status and current key status
//  371    * are compared to find out if a key has changed status.
//  372    */
//  373   if (!Hal_KeyIntEnable)
??HalKeyPoll_0:
        MOV       DPTR,#Hal_KeyIntEnable
        MOVX      A,@DPTR
        JNZ       ??HalKeyPoll_1
//  374   {
//  375     if (keys == halKeySavedKeys)
        MOV       DPTR,#halKeySavedKeys
        MOVX      A,@DPTR
        XRL       A,R6
        JZ        ??HalKeyPoll_2
//  376     {
//  377       /* Exit - since no keys have changed */
//  378       return;
//  379     }
//  380     /* Store the current keys for comparation next time */
//  381     halKeySavedKeys = keys;
        MOV       A,R6
        MOV       DPTR,#halKeySavedKeys
        MOVX      @DPTR,A
        SJMP      ??HalKeyPoll_3
//  382   }
//  383   else
//  384   {
//  385     /* Key interrupt handled here */
//  386     if (HAL_PUSH_BUTTON1())
??HalKeyPoll_1:
        MOV       C,0x80.1
        JC        ??HalKeyPoll_4
//  387     {
//  388       keys |= HAL_KEY_SW_6;
        SETB      C
        MOV       A,R6
        MOV       0xE0 /* A   */.5,C
        MOV       R6,A
        SJMP      ??HalKeyPoll_3
//  389     }
//  390     else if (HAL_PUSH_BUTTON2())
??HalKeyPoll_4:
        MOV       C,0xa0.0
        JNC       ??HalKeyPoll_5
//  391     {
//  392       keys |= HAL_KEY_SW_5;
        SETB      C
        MOV       A,R6
        MOV       0xE0 /* A   */.2,C
        MOV       R6,A
        SJMP      ??HalKeyPoll_3
//  393     }
//  394     else if (HAL_PUSH_BUTTON3())
??HalKeyPoll_5:
        MOV       C,0x80.5
        JC        ??HalKeyPoll_3
//  395     {
//  396       keys |= HAL_KEY_SW3;
        SETB      C
        MOV       A,R6
        MOV       0xE0 /* A   */.6,C
        MOV       R6,A
//  397     }
//  398   }
//  399 
//  400   /* Invoke Callback if new keys were depressed */
//  401   if (keys && (pHalKeyProcessFunction))
??HalKeyPoll_3:
        MOV       A,R6
        JZ        ??HalKeyPoll_2
        MOV       DPTR,#pHalKeyProcessFunction
        MOVX      A,@DPTR
        MOV       R0,A
        INC       DPTR
        MOVX      A,@DPTR
        MOV       R1,A
        MOV       A,R0
        ORL       A,R1
        JZ        ??HalKeyPoll_2
//  402   {
//  403     (pHalKeyProcessFunction) (keys, HAL_KEY_STATE_NORMAL);
        ; Setup parameters for indirect call
        MOV       R2,#0x0
        MOV       A,R6
        MOV       R1,A
        MOV       DPTR,#pHalKeyProcessFunction
        MOVX      A,@DPTR
        MOV       R0,A
        INC       DPTR
        MOVX      A,@DPTR
        MOV       DPH,A
        MOV       DPL,R0
        LCALL     ?CALL_IND
//  404   }
//  405 }
??HalKeyPoll_2:
        MOV       R7,#0x1
        LJMP      ?BANKED_LEAVE_XDATA
          CFI EndBlock cfiBlock3
        REQUIRE _A_P2
        REQUIRE _A_P0
//  406 
//  407 /**************************************************************************************************
//  408  * @fn      halGetJoyKeyInput
//  409  *
//  410  * @brief   Map the ADC value to its corresponding key.
//  411  *
//  412  * @param   None
//  413  *
//  414  * @return  keys - current joy key status
//  415  **************************************************************************************************/

        RSEG BANKED_CODE:HUGECODE:NOROOT(0)
//  416 uint8 halGetJoyKeyInput(void)
halGetJoyKeyInput:
          CFI Block cfiBlock4 Using cfiCommon0
          CFI Function halGetJoyKeyInput
        CODE
//  417 {
        FUNCALL halGetJoyKeyInput, HalAdcRead
        LOCFRAME ISTACK, 0, STACK
        LOCFRAME PSTACK, 0, STACK
        LOCFRAME XSTACK, 9, STACK
        LOCFRAME IOVERLAY, 0, STATIC
        LOCFRAME DOVERLAY, 0, STATIC
        ARGFRAME ISTACK, 0, STACK
        ARGFRAME PSTACK, 0, STACK
        ARGFRAME XSTACK, 9, STACK
        ARGFRAME IOVERLAY, 0, STATIC
        ARGFRAME DOVERLAY, 0, STATIC
        REQUIRE ?V0
        MOV       A,#-0x9
        LCALL     ?BANKED_ENTER_XDATA
          CFI DPH0 load(1, XDATA, add(CFA_XSP16, literal(-1)))
          CFI DPL0 load(1, XDATA, add(CFA_XSP16, literal(-2)))
          CFI ?BRET_EXT load(1, XDATA, add(CFA_XSP16, literal(-3)))
          CFI ?RET_HIGH load(1, XDATA, add(CFA_XSP16, literal(-4)))
          CFI ?RET_LOW load(1, XDATA, add(CFA_XSP16, literal(-5)))
          CFI R7 load(1, XDATA, add(CFA_XSP16, literal(-6)))
          CFI V0 load(1, XDATA, add(CFA_XSP16, literal(-7)))
          CFI VB load(1, XDATA, add(CFA_XSP16, literal(-8)))
          CFI R6 load(1, XDATA, add(CFA_XSP16, literal(-9)))
          CFI CFA_SP SP+0
          CFI CFA_XSP16 add(XSP16, 9)
        ; Saved register size: 9
        ; Auto size: 0
//  418   /* The joystick control is encoded as an analog voltage.
//  419    * Read the JOY_LEVEL analog value and map it to joy movement.
//  420    */
//  421   uint8 adc;
//  422   uint8 ksave0 = 0;
        MOV       R6,#0x0
//  423   uint8 ksave1;
//  424 
//  425   /* Keep on reading the ADC until two consecutive key decisions are the same. */
//  426   do
//  427   {
//  428     ksave1 = ksave0;    /* save previouse key reading */
??halGetJoyKeyInput_0:
        MOV       ?V0,R6
//  429 
//  430     adc = HalAdcRead (HAL_KEY_JOY_CHN, HAL_ADC_RESOLUTION_8);
        ; Setup parameters for call to function HalAdcRead
        MOV       R2,#0x1
        MOV       R1,#0x6
        LCALL     `??HalAdcRead::?relay`; Banked call to: HalAdcRead
        MOV       A,R2
        MOV       R7,A
//  431 
//  432     if ((adc >= 2) && (adc <= 38))
        MOV       A,R7
        CLR       C
        SUBB      A,#0x2
        JC        ??halGetJoyKeyInput_1
        MOV       A,R7
        CLR       C
        SUBB      A,#0x27
        JNC       ??halGetJoyKeyInput_1
//  433     {
//  434        ksave0 |= HAL_KEY_UP;
        SETB      C
        MOV       A,R6
        MOV       0xE0 /* A   */.0,C
        MOV       R6,A
        SJMP      ??halGetJoyKeyInput_2
//  435     }
//  436     else if ((adc >= 74) && (adc <= 88))
??halGetJoyKeyInput_1:
        MOV       A,R7
        CLR       C
        SUBB      A,#0x4a
        JC        ??halGetJoyKeyInput_3
        MOV       A,R7
        CLR       C
        SUBB      A,#0x59
        JNC       ??halGetJoyKeyInput_3
//  437     {
//  438       ksave0 |= HAL_KEY_RIGHT;
        SETB      C
        MOV       A,R6
        MOV       0xE0 /* A   */.1,C
        MOV       R6,A
        SJMP      ??halGetJoyKeyInput_2
//  439     }
//  440     else if ((adc >= 60) && (adc <= 73))
??halGetJoyKeyInput_3:
        MOV       A,R7
        CLR       C
        SUBB      A,#0x3c
        JC        ??halGetJoyKeyInput_4
        MOV       A,R7
        CLR       C
        SUBB      A,#0x4a
        JNC       ??halGetJoyKeyInput_4
//  441     {
//  442       ksave0 |= HAL_KEY_LEFT;
        SETB      C
        MOV       A,R6
        MOV       0xE0 /* A   */.3,C
        MOV       R6,A
        SJMP      ??halGetJoyKeyInput_2
//  443     }
//  444     else if ((adc >= 39) && (adc <= 59))
??halGetJoyKeyInput_4:
        MOV       A,R7
        CLR       C
        SUBB      A,#0x27
        JC        ??halGetJoyKeyInput_5
        MOV       A,R7
        CLR       C
        SUBB      A,#0x3c
        JNC       ??halGetJoyKeyInput_5
//  445     {
//  446       ksave0 |= HAL_KEY_DOWN;
        SETB      C
        MOV       A,R6
        MOV       0xE0 /* A   */.4,C
        MOV       R6,A
        SJMP      ??halGetJoyKeyInput_2
//  447     }
//  448     else if ((adc >= 89) && (adc <= 100))
??halGetJoyKeyInput_5:
        MOV       A,R7
        CLR       C
        SUBB      A,#0x59
        JC        ??halGetJoyKeyInput_2
        MOV       A,R7
        CLR       C
        SUBB      A,#0x65
        JNC       ??halGetJoyKeyInput_2
//  449     {
//  450       ksave0 |= HAL_KEY_CENTER;
        SETB      C
        MOV       A,R6
        MOV       0xE0 /* A   */.2,C
        MOV       R6,A
//  451     }
//  452   } while (ksave0 != ksave1);
??halGetJoyKeyInput_2:
        MOV       A,?V0
        XRL       A,R6
        JNZ       ??halGetJoyKeyInput_0
//  453 
//  454   return ksave0;
        MOV       A,R6
        MOV       R1,A
        MOV       R7,#0x1
        LJMP      ?BANKED_LEAVE_XDATA
//  455 }
          CFI EndBlock cfiBlock4
//  456 
//  457 
//  458 
//  459 
//  460 
//  461 /**************************************************************************************************
//  462  * @fn      halProcessKeyInterrupt
//  463  *
//  464  * @brief   Checks to see if it's a valid key interrupt, saves interrupt driven key states for
//  465  *          processing by HalKeyRead(), and debounces keys by scheduling HalKeyRead() 25ms later.
//  466  *
//  467  * @param
//  468  *
//  469  * @return
//  470  **************************************************************************************************/

        RSEG BANKED_CODE:HUGECODE:NOROOT(0)
//  471 void halProcessKeyInterrupt (void)
halProcessKeyInterrupt:
          CFI Block cfiBlock5 Using cfiCommon0
          CFI Function halProcessKeyInterrupt
        CODE
//  472 {
        FUNCALL halProcessKeyInterrupt, osal_start_timerEx
        LOCFRAME ISTACK, 0, STACK
        LOCFRAME PSTACK, 0, STACK
        LOCFRAME XSTACK, 13, STACK
        LOCFRAME IOVERLAY, 0, STATIC
        LOCFRAME DOVERLAY, 0, STATIC
        ARGFRAME ISTACK, 0, STACK
        ARGFRAME PSTACK, 0, STACK
        ARGFRAME XSTACK, 13, STACK
        ARGFRAME IOVERLAY, 0, STATIC
        ARGFRAME DOVERLAY, 0, STATIC
        MOV       A,#-0x9
        LCALL     ?BANKED_ENTER_XDATA
          CFI DPH0 load(1, XDATA, add(CFA_XSP16, literal(-1)))
          CFI DPL0 load(1, XDATA, add(CFA_XSP16, literal(-2)))
          CFI ?BRET_EXT load(1, XDATA, add(CFA_XSP16, literal(-3)))
          CFI ?RET_HIGH load(1, XDATA, add(CFA_XSP16, literal(-4)))
          CFI ?RET_LOW load(1, XDATA, add(CFA_XSP16, literal(-5)))
          CFI R7 load(1, XDATA, add(CFA_XSP16, literal(-6)))
          CFI V0 load(1, XDATA, add(CFA_XSP16, literal(-7)))
          CFI VB load(1, XDATA, add(CFA_XSP16, literal(-8)))
          CFI R6 load(1, XDATA, add(CFA_XSP16, literal(-9)))
          CFI CFA_SP SP+0
          CFI CFA_XSP16 add(XSP16, 9)
        ; Saved register size: 9
        ; Auto size: 0
//  473   bool valid=FALSE;
        MOV       R6,#0x0
//  474 
//  475   if (HAL_KEY_SW_6_PXIFG & HAL_KEY_SW_6_BIT)  /* Interrupt Flag has been set */
        MOV       A,0x89
        MOV       C,0xE0 /* A   */.1
        JNC       ??halProcessKeyInterrupt_0
//  476   {
//  477     HAL_KEY_SW_6_PXIFG = ~(HAL_KEY_SW_6_BIT); /* Clear Interrupt Flag */
        MOV       0x89,#-0x3
//  478     valid = TRUE;
        MOV       R6,#0x1
//  479   }
//  480 
//  481   if (HAL_KEY_JOY_MOVE_PXIFG & HAL_KEY_JOY_MOVE_BIT)  /* Interrupt Flag has been set */
??halProcessKeyInterrupt_0:
        MOV       A,0x8b
        MOV       C,0xE0 /* A   */.0
        JNC       ??halProcessKeyInterrupt_1
//  482   {
//  483     HAL_KEY_JOY_MOVE_PXIFG = ~(HAL_KEY_JOY_MOVE_BIT); /* Clear Interrupt Flag */
        MOV       0x8b,#-0x2
//  484     valid = TRUE;
        MOV       R6,#0x1
//  485   }
//  486 
//  487   if (HAL_KEY_SW3_PXIFG & HAL_KEY_SW3_BIT)  /* Interrupt Flag has been set */
??halProcessKeyInterrupt_1:
        MOV       A,0x89
        MOV       C,0xE0 /* A   */.5
        JNC       ??halProcessKeyInterrupt_2
//  488   {
//  489     HAL_KEY_SW3_PXIFG = ~(HAL_KEY_SW3_BIT); /* Clear Interrupt Flag */
        MOV       0x89,#-0x21
//  490     valid = TRUE;
        MOV       R6,#0x1
//  491   }
//  492   
//  493   if (valid)
??halProcessKeyInterrupt_2:
        MOV       A,R6
        JZ        ??halProcessKeyInterrupt_3
//  494   {
//  495     osal_start_timerEx (Hal_TaskID, HAL_KEY_EVENT, HAL_KEY_DEBOUNCE_VALUE);
        ; Setup parameters for call to function osal_start_timerEx
        MOV       DPTR,#__Constant_19
        LCALL     ?PUSH_XSTACK8_X_FOUR
          CFI CFA_XSP16 add(XSP16, 13)
        MOV       R2,#0x10
        MOV       R3,#0x0
        MOV       DPTR,#Hal_TaskID
        MOVX      A,@DPTR
        MOV       R1,A
        LCALL     `??osal_start_timerEx::?relay`; Banked call to: osal_start_timerEx
        MOV       A,#0x4
        LCALL     ?DEALLOC_XSTACK8
          CFI CFA_XSP16 add(XSP16, 9)
        MOV       A,R1
//  496   }
//  497 }
??halProcessKeyInterrupt_3:
        MOV       R7,#0x1
        LJMP      ?BANKED_LEAVE_XDATA
          CFI EndBlock cfiBlock5
        REQUIRE P0IFG
        REQUIRE P2IFG
//  498 
//  499 /**************************************************************************************************
//  500  * @fn      HalKeyEnterSleep
//  501  *
//  502  * @brief  - Get called to enter sleep mode
//  503  *
//  504  * @param
//  505  *
//  506  * @return
//  507  **************************************************************************************************/

        RSEG BANKED_CODE:HUGECODE:NOROOT(0)
//  508 void HalKeyEnterSleep ( void )
HalKeyEnterSleep:
          CFI Block cfiBlock6 Using cfiCommon0
          CFI Function HalKeyEnterSleep
        CODE
//  509 {
        ; Saved register size: 0
        ; Auto size: 0
//  510 }
        LJMP      ?BRET
          CFI EndBlock cfiBlock6
//  511 
//  512 /**************************************************************************************************
//  513  * @fn      HalKeyExitSleep
//  514  *
//  515  * @brief   - Get called when sleep is over
//  516  *
//  517  * @param
//  518  *
//  519  * @return  - return saved keys
//  520  **************************************************************************************************/

        RSEG BANKED_CODE:HUGECODE:NOROOT(0)
//  521 uint8 HalKeyExitSleep ( void )
HalKeyExitSleep:
          CFI Block cfiBlock7 Using cfiCommon0
          CFI Function HalKeyExitSleep
        CODE
//  522 {
        FUNCALL HalKeyExitSleep, HalKeyRead
        LOCFRAME ISTACK, 2, STACK
        LOCFRAME PSTACK, 0, STACK
        LOCFRAME XSTACK, 0, STACK
        LOCFRAME IOVERLAY, 0, STATIC
        LOCFRAME DOVERLAY, 0, STATIC
        ARGFRAME ISTACK, 2, STACK
        ARGFRAME PSTACK, 0, STACK
        ARGFRAME XSTACK, 0, STACK
        ARGFRAME IOVERLAY, 0, STATIC
        ARGFRAME DOVERLAY, 0, STATIC
        PUSH      DPL
          CFI DPL0 Frame(CFA_SP, 4)
          CFI CFA_SP SP+-4
        PUSH      DPH
          CFI DPH0 Frame(CFA_SP, 5)
          CFI CFA_SP SP+-5
        ; Saved register size: 2
        ; Auto size: 0
//  523   /* Wake up and read keys */
//  524   return ( HalKeyRead () );
        ; Setup parameters for call to function HalKeyRead
        LCALL     `??HalKeyRead::?relay`; Banked call to: HalKeyRead
        POP       DPH
          CFI DPH0 SameValue
          CFI CFA_SP SP+-4
        POP       DPL
          CFI DPL0 SameValue
          CFI CFA_SP SP+-3
        LJMP      ?BRET
//  525 }
          CFI EndBlock cfiBlock7
//  526 
//  527 /***************************************************************************************************
//  528  *                                    INTERRUPT SERVICE ROUTINE
//  529  ***************************************************************************************************/
//  530 
//  531 /**************************************************************************************************
//  532  * @fn      halKeyPort0Isr
//  533  *
//  534  * @brief   Port0 ISR
//  535  *
//  536  * @param
//  537  *
//  538  * @return
//  539  **************************************************************************************************/

        RSEG NEAR_CODE:CODE:NOROOT(0)
//  540 HAL_ISR_FUNCTION( halKeyPort0Isr, P0INT_VECTOR )
halKeyPort0Isr:
          CFI Block cfiBlock8 Using cfiCommon1
          CFI Function halKeyPort0Isr
        CODE
//  541 {
        FUNCALL halKeyPort0Isr, halProcessKeyInterrupt
        LOCFRAME ISTACK, 0, STACK
        LOCFRAME PSTACK, 0, STACK
        LOCFRAME XSTACK, 14, STACK
        LOCFRAME IOVERLAY, 0, STATIC
        LOCFRAME DOVERLAY, 0, STATIC
        ARGFRAME ISTACK, 0, STACK
        ARGFRAME PSTACK, 0, STACK
        ARGFRAME XSTACK, 14, STACK
        ARGFRAME IOVERLAY, 0, STATIC
        ARGFRAME DOVERLAY, 0, STATIC
        FUNCALL halKeyPort0Isr, halProcessKeyInterrupt
        LOCFRAME ISTACK, 0, STACK
        LOCFRAME PSTACK, 0, STACK
        LOCFRAME XSTACK, 14, STACK
        LOCFRAME IOVERLAY, 0, STATIC
        LOCFRAME DOVERLAY, 0, STATIC
        ARGFRAME ISTACK, 0, STACK
        ARGFRAME PSTACK, 0, STACK
        ARGFRAME XSTACK, 14, STACK
        ARGFRAME IOVERLAY, 0, STATIC
        ARGFRAME DOVERLAY, 0, STATIC
        PUSH      A
          CFI A Frame(CFA_SP, 3)
          CFI CFA_SP SP+-3
        MOV       A,#-0xe
        LCALL     ?INTERRUPT_ENTER_XSP
          CFI B load(1, XDATA, add(CFA_XSP16, literal(-1)))
          CFI VB load(1, XDATA, add(CFA_XSP16, literal(-2)))
          CFI PSW load(1, XDATA, add(CFA_XSP16, literal(-3)))
          CFI DPL0 load(1, XDATA, add(CFA_XSP16, literal(-4)))
          CFI DPH0 load(1, XDATA, add(CFA_XSP16, literal(-5)))
          CFI R7 load(1, XDATA, add(CFA_XSP16, literal(-6)))
          CFI R6 load(1, XDATA, add(CFA_XSP16, literal(-7)))
          CFI R5 load(1, XDATA, add(CFA_XSP16, literal(-8)))
          CFI R4 load(1, XDATA, add(CFA_XSP16, literal(-9)))
          CFI V0 load(1, XDATA, add(CFA_XSP16, literal(-10)))
          CFI R3 load(1, XDATA, add(CFA_XSP16, literal(-11)))
          CFI R2 load(1, XDATA, add(CFA_XSP16, literal(-12)))
          CFI R1 load(1, XDATA, add(CFA_XSP16, literal(-13)))
          CFI R0 load(1, XDATA, add(CFA_XSP16, literal(-14)))
          CFI CFA_XSP16 add(XSP16, 14)
        ; Saved register size: 14
        ; Auto size: 0
//  542   HAL_ENTER_ISR();
        MOV       C,0xa8.7
        CLR       A
        RLC       A
        MOV       R6,A
        SETB      0xa8.7
//  543 
//  544   if (HAL_KEY_SW_6_PXIFG & HAL_KEY_SW_6_BIT)
        MOV       A,0x89
        MOV       C,0xE0 /* A   */.1
        JNC       ??halKeyPort0Isr_0
//  545   {
//  546     halProcessKeyInterrupt();
        ; Setup parameters for call to function halProcessKeyInterrupt
        LCALL     `??halProcessKeyInterrupt::?relay`; Banked call to: halProcessKeyInterrupt
        SJMP      ??halKeyPort0Isr_1
//  547   }
//  548   else if (HAL_KEY_SW3_PXIFG & HAL_KEY_SW3_BIT)
??halKeyPort0Isr_0:
        MOV       A,0x89
        MOV       C,0xE0 /* A   */.5
        JNC       ??halKeyPort0Isr_1
//  549   {
//  550     halProcessKeyInterrupt();
        ; Setup parameters for call to function halProcessKeyInterrupt
        LCALL     `??halProcessKeyInterrupt::?relay`; Banked call to: halProcessKeyInterrupt
//  551   }
//  552   
//  553   /*
//  554     Clear the CPU interrupt flag for Port_0
//  555     PxIFG has to be cleared before PxIF
//  556   */
//  557   HAL_KEY_SW_6_PXIFG = 0;
??halKeyPort0Isr_1:
        MOV       0x89,#0x0
//  558   HAL_KEY_CPU_PORT_0_IF = 0;
        CLR       0xc0.5
//  559   
//  560   CLEAR_SLEEP_MODE();
//  561   HAL_EXIT_ISR();
        MOV       A,R6
        MOV       C,0xE0 /* A   */.0
        MOV       0xa8.7,C
//  562 }
        MOV       R7,#0x1
        LJMP      ?INTERRUPT_LEAVE_XSP
          CFI EndBlock cfiBlock8
        REQUIRE _A_IEN0
        REQUIRE P0IFG
        REQUIRE _A_IRCON
//  563 
//  564 
//  565 /**************************************************************************************************
//  566  * @fn      halKeyPort2Isr
//  567  *
//  568  * @brief   Port2 ISR
//  569  *
//  570  * @param
//  571  *
//  572  * @return
//  573  **************************************************************************************************/

        RSEG NEAR_CODE:CODE:NOROOT(0)
//  574 HAL_ISR_FUNCTION( halKeyPort2Isr, P2INT_VECTOR )
halKeyPort2Isr:
          CFI Block cfiBlock9 Using cfiCommon1
          CFI Function halKeyPort2Isr
        CODE
//  575 {
        FUNCALL halKeyPort2Isr, halProcessKeyInterrupt
        LOCFRAME ISTACK, 0, STACK
        LOCFRAME PSTACK, 0, STACK
        LOCFRAME XSTACK, 14, STACK
        LOCFRAME IOVERLAY, 0, STATIC
        LOCFRAME DOVERLAY, 0, STATIC
        ARGFRAME ISTACK, 0, STACK
        ARGFRAME PSTACK, 0, STACK
        ARGFRAME XSTACK, 14, STACK
        ARGFRAME IOVERLAY, 0, STATIC
        ARGFRAME DOVERLAY, 0, STATIC
        PUSH      A
          CFI A Frame(CFA_SP, 3)
          CFI CFA_SP SP+-3
        MOV       A,#-0xe
        LCALL     ?INTERRUPT_ENTER_XSP
          CFI B load(1, XDATA, add(CFA_XSP16, literal(-1)))
          CFI VB load(1, XDATA, add(CFA_XSP16, literal(-2)))
          CFI PSW load(1, XDATA, add(CFA_XSP16, literal(-3)))
          CFI DPL0 load(1, XDATA, add(CFA_XSP16, literal(-4)))
          CFI DPH0 load(1, XDATA, add(CFA_XSP16, literal(-5)))
          CFI R7 load(1, XDATA, add(CFA_XSP16, literal(-6)))
          CFI R6 load(1, XDATA, add(CFA_XSP16, literal(-7)))
          CFI R5 load(1, XDATA, add(CFA_XSP16, literal(-8)))
          CFI R4 load(1, XDATA, add(CFA_XSP16, literal(-9)))
          CFI V0 load(1, XDATA, add(CFA_XSP16, literal(-10)))
          CFI R3 load(1, XDATA, add(CFA_XSP16, literal(-11)))
          CFI R2 load(1, XDATA, add(CFA_XSP16, literal(-12)))
          CFI R1 load(1, XDATA, add(CFA_XSP16, literal(-13)))
          CFI R0 load(1, XDATA, add(CFA_XSP16, literal(-14)))
          CFI CFA_XSP16 add(XSP16, 14)
        ; Saved register size: 14
        ; Auto size: 0
//  576   HAL_ENTER_ISR();
        MOV       C,0xa8.7
        CLR       A
        RLC       A
        MOV       R6,A
        SETB      0xa8.7
//  577   
//  578   if (HAL_KEY_JOY_MOVE_PXIFG & HAL_KEY_JOY_MOVE_BIT)
        MOV       A,0x8b
        MOV       C,0xE0 /* A   */.0
        JNC       ??halKeyPort2Isr_0
//  579   {
//  580     halProcessKeyInterrupt();
        ; Setup parameters for call to function halProcessKeyInterrupt
        LCALL     `??halProcessKeyInterrupt::?relay`; Banked call to: halProcessKeyInterrupt
//  581   }
//  582 
//  583   /*
//  584     Clear the CPU interrupt flag for Port_2
//  585     PxIFG has to be cleared before PxIF
//  586     Notes: P2_1 and P2_2 are debug lines.
//  587   */
//  588   HAL_KEY_JOY_MOVE_PXIFG = 0;
??halKeyPort2Isr_0:
        MOV       0x8b,#0x0
//  589   HAL_KEY_CPU_PORT_2_IF = 0;
        CLR       0xe8.0
//  590 
//  591   CLEAR_SLEEP_MODE();
//  592   HAL_EXIT_ISR();
        MOV       A,R6
        MOV       C,0xE0 /* A   */.0
        MOV       0xa8.7,C
//  593 }
        MOV       R7,#0x1
        LJMP      ?INTERRUPT_LEAVE_XSP
          CFI EndBlock cfiBlock9
        REQUIRE _A_IEN0
        REQUIRE P2IFG
        REQUIRE _A_IRCON2

        COMMON INTVEC:CODE:ROOT(0)
        ORG 51
`??halKeyPort2Isr::??INTVEC 51`:
        LJMP       (halKeyPort2Isr)

        COMMON INTVEC:CODE:ROOT(0)
        ORG 107
`??halKeyPort0Isr::??INTVEC 107`:
        LJMP       (halKeyPort0Isr)

        RSEG XDATA_ROM_C:CONST:REORDER:NOROOT(0)
        DATA32
__Constant_19:
        DD 25

        RSEG BANK_RELAYS:CODE:REORDER:NOROOT(0)
`??HalKeyInit::?relay`:
        CODE
        LCALL   ?BDISPATCH
        DATA24
        DC24    HalKeyInit

        RSEG BANK_RELAYS:CODE:REORDER:NOROOT(0)
`??HalKeyConfig::?relay`:
        CODE
        LCALL   ?BDISPATCH
        DATA24
        DC24    HalKeyConfig

        RSEG BANK_RELAYS:CODE:REORDER:NOROOT(0)
`??HalKeyRead::?relay`:
        CODE
        LCALL   ?BDISPATCH
        DATA24
        DC24    HalKeyRead

        RSEG BANK_RELAYS:CODE:REORDER:NOROOT(0)
`??HalKeyPoll::?relay`:
        CODE
        LCALL   ?BDISPATCH
        DATA24
        DC24    HalKeyPoll

        RSEG BANK_RELAYS:CODE:REORDER:NOROOT(0)
`??halGetJoyKeyInput::?relay`:
        CODE
        LCALL   ?BDISPATCH
        DATA24
        DC24    halGetJoyKeyInput

        RSEG BANK_RELAYS:CODE:REORDER:NOROOT(0)
`??halProcessKeyInterrupt::?relay`:
        CODE
        LCALL   ?BDISPATCH
        DATA24
        DC24    halProcessKeyInterrupt

        RSEG BANK_RELAYS:CODE:REORDER:NOROOT(0)
`??HalKeyEnterSleep::?relay`:
        CODE
        LCALL   ?BDISPATCH
        DATA24
        DC24    HalKeyEnterSleep

        RSEG BANK_RELAYS:CODE:REORDER:NOROOT(0)
`??HalKeyExitSleep::?relay`:
        CODE
        LCALL   ?BDISPATCH
        DATA24
        DC24    HalKeyExitSleep

        END
//  594 
//  595 #else
//  596 
//  597 
//  598 void HalKeyInit(void){}
//  599 void HalKeyConfig(bool interruptEnable, halKeyCBack_t cback){}
//  600 uint8 HalKeyRead(void){ return 0;}
//  601 void HalKeyPoll(void){}
//  602 
//  603 #endif /* HAL_KEY */
//  604 
//  605 
//  606 
//  607 
//  608 
//  609 /**************************************************************************************************
//  610 **************************************************************************************************/
//  611 
//  612 
//  613 
// 
// 543 bytes in segment BANKED_CODE
//  48 bytes in segment BANK_RELAYS
//   6 bytes in segment INTVEC
//  87 bytes in segment NEAR_CODE
//  18 bytes in segment SFR_AN
//   4 bytes in segment XDATA_ROM_C
//   5 bytes in segment XDATA_Z
// 
// 135 bytes of CODE     memory (+  6 bytes shared)
//   0 bytes of CONST    memory (+  4 bytes shared)
//   0 bytes of DATA     memory (+ 18 bytes shared)
// 543 bytes of HUGECODE memory
//   5 bytes of XDATA    memory
//
//Errors: none
//Warnings: none
