///////////////////////////////////////////////////////////////////////////////
//
// IAR C/C++ Compiler V10.30.1.6000 for 8051              31/Jul/2020  11:47:21
// Copyright 2004-2018 IAR Systems AB.
// PC-locked license - IAR Embedded Workbench for 8051
//
//    Core               =  plain
//    Code model         =  banked
//    Data model         =  large
//    Calling convention =  xdata reentrant
//    Constant location  =  data_rom
//    Dptr setup         =  1,16
//                          
//    Source file        =  
//        D:\AA\Z-Stack 3.0.2\Components\mac\low_level\srf04\mac_rx.c
//    Command line       =  
//        -f C:\Users\sunli\AppData\Local\Temp\EWBB63.tmp ("D:\AA\Z-Stack
//        3.0.2\Components\mac\low_level\srf04\mac_rx.c" -D SECURE=1 -D
//        TC_LINKKEY_JOIN -D NV_INIT -D NV_RESTORE -D POWER_SAVING -D
//        NWK_AUTO_POLL -D xZTOOL_P1 -D xMT_TASK -D xMT_APP_FUNC -D
//        xMT_SYS_FUNC -D xMT_ZDO_FUNC -D xMT_ZDO_MGMT -D xMT_APP_CNF_FUNC -D
//        LCD_SUPPORTED=DEBUG -D MULTICAST_ENABLED=FALSE -D ZCL_READ -D
//        ZCL_DISCOVER -D ZCL_WRITE -D ZCL_BASIC -D ZCL_IDENTIFY -D ZCL_ON_OFF
//        -D ZCL_GROUPS -D BDB_TL_INITIATOR -D INTER_PAN -lC "D:\AA\Z-Stack
//        3.0.2\Projects\zstack\HomeAutomation\SampleSwitch\CC2530DB\EndDeviceEB\List"
//        -lA "D:\AA\Z-Stack
//        3.0.2\Projects\zstack\HomeAutomation\SampleSwitch\CC2530DB\EndDeviceEB\List"
//        --diag_suppress Pe001,Pa010 -o "D:\AA\Z-Stack
//        3.0.2\Projects\zstack\HomeAutomation\SampleSwitch\CC2530DB\EndDeviceEB\Obj"
//        -e --debug --core=plain --dptr=16,1 --data_model=large
//        --code_model=banked --calling_convention=xdata_reentrant
//        --place_constants=data_rom --nr_virtual_regs 16 -f "D:\AA\Z-Stack
//        3.0.2\Projects\zstack\HomeAutomation\SampleSwitch\CC2530DB\..\..\..\Tools\CC2530DB\f8wEndev.cfg"
//        (-DCPU32MHZ -DROOT=__near_func -DMAC_CFG_TX_DATA_MAX=3
//        -DMAC_CFG_TX_MAX=6 -DMAC_CFG_RX_MAX=3) -f "D:\AA\Z-Stack
//        3.0.2\Projects\zstack\HomeAutomation\SampleSwitch\CC2530DB\..\..\..\Tools\CC2530DB\f8wConfig.cfg"
//        (-DZIGBEEPRO -DSECURE=1 -DZG_SECURE_DYNAMIC=0 -DREFLECTOR
//        -DDEFAULT_CHANLIST=0x00000800 -DZDAPP_CONFIG_PAN_ID=0xFFFF
//        -DNWK_START_DELAY=100 -DEXTENDED_JOINING_RANDOM_MASK=0x007F
//        -DBEACON_REQUEST_DELAY=100 -DBEACON_REQ_DELAY_MASK=0x00FF
//        -DLINK_STATUS_JITTER_MASK=0x007F -DROUTE_EXPIRY_TIME=30
//        -DAPSC_ACK_WAIT_DURATION_POLLED=3000 -DNWK_INDIRECT_MSG_TIMEOUT=7
//        -DMAX_RREQ_ENTRIES=8 -DAPSC_MAX_FRAME_RETRIES=3
//        -DNWK_MAX_DATA_RETRIES=2 -DMAX_POLL_FAILURE_RETRIES=2 -DMAX_BCAST=9
//        -DAPS_MAX_GROUPS=16 -DMAX_RTG_ENTRIES=40 -DNWK_MAX_BINDING_ENTRIES=4
//        -DMAX_BINDING_CLUSTER_IDS=4 -DDEFAULT_KEY={0}
//        -DMAC_MAX_FRAME_SIZE=116 -DZDNWKMGR_MIN_TRANSMISSIONS=20
//        "-DCONST=const __code" -DGENERIC=__generic -DRFD_RCVC_ALWAYS_ON=FALSE
//        -DPOLL_RATE=1000 -DQUEUED_POLL_RATE=100 -DRESPONSE_POLL_RATE=100
//        -DREJOIN_POLL_RATE=440 -DREJOIN_BACKOFF=900000 -DREJOIN_SCAN=900000
//        -DENABLE_LED4_DISABLE_S1) -f "D:\AA\Z-Stack
//        3.0.2\Projects\zstack\HomeAutomation\SampleSwitch\CC2530DB\..\..\..\Tools\CC2530DB\f8wZCL.cfg"
//        -I "D:\AA\Z-Stack
//        3.0.2\Projects\zstack\HomeAutomation\SampleSwitch\CC2530DB\" -I
//        "D:\AA\Z-Stack
//        3.0.2\Projects\zstack\HomeAutomation\SampleSwitch\CC2530DB\..\Source\"
//        -I "D:\AA\Z-Stack
//        3.0.2\Projects\zstack\HomeAutomation\SampleSwitch\CC2530DB\..\..\Source\"
//        -I "D:\AA\Z-Stack
//        3.0.2\Projects\zstack\HomeAutomation\SampleSwitch\CC2530DB\..\..\..\ZMain\TI2530DB\"
//        -I "D:\AA\Z-Stack
//        3.0.2\Projects\zstack\HomeAutomation\SampleSwitch\CC2530DB\..\..\..\..\..\Components\hal\include\"
//        -I "D:\AA\Z-Stack
//        3.0.2\Projects\zstack\HomeAutomation\SampleSwitch\CC2530DB\..\..\..\..\..\Components\hal\target\CC2530EB\"
//        -I "D:\AA\Z-Stack
//        3.0.2\Projects\zstack\HomeAutomation\SampleSwitch\CC2530DB\..\..\..\..\..\Components\mac\include\"
//        -I "D:\AA\Z-Stack
//        3.0.2\Projects\zstack\HomeAutomation\SampleSwitch\CC2530DB\..\..\..\..\..\Components\mac\high_level\"
//        -I "D:\AA\Z-Stack
//        3.0.2\Projects\zstack\HomeAutomation\SampleSwitch\CC2530DB\..\..\..\..\..\Components\mac\low_level\srf04\"
//        -I "D:\AA\Z-Stack
//        3.0.2\Projects\zstack\HomeAutomation\SampleSwitch\CC2530DB\..\..\..\..\..\Components\mac\low_level\srf04\single_chip\"
//        -I "D:\AA\Z-Stack
//        3.0.2\Projects\zstack\HomeAutomation\SampleSwitch\CC2530DB\..\..\..\..\..\Components\mt\"
//        -I "D:\AA\Z-Stack
//        3.0.2\Projects\zstack\HomeAutomation\SampleSwitch\CC2530DB\..\..\..\..\..\Components\osal\include\"
//        -I "D:\AA\Z-Stack
//        3.0.2\Projects\zstack\HomeAutomation\SampleSwitch\CC2530DB\..\..\..\..\..\Components\services\saddr\"
//        -I "D:\AA\Z-Stack
//        3.0.2\Projects\zstack\HomeAutomation\SampleSwitch\CC2530DB\..\..\..\..\..\Components\services\sdata\"
//        -I "D:\AA\Z-Stack
//        3.0.2\Projects\zstack\HomeAutomation\SampleSwitch\CC2530DB\..\..\..\..\..\Components\stack\af\"
//        -I "D:\AA\Z-Stack
//        3.0.2\Projects\zstack\HomeAutomation\SampleSwitch\CC2530DB\..\..\..\..\..\Components\stack\bdb\"
//        -I "D:\AA\Z-Stack
//        3.0.2\Projects\zstack\HomeAutomation\SampleSwitch\CC2530DB\..\..\..\..\..\Components\stack\gp\"
//        -I "D:\AA\Z-Stack
//        3.0.2\Projects\zstack\HomeAutomation\SampleSwitch\CC2530DB\..\..\..\..\..\Components\stack\nwk\"
//        -I "D:\AA\Z-Stack
//        3.0.2\Projects\zstack\HomeAutomation\SampleSwitch\CC2530DB\..\..\..\..\..\Components\stack\sapi\"
//        -I "D:\AA\Z-Stack
//        3.0.2\Projects\zstack\HomeAutomation\SampleSwitch\CC2530DB\..\..\..\..\..\Components\stack\sec\"
//        -I "D:\AA\Z-Stack
//        3.0.2\Projects\zstack\HomeAutomation\SampleSwitch\CC2530DB\..\..\..\..\..\Components\stack\sys\"
//        -I "D:\AA\Z-Stack
//        3.0.2\Projects\zstack\HomeAutomation\SampleSwitch\CC2530DB\..\..\..\..\..\Components\stack\zcl\"
//        -I "D:\AA\Z-Stack
//        3.0.2\Projects\zstack\HomeAutomation\SampleSwitch\CC2530DB\..\..\..\..\..\Components\stack\zdo\"
//        -I "D:\AA\Z-Stack
//        3.0.2\Projects\zstack\HomeAutomation\SampleSwitch\CC2530DB\..\..\..\..\..\Components\zmac\"
//        -I "D:\AA\Z-Stack
//        3.0.2\Projects\zstack\HomeAutomation\SampleSwitch\CC2530DB\..\..\..\..\..\Components\zmac\f8w\"
//        -On --require_prototypes --no_cse --no_unroll --no_inline
//        --no_code_motion --no_tbaa --no_cross_call)
//    Locale             =  Chinese (Simplified)_CHN.936
//    List file          =  
//        D:\AA\Z-Stack
//        3.0.2\Projects\zstack\HomeAutomation\SampleSwitch\CC2530DB\EndDeviceEB\List\mac_rx.s51
//
///////////////////////////////////////////////////////////////////////////////

        NAME mac_rx

        RTMODEL "__SystemLibrary", "CLib"
        RTMODEL "__calling_convention", "xdata_reentrant"
        RTMODEL "__code_model", "banked"
        RTMODEL "__core", "plain"
        RTMODEL "__data_model", "large"
        RTMODEL "__dptr_size", "16"
        RTMODEL "__extended_stack", "disabled"
        RTMODEL "__location_for_constants", "data"
        RTMODEL "__number_of_dptrs", "1"
        RTMODEL "__register_banks", "*"
        RTMODEL "__rt_version", "1"

        RSEG DOVERLAY:DATA:NOROOT(0)
        RSEG IOVERLAY:IDATA:NOROOT(0)
        RSEG ISTACK:IDATA:NOROOT(0)
        RSEG PSTACK:XDATA:NOROOT(0)
        RSEG XSTACK:XDATA:NOROOT(0)

        EXTERN ?V0
        EXTERN ?V1
        EXTERN ?V2
        EXTERN ?V3
        EXTERN ?V4
        EXTERN ?V5
        EXTERN ?V6
        EXTERN ?ALLOC_XSTACK8
        EXTERN ?BANKED_ENTER_XDATA
        EXTERN ?BANKED_LEAVE_XDATA
        EXTERN ?BDISPATCH
        EXTERN ?BRET
        EXTERN ?CALL_IND
        EXTERN ?DEALLOC_XSTACK8
        EXTERN ?L_MOV_TO_X
        EXTERN ?PUSH_XSTACK_I_THREE
        EXTERN ?XSP
        EXTERN ?XSTACK_DISP0_8
        EXTERN __INIT_XDATA_Z

        PUBLIC `??macRxAckTxDoneCallback::?relay`
        FUNCTION `??macRxAckTxDoneCallback::?relay`,0203H
        PUBLIC `??macRxFifoOverflowIsr::?relay`
        FUNCTION `??macRxFifoOverflowIsr::?relay`,0203H
        PUBLIC `??macRxHaltCleanup::?relay`
        FUNCTION `??macRxHaltCleanup::?relay`,0203H
        PUBLIC `??macRxInit::?relay`
        FUNCTION `??macRxInit::?relay`,0203H
        PUBLIC `??macRxPromiscuousMode::?relay`
        FUNCTION `??macRxPromiscuousMode::?relay`,0203H
        PUBLIC `??macRxRadioPowerUpInit::?relay`
        FUNCTION `??macRxRadioPowerUpInit::?relay`,0203H
        PUBLIC `??macRxThresholdIsr::?relay`
        FUNCTION `??macRxThresholdIsr::?relay`,0203H
        PUBLIC `??macRxTxReset::?relay`
        FUNCTION `??macRxTxReset::?relay`,0203H
        FUNCTION `??rxAddrIsr::?relay`,0203H
        FUNCTION `??rxDiscardFrame::?relay`,0203H
        FUNCTION `??rxDiscardIsr::?relay`,0203H
        FUNCTION `??rxDone::?relay`,0203H
        FUNCTION `??rxFcsIsr::?relay`,0203H
        FUNCTION `??rxHaltCleanupFinalStep::?relay`,0203H
        FUNCTION `??rxPayloadIsr::?relay`,0203H
        FUNCTION `??rxPostRxUpdates::?relay`,0203H
        FUNCTION `??rxPrepPayload::?relay`,0203H
        FUNCTION `??rxStartIsr::?relay`,0203H
        PUBWEAK RFIRQF0
        PUBWEAK RFIRQF1
        PUBWEAK RFST
        PUBWEAK S1CON
        PUBWEAK _A_IEN0
        PUBLIC macRxAckTxDoneCallback
        FUNCTION macRxAckTxDoneCallback,021203H
        ARGFRAME XSTACK, 0, STACK
        LOCFRAME ISTACK, 2, STACK
        PUBLIC macRxActive
        PUBLIC macRxFifoOverflowIsr
        FUNCTION macRxFifoOverflowIsr,021203H
        ARGFRAME XSTACK, 0, STACK
        LOCFRAME ISTACK, 2, STACK
        PUBLIC macRxFilter
        PUBLIC macRxHaltCleanup
        FUNCTION macRxHaltCleanup,021203H
        ARGFRAME XSTACK, 0, STACK
        ARGFRAME IOVERLAY, 0, STATIC
        ARGFRAME DOVERLAY, 0, STATIC
        LOCFRAME ISTACK, 2, STACK
        PUBLIC macRxInit
        FUNCTION macRxInit,0203H
        ARGFRAME XSTACK, 0, STACK
        LOCFRAME ISTACK, 2, STACK
        PUBLIC macRxOutgoingAckFlag
        PUBLIC macRxPromiscuousMode
        FUNCTION macRxPromiscuousMode,021203H
        ARGFRAME XSTACK, 0, STACK
        ARGFRAME IOVERLAY, 0, STATIC
        ARGFRAME DOVERLAY, 0, STATIC
        LOCFRAME XSTACK, 9, STACK
        PUBLIC macRxRadioPowerUpInit
        FUNCTION macRxRadioPowerUpInit,0203H
        ARGFRAME XSTACK, 0, STACK
        LOCFRAME ISTACK, 2, STACK
        PUBLIC macRxThresholdIsr
        FUNCTION macRxThresholdIsr,021203H
        ARGFRAME XSTACK, 0, STACK
        LOCFRAME ISTACK, 2, STACK
        PUBLIC macRxTxReset
        FUNCTION macRxTxReset,021203H
        ARGFRAME XSTACK, 0, STACK
        LOCFRAME ISTACK, 2, STACK
        FUNCTION rxAddrIsr,0a1603H
        ARGFRAME XSTACK, 0, STACK
        LOCFRAME XSTACK, 32, STACK
        FUNCTION rxDiscardFrame,021203H
        ARGFRAME XSTACK, 17, STACK
        ARGFRAME IOVERLAY, 0, STATIC
        ARGFRAME DOVERLAY, 0, STATIC
        LOCFRAME ISTACK, 2, STACK
        FUNCTION rxDiscardIsr,021603H
        ARGFRAME XSTACK, 0, STACK
        LOCFRAME ISTACK, 2, STACK
        LOCFRAME XSTACK, 16, STACK
        FUNCTION rxDone,021203H
        ARGFRAME XSTACK, 17, STACK
        ARGFRAME IOVERLAY, 0, STATIC
        ARGFRAME DOVERLAY, 0, STATIC
        LOCFRAME ISTACK, 2, STACK
        FUNCTION rxFcsIsr,0a1603H
        ARGFRAME XSTACK, 0, STACK
        LOCFRAME ISTACK, 1, STACK
        LOCFRAME XSTACK, 10, STACK
        FUNCTION rxHaltCleanupFinalStep,021203H
        ARGFRAME XSTACK, 0, STACK
        ARGFRAME IOVERLAY, 0, STATIC
        ARGFRAME DOVERLAY, 0, STATIC
        LOCFRAME ISTACK, 2, STACK
        FUNCTION rxPayloadIsr,021603H
        ARGFRAME XSTACK, 0, STACK
        LOCFRAME ISTACK, 2, STACK
        FUNCTION rxPostRxUpdates,021203H
        ARGFRAME XSTACK, 17, STACK
        ARGFRAME IOVERLAY, 0, STATIC
        ARGFRAME DOVERLAY, 0, STATIC
        LOCFRAME ISTACK, 2, STACK
        FUNCTION rxPrepPayload,0203H
        ARGFRAME XSTACK, 32, STACK
        ARGFRAME IOVERLAY, 0, STATIC
        ARGFRAME DOVERLAY, 0, STATIC
        LOCFRAME ISTACK, 2, STACK
        FUNCTION rxStartIsr,0a1603H
        ARGFRAME XSTACK, 0, STACK
        LOCFRAME ISTACK, 1, STACK
        LOCFRAME XSTACK, 20, STACK
        
          CFI Names cfiNames0
          CFI StackFrame CFA_SP SP IDATA
          CFI StackFrame CFA_PSP16 PSP16 XDATA
          CFI StackFrame CFA_XSP16 XSP16 XDATA
          CFI StaticOverlayFrame CFA_IOVERLAY IOVERLAY
          CFI StaticOverlayFrame CFA_DOVERLAY DOVERLAY
          CFI Resource `PSW.CY`:1, `B.BR0`:1, `B.BR1`:1, `B.BR2`:1, `B.BR3`:1
          CFI Resource `B.BR4`:1, `B.BR5`:1, `B.BR6`:1, `B.BR7`:1, `VB.BR8`:1
          CFI Resource `VB.BR9`:1, `VB.BR10`:1, `VB.BR11`:1, `VB.BR12`:1
          CFI Resource `VB.BR13`:1, `VB.BR14`:1, `VB.BR15`:1, VB:8, B:8, A:8
          CFI Resource PSW:8, DPL0:8, DPH0:8, R0:8, R1:8, R2:8, R3:8, R4:8, R5:8
          CFI Resource R6:8, R7:8, V0:8, V1:8, V2:8, V3:8, V4:8, V5:8, V6:8, V7:8
          CFI Resource V8:8, V9:8, V10:8, V11:8, V12:8, V13:8, V14:8, V15:8, SP:8
          CFI Resource PSPH:8, PSPL:8, PSP16:16, XSPH:8, XSPL:8, XSP16:16
          CFI VirtualResource ?RET:24
          CFI Resource ?BRET_EXT:8
          CFI VirtualResource ?RET_HIGH:8, ?RET_LOW:8
          CFI ResourceParts PSP16 PSPH, PSPL
          CFI ResourceParts XSP16 XSPH, XSPL
          CFI ResourceParts ?RET ?BRET_EXT, ?RET_HIGH, ?RET_LOW
          CFI EndNames cfiNames0
        
          CFI Common cfiCommon0 Using cfiNames0
          CFI CodeAlign 1
          CFI DataAlign -1
          CFI ReturnAddress ?RET CODE
          CFI CFA_DOVERLAY Used
          CFI CFA_IOVERLAY Used
          CFI CFA_SP SP+-3
          CFI CFA_PSP16 PSP16+0
          CFI CFA_XSP16 XSP16+0
          CFI `PSW.CY` SameValue
          CFI `B.BR0` SameValue
          CFI `B.BR1` SameValue
          CFI `B.BR2` SameValue
          CFI `B.BR3` SameValue
          CFI `B.BR4` SameValue
          CFI `B.BR5` SameValue
          CFI `B.BR6` SameValue
          CFI `B.BR7` SameValue
          CFI `VB.BR8` SameValue
          CFI `VB.BR9` SameValue
          CFI `VB.BR10` SameValue
          CFI `VB.BR11` SameValue
          CFI `VB.BR12` SameValue
          CFI `VB.BR13` SameValue
          CFI `VB.BR14` SameValue
          CFI `VB.BR15` SameValue
          CFI VB SameValue
          CFI B Undefined
          CFI A Undefined
          CFI PSW SameValue
          CFI DPL0 SameValue
          CFI DPH0 SameValue
          CFI R0 Undefined
          CFI R1 Undefined
          CFI R2 Undefined
          CFI R3 Undefined
          CFI R4 Undefined
          CFI R5 Undefined
          CFI R6 SameValue
          CFI R7 SameValue
          CFI V0 SameValue
          CFI V1 SameValue
          CFI V2 SameValue
          CFI V3 SameValue
          CFI V4 SameValue
          CFI V5 SameValue
          CFI V6 SameValue
          CFI V7 SameValue
          CFI V8 SameValue
          CFI V9 SameValue
          CFI V10 SameValue
          CFI V11 SameValue
          CFI V12 SameValue
          CFI V13 SameValue
          CFI V14 SameValue
          CFI V15 SameValue
          CFI PSPH Undefined
          CFI PSPL Undefined
          CFI XSPH Undefined
          CFI XSPL Undefined
          CFI ?RET Concat
          CFI ?BRET_EXT Frame(CFA_SP, 3)
          CFI ?RET_HIGH Frame(CFA_SP, 2)
          CFI ?RET_LOW Frame(CFA_SP, 1)
          CFI EndCommon cfiCommon0
        
MAC_SrcMatchCheckAllPending SYMBOL "MAC_SrcMatchCheckAllPending"
`??MAC_SrcMatchCheckAllPending::?relay` SYMBOL "?relay", MAC_SrcMatchCheckAllPending
MAC_SrcMatchCheckResult SYMBOL "MAC_SrcMatchCheckResult"
`??MAC_SrcMatchCheckResult::?relay` SYMBOL "?relay", MAC_SrcMatchCheckResult
halAssertHandler    SYMBOL "halAssertHandler"
`??halAssertHandler::?relay` SYMBOL "?relay", halAssertHandler
macCspForceTxDoneIfPending SYMBOL "macCspForceTxDoneIfPending"
`??macCspForceTxDoneIfPending::?relay` SYMBOL "?relay", macCspForceTxDoneIfPending
macDataRxMemAlloc   SYMBOL "macDataRxMemAlloc"
`??macDataRxMemAlloc::?relay` SYMBOL "?relay", macDataRxMemAlloc
macDataRxMemFree    SYMBOL "macDataRxMemFree"
`??macDataRxMemFree::?relay` SYMBOL "?relay", macDataRxMemFree
macMcuOverflowCapture SYMBOL "macMcuOverflowCapture"
`??macMcuOverflowCapture::?relay` SYMBOL "?relay", macMcuOverflowCapture
macMcuTimerCapture  SYMBOL "macMcuTimerCapture"
`??macMcuTimerCapture::?relay` SYMBOL "?relay", macMcuTimerCapture
macMemReadRxFifo    SYMBOL "macMemReadRxFifo"
`??macMemReadRxFifo::?relay` SYMBOL "?relay", macMemReadRxFifo
macRadioComputeLQI  SYMBOL "macRadioComputeLQI"
`??macRadioComputeLQI::?relay` SYMBOL "?relay", macRadioComputeLQI
macRadioUpdateTxPower SYMBOL "macRadioUpdateTxPower"
`??macRadioUpdateTxPower::?relay` SYMBOL "?relay", macRadioUpdateTxPower
macRxCheckMACPendingCallback SYMBOL "macRxCheckMACPendingCallback"
`??macRxCheckMACPendingCallback::?relay` SYMBOL "?relay", macRxCheckMACPendingCallback
macRxCheckPendingCallback SYMBOL "macRxCheckPendingCallback"
`??macRxCheckPendingCallback::?relay` SYMBOL "?relay", macRxCheckPendingCallback
macRxCompleteCallback SYMBOL "macRxCompleteCallback"
`??macRxCompleteCallback::?relay` SYMBOL "?relay", macRxCompleteCallback
macRxHardDisable    SYMBOL "macRxHardDisable"
`??macRxHardDisable::?relay` SYMBOL "?relay", macRxHardDisable
macRxOffRequest     SYMBOL "macRxOffRequest"
`??macRxOffRequest::?relay` SYMBOL "?relay", macRxOffRequest
macTxAckNotReceivedCallback SYMBOL "macTxAckNotReceivedCallback"
`??macTxAckNotReceivedCallback::?relay` SYMBOL "?relay", macTxAckNotReceivedCallback
macTxAckReceivedCallback SYMBOL "macTxAckReceivedCallback"
`??macTxAckReceivedCallback::?relay` SYMBOL "?relay", macTxAckReceivedCallback
macTxStartQueuedFrame SYMBOL "macTxStartQueuedFrame"
`??macTxStartQueuedFrame::?relay` SYMBOL "?relay", macTxStartQueuedFrame
osal_memcpy         SYMBOL "osal_memcpy"
`??osal_memcpy::?relay` SYMBOL "?relay", osal_memcpy
sAddrExtCpy         SYMBOL "sAddrExtCpy"
`??sAddrExtCpy::?relay` SYMBOL "?relay", sAddrExtCpy
macRxAckTxDoneCallback SYMBOL "macRxAckTxDoneCallback"
`??macRxAckTxDoneCallback::?relay` SYMBOL "?relay", macRxAckTxDoneCallback
macRxFifoOverflowIsr SYMBOL "macRxFifoOverflowIsr"
`??macRxFifoOverflowIsr::?relay` SYMBOL "?relay", macRxFifoOverflowIsr
macRxHaltCleanup    SYMBOL "macRxHaltCleanup"
`??macRxHaltCleanup::?relay` SYMBOL "?relay", macRxHaltCleanup
macRxInit           SYMBOL "macRxInit"
`??macRxInit::?relay` SYMBOL "?relay", macRxInit
macRxPromiscuousMode SYMBOL "macRxPromiscuousMode"
`??macRxPromiscuousMode::?relay` SYMBOL "?relay", macRxPromiscuousMode
macRxRadioPowerUpInit SYMBOL "macRxRadioPowerUpInit"
`??macRxRadioPowerUpInit::?relay` SYMBOL "?relay", macRxRadioPowerUpInit
macRxThresholdIsr   SYMBOL "macRxThresholdIsr"
`??macRxThresholdIsr::?relay` SYMBOL "?relay", macRxThresholdIsr
macRxTxReset        SYMBOL "macRxTxReset"
`??macRxTxReset::?relay` SYMBOL "?relay", macRxTxReset

        EXTERN `??MAC_SrcMatchCheckAllPending::?relay`
        FUNCTION `??MAC_SrcMatchCheckAllPending::?relay`,00H
        EXTERN `??MAC_SrcMatchCheckResult::?relay`
        FUNCTION `??MAC_SrcMatchCheckResult::?relay`,00H
        EXTERN `??halAssertHandler::?relay`
        FUNCTION `??halAssertHandler::?relay`,00H
        EXTERN `??macCspForceTxDoneIfPending::?relay`
        FUNCTION `??macCspForceTxDoneIfPending::?relay`,00H
        EXTERN `??macDataRxMemAlloc::?relay`
        FUNCTION `??macDataRxMemAlloc::?relay`,00H
        EXTERN `??macDataRxMemFree::?relay`
        FUNCTION `??macDataRxMemFree::?relay`,00H
        EXTERN `??macMcuOverflowCapture::?relay`
        FUNCTION `??macMcuOverflowCapture::?relay`,00H
        EXTERN `??macMcuTimerCapture::?relay`
        FUNCTION `??macMcuTimerCapture::?relay`,00H
        EXTERN `??macMemReadRxFifo::?relay`
        FUNCTION `??macMemReadRxFifo::?relay`,00H
        EXTERN `??macRadioComputeLQI::?relay`
        FUNCTION `??macRadioComputeLQI::?relay`,00H
        EXTERN `??macRadioUpdateTxPower::?relay`
        FUNCTION `??macRadioUpdateTxPower::?relay`,00H
        EXTERN `??macRxCheckMACPendingCallback::?relay`
        FUNCTION `??macRxCheckMACPendingCallback::?relay`,00H
        EXTERN `??macRxCheckPendingCallback::?relay`
        FUNCTION `??macRxCheckPendingCallback::?relay`,00H
        EXTERN `??macRxCompleteCallback::?relay`
        FUNCTION `??macRxCompleteCallback::?relay`,00H
        EXTERN `??macRxHardDisable::?relay`
        FUNCTION `??macRxHardDisable::?relay`,00H
        EXTERN `??macRxOffRequest::?relay`
        FUNCTION `??macRxOffRequest::?relay`,00H
        EXTERN `??macTxAckNotReceivedCallback::?relay`
        FUNCTION `??macTxAckNotReceivedCallback::?relay`,00H
        EXTERN `??macTxAckReceivedCallback::?relay`
        FUNCTION `??macTxAckReceivedCallback::?relay`,00H
        EXTERN `??macTxStartQueuedFrame::?relay`
        FUNCTION `??macTxStartQueuedFrame::?relay`,00H
        EXTERN `??osal_memcpy::?relay`
        FUNCTION `??osal_memcpy::?relay`,00H
        EXTERN `??sAddrExtCpy::?relay`
        FUNCTION `??sAddrExtCpy::?relay`,00H
        EXTERN MAC_SrcMatchCheckAllPending
        FUNCTION MAC_SrcMatchCheckAllPending,0202H
        ARGFRAME ISTACK, 0, STACK
        ARGFRAME PSTACK, 0, STACK
        ARGFRAME XSTACK, 17, STACK
        ARGFRAME IOVERLAY, 0, STATIC
        ARGFRAME DOVERLAY, 0, STATIC
        EXTERN MAC_SrcMatchCheckResult
        FUNCTION MAC_SrcMatchCheckResult,0202H
        ARGFRAME ISTACK, 0, STACK
        ARGFRAME PSTACK, 0, STACK
        ARGFRAME XSTACK, 10, STACK
        ARGFRAME IOVERLAY, 0, STATIC
        ARGFRAME DOVERLAY, 0, STATIC
        EXTERN halAssertHandler
        FUNCTION halAssertHandler,0202H
        ARGFRAME ISTACK, 2, STACK
        ARGFRAME PSTACK, 0, STACK
        ARGFRAME XSTACK, 32, STACK
        ARGFRAME IOVERLAY, 0, STATIC
        ARGFRAME DOVERLAY, 0, STATIC
        EXTERN macChipVersion
        EXTERN macCspForceTxDoneIfPending
        FUNCTION macCspForceTxDoneIfPending,0202H
        ARGFRAME ISTACK, 0, STACK
        ARGFRAME PSTACK, 0, STACK
        ARGFRAME XSTACK, 17, STACK
        ARGFRAME IOVERLAY, 0, STATIC
        ARGFRAME DOVERLAY, 0, STATIC
        EXTERN macDataRxMemAlloc
        FUNCTION macDataRxMemAlloc,0202H
        ARGFRAME ISTACK, 0, STACK
        ARGFRAME PSTACK, 0, STACK
        ARGFRAME XSTACK, 17, STACK
        ARGFRAME IOVERLAY, 0, STATIC
        ARGFRAME DOVERLAY, 0, STATIC
        EXTERN macDataRxMemFree
        FUNCTION macDataRxMemFree,0202H
        ARGFRAME ISTACK, 2, STACK
        ARGFRAME PSTACK, 0, STACK
        ARGFRAME XSTACK, 10, STACK
        ARGFRAME IOVERLAY, 0, STATIC
        ARGFRAME DOVERLAY, 0, STATIC
        EXTERN macMcuOverflowCapture
        FUNCTION macMcuOverflowCapture,0202H
        ARGFRAME ISTACK, 0, STACK
        ARGFRAME PSTACK, 0, STACK
        ARGFRAME XSTACK, 17, STACK
        ARGFRAME IOVERLAY, 0, STATIC
        ARGFRAME DOVERLAY, 0, STATIC
        EXTERN macMcuTimerCapture
        FUNCTION macMcuTimerCapture,0202H
        ARGFRAME ISTACK, 0, STACK
        ARGFRAME PSTACK, 0, STACK
        ARGFRAME XSTACK, 17, STACK
        ARGFRAME IOVERLAY, 0, STATIC
        ARGFRAME DOVERLAY, 0, STATIC
        EXTERN macMemReadRxFifo
        FUNCTION macMemReadRxFifo,0202H
        ARGFRAME ISTACK, 2, STACK
        ARGFRAME PSTACK, 0, STACK
        ARGFRAME XSTACK, 32, STACK
        ARGFRAME IOVERLAY, 0, STATIC
        ARGFRAME DOVERLAY, 0, STATIC
        EXTERN macRadioComputeLQI
        FUNCTION macRadioComputeLQI,0202H
        ARGFRAME ISTACK, 0, STACK
        ARGFRAME PSTACK, 0, STACK
        ARGFRAME XSTACK, 17, STACK
        ARGFRAME IOVERLAY, 0, STATIC
        ARGFRAME DOVERLAY, 0, STATIC
        EXTERN macRadioUpdateTxPower
        FUNCTION macRadioUpdateTxPower,0202H
        ARGFRAME ISTACK, 2, STACK
        ARGFRAME PSTACK, 0, STACK
        ARGFRAME XSTACK, 0, STACK
        ARGFRAME IOVERLAY, 0, STATIC
        ARGFRAME DOVERLAY, 0, STATIC
        EXTERN macRxCheckMACPendingCallback
        FUNCTION macRxCheckMACPendingCallback,0202H
        ARGFRAME ISTACK, 0, STACK
        ARGFRAME PSTACK, 0, STACK
        ARGFRAME XSTACK, 17, STACK
        ARGFRAME IOVERLAY, 0, STATIC
        ARGFRAME DOVERLAY, 0, STATIC
        EXTERN macRxCheckPendingCallback
        FUNCTION macRxCheckPendingCallback,0202H
        ARGFRAME ISTACK, 0, STACK
        ARGFRAME PSTACK, 0, STACK
        ARGFRAME XSTACK, 17, STACK
        ARGFRAME IOVERLAY, 0, STATIC
        ARGFRAME DOVERLAY, 0, STATIC
        EXTERN macRxCompleteCallback
        FUNCTION macRxCompleteCallback,0202H
        ARGFRAME ISTACK, 0, STACK
        ARGFRAME PSTACK, 0, STACK
        ARGFRAME XSTACK, 10, STACK
        ARGFRAME IOVERLAY, 0, STATIC
        ARGFRAME DOVERLAY, 0, STATIC
        EXTERN macRxHardDisable
        FUNCTION macRxHardDisable,0202H
        ARGFRAME ISTACK, 2, STACK
        ARGFRAME PSTACK, 0, STACK
        ARGFRAME XSTACK, 0, STACK
        ARGFRAME IOVERLAY, 0, STATIC
        ARGFRAME DOVERLAY, 0, STATIC
        EXTERN macRxOffRequest
        FUNCTION macRxOffRequest,0202H
        ARGFRAME ISTACK, 2, STACK
        ARGFRAME PSTACK, 0, STACK
        ARGFRAME XSTACK, 10, STACK
        ARGFRAME IOVERLAY, 0, STATIC
        ARGFRAME DOVERLAY, 0, STATIC
        EXTERN macRxOnFlag
        EXTERN macSrcMatchIsEnabled
        EXTERN macTxAckNotReceivedCallback
        FUNCTION macTxAckNotReceivedCallback,0202H
        ARGFRAME ISTACK, 0, STACK
        ARGFRAME PSTACK, 0, STACK
        ARGFRAME XSTACK, 17, STACK
        ARGFRAME IOVERLAY, 0, STATIC
        ARGFRAME DOVERLAY, 0, STATIC
        EXTERN macTxAckReceivedCallback
        FUNCTION macTxAckReceivedCallback,0202H
        ARGFRAME ISTACK, 0, STACK
        ARGFRAME PSTACK, 0, STACK
        ARGFRAME XSTACK, 17, STACK
        ARGFRAME IOVERLAY, 0, STATIC
        ARGFRAME DOVERLAY, 0, STATIC
        EXTERN macTxActive
        EXTERN macTxStartQueuedFrame
        FUNCTION macTxStartQueuedFrame,0202H
        ARGFRAME ISTACK, 2, STACK
        ARGFRAME PSTACK, 0, STACK
        ARGFRAME XSTACK, 0, STACK
        ARGFRAME IOVERLAY, 0, STATIC
        ARGFRAME DOVERLAY, 0, STATIC
        EXTERN osal_memcpy
        FUNCTION osal_memcpy,0202H
        ARGFRAME ISTACK, 0, STACK
        ARGFRAME PSTACK, 0, STACK
        ARGFRAME XSTACK, 20, STACK
        ARGFRAME IOVERLAY, 0, STATIC
        ARGFRAME DOVERLAY, 0, STATIC
        EXTERN pMacDataTx
        EXTERN sAddrExtCpy
        FUNCTION sAddrExtCpy,0202H
        ARGFRAME ISTACK, 0, STACK
        ARGFRAME PSTACK, 0, STACK
        ARGFRAME XSTACK, 32, STACK
        ARGFRAME IOVERLAY, 0, STATIC
        ARGFRAME DOVERLAY, 0, STATIC

// D:\AA\Z-Stack 3.0.2\Components\mac\low_level\srf04\mac_rx.c
//    1 /**************************************************************************************************
//    2   Filename:       mac_rx.c
//    3   Revised:        $Date: 2014-05-16 10:22:59 -0700 (Fri, 16 May 2014) $
//    4   Revision:       $Revision: 38564 $
//    5 
//    6   Description:    Describe the purpose and contents of the file.
//    7 
//    8 
//    9   Copyright 2006-2014 Texas Instruments Incorporated. All rights reserved.
//   10 
//   11   IMPORTANT: Your use of this Software is limited to those specific rights
//   12   granted under the terms of a software license agreement between the user
//   13   who downloaded the software, his/her employer (which must be your employer)
//   14   and Texas Instruments Incorporated (the "License").  You may not use this
//   15   Software unless you agree to abide by the terms of the License. The License
//   16   limits your use, and you acknowledge, that the Software may not be modified,
//   17   copied or distributed unless embedded on a Texas Instruments microcontroller
//   18   or used solely and exclusively in conjunction with a Texas Instruments radio
//   19   frequency transceiver, which is integrated into your product.  Other than for
//   20   the foregoing purpose, you may not use, reproduce, copy, prepare derivative
//   21   works of, modify, distribute, perform, display or sell this Software and/or
//   22   its documentation for any purpose.
//   23 
//   24   YOU FURTHER ACKNOWLEDGE AND AGREE THAT THE SOFTWARE AND DOCUMENTATION ARE
//   25   PROVIDED “AS IS” WITHOUT WARRANTY OF ANY KIND, EITHER EXPRESS OR IMPLIED,
//   26   INCLUDING WITHOUT LIMITATION, ANY WARRANTY OF MERCHANTABILITY, TITLE,
//   27   NON-INFRINGEMENT AND FITNESS FOR A PARTICULAR PURPOSE. IN NO EVENT SHALL
//   28   TEXAS INSTRUMENTS OR ITS LICENSORS BE LIABLE OR OBLIGATED UNDER CONTRACT,
//   29   NEGLIGENCE, STRICT LIABILITY, CONTRIBUTION, BREACH OF WARRANTY, OR OTHER
//   30   LEGAL EQUITABLE THEORY ANY DIRECT OR INDIRECT DAMAGES OR EXPENSES
//   31   INCLUDING BUT NOT LIMITED TO ANY INCIDENTAL, SPECIAL, INDIRECT, PUNITIVE
//   32   OR CONSEQUENTIAL DAMAGES, LOST PROFITS OR LOST DATA, COST OF PROCUREMENT
//   33   OF SUBSTITUTE GOODS, TECHNOLOGY, SERVICES, OR ANY CLAIMS BY THIRD PARTIES
//   34   (INCLUDING BUT NOT LIMITED TO ANY DEFENSE THEREOF), OR OTHER SIMILAR COSTS.
//   35 
//   36   Should you have any questions regarding your right to use this Software,
//   37   contact Texas Instruments Incorporated at www.TI.com.
//   38 **************************************************************************************************/
//   39 
//   40 /* ------------------------------------------------------------------------------------------------
//   41  *                                          Includes
//   42  * ------------------------------------------------------------------------------------------------
//   43  */
//   44 
//   45 /* hal */
//   46 #include "hal_defs.h"
//   47 #include "hal_types.h"
//   48 
//   49 /* OSAL */
//   50 #include "OSAL.h"
//   51 
//   52 /* high-level */
//   53 #include "mac_high_level.h"
//   54 #include "mac_spec.h"
//   55 #include "mac_pib.h"
//   56 
//   57 /* MAC security */
//   58 #include "mac_security.h"
//   59 
//   60 /* exported low-level */
//   61 #include "mac_low_level.h"
//   62 
//   63 /* low-level specific */
//   64 #include "mac_rx.h"
//   65 #include "mac_tx.h"
//   66 #include "mac_rx_onoff.h"
//   67 #include "mac_radio.h"
//   68 
//   69 /* target specific */
//   70 #include "mac_radio_defs.h"

        ASEGN SFR_AN:DATA:NOROOT,091H
// unsigned char volatile __sfr RFIRQF1
RFIRQF1:
        DATA8
        DS 1

        ASEGN SFR_AN:DATA:NOROOT,09bH
// unsigned char volatile __sfr S1CON
S1CON:
        DATA8
        DS 1

        ASEGN SFR_AN:DATA:NOROOT,0a8H
// union <unnamed> volatile __sfr _A_IEN0
_A_IEN0:
        DATA8
        DS 1

        ASEGN SFR_AN:DATA:NOROOT,0e1H
// unsigned char volatile __sfr RFST
RFST:
        DATA8
        DS 1

        ASEGN SFR_AN:DATA:NOROOT,0e9H
// unsigned char volatile __sfr RFIRQF0
RFIRQF0:
        DATA8
        DS 1
//   71 #include "mac_autopend.h"
//   72 
//   73 /* debug */
//   74 #include "mac_assert.h"
//   75 
//   76 #ifdef ACK_DONE_ISR_WORKAROUND
//   77 typedef struct macTimer_s
//   78 {
//   79   struct macTimer_s     *pNext;                     /* next timer in queue */
//   80   int32                 backoff;                    /* timer expiration count */
//   81   void                  (*pFunc)(uint8 parameter);  /* timer callback function */
//   82   uint8                 parameter;                  /* callback function parameter */
//   83 } macTimer_t;
//   84 
//   85 extern macTimer_t macTxAckIsrTimer;
//   86 extern void macTimerCancel(macTimer_t *pTimer);
//   87 #endif /* ACK_DONE_ISR_WROKAROUND */
//   88 
//   89 
//   90 
//   91 /* ------------------------------------------------------------------------------------------------
//   92  *                                            Defines
//   93  * ------------------------------------------------------------------------------------------------
//   94  */
//   95 #define MAX_PAYLOAD_BYTES_READ_PER_INTERRUPT   16   /* adjustable to tune performance */
//   96 
//   97 /* receive FIFO bytes needed to start a valid receive (see function rxStartIsr for details) */
//   98 #define RX_THRESHOLD_START_LEN    (MAC_PHY_PHR_LEN        +  \ 
//   99                                    MAC_FCF_FIELD_LEN      +  \ 
//  100                                    MAC_SEQ_NUM_FIELD_LEN  +  \ 
//  101                                    MAC_FCS_FIELD_LEN)
//  102 
//  103 /* maximum size of addressing fields (note: command frame identifier processed as part of address) */
//  104 #define MAX_ADDR_FIELDS_LEN  ((MAC_EXT_ADDR_FIELD_LEN + MAC_PAN_ID_FIELD_LEN) * 2)
//  105 
//  106 /* addressing mode reserved value */
//  107 #define ADDR_MODE_RESERVERED  1
//  108 
//  109 /* length of command frame identifier */
//  110 #define CMD_FRAME_ID_LEN      1
//  111 
//  112 /* packet size mask is equal to the maximum value */
//  113 #define PHY_PACKET_SIZE_MASK  0x7F
//  114 
//  115 /* value for promiscuous off, must not conflict with other mode variants from separate include files */
//  116 #define PROMISCUOUS_MODE_OFF  0x00
//  117 
//  118 /* bit of proprietary FCS format that indicates if the CRC is OK */
//  119 #define PROPRIETARY_FCS_CRC_OK_BIT  0x80
//  120 
//  121 /* dummy length value for unused entry in lookup table */
//  122 #define DUMMY_LEN   0xBE
//  123 
//  124 /* value for rxThresholdIntState */
//  125 #define RX_THRESHOLD_INT_STATE_INACTIVE   0
//  126 #define RX_THRESHOLD_INT_STATE_ACTIVE     1
//  127 #define RX_THRESHOLD_INT_STATE_RESET      2
//  128 
//  129 
//  130 /* ------------------------------------------------------------------------------------------------
//  131  *                                             Macros
//  132  * ------------------------------------------------------------------------------------------------
//  133  */
//  134 #define MEM_ALLOC(x)   macDataRxMemAlloc(x)
//  135 #define MEM_FREE(x)    macDataRxMemFree((uint8 **)x)
//  136 
//  137 /*
//  138  *  Macro for encoding frame control information into internal flags format.
//  139  *  Parameter is pointer to the frame.  NOTE!  If either the internal frame
//  140  *  format *or* the specification changes, this macro will need to be modified.
//  141  */
//  142 #define INTERNAL_FCF_FLAGS(p)  ((((p)[1] >> 4) & 0x03) | ((p)[0] & 0x78))
//  143 
//  144 /*
//  145  *  The radio replaces the actual FCS with different information.  This proprietary FCS is
//  146  *  the same length as the original and includes:
//  147  *    1) the RSSI value
//  148  *    2) the average correlation value (used for LQI)
//  149  *    3) a CRC passed bit
//  150  *
//  151  *  These macros decode the proprietary FCS.  The macro parameter is a pointer to the two byte FCS.
//  152  */
//  153 #define PROPRIETARY_FCS_RSSI(p)                 ((int8)((p)[0]))
//  154 #define PROPRIETARY_FCS_CRC_OK(p)               ((p)[1] & PROPRIETARY_FCS_CRC_OK_BIT)
//  155 #define PROPRIETARY_FCS_CORRELATION_VALUE(p)    ((p)[1] & ~PROPRIETARY_FCS_CRC_OK_BIT)
//  156 
//  157 /*
//  158  *  Macros for security control field.
//  159  */
//  160 #define SECURITY_LEVEL(s)                       (s & 0x07)
//  161 #define KEY_IDENTIFIER_MODE(s)                  ((s & 0x18) >> 3)
//  162 #define SECURITY_CONTROL_RESERVED(s)            ((s & 0xE0) >> 5)
//  163 
//  164 /* ------------------------------------------------------------------------------------------------
//  165  *                                       Global Variables
//  166  * ------------------------------------------------------------------------------------------------
//  167  */

        RSEG XDATA_Z:XDATA:NOROOT(0)
        DATA8
//  168 uint8 macRxActive;
macRxActive:
        DS 1
        REQUIRE __INIT_XDATA_Z

        RSEG XDATA_Z:XDATA:NOROOT(0)
        DATA8
//  169 uint8 macRxFilter;
macRxFilter:
        DS 1
        REQUIRE __INIT_XDATA_Z

        RSEG XDATA_Z:XDATA:NOROOT(0)
        DATA8
//  170 uint8 macRxOutgoingAckFlag;
macRxOutgoingAckFlag:
        DS 1
        REQUIRE __INIT_XDATA_Z
//  171 
//  172 
//  173 /* ------------------------------------------------------------------------------------------------
//  174  *                                       Local Constants
//  175  * ------------------------------------------------------------------------------------------------
//  176  */

        RSEG CODE_C:CODE:REORDER:NOROOT(0)
        DATA32
//  177 static const uint8 CODE macRxAddrLen[] =
macRxAddrLen:
        DATA8
        DB 0
        DB 190
        DB 4
        DB 10
//  178 {
//  179   0,                                                /* no address */
//  180   DUMMY_LEN,                                        /* reserved */
//  181   MAC_PAN_ID_FIELD_LEN + MAC_SHORT_ADDR_FIELD_LEN,  /* short address + pan id */
//  182   MAC_PAN_ID_FIELD_LEN + MAC_EXT_ADDR_FIELD_LEN     /* extended address + pan id */
//  183 };
//  184 
//  185 
//  186 /* ------------------------------------------------------------------------------------------------
//  187  *                                       Local Prototypes
//  188  * ------------------------------------------------------------------------------------------------
//  189  */
//  190 static void rxHaltCleanupFinalStep(void);
//  191 
//  192 static void rxStartIsr(void);
//  193 static void rxAddrIsr(void);
//  194 
//  195 #ifdef FEATURE_MAC_SECURITY
//  196   static void rxSecurityHdrIsr(void);
//  197 #endif
//  198 
//  199 static void rxPayloadIsr(void);
//  200 static void rxDiscardIsr(void);
//  201 static void rxFcsIsr(void);
//  202 
//  203 static void rxPrepPayload(void);
//  204 static void rxDiscardFrame(void);
//  205 static void rxDone(void);
//  206 static void rxPostRxUpdates(void);
//  207 
//  208 
//  209 /* ------------------------------------------------------------------------------------------------
//  210  *                                         Local Variables
//  211  * ------------------------------------------------------------------------------------------------
//  212  */

        RSEG XDATA_Z:XDATA:NOROOT(0)
        DATA16
//  213 static void    (* pFuncRxState)(void);
pFuncRxState:
        DS 2
        REQUIRE __INIT_XDATA_Z

        RSEG XDATA_Z:XDATA:NOROOT(0)
        DATA16
//  214 static macRx_t  * pRxBuf;
pRxBuf:
        DS 2
        REQUIRE __INIT_XDATA_Z
//  215 

        RSEG XDATA_Z:XDATA:NOROOT(0)
        DATA32
//  216 static uint8  rxBuf[MAC_PHY_PHR_LEN + MAC_FCF_FIELD_LEN + MAC_SEQ_NUM_FIELD_LEN];
rxBuf:
        DS 4
        REQUIRE __INIT_XDATA_Z

        RSEG XDATA_Z:XDATA:NOROOT(0)
        DATA8
//  217 static uint8  rxUnreadLen;
rxUnreadLen:
        DS 1
        REQUIRE __INIT_XDATA_Z

        RSEG XDATA_Z:XDATA:NOROOT(0)
        DATA8
//  218 static uint8  rxNextLen;
rxNextLen:
        DS 1
        REQUIRE __INIT_XDATA_Z

        RSEG XDATA_Z:XDATA:NOROOT(0)
        DATA8
//  219 static uint8  rxPayloadLen;
rxPayloadLen:
        DS 1
        REQUIRE __INIT_XDATA_Z

        RSEG XDATA_Z:XDATA:NOROOT(0)
        DATA8
//  220 static uint8  rxFilter;
rxFilter:
        DS 1
        REQUIRE __INIT_XDATA_Z

        RSEG XDATA_Z:XDATA:NOROOT(0)
        DATA8
//  221 static uint8  rxPromiscuousMode;
rxPromiscuousMode:
        DS 1
        REQUIRE __INIT_XDATA_Z

        RSEG XDATA_Z:XDATA:NOROOT(0)
        DATA8
//  222 static uint8  rxIsrActiveFlag;
rxIsrActiveFlag:
        DS 1
        REQUIRE __INIT_XDATA_Z

        RSEG XDATA_Z:XDATA:NOROOT(0)
        DATA8
//  223 static uint8  rxResetFlag;
rxResetFlag:
        DS 1
        REQUIRE __INIT_XDATA_Z

        RSEG XDATA_Z:XDATA:NOROOT(0)
        DATA8
//  224 static uint8  rxFifoOverflowCount;
rxFifoOverflowCount:
        DS 1
        REQUIRE __INIT_XDATA_Z
//  225 
//  226 
//  227 /**************************************************************************************************
//  228  * @fn          macRxInit
//  229  *
//  230  * @brief       Initialize receive variable states.
//  231  *
//  232  * @param       none
//  233  *
//  234  * @return      none
//  235  **************************************************************************************************
//  236  */

        RSEG BANKED_CODE:HUGECODE:NOROOT(0)
//  237 MAC_INTERNAL_API void macRxInit(void)
macRxInit:
          CFI Block cfiBlock0 Using cfiCommon0
          CFI Function macRxInit
        CODE
//  238 {
        PUSH      DPL
          CFI DPL0 Frame(CFA_SP, 4)
          CFI CFA_SP SP+-4
        PUSH      DPH
          CFI DPH0 Frame(CFA_SP, 5)
          CFI CFA_SP SP+-5
        ; Saved register size: 2
        ; Auto size: 0
//  239   macRxFilter          = RX_FILTER_OFF;
        MOV       DPTR,#macRxFilter
        MOV       A,#0x0
        MOVX      @DPTR,A
//  240   rxPromiscuousMode    = PROMISCUOUS_MODE_OFF;
        MOV       DPTR,#rxPromiscuousMode
        MOV       A,#0x0
        MOVX      @DPTR,A
//  241   pRxBuf               = NULL; /* required for macRxReset() to function correctly */
        MOV       DPTR,#pRxBuf
        MOV       A,#0x0
        MOVX      @DPTR,A
        INC       DPTR
        MOV       A,#0x0
        MOVX      @DPTR,A
//  242   macRxActive          = MAC_RX_ACTIVE_NO_ACTIVITY;
        MOV       DPTR,#macRxActive
        MOV       A,#0x0
        MOVX      @DPTR,A
//  243   pFuncRxState         = &rxStartIsr;
        MOV       DPTR,#pFuncRxState
        MOV       A,#`??rxStartIsr::?relay` & 0xff
        MOVX      @DPTR,A
        INC       DPTR
        MOV       A,#(`??rxStartIsr::?relay` >> 8) & 0xff
        MOVX      @DPTR,A
//  244   macRxOutgoingAckFlag = 0;
        MOV       DPTR,#macRxOutgoingAckFlag
        MOV       A,#0x0
        MOVX      @DPTR,A
//  245   rxIsrActiveFlag      = 0;
        MOV       DPTR,#rxIsrActiveFlag
        MOV       A,#0x0
        MOVX      @DPTR,A
//  246   rxResetFlag          = 0;
        MOV       DPTR,#rxResetFlag
        MOV       A,#0x0
        MOVX      @DPTR,A
//  247   rxFifoOverflowCount  = 0;
        MOV       DPTR,#rxFifoOverflowCount
        MOV       A,#0x0
        MOVX      @DPTR,A
//  248 }
        POP       DPH
          CFI DPH0 SameValue
          CFI CFA_SP SP+-4
        POP       DPL
          CFI DPL0 SameValue
          CFI CFA_SP SP+-3
        LJMP      ?BRET
          CFI EndBlock cfiBlock0
//  249 
//  250 
//  251 /**************************************************************************************************
//  252  * @fn          macRxRadioPowerUpInit
//  253  *
//  254  * @brief       Initialization for after radio first powers up.
//  255  *
//  256  * @param       none
//  257  *
//  258  * @return      none
//  259  **************************************************************************************************
//  260  */

        RSEG BANKED_CODE:HUGECODE:NOROOT(0)
//  261 MAC_INTERNAL_API void macRxRadioPowerUpInit(void)
macRxRadioPowerUpInit:
          CFI Block cfiBlock1 Using cfiCommon0
          CFI Function macRxRadioPowerUpInit
        CODE
//  262 {
        PUSH      DPL
          CFI DPL0 Frame(CFA_SP, 4)
          CFI CFA_SP SP+-4
        PUSH      DPH
          CFI DPH0 Frame(CFA_SP, 5)
          CFI CFA_SP SP+-5
        ; Saved register size: 2
        ; Auto size: 0
//  263   /* set threshold at initial value */
//  264   MAC_RADIO_SET_RX_THRESHOLD(RX_THRESHOLD_START_LEN);
        MOV       DPTR,#0x6194
        MOV       A,#0x5
        MOVX      @DPTR,A
//  265 
//  266   /* clear any accidental threshold interrupt that happened as part of power up sequence */
//  267   MAC_RADIO_CLEAR_RX_THRESHOLD_INTERRUPT_FLAG();
        MOV       C,0xa8.7
        CLR       A
        RLC       A
        MOV       R0,A
        CLR       0xa8.7
        MOV       0x9b,#0x0
        MOV       0xe9,#-0x5
        MOV       A,R0
        MOV       C,0xE0 /* A   */.0
        MOV       0xa8.7,C
//  268 
//  269   /* enable threshold interrupts */
//  270   MAC_RADIO_ENABLE_RX_THRESHOLD_INTERRUPT();
        MOV       DPTR,#0x61a3
        MOVX      A,@DPTR
        SETB      0xE0 /* A   */.2
        MOVX      @DPTR,A
//  271 }
        POP       DPH
          CFI DPH0 SameValue
          CFI CFA_SP SP+-4
        POP       DPL
          CFI DPL0 SameValue
          CFI CFA_SP SP+-3
        LJMP      ?BRET
          CFI EndBlock cfiBlock1
        REQUIRE _A_IEN0
        REQUIRE S1CON
        REQUIRE RFIRQF0
//  272 
//  273 
//  274 /**************************************************************************************************
//  275  * @fn          macRxTxReset
//  276  *
//  277  * @brief       Reset the receive state.
//  278  *
//  279  * @param       none
//  280  *
//  281  * @return      none
//  282  **************************************************************************************************
//  283  */

        RSEG BANKED_CODE:HUGECODE:NOROOT(0)
//  284 MAC_INTERNAL_API void macRxTxReset(void)
macRxTxReset:
          CFI Block cfiBlock2 Using cfiCommon0
          CFI Function macRxTxReset
        CODE
//  285 {
        FUNCALL macRxTxReset, macRxHardDisable
        LOCFRAME ISTACK, 2, STACK
        LOCFRAME PSTACK, 0, STACK
        LOCFRAME XSTACK, 0, STACK
        LOCFRAME IOVERLAY, 0, STATIC
        LOCFRAME DOVERLAY, 0, STATIC
        ARGFRAME ISTACK, 2, STACK
        ARGFRAME PSTACK, 0, STACK
        ARGFRAME XSTACK, 0, STACK
        ARGFRAME IOVERLAY, 0, STATIC
        ARGFRAME DOVERLAY, 0, STATIC
        FUNCALL macRxTxReset, macRxPromiscuousMode
        LOCFRAME ISTACK, 2, STACK
        LOCFRAME PSTACK, 0, STACK
        LOCFRAME XSTACK, 0, STACK
        LOCFRAME IOVERLAY, 0, STATIC
        LOCFRAME DOVERLAY, 0, STATIC
        ARGFRAME ISTACK, 2, STACK
        ARGFRAME PSTACK, 0, STACK
        ARGFRAME XSTACK, 0, STACK
        ARGFRAME IOVERLAY, 0, STATIC
        ARGFRAME DOVERLAY, 0, STATIC
        PUSH      DPL
          CFI DPL0 Frame(CFA_SP, 4)
          CFI CFA_SP SP+-4
        PUSH      DPH
          CFI DPH0 Frame(CFA_SP, 5)
          CFI CFA_SP SP+-5
        ; Saved register size: 2
        ; Auto size: 0
//  286   /* forces receiver off, cleans up by calling macRxHaltCleanup() and macTxHaltCleanup() */
//  287   macRxHardDisable();
        ; Setup parameters for call to function macRxHardDisable
        LCALL     `??macRxHardDisable::?relay`; Banked call to: macRxHardDisable
//  288 
//  289   /*
//  290    *   Note : transmit does not require any reset logic
//  291    *          beyond what macRxHardDisable() provides.
//  292    */
//  293 
//  294   /* restore deault filter mode to off */
//  295   macRxFilter = RX_FILTER_OFF;
        MOV       DPTR,#macRxFilter
        MOV       A,#0x0
        MOVX      @DPTR,A
//  296 
//  297   /* return promiscuous mode to default off state */
//  298   macRxPromiscuousMode(MAC_PROMISCUOUS_MODE_OFF);
        ; Setup parameters for call to function macRxPromiscuousMode
        MOV       R1,#0x0
        LCALL     `??macRxPromiscuousMode::?relay`; Banked call to: macRxPromiscuousMode
//  299 }
        POP       DPH
          CFI DPH0 SameValue
          CFI CFA_SP SP+-4
        POP       DPL
          CFI DPL0 SameValue
          CFI CFA_SP SP+-3
        LJMP      ?BRET
          CFI EndBlock cfiBlock2
//  300 
//  301 
//  302 /**************************************************************************************************
//  303  * @fn          macRxHaltCleanup
//  304  *
//  305  * @brief       Cleanup up the receive logic after receiver is forced off.
//  306  *
//  307  * @param       none
//  308  *
//  309  * @return      none
//  310  **************************************************************************************************
//  311  */

        RSEG BANKED_CODE:HUGECODE:NOROOT(0)
//  312 MAC_INTERNAL_API void macRxHaltCleanup(void)
macRxHaltCleanup:
          CFI Block cfiBlock3 Using cfiCommon0
          CFI Function macRxHaltCleanup
        CODE
//  313 {
        FUNCALL macRxHaltCleanup, rxHaltCleanupFinalStep
        LOCFRAME ISTACK, 2, STACK
        LOCFRAME PSTACK, 0, STACK
        LOCFRAME XSTACK, 0, STACK
        LOCFRAME IOVERLAY, 0, STATIC
        LOCFRAME DOVERLAY, 0, STATIC
        ARGFRAME ISTACK, 2, STACK
        ARGFRAME PSTACK, 0, STACK
        ARGFRAME XSTACK, 0, STACK
        ARGFRAME IOVERLAY, 0, STATIC
        ARGFRAME DOVERLAY, 0, STATIC
        PUSH      DPL
          CFI DPL0 Frame(CFA_SP, 4)
          CFI CFA_SP SP+-4
        PUSH      DPH
          CFI DPH0 Frame(CFA_SP, 5)
          CFI CFA_SP SP+-5
        ; Saved register size: 2
        ; Auto size: 0
//  314   rxResetFlag = 1;
        MOV       DPTR,#rxResetFlag
        MOV       A,#0x1
        MOVX      @DPTR,A
//  315   if (!rxIsrActiveFlag)
        MOV       DPTR,#rxIsrActiveFlag
        MOVX      A,@DPTR
        JNZ       ??macRxHaltCleanup_0
//  316   {
//  317     rxHaltCleanupFinalStep();
        ; Setup parameters for call to function rxHaltCleanupFinalStep
        LCALL     `??rxHaltCleanupFinalStep::?relay`; Banked call to: rxHaltCleanupFinalStep
//  318     rxResetFlag = 0;
        MOV       DPTR,#rxResetFlag
        MOV       A,#0x0
        MOVX      @DPTR,A
//  319   }
//  320 }
??macRxHaltCleanup_0:
        POP       DPH
          CFI DPH0 SameValue
          CFI CFA_SP SP+-4
        POP       DPL
          CFI DPL0 SameValue
          CFI CFA_SP SP+-3
        LJMP      ?BRET
          CFI EndBlock cfiBlock3
//  321 
//  322 
//  323 /*=================================================================================================
//  324  * @fn          rxHaltCleanupFinalStep
//  325  *
//  326  * @brief       Required cleanup if receiver is halted in the middle of a receive.
//  327  *
//  328  * @param       none
//  329  *
//  330  * @return      none
//  331  *=================================================================================================
//  332  */

        RSEG BANKED_CODE:HUGECODE:NOROOT(0)
//  333 static void rxHaltCleanupFinalStep(void)
rxHaltCleanupFinalStep:
          CFI Block cfiBlock4 Using cfiCommon0
          CFI Function rxHaltCleanupFinalStep
        CODE
//  334 {  
        FUNCALL rxHaltCleanupFinalStep, macDataRxMemFree
        LOCFRAME ISTACK, 2, STACK
        LOCFRAME PSTACK, 0, STACK
        LOCFRAME XSTACK, 0, STACK
        LOCFRAME IOVERLAY, 0, STATIC
        LOCFRAME DOVERLAY, 0, STATIC
        ARGFRAME ISTACK, 2, STACK
        ARGFRAME PSTACK, 0, STACK
        ARGFRAME XSTACK, 0, STACK
        ARGFRAME IOVERLAY, 0, STATIC
        ARGFRAME DOVERLAY, 0, STATIC
        FUNCALL rxHaltCleanupFinalStep, rxPostRxUpdates
        LOCFRAME ISTACK, 2, STACK
        LOCFRAME PSTACK, 0, STACK
        LOCFRAME XSTACK, 0, STACK
        LOCFRAME IOVERLAY, 0, STATIC
        LOCFRAME DOVERLAY, 0, STATIC
        ARGFRAME ISTACK, 2, STACK
        ARGFRAME PSTACK, 0, STACK
        ARGFRAME XSTACK, 0, STACK
        ARGFRAME IOVERLAY, 0, STATIC
        ARGFRAME DOVERLAY, 0, STATIC
        PUSH      DPL
          CFI DPL0 Frame(CFA_SP, 4)
          CFI CFA_SP SP+-4
        PUSH      DPH
          CFI DPH0 Frame(CFA_SP, 5)
          CFI CFA_SP SP+-5
        ; Saved register size: 2
        ; Auto size: 0
//  335   /* cancel any upcoming ACK transmit complete callback */
//  336   MAC_RADIO_CANCEL_ACK_TX_DONE_CALLBACK();
        MOV       DPTR,#0x61a4
        MOVX      A,@DPTR
        CLR       0xE0 /* A   */.0
        MOVX      @DPTR,A
//  337 
//  338   /* set start of frame threshold */
//  339   MAC_RADIO_SET_RX_THRESHOLD(RX_THRESHOLD_START_LEN);
        MOV       DPTR,#0x6194
        MOV       A,#0x5
        MOVX      @DPTR,A
//  340 
//  341   /* flush the receive FIFO */
//  342   MAC_RADIO_FLUSH_RX_FIFO();
        MOV       0xe1,#-0x13
        MOV       0xe1,#-0x13
//  343 
//  344   /* clear any receive interrupt that happened to squeak through */
//  345   MAC_RADIO_CLEAR_RX_THRESHOLD_INTERRUPT_FLAG();
        MOV       C,0xa8.7
        CLR       A
        RLC       A
        MOV       R2,A
        CLR       0xa8.7
        MOV       0x9b,#0x0
        MOV       0xe9,#-0x5
        MOV       A,R2
        MOV       C,0xE0 /* A   */.0
        MOV       0xa8.7,C
//  346 
//  347   /* if data buffer has been allocated, free it */
//  348   if (pRxBuf != NULL)
        MOV       DPTR,#pRxBuf
        MOVX      A,@DPTR
        MOV       R0,A
        INC       DPTR
        MOVX      A,@DPTR
        MOV       R1,A
        MOV       A,R0
        ORL       A,R1
        JZ        ??rxHaltCleanupFinalStep_0
//  349   {
//  350     MEM_FREE((uint8 **)&pRxBuf);
        ; Setup parameters for call to function macDataRxMemFree
        MOV       R2,#pRxBuf & 0xff
        MOV       R3,#(pRxBuf >> 8) & 0xff
        LCALL     `??macDataRxMemFree::?relay`; Banked call to: macDataRxMemFree
        MOV       A,R1
//  351   }
//  352   /* MEM_FREE() sets parameter to NULL. */
//  353 
//  354   pFuncRxState = &rxStartIsr;
??rxHaltCleanupFinalStep_0:
        MOV       DPTR,#pFuncRxState
        MOV       A,#`??rxStartIsr::?relay` & 0xff
        MOVX      @DPTR,A
        INC       DPTR
        MOV       A,#(`??rxStartIsr::?relay` >> 8) & 0xff
        MOVX      @DPTR,A
//  355 
//  356   /* if receive was active, perform the post receive updates */
//  357   if (macRxActive || macRxOutgoingAckFlag)
        MOV       DPTR,#macRxActive
        MOVX      A,@DPTR
        JNZ       ??rxHaltCleanupFinalStep_1
        MOV       DPTR,#macRxOutgoingAckFlag
        MOVX      A,@DPTR
        JZ        ??rxHaltCleanupFinalStep_2
//  358   {
//  359     macRxActive = MAC_RX_ACTIVE_NO_ACTIVITY;
??rxHaltCleanupFinalStep_1:
        MOV       DPTR,#macRxActive
        MOV       A,#0x0
        MOVX      @DPTR,A
//  360     macRxOutgoingAckFlag = 0;
        MOV       DPTR,#macRxOutgoingAckFlag
        MOV       A,#0x0
        MOVX      @DPTR,A
//  361 
//  362     rxPostRxUpdates();
        ; Setup parameters for call to function rxPostRxUpdates
        LCALL     `??rxPostRxUpdates::?relay`; Banked call to: rxPostRxUpdates
//  363   }
//  364 }
??rxHaltCleanupFinalStep_2:
        POP       DPH
          CFI DPH0 SameValue
          CFI CFA_SP SP+-4
        POP       DPL
          CFI DPL0 SameValue
          CFI CFA_SP SP+-3
        LJMP      ?BRET
          CFI EndBlock cfiBlock4
        REQUIRE RFST
        REQUIRE _A_IEN0
        REQUIRE S1CON
        REQUIRE RFIRQF0
//  365 
//  366 
//  367 /**************************************************************************************************
//  368  * @fn          macRxThresholdIsr
//  369  *
//  370  * @brief       Interrupt service routine called when bytes in FIFO reach threshold value.
//  371  *              It implements a state machine for receiving a packet.
//  372  *
//  373  * @param       none
//  374  *
//  375  * @return      none
//  376  **************************************************************************************************
//  377  */

        RSEG BANKED_CODE:HUGECODE:NOROOT(0)
//  378 MAC_INTERNAL_API void macRxThresholdIsr(void)
macRxThresholdIsr:
          CFI Block cfiBlock5 Using cfiCommon0
          CFI Function macRxThresholdIsr
        CODE
//  379 {
        FUNCALL macRxThresholdIsr, rxHaltCleanupFinalStep
        LOCFRAME ISTACK, 2, STACK
        LOCFRAME PSTACK, 0, STACK
        LOCFRAME XSTACK, 0, STACK
        LOCFRAME IOVERLAY, 0, STATIC
        LOCFRAME DOVERLAY, 0, STATIC
        ARGFRAME ISTACK, 2, STACK
        ARGFRAME PSTACK, 0, STACK
        ARGFRAME XSTACK, 0, STACK
        ARGFRAME IOVERLAY, 0, STATIC
        ARGFRAME DOVERLAY, 0, STATIC
        PUSH      DPL
          CFI DPL0 Frame(CFA_SP, 4)
          CFI CFA_SP SP+-4
        PUSH      DPH
          CFI DPH0 Frame(CFA_SP, 5)
          CFI CFA_SP SP+-5
        ; Saved register size: 2
        ; Auto size: 0
//  380   /* if currently reseting, do not execute receive ISR logic */
//  381   if (rxResetFlag)
        MOV       DPTR,#rxResetFlag
        MOVX      A,@DPTR
        JNZ       ??macRxThresholdIsr_0
//  382   {
//  383     return;
//  384   }
//  385 
//  386   /*
//  387    *  Call the function that handles the current receive state.
//  388    *  A flag is set for the duration of the call to indicate
//  389    *  the ISR is executing.  This is necessary for the reset
//  390    *  logic so it does not perform a reset in the middle of
//  391    *  executing the ISR.
//  392    */
//  393   rxIsrActiveFlag = 1;
        MOV       DPTR,#rxIsrActiveFlag
        MOV       A,#0x1
        MOVX      @DPTR,A
//  394   (*pFuncRxState)();
        ; Setup parameters for indirect call
        MOV       DPTR,#pFuncRxState
        MOVX      A,@DPTR
        MOV       R0,A
        INC       DPTR
        MOVX      A,@DPTR
        MOV       DPH,A
        MOV       DPL,R0
        LCALL     ?CALL_IND
//  395   rxIsrActiveFlag = 0;
        MOV       DPTR,#rxIsrActiveFlag
        MOV       A,#0x0
        MOVX      @DPTR,A
//  396 
//  397   /* if a reset occurred during the ISR, peform cleanup here */
//  398   if (rxResetFlag)
        MOV       DPTR,#rxResetFlag
        MOVX      A,@DPTR
        JZ        ??macRxThresholdIsr_0
//  399   {
//  400     rxHaltCleanupFinalStep();
        ; Setup parameters for call to function rxHaltCleanupFinalStep
        LCALL     `??rxHaltCleanupFinalStep::?relay`; Banked call to: rxHaltCleanupFinalStep
//  401     rxResetFlag = 0;
        MOV       DPTR,#rxResetFlag
        MOV       A,#0x0
        MOVX      @DPTR,A
//  402   }
//  403 }
??macRxThresholdIsr_0:
        POP       DPH
          CFI DPH0 SameValue
          CFI CFA_SP SP+-4
        POP       DPL
          CFI DPL0 SameValue
          CFI CFA_SP SP+-3
        LJMP      ?BRET
          CFI EndBlock cfiBlock5
//  404 
//  405 
//  406 /*=================================================================================================
//  407  * @fn          rxStartIsr
//  408  *
//  409  * @brief       First ISR state for receiving a packet - compute packet length, allocate
//  410  *              buffer, initialize buffer.  Acknowledgements are handled immediately without
//  411  *              allocating a buffer.
//  412  *
//  413  * @param       none
//  414  *
//  415  * @return      none
//  416  *=================================================================================================
//  417  */

        RSEG BANKED_CODE:HUGECODE:NOROOT(0)
//  418 static void rxStartIsr(void)
rxStartIsr:
          CFI Block cfiBlock6 Using cfiCommon0
          CFI Function rxStartIsr
        CODE
//  419 {
        FUNCALL rxStartIsr, halAssertHandler
        LOCFRAME ISTACK, 0, STACK
        LOCFRAME PSTACK, 0, STACK
        LOCFRAME XSTACK, 17, STACK
        LOCFRAME IOVERLAY, 0, STATIC
        LOCFRAME DOVERLAY, 0, STATIC
        ARGFRAME ISTACK, 0, STACK
        ARGFRAME PSTACK, 0, STACK
        ARGFRAME XSTACK, 17, STACK
        ARGFRAME IOVERLAY, 0, STATIC
        ARGFRAME DOVERLAY, 0, STATIC
        FUNCALL rxStartIsr, rxPostRxUpdates
        LOCFRAME ISTACK, 0, STACK
        LOCFRAME PSTACK, 0, STACK
        LOCFRAME XSTACK, 17, STACK
        LOCFRAME IOVERLAY, 0, STATIC
        LOCFRAME DOVERLAY, 0, STATIC
        ARGFRAME ISTACK, 0, STACK
        ARGFRAME PSTACK, 0, STACK
        ARGFRAME XSTACK, 17, STACK
        ARGFRAME IOVERLAY, 0, STATIC
        ARGFRAME DOVERLAY, 0, STATIC
        FUNCALL rxStartIsr, macCspForceTxDoneIfPending
        LOCFRAME ISTACK, 0, STACK
        LOCFRAME PSTACK, 0, STACK
        LOCFRAME XSTACK, 17, STACK
        LOCFRAME IOVERLAY, 0, STATIC
        LOCFRAME DOVERLAY, 0, STATIC
        ARGFRAME ISTACK, 0, STACK
        ARGFRAME PSTACK, 0, STACK
        ARGFRAME XSTACK, 17, STACK
        ARGFRAME IOVERLAY, 0, STATIC
        ARGFRAME DOVERLAY, 0, STATIC
        FUNCALL rxStartIsr, macMemReadRxFifo
        LOCFRAME ISTACK, 0, STACK
        LOCFRAME PSTACK, 0, STACK
        LOCFRAME XSTACK, 17, STACK
        LOCFRAME IOVERLAY, 0, STATIC
        LOCFRAME DOVERLAY, 0, STATIC
        ARGFRAME ISTACK, 0, STACK
        ARGFRAME PSTACK, 0, STACK
        ARGFRAME XSTACK, 17, STACK
        ARGFRAME IOVERLAY, 0, STATIC
        ARGFRAME DOVERLAY, 0, STATIC
        FUNCALL rxStartIsr, rxDone
        LOCFRAME ISTACK, 0, STACK
        LOCFRAME PSTACK, 0, STACK
        LOCFRAME XSTACK, 17, STACK
        LOCFRAME IOVERLAY, 0, STATIC
        LOCFRAME DOVERLAY, 0, STATIC
        ARGFRAME ISTACK, 0, STACK
        ARGFRAME PSTACK, 0, STACK
        ARGFRAME XSTACK, 17, STACK
        ARGFRAME IOVERLAY, 0, STATIC
        ARGFRAME DOVERLAY, 0, STATIC
        FUNCALL rxStartIsr, macMemReadRxFifo
        LOCFRAME ISTACK, 0, STACK
        LOCFRAME PSTACK, 0, STACK
        LOCFRAME XSTACK, 17, STACK
        LOCFRAME IOVERLAY, 0, STATIC
        LOCFRAME DOVERLAY, 0, STATIC
        ARGFRAME ISTACK, 0, STACK
        ARGFRAME PSTACK, 0, STACK
        ARGFRAME XSTACK, 17, STACK
        ARGFRAME IOVERLAY, 0, STATIC
        ARGFRAME DOVERLAY, 0, STATIC
        FUNCALL rxStartIsr, halAssertHandler
        LOCFRAME ISTACK, 0, STACK
        LOCFRAME PSTACK, 0, STACK
        LOCFRAME XSTACK, 17, STACK
        LOCFRAME IOVERLAY, 0, STATIC
        LOCFRAME DOVERLAY, 0, STATIC
        ARGFRAME ISTACK, 0, STACK
        ARGFRAME PSTACK, 0, STACK
        ARGFRAME XSTACK, 17, STACK
        ARGFRAME IOVERLAY, 0, STATIC
        ARGFRAME DOVERLAY, 0, STATIC
        FUNCALL rxStartIsr, macRadioComputeLQI
        LOCFRAME ISTACK, 0, STACK
        LOCFRAME PSTACK, 0, STACK
        LOCFRAME XSTACK, 17, STACK
        LOCFRAME IOVERLAY, 0, STATIC
        LOCFRAME DOVERLAY, 0, STATIC
        ARGFRAME ISTACK, 0, STACK
        ARGFRAME PSTACK, 0, STACK
        ARGFRAME XSTACK, 17, STACK
        ARGFRAME IOVERLAY, 0, STATIC
        ARGFRAME DOVERLAY, 0, STATIC
        FUNCALL rxStartIsr, macTxAckReceivedCallback
        LOCFRAME ISTACK, 0, STACK
        LOCFRAME PSTACK, 0, STACK
        LOCFRAME XSTACK, 17, STACK
        LOCFRAME IOVERLAY, 0, STATIC
        LOCFRAME DOVERLAY, 0, STATIC
        ARGFRAME ISTACK, 0, STACK
        ARGFRAME PSTACK, 0, STACK
        ARGFRAME XSTACK, 17, STACK
        ARGFRAME IOVERLAY, 0, STATIC
        ARGFRAME DOVERLAY, 0, STATIC
        FUNCALL rxStartIsr, macTxAckNotReceivedCallback
        LOCFRAME ISTACK, 0, STACK
        LOCFRAME PSTACK, 0, STACK
        LOCFRAME XSTACK, 17, STACK
        LOCFRAME IOVERLAY, 0, STATIC
        LOCFRAME DOVERLAY, 0, STATIC
        ARGFRAME ISTACK, 0, STACK
        ARGFRAME PSTACK, 0, STACK
        ARGFRAME XSTACK, 17, STACK
        ARGFRAME IOVERLAY, 0, STATIC
        ARGFRAME DOVERLAY, 0, STATIC
        FUNCALL rxStartIsr, rxDone
        LOCFRAME ISTACK, 0, STACK
        LOCFRAME PSTACK, 0, STACK
        LOCFRAME XSTACK, 17, STACK
        LOCFRAME IOVERLAY, 0, STATIC
        LOCFRAME DOVERLAY, 0, STATIC
        ARGFRAME ISTACK, 0, STACK
        ARGFRAME PSTACK, 0, STACK
        ARGFRAME XSTACK, 17, STACK
        ARGFRAME IOVERLAY, 0, STATIC
        ARGFRAME DOVERLAY, 0, STATIC
        FUNCALL rxStartIsr, macTxAckNotReceivedCallback
        LOCFRAME ISTACK, 0, STACK
        LOCFRAME PSTACK, 0, STACK
        LOCFRAME XSTACK, 17, STACK
        LOCFRAME IOVERLAY, 0, STATIC
        LOCFRAME DOVERLAY, 0, STATIC
        ARGFRAME ISTACK, 0, STACK
        ARGFRAME PSTACK, 0, STACK
        ARGFRAME XSTACK, 17, STACK
        ARGFRAME IOVERLAY, 0, STATIC
        ARGFRAME DOVERLAY, 0, STATIC
        FUNCALL rxStartIsr, rxDiscardFrame
        LOCFRAME ISTACK, 0, STACK
        LOCFRAME PSTACK, 0, STACK
        LOCFRAME XSTACK, 17, STACK
        LOCFRAME IOVERLAY, 0, STATIC
        LOCFRAME DOVERLAY, 0, STATIC
        ARGFRAME ISTACK, 0, STACK
        ARGFRAME PSTACK, 0, STACK
        ARGFRAME XSTACK, 17, STACK
        ARGFRAME IOVERLAY, 0, STATIC
        ARGFRAME DOVERLAY, 0, STATIC
        FUNCALL rxStartIsr, rxDone
        LOCFRAME ISTACK, 0, STACK
        LOCFRAME PSTACK, 0, STACK
        LOCFRAME XSTACK, 17, STACK
        LOCFRAME IOVERLAY, 0, STATIC
        LOCFRAME DOVERLAY, 0, STATIC
        ARGFRAME ISTACK, 0, STACK
        ARGFRAME PSTACK, 0, STACK
        ARGFRAME XSTACK, 17, STACK
        ARGFRAME IOVERLAY, 0, STATIC
        ARGFRAME DOVERLAY, 0, STATIC
        FUNCALL rxStartIsr, rxDiscardFrame
        LOCFRAME ISTACK, 0, STACK
        LOCFRAME PSTACK, 0, STACK
        LOCFRAME XSTACK, 17, STACK
        LOCFRAME IOVERLAY, 0, STATIC
        LOCFRAME DOVERLAY, 0, STATIC
        ARGFRAME ISTACK, 0, STACK
        ARGFRAME PSTACK, 0, STACK
        ARGFRAME XSTACK, 17, STACK
        ARGFRAME IOVERLAY, 0, STATIC
        ARGFRAME DOVERLAY, 0, STATIC
        FUNCALL rxStartIsr, macDataRxMemAlloc
        LOCFRAME ISTACK, 0, STACK
        LOCFRAME PSTACK, 0, STACK
        LOCFRAME XSTACK, 17, STACK
        LOCFRAME IOVERLAY, 0, STATIC
        LOCFRAME DOVERLAY, 0, STATIC
        ARGFRAME ISTACK, 0, STACK
        ARGFRAME PSTACK, 0, STACK
        ARGFRAME XSTACK, 17, STACK
        ARGFRAME IOVERLAY, 0, STATIC
        ARGFRAME DOVERLAY, 0, STATIC
        FUNCALL rxStartIsr, rxDiscardFrame
        LOCFRAME ISTACK, 0, STACK
        LOCFRAME PSTACK, 0, STACK
        LOCFRAME XSTACK, 17, STACK
        LOCFRAME IOVERLAY, 0, STATIC
        LOCFRAME DOVERLAY, 0, STATIC
        ARGFRAME ISTACK, 0, STACK
        ARGFRAME PSTACK, 0, STACK
        ARGFRAME XSTACK, 17, STACK
        ARGFRAME IOVERLAY, 0, STATIC
        ARGFRAME DOVERLAY, 0, STATIC
        FUNCALL rxStartIsr, macRxCheckMACPendingCallback
        LOCFRAME ISTACK, 0, STACK
        LOCFRAME PSTACK, 0, STACK
        LOCFRAME XSTACK, 17, STACK
        LOCFRAME IOVERLAY, 0, STATIC
        LOCFRAME DOVERLAY, 0, STATIC
        ARGFRAME ISTACK, 0, STACK
        ARGFRAME PSTACK, 0, STACK
        ARGFRAME XSTACK, 17, STACK
        ARGFRAME IOVERLAY, 0, STATIC
        ARGFRAME DOVERLAY, 0, STATIC
        FUNCALL rxStartIsr, MAC_SrcMatchCheckAllPending
        LOCFRAME ISTACK, 0, STACK
        LOCFRAME PSTACK, 0, STACK
        LOCFRAME XSTACK, 17, STACK
        LOCFRAME IOVERLAY, 0, STATIC
        LOCFRAME DOVERLAY, 0, STATIC
        ARGFRAME ISTACK, 0, STACK
        ARGFRAME PSTACK, 0, STACK
        ARGFRAME XSTACK, 17, STACK
        ARGFRAME IOVERLAY, 0, STATIC
        ARGFRAME DOVERLAY, 0, STATIC
        FUNCALL rxStartIsr, macRxCheckPendingCallback
        LOCFRAME ISTACK, 0, STACK
        LOCFRAME PSTACK, 0, STACK
        LOCFRAME XSTACK, 17, STACK
        LOCFRAME IOVERLAY, 0, STATIC
        LOCFRAME DOVERLAY, 0, STATIC
        ARGFRAME ISTACK, 0, STACK
        ARGFRAME PSTACK, 0, STACK
        ARGFRAME XSTACK, 17, STACK
        ARGFRAME IOVERLAY, 0, STATIC
        ARGFRAME DOVERLAY, 0, STATIC
        FUNCALL rxStartIsr, osal_memcpy
        LOCFRAME ISTACK, 0, STACK
        LOCFRAME PSTACK, 0, STACK
        LOCFRAME XSTACK, 20, STACK
        LOCFRAME IOVERLAY, 0, STATIC
        LOCFRAME DOVERLAY, 0, STATIC
        ARGFRAME ISTACK, 0, STACK
        ARGFRAME PSTACK, 0, STACK
        ARGFRAME XSTACK, 20, STACK
        ARGFRAME IOVERLAY, 0, STATIC
        ARGFRAME DOVERLAY, 0, STATIC
        FUNCALL rxStartIsr, macMcuOverflowCapture
        LOCFRAME ISTACK, 0, STACK
        LOCFRAME PSTACK, 0, STACK
        LOCFRAME XSTACK, 17, STACK
        LOCFRAME IOVERLAY, 0, STATIC
        LOCFRAME DOVERLAY, 0, STATIC
        ARGFRAME ISTACK, 0, STACK
        ARGFRAME PSTACK, 0, STACK
        ARGFRAME XSTACK, 17, STACK
        ARGFRAME IOVERLAY, 0, STATIC
        ARGFRAME DOVERLAY, 0, STATIC
        FUNCALL rxStartIsr, macMcuTimerCapture
        LOCFRAME ISTACK, 0, STACK
        LOCFRAME PSTACK, 0, STACK
        LOCFRAME XSTACK, 17, STACK
        LOCFRAME IOVERLAY, 0, STATIC
        LOCFRAME DOVERLAY, 0, STATIC
        ARGFRAME ISTACK, 0, STACK
        ARGFRAME PSTACK, 0, STACK
        ARGFRAME XSTACK, 17, STACK
        ARGFRAME IOVERLAY, 0, STATIC
        ARGFRAME DOVERLAY, 0, STATIC
        FUNCALL rxStartIsr, rxPrepPayload
        LOCFRAME ISTACK, 0, STACK
        LOCFRAME PSTACK, 0, STACK
        LOCFRAME XSTACK, 17, STACK
        LOCFRAME IOVERLAY, 0, STATIC
        LOCFRAME DOVERLAY, 0, STATIC
        ARGFRAME ISTACK, 0, STACK
        ARGFRAME PSTACK, 0, STACK
        ARGFRAME XSTACK, 17, STACK
        ARGFRAME IOVERLAY, 0, STATIC
        ARGFRAME DOVERLAY, 0, STATIC
        REQUIRE ?V0
        REQUIRE ?V1
        REQUIRE ?V2
        REQUIRE ?V3
        REQUIRE ?V4
        REQUIRE ?V5
        REQUIRE ?V6
        MOV       A,#-0xf
        LCALL     ?BANKED_ENTER_XDATA
          CFI DPH0 load(1, XDATA, add(CFA_XSP16, literal(-1)))
          CFI DPL0 load(1, XDATA, add(CFA_XSP16, literal(-2)))
          CFI ?BRET_EXT load(1, XDATA, add(CFA_XSP16, literal(-3)))
          CFI ?RET_HIGH load(1, XDATA, add(CFA_XSP16, literal(-4)))
          CFI ?RET_LOW load(1, XDATA, add(CFA_XSP16, literal(-5)))
          CFI R7 load(1, XDATA, add(CFA_XSP16, literal(-6)))
          CFI V6 load(1, XDATA, add(CFA_XSP16, literal(-7)))
          CFI V5 load(1, XDATA, add(CFA_XSP16, literal(-8)))
          CFI V4 load(1, XDATA, add(CFA_XSP16, literal(-9)))
          CFI V3 load(1, XDATA, add(CFA_XSP16, literal(-10)))
          CFI V2 load(1, XDATA, add(CFA_XSP16, literal(-11)))
          CFI V1 load(1, XDATA, add(CFA_XSP16, literal(-12)))
          CFI V0 load(1, XDATA, add(CFA_XSP16, literal(-13)))
          CFI VB load(1, XDATA, add(CFA_XSP16, literal(-14)))
          CFI R6 load(1, XDATA, add(CFA_XSP16, literal(-15)))
          CFI CFA_SP SP+0
          CFI CFA_XSP16 add(XSP16, 15)
        ; Saved register size: 15
        ; Auto size: 2
        MOV       A,#-0x2
        LCALL     ?ALLOC_XSTACK8
          CFI CFA_XSP16 add(XSP16, 17)
//  420   uint8  addrLen;
//  421   uint8  ackWithPending;
//  422   uint8  dstAddrMode;
//  423   uint8  srcAddrMode;
//  424   uint8  mhrLen = 0;
        MOV       ?V5,#0x0
//  425 
//  426   MAC_ASSERT(!macRxActive); /* receive on top of receive */
        MOV       DPTR,#macRxActive
        MOVX      A,@DPTR
        JZ        ??rxStartIsr_0
        ; Setup parameters for call to function halAssertHandler
        LCALL     `??halAssertHandler::?relay`; Banked call to: halAssertHandler
//  427 
//  428   /* indicate rx is active */
//  429   macRxActive = MAC_RX_ACTIVE_STARTED;
??rxStartIsr_0:
        MOV       DPTR,#macRxActive
        MOV       A,#-0x7f
        MOVX      @DPTR,A
//  430 
//  431   /*
//  432    *  For bullet proof functionality, need to see if the receiver was just turned off.
//  433    *  The logic to request turning off the receiver, disables interrupts and then checks
//  434    *  the value of macRxActive.  If it is TRUE, the receiver will not be turned off.
//  435    *
//  436    *  There is a small hole though.  It's possible to attempt turning off the receiver
//  437    *  in the window from when the receive interrupt fires and the point where macRxActive
//  438    *  is set to TRUE.  To plug this hole, the on/off status must be tested *after*
//  439    *  macRxActive has been set.  If the receiver is off at this point, there is nothing
//  440    *  in the RX fifo and the receive is simply aborted.
//  441    *
//  442    *  Also, there are some considerations in case a hard disable just happened.  Usually,
//  443    *  the receiver will just be off at this point after a hard disable.  The check described
//  444    *  above will account for this case too.  However, if a hard disable were immediately
//  445    *  followed by an enable, the receiver would be on.  To catch this case, the receive
//  446    *  FIFO is also tested to see if it is empty.  Recovery is identical to the other cases.
//  447    */
//  448   if (!macRxOnFlag || MAC_RADIO_RX_FIFO_IS_EMPTY())
        MOV       DPTR,#macRxOnFlag
        MOVX      A,@DPTR
        JZ        ??rxStartIsr_1
        MOV       DPTR,#0x6193
        MOVX      A,@DPTR
        MOV       C,0xE0 /* A   */.7
        JC        ??rxStartIsr_2
        MOV       DPTR,#0x6193
        MOVX      A,@DPTR
        MOV       C,0xE0 /* A   */.6
        JC        ??rxStartIsr_2
//  449   {
//  450     /* reset active flag */
//  451     macRxActive = MAC_RX_ACTIVE_NO_ACTIVITY;
??rxStartIsr_1:
        MOV       DPTR,#macRxActive
        MOV       A,#0x0
        MOVX      @DPTR,A
//  452 
//  453     /*
//  454      *  To be absolutely bulletproof, must make sure no transmit queue'ed up during
//  455      *  the tiny, tiny window when macRxActive was not zero.
//  456      */
//  457     rxPostRxUpdates();
        ; Setup parameters for call to function rxPostRxUpdates
        LCALL     `??rxPostRxUpdates::?relay`; Banked call to: rxPostRxUpdates
//  458 
//  459     /* return immediately from here */
//  460     return;
        LJMP      ??rxStartIsr_3 & 0xFFFF
//  461   }
//  462 
//  463   /*
//  464    *  If interrupts are held off for too long it's possible the previous "transmit done"
//  465    *  callback is pending.  If this is the case, it needs to be completed before
//  466    *  continuing with the receive logic.
//  467    */
//  468   MAC_RADIO_FORCE_TX_DONE_IF_PENDING();
??rxStartIsr_2:
        ; Setup parameters for call to function macCspForceTxDoneIfPending
        LCALL     `??macCspForceTxDoneIfPending::?relay`; Banked call to: macCspForceTxDoneIfPending
//  469 
//  470   /*
//  471    *  It's possible receive logic is still waiting for confirmation of an ACK that went out
//  472    *  for the previous receive.  This is OK but the callback needs to be canceled at this point.
//  473    *  That callback execute receive cleanup logic that will run at the completion
//  474    *  of *this* receive.  Also, it is important the flag for the outgoing ACK to be cleared.
//  475    */
//  476   MAC_RADIO_CANCEL_ACK_TX_DONE_CALLBACK();
        MOV       DPTR,#0x61a4
        MOVX      A,@DPTR
        CLR       0xE0 /* A   */.0
        MOVX      @DPTR,A
//  477   macRxOutgoingAckFlag = 0;
        MOV       DPTR,#macRxOutgoingAckFlag
        MOV       A,#0x0
        MOVX      @DPTR,A
//  478 
//  479   /*
//  480    *  Make a module-local copy of macRxFilter.  This prevents the selected
//  481    *  filter from changing in the middle of a receive.
//  482    */
//  483   rxFilter = macRxFilter;
        MOV       DPTR,#macRxFilter
        MOVX      A,@DPTR
        MOV       DPTR,#rxFilter
        MOVX      @DPTR,A
//  484 
//  485   /*-------------------------------------------------------------------------------
//  486    *  Read initial frame information from FIFO.
//  487    *
//  488    *   This code is not triggered until the following are in the RX FIFO:
//  489    *     frame length          - one byte containing length of MAC frame (excludes this field)
//  490    *     frame control field   - two bytes defining frame type, addressing fields, control flags
//  491    *     sequence number       - one byte unique sequence identifier
//  492    *     additional two bytes  - these bytes are available in case the received frame is an ACK,
//  493    *                             if so, the frame can be verified and responded to immediately,
//  494    *                             if not an ACK, these bytes will be processed normally
//  495    */
//  496 
//  497   /* read frame length, frame control field, and sequence number from FIFO */
//  498   MAC_RADIO_READ_RX_FIFO(rxBuf, MAC_PHY_PHR_LEN + MAC_FCF_FIELD_LEN + MAC_SEQ_NUM_FIELD_LEN);
        ; Setup parameters for call to function macMemReadRxFifo
        MOV       R1,#0x4
        MOV       R2,#rxBuf & 0xff
        MOV       R3,#(rxBuf >> 8) & 0xff
        LCALL     `??macMemReadRxFifo::?relay`; Banked call to: macMemReadRxFifo
//  499 
//  500   /* bytes to read from FIFO equals frame length minus length of MHR fields just read from FIFO */
//  501   rxUnreadLen = (rxBuf[0] & PHY_PACKET_SIZE_MASK) - MAC_FCF_FIELD_LEN - MAC_SEQ_NUM_FIELD_LEN;
        MOV       DPTR,#rxBuf
        MOVX      A,@DPTR
        ANL       A,#0x7f
        ADD       A,#-0x3
        MOV       DPTR,#rxUnreadLen
        MOVX      @DPTR,A
//  502 
//  503   /*
//  504    *  Workaround for chip bug #1547.  The receive buffer can sometimes be corrupted by hardware.
//  505    *  This usually occurs under heavy traffic.  If a corrupted receive buffer is detected
//  506    *  the entire receive buffer is flushed.
//  507    */
//  508   if ((rxUnreadLen > (MAC_A_MAX_PHY_PACKET_SIZE - MAC_FCF_FIELD_LEN - MAC_SEQ_NUM_FIELD_LEN)) ||
//  509       (MAC_FRAME_TYPE(&rxBuf[1]) > MAC_FRAME_TYPE_MAX_VALID))
        MOV       DPTR,#rxUnreadLen
        MOVX      A,@DPTR
        CLR       C
        SUBB      A,#0x7d
        JNC       ??rxStartIsr_4
        MOV       DPTR,#rxBuf + 1
        MOVX      A,@DPTR
        ANL       A,#0x7
        CLR       C
        SUBB      A,#0x4
        JC        ??rxStartIsr_5
//  510   {
//  511     MAC_RADIO_FLUSH_RX_FIFO();
??rxStartIsr_4:
        MOV       0xe1,#-0x13
        MOV       0xe1,#-0x13
//  512     rxDone();
        ; Setup parameters for call to function rxDone
        LCALL     `??rxDone::?relay`; Banked call to: rxDone
//  513     return;
        LJMP      ??rxStartIsr_3 & 0xFFFF
//  514   }
//  515 
//  516 
//  517   /*-------------------------------------------------------------------------------
//  518    *  Process ACKs.
//  519    *
//  520    *  If this frame is an ACK, process it immediately and exit from here.
//  521    *  If this frame is not an ACK and transmit is listening for an ACK, let
//  522    *  the transmit logic know an non-ACK was received so transmit can complete.
//  523    *
//  524    *  In promiscuous mode ACKs are treated like any other frame.
//  525    */
//  526   if ((MAC_FRAME_TYPE(&rxBuf[1]) == MAC_FRAME_TYPE_ACK) && (rxPromiscuousMode == PROMISCUOUS_MODE_OFF))
??rxStartIsr_5:
        MOV       DPTR,#rxBuf + 1
        MOVX      A,@DPTR
        ANL       A,#0x7
        XRL       A,#0x2
        JZ        $+5
        LJMP      ??rxStartIsr_6 & 0xFFFF
        MOV       DPTR,#rxPromiscuousMode
        MOVX      A,@DPTR
        JZ        $+5
        LJMP      ??rxStartIsr_6 & 0xFFFF
//  527   {
//  528     halIntState_t  s;
//  529     uint8 fcsBuf[MAC_FCF_FIELD_LEN];
//  530     /*
//  531      *  There are guaranteed to be two unread bytes in the FIFO.  By defintion, for ACK frames
//  532      *  these two bytes will be the FCS.
//  533      */
//  534 
//  535     /* read FCS from FIFO (threshold set so bytes are guaranteed to be there) */
//  536     MAC_RADIO_READ_RX_FIFO(fcsBuf, MAC_FCS_FIELD_LEN);
        ; Setup parameters for call to function macMemReadRxFifo
        MOV       R1,#0x2
        MOV       R2,?XSP + 0
        MOV       R3,?XSP + 1
        LCALL     `??macMemReadRxFifo::?relay`; Banked call to: macMemReadRxFifo
//  537 
//  538     /*
//  539      *  This critical section ensures that the ACK timeout won't be triggered in the
//  540      *  middle of receiving the ACK frame.
//  541      */
//  542     HAL_ENTER_CRITICAL_SECTION(s);
        MOV       C,0xa8.7
        CLR       A
        RLC       A
        MOV       ?V2,A
        CLR       0xa8.7
//  543 
//  544     /* see if transmit is listening for an ACK */
//  545     if (macTxActive == MAC_TX_ACTIVE_LISTEN_FOR_ACK)
        MOV       DPTR,#macTxActive
        MOVX      A,@DPTR
        XRL       A,#0x86
        JZ        $+5
        LJMP      ??rxStartIsr_7 & 0xFFFF
//  546     {
//  547       MAC_ASSERT(pMacDataTx != NULL); /* transmit buffer must be present */
        MOV       DPTR,#pMacDataTx
        MOVX      A,@DPTR
        MOV       R0,A
        INC       DPTR
        MOVX      A,@DPTR
        MOV       R1,A
        MOV       A,R0
        ORL       A,R1
        JNZ       ??rxStartIsr_8
        ; Setup parameters for call to function halAssertHandler
        LCALL     `??halAssertHandler::?relay`; Banked call to: halAssertHandler
//  548 
//  549       /* record link quality metrics for the receive ACK */
//  550       {
//  551         int8 rssiDbm;
//  552         uint8 corr;
//  553 
//  554         rssiDbm = PROPRIETARY_FCS_RSSI(fcsBuf) + MAC_RADIO_RSSI_OFFSET;
??rxStartIsr_8:
        MOV       DPL,?XSP + 0
        MOV       DPH,?XSP + 1
        MOVX      A,@DPTR
        ADD       A,#-0x49
        MOV       ?V1,A
//  555         MAC_RADIO_RSSI_LNA_OFFSET(rssiDbm);
//  556         corr = PROPRIETARY_FCS_CORRELATION_VALUE(fcsBuf);
        MOV       A,#0x1
        LCALL     ?XSTACK_DISP0_8
        MOVX      A,@DPTR
        ANL       A,#0x7f
        MOV       ?V0,A
//  557 
//  558         pMacDataTx->internal.mpduLinkQuality = macRadioComputeLQI(rssiDbm, corr);
        ; Setup parameters for call to function macRadioComputeLQI
        MOV       R2,?V0
        MOV       R1,?V1
        LCALL     `??macRadioComputeLQI::?relay`; Banked call to: macRadioComputeLQI
        MOV       A,R1
        PUSH      A
          CFI CFA_SP SP+-1
        MOV       DPTR,#pMacDataTx
        MOVX      A,@DPTR
        MOV       R0,A
        INC       DPTR
        MOVX      A,@DPTR
        XCH       A,R0
        ADD       A,#0x15
        MOV       DPL,A
        XCH       A,R0
        ADDC      A,#0x0
        MOV       DPH,A
        POP       A
          CFI CFA_SP SP+0
        MOVX      @DPTR,A
//  559         pMacDataTx->internal.correlation = corr;
        MOV       A,?V0
        PUSH      A
          CFI CFA_SP SP+-1
        MOV       DPTR,#pMacDataTx
        MOVX      A,@DPTR
        MOV       R0,A
        INC       DPTR
        MOVX      A,@DPTR
        XCH       A,R0
        ADD       A,#0x16
        MOV       DPL,A
        XCH       A,R0
        ADDC      A,#0x0
        MOV       DPH,A
        POP       A
          CFI CFA_SP SP+0
        MOVX      @DPTR,A
//  560         pMacDataTx->internal.rssi= rssiDbm;
        MOV       A,?V1
        PUSH      A
          CFI CFA_SP SP+-1
        MOV       DPTR,#pMacDataTx
        MOVX      A,@DPTR
        MOV       R0,A
        INC       DPTR
        MOVX      A,@DPTR
        XCH       A,R0
        ADD       A,#0x17
        MOV       DPL,A
        XCH       A,R0
        ADDC      A,#0x0
        MOV       DPH,A
        POP       A
          CFI CFA_SP SP+0
        MOVX      @DPTR,A
//  561       }
//  562 
//  563       /*
//  564        *  It's okay if the ACK timeout is triggered here. The callbacks for ACK received
//  565        *  or ACK not received will check "macTxActive" flag before taking any actions.
//  566        */
//  567       HAL_EXIT_CRITICAL_SECTION(s);
        MOV       A,?V2
        MOV       C,0xE0 /* A   */.0
        MOV       0xa8.7,C
//  568 
//  569       /*
//  570        *  An ACK was received so transmit logic needs to know.  If the FCS failed,
//  571        *  the transmit logic still needs to know.  In that case, treat the frame
//  572        *  as a non-ACK to complete the active transmit.
//  573        */
//  574       if (PROPRIETARY_FCS_CRC_OK(fcsBuf))
        MOV       A,#0x1
        LCALL     ?XSTACK_DISP0_8
        MOVX      A,@DPTR
        MOV       C,0xE0 /* A   */.7
        JNC       ??rxStartIsr_9
//  575       {
//  576         /* call transmit logic to indicate ACK was received */
//  577         macTxAckReceivedCallback(MAC_SEQ_NUMBER(&rxBuf[1]), MAC_FRAME_PENDING(&rxBuf[1]));
        ; Setup parameters for call to function macTxAckReceivedCallback
        MOV       DPTR,#rxBuf + 1
        MOVX      A,@DPTR
        ANL       A,#0x10
        MOV       R2,A
        MOV       DPTR,#rxBuf + 3
        MOVX      A,@DPTR
        MOV       R1,A
        LCALL     `??macTxAckReceivedCallback::?relay`; Banked call to: macTxAckReceivedCallback
        SJMP      ??rxStartIsr_10
//  578       }
//  579       else
//  580       {
//  581         macTxAckNotReceivedCallback();
??rxStartIsr_9:
        ; Setup parameters for call to function macTxAckNotReceivedCallback
        LCALL     `??macTxAckNotReceivedCallback::?relay`; Banked call to: macTxAckNotReceivedCallback
        SJMP      ??rxStartIsr_10
//  582       }
//  583     }
//  584     else
//  585     {
//  586       HAL_EXIT_CRITICAL_SECTION(s);
??rxStartIsr_7:
        MOV       A,?V2
        MOV       C,0xE0 /* A   */.0
        MOV       0xa8.7,C
//  587     }
//  588 
//  589     /* receive is done, exit from here */
//  590     rxDone();
??rxStartIsr_10:
        ; Setup parameters for call to function rxDone
        LCALL     `??rxDone::?relay`; Banked call to: rxDone
//  591     return;
        LJMP      ??rxStartIsr_3 & 0xFFFF
//  592   }
//  593   else if (macTxActive == MAC_TX_ACTIVE_LISTEN_FOR_ACK)
??rxStartIsr_6:
        MOV       DPTR,#macTxActive
        MOVX      A,@DPTR
        XRL       A,#0x86
        JNZ       ??rxStartIsr_11
//  594   {
//  595     macTxAckNotReceivedCallback();
        ; Setup parameters for call to function macTxAckNotReceivedCallback
        LCALL     `??macTxAckNotReceivedCallback::?relay`; Banked call to: macTxAckNotReceivedCallback
//  596   }
//  597 
//  598   /*-------------------------------------------------------------------------------
//  599    *  Apply filtering.
//  600    *
//  601    *  For efficiency, see if filtering is even 'on' before processing.  Also test
//  602    *  to make sure promiscuous mode is disabled.  If promiscuous mode is enabled,
//  603    *  do not apply filtering.
//  604    */
//  605   if ((rxFilter != RX_FILTER_OFF) && !rxPromiscuousMode)
??rxStartIsr_11:
        MOV       DPTR,#rxFilter
        MOVX      A,@DPTR
        JZ        ??rxStartIsr_12
        MOV       DPTR,#rxPromiscuousMode
        MOVX      A,@DPTR
        JNZ       ??rxStartIsr_12
//  606   {
//  607     if (/* filter all frames */
//  608          (rxFilter == RX_FILTER_ALL) ||
//  609 
//  610          /* filter non-beacon frames */
//  611          ((rxFilter == RX_FILTER_NON_BEACON_FRAMES) &&
//  612           (MAC_FRAME_TYPE(&rxBuf[1]) != MAC_FRAME_TYPE_BEACON)) ||
//  613 
//  614          /* filter non-command frames */
//  615          ((rxFilter == RX_FILTER_NON_COMMAND_FRAMES) &&
//  616           ((MAC_FRAME_TYPE(&rxBuf[1]) != MAC_FRAME_TYPE_COMMAND))))
        MOV       DPTR,#rxFilter
        MOVX      A,@DPTR
        XRL       A,#0x1
        JZ        ??rxStartIsr_13
        MOV       DPTR,#rxFilter
        MOVX      A,@DPTR
        XRL       A,#0x2
        JNZ       ??rxStartIsr_14
        MOV       DPTR,#rxBuf + 1
        MOVX      A,@DPTR
        ANL       A,#0x7
        JNZ       ??rxStartIsr_13
??rxStartIsr_14:
        MOV       DPTR,#rxFilter
        MOVX      A,@DPTR
        XRL       A,#0x3
        JNZ       ??rxStartIsr_12
        MOV       DPTR,#rxBuf + 1
        MOVX      A,@DPTR
        ANL       A,#0x7
        XRL       A,#0x3
        JZ        ??rxStartIsr_12
//  617     {
//  618       /* discard rest of frame */
//  619       rxDiscardFrame();
??rxStartIsr_13:
        ; Setup parameters for call to function rxDiscardFrame
        LCALL     `??rxDiscardFrame::?relay`; Banked call to: rxDiscardFrame
//  620       return;
        LJMP      ??rxStartIsr_3 & 0xFFFF
//  621     }
//  622   }
//  623 
//  624   /*-------------------------------------------------------------------------------
//  625    *  Compute length of addressing fields.  Compute payload length.
//  626    */
//  627 
//  628   /* decode addressing modes */
//  629   dstAddrMode = MAC_DEST_ADDR_MODE(&rxBuf[1]);
??rxStartIsr_12:
        MOV       DPTR,#rxBuf + 2
        MOVX      A,@DPTR
        RRC       A
        RRC       A
        ANL       A,#0x3f
        ANL       A,#0x3
        MOV       ?V6,A
//  630   srcAddrMode = MAC_SRC_ADDR_MODE(&rxBuf[1]);
        MOV       DPTR,#rxBuf + 2
        MOVX      A,@DPTR
        SWAP      A
        RRC       A
        RRC       A
        ANL       A,#0x3
        MOV       ?V4,A
//  631 
//  632   /*
//  633   *  Workaround for chip bug #1547.  The receive buffer can sometimes be corrupted by hardware.
//  634    *  This usually occurs under heavy traffic.  If a corrupted receive buffer is detected
//  635    *  the entire receive buffer is flushed.
//  636    */
//  637   if (macChipVersion == REV_A)
        MOV       DPTR,#macChipVersion
        MOVX      A,@DPTR
        JNZ       ??rxStartIsr_15
//  638   {
//  639     if ((srcAddrMode == ADDR_MODE_RESERVERED) || (dstAddrMode == ADDR_MODE_RESERVERED))
        MOV       A,#0x1
        XRL       A,?V4
        JZ        ??rxStartIsr_16
        MOV       A,#0x1
        XRL       A,?V6
        JNZ       ??rxStartIsr_15
//  640     {
//  641       MAC_RADIO_FLUSH_RX_FIFO();
??rxStartIsr_16:
        MOV       0xe1,#-0x13
        MOV       0xe1,#-0x13
//  642       rxDone();
        ; Setup parameters for call to function rxDone
        LCALL     `??rxDone::?relay`; Banked call to: rxDone
//  643       return;
        LJMP      ??rxStartIsr_3 & 0xFFFF
//  644     }
//  645   }
//  646 
//  647   /*
//  648    *  Compute the addressing field length.  A lookup table based on addressing
//  649    *  mode is used for efficiency.  If the source address is present and the
//  650    *  frame is intra-PAN, the PAN Id is not repeated.  In this case, the address
//  651    *  length is adjusted to match the smaller length.
//  652    */
//  653   addrLen = macRxAddrLen[dstAddrMode] + macRxAddrLen[srcAddrMode];
??rxStartIsr_15:
        MOV       A,?V4
        MOV       R0,A
        MOV       R1,#0x0
        MOV       A,#macRxAddrLen & 0xff
        ADD       A,R0
        MOV       DPL,A
        MOV       A,#(macRxAddrLen >> 8) & 0xff
        ADDC      A,R1
        MOV       DPH,A
        CLR       A
        MOVC      A,@A+DPTR
        MOV       R2,A
        MOV       A,?V6
        MOV       R0,A
        MOV       R1,#0x0
        MOV       A,#macRxAddrLen & 0xff
        ADD       A,R0
        MOV       DPL,A
        MOV       A,#(macRxAddrLen >> 8) & 0xff
        ADDC      A,R1
        MOV       DPH,A
        CLR       A
        MOVC      A,@A+DPTR
        ADD       A,R2
        MOV       R7,A
//  654   if ((srcAddrMode != SADDR_MODE_NONE) && MAC_INTRA_PAN(&rxBuf[1]))
        MOV       A,?V4
        JZ        ??rxStartIsr_17
        MOV       DPTR,#rxBuf + 1
        MOVX      A,@DPTR
        MOV       C,0xE0 /* A   */.6
        JNC       ??rxStartIsr_17
//  655   {
//  656     addrLen -= MAC_PAN_ID_FIELD_LEN;
        MOV       A,#-0x2
        ADD       A,R7
        MOV       R7,A
//  657   }
//  658 
//  659   /*
//  660    *  If there are not enough unread bytes to include the computed address
//  661    *  plus FCS field, the frame is corrupted and must be discarded.
//  662    */
//  663   if ((addrLen + MAC_FCS_FIELD_LEN) > rxUnreadLen)
??rxStartIsr_17:
        MOV       DPTR,#rxUnreadLen
        MOVX      A,@DPTR
        MOV       R2,A
        MOV       R3,#0x0
        MOV       A,R7
        MOV       R0,A
        MOV       R1,#0x0
        MOV       A,R0
        ADD       A,#0x2
        MOV       R0,A
        JNC       ??rxStartIsr_18
        INC       R1
??rxStartIsr_18:
        CLR       C
        MOV       A,R2
        SUBB      A,R0
        MOV       A,R3
        SUBB      A,R1
        MOV       C,0xD0 /* PSW */.2
        XRL       A,PSW
        RLC       A
        JNC       ??rxStartIsr_19
//  664   {
//  665     /* discard frame and exit */
//  666     rxDiscardFrame();
        ; Setup parameters for call to function rxDiscardFrame
        LCALL     `??rxDiscardFrame::?relay`; Banked call to: rxDiscardFrame
//  667     return;
        LJMP      ??rxStartIsr_3 & 0xFFFF
//  668   }
//  669 
//  670   /* aux security header plus payload length is equal to unread bytes minus
//  671    * address length, minus the FCS
//  672    */
//  673   rxPayloadLen = rxUnreadLen - addrLen - MAC_FCS_FIELD_LEN;
??rxStartIsr_19:
        MOV       DPTR,#rxUnreadLen
        MOVX      A,@DPTR
        CLR       C
        SUBB      A,R7
        ADD       A,#-0x2
        MOV       DPTR,#rxPayloadLen
        MOVX      @DPTR,A
//  674 
//  675   /*-------------------------------------------------------------------------------
//  676    *  Allocate memory for the incoming frame.
//  677    */
//  678   if (MAC_SEC_ENABLED(&rxBuf[1]))
        MOV       DPTR,#rxBuf + 1
        MOVX      A,@DPTR
        MOV       C,0xE0 /* A   */.3
        JNC       ??rxStartIsr_20
//  679   {
//  680     /* increase the allocation size of MAC header for security */
//  681     mhrLen = MAC_MHR_LEN;
        MOV       ?V5,#0x25
//  682   }
//  683 
//  684   pRxBuf = (macRx_t *) MEM_ALLOC(sizeof(macRx_t) + mhrLen + rxPayloadLen);
??rxStartIsr_20:
        ; Setup parameters for call to function macDataRxMemAlloc
        MOV       A,?V5
        MOV       R0,A
        MOV       R1,#0x0
        MOV       DPTR,#rxPayloadLen
        MOVX      A,@DPTR
        MOV       R2,A
        MOV       R3,#0x0
        MOV       A,R0
        ADD       A,R2
        MOV       R0,A
        MOV       A,R1
        ADDC      A,R3
        MOV       R1,A
        MOV       A,R0
        ADD       A,#0x3a
        MOV       R2,A
        CLR       A
        ADDC      A,R1
        MOV       R3,A
        LCALL     `??macDataRxMemAlloc::?relay`; Banked call to: macDataRxMemAlloc
        MOV       DPTR,#pRxBuf
        MOV       A,R2
        MOVX      @DPTR,A
        INC       DPTR
        MOV       A,R3
        MOVX      @DPTR,A
//  685   if (pRxBuf == NULL)
        MOV       DPTR,#pRxBuf
        MOVX      A,@DPTR
        MOV       R0,A
        INC       DPTR
        MOVX      A,@DPTR
        MOV       R1,A
        MOV       A,R0
        ORL       A,R1
        JNZ       ??rxStartIsr_21
//  686   {
//  687     /* Cancel the outgoing TX ACK */
//  688     MAC_RADIO_CANCEL_TX_ACK();
        MOV       0xe1,#-0x18
//  689 
//  690     /* buffer allocation failed, discard the frame and exit*/
//  691     rxDiscardFrame();
        ; Setup parameters for call to function rxDiscardFrame
        LCALL     `??rxDiscardFrame::?relay`; Banked call to: rxDiscardFrame
//  692     return;
        LJMP      ??rxStartIsr_3 & 0xFFFF
//  693   }
//  694 
//  695   /*-------------------------------------------------------------------------------
//  696    *  Set up to process ACK request.  Do not ACK if in promiscuous mode.
//  697    */
//  698   ackWithPending = 0;
??rxStartIsr_21:
        MOV       R6,#0x0
//  699   if (!rxPromiscuousMode)
        MOV       DPTR,#rxPromiscuousMode
        MOVX      A,@DPTR
        JNZ       ??rxStartIsr_22
//  700   {
//  701     macRxOutgoingAckFlag = MAC_ACK_REQUEST(&rxBuf[1]);
        MOV       DPTR,#rxBuf + 1
        MOVX      A,@DPTR
        ANL       A,#0x20
        MOV       DPTR,#macRxOutgoingAckFlag
        MOVX      @DPTR,A
//  702   }
//  703 
//  704   /*-------------------------------------------------------------------------------
//  705    *  Process any ACK request.
//  706    */
//  707   if (macRxOutgoingAckFlag)
??rxStartIsr_22:
        MOV       DPTR,#macRxOutgoingAckFlag
        MOVX      A,@DPTR
        JZ        ??rxStartIsr_23
//  708   {
//  709     halIntState_t  s;
//  710 
//  711     /*
//  712      *  This critical section ensures that the callback ISR is initiated within time
//  713      *  to guarantee correlation with the strobe.
//  714      */
//  715     HAL_ENTER_CRITICAL_SECTION(s);
        MOV       C,0xa8.7
        CLR       A
        RLC       A
        MOV       ?V0,A
        CLR       0xa8.7
//  716 
//  717     /* Do not ack data packet with pending more data */
//  718     if( MAC_FRAME_TYPE(&rxBuf[1]) == MAC_FRAME_TYPE_COMMAND )
        MOV       DPTR,#rxBuf + 1
        MOVX      A,@DPTR
        ANL       A,#0x7
        XRL       A,#0x3
        JNZ       ??rxStartIsr_24
//  719     {
//  720       if( macRxCheckMACPendingCallback())
        ; Setup parameters for call to function macRxCheckMACPendingCallback
        LCALL     `??macRxCheckMACPendingCallback::?relay`; Banked call to: macRxCheckMACPendingCallback
        MOV       A,R1
        JZ        ??rxStartIsr_25
//  721       {
//  722         /* Check is any mac data pending for end devices */
//  723         ackWithPending = MAC_RX_FLAG_ACK_PENDING;
        MOV       R6,#0x4
        SJMP      ??rxStartIsr_24
//  724       }
//  725       else
//  726       {
//  727         if( macSrcMatchIsEnabled )
??rxStartIsr_25:
        MOV       DPTR,#macSrcMatchIsEnabled
        MOVX      A,@DPTR
        JZ        ??rxStartIsr_26
//  728         {
//  729           /* When autopend is enabled, check if allpending is set to true */
//  730           if( MAC_SrcMatchCheckAllPending() == MAC_AUTOACK_PENDING_ALL_ON )
        ; Setup parameters for call to function MAC_SrcMatchCheckAllPending
        LCALL     `??MAC_SrcMatchCheckAllPending::?relay`; Banked call to: MAC_SrcMatchCheckAllPending
        MOV       A,R1
        XRL       A,#0xfe
        JNZ       ??rxStartIsr_24
//  731           {
//  732             ackWithPending = MAC_RX_FLAG_ACK_PENDING;
        MOV       R6,#0x4
        SJMP      ??rxStartIsr_24
//  733           }
//  734         }
//  735         else
//  736         {
//  737           /* When autopend is disabled, check the application pending callback */
//  738           if( macRxCheckPendingCallback() )
??rxStartIsr_26:
        ; Setup parameters for call to function macRxCheckPendingCallback
        LCALL     `??macRxCheckPendingCallback::?relay`; Banked call to: macRxCheckPendingCallback
        MOV       A,R1
        JZ        ??rxStartIsr_24
//  739           {
//  740             ackWithPending = MAC_RX_FLAG_ACK_PENDING;
        MOV       R6,#0x4
//  741           }
//  742         }
//  743       }
//  744     }
//  745 
//  746     if( ackWithPending == MAC_RX_FLAG_ACK_PENDING )
??rxStartIsr_24:
        MOV       A,#0x4
        XRL       A,R6
        JNZ       ??rxStartIsr_27
//  747     {
//  748       MAC_RADIO_TX_ACK_PEND();
        MOV       DPTR,#0x618a
        MOVX      A,@DPTR
        SETB      0xE0 /* A   */.2
        MOVX      @DPTR,A
        SJMP      ??rxStartIsr_28
//  749     }
//  750     else
//  751     {
//  752       MAC_RADIO_TX_ACK();
??rxStartIsr_27:
        MOV       DPTR,#0x618a
        MOVX      A,@DPTR
        CLR       0xE0 /* A   */.2
        MOVX      @DPTR,A
//  753     }
//  754 
//  755 
//  756     /* request a callback to macRxAckTxDoneCallback() when the ACK transmit has finished */
//  757     MAC_RADIO_REQUEST_ACK_TX_DONE_CALLBACK();
??rxStartIsr_28:
        MOV       C,0xa8.7
        CLR       A
        RLC       A
        MOV       R0,A
        CLR       0xa8.7
        MOV       0x9b,#0x0
        MOV       0x91,#-0x2
        MOV       A,R0
        MOV       C,0xE0 /* A   */.0
        MOV       0xa8.7,C
        MOV       DPTR,#0x61a4
        MOVX      A,@DPTR
        SETB      0xE0 /* A   */.0
        MOVX      @DPTR,A
//  758     HAL_EXIT_CRITICAL_SECTION(s);
        MOV       A,?V0
        MOV       C,0xE0 /* A   */.0
        MOV       0xa8.7,C
//  759   }
//  760 
//  761  /*-------------------------------------------------------------------------------
//  762   *  Populate the receive buffer going up to high-level.
//  763   */
//  764 
//  765   /* configure the payload buffer
//  766    * save MAC header pointer regardless of security status.
//  767    */
//  768   pRxBuf->mhr.p   = pRxBuf->msdu.p   = (uint8 *) (pRxBuf + 1);
??rxStartIsr_23:
        MOV       DPTR,#pRxBuf
        MOVX      A,@DPTR
        ADD       A,#0x3a
        MOV       R0,A
        INC       DPTR
        MOVX      A,@DPTR
        ADDC      A,#0x0
        MOV       R1,A
        MOV       DPTR,#pRxBuf
        MOVX      A,@DPTR
        MOV       R2,A
        INC       DPTR
        MOVX      A,@DPTR
        MOV       DPH,A
        MOV       DPL,R2
        INC       DPTR
        INC       DPTR
        MOV       A,R0
        MOVX      @DPTR,A
        INC       DPTR
        MOV       A,R1
        MOVX      @DPTR,A
        MOV       DPTR,#pRxBuf
        MOVX      A,@DPTR
        MOV       R0,A
        INC       DPTR
        MOVX      A,@DPTR
        MOV       DPH,A
        MOV       DPL,R0
        INC       DPTR
        INC       DPTR
        MOVX      A,@DPTR
        MOV       R0,A
        INC       DPTR
        MOVX      A,@DPTR
        MOV       R1,A
        MOV       DPTR,#pRxBuf
        MOVX      A,@DPTR
        MOV       R2,A
        INC       DPTR
        MOVX      A,@DPTR
        XCH       A,R2
        ADD       A,#0x33
        MOV       DPL,A
        XCH       A,R2
        ADDC      A,#0x0
        MOV       DPH,A
        MOV       A,R0
        MOVX      @DPTR,A
        INC       DPTR
        MOV       A,R1
        MOVX      @DPTR,A
//  769   pRxBuf->mhr.len = pRxBuf->msdu.len =  rxPayloadLen;
        MOV       DPTR,#rxPayloadLen
        MOVX      A,@DPTR
        PUSH      A
          CFI CFA_SP SP+-1
        MOV       DPTR,#pRxBuf
        MOVX      A,@DPTR
        MOV       R0,A
        INC       DPTR
        MOVX      A,@DPTR
        MOV       DPH,A
        MOV       DPL,R0
        INC       DPTR
        INC       DPTR
        INC       DPTR
        INC       DPTR
        POP       A
          CFI CFA_SP SP+0
        MOVX      @DPTR,A
        MOV       DPTR,#pRxBuf
        MOVX      A,@DPTR
        MOV       R0,A
        INC       DPTR
        MOVX      A,@DPTR
        MOV       DPH,A
        MOV       DPL,R0
        INC       DPTR
        INC       DPTR
        INC       DPTR
        INC       DPTR
        MOVX      A,@DPTR
        PUSH      A
          CFI CFA_SP SP+-1
        MOV       DPTR,#pRxBuf
        MOVX      A,@DPTR
        MOV       R0,A
        INC       DPTR
        MOVX      A,@DPTR
        XCH       A,R0
        ADD       A,#0x35
        MOV       DPL,A
        XCH       A,R0
        ADDC      A,#0x0
        MOV       DPH,A
        POP       A
          CFI CFA_SP SP+0
        MOVX      @DPTR,A
//  770 
//  771   if (MAC_SEC_ENABLED(&rxBuf[1]))
        MOV       DPTR,#rxBuf + 1
        MOVX      A,@DPTR
        MOV       C,0xE0 /* A   */.3
        JC        $+5
        LJMP      ??rxStartIsr_29 & 0xFFFF
//  772   {
//  773     /* Copy FCF and sequence number to RX buffer */
//  774     pRxBuf->mhr.len = MAC_FCF_FIELD_LEN + MAC_SEQ_NUM_FIELD_LEN;
        MOV       DPTR,#pRxBuf
        MOVX      A,@DPTR
        MOV       R0,A
        INC       DPTR
        MOVX      A,@DPTR
        XCH       A,R0
        ADD       A,#0x35
        MOV       DPL,A
        XCH       A,R0
        ADDC      A,#0x0
        MOV       DPH,A
        MOV       A,#0x3
        MOVX      @DPTR,A
//  775     osal_memcpy(pRxBuf->mhr.p, &rxBuf[1], pRxBuf->mhr.len);
        ; Setup parameters for call to function osal_memcpy
        MOV       ?V0,#(rxBuf + 1) & 0xff
        MOV       ?V1,#((rxBuf + 1) >> 8) & 0xff
        MOV       ?V2,#0x0
        MOV       R0,#?V0
        LCALL     ?PUSH_XSTACK_I_THREE
          CFI CFA_XSP16 add(XSP16, 20)
        MOV       DPTR,#pRxBuf
        MOVX      A,@DPTR
        MOV       R0,A
        INC       DPTR
        MOVX      A,@DPTR
        XCH       A,R0
        ADD       A,#0x35
        MOV       DPL,A
        XCH       A,R0
        ADDC      A,#0x0
        MOV       DPH,A
        MOVX      A,@DPTR
        MOV       R4,A
        MOV       R5,#0x0
        MOV       DPTR,#pRxBuf
        MOVX      A,@DPTR
        MOV       R0,A
        INC       DPTR
        MOVX      A,@DPTR
        XCH       A,R0
        ADD       A,#0x33
        MOV       DPL,A
        XCH       A,R0
        ADDC      A,#0x0
        MOV       DPH,A
        MOVX      A,@DPTR
        MOV       R2,A
        INC       DPTR
        MOVX      A,@DPTR
        MOV       R3,A
        LCALL     `??osal_memcpy::?relay`; Banked call to: osal_memcpy
        MOV       A,#0x3
        LCALL     ?DEALLOC_XSTACK8
          CFI CFA_XSP16 add(XSP16, 17)
//  776     pRxBuf->mhr.p += pRxBuf->mhr.len;
        MOV       DPTR,#pRxBuf
        MOVX      A,@DPTR
        MOV       R0,A
        INC       DPTR
        MOVX      A,@DPTR
        XCH       A,R0
        ADD       A,#0x35
        MOV       DPL,A
        XCH       A,R0
        ADDC      A,#0x0
        MOV       DPH,A
        MOVX      A,@DPTR
        MOV       R0,A
        MOV       R1,#0x0
        MOV       DPTR,#pRxBuf
        MOVX      A,@DPTR
        MOV       R2,A
        INC       DPTR
        MOVX      A,@DPTR
        XCH       A,R2
        ADD       A,#0x33
        MOV       DPL,A
        XCH       A,R2
        ADDC      A,#0x0
        MOV       DPH,A
        MOVX      A,@DPTR
        ADD       A,R0
        MOV       R0,A
        INC       DPTR
        MOVX      A,@DPTR
        ADDC      A,R1
        MOV       R1,A
        MOV       DPTR,#pRxBuf
        MOVX      A,@DPTR
        MOV       R2,A
        INC       DPTR
        MOVX      A,@DPTR
        XCH       A,R2
        ADD       A,#0x33
        MOV       DPL,A
        XCH       A,R2
        ADDC      A,#0x0
        MOV       DPH,A
        MOV       A,R0
        MOVX      @DPTR,A
        INC       DPTR
        MOV       A,R1
        MOVX      @DPTR,A
//  777   }
//  778 
//  779   /* set internal values */
//  780   pRxBuf->mac.srcAddr.addrMode  = srcAddrMode;
??rxStartIsr_29:
        MOV       A,?V4
        PUSH      A
          CFI CFA_SP SP+-1
        MOV       DPTR,#pRxBuf
        MOVX      A,@DPTR
        MOV       R0,A
        INC       DPTR
        MOVX      A,@DPTR
        XCH       A,R0
        ADD       A,#0x1b
        MOV       DPL,A
        XCH       A,R0
        ADDC      A,#0x0
        MOV       DPH,A
        POP       A
          CFI CFA_SP SP+0
        MOVX      @DPTR,A
//  781   pRxBuf->mac.dstAddr.addrMode  = dstAddrMode;
        MOV       A,?V6
        PUSH      A
          CFI CFA_SP SP+-1
        MOV       DPTR,#pRxBuf
        MOVX      A,@DPTR
        MOV       R0,A
        INC       DPTR
        MOVX      A,@DPTR
        XCH       A,R0
        ADD       A,#0x24
        MOV       DPL,A
        XCH       A,R0
        ADDC      A,#0x0
        MOV       DPH,A
        POP       A
          CFI CFA_SP SP+0
        MOVX      @DPTR,A
//  782   pRxBuf->mac.timestamp         = MAC_RADIO_BACKOFF_CAPTURE();
        ; Setup parameters for call to function macMcuOverflowCapture
        LCALL     `??macMcuOverflowCapture::?relay`; Banked call to: macMcuOverflowCapture
        MOV       ?V0,R2
        MOV       ?V1,R3
        MOV       ?V2,R4
        MOV       ?V3,R5
        MOV       DPTR,#pRxBuf
        MOVX      A,@DPTR
        MOV       R0,A
        INC       DPTR
        MOVX      A,@DPTR
        XCH       A,R0
        ADD       A,#0x25
        MOV       DPL,A
        XCH       A,R0
        ADDC      A,#0x0
        MOV       DPH,A
        MOV       R0,#?V0
        LCALL     ?L_MOV_TO_X
//  783   pRxBuf->mac.timestamp2        = MAC_RADIO_TIMER_CAPTURE();
        ; Setup parameters for call to function macMcuTimerCapture
        LCALL     `??macMcuTimerCapture::?relay`; Banked call to: macMcuTimerCapture
        MOV       ?V0,R2
        MOV       ?V1,R3
        MOV       R0,?V0
        MOV       R1,?V1
        MOV       DPTR,#pRxBuf
        MOVX      A,@DPTR
        MOV       R2,A
        INC       DPTR
        MOVX      A,@DPTR
        XCH       A,R2
        ADD       A,#0x29
        MOV       DPL,A
        XCH       A,R2
        ADDC      A,#0x0
        MOV       DPH,A
        MOV       A,R0
        MOVX      @DPTR,A
        INC       DPTR
        MOV       A,R1
        MOVX      @DPTR,A
//  784 
//  785   /* Special Case for Enhanced Beacon Request which has a different
//  786    * frame version
//  787    */
//  788 #ifdef FEATURE_ENHANCED_BEACON
//  789   if( MAC_FRAME_VERSION(&rxBuf[1]) == 2 )
//  790   {
//  791       pRxBuf->internal.frameType  = MAC_FRAME_TYPE_INTERNAL_MAC_VERSION_E | \ 
//  792                                   MAC_FRAME_TYPE(&rxBuf[1]);
//  793   }
//  794   else
//  795 #endif
//  796   {
//  797     pRxBuf->internal.frameType  = MAC_FRAME_TYPE(&rxBuf[1]);
        MOV       DPTR,#rxBuf + 1
        MOVX      A,@DPTR
        ANL       A,#0x7
        PUSH      A
          CFI CFA_SP SP+-1
        MOV       DPTR,#pRxBuf
        MOVX      A,@DPTR
        MOV       R0,A
        INC       DPTR
        MOVX      A,@DPTR
        MOV       DPH,A
        MOV       DPL,R0
        INC       DPTR
        INC       DPTR
        INC       DPTR
        INC       DPTR
        INC       DPTR
        POP       A
          CFI CFA_SP SP+0
        MOVX      @DPTR,A
//  798   }
//  799 
//  800   pRxBuf->mac.dsn               = MAC_SEQ_NUMBER(&rxBuf[1]);
        MOV       DPTR,#rxBuf + 3
        MOVX      A,@DPTR
        PUSH      A
          CFI CFA_SP SP+-1
        MOV       DPTR,#pRxBuf
        MOVX      A,@DPTR
        MOV       R0,A
        INC       DPTR
        MOVX      A,@DPTR
        XCH       A,R0
        ADD       A,#0x32
        MOV       DPL,A
        XCH       A,R0
        ADDC      A,#0x0
        MOV       DPH,A
        POP       A
          CFI CFA_SP SP+0
        MOVX      @DPTR,A
//  801   pRxBuf->internal.flags        = INTERNAL_FCF_FLAGS(&rxBuf[1]) | ackWithPending;
        MOV       DPTR,#rxBuf + 1
        MOVX      A,@DPTR
        ANL       A,#0x78
        MOV       R0,A
        MOV       DPTR,#rxBuf + 2
        MOVX      A,@DPTR
        SWAP      A
        ANL       A,#0xf
        ANL       A,#0x3
        ORL       A,R0
        ORL       A,R6
        PUSH      A
          CFI CFA_SP SP+-1
        MOV       DPTR,#pRxBuf
        MOVX      A,@DPTR
        MOV       R0,A
        INC       DPTR
        MOVX      A,@DPTR
        XCH       A,R0
        ADD       A,#0x7
        MOV       DPL,A
        XCH       A,R0
        ADDC      A,#0x0
        MOV       DPH,A
        POP       A
          CFI CFA_SP SP+0
        MOVX      @DPTR,A
//  802 
//  803   /*-------------------------------------------------------------------------------
//  804    *  If the processing the addressing fields does not require more bytes from
//  805    *  the FIFO go directly address processing function.  Otherwise, configure
//  806    *  interrupt to jump there once bytes are received.
//  807    */
//  808   if (addrLen == 0)
        MOV       A,R7
        JNZ       ??rxStartIsr_30
//  809   {
//  810     /* no addressing fields to read, prepare for payload interrupts */
//  811     pFuncRxState = &rxPayloadIsr;
        MOV       DPTR,#pFuncRxState
        MOV       A,#`??rxPayloadIsr::?relay` & 0xff
        MOVX      @DPTR,A
        INC       DPTR
        MOV       A,#(`??rxPayloadIsr::?relay` >> 8) & 0xff
        MOVX      @DPTR,A
//  812     rxPrepPayload();
        ; Setup parameters for call to function rxPrepPayload
        LCALL     `??rxPrepPayload::?relay`; Banked call to: rxPrepPayload
        SJMP      ??rxStartIsr_3
//  813   }
//  814   else
//  815   {
//  816     /* need to read and process addressing fields, prepare for address interrupt */
//  817     rxNextLen = addrLen;
??rxStartIsr_30:
        MOV       A,R7
        MOV       DPTR,#rxNextLen
        MOVX      @DPTR,A
//  818     if (MAC_SEC_ENABLED(&rxBuf[1]))
        MOV       DPTR,#rxBuf + 1
        MOVX      A,@DPTR
        MOV       C,0xE0 /* A   */.3
        JNC       ??rxStartIsr_31
//  819     {
//  820       /* When security is enabled, read off security control field as well */
//  821       MAC_RADIO_SET_RX_THRESHOLD(rxNextLen + MAC_SEC_CONTROL_FIELD_LEN);
        MOV       DPTR,#rxNextLen
        MOVX      A,@DPTR
        MOV       DPTR,#0x6194
        MOVX      @DPTR,A
        SJMP      ??rxStartIsr_32
//  822     }
//  823     else
//  824     {
//  825       MAC_RADIO_SET_RX_THRESHOLD(rxNextLen);
??rxStartIsr_31:
        MOV       DPTR,#rxNextLen
        MOVX      A,@DPTR
        ADD       A,#-0x1
        MOV       DPTR,#0x6194
        MOVX      @DPTR,A
//  826     }
//  827     pFuncRxState = &rxAddrIsr;
??rxStartIsr_32:
        MOV       DPTR,#pFuncRxState
        MOV       A,#`??rxAddrIsr::?relay` & 0xff
        MOVX      @DPTR,A
        INC       DPTR
        MOV       A,#(`??rxAddrIsr::?relay` >> 8) & 0xff
        MOVX      @DPTR,A
//  828   }
//  829 }
??rxStartIsr_3:
        MOV       A,#0x2
        LCALL     ?DEALLOC_XSTACK8
          CFI CFA_XSP16 add(XSP16, 15)
        MOV       R7,#0x7
        LJMP      ?BANKED_LEAVE_XDATA
          CFI EndBlock cfiBlock6
        REQUIRE RFST
        REQUIRE _A_IEN0
        REQUIRE S1CON
        REQUIRE RFIRQF1
//  830 
//  831 
//  832 /*=================================================================================================
//  833  * @fn          rxAddrIsr
//  834  *
//  835  * @brief       Receive ISR state for decoding address.  Reads and stores the address information
//  836  *              from the incoming packet.
//  837  *
//  838  * @param       none
//  839  *
//  840  * @return      none
//  841  *=================================================================================================
//  842  */

        RSEG BANKED_CODE:HUGECODE:NOROOT(0)
//  843 static void rxAddrIsr(void)
rxAddrIsr:
          CFI Block cfiBlock7 Using cfiCommon0
          CFI Function rxAddrIsr
        CODE
//  844 {
        FUNCALL rxAddrIsr, halAssertHandler
        LOCFRAME ISTACK, 0, STACK
        LOCFRAME PSTACK, 0, STACK
        LOCFRAME XSTACK, 32, STACK
        LOCFRAME IOVERLAY, 0, STATIC
        LOCFRAME DOVERLAY, 0, STATIC
        ARGFRAME ISTACK, 0, STACK
        ARGFRAME PSTACK, 0, STACK
        ARGFRAME XSTACK, 32, STACK
        ARGFRAME IOVERLAY, 0, STATIC
        ARGFRAME DOVERLAY, 0, STATIC
        FUNCALL rxAddrIsr, macMemReadRxFifo
        LOCFRAME ISTACK, 0, STACK
        LOCFRAME PSTACK, 0, STACK
        LOCFRAME XSTACK, 32, STACK
        LOCFRAME IOVERLAY, 0, STATIC
        LOCFRAME DOVERLAY, 0, STATIC
        ARGFRAME ISTACK, 0, STACK
        ARGFRAME PSTACK, 0, STACK
        ARGFRAME XSTACK, 32, STACK
        ARGFRAME IOVERLAY, 0, STATIC
        ARGFRAME DOVERLAY, 0, STATIC
        FUNCALL rxAddrIsr, sAddrExtCpy
        LOCFRAME ISTACK, 0, STACK
        LOCFRAME PSTACK, 0, STACK
        LOCFRAME XSTACK, 32, STACK
        LOCFRAME IOVERLAY, 0, STATIC
        LOCFRAME DOVERLAY, 0, STATIC
        ARGFRAME ISTACK, 0, STACK
        ARGFRAME PSTACK, 0, STACK
        ARGFRAME XSTACK, 32, STACK
        ARGFRAME IOVERLAY, 0, STATIC
        ARGFRAME DOVERLAY, 0, STATIC
        FUNCALL rxAddrIsr, sAddrExtCpy
        LOCFRAME ISTACK, 0, STACK
        LOCFRAME PSTACK, 0, STACK
        LOCFRAME XSTACK, 32, STACK
        LOCFRAME IOVERLAY, 0, STATIC
        LOCFRAME DOVERLAY, 0, STATIC
        ARGFRAME ISTACK, 0, STACK
        ARGFRAME PSTACK, 0, STACK
        ARGFRAME XSTACK, 32, STACK
        ARGFRAME IOVERLAY, 0, STATIC
        ARGFRAME DOVERLAY, 0, STATIC
        FUNCALL rxAddrIsr, rxPrepPayload
        LOCFRAME ISTACK, 0, STACK
        LOCFRAME PSTACK, 0, STACK
        LOCFRAME XSTACK, 32, STACK
        LOCFRAME IOVERLAY, 0, STATIC
        LOCFRAME DOVERLAY, 0, STATIC
        ARGFRAME ISTACK, 0, STACK
        ARGFRAME PSTACK, 0, STACK
        ARGFRAME XSTACK, 32, STACK
        ARGFRAME IOVERLAY, 0, STATIC
        ARGFRAME DOVERLAY, 0, STATIC
        REQUIRE ?V0
        REQUIRE ?V1
        REQUIRE ?V2
        REQUIRE ?V3
        MOV       A,#-0xc
        LCALL     ?BANKED_ENTER_XDATA
          CFI DPH0 load(1, XDATA, add(CFA_XSP16, literal(-1)))
          CFI DPL0 load(1, XDATA, add(CFA_XSP16, literal(-2)))
          CFI ?BRET_EXT load(1, XDATA, add(CFA_XSP16, literal(-3)))
          CFI ?RET_HIGH load(1, XDATA, add(CFA_XSP16, literal(-4)))
          CFI ?RET_LOW load(1, XDATA, add(CFA_XSP16, literal(-5)))
          CFI R7 load(1, XDATA, add(CFA_XSP16, literal(-6)))
          CFI V3 load(1, XDATA, add(CFA_XSP16, literal(-7)))
          CFI V2 load(1, XDATA, add(CFA_XSP16, literal(-8)))
          CFI V1 load(1, XDATA, add(CFA_XSP16, literal(-9)))
          CFI V0 load(1, XDATA, add(CFA_XSP16, literal(-10)))
          CFI VB load(1, XDATA, add(CFA_XSP16, literal(-11)))
          CFI R6 load(1, XDATA, add(CFA_XSP16, literal(-12)))
          CFI CFA_SP SP+0
          CFI CFA_XSP16 add(XSP16, 12)
        ; Saved register size: 12
        ; Auto size: 20
        MOV       A,#-0x14
        LCALL     ?ALLOC_XSTACK8
          CFI CFA_XSP16 add(XSP16, 32)
//  845   uint8 buf[MAX_ADDR_FIELDS_LEN];
//  846   uint8 dstAddrMode;
//  847   uint8 srcAddrMode;
//  848 #ifdef FEATURE_MAC_SECURITY
//  849   uint8 securityControl;
//  850 #endif /* MAC_SECURITY */
//  851   uint8  * p;
//  852 
//  853   MAC_ASSERT(rxNextLen != 0); /* logic assumes at least one address byte in buffer */
        MOV       DPTR,#rxNextLen
        MOVX      A,@DPTR
        JNZ       ??rxAddrIsr_0
        ; Setup parameters for call to function halAssertHandler
        LCALL     `??halAssertHandler::?relay`; Banked call to: halAssertHandler
//  854 
//  855   /*  read out address fields into local buffer in one shot */
//  856   MAC_RADIO_READ_RX_FIFO(buf, rxNextLen);
??rxAddrIsr_0:
        ; Setup parameters for call to function macMemReadRxFifo
        MOV       DPTR,#rxNextLen
        MOVX      A,@DPTR
        MOV       R1,A
        MOV       R2,?XSP + 0
        MOV       R3,?XSP + 1
        LCALL     `??macMemReadRxFifo::?relay`; Banked call to: macMemReadRxFifo
//  857 
//  858   /* set pointer to buffer with addressing fields */
//  859   p = buf;
        MOV       R0,?XSP + 0
        MOV       R1,?XSP + 1
        MOV       ?V2,R0
        MOV       ?V3,R1
        MOV       R6,?V2
        MOV       R7,?V3
//  860 
//  861   /* destination address */
//  862   dstAddrMode = MAC_DEST_ADDR_MODE(&rxBuf[1]);
        MOV       DPTR,#rxBuf + 2
        MOVX      A,@DPTR
        RRC       A
        RRC       A
        ANL       A,#0x3f
        ANL       A,#0x3
        MOV       ?V0,A
//  863   if (dstAddrMode != SADDR_MODE_NONE)
        MOV       A,?V0
        JNZ       $+5
        LJMP      ??rxAddrIsr_1 & 0xFFFF
//  864   {
//  865     pRxBuf->mac.srcPanId = pRxBuf->mac.dstPanId = BUILD_UINT16(p[0], p[1]);
        MOV       DPL,R6
        MOV       DPH,R7
        MOVX      A,@DPTR
        MOV       R2,A
        MOV       R3,#0x0
        MOV       DPL,R6
        MOV       DPH,R7
        INC       DPTR
        MOVX      A,@DPTR
        MOV       R0,A
        MOV       R1,#0x0
        CLR       A
        XCH       A,R0
        MOV       R1,A
        MOV       A,R2
        ADD       A,R0
        MOV       R0,A
        MOV       A,R3
        ADDC      A,R1
        MOV       R1,A
        MOV       DPTR,#pRxBuf
        MOVX      A,@DPTR
        MOV       R2,A
        INC       DPTR
        MOVX      A,@DPTR
        XCH       A,R2
        ADD       A,#0x2d
        MOV       DPL,A
        XCH       A,R2
        ADDC      A,#0x0
        MOV       DPH,A
        MOV       A,R0
        MOVX      @DPTR,A
        INC       DPTR
        MOV       A,R1
        MOVX      @DPTR,A
        MOV       DPTR,#pRxBuf
        MOVX      A,@DPTR
        MOV       R0,A
        INC       DPTR
        MOVX      A,@DPTR
        XCH       A,R0
        ADD       A,#0x2d
        MOV       DPL,A
        XCH       A,R0
        ADDC      A,#0x0
        MOV       DPH,A
        MOVX      A,@DPTR
        MOV       R0,A
        INC       DPTR
        MOVX      A,@DPTR
        MOV       R1,A
        MOV       DPTR,#pRxBuf
        MOVX      A,@DPTR
        MOV       R2,A
        INC       DPTR
        MOVX      A,@DPTR
        XCH       A,R2
        ADD       A,#0x2b
        MOV       DPL,A
        XCH       A,R2
        ADDC      A,#0x0
        MOV       DPH,A
        MOV       A,R0
        MOVX      @DPTR,A
        INC       DPTR
        MOV       A,R1
        MOVX      @DPTR,A
//  866     p += MAC_PAN_ID_FIELD_LEN;
        MOV       A,R6
        ADD       A,#0x2
        MOV       R6,A
        JNC       ??rxAddrIsr_2
        INC       R7
//  867     if (dstAddrMode == SADDR_MODE_EXT)
??rxAddrIsr_2:
        MOV       A,#0x3
        XRL       A,?V0
        JNZ       ??rxAddrIsr_3
//  868     {
//  869       sAddrExtCpy(pRxBuf->mac.dstAddr.addr.extAddr, p);
        ; Setup parameters for call to function sAddrExtCpy
        MOV       A,R6
        MOV       R4,A
        MOV       A,R7
        MOV       R5,A
        MOV       DPTR,#pRxBuf
        MOVX      A,@DPTR
        ADD       A,#0x1c
        MOV       R2,A
        INC       DPTR
        MOVX      A,@DPTR
        ADDC      A,#0x0
        MOV       R3,A
        LCALL     `??sAddrExtCpy::?relay`; Banked call to: sAddrExtCpy
//  870       p += MAC_EXT_ADDR_FIELD_LEN;
        MOV       A,R6
        ADD       A,#0x8
        MOV       R6,A
        JNC       ??rxAddrIsr_1
        INC       R7
        SJMP      ??rxAddrIsr_1
//  871     }
//  872     else
//  873     {
//  874       pRxBuf->mac.dstAddr.addr.shortAddr = BUILD_UINT16(p[0], p[1]);
??rxAddrIsr_3:
        MOV       DPL,R6
        MOV       DPH,R7
        MOVX      A,@DPTR
        MOV       R2,A
        MOV       R3,#0x0
        MOV       DPL,R6
        MOV       DPH,R7
        INC       DPTR
        MOVX      A,@DPTR
        MOV       R0,A
        MOV       R1,#0x0
        CLR       A
        XCH       A,R0
        MOV       R1,A
        MOV       A,R2
        ADD       A,R0
        MOV       R0,A
        MOV       A,R3
        ADDC      A,R1
        MOV       R1,A
        MOV       DPTR,#pRxBuf
        MOVX      A,@DPTR
        MOV       R2,A
        INC       DPTR
        MOVX      A,@DPTR
        XCH       A,R2
        ADD       A,#0x1c
        MOV       DPL,A
        XCH       A,R2
        ADDC      A,#0x0
        MOV       DPH,A
        MOV       A,R0
        MOVX      @DPTR,A
        INC       DPTR
        MOV       A,R1
        MOVX      @DPTR,A
//  875       p += MAC_SHORT_ADDR_FIELD_LEN;
        MOV       A,R6
        ADD       A,#0x2
        MOV       R6,A
        JNC       ??rxAddrIsr_1
        INC       R7
//  876     }
//  877   }
//  878 
//  879   /* sources address */
//  880   srcAddrMode = MAC_SRC_ADDR_MODE(&rxBuf[1]);
??rxAddrIsr_1:
        MOV       DPTR,#rxBuf + 2
        MOVX      A,@DPTR
        SWAP      A
        RRC       A
        RRC       A
        ANL       A,#0x3
        MOV       ?V1,A
//  881   if (srcAddrMode != SADDR_MODE_NONE)
        MOV       A,?V1
        JNZ       $+5
        LJMP      ??rxAddrIsr_4 & 0xFFFF
//  882   {
//  883     if (!(pRxBuf->internal.flags & MAC_RX_FLAG_INTRA_PAN))
        MOV       DPTR,#pRxBuf
        MOVX      A,@DPTR
        MOV       R0,A
        INC       DPTR
        MOVX      A,@DPTR
        XCH       A,R0
        ADD       A,#0x7
        MOV       DPL,A
        XCH       A,R0
        ADDC      A,#0x0
        MOV       DPH,A
        MOVX      A,@DPTR
        MOV       C,0xE0 /* A   */.6
        JC        ??rxAddrIsr_5
//  884     {
//  885       pRxBuf->mac.srcPanId = BUILD_UINT16(p[0], p[1]);
        MOV       DPL,R6
        MOV       DPH,R7
        MOVX      A,@DPTR
        MOV       R2,A
        MOV       R3,#0x0
        MOV       DPL,R6
        MOV       DPH,R7
        INC       DPTR
        MOVX      A,@DPTR
        MOV       R0,A
        MOV       R1,#0x0
        CLR       A
        XCH       A,R0
        MOV       R1,A
        MOV       A,R2
        ADD       A,R0
        MOV       R0,A
        MOV       A,R3
        ADDC      A,R1
        MOV       R1,A
        MOV       DPTR,#pRxBuf
        MOVX      A,@DPTR
        MOV       R2,A
        INC       DPTR
        MOVX      A,@DPTR
        XCH       A,R2
        ADD       A,#0x2b
        MOV       DPL,A
        XCH       A,R2
        ADDC      A,#0x0
        MOV       DPH,A
        MOV       A,R0
        MOVX      @DPTR,A
        INC       DPTR
        MOV       A,R1
        MOVX      @DPTR,A
//  886       p += MAC_PAN_ID_FIELD_LEN;
        MOV       A,R6
        ADD       A,#0x2
        MOV       R6,A
        JNC       ??rxAddrIsr_5
        INC       R7
//  887     }
//  888     if (srcAddrMode == SADDR_MODE_EXT)
??rxAddrIsr_5:
        MOV       A,#0x3
        XRL       A,?V1
        JNZ       ??rxAddrIsr_6
//  889     {
//  890       sAddrExtCpy(pRxBuf->mac.srcAddr.addr.extAddr, p);
        ; Setup parameters for call to function sAddrExtCpy
        MOV       A,R6
        MOV       R4,A
        MOV       A,R7
        MOV       R5,A
        MOV       DPTR,#pRxBuf
        MOVX      A,@DPTR
        ADD       A,#0x13
        MOV       R2,A
        INC       DPTR
        MOVX      A,@DPTR
        ADDC      A,#0x0
        MOV       R3,A
        LCALL     `??sAddrExtCpy::?relay`; Banked call to: sAddrExtCpy
        SJMP      ??rxAddrIsr_4
//  891     }
//  892     else
//  893     {
//  894       pRxBuf->mac.srcAddr.addr.shortAddr = BUILD_UINT16(p[0], p[1]);
??rxAddrIsr_6:
        MOV       DPL,R6
        MOV       DPH,R7
        MOVX      A,@DPTR
        MOV       R2,A
        MOV       R3,#0x0
        MOV       DPL,R6
        MOV       DPH,R7
        INC       DPTR
        MOVX      A,@DPTR
        MOV       R0,A
        MOV       R1,#0x0
        CLR       A
        XCH       A,R0
        MOV       R1,A
        MOV       A,R2
        ADD       A,R0
        MOV       R0,A
        MOV       A,R3
        ADDC      A,R1
        MOV       R1,A
        MOV       DPTR,#pRxBuf
        MOVX      A,@DPTR
        MOV       R2,A
        INC       DPTR
        MOVX      A,@DPTR
        XCH       A,R2
        ADD       A,#0x13
        MOV       DPL,A
        XCH       A,R2
        ADDC      A,#0x0
        MOV       DPH,A
        MOV       A,R0
        MOVX      @DPTR,A
        INC       DPTR
        MOV       A,R1
        MOVX      @DPTR,A
//  895     }
//  896   }
//  897 
//  898 #ifdef FEATURE_MAC_SECURITY
//  899   if (MAC_SEC_ENABLED(&rxBuf[1]))
//  900   {
//  901     uint8 keyIdMode;
//  902 
//  903     if (MAC_FRAME_VERSION(&rxBuf[1]) == 0)
//  904     {
//  905       /* MAC_UNSUPPORTED_LEGACY - Cancel the outgoing TX ACK.
//  906        * It may be too late but we have to try.
//  907        */
//  908       MAC_RADIO_CANCEL_TX_ACK();
//  909 
//  910       /* clean up after unsupported security legacy */
//  911       macRxHaltCleanup();
//  912       return;
//  913     }
//  914 
//  915     /* Copy addressing fields to RX buffer */
//  916     osal_memcpy(pRxBuf->mhr.p, buf, rxNextLen);
//  917     pRxBuf->mhr.p   += rxNextLen;
//  918     pRxBuf->mhr.len += rxNextLen;
//  919 
//  920     /*-------------------------------------------------------------------------------
//  921      *  Prepare for auxiliary security header interrupts.
//  922      */
//  923 
//  924     /* read out security control field from FIFO (threshold set so bytes are guaranteed to be there) */
//  925     MAC_RADIO_READ_RX_FIFO(&securityControl, MAC_SEC_CONTROL_FIELD_LEN);
//  926 
//  927     /* Copy security fields to MHR buffer */
//  928     *pRxBuf->mhr.p   = securityControl;
//  929     pRxBuf->mhr.p   += MAC_SEC_CONTROL_FIELD_LEN;
//  930     pRxBuf->mhr.len += MAC_SEC_CONTROL_FIELD_LEN;
//  931 
//  932     /* store security level and key ID mode */
//  933     pRxBuf->sec.securityLevel = SECURITY_LEVEL(securityControl);
//  934     pRxBuf->sec.keyIdMode = keyIdMode = KEY_IDENTIFIER_MODE(securityControl);
//  935 
//  936     /* Corrupted RX frame, should never occur. */
//  937     if ((keyIdMode > MAC_KEY_ID_MODE_8)
//  938     /* Get the next RX length according to AuxLen table minus security control field.
//  939      * The security control length is counted already.
//  940      */
//  941     || ((macKeySourceLen[keyIdMode] + MAC_FRAME_COUNTER_LEN) >= rxPayloadLen)
//  942     /* Security Enabled subfield is one, but the Security Level in the header is zero:
//  943      * MAC_UNSUPPORTED_SECURITY - Cancel the outgoing TX ACK.
//  944      */
//  945     || (pRxBuf->sec.securityLevel == MAC_SEC_LEVEL_NONE))
//  946     {
//  947       /* It may be too late but we have to try. */
//  948       MAC_RADIO_CANCEL_TX_ACK();
//  949 
//  950       /* clean up after unsupported security or corrupted RX frame. */
//  951       macRxHaltCleanup();
//  952       return;
//  953     }
//  954 
//  955     /* get the next RX length according to AuxLen table minus security control field.
//  956      * The sceurity control length is counted already.
//  957      */
//  958     rxNextLen = macKeySourceLen[keyIdMode] + MAC_FRAME_COUNTER_LEN;
//  959     MAC_RADIO_SET_RX_THRESHOLD(rxNextLen);
//  960     pFuncRxState = &rxSecurityHdrIsr;
//  961   }
//  962   else
//  963 #endif /* MAC_SECURITY */
//  964   {
//  965     /* clear security level */
//  966     pRxBuf->sec.securityLevel = MAC_SEC_LEVEL_NONE;
??rxAddrIsr_4:
        MOV       DPTR,#pRxBuf
        MOVX      A,@DPTR
        MOV       R0,A
        INC       DPTR
        MOVX      A,@DPTR
        XCH       A,R0
        ADD       A,#0x10
        MOV       DPL,A
        XCH       A,R0
        ADDC      A,#0x0
        MOV       DPH,A
        MOV       A,#0x0
        MOVX      @DPTR,A
//  967 
//  968     /*-------------------------------------------------------------------------------
//  969      *  Prepare for payload interrupts.
//  970      */
//  971     pFuncRxState = &rxPayloadIsr;
        MOV       DPTR,#pFuncRxState
        MOV       A,#`??rxPayloadIsr::?relay` & 0xff
        MOVX      @DPTR,A
        INC       DPTR
        MOV       A,#(`??rxPayloadIsr::?relay` >> 8) & 0xff
        MOVX      @DPTR,A
//  972     rxPrepPayload();
        ; Setup parameters for call to function rxPrepPayload
        LCALL     `??rxPrepPayload::?relay`; Banked call to: rxPrepPayload
//  973   }
//  974 }
        MOV       A,#0x14
        LCALL     ?DEALLOC_XSTACK8
          CFI CFA_XSP16 add(XSP16, 12)
        MOV       R7,#0x4
        LJMP      ?BANKED_LEAVE_XDATA
          CFI EndBlock cfiBlock7
//  975 
//  976 
//  977 #ifdef FEATURE_MAC_SECURITY
//  978 /*=================================================================================================
//  979  * @fn          rxSecurityHdrIsr
//  980  *
//  981  * @brief       Receive ISR state for reading out and storing the auxiliary security header.
//  982  *
//  983  * @param       none
//  984  *
//  985  * @return      none
//  986  *=================================================================================================
//  987  */
//  988 static void rxSecurityHdrIsr(void)
//  989 {
//  990   uint8 buf[MAC_FRAME_COUNTER_LEN + MAC_KEY_ID_8_LEN];
//  991 
//  992   /* read out frame counter and key ID */
//  993   MAC_RADIO_READ_RX_FIFO(buf, rxNextLen);
//  994 
//  995   /* Incoming frame counter */
//  996   pRxBuf->frameCounter = BUILD_UINT32(buf[0], buf[1], buf[2], buf[3]);
//  997   if (rxNextLen - MAC_FRAME_COUNTER_LEN > 0)
//  998   {
//  999     /* Explicit mode */
// 1000     osal_memcpy(pRxBuf->sec.keySource, &buf[MAC_FRAME_COUNTER_LEN], rxNextLen - MAC_FRAME_COUNTER_LEN - 1);
// 1001     pRxBuf->sec.keyIndex = buf[rxNextLen - MAC_KEY_INDEX_LEN];
// 1002   }
// 1003 
// 1004   /* Copy security fields to RX buffer */
// 1005   osal_memcpy(pRxBuf->mhr.p, buf, rxNextLen);
// 1006   pRxBuf->mhr.p   += rxNextLen;
// 1007   pRxBuf->mhr.len += rxNextLen;
// 1008 
// 1009   /* Update payload pointer and payload length. The rxPayloadLen includes security header length
// 1010    * and SCF byte. The security header and SCF length must be deducted from the rxPayloadLen.
// 1011    */
// 1012   rxPayloadLen    -= (rxNextLen + MAC_SEC_CONTROL_FIELD_LEN);
// 1013   pRxBuf->msdu.len = rxPayloadLen;
// 1014   pRxBuf->mhr.len += rxPayloadLen;
// 1015 
// 1016   /*-------------------------------------------------------------------------------
// 1017    *  Prepare for payload interrupts.
// 1018    */
// 1019   pFuncRxState = &rxPayloadIsr;
// 1020   rxPrepPayload();
// 1021 }
// 1022 #endif /* MAC_SECURITY */
// 1023 
// 1024 
// 1025 /*=================================================================================================
// 1026  * @fn          rxPrepPayload
// 1027  *
// 1028  * @brief       Common code to prepare for the payload ISR.
// 1029  *
// 1030  * @param       none
// 1031  *
// 1032  * @return      none
// 1033  *=================================================================================================
// 1034  */

        RSEG BANKED_CODE:HUGECODE:NOROOT(0)
// 1035 static void rxPrepPayload(void)
rxPrepPayload:
          CFI Block cfiBlock8 Using cfiCommon0
          CFI Function rxPrepPayload
        CODE
// 1036 {
        PUSH      DPL
          CFI DPL0 Frame(CFA_SP, 4)
          CFI CFA_SP SP+-4
        PUSH      DPH
          CFI DPH0 Frame(CFA_SP, 5)
          CFI CFA_SP SP+-5
        ; Saved register size: 2
        ; Auto size: 0
// 1037   if (rxPayloadLen == 0)
        MOV       DPTR,#rxPayloadLen
        MOVX      A,@DPTR
        JNZ       ??rxPrepPayload_0
// 1038   {
// 1039     MAC_RADIO_SET_RX_THRESHOLD(MAC_FCS_FIELD_LEN);
        MOV       DPTR,#0x6194
        MOV       A,#0x1
        MOVX      @DPTR,A
// 1040     pFuncRxState = &rxFcsIsr;
        MOV       DPTR,#pFuncRxState
        MOV       A,#`??rxFcsIsr::?relay` & 0xff
        MOVX      @DPTR,A
        INC       DPTR
        MOV       A,#(`??rxFcsIsr::?relay` >> 8) & 0xff
        MOVX      @DPTR,A
        SJMP      ??rxPrepPayload_1
// 1041   }
// 1042   else
// 1043   {
// 1044     rxNextLen = MIN(rxPayloadLen, MAX_PAYLOAD_BYTES_READ_PER_INTERRUPT);
??rxPrepPayload_0:
        MOV       DPTR,#rxPayloadLen
        MOVX      A,@DPTR
        CLR       C
        SUBB      A,#0x10
        JNC       ??rxPrepPayload_2
        MOV       DPTR,#rxPayloadLen
        MOVX      A,@DPTR
        MOV       DPTR,#rxNextLen
        MOVX      @DPTR,A
        SJMP      ??rxPrepPayload_3
??rxPrepPayload_2:
        MOV       DPTR,#rxNextLen
        MOV       A,#0x10
        MOVX      @DPTR,A
// 1045     MAC_RADIO_SET_RX_THRESHOLD(rxNextLen);
??rxPrepPayload_3:
        MOV       DPTR,#rxNextLen
        MOVX      A,@DPTR
        ADD       A,#-0x1
        MOV       DPTR,#0x6194
        MOVX      @DPTR,A
// 1046   }
// 1047 }
??rxPrepPayload_1:
        POP       DPH
          CFI DPH0 SameValue
          CFI CFA_SP SP+-4
        POP       DPL
          CFI DPL0 SameValue
          CFI CFA_SP SP+-3
        LJMP      ?BRET
          CFI EndBlock cfiBlock8
// 1048 
// 1049 
// 1050 /*=================================================================================================
// 1051  * @fn          rxPayloadIsr
// 1052  *
// 1053  * @brief       Receive ISR state for reading out and storing the packet payload.
// 1054  *
// 1055  * @param       none
// 1056  *
// 1057  * @return      none
// 1058  *=================================================================================================
// 1059  */

        RSEG BANKED_CODE:HUGECODE:NOROOT(0)
// 1060 static void rxPayloadIsr(void)
rxPayloadIsr:
          CFI Block cfiBlock9 Using cfiCommon0
          CFI Function rxPayloadIsr
        CODE
// 1061 {
        FUNCALL rxPayloadIsr, macMemReadRxFifo
        LOCFRAME ISTACK, 2, STACK
        LOCFRAME PSTACK, 0, STACK
        LOCFRAME XSTACK, 0, STACK
        LOCFRAME IOVERLAY, 0, STATIC
        LOCFRAME DOVERLAY, 0, STATIC
        ARGFRAME ISTACK, 2, STACK
        ARGFRAME PSTACK, 0, STACK
        ARGFRAME XSTACK, 0, STACK
        ARGFRAME IOVERLAY, 0, STATIC
        ARGFRAME DOVERLAY, 0, STATIC
        FUNCALL rxPayloadIsr, rxPrepPayload
        LOCFRAME ISTACK, 2, STACK
        LOCFRAME PSTACK, 0, STACK
        LOCFRAME XSTACK, 0, STACK
        LOCFRAME IOVERLAY, 0, STATIC
        LOCFRAME DOVERLAY, 0, STATIC
        ARGFRAME ISTACK, 2, STACK
        ARGFRAME PSTACK, 0, STACK
        ARGFRAME XSTACK, 0, STACK
        ARGFRAME IOVERLAY, 0, STATIC
        ARGFRAME DOVERLAY, 0, STATIC
        PUSH      DPL
          CFI DPL0 Frame(CFA_SP, 4)
          CFI CFA_SP SP+-4
        PUSH      DPH
          CFI DPH0 Frame(CFA_SP, 5)
          CFI CFA_SP SP+-5
        ; Saved register size: 2
        ; Auto size: 0
// 1062   MAC_RADIO_READ_RX_FIFO(pRxBuf->mhr.p, rxNextLen);
        ; Setup parameters for call to function macMemReadRxFifo
        MOV       DPTR,#rxNextLen
        MOVX      A,@DPTR
        MOV       R1,A
        MOV       DPTR,#pRxBuf
        MOVX      A,@DPTR
        MOV       R0,A
        INC       DPTR
        MOVX      A,@DPTR
        XCH       A,R0
        ADD       A,#0x33
        MOV       DPL,A
        XCH       A,R0
        ADDC      A,#0x0
        MOV       DPH,A
        MOVX      A,@DPTR
        MOV       R2,A
        INC       DPTR
        MOVX      A,@DPTR
        MOV       R3,A
        LCALL     `??macMemReadRxFifo::?relay`; Banked call to: macMemReadRxFifo
// 1063   pRxBuf->mhr.p += rxNextLen;
        MOV       DPTR,#rxNextLen
        MOVX      A,@DPTR
        MOV       R0,A
        MOV       R1,#0x0
        MOV       DPTR,#pRxBuf
        MOVX      A,@DPTR
        MOV       R2,A
        INC       DPTR
        MOVX      A,@DPTR
        XCH       A,R2
        ADD       A,#0x33
        MOV       DPL,A
        XCH       A,R2
        ADDC      A,#0x0
        MOV       DPH,A
        MOVX      A,@DPTR
        ADD       A,R0
        MOV       R0,A
        INC       DPTR
        MOVX      A,@DPTR
        ADDC      A,R1
        MOV       R1,A
        MOV       DPTR,#pRxBuf
        MOVX      A,@DPTR
        MOV       R2,A
        INC       DPTR
        MOVX      A,@DPTR
        XCH       A,R2
        ADD       A,#0x33
        MOV       DPL,A
        XCH       A,R2
        ADDC      A,#0x0
        MOV       DPH,A
        MOV       A,R0
        MOVX      @DPTR,A
        INC       DPTR
        MOV       A,R1
        MOVX      @DPTR,A
// 1064 
// 1065   rxPayloadLen -= rxNextLen;
        MOV       DPTR,#rxNextLen
        MOVX      A,@DPTR
        MOV       R0,A
        MOV       DPTR,#rxPayloadLen
        MOVX      A,@DPTR
        CLR       C
        SUBB      A,R0
        MOVX      @DPTR,A
// 1066 
// 1067   rxPrepPayload();
        ; Setup parameters for call to function rxPrepPayload
        LCALL     `??rxPrepPayload::?relay`; Banked call to: rxPrepPayload
// 1068 }
        POP       DPH
          CFI DPH0 SameValue
          CFI CFA_SP SP+-4
        POP       DPL
          CFI DPL0 SameValue
          CFI CFA_SP SP+-3
        LJMP      ?BRET
          CFI EndBlock cfiBlock9
// 1069 
// 1070 
// 1071 /*=================================================================================================
// 1072  * @fn          rxFcsIsr
// 1073  *
// 1074  * @brief       Receive ISR state for handling the FCS.
// 1075  *
// 1076  * @param       none
// 1077  *
// 1078  * @return      none
// 1079  *=================================================================================================
// 1080  */

        RSEG BANKED_CODE:HUGECODE:NOROOT(0)
// 1081 static void rxFcsIsr(void)
rxFcsIsr:
          CFI Block cfiBlock10 Using cfiCommon0
          CFI Function rxFcsIsr
        CODE
// 1082 {
        FUNCALL rxFcsIsr, macMemReadRxFifo
        LOCFRAME ISTACK, 0, STACK
        LOCFRAME PSTACK, 0, STACK
        LOCFRAME XSTACK, 10, STACK
        LOCFRAME IOVERLAY, 0, STATIC
        LOCFRAME DOVERLAY, 0, STATIC
        ARGFRAME ISTACK, 0, STACK
        ARGFRAME PSTACK, 0, STACK
        ARGFRAME XSTACK, 10, STACK
        ARGFRAME IOVERLAY, 0, STATIC
        ARGFRAME DOVERLAY, 0, STATIC
        FUNCALL rxFcsIsr, macRxOffRequest
        LOCFRAME ISTACK, 0, STACK
        LOCFRAME PSTACK, 0, STACK
        LOCFRAME XSTACK, 10, STACK
        LOCFRAME IOVERLAY, 0, STATIC
        LOCFRAME DOVERLAY, 0, STATIC
        ARGFRAME ISTACK, 0, STACK
        ARGFRAME PSTACK, 0, STACK
        ARGFRAME XSTACK, 10, STACK
        ARGFRAME IOVERLAY, 0, STATIC
        ARGFRAME DOVERLAY, 0, STATIC
        FUNCALL rxFcsIsr, macRadioComputeLQI
        LOCFRAME ISTACK, 0, STACK
        LOCFRAME PSTACK, 0, STACK
        LOCFRAME XSTACK, 10, STACK
        LOCFRAME IOVERLAY, 0, STATIC
        LOCFRAME DOVERLAY, 0, STATIC
        ARGFRAME ISTACK, 0, STACK
        ARGFRAME PSTACK, 0, STACK
        ARGFRAME XSTACK, 10, STACK
        ARGFRAME IOVERLAY, 0, STATIC
        ARGFRAME DOVERLAY, 0, STATIC
        FUNCALL rxFcsIsr, MAC_SrcMatchCheckResult
        LOCFRAME ISTACK, 0, STACK
        LOCFRAME PSTACK, 0, STACK
        LOCFRAME XSTACK, 10, STACK
        LOCFRAME IOVERLAY, 0, STATIC
        LOCFRAME DOVERLAY, 0, STATIC
        ARGFRAME ISTACK, 0, STACK
        ARGFRAME PSTACK, 0, STACK
        ARGFRAME XSTACK, 10, STACK
        ARGFRAME IOVERLAY, 0, STATIC
        ARGFRAME DOVERLAY, 0, STATIC
        FUNCALL rxFcsIsr, macRxCompleteCallback
        LOCFRAME ISTACK, 0, STACK
        LOCFRAME PSTACK, 0, STACK
        LOCFRAME XSTACK, 10, STACK
        LOCFRAME IOVERLAY, 0, STATIC
        LOCFRAME DOVERLAY, 0, STATIC
        ARGFRAME ISTACK, 0, STACK
        ARGFRAME PSTACK, 0, STACK
        ARGFRAME XSTACK, 10, STACK
        ARGFRAME IOVERLAY, 0, STATIC
        ARGFRAME DOVERLAY, 0, STATIC
        FUNCALL rxFcsIsr, macDataRxMemFree
        LOCFRAME ISTACK, 0, STACK
        LOCFRAME PSTACK, 0, STACK
        LOCFRAME XSTACK, 10, STACK
        LOCFRAME IOVERLAY, 0, STATIC
        LOCFRAME DOVERLAY, 0, STATIC
        ARGFRAME ISTACK, 0, STACK
        ARGFRAME PSTACK, 0, STACK
        ARGFRAME XSTACK, 10, STACK
        ARGFRAME IOVERLAY, 0, STATIC
        ARGFRAME DOVERLAY, 0, STATIC
        FUNCALL rxFcsIsr, rxDone
        LOCFRAME ISTACK, 0, STACK
        LOCFRAME PSTACK, 0, STACK
        LOCFRAME XSTACK, 10, STACK
        LOCFRAME IOVERLAY, 0, STATIC
        LOCFRAME DOVERLAY, 0, STATIC
        ARGFRAME ISTACK, 0, STACK
        ARGFRAME PSTACK, 0, STACK
        ARGFRAME XSTACK, 10, STACK
        ARGFRAME IOVERLAY, 0, STATIC
        ARGFRAME DOVERLAY, 0, STATIC
        REQUIRE ?V0
        REQUIRE ?V1
        MOV       A,#-0xa
        LCALL     ?BANKED_ENTER_XDATA
          CFI DPH0 load(1, XDATA, add(CFA_XSP16, literal(-1)))
          CFI DPL0 load(1, XDATA, add(CFA_XSP16, literal(-2)))
          CFI ?BRET_EXT load(1, XDATA, add(CFA_XSP16, literal(-3)))
          CFI ?RET_HIGH load(1, XDATA, add(CFA_XSP16, literal(-4)))
          CFI ?RET_LOW load(1, XDATA, add(CFA_XSP16, literal(-5)))
          CFI R7 load(1, XDATA, add(CFA_XSP16, literal(-6)))
          CFI V1 load(1, XDATA, add(CFA_XSP16, literal(-7)))
          CFI V0 load(1, XDATA, add(CFA_XSP16, literal(-8)))
          CFI VB load(1, XDATA, add(CFA_XSP16, literal(-9)))
          CFI R6 load(1, XDATA, add(CFA_XSP16, literal(-10)))
          CFI CFA_SP SP+0
          CFI CFA_XSP16 add(XSP16, 10)
        ; Saved register size: 10
        ; Auto size: 0
// 1083   uint8 crcOK;
// 1084   uint8 ackWithPending = 0;
        MOV       R6,#0x0
// 1085 
// 1086   /* read FCS, rxBuf is now available storage */
// 1087   MAC_RADIO_READ_RX_FIFO(rxBuf, MAC_FCS_FIELD_LEN);
        ; Setup parameters for call to function macMemReadRxFifo
        MOV       R1,#0x2
        MOV       R2,#rxBuf & 0xff
        MOV       R3,#(rxBuf >> 8) & 0xff
        LCALL     `??macMemReadRxFifo::?relay`; Banked call to: macMemReadRxFifo
// 1088 
// 1089   /*
// 1090    *  The FCS has actually been replaced within the radio by a proprietary version of the FCS.
// 1091    *  This proprietary FCS is two bytes (same length as the real FCS) and contains:
// 1092    *    1) the RSSI value
// 1093    *    2) the average correlation value (used for LQI)
// 1094    *    3) a CRC passed bit
// 1095    */
// 1096 
// 1097   /* save the "CRC-is-OK" status */
// 1098   crcOK = PROPRIETARY_FCS_CRC_OK(rxBuf);
        MOV       DPTR,#rxBuf + 1
        MOVX      A,@DPTR
        ANL       A,#0x80
        MOV       ?V1,A
// 1099 
// 1100   /*
// 1101    *  See if the frame should be passed up to high-level MAC.  If the CRC is OK, the
// 1102    *  the frame is always passed up.  Frames with a bad CRC are also passed up *if*
// 1103    *  a special variant of promiscuous mode is active.
// 1104    */
// 1105   if (crcOK || (rxPromiscuousMode == MAC_PROMISCUOUS_MODE_WITH_BAD_CRC))
        MOV       A,?V1
        JNZ       ??rxFcsIsr_0
        MOV       DPTR,#rxPromiscuousMode
        MOVX      A,@DPTR
        XRL       A,#0x2
        JZ        $+5
        LJMP      ??rxFcsIsr_1 & 0xFFFF
// 1106   {
// 1107     int8 rssiDbm;
// 1108     uint8 corr;
// 1109 
// 1110 #ifdef FEATURE_SYSTEM_STATS
// 1111     /* Increment diagnostic CRC success counter */
// 1112     macLowLevelDiags( MAC_DIAGS_RX_CRC_PASS );
// 1113 #endif /* FEATURE_SYSTEM_STATS */
// 1114 
// 1115     /*
// 1116      *  As power saving optimization, set state variable to indicate physical receive
// 1117      *  has completed and then request turning of the receiver.  This means the receiver
// 1118      *  can be off (if other conditions permit) during execution of the callback function.
// 1119      *
// 1120      *  The receiver will be requested to turn off once again at the end of the receive
// 1121      *  logic.  There is no harm in doing this.
// 1122      */
// 1123     macRxActive = MAC_RX_ACTIVE_DONE;
??rxFcsIsr_0:
        MOV       DPTR,#macRxActive
        MOV       A,#0x2
        MOVX      @DPTR,A
// 1124     macRxOffRequest();
        ; Setup parameters for call to function macRxOffRequest
        LCALL     `??macRxOffRequest::?relay`; Banked call to: macRxOffRequest
// 1125 
// 1126     /* decode RSSI and correlation values */
// 1127     rssiDbm = PROPRIETARY_FCS_RSSI(rxBuf) + MAC_RADIO_RSSI_OFFSET;
        MOV       DPTR,#rxBuf
        MOVX      A,@DPTR
        ADD       A,#-0x49
        MOV       R7,A
// 1128     MAC_RADIO_RSSI_LNA_OFFSET(rssiDbm);
// 1129     corr = PROPRIETARY_FCS_CORRELATION_VALUE(rxBuf);
        MOV       DPTR,#rxBuf + 1
        MOVX      A,@DPTR
        ANL       A,#0x7f
        MOV       ?V0,A
// 1130 
// 1131     /* record parameters that get passed up to high-level */
// 1132     pRxBuf->mac.mpduLinkQuality = macRadioComputeLQI(rssiDbm, corr);
        ; Setup parameters for call to function macRadioComputeLQI
        MOV       R2,?V0
        MOV       A,R7
        MOV       R1,A
        LCALL     `??macRadioComputeLQI::?relay`; Banked call to: macRadioComputeLQI
        MOV       A,R1
        PUSH      A
          CFI CFA_SP SP+-1
        MOV       DPTR,#pRxBuf
        MOVX      A,@DPTR
        MOV       R0,A
        INC       DPTR
        MOVX      A,@DPTR
        XCH       A,R0
        ADD       A,#0x2f
        MOV       DPL,A
        XCH       A,R0
        ADDC      A,#0x0
        MOV       DPH,A
        POP       A
          CFI CFA_SP SP+0
        MOVX      @DPTR,A
// 1133     pRxBuf->mac.rssi = rssiDbm;
        MOV       A,R7
        PUSH      A
          CFI CFA_SP SP+-1
        MOV       DPTR,#pRxBuf
        MOVX      A,@DPTR
        MOV       R0,A
        INC       DPTR
        MOVX      A,@DPTR
        XCH       A,R0
        ADD       A,#0x31
        MOV       DPL,A
        XCH       A,R0
        ADDC      A,#0x0
        MOV       DPH,A
        POP       A
          CFI CFA_SP SP+0
        MOVX      @DPTR,A
// 1134     pRxBuf->mac.correlation = corr;
        MOV       A,?V0
        PUSH      A
          CFI CFA_SP SP+-1
        MOV       DPTR,#pRxBuf
        MOVX      A,@DPTR
        MOV       R0,A
        INC       DPTR
        MOVX      A,@DPTR
        XCH       A,R0
        ADD       A,#0x30
        MOV       DPL,A
        XCH       A,R0
        ADDC      A,#0x0
        MOV       DPH,A
        POP       A
          CFI CFA_SP SP+0
        MOVX      @DPTR,A
// 1135 
// 1136     /* set the MSDU pointer to point at start of data */
// 1137     pRxBuf->mhr.p   = (uint8 *) (pRxBuf + 1);
        MOV       DPTR,#pRxBuf
        MOVX      A,@DPTR
        ADD       A,#0x3a
        MOV       R0,A
        INC       DPTR
        MOVX      A,@DPTR
        ADDC      A,#0x0
        MOV       R1,A
        MOV       DPTR,#pRxBuf
        MOVX      A,@DPTR
        MOV       R2,A
        INC       DPTR
        MOVX      A,@DPTR
        XCH       A,R2
        ADD       A,#0x33
        MOV       DPL,A
        XCH       A,R2
        ADDC      A,#0x0
        MOV       DPH,A
        MOV       A,R0
        MOVX      @DPTR,A
        INC       DPTR
        MOV       A,R1
        MOVX      @DPTR,A
// 1138     pRxBuf->msdu.p += (pRxBuf->mhr.len - pRxBuf->msdu.len);
        MOV       DPTR,#pRxBuf
        MOVX      A,@DPTR
        MOV       R0,A
        INC       DPTR
        MOVX      A,@DPTR
        XCH       A,R0
        ADD       A,#0x35
        MOV       DPL,A
        XCH       A,R0
        ADDC      A,#0x0
        MOV       DPH,A
        MOVX      A,@DPTR
        MOV       R0,A
        MOV       R1,#0x0
        MOV       DPTR,#pRxBuf
        MOVX      A,@DPTR
        MOV       R2,A
        INC       DPTR
        MOVX      A,@DPTR
        MOV       DPH,A
        MOV       DPL,R2
        INC       DPTR
        INC       DPTR
        INC       DPTR
        INC       DPTR
        MOVX      A,@DPTR
        MOV       R2,A
        MOV       R3,#0x0
        MOV       A,R0
        CLR       C
        SUBB      A,R2
        MOV       R0,A
        MOV       A,R1
        SUBB      A,R3
        MOV       R1,A
        MOV       DPTR,#pRxBuf
        MOVX      A,@DPTR
        MOV       R2,A
        INC       DPTR
        MOVX      A,@DPTR
        MOV       DPH,A
        MOV       DPL,R2
        INC       DPTR
        INC       DPTR
        MOVX      A,@DPTR
        ADD       A,R0
        MOV       R0,A
        INC       DPTR
        MOVX      A,@DPTR
        ADDC      A,R1
        MOV       R1,A
        MOV       DPTR,#pRxBuf
        MOVX      A,@DPTR
        MOV       R2,A
        INC       DPTR
        MOVX      A,@DPTR
        MOV       DPH,A
        MOV       DPL,R2
        INC       DPTR
        INC       DPTR
        MOV       A,R0
        MOVX      @DPTR,A
        INC       DPTR
        MOV       A,R1
        MOVX      @DPTR,A
// 1139 
// 1140     if ((pRxBuf->internal.flags & MAC_RX_FLAG_ACK_PENDING) && (*pRxBuf->msdu.p != MAC_DATA_REQ_FRAME))
        MOV       DPTR,#pRxBuf
        MOVX      A,@DPTR
        MOV       R0,A
        INC       DPTR
        MOVX      A,@DPTR
        XCH       A,R0
        ADD       A,#0x7
        MOV       DPL,A
        XCH       A,R0
        ADDC      A,#0x0
        MOV       DPH,A
        MOVX      A,@DPTR
        MOV       C,0xE0 /* A   */.2
        JNC       ??rxFcsIsr_2
        MOV       DPTR,#pRxBuf
        MOVX      A,@DPTR
        MOV       R0,A
        INC       DPTR
        MOVX      A,@DPTR
        MOV       DPH,A
        MOV       DPL,R0
        INC       DPTR
        INC       DPTR
        MOVX      A,@DPTR
        MOV       R0,A
        INC       DPTR
        MOVX      A,@DPTR
        MOV       DPH,A
        MOV       DPL,R0
        MOVX      A,@DPTR
        XRL       A,#0x4
        JZ        ??rxFcsIsr_2
// 1141     {
// 1142       /* For non-data request commands, cancel the pending bit in the ACK. */
// 1143       MAC_RADIO_TX_ACK();
        MOV       DPTR,#0x618a
        MOVX      A,@DPTR
        CLR       0xE0 /* A   */.2
        MOVX      @DPTR,A
// 1144     }
// 1145 
// 1146     /* Read the source matching result back */
// 1147     if( macSrcMatchIsEnabled && MAC_RADIO_SRC_MATCH_RESULT() )
??rxFcsIsr_2:
        MOV       DPTR,#macSrcMatchIsEnabled
        MOVX      A,@DPTR
        JZ        ??rxFcsIsr_3
        ; Setup parameters for call to function MAC_SrcMatchCheckResult
        LCALL     `??MAC_SrcMatchCheckResult::?relay`; Banked call to: MAC_SrcMatchCheckResult
        MOV       A,R1
        JZ        ??rxFcsIsr_3
// 1148     {
// 1149       /* This result will not overwrite the previously determined pRxBuf->internal.flags */
// 1150       ackWithPending = MAC_RX_FLAG_ACK_PENDING;
        MOV       R6,#0x4
// 1151     }
// 1152     pRxBuf->internal.flags |= ( crcOK | ackWithPending );
??rxFcsIsr_3:
        MOV       A,?V1
        ORL       A,R6
        MOV       R0,A
        MOV       DPTR,#pRxBuf
        MOVX      A,@DPTR
        MOV       R1,A
        INC       DPTR
        MOVX      A,@DPTR
        XCH       A,R1
        ADD       A,#0x7
        MOV       DPL,A
        XCH       A,R1
        ADDC      A,#0x0
        MOV       DPH,A
        MOVX      A,@DPTR
        ORL       A,R0
        MOVX      @DPTR,A
// 1153 
// 1154     /* finally... execute callback function */
// 1155     macRxCompleteCallback(pRxBuf);
        ; Setup parameters for call to function macRxCompleteCallback
        MOV       DPTR,#pRxBuf
        MOVX      A,@DPTR
        MOV       R2,A
        INC       DPTR
        MOVX      A,@DPTR
        MOV       R3,A
        LCALL     `??macRxCompleteCallback::?relay`; Banked call to: macRxCompleteCallback
// 1156     pRxBuf = NULL; /* needed to indicate buffer is no longer allocated */
        MOV       DPTR,#pRxBuf
        MOV       A,#0x0
        MOVX      @DPTR,A
        INC       DPTR
        MOV       A,#0x0
        MOVX      @DPTR,A
        SJMP      ??rxFcsIsr_4
// 1157   }
// 1158   else
// 1159   {
// 1160 #ifdef FEATURE_SYSTEM_STATS
// 1161     /* Increment diagnostic CRC failure counter */
// 1162     macLowLevelDiags( MAC_DIAGS_RX_CRC_FAIL );
// 1163 #endif /* FEATURE_SYSTEM_STATS */
// 1164 
// 1165     /*
// 1166      *  The CRC is bad so no ACK was sent.  Cancel any callback and clear the flag.
// 1167      *  (It's OK to cancel the outgoing ACK even if an ACK was not requested.  It's
// 1168      *  slightly more efficient to do so.)
// 1169      */
// 1170     MAC_RADIO_CANCEL_ACK_TX_DONE_CALLBACK();
??rxFcsIsr_1:
        MOV       DPTR,#0x61a4
        MOVX      A,@DPTR
        CLR       0xE0 /* A   */.0
        MOVX      @DPTR,A
// 1171     macRxOutgoingAckFlag = 0;
        MOV       DPTR,#macRxOutgoingAckFlag
        MOV       A,#0x0
        MOVX      @DPTR,A
// 1172 
// 1173     /* the CRC failed so the packet must be discarded */
// 1174     MEM_FREE((uint8 **)&pRxBuf);
        ; Setup parameters for call to function macDataRxMemFree
        MOV       R2,#pRxBuf & 0xff
        MOV       R3,#(pRxBuf >> 8) & 0xff
        LCALL     `??macDataRxMemFree::?relay`; Banked call to: macDataRxMemFree
        MOV       A,R1
// 1175     pRxBuf = NULL;  /* needed to indicate buffer is no longer allocated */
        MOV       DPTR,#pRxBuf
        MOV       A,#0x0
        MOVX      @DPTR,A
        INC       DPTR
        MOV       A,#0x0
        MOVX      @DPTR,A
// 1176   }
// 1177 
// 1178   /* reset threshold level, reset receive state, and complete receive logic */
// 1179   MAC_RADIO_SET_RX_THRESHOLD(RX_THRESHOLD_START_LEN);
??rxFcsIsr_4:
        MOV       DPTR,#0x6194
        MOV       A,#0x5
        MOVX      @DPTR,A
// 1180   pFuncRxState = &rxStartIsr;
        MOV       DPTR,#pFuncRxState
        MOV       A,#`??rxStartIsr::?relay` & 0xff
        MOVX      @DPTR,A
        INC       DPTR
        MOV       A,#(`??rxStartIsr::?relay` >> 8) & 0xff
        MOVX      @DPTR,A
// 1181   rxDone();
        ; Setup parameters for call to function rxDone
        LCALL     `??rxDone::?relay`; Banked call to: rxDone
// 1182 }
        MOV       R7,#0x2
        LJMP      ?BANKED_LEAVE_XDATA
          CFI EndBlock cfiBlock10
// 1183 
// 1184 
// 1185 /*=================================================================================================
// 1186  * @fn          rxDone
// 1187  *
// 1188  * @brief       Common exit point for receive.
// 1189  *
// 1190  * @param       none
// 1191  *
// 1192  * @return      none
// 1193  *=================================================================================================
// 1194  */

        RSEG BANKED_CODE:HUGECODE:NOROOT(0)
// 1195 static void rxDone(void)
rxDone:
          CFI Block cfiBlock11 Using cfiCommon0
          CFI Function rxDone
        CODE
// 1196 {
        FUNCALL rxDone, rxPostRxUpdates
        LOCFRAME ISTACK, 2, STACK
        LOCFRAME PSTACK, 0, STACK
        LOCFRAME XSTACK, 0, STACK
        LOCFRAME IOVERLAY, 0, STATIC
        LOCFRAME DOVERLAY, 0, STATIC
        ARGFRAME ISTACK, 2, STACK
        ARGFRAME PSTACK, 0, STACK
        ARGFRAME XSTACK, 0, STACK
        ARGFRAME IOVERLAY, 0, STATIC
        ARGFRAME DOVERLAY, 0, STATIC
        PUSH      DPL
          CFI DPL0 Frame(CFA_SP, 4)
          CFI CFA_SP SP+-4
        PUSH      DPH
          CFI DPH0 Frame(CFA_SP, 5)
          CFI CFA_SP SP+-5
        ; Saved register size: 2
        ; Auto size: 0
// 1197   /* if the receive FIFO has overflowed, flush it here */
// 1198   if (MAC_RADIO_RX_FIFO_HAS_OVERFLOWED())
        MOV       DPTR,#0x6193
        MOVX      A,@DPTR
        MOV       C,0xE0 /* A   */.6
        JNC       ??rxDone_0
        MOV       DPTR,#0x6193
        MOVX      A,@DPTR
        MOV       C,0xE0 /* A   */.7
        JC        ??rxDone_0
// 1199   {
// 1200     MAC_RADIO_FLUSH_RX_FIFO();
        MOV       0xe1,#-0x13
        MOV       0xe1,#-0x13
// 1201   }
// 1202 
// 1203   /* mark receive as inactive */
// 1204   macRxActive = MAC_RX_ACTIVE_NO_ACTIVITY;
??rxDone_0:
        MOV       DPTR,#macRxActive
        MOV       A,#0x0
        MOVX      @DPTR,A
// 1205 
// 1206   /* if there is no outgoing ACK, run the post receive updates */
// 1207   if (!macRxOutgoingAckFlag)
        MOV       DPTR,#macRxOutgoingAckFlag
        MOVX      A,@DPTR
        JNZ       ??rxDone_1
// 1208   {
// 1209     rxPostRxUpdates();
        ; Setup parameters for call to function rxPostRxUpdates
        LCALL     `??rxPostRxUpdates::?relay`; Banked call to: rxPostRxUpdates
// 1210   }
// 1211 }
??rxDone_1:
        POP       DPH
          CFI DPH0 SameValue
          CFI CFA_SP SP+-4
        POP       DPL
          CFI DPL0 SameValue
          CFI CFA_SP SP+-3
        LJMP      ?BRET
          CFI EndBlock cfiBlock11
        REQUIRE RFST
// 1212 
// 1213 
// 1214 /**************************************************************************************************
// 1215  * @fn          macRxAckTxDoneCallback
// 1216  *
// 1217  * @brief       Function called when the outoing ACK has completed transmitting.
// 1218  *
// 1219  * @param       none
// 1220  *
// 1221  * @return      none
// 1222  **************************************************************************************************
// 1223  */

        RSEG BANKED_CODE:HUGECODE:NOROOT(0)
// 1224 void macRxAckTxDoneCallback(void)
macRxAckTxDoneCallback:
          CFI Block cfiBlock12 Using cfiCommon0
          CFI Function macRxAckTxDoneCallback
        CODE
// 1225 {  
        FUNCALL macRxAckTxDoneCallback, rxPostRxUpdates
        LOCFRAME ISTACK, 2, STACK
        LOCFRAME PSTACK, 0, STACK
        LOCFRAME XSTACK, 0, STACK
        LOCFRAME IOVERLAY, 0, STATIC
        LOCFRAME DOVERLAY, 0, STATIC
        ARGFRAME ISTACK, 2, STACK
        ARGFRAME PSTACK, 0, STACK
        ARGFRAME XSTACK, 0, STACK
        ARGFRAME IOVERLAY, 0, STATIC
        ARGFRAME DOVERLAY, 0, STATIC
        PUSH      DPL
          CFI DPL0 Frame(CFA_SP, 4)
          CFI CFA_SP SP+-4
        PUSH      DPH
          CFI DPH0 Frame(CFA_SP, 5)
          CFI CFA_SP SP+-5
        ; Saved register size: 2
        ; Auto size: 0
// 1226   macRxOutgoingAckFlag = 0;
        MOV       DPTR,#macRxOutgoingAckFlag
        MOV       A,#0x0
        MOVX      @DPTR,A
// 1227 
// 1228 #ifdef ACK_DONE_ISR_WORKAROUND
// 1229   macTimerCancel(&macTxAckIsrTimer);
// 1230 #endif /* ACK_DONE_ISR_WROKAROUND */
// 1231 
// 1232   /*
// 1233    *  With certain interrupt priorities and timing conditions, it is possible this callback
// 1234    *  could be executed before the primary receive logic completes.  To prevent this, the
// 1235    *  post updates are only executed if receive logic is no longer active.  In the case the
// 1236    *  post updates are not executed here, they will execute when the main receive logic
// 1237    *  completes.
// 1238    */
// 1239   if (!macRxActive)
        MOV       DPTR,#macRxActive
        MOVX      A,@DPTR
        JNZ       ??macRxAckTxDoneCallback_0
// 1240   {
// 1241     rxPostRxUpdates();
        ; Setup parameters for call to function rxPostRxUpdates
        LCALL     `??rxPostRxUpdates::?relay`; Banked call to: rxPostRxUpdates
// 1242   }
// 1243 }
??macRxAckTxDoneCallback_0:
        POP       DPH
          CFI DPH0 SameValue
          CFI CFA_SP SP+-4
        POP       DPL
          CFI DPL0 SameValue
          CFI CFA_SP SP+-3
        LJMP      ?BRET
          CFI EndBlock cfiBlock12
// 1244 
// 1245 
// 1246 /*=================================================================================================
// 1247  * @fn          rxPostRxUpdates
// 1248  *
// 1249  * @brief       Updates that need to be performed once receive is complete.
// 1250  *
// 1251  *              It is not fatal to execute this function if somehow receive is active.  Under
// 1252  *              certain timing/interrupt conditions a new receive may have started before this
// 1253  *              function executes.  This should happen very rarely (if it happens at all) and
// 1254  *              would cause no problems.
// 1255  *
// 1256  * @param       none
// 1257  *
// 1258  * @return      none
// 1259  *=================================================================================================
// 1260  */

        RSEG BANKED_CODE:HUGECODE:NOROOT(0)
// 1261 static void rxPostRxUpdates(void)
rxPostRxUpdates:
          CFI Block cfiBlock13 Using cfiCommon0
          CFI Function rxPostRxUpdates
        CODE
// 1262 {
        FUNCALL rxPostRxUpdates, macRxOffRequest
        LOCFRAME ISTACK, 2, STACK
        LOCFRAME PSTACK, 0, STACK
        LOCFRAME XSTACK, 0, STACK
        LOCFRAME IOVERLAY, 0, STATIC
        LOCFRAME DOVERLAY, 0, STATIC
        ARGFRAME ISTACK, 2, STACK
        ARGFRAME PSTACK, 0, STACK
        ARGFRAME XSTACK, 0, STACK
        ARGFRAME IOVERLAY, 0, STATIC
        ARGFRAME DOVERLAY, 0, STATIC
        FUNCALL rxPostRxUpdates, macRadioUpdateTxPower
        LOCFRAME ISTACK, 2, STACK
        LOCFRAME PSTACK, 0, STACK
        LOCFRAME XSTACK, 0, STACK
        LOCFRAME IOVERLAY, 0, STATIC
        LOCFRAME DOVERLAY, 0, STATIC
        ARGFRAME ISTACK, 2, STACK
        ARGFRAME PSTACK, 0, STACK
        ARGFRAME XSTACK, 0, STACK
        ARGFRAME IOVERLAY, 0, STATIC
        ARGFRAME DOVERLAY, 0, STATIC
        FUNCALL rxPostRxUpdates, macTxStartQueuedFrame
        LOCFRAME ISTACK, 2, STACK
        LOCFRAME PSTACK, 0, STACK
        LOCFRAME XSTACK, 0, STACK
        LOCFRAME IOVERLAY, 0, STATIC
        LOCFRAME DOVERLAY, 0, STATIC
        ARGFRAME ISTACK, 2, STACK
        ARGFRAME PSTACK, 0, STACK
        ARGFRAME XSTACK, 0, STACK
        ARGFRAME IOVERLAY, 0, STATIC
        ARGFRAME DOVERLAY, 0, STATIC
        PUSH      DPL
          CFI DPL0 Frame(CFA_SP, 4)
          CFI CFA_SP SP+-4
        PUSH      DPH
          CFI DPH0 Frame(CFA_SP, 5)
          CFI CFA_SP SP+-5
        ; Saved register size: 2
        ; Auto size: 0
// 1263   /* turn off receiver if permitted */
// 1264   macRxOffRequest();
        ; Setup parameters for call to function macRxOffRequest
        LCALL     `??macRxOffRequest::?relay`; Banked call to: macRxOffRequest
// 1265 
// 1266   /* update the transmit power, update may have been blocked by transmit of outgoing ACK */
// 1267   macRadioUpdateTxPower();
        ; Setup parameters for call to function macRadioUpdateTxPower
        LCALL     `??macRadioUpdateTxPower::?relay`; Banked call to: macRadioUpdateTxPower
// 1268 
// 1269   /* initiate and transmit that was queued during receive */
// 1270   macTxStartQueuedFrame();
        ; Setup parameters for call to function macTxStartQueuedFrame
        LCALL     `??macTxStartQueuedFrame::?relay`; Banked call to: macTxStartQueuedFrame
// 1271 }
        POP       DPH
          CFI DPH0 SameValue
          CFI CFA_SP SP+-4
        POP       DPL
          CFI DPL0 SameValue
          CFI CFA_SP SP+-3
        LJMP      ?BRET
          CFI EndBlock cfiBlock13
// 1272 
// 1273 
// 1274 /*=================================================================================================
// 1275  * @fn          rxDiscardFrame
// 1276  *
// 1277  * @brief       Initializes for discarding a packet.  Must be called before ACK is strobed.
// 1278  *
// 1279  * @param       none
// 1280  *
// 1281  * @return      none
// 1282  *=================================================================================================
// 1283  */

        RSEG BANKED_CODE:HUGECODE:NOROOT(0)
// 1284 static void rxDiscardFrame(void)
rxDiscardFrame:
          CFI Block cfiBlock14 Using cfiCommon0
          CFI Function rxDiscardFrame
        CODE
// 1285 {
        FUNCALL rxDiscardFrame, halAssertHandler
        LOCFRAME ISTACK, 2, STACK
        LOCFRAME PSTACK, 0, STACK
        LOCFRAME XSTACK, 0, STACK
        LOCFRAME IOVERLAY, 0, STATIC
        LOCFRAME DOVERLAY, 0, STATIC
        ARGFRAME ISTACK, 2, STACK
        ARGFRAME PSTACK, 0, STACK
        ARGFRAME XSTACK, 0, STACK
        ARGFRAME IOVERLAY, 0, STATIC
        ARGFRAME DOVERLAY, 0, STATIC
        FUNCALL rxDiscardFrame, rxDone
        LOCFRAME ISTACK, 2, STACK
        LOCFRAME PSTACK, 0, STACK
        LOCFRAME XSTACK, 0, STACK
        LOCFRAME IOVERLAY, 0, STATIC
        LOCFRAME DOVERLAY, 0, STATIC
        ARGFRAME ISTACK, 2, STACK
        ARGFRAME PSTACK, 0, STACK
        ARGFRAME XSTACK, 0, STACK
        ARGFRAME IOVERLAY, 0, STATIC
        ARGFRAME DOVERLAY, 0, STATIC
        PUSH      DPL
          CFI DPL0 Frame(CFA_SP, 4)
          CFI CFA_SP SP+-4
        PUSH      DPH
          CFI DPH0 Frame(CFA_SP, 5)
          CFI CFA_SP SP+-5
        ; Saved register size: 2
        ; Auto size: 0
// 1286   MAC_ASSERT(pFuncRxState == &rxStartIsr); /* illegal state for calling discard frame function */
        MOV       DPTR,#pFuncRxState
        MOVX      A,@DPTR
        XRL       A,#`??rxStartIsr::?relay` & 0xff
        JNZ       ??rxDiscardFrame_0
        INC       DPTR
        MOVX      A,@DPTR
        XRL       A,#(`??rxStartIsr::?relay` >> 8) & 0xff
??rxDiscardFrame_0:
        JZ        ??rxDiscardFrame_1
        ; Setup parameters for call to function halAssertHandler
        LCALL     `??halAssertHandler::?relay`; Banked call to: halAssertHandler
// 1287 
// 1288   if (rxUnreadLen == 0)
??rxDiscardFrame_1:
        MOV       DPTR,#rxUnreadLen
        MOVX      A,@DPTR
        JNZ       ??rxDiscardFrame_2
// 1289   {
// 1290     rxDone();
        ; Setup parameters for call to function rxDone
        LCALL     `??rxDone::?relay`; Banked call to: rxDone
        SJMP      ??rxDiscardFrame_3
// 1291   }
// 1292   else
// 1293   {
// 1294     rxNextLen = MIN(rxUnreadLen, MAX_PAYLOAD_BYTES_READ_PER_INTERRUPT);
??rxDiscardFrame_2:
        MOV       DPTR,#rxUnreadLen
        MOVX      A,@DPTR
        CLR       C
        SUBB      A,#0x10
        JNC       ??rxDiscardFrame_4
        MOV       DPTR,#rxUnreadLen
        MOVX      A,@DPTR
        MOV       DPTR,#rxNextLen
        MOVX      @DPTR,A
        SJMP      ??rxDiscardFrame_5
??rxDiscardFrame_4:
        MOV       DPTR,#rxNextLen
        MOV       A,#0x10
        MOVX      @DPTR,A
// 1295     MAC_RADIO_SET_RX_THRESHOLD(rxNextLen);
??rxDiscardFrame_5:
        MOV       DPTR,#rxNextLen
        MOVX      A,@DPTR
        ADD       A,#-0x1
        MOV       DPTR,#0x6194
        MOVX      @DPTR,A
// 1296     pFuncRxState = &rxDiscardIsr;
        MOV       DPTR,#pFuncRxState
        MOV       A,#`??rxDiscardIsr::?relay` & 0xff
        MOVX      @DPTR,A
        INC       DPTR
        MOV       A,#(`??rxDiscardIsr::?relay` >> 8) & 0xff
        MOVX      @DPTR,A
// 1297   }
// 1298 }
??rxDiscardFrame_3:
        POP       DPH
          CFI DPH0 SameValue
          CFI CFA_SP SP+-4
        POP       DPL
          CFI DPL0 SameValue
          CFI CFA_SP SP+-3
        LJMP      ?BRET
          CFI EndBlock cfiBlock14
// 1299 
// 1300 
// 1301 /*=================================================================================================
// 1302  * @fn          rxDiscardIsr
// 1303  *
// 1304  * @brief       Receive ISR state for discarding a packet.
// 1305  *
// 1306  * @param       none
// 1307  *
// 1308  * @return      none
// 1309  *=================================================================================================
// 1310  */

        RSEG BANKED_CODE:HUGECODE:NOROOT(0)
// 1311 static void rxDiscardIsr(void)
rxDiscardIsr:
          CFI Block cfiBlock15 Using cfiCommon0
          CFI Function rxDiscardIsr
        CODE
// 1312 {
        FUNCALL rxDiscardIsr, macMemReadRxFifo
        LOCFRAME ISTACK, 2, STACK
        LOCFRAME PSTACK, 0, STACK
        LOCFRAME XSTACK, 16, STACK
        LOCFRAME IOVERLAY, 0, STATIC
        LOCFRAME DOVERLAY, 0, STATIC
        ARGFRAME ISTACK, 2, STACK
        ARGFRAME PSTACK, 0, STACK
        ARGFRAME XSTACK, 16, STACK
        ARGFRAME IOVERLAY, 0, STATIC
        ARGFRAME DOVERLAY, 0, STATIC
        FUNCALL rxDiscardIsr, rxDone
        LOCFRAME ISTACK, 2, STACK
        LOCFRAME PSTACK, 0, STACK
        LOCFRAME XSTACK, 16, STACK
        LOCFRAME IOVERLAY, 0, STATIC
        LOCFRAME DOVERLAY, 0, STATIC
        ARGFRAME ISTACK, 2, STACK
        ARGFRAME PSTACK, 0, STACK
        ARGFRAME XSTACK, 16, STACK
        ARGFRAME IOVERLAY, 0, STATIC
        ARGFRAME DOVERLAY, 0, STATIC
        PUSH      DPL
          CFI DPL0 Frame(CFA_SP, 4)
          CFI CFA_SP SP+-4
        PUSH      DPH
          CFI DPH0 Frame(CFA_SP, 5)
          CFI CFA_SP SP+-5
        ; Saved register size: 2
        ; Auto size: 16
        MOV       A,#-0x10
        LCALL     ?ALLOC_XSTACK8
          CFI CFA_XSP16 add(XSP16, 16)
// 1313   uint8 buf[MAX_PAYLOAD_BYTES_READ_PER_INTERRUPT];
// 1314 
// 1315   MAC_RADIO_READ_RX_FIFO(buf, rxNextLen);
        ; Setup parameters for call to function macMemReadRxFifo
        MOV       DPTR,#rxNextLen
        MOVX      A,@DPTR
        MOV       R1,A
        MOV       R2,?XSP + 0
        MOV       R3,?XSP + 1
        LCALL     `??macMemReadRxFifo::?relay`; Banked call to: macMemReadRxFifo
// 1316   rxUnreadLen -= rxNextLen;
        MOV       DPTR,#rxNextLen
        MOVX      A,@DPTR
        MOV       R0,A
        MOV       DPTR,#rxUnreadLen
        MOVX      A,@DPTR
        CLR       C
        SUBB      A,R0
        MOVX      @DPTR,A
// 1317 
// 1318   /* read out and discard bytes until all bytes of packet are disposed of */
// 1319   if (rxUnreadLen != 0)
        MOV       DPTR,#rxUnreadLen
        MOVX      A,@DPTR
        JZ        ??rxDiscardIsr_0
// 1320   {
// 1321     if (rxUnreadLen < MAX_PAYLOAD_BYTES_READ_PER_INTERRUPT)
        MOV       DPTR,#rxUnreadLen
        MOVX      A,@DPTR
        CLR       C
        SUBB      A,#0x10
        JNC       ??rxDiscardIsr_1
// 1322     {
// 1323       rxNextLen = rxUnreadLen;
        MOV       DPTR,#rxUnreadLen
        MOVX      A,@DPTR
        MOV       DPTR,#rxNextLen
        MOVX      @DPTR,A
// 1324       MAC_RADIO_SET_RX_THRESHOLD(rxNextLen);
        MOV       DPTR,#rxNextLen
        MOVX      A,@DPTR
        ADD       A,#-0x1
        MOV       DPTR,#0x6194
        MOVX      @DPTR,A
        SJMP      ??rxDiscardIsr_1
// 1325     }
// 1326   }
// 1327   else
// 1328   {
// 1329     /* reset threshold level, reset receive state, and complete receive logic */
// 1330     MAC_RADIO_SET_RX_THRESHOLD(RX_THRESHOLD_START_LEN);
??rxDiscardIsr_0:
        MOV       DPTR,#0x6194
        MOV       A,#0x5
        MOVX      @DPTR,A
// 1331     pFuncRxState = &rxStartIsr;
        MOV       DPTR,#pFuncRxState
        MOV       A,#`??rxStartIsr::?relay` & 0xff
        MOVX      @DPTR,A
        INC       DPTR
        MOV       A,#(`??rxStartIsr::?relay` >> 8) & 0xff
        MOVX      @DPTR,A
// 1332     rxDone();
        ; Setup parameters for call to function rxDone
        LCALL     `??rxDone::?relay`; Banked call to: rxDone
// 1333   }
// 1334 }
??rxDiscardIsr_1:
        MOV       A,#0x10
        LCALL     ?DEALLOC_XSTACK8
          CFI CFA_XSP16 XSP16+0
        POP       DPH
          CFI DPH0 SameValue
          CFI CFA_SP SP+-4
        POP       DPL
          CFI DPL0 SameValue
          CFI CFA_SP SP+-3
        LJMP      ?BRET
          CFI EndBlock cfiBlock15
// 1335 
// 1336 
// 1337 /**************************************************************************************************
// 1338  * @fn          macRxFifoOverflowIsr
// 1339  *
// 1340  * @brief       This interrupt service routine is called when RX FIFO overflow. Note that this
// 1341  *              exception does not retrieve the good frames that are trapped in the RX FIFO.
// 1342  *              It simply halts and cleanup the RX.
// 1343  *
// 1344  * @param       none
// 1345  *
// 1346  * @return      none
// 1347  **************************************************************************************************
// 1348  */

        RSEG BANKED_CODE:HUGECODE:NOROOT(0)
// 1349 MAC_INTERNAL_API void macRxFifoOverflowIsr(void)
macRxFifoOverflowIsr:
          CFI Block cfiBlock16 Using cfiCommon0
          CFI Function macRxFifoOverflowIsr
        CODE
// 1350 {
        FUNCALL macRxFifoOverflowIsr, macRxHaltCleanup
        LOCFRAME ISTACK, 2, STACK
        LOCFRAME PSTACK, 0, STACK
        LOCFRAME XSTACK, 0, STACK
        LOCFRAME IOVERLAY, 0, STATIC
        LOCFRAME DOVERLAY, 0, STATIC
        ARGFRAME ISTACK, 2, STACK
        ARGFRAME PSTACK, 0, STACK
        ARGFRAME XSTACK, 0, STACK
        ARGFRAME IOVERLAY, 0, STATIC
        ARGFRAME DOVERLAY, 0, STATIC
        PUSH      DPL
          CFI DPL0 Frame(CFA_SP, 4)
          CFI CFA_SP SP+-4
        PUSH      DPH
          CFI DPH0 Frame(CFA_SP, 5)
          CFI CFA_SP SP+-5
        ; Saved register size: 2
        ; Auto size: 0
// 1351   rxFifoOverflowCount++; /* This flag is used for debug purpose only */
        MOV       DPTR,#rxFifoOverflowCount
        MOVX      A,@DPTR
        ADD       A,#0x1
        MOVX      @DPTR,A
// 1352   macRxHaltCleanup();
        ; Setup parameters for call to function macRxHaltCleanup
        LCALL     `??macRxHaltCleanup::?relay`; Banked call to: macRxHaltCleanup
// 1353 }
        POP       DPH
          CFI DPH0 SameValue
          CFI CFA_SP SP+-4
        POP       DPL
          CFI DPL0 SameValue
          CFI CFA_SP SP+-3
        LJMP      ?BRET
          CFI EndBlock cfiBlock16
// 1354 
// 1355 
// 1356 /**************************************************************************************************
// 1357  * @fn          macRxPromiscuousMode
// 1358  *
// 1359  * @brief       Sets promiscuous mode - enabling or disabling it.
// 1360  *
// 1361  * @param       none
// 1362  *
// 1363  * @return      none
// 1364  **************************************************************************************************
// 1365  */

        RSEG BANKED_CODE:HUGECODE:NOROOT(0)
// 1366 MAC_INTERNAL_API void macRxPromiscuousMode(uint8 mode)
macRxPromiscuousMode:
          CFI Block cfiBlock17 Using cfiCommon0
          CFI Function macRxPromiscuousMode
        CODE
// 1367 {
        FUNCALL macRxPromiscuousMode, halAssertHandler
        LOCFRAME ISTACK, 0, STACK
        LOCFRAME PSTACK, 0, STACK
        LOCFRAME XSTACK, 9, STACK
        LOCFRAME IOVERLAY, 0, STATIC
        LOCFRAME DOVERLAY, 0, STATIC
        ARGFRAME ISTACK, 0, STACK
        ARGFRAME PSTACK, 0, STACK
        ARGFRAME XSTACK, 9, STACK
        ARGFRAME IOVERLAY, 0, STATIC
        ARGFRAME DOVERLAY, 0, STATIC
        MOV       A,#-0x9
        LCALL     ?BANKED_ENTER_XDATA
          CFI DPH0 load(1, XDATA, add(CFA_XSP16, literal(-1)))
          CFI DPL0 load(1, XDATA, add(CFA_XSP16, literal(-2)))
          CFI ?BRET_EXT load(1, XDATA, add(CFA_XSP16, literal(-3)))
          CFI ?RET_HIGH load(1, XDATA, add(CFA_XSP16, literal(-4)))
          CFI ?RET_LOW load(1, XDATA, add(CFA_XSP16, literal(-5)))
          CFI R7 load(1, XDATA, add(CFA_XSP16, literal(-6)))
          CFI V0 load(1, XDATA, add(CFA_XSP16, literal(-7)))
          CFI VB load(1, XDATA, add(CFA_XSP16, literal(-8)))
          CFI R6 load(1, XDATA, add(CFA_XSP16, literal(-9)))
          CFI CFA_SP SP+0
          CFI CFA_XSP16 add(XSP16, 9)
        ; Saved register size: 9
        ; Auto size: 0
        MOV       A,R1
        MOV       R6,A
// 1368   rxPromiscuousMode = mode;
        MOV       A,R6
        MOV       DPTR,#rxPromiscuousMode
        MOVX      @DPTR,A
// 1369 
// 1370   if (rxPromiscuousMode == MAC_PROMISCUOUS_MODE_OFF)
        MOV       DPTR,#rxPromiscuousMode
        MOVX      A,@DPTR
        JNZ       ??macRxPromiscuousMode_0
// 1371   {
// 1372     MAC_RADIO_TURN_ON_RX_FRAME_FILTERING();
        MOV       DPTR,#0x6180
        MOV       A,#0x0
        MOVX      @DPTR,A
        MOV       DPTR,#0x6180
        MOVX      A,@DPTR
        ORL       A,#0x9
        MOVX      @DPTR,A
        SJMP      ??macRxPromiscuousMode_1
// 1373   }
// 1374   else
// 1375   {
// 1376     MAC_ASSERT((mode == MAC_PROMISCUOUS_MODE_WITH_BAD_CRC)   ||
// 1377                (mode == MAC_PROMISCUOUS_MODE_COMPLIANT));  /* invalid mode */
??macRxPromiscuousMode_0:
        MOV       A,#0x2
        XRL       A,R6
        JZ        ??macRxPromiscuousMode_2
        MOV       A,#0x1
        XRL       A,R6
        JZ        ??macRxPromiscuousMode_2
        ; Setup parameters for call to function halAssertHandler
        LCALL     `??halAssertHandler::?relay`; Banked call to: halAssertHandler
// 1378 
// 1379     MAC_RADIO_TURN_OFF_RX_FRAME_FILTERING();
??macRxPromiscuousMode_2:
        MOV       DPTR,#0x6180
        MOVX      A,@DPTR
        CLR       0xE0 /* A   */.0
        MOVX      @DPTR,A
// 1380   }
// 1381 }
??macRxPromiscuousMode_1:
        MOV       R7,#0x1
        LJMP      ?BANKED_LEAVE_XDATA
          CFI EndBlock cfiBlock17

        RSEG BANK_RELAYS:CODE:REORDER:NOROOT(0)
`??macRxInit::?relay`:
        CODE
        LCALL   ?BDISPATCH
        DATA24
        DC24    macRxInit

        RSEG BANK_RELAYS:CODE:REORDER:NOROOT(0)
`??macRxRadioPowerUpInit::?relay`:
        CODE
        LCALL   ?BDISPATCH
        DATA24
        DC24    macRxRadioPowerUpInit

        RSEG BANK_RELAYS:CODE:REORDER:NOROOT(0)
`??macRxTxReset::?relay`:
        CODE
        LCALL   ?BDISPATCH
        DATA24
        DC24    macRxTxReset

        RSEG BANK_RELAYS:CODE:REORDER:NOROOT(0)
`??macRxHaltCleanup::?relay`:
        CODE
        LCALL   ?BDISPATCH
        DATA24
        DC24    macRxHaltCleanup

        RSEG BANK_RELAYS:CODE:REORDER:NOROOT(0)
`??rxHaltCleanupFinalStep::?relay`:
        CODE
        LCALL   ?BDISPATCH
        DATA24
        DC24    rxHaltCleanupFinalStep

        RSEG BANK_RELAYS:CODE:REORDER:NOROOT(0)
`??macRxThresholdIsr::?relay`:
        CODE
        LCALL   ?BDISPATCH
        DATA24
        DC24    macRxThresholdIsr

        RSEG BANK_RELAYS:CODE:REORDER:NOROOT(0)
`??rxStartIsr::?relay`:
        CODE
        LCALL   ?BDISPATCH
        DATA24
        DC24    rxStartIsr

        RSEG BANK_RELAYS:CODE:REORDER:NOROOT(0)
`??rxAddrIsr::?relay`:
        CODE
        LCALL   ?BDISPATCH
        DATA24
        DC24    rxAddrIsr

        RSEG BANK_RELAYS:CODE:REORDER:NOROOT(0)
`??rxPrepPayload::?relay`:
        CODE
        LCALL   ?BDISPATCH
        DATA24
        DC24    rxPrepPayload

        RSEG BANK_RELAYS:CODE:REORDER:NOROOT(0)
`??rxPayloadIsr::?relay`:
        CODE
        LCALL   ?BDISPATCH
        DATA24
        DC24    rxPayloadIsr

        RSEG BANK_RELAYS:CODE:REORDER:NOROOT(0)
`??rxFcsIsr::?relay`:
        CODE
        LCALL   ?BDISPATCH
        DATA24
        DC24    rxFcsIsr

        RSEG BANK_RELAYS:CODE:REORDER:NOROOT(0)
`??rxDone::?relay`:
        CODE
        LCALL   ?BDISPATCH
        DATA24
        DC24    rxDone

        RSEG BANK_RELAYS:CODE:REORDER:NOROOT(0)
`??macRxAckTxDoneCallback::?relay`:
        CODE
        LCALL   ?BDISPATCH
        DATA24
        DC24    macRxAckTxDoneCallback

        RSEG BANK_RELAYS:CODE:REORDER:NOROOT(0)
`??rxPostRxUpdates::?relay`:
        CODE
        LCALL   ?BDISPATCH
        DATA24
        DC24    rxPostRxUpdates

        RSEG BANK_RELAYS:CODE:REORDER:NOROOT(0)
`??rxDiscardFrame::?relay`:
        CODE
        LCALL   ?BDISPATCH
        DATA24
        DC24    rxDiscardFrame

        RSEG BANK_RELAYS:CODE:REORDER:NOROOT(0)
`??rxDiscardIsr::?relay`:
        CODE
        LCALL   ?BDISPATCH
        DATA24
        DC24    rxDiscardIsr

        RSEG BANK_RELAYS:CODE:REORDER:NOROOT(0)
`??macRxFifoOverflowIsr::?relay`:
        CODE
        LCALL   ?BDISPATCH
        DATA24
        DC24    macRxFifoOverflowIsr

        RSEG BANK_RELAYS:CODE:REORDER:NOROOT(0)
`??macRxPromiscuousMode::?relay`:
        CODE
        LCALL   ?BDISPATCH
        DATA24
        DC24    macRxPromiscuousMode

        END
// 1382 
// 1383 
// 1384 /**************************************************************************************************
// 1385  *                                  Compile Time Integrity Checks
// 1386  **************************************************************************************************
// 1387  */
// 1388 
// 1389 /* check for changes to the spec that would affect the source code */
// 1390 #if ((MAC_A_MAX_PHY_PACKET_SIZE   !=  0x7F )   ||  \ 
// 1391      (MAC_FCF_FIELD_LEN           !=  2    )   ||  \ 
// 1392      (MAC_FCF_FRAME_TYPE_POS      !=  0    )   ||  \ 
// 1393      (MAC_FCF_FRAME_PENDING_POS   !=  4    )   ||  \ 
// 1394      (MAC_FCF_ACK_REQUEST_POS     !=  5    )   ||  \ 
// 1395      (MAC_FCF_INTRA_PAN_POS       !=  6    )   ||  \ 
// 1396      (MAC_FCF_DST_ADDR_MODE_POS   !=  10   )   ||  \ 
// 1397      (MAC_FCF_FRAME_VERSION_POS   !=  12   )   ||  \ 
// 1398      (MAC_FCF_SRC_ADDR_MODE_POS   !=  14   ))
// 1399 #error "ERROR!  Change to the spec that requires modification of source code."
// 1400 #endif
// 1401 
// 1402 /* check for changes to the internal flags format */
// 1403 #if ((MAC_RX_FLAG_VERSION      !=  0x03)  ||  \ 
// 1404      (MAC_RX_FLAG_ACK_PENDING  !=  0x04)  ||  \ 
// 1405      (MAC_RX_FLAG_SECURITY     !=  0x08)  ||  \ 
// 1406      (MAC_RX_FLAG_PENDING      !=  0x10)  ||  \ 
// 1407      (MAC_RX_FLAG_ACK_REQUEST  !=  0x20)  ||  \ 
// 1408      (MAC_RX_FLAG_INTRA_PAN    !=  0x40))
// 1409 #error "ERROR!  Change to the internal RX flags format.  Requires modification of source code."
// 1410 #endif
// 1411 
// 1412 /* validate CRC OK bit optimization */
// 1413 #if (MAC_RX_FLAG_CRC_OK != PROPRIETARY_FCS_CRC_OK_BIT)
// 1414 #error "ERROR!  Optimization relies on these bits having the same position."
// 1415 #endif
// 1416 
// 1417 #if (MAC_RX_ACTIVE_NO_ACTIVITY != 0x00)
// 1418 #error "ERROR! Zero is reserved value of macRxActive. Allows boolean operations, e.g !macRxActive."
// 1419 #endif
// 1420 
// 1421 #if (MAC_PROMISCUOUS_MODE_OFF != 0x00)
// 1422 #error "ERROR! Zero is reserved value of rxPromiscuousMode. Allows boolean operations, e.g !rxPromiscuousMode."
// 1423 #endif
// 1424 
// 1425 
// 1426 /**************************************************************************************************
// 1427 */
// 
// 3 112 bytes in segment BANKED_CODE
//   108 bytes in segment BANK_RELAYS
//     4 bytes in segment CODE_C
//     5 bytes in segment SFR_AN
//    19 bytes in segment XDATA_Z
// 
//   112 bytes of CODE     memory
//     0 bytes of DATA     memory (+ 5 bytes shared)
// 3 112 bytes of HUGECODE memory
//    19 bytes of XDATA    memory
//
//Errors: none
//Warnings: none
