///////////////////////////////////////////////////////////////////////////////
//
// IAR C/C++ Compiler V10.30.1.6000 for 8051              30/Jul/2020  15:22:18
// Copyright 2004-2018 IAR Systems AB.
// PC-locked license - IAR Embedded Workbench for 8051
//
//    Core               =  plain
//    Code model         =  banked
//    Data model         =  large
//    Calling convention =  xdata reentrant
//    Constant location  =  data_rom
//    Dptr setup         =  1,16
//                          
//    Source file        =  
//        D:\AA\Z-Stack 3.0.2\Projects\zstack\ZMain\TI2530DB\OnBoard.c
//    Command line       =  
//        -f C:\Users\sunli\AppData\Local\Temp\EW2A47.tmp ("D:\AA\Z-Stack
//        3.0.2\Projects\zstack\ZMain\TI2530DB\OnBoard.c" -D SECURE=1 -D
//        TC_LINKKEY_JOIN -D NV_INIT -D NV_RESTORE -D xPOWER_SAVING -D
//        NWK_AUTO_POLL -D xZTOOL_P1 -D xMT_TASK -D xMT_APP_FUNC -D
//        xMT_SYS_FUNC -D xMT_ZDO_FUNC -D xMT_ZDO_MGMT -D xMT_APP_CNF_FUNC -D
//        LCD_SUPPORTED=DEBUG -D MULTICAST_ENABLED=FALSE -D ZCL_READ -D
//        ZCL_DISCOVER -D ZCL_WRITE -D ZCL_BASIC -D ZCL_IDENTIFY -D ZCL_ON_OFF
//        -D ZCL_GROUPS -D BDB_TL_INITIATOR -D INTER_PAN -lC "D:\AA\Z-Stack
//        3.0.2\Projects\zstack\HomeAutomation\SampleSwitch\CC2530DB\EndDeviceEB\List"
//        -lA "D:\AA\Z-Stack
//        3.0.2\Projects\zstack\HomeAutomation\SampleSwitch\CC2530DB\EndDeviceEB\List"
//        --diag_suppress Pe001,Pa010 -o "D:\AA\Z-Stack
//        3.0.2\Projects\zstack\HomeAutomation\SampleSwitch\CC2530DB\EndDeviceEB\Obj"
//        -e --debug --core=plain --dptr=16,1 --data_model=large
//        --code_model=banked --calling_convention=xdata_reentrant
//        --place_constants=data_rom --nr_virtual_regs 16 -f "D:\AA\Z-Stack
//        3.0.2\Projects\zstack\HomeAutomation\SampleSwitch\CC2530DB\..\..\..\Tools\CC2530DB\f8wEndev.cfg"
//        (-DCPU32MHZ -DROOT=__near_func -DMAC_CFG_TX_DATA_MAX=3
//        -DMAC_CFG_TX_MAX=6 -DMAC_CFG_RX_MAX=3) -f "D:\AA\Z-Stack
//        3.0.2\Projects\zstack\HomeAutomation\SampleSwitch\CC2530DB\..\..\..\Tools\CC2530DB\f8wConfig.cfg"
//        (-DZIGBEEPRO -DSECURE=1 -DZG_SECURE_DYNAMIC=0 -DREFLECTOR
//        -DDEFAULT_CHANLIST=0x00000800 -DZDAPP_CONFIG_PAN_ID=0xFFFF
//        -DNWK_START_DELAY=100 -DEXTENDED_JOINING_RANDOM_MASK=0x007F
//        -DBEACON_REQUEST_DELAY=100 -DBEACON_REQ_DELAY_MASK=0x00FF
//        -DLINK_STATUS_JITTER_MASK=0x007F -DROUTE_EXPIRY_TIME=30
//        -DAPSC_ACK_WAIT_DURATION_POLLED=3000 -DNWK_INDIRECT_MSG_TIMEOUT=7
//        -DMAX_RREQ_ENTRIES=8 -DAPSC_MAX_FRAME_RETRIES=3
//        -DNWK_MAX_DATA_RETRIES=2 -DMAX_POLL_FAILURE_RETRIES=2 -DMAX_BCAST=9
//        -DAPS_MAX_GROUPS=16 -DMAX_RTG_ENTRIES=40 -DNWK_MAX_BINDING_ENTRIES=4
//        -DMAX_BINDING_CLUSTER_IDS=4 -DDEFAULT_KEY={0}
//        -DMAC_MAX_FRAME_SIZE=116 -DZDNWKMGR_MIN_TRANSMISSIONS=20
//        "-DCONST=const __code" -DGENERIC=__generic -DRFD_RCVC_ALWAYS_ON=FALSE
//        -DPOLL_RATE=1000 -DQUEUED_POLL_RATE=100 -DRESPONSE_POLL_RATE=100
//        -DREJOIN_POLL_RATE=440 -DREJOIN_BACKOFF=900000 -DREJOIN_SCAN=900000
//        -DENABLE_LED4_DISABLE_S1) -f "D:\AA\Z-Stack
//        3.0.2\Projects\zstack\HomeAutomation\SampleSwitch\CC2530DB\..\..\..\Tools\CC2530DB\f8wZCL.cfg"
//        -I "D:\AA\Z-Stack
//        3.0.2\Projects\zstack\HomeAutomation\SampleSwitch\CC2530DB\" -I
//        "D:\AA\Z-Stack
//        3.0.2\Projects\zstack\HomeAutomation\SampleSwitch\CC2530DB\..\Source\"
//        -I "D:\AA\Z-Stack
//        3.0.2\Projects\zstack\HomeAutomation\SampleSwitch\CC2530DB\..\..\Source\"
//        -I "D:\AA\Z-Stack
//        3.0.2\Projects\zstack\HomeAutomation\SampleSwitch\CC2530DB\..\..\..\ZMain\TI2530DB\"
//        -I "D:\AA\Z-Stack
//        3.0.2\Projects\zstack\HomeAutomation\SampleSwitch\CC2530DB\..\..\..\..\..\Components\hal\include\"
//        -I "D:\AA\Z-Stack
//        3.0.2\Projects\zstack\HomeAutomation\SampleSwitch\CC2530DB\..\..\..\..\..\Components\hal\target\CC2530EB\"
//        -I "D:\AA\Z-Stack
//        3.0.2\Projects\zstack\HomeAutomation\SampleSwitch\CC2530DB\..\..\..\..\..\Components\mac\include\"
//        -I "D:\AA\Z-Stack
//        3.0.2\Projects\zstack\HomeAutomation\SampleSwitch\CC2530DB\..\..\..\..\..\Components\mac\high_level\"
//        -I "D:\AA\Z-Stack
//        3.0.2\Projects\zstack\HomeAutomation\SampleSwitch\CC2530DB\..\..\..\..\..\Components\mac\low_level\srf04\"
//        -I "D:\AA\Z-Stack
//        3.0.2\Projects\zstack\HomeAutomation\SampleSwitch\CC2530DB\..\..\..\..\..\Components\mac\low_level\srf04\single_chip\"
//        -I "D:\AA\Z-Stack
//        3.0.2\Projects\zstack\HomeAutomation\SampleSwitch\CC2530DB\..\..\..\..\..\Components\mt\"
//        -I "D:\AA\Z-Stack
//        3.0.2\Projects\zstack\HomeAutomation\SampleSwitch\CC2530DB\..\..\..\..\..\Components\osal\include\"
//        -I "D:\AA\Z-Stack
//        3.0.2\Projects\zstack\HomeAutomation\SampleSwitch\CC2530DB\..\..\..\..\..\Components\services\saddr\"
//        -I "D:\AA\Z-Stack
//        3.0.2\Projects\zstack\HomeAutomation\SampleSwitch\CC2530DB\..\..\..\..\..\Components\services\sdata\"
//        -I "D:\AA\Z-Stack
//        3.0.2\Projects\zstack\HomeAutomation\SampleSwitch\CC2530DB\..\..\..\..\..\Components\stack\af\"
//        -I "D:\AA\Z-Stack
//        3.0.2\Projects\zstack\HomeAutomation\SampleSwitch\CC2530DB\..\..\..\..\..\Components\stack\bdb\"
//        -I "D:\AA\Z-Stack
//        3.0.2\Projects\zstack\HomeAutomation\SampleSwitch\CC2530DB\..\..\..\..\..\Components\stack\gp\"
//        -I "D:\AA\Z-Stack
//        3.0.2\Projects\zstack\HomeAutomation\SampleSwitch\CC2530DB\..\..\..\..\..\Components\stack\nwk\"
//        -I "D:\AA\Z-Stack
//        3.0.2\Projects\zstack\HomeAutomation\SampleSwitch\CC2530DB\..\..\..\..\..\Components\stack\sapi\"
//        -I "D:\AA\Z-Stack
//        3.0.2\Projects\zstack\HomeAutomation\SampleSwitch\CC2530DB\..\..\..\..\..\Components\stack\sec\"
//        -I "D:\AA\Z-Stack
//        3.0.2\Projects\zstack\HomeAutomation\SampleSwitch\CC2530DB\..\..\..\..\..\Components\stack\sys\"
//        -I "D:\AA\Z-Stack
//        3.0.2\Projects\zstack\HomeAutomation\SampleSwitch\CC2530DB\..\..\..\..\..\Components\stack\zcl\"
//        -I "D:\AA\Z-Stack
//        3.0.2\Projects\zstack\HomeAutomation\SampleSwitch\CC2530DB\..\..\..\..\..\Components\stack\zdo\"
//        -I "D:\AA\Z-Stack
//        3.0.2\Projects\zstack\HomeAutomation\SampleSwitch\CC2530DB\..\..\..\..\..\Components\zmac\"
//        -I "D:\AA\Z-Stack
//        3.0.2\Projects\zstack\HomeAutomation\SampleSwitch\CC2530DB\..\..\..\..\..\Components\zmac\f8w\"
//        -On --require_prototypes --no_cse --no_unroll --no_inline
//        --no_code_motion --no_tbaa --no_cross_call)
//    Locale             =  Chinese (Simplified)_CHN.936
//    List file          =  
//        D:\AA\Z-Stack
//        3.0.2\Projects\zstack\HomeAutomation\SampleSwitch\CC2530DB\EndDeviceEB\List\OnBoard.s51
//
///////////////////////////////////////////////////////////////////////////////

        NAME OnBoard

        RTMODEL "__SystemLibrary", "CLib"
        RTMODEL "__calling_convention", "xdata_reentrant"
        RTMODEL "__code_model", "banked"
        RTMODEL "__core", "plain"
        RTMODEL "__data_model", "large"
        RTMODEL "__dptr_size", "16"
        RTMODEL "__extended_stack", "disabled"
        RTMODEL "__location_for_constants", "data"
        RTMODEL "__number_of_dptrs", "1"
        RTMODEL "__register_banks", "*"
        RTMODEL "__rt_version", "1"

        RSEG DOVERLAY:DATA:NOROOT(0)
        RSEG IOVERLAY:IDATA:NOROOT(0)
        RSEG ISTACK:IDATA:NOROOT(0)
        RSEG PSTACK:XDATA:NOROOT(0)
        RSEG XSTACK:DATA:REORDER:NOROOT(0)

        EXTERN ?V0
        EXTERN ?V1
        EXTERN ?V2
        EXTERN ?V3
        EXTERN ?V4
        EXTERN ?V6
        EXTERN ?V7
        EXTERN ?ALLOC_XSTACK8
        EXTERN ?BANKED_ENTER_XDATA
        EXTERN ?BANKED_LEAVE_XDATA
        EXTERN ?BDISPATCH
        EXTERN ?BRET
        EXTERN ?CALL_IND
        EXTERN ?DEALLOC_XSTACK8
        EXTERN ?US_DIV_MOD
        EXTERN ?XSP
        EXTERN __INIT_XDATA_I
        EXTERN __INIT_XDATA_Z

        PUBLIC `??BigLight_Off::?relay`
        FUNCTION `??BigLight_Off::?relay`,0203H
        PUBLIC `??BigLight_On::?relay`
        FUNCTION `??BigLight_On::?relay`,0203H
        PUBLIC `??BuzzerControl::?relay`
        FUNCTION `??BuzzerControl::?relay`,0203H
        FUNCTION `??ChkReset::?relay`,0203H
        PUBLIC `??Dimmer::?relay`
        FUNCTION `??Dimmer::?relay`,0203H
        PUBLIC `??GetUserDipSw::?relay`
        FUNCTION `??GetUserDipSw::?relay`,0203H
        PUBLIC `??InitBoard::?relay`
        FUNCTION `??InitBoard::?relay`,0203H
        PUBLIC `??OnBoard_CheckVoltage::?relay`
        FUNCTION `??OnBoard_CheckVoltage::?relay`,0203H
        PUBLIC `??OnBoard_KeyCallback::?relay`
        FUNCTION `??OnBoard_KeyCallback::?relay`,0203H
        PUBLIC `??OnBoard_SendKeys::?relay`
        FUNCTION `??OnBoard_SendKeys::?relay`,0203H
        PUBLIC `??OnBoard_stack_used::?relay`
        FUNCTION `??OnBoard_stack_used::?relay`,0203H
        PUBLIC `??Onboard_rand::?relay`
        FUNCTION `??Onboard_rand::?relay`,0203H
        PUBLIC `??Onboard_wait::?relay`
        FUNCTION `??Onboard_wait::?relay`,0203H
        PUBLIC `??RegisterForKeys::?relay`
        FUNCTION `??RegisterForKeys::?relay`,0203H
        PUBLIC `??RegisterSW2ForKeys::?relay`
        FUNCTION `??RegisterSW2ForKeys::?relay`,0203H
        PUBLIC `??RegisterSW3ForKeys::?relay`
        FUNCTION `??RegisterSW3ForKeys::?relay`,0203H
        PUBLIC `??RegisterVoltageWarningCB::?relay`
        FUNCTION `??RegisterVoltageWarningCB::?relay`,0203H
        PUBLIC `??_itoa::?relay`
        FUNCTION `??_itoa::?relay`,0203H
        PUBLIC BigLight_Off
        FUNCTION BigLight_Off,0203H
        ARGFRAME XSTACK, 0, STACK
        PUBLIC BigLight_On
        FUNCTION BigLight_On,0203H
        ARGFRAME XSTACK, 0, STACK
        PUBLIC BuzzerControl
        FUNCTION BuzzerControl,0203H
        ARGFRAME XSTACK, 0, STACK
        FUNCTION ChkReset,021203H
        ARGFRAME XSTACK, 9, STACK
        ARGFRAME IOVERLAY, 0, STATIC
        ARGFRAME DOVERLAY, 0, STATIC
        LOCFRAME XSTACK, 9, STACK
        PUBWEAK DMAARM
        PUBLIC Dimmer
        FUNCTION Dimmer,0203H
        ARGFRAME XSTACK, 0, STACK
        PUBLIC GetUserDipSw
        FUNCTION GetUserDipSw,0203H
        ARGFRAME XSTACK, 0, STACK
        PUBLIC InitBoard
        FUNCTION InitBoard,021203H
        ARGFRAME XSTACK, 0, STACK
        LOCFRAME XSTACK, 9, STACK
        PUBLIC OnBoard_CheckVoltage
        FUNCTION OnBoard_CheckVoltage,021203H
        ARGFRAME XSTACK, 0, STACK
        LOCFRAME XSTACK, 9, STACK
        PUBLIC OnBoard_KeyCallback
        FUNCTION OnBoard_KeyCallback,0a1603H
        ARGFRAME XSTACK, 0, STACK
        LOCFRAME XSTACK, 9, STACK
        PUBLIC OnBoard_SendKeys
        FUNCTION OnBoard_SendKeys,0a1203H
        ARGFRAME XSTACK, 9, STACK
        ARGFRAME IOVERLAY, 0, STATIC
        ARGFRAME DOVERLAY, 0, STATIC
        LOCFRAME ISTACK, 1, STACK
        LOCFRAME XSTACK, 12, STACK
        PUBLIC OnBoard_stack_used
        FUNCTION OnBoard_stack_used,0203H
        ARGFRAME XSTACK, 0, STACK
        LOCFRAME ISTACK, 2, STACK
        PUBLIC Onboard_rand
        FUNCTION Onboard_rand,021203H
        ARGFRAME XSTACK, 0, STACK
        LOCFRAME ISTACK, 2, STACK
        PUBLIC Onboard_soft_reset
        FUNCTION Onboard_soft_reset,080203H
        ARGFRAME XSTACK, 0, STACK
        PUBLIC Onboard_wait
        FUNCTION Onboard_wait,080203H
        ARGFRAME XSTACK, 0, STACK
        PUBLIC RegisterForKeys
        FUNCTION RegisterForKeys,0203H
        ARGFRAME XSTACK, 0, STACK
        LOCFRAME ISTACK, 2, STACK
        PUBLIC RegisterSW2ForKeys
        FUNCTION RegisterSW2ForKeys,0203H
        ARGFRAME XSTACK, 0, STACK
        LOCFRAME ISTACK, 2, STACK
        PUBLIC RegisterSW3ForKeys
        FUNCTION RegisterSW3ForKeys,0203H
        ARGFRAME XSTACK, 0, STACK
        LOCFRAME ISTACK, 2, STACK
        PUBLIC RegisterVoltageWarningCB
        FUNCTION RegisterVoltageWarningCB,0203H
        ARGFRAME XSTACK, 0, STACK
        LOCFRAME ISTACK, 2, STACK
        PUBWEAK SLEEPSTA
        PUBWEAK _A_IEN0
        PUBLIC _itoa
        FUNCTION _itoa,080203H
        ARGFRAME XSTACK, 0, STACK
        LOCFRAME ISTACK, 1, STACK
        LOCFRAME XSTACK, 21, STACK
        PUBLIC _lockBits
        PUBLIC _nvIEEE
        PUBLIC _reserved
        PUBLIC aExtendedAddress
        
          CFI Names cfiNames0
          CFI StackFrame CFA_SP SP IDATA
          CFI StackFrame CFA_PSP16 PSP16 XDATA
          CFI StackFrame CFA_XSP16 XSP16 XDATA
          CFI StaticOverlayFrame CFA_IOVERLAY IOVERLAY
          CFI StaticOverlayFrame CFA_DOVERLAY DOVERLAY
          CFI Resource `PSW.CY`:1, `B.BR0`:1, `B.BR1`:1, `B.BR2`:1, `B.BR3`:1
          CFI Resource `B.BR4`:1, `B.BR5`:1, `B.BR6`:1, `B.BR7`:1, `VB.BR8`:1
          CFI Resource `VB.BR9`:1, `VB.BR10`:1, `VB.BR11`:1, `VB.BR12`:1
          CFI Resource `VB.BR13`:1, `VB.BR14`:1, `VB.BR15`:1, VB:8, B:8, A:8
          CFI Resource PSW:8, DPL0:8, DPH0:8, R0:8, R1:8, R2:8, R3:8, R4:8, R5:8
          CFI Resource R6:8, R7:8, V0:8, V1:8, V2:8, V3:8, V4:8, V5:8, V6:8, V7:8
          CFI Resource V8:8, V9:8, V10:8, V11:8, V12:8, V13:8, V14:8, V15:8, SP:8
          CFI Resource PSPH:8, PSPL:8, PSP16:16, XSPH:8, XSPL:8, XSP16:16
          CFI VirtualResource ?RET:24
          CFI Resource ?BRET_EXT:8
          CFI VirtualResource ?RET_HIGH:8, ?RET_LOW:8
          CFI ResourceParts PSP16 PSPH, PSPL
          CFI ResourceParts XSP16 XSPH, XSPL
          CFI ResourceParts ?RET ?BRET_EXT, ?RET_HIGH, ?RET_LOW
          CFI EndNames cfiNames0
        
          CFI Common cfiCommon0 Using cfiNames0
          CFI CodeAlign 1
          CFI DataAlign -1
          CFI ReturnAddress ?RET CODE
          CFI CFA_DOVERLAY Used
          CFI CFA_IOVERLAY Used
          CFI CFA_SP SP+-3
          CFI CFA_PSP16 PSP16+0
          CFI CFA_XSP16 XSP16+0
          CFI `PSW.CY` SameValue
          CFI `B.BR0` SameValue
          CFI `B.BR1` SameValue
          CFI `B.BR2` SameValue
          CFI `B.BR3` SameValue
          CFI `B.BR4` SameValue
          CFI `B.BR5` SameValue
          CFI `B.BR6` SameValue
          CFI `B.BR7` SameValue
          CFI `VB.BR8` SameValue
          CFI `VB.BR9` SameValue
          CFI `VB.BR10` SameValue
          CFI `VB.BR11` SameValue
          CFI `VB.BR12` SameValue
          CFI `VB.BR13` SameValue
          CFI `VB.BR14` SameValue
          CFI `VB.BR15` SameValue
          CFI VB SameValue
          CFI B Undefined
          CFI A Undefined
          CFI PSW SameValue
          CFI DPL0 SameValue
          CFI DPH0 SameValue
          CFI R0 Undefined
          CFI R1 Undefined
          CFI R2 Undefined
          CFI R3 Undefined
          CFI R4 Undefined
          CFI R5 Undefined
          CFI R6 SameValue
          CFI R7 SameValue
          CFI V0 SameValue
          CFI V1 SameValue
          CFI V2 SameValue
          CFI V3 SameValue
          CFI V4 SameValue
          CFI V5 SameValue
          CFI V6 SameValue
          CFI V7 SameValue
          CFI V8 SameValue
          CFI V9 SameValue
          CFI V10 SameValue
          CFI V11 SameValue
          CFI V12 SameValue
          CFI V13 SameValue
          CFI V14 SameValue
          CFI V15 SameValue
          CFI PSPH Undefined
          CFI PSPL Undefined
          CFI XSPH Undefined
          CFI XSPL Undefined
          CFI ?RET Concat
          CFI ?BRET_EXT Frame(CFA_SP, 3)
          CFI ?RET_HIGH Frame(CFA_SP, 2)
          CFI ?RET_LOW Frame(CFA_SP, 1)
          CFI EndCommon cfiCommon0
        
        
          CFI Common cfiCommon1 Using cfiNames0
          CFI CodeAlign 1
          CFI DataAlign -1
          CFI ReturnAddress ?RET CODE
          CFI CFA_DOVERLAY Used
          CFI CFA_IOVERLAY Used
          CFI CFA_SP SP+-2
          CFI CFA_PSP16 PSP16+0
          CFI CFA_XSP16 XSP16+0
          CFI `PSW.CY` SameValue
          CFI `B.BR0` SameValue
          CFI `B.BR1` SameValue
          CFI `B.BR2` SameValue
          CFI `B.BR3` SameValue
          CFI `B.BR4` SameValue
          CFI `B.BR5` SameValue
          CFI `B.BR6` SameValue
          CFI `B.BR7` SameValue
          CFI `VB.BR8` SameValue
          CFI `VB.BR9` SameValue
          CFI `VB.BR10` SameValue
          CFI `VB.BR11` SameValue
          CFI `VB.BR12` SameValue
          CFI `VB.BR13` SameValue
          CFI `VB.BR14` SameValue
          CFI `VB.BR15` SameValue
          CFI VB SameValue
          CFI B Undefined
          CFI A Undefined
          CFI PSW SameValue
          CFI DPL0 SameValue
          CFI DPH0 SameValue
          CFI R0 Undefined
          CFI R1 Undefined
          CFI R2 Undefined
          CFI R3 Undefined
          CFI R4 Undefined
          CFI R5 Undefined
          CFI R6 SameValue
          CFI R7 SameValue
          CFI V0 SameValue
          CFI V1 SameValue
          CFI V2 SameValue
          CFI V3 SameValue
          CFI V4 SameValue
          CFI V5 SameValue
          CFI V6 SameValue
          CFI V7 SameValue
          CFI V8 SameValue
          CFI V9 SameValue
          CFI V10 SameValue
          CFI V11 SameValue
          CFI V12 SameValue
          CFI V13 SameValue
          CFI V14 SameValue
          CFI V15 SameValue
          CFI PSPH Undefined
          CFI PSPL Undefined
          CFI XSPH Undefined
          CFI XSPL Undefined
          CFI ?RET Concat
          CFI ?BRET_EXT SameValue
          CFI ?RET_HIGH Frame(CFA_SP, 2)
          CFI ?RET_LOW Frame(CFA_SP, 1)
          CFI EndCommon cfiCommon1
        
HalAdcCheckVddRaw   SYMBOL "HalAdcCheckVddRaw"
`??HalAdcCheckVddRaw::?relay` SYMBOL "?relay", HalAdcCheckVddRaw
HalKeyConfig        SYMBOL "HalKeyConfig"
`??HalKeyConfig::?relay` SYMBOL "?relay", HalKeyConfig
halAssertHandler    SYMBOL "halAssertHandler"
`??halAssertHandler::?relay` SYMBOL "?relay", halAssertHandler
macMcuRandomWord    SYMBOL "macMcuRandomWord"
`??macMcuRandomWord::?relay` SYMBOL "?relay", macMcuRandomWord
osal_int_disable    SYMBOL "osal_int_disable"
`??osal_int_disable::?relay` SYMBOL "?relay", osal_int_disable
osal_msg_allocate   SYMBOL "osal_msg_allocate"
`??osal_msg_allocate::?relay` SYMBOL "?relay", osal_msg_allocate
osal_msg_send       SYMBOL "osal_msg_send"
`??osal_msg_send::?relay` SYMBOL "?relay", osal_msg_send
BigLight_Off        SYMBOL "BigLight_Off"
`??BigLight_Off::?relay` SYMBOL "?relay", BigLight_Off
BigLight_On         SYMBOL "BigLight_On"
`??BigLight_On::?relay` SYMBOL "?relay", BigLight_On
BuzzerControl       SYMBOL "BuzzerControl"
`??BuzzerControl::?relay` SYMBOL "?relay", BuzzerControl
Dimmer              SYMBOL "Dimmer"
`??Dimmer::?relay`  SYMBOL "?relay", Dimmer
GetUserDipSw        SYMBOL "GetUserDipSw"
`??GetUserDipSw::?relay` SYMBOL "?relay", GetUserDipSw
InitBoard           SYMBOL "InitBoard"
`??InitBoard::?relay` SYMBOL "?relay", InitBoard
OnBoard_CheckVoltage SYMBOL "OnBoard_CheckVoltage"
`??OnBoard_CheckVoltage::?relay` SYMBOL "?relay", OnBoard_CheckVoltage
OnBoard_KeyCallback SYMBOL "OnBoard_KeyCallback"
`??OnBoard_KeyCallback::?relay` SYMBOL "?relay", OnBoard_KeyCallback
OnBoard_SendKeys    SYMBOL "OnBoard_SendKeys"
`??OnBoard_SendKeys::?relay` SYMBOL "?relay", OnBoard_SendKeys
OnBoard_stack_used  SYMBOL "OnBoard_stack_used"
`??OnBoard_stack_used::?relay` SYMBOL "?relay", OnBoard_stack_used
Onboard_rand        SYMBOL "Onboard_rand"
`??Onboard_rand::?relay` SYMBOL "?relay", Onboard_rand
Onboard_wait        SYMBOL "Onboard_wait"
`??Onboard_wait::?relay` SYMBOL "?relay", Onboard_wait
RegisterForKeys     SYMBOL "RegisterForKeys"
`??RegisterForKeys::?relay` SYMBOL "?relay", RegisterForKeys
RegisterSW2ForKeys  SYMBOL "RegisterSW2ForKeys"
`??RegisterSW2ForKeys::?relay` SYMBOL "?relay", RegisterSW2ForKeys
RegisterSW3ForKeys  SYMBOL "RegisterSW3ForKeys"
`??RegisterSW3ForKeys::?relay` SYMBOL "?relay", RegisterSW3ForKeys
RegisterVoltageWarningCB SYMBOL "RegisterVoltageWarningCB"
`??RegisterVoltageWarningCB::?relay` SYMBOL "?relay", RegisterVoltageWarningCB
_itoa               SYMBOL "_itoa"
`??_itoa::?relay`   SYMBOL "?relay", _itoa

        EXTERN `??HalAdcCheckVddRaw::?relay`
        FUNCTION `??HalAdcCheckVddRaw::?relay`,00H
        EXTERN `??HalKeyConfig::?relay`
        FUNCTION `??HalKeyConfig::?relay`,00H
        EXTERN `??halAssertHandler::?relay`
        FUNCTION `??halAssertHandler::?relay`,00H
        EXTERN `??macMcuRandomWord::?relay`
        FUNCTION `??macMcuRandomWord::?relay`,00H
        EXTERN `??osal_int_disable::?relay`
        FUNCTION `??osal_int_disable::?relay`,00H
        EXTERN `??osal_msg_allocate::?relay`
        FUNCTION `??osal_msg_allocate::?relay`,00H
        EXTERN `??osal_msg_send::?relay`
        FUNCTION `??osal_msg_send::?relay`,00H
        EXTERN HalAdcCheckVddRaw
        FUNCTION HalAdcCheckVddRaw,0202H
        ARGFRAME ISTACK, 0, STACK
        ARGFRAME PSTACK, 0, STACK
        ARGFRAME XSTACK, 9, STACK
        ARGFRAME IOVERLAY, 0, STATIC
        ARGFRAME DOVERLAY, 0, STATIC
        EXTERN HalKeyConfig
        FUNCTION HalKeyConfig,0202H
        ARGFRAME ISTACK, 0, STACK
        ARGFRAME PSTACK, 0, STACK
        ARGFRAME XSTACK, 9, STACK
        ARGFRAME IOVERLAY, 0, STATIC
        ARGFRAME DOVERLAY, 0, STATIC
        EXTERN halAssertHandler
        FUNCTION halAssertHandler,0202H
        ARGFRAME ISTACK, 0, STACK
        ARGFRAME PSTACK, 0, STACK
        ARGFRAME XSTACK, 9, STACK
        ARGFRAME IOVERLAY, 0, STATIC
        ARGFRAME DOVERLAY, 0, STATIC
        EXTERN macMcuRandomWord
        FUNCTION macMcuRandomWord,0202H
        ARGFRAME ISTACK, 2, STACK
        ARGFRAME PSTACK, 0, STACK
        ARGFRAME XSTACK, 0, STACK
        ARGFRAME IOVERLAY, 0, STATIC
        ARGFRAME DOVERLAY, 0, STATIC
        EXTERN osal_int_disable
        FUNCTION osal_int_disable,0202H
        ARGFRAME ISTACK, 0, STACK
        ARGFRAME PSTACK, 0, STACK
        ARGFRAME XSTACK, 9, STACK
        ARGFRAME IOVERLAY, 0, STATIC
        ARGFRAME DOVERLAY, 0, STATIC
        EXTERN osal_msg_allocate
        FUNCTION osal_msg_allocate,0202H
        ARGFRAME ISTACK, 0, STACK
        ARGFRAME PSTACK, 0, STACK
        ARGFRAME XSTACK, 12, STACK
        ARGFRAME IOVERLAY, 0, STATIC
        ARGFRAME DOVERLAY, 0, STATIC
        EXTERN osal_msg_send
        FUNCTION osal_msg_send,0202H
        ARGFRAME ISTACK, 0, STACK
        ARGFRAME PSTACK, 0, STACK
        ARGFRAME XSTACK, 12, STACK
        ARGFRAME IOVERLAY, 0, STATIC
        ARGFRAME DOVERLAY, 0, STATIC

// D:\AA\Z-Stack 3.0.2\Projects\zstack\ZMain\TI2530DB\OnBoard.c
//    1 /**************************************************************************************************
//    2   Filename:       OnBoard.c
//    3   Revised:        $Date: 2012-11-15 11:48:16 -0800 (Thu, 15 Nov 2012) $
//    4   Revision:       $Revision: 32196 $
//    5 
//    6   Description:    This file contains the UI and control for the
//    7                   peripherals on the EVAL development board
//    8   Notes:          This file targets the Chipcon CC2530/31
//    9 
//   10 
//   11   Copyright 2005-2011 Texas Instruments Incorporated. All rights reserved.
//   12 
//   13   IMPORTANT: Your use of this Software is limited to those specific rights
//   14   granted under the terms of a software license agreement between the user
//   15   who downloaded the software, his/her employer (which must be your employer)
//   16   and Texas Instruments Incorporated (the "License").  You may not use this
//   17   Software unless you agree to abide by the terms of the License. The License
//   18   limits your use, and you acknowledge, that the Software may not be modified,
//   19   copied or distributed unless embedded on a Texas Instruments microcontroller
//   20   or used solely and exclusively in conjunction with a Texas Instruments radio
//   21   frequency transceiver, which is integrated into your product.  Other than for
//   22   the foregoing purpose, you may not use, reproduce, copy, prepare derivative
//   23   works of, modify, distribute, perform, display or sell this Software and/or
//   24   its documentation for any purpose.
//   25 
//   26   YOU FURTHER ACKNOWLEDGE AND AGREE THAT THE SOFTWARE AND DOCUMENTATION ARE
//   27   PROVIDED “AS IS” WITHOUT WARRANTY OF ANY KIND, EITHER EXPRESS OR IMPLIED,
//   28   INCLUDING WITHOUT LIMITATION, ANY WARRANTY OF MERCHANTABILITY, TITLE,
//   29   NON-INFRINGEMENT AND FITNESS FOR A PARTICULAR PURPOSE. IN NO EVENT SHALL
//   30   TEXAS INSTRUMENTS OR ITS LICENSORS BE LIABLE OR OBLIGATED UNDER CONTRACT,
//   31   NEGLIGENCE, STRICT LIABILITY, CONTRIBUTION, BREACH OF WARRANTY, OR OTHER
//   32   LEGAL EQUITABLE THEORY ANY DIRECT OR INDIRECT DAMAGES OR EXPENSES
//   33   INCLUDING BUT NOT LIMITED TO ANY INCIDENTAL, SPECIAL, INDIRECT, PUNITIVE
//   34   OR CONSEQUENTIAL DAMAGES, LOST PROFITS OR LOST DATA, COST OF PROCUREMENT
//   35   OF SUBSTITUTE GOODS, TECHNOLOGY, SERVICES, OR ANY CLAIMS BY THIRD PARTIES
//   36   (INCLUDING BUT NOT LIMITED TO ANY DEFENSE THEREOF), OR OTHER SIMILAR COSTS.
//   37 
//   38   Should you have any questions regarding your right to use this Software,
//   39   contact Texas Instruments Incorporated at www.TI.com.
//   40 **************************************************************************************************/
//   41 
//   42 /*********************************************************************
//   43  * INCLUDES
//   44  */
//   45 
//   46 #include "ZComDef.h"
//   47 #include "ZGlobals.h"
//   48 #include "OnBoard.h"

        ASEGN SFR_AN:DATA:NOROOT,09dH
// unsigned char volatile __sfr SLEEPSTA
SLEEPSTA:
        DATA8
        DS 1

        ASEGN SFR_AN:DATA:NOROOT,0a8H
// union <unnamed> volatile __sfr _A_IEN0
_A_IEN0:
        DATA8
        DS 1

        ASEGN SFR_AN:DATA:NOROOT,0d6H
// unsigned char volatile __sfr DMAARM
DMAARM:
        DATA8
        DS 1
//   49 #include "OSAL.h"
//   50 #include "MT.h"
//   51 #include "MT_SYS.h"
//   52 #include "DebugTrace.h"
//   53 
//   54 /* Hal */
//   55 #include "hal_lcd.h"
//   56 #include "hal_mcu.h"
//   57 #include "hal_timer.h"
//   58 #include "hal_key.h"
//   59 #include "hal_led.h"
//   60 #include "hal_adc.h"
//   61 
//   62 /* Allow access macRandomByte() */
//   63 #include "mac_radio_defs.h"
//   64 
//   65 /*********************************************************************
//   66  * CONSTANTS
//   67  */
//   68 
//   69 // Task ID not initialized
//   70 #define NO_TASK_ID 0xFF
//   71 
//   72 // Minimum length RAM "pattern" for Stack check
//   73 #define MIN_RAM_INIT 12
//   74 
//   75 /*********************************************************************
//   76  * GLOBAL VARIABLES
//   77  */
//   78 
//   79 #if defined MAKE_CRC_SHDW
//   80 #pragma location="CRC_SHDW"
//   81 const CODE uint16 _crcShdw = 0xFFFF;
//   82 #pragma required=_crcShdw
//   83 
//   84 #elif !defined MT_UBL_FUNC
//   85 
//   86 #pragma location="LOCK_BITS_ADDRESS_SPACE"

        RSEG LOCK_BITS_ADDRESS_SPACE:XDATA:REORDER:NOROOT(0)
        DATA8
//   87 __no_init uint8 _lockBits[16];
_lockBits:
        DS 16
//   88 #pragma required=_lockBits
//   89 
//   90 #if defined ZCL_KEY_ESTABLISH
//   91 #include "zcl_cert_data.c"
//   92 #else
//   93 #pragma location="IEEE_ADDRESS_SPACE"

        RSEG IEEE_ADDRESS_SPACE:XDATA:REORDER:NOROOT(0)
        DATA8
//   94 __no_init uint8 _nvIEEE[Z_EXTADDR_LEN];
_nvIEEE:
        DS 8
        REQUIRE _lockBits
//   95 #pragma required=_nvIEEE
//   96 #endif
//   97 
//   98 #pragma location="RESERVED_ADDRESS_SPACE"

        RSEG RESERVED_ADDRESS_SPACE:XDATA:REORDER:NOROOT(0)
        DATA8
//   99 __no_init uint8 _reserved[1932];
_reserved:
        DS 1932
        REQUIRE _nvIEEE
//  100 #pragma required=_reserved
//  101 #endif
//  102 
//  103 // 64-bit Extended Address of this device

        RSEG XDATA_Z:XDATA:NOROOT(0)
        DATA8
//  104 uint8 aExtendedAddress[8];
aExtendedAddress:
        DS 8
        REQUIRE __INIT_XDATA_Z
        REQUIRE _reserved
//  105 
//  106 /*********************************************************************
//  107  * LOCAL VARIABLES
//  108  */
//  109 
//  110 // Registered keys task ID, initialized to NOT USED.

        RSEG XDATA_I:XDATA:NOROOT(0)
//  111 static uint8 registeredKeysTaskID = NO_TASK_ID;
registeredKeysTaskID:
        DATA8
        DS 1
        REQUIRE `?<Initializer for registeredKeysTaskID>`
        REQUIRE __INIT_XDATA_I

        RSEG XDATA_I:XDATA:NOROOT(0)
//  112 static uint8 registeredSW2KeysTaskID = NO_TASK_ID;
registeredSW2KeysTaskID:
        DATA8
        DS 1
        REQUIRE `?<Initializer for registeredSW2KeysTaskID>`
        REQUIRE __INIT_XDATA_I

        RSEG XDATA_I:XDATA:NOROOT(0)
//  113 static uint8 registeredSW3KeysTaskID = NO_TASK_ID;
registeredSW3KeysTaskID:
        DATA8
        DS 1
        REQUIRE `?<Initializer for registeredSW3KeysTaskID>`
        REQUIRE __INIT_XDATA_I
//  114 
//  115 /*********************************************************************
//  116  * LOCAL FUNCTIONS
//  117  */
//  118 static void ChkReset( void );
//  119 // function pointer for low voltage warning callback

        RSEG XDATA_Z:XDATA:NOROOT(0)
        DATA16
//  120 static void (*gpLowVoltageWarning)( uint8 voltLevel ) = (void*) NULL;
gpLowVoltageWarning:
        DS 2
        REQUIRE __INIT_XDATA_Z
//  121 
//  122 /*********************************************************************
//  123  * @fn      InitBoard()
//  124  * @brief   Initialize the CC2420DB Board Peripherals
//  125  * @param   level: COLD,WARM,READY
//  126  * @return  None
//  127  */

        RSEG BANKED_CODE:HUGECODE:NOROOT(0)
//  128 void InitBoard( uint8 level )
InitBoard:
          CFI Block cfiBlock0 Using cfiCommon0
          CFI Function InitBoard
        CODE
//  129 {
        FUNCALL InitBoard, osal_int_disable
        LOCFRAME ISTACK, 0, STACK
        LOCFRAME PSTACK, 0, STACK
        LOCFRAME XSTACK, 9, STACK
        LOCFRAME IOVERLAY, 0, STATIC
        LOCFRAME DOVERLAY, 0, STATIC
        ARGFRAME ISTACK, 0, STACK
        ARGFRAME PSTACK, 0, STACK
        ARGFRAME XSTACK, 9, STACK
        ARGFRAME IOVERLAY, 0, STATIC
        ARGFRAME DOVERLAY, 0, STATIC
        FUNCALL InitBoard, ChkReset
        LOCFRAME ISTACK, 0, STACK
        LOCFRAME PSTACK, 0, STACK
        LOCFRAME XSTACK, 9, STACK
        LOCFRAME IOVERLAY, 0, STATIC
        LOCFRAME DOVERLAY, 0, STATIC
        ARGFRAME ISTACK, 0, STACK
        ARGFRAME PSTACK, 0, STACK
        ARGFRAME XSTACK, 9, STACK
        ARGFRAME IOVERLAY, 0, STATIC
        ARGFRAME DOVERLAY, 0, STATIC
        FUNCALL InitBoard, HalKeyConfig
        LOCFRAME ISTACK, 0, STACK
        LOCFRAME PSTACK, 0, STACK
        LOCFRAME XSTACK, 9, STACK
        LOCFRAME IOVERLAY, 0, STATIC
        LOCFRAME DOVERLAY, 0, STATIC
        ARGFRAME ISTACK, 0, STACK
        ARGFRAME PSTACK, 0, STACK
        ARGFRAME XSTACK, 9, STACK
        ARGFRAME IOVERLAY, 0, STATIC
        ARGFRAME DOVERLAY, 0, STATIC
        MOV       A,#-0x9
        LCALL     ?BANKED_ENTER_XDATA
          CFI DPH0 load(1, XDATA, add(CFA_XSP16, literal(-1)))
          CFI DPL0 load(1, XDATA, add(CFA_XSP16, literal(-2)))
          CFI ?BRET_EXT load(1, XDATA, add(CFA_XSP16, literal(-3)))
          CFI ?RET_HIGH load(1, XDATA, add(CFA_XSP16, literal(-4)))
          CFI ?RET_LOW load(1, XDATA, add(CFA_XSP16, literal(-5)))
          CFI R7 load(1, XDATA, add(CFA_XSP16, literal(-6)))
          CFI V0 load(1, XDATA, add(CFA_XSP16, literal(-7)))
          CFI VB load(1, XDATA, add(CFA_XSP16, literal(-8)))
          CFI R6 load(1, XDATA, add(CFA_XSP16, literal(-9)))
          CFI CFA_SP SP+0
          CFI CFA_XSP16 add(XSP16, 9)
        ; Saved register size: 9
        ; Auto size: 0
        MOV       A,R1
        MOV       R6,A
//  130   if ( level == OB_COLD )
        MOV       A,R6
        JNZ       ??InitBoard_0
//  131   {
//  132     // IAR does not zero-out this byte below the XSTACK.
//  133     *(uint8 *)0x0 = 0;
        MOV       DPTR,#0x0
        MOV       A,#0x0
        MOVX      @DPTR,A
//  134     // Interrupts off
//  135     osal_int_disable( INTS_ALL );
        ; Setup parameters for call to function osal_int_disable
        MOV       R1,#-0x1
        LCALL     `??osal_int_disable::?relay`; Banked call to: osal_int_disable
        MOV       A,R1
//  136     // Check for Brown-Out reset
//  137     ChkReset();
        ; Setup parameters for call to function ChkReset
        LCALL     `??ChkReset::?relay`; Banked call to: ChkReset
        SJMP      ??InitBoard_1
//  138   }
//  139   else  // !OB_COLD
//  140   {
//  141     /* Initialize Key stuff */
//  142     HalKeyConfig(HAL_KEY_INTERRUPT_ENABLE , OnBoard_KeyCallback);
??InitBoard_0:
        ; Setup parameters for call to function HalKeyConfig
        MOV       R2,#`??OnBoard_KeyCallback::?relay` & 0xff
        MOV       R3,#(`??OnBoard_KeyCallback::?relay` >> 8) & 0xff
        MOV       R1,#0x1
        LCALL     `??HalKeyConfig::?relay`; Banked call to: HalKeyConfig
//  143   }
//  144 }
??InitBoard_1:
        MOV       R7,#0x1
        LJMP      ?BANKED_LEAVE_XDATA
          CFI EndBlock cfiBlock0
//  145 
//  146 /*********************************************************************
//  147  * @fn      ChkReset()
//  148  * @brief   Check reset bits - if reset cause is unknown, assume a
//  149  *          brown-out (low power), assume batteries are not reliable,
//  150  *          hang in a loop and sequence through the LEDs.
//  151  * @param   None
//  152  * @return  None
//  153  *********************************************************************/

        RSEG BANKED_CODE:HUGECODE:NOROOT(0)
//  154 void ChkReset( void )
ChkReset:
          CFI Block cfiBlock1 Using cfiCommon0
          CFI Function ChkReset
        CODE
//  155 {
        FUNCALL ChkReset, halAssertHandler
        LOCFRAME ISTACK, 0, STACK
        LOCFRAME PSTACK, 0, STACK
        LOCFRAME XSTACK, 9, STACK
        LOCFRAME IOVERLAY, 0, STATIC
        LOCFRAME DOVERLAY, 0, STATIC
        ARGFRAME ISTACK, 0, STACK
        ARGFRAME PSTACK, 0, STACK
        ARGFRAME XSTACK, 9, STACK
        ARGFRAME IOVERLAY, 0, STATIC
        ARGFRAME DOVERLAY, 0, STATIC
        MOV       A,#-0x9
        LCALL     ?BANKED_ENTER_XDATA
          CFI DPH0 load(1, XDATA, add(CFA_XSP16, literal(-1)))
          CFI DPL0 load(1, XDATA, add(CFA_XSP16, literal(-2)))
          CFI ?BRET_EXT load(1, XDATA, add(CFA_XSP16, literal(-3)))
          CFI ?RET_HIGH load(1, XDATA, add(CFA_XSP16, literal(-4)))
          CFI ?RET_LOW load(1, XDATA, add(CFA_XSP16, literal(-5)))
          CFI R7 load(1, XDATA, add(CFA_XSP16, literal(-6)))
          CFI V0 load(1, XDATA, add(CFA_XSP16, literal(-7)))
          CFI VB load(1, XDATA, add(CFA_XSP16, literal(-8)))
          CFI R6 load(1, XDATA, add(CFA_XSP16, literal(-9)))
          CFI CFA_SP SP+0
          CFI CFA_XSP16 add(XSP16, 9)
        ; Saved register size: 9
        ; Auto size: 0
//  156   uint8 rib;
//  157 
//  158   // Isolate reset indicator bits
//  159   rib = SLEEPSTA & LRESET;
        MOV       A,0x9d
        ANL       A,#0x18
        MOV       R6,A
//  160 
//  161   if ( rib == RESETPO )
        MOV       A,R6
        JZ        ??ChkReset_0
//  162   {
//  163     // Put code here to handle Power-On reset
//  164   }
//  165   else if ( rib == RESETEX )
        MOV       A,#0x8
        XRL       A,R6
        JZ        ??ChkReset_0
//  166   {
//  167     // Put code here to handle External reset
//  168   }
//  169   else if ( rib == RESETWD )
        MOV       A,#0x10
        XRL       A,R6
        JZ        ??ChkReset_0
//  170   {
//  171     // Put code here to handle WatchDog reset
//  172   }
//  173   else  // Unknown reason - not expected.
//  174   {
//  175     HAL_ASSERT(0);
        ; Setup parameters for call to function halAssertHandler
        LCALL     `??halAssertHandler::?relay`; Banked call to: halAssertHandler
//  176   }
//  177 }
??ChkReset_0:
        MOV       R7,#0x1
        LJMP      ?BANKED_LEAVE_XDATA
          CFI EndBlock cfiBlock1
        REQUIRE SLEEPSTA
//  178 
//  179 /*********************************************************************
//  180  *                        "Keyboard" Support
//  181  *********************************************************************/
//  182 
//  183 /*********************************************************************
//  184  * Keyboard Register function
//  185  *
//  186  * The keyboard handler is setup to send all keyboard changes to
//  187  * one task (if a task is registered).
//  188  *
//  189  * If a task registers, it will get all the keys. You can change this
//  190  * to register for individual keys.
//  191  *********************************************************************/

        RSEG BANKED_CODE:HUGECODE:NOROOT(0)
//  192 uint8 RegisterForKeys( uint8 task_id )
RegisterForKeys:
          CFI Block cfiBlock2 Using cfiCommon0
          CFI Function RegisterForKeys
        CODE
//  193 {
        PUSH      DPL
          CFI DPL0 Frame(CFA_SP, 4)
          CFI CFA_SP SP+-4
        PUSH      DPH
          CFI DPH0 Frame(CFA_SP, 5)
          CFI CFA_SP SP+-5
        ; Saved register size: 2
        ; Auto size: 0
        MOV       A,R1
        MOV       R0,A
//  194   // Allow only the first task
//  195   if ( registeredKeysTaskID == NO_TASK_ID )
        MOV       DPTR,#registeredKeysTaskID
        MOVX      A,@DPTR
        XRL       A,#0xff
        JNZ       ??RegisterForKeys_0
//  196   {
//  197     registeredKeysTaskID = task_id;
        MOV       A,R0
        MOV       DPTR,#registeredKeysTaskID
        MOVX      @DPTR,A
//  198     return ( true );
        MOV       R1,#0x1
        SJMP      ??RegisterForKeys_1
//  199   }
//  200   else
//  201     return ( false );
??RegisterForKeys_0:
        MOV       R1,#0x0
??RegisterForKeys_1:
        POP       DPH
          CFI DPH0 SameValue
          CFI CFA_SP SP+-4
        POP       DPL
          CFI DPL0 SameValue
          CFI CFA_SP SP+-3
        LJMP      ?BRET
//  202 }
          CFI EndBlock cfiBlock2
//  203 

        RSEG BANKED_CODE:HUGECODE:NOROOT(0)
//  204 uint8 RegisterSW2ForKeys( uint8 task_id )
RegisterSW2ForKeys:
          CFI Block cfiBlock3 Using cfiCommon0
          CFI Function RegisterSW2ForKeys
        CODE
//  205 {
        PUSH      DPL
          CFI DPL0 Frame(CFA_SP, 4)
          CFI CFA_SP SP+-4
        PUSH      DPH
          CFI DPH0 Frame(CFA_SP, 5)
          CFI CFA_SP SP+-5
        ; Saved register size: 2
        ; Auto size: 0
        MOV       A,R1
        MOV       R0,A
//  206   // Allow only the first task
//  207   if ( registeredSW2KeysTaskID == NO_TASK_ID )
        MOV       DPTR,#registeredSW2KeysTaskID
        MOVX      A,@DPTR
        XRL       A,#0xff
        JNZ       ??RegisterSW2ForKeys_0
//  208   {
//  209     registeredSW2KeysTaskID = task_id;
        MOV       A,R0
        MOV       DPTR,#registeredSW2KeysTaskID
        MOVX      @DPTR,A
//  210     return ( true );
        MOV       R1,#0x1
        SJMP      ??RegisterSW2ForKeys_1
//  211   }
//  212   else
//  213     return ( false );
??RegisterSW2ForKeys_0:
        MOV       R1,#0x0
??RegisterSW2ForKeys_1:
        POP       DPH
          CFI DPH0 SameValue
          CFI CFA_SP SP+-4
        POP       DPL
          CFI DPL0 SameValue
          CFI CFA_SP SP+-3
        LJMP      ?BRET
//  214 }
          CFI EndBlock cfiBlock3
//  215 

        RSEG BANKED_CODE:HUGECODE:NOROOT(0)
//  216 uint8 RegisterSW3ForKeys( uint8 task_id )
RegisterSW3ForKeys:
          CFI Block cfiBlock4 Using cfiCommon0
          CFI Function RegisterSW3ForKeys
        CODE
//  217 {
        PUSH      DPL
          CFI DPL0 Frame(CFA_SP, 4)
          CFI CFA_SP SP+-4
        PUSH      DPH
          CFI DPH0 Frame(CFA_SP, 5)
          CFI CFA_SP SP+-5
        ; Saved register size: 2
        ; Auto size: 0
        MOV       A,R1
        MOV       R0,A
//  218   // Allow only the first task
//  219   if ( registeredSW3KeysTaskID == NO_TASK_ID )
        MOV       DPTR,#registeredSW3KeysTaskID
        MOVX      A,@DPTR
        XRL       A,#0xff
        JNZ       ??RegisterSW3ForKeys_0
//  220   {
//  221     registeredSW3KeysTaskID = task_id;
        MOV       A,R0
        MOV       DPTR,#registeredSW3KeysTaskID
        MOVX      @DPTR,A
//  222     return ( true );
        MOV       R1,#0x1
        SJMP      ??RegisterSW3ForKeys_1
//  223   }
//  224   else
//  225     return ( false );
??RegisterSW3ForKeys_0:
        MOV       R1,#0x0
??RegisterSW3ForKeys_1:
        POP       DPH
          CFI DPH0 SameValue
          CFI CFA_SP SP+-4
        POP       DPL
          CFI DPL0 SameValue
          CFI CFA_SP SP+-3
        LJMP      ?BRET
//  226 }
          CFI EndBlock cfiBlock4
//  227 
//  228 /*********************************************************************
//  229  * @fn      OnBoard_SendKeys
//  230  *
//  231  * @brief   Send "Key Pressed" message to application.
//  232  *
//  233  * @param   keys  - keys that were pressed
//  234  *          state - shifted
//  235  *
//  236  * @return  status
//  237  *********************************************************************/

        RSEG BANKED_CODE:HUGECODE:NOROOT(0)
//  238 uint8 OnBoard_SendKeys( uint8 keys, uint8 state )
OnBoard_SendKeys:
          CFI Block cfiBlock5 Using cfiCommon0
          CFI Function OnBoard_SendKeys
        CODE
//  239 {
        FUNCALL OnBoard_SendKeys, osal_msg_allocate
        LOCFRAME ISTACK, 0, STACK
        LOCFRAME PSTACK, 0, STACK
        LOCFRAME XSTACK, 12, STACK
        LOCFRAME IOVERLAY, 0, STATIC
        LOCFRAME DOVERLAY, 0, STATIC
        ARGFRAME ISTACK, 0, STACK
        ARGFRAME PSTACK, 0, STACK
        ARGFRAME XSTACK, 12, STACK
        ARGFRAME IOVERLAY, 0, STATIC
        ARGFRAME DOVERLAY, 0, STATIC
        FUNCALL OnBoard_SendKeys, osal_msg_send
        LOCFRAME ISTACK, 0, STACK
        LOCFRAME PSTACK, 0, STACK
        LOCFRAME XSTACK, 12, STACK
        LOCFRAME IOVERLAY, 0, STATIC
        LOCFRAME DOVERLAY, 0, STATIC
        ARGFRAME ISTACK, 0, STACK
        ARGFRAME PSTACK, 0, STACK
        ARGFRAME XSTACK, 12, STACK
        ARGFRAME IOVERLAY, 0, STATIC
        ARGFRAME DOVERLAY, 0, STATIC
        REQUIRE ?V0
        REQUIRE ?V1
        REQUIRE ?V2
        REQUIRE ?V3
        MOV       A,#-0xc
        LCALL     ?BANKED_ENTER_XDATA
          CFI DPH0 load(1, XDATA, add(CFA_XSP16, literal(-1)))
          CFI DPL0 load(1, XDATA, add(CFA_XSP16, literal(-2)))
          CFI ?BRET_EXT load(1, XDATA, add(CFA_XSP16, literal(-3)))
          CFI ?RET_HIGH load(1, XDATA, add(CFA_XSP16, literal(-4)))
          CFI ?RET_LOW load(1, XDATA, add(CFA_XSP16, literal(-5)))
          CFI R7 load(1, XDATA, add(CFA_XSP16, literal(-6)))
          CFI V3 load(1, XDATA, add(CFA_XSP16, literal(-7)))
          CFI V2 load(1, XDATA, add(CFA_XSP16, literal(-8)))
          CFI V1 load(1, XDATA, add(CFA_XSP16, literal(-9)))
          CFI V0 load(1, XDATA, add(CFA_XSP16, literal(-10)))
          CFI VB load(1, XDATA, add(CFA_XSP16, literal(-11)))
          CFI R6 load(1, XDATA, add(CFA_XSP16, literal(-12)))
          CFI CFA_SP SP+0
          CFI CFA_XSP16 add(XSP16, 12)
        ; Saved register size: 12
        ; Auto size: 0
        MOV       ?V0,R1
        MOV       ?V1,R2
//  240   keyChange_t *msgPtr;
//  241 
//  242   if ( registeredKeysTaskID != NO_TASK_ID )
        MOV       DPTR,#registeredKeysTaskID
        MOVX      A,@DPTR
        XRL       A,#0xff
        JZ        ??OnBoard_SendKeys_0
//  243   {
//  244     // Send the address to the task
//  245     msgPtr = (keyChange_t *)osal_msg_allocate( sizeof(keyChange_t) );
        ; Setup parameters for call to function osal_msg_allocate
        MOV       R2,#0x4
        MOV       R3,#0x0
        LCALL     `??osal_msg_allocate::?relay`; Banked call to: osal_msg_allocate
        MOV       ?V2,R2
        MOV       ?V3,R3
        MOV       R6,?V2
        MOV       R7,?V3
//  246     if ( msgPtr )
        MOV       A,R6
        ORL       A,R7
        JZ        ??OnBoard_SendKeys_1
//  247     {
//  248       msgPtr->hdr.event = KEY_CHANGE;
        MOV       DPL,R6
        MOV       DPH,R7
        MOV       A,#-0x40
        MOVX      @DPTR,A
//  249       msgPtr->state = state;
        MOV       A,?V1
        PUSH      A
          CFI CFA_SP SP+-1
        MOV       DPL,R6
        MOV       DPH,R7
        INC       DPTR
        INC       DPTR
        POP       A
          CFI CFA_SP SP+0
        MOVX      @DPTR,A
//  250       msgPtr->keys = keys;
        MOV       A,?V0
        PUSH      A
          CFI CFA_SP SP+-1
        MOV       DPL,R6
        MOV       DPH,R7
        INC       DPTR
        INC       DPTR
        INC       DPTR
        POP       A
          CFI CFA_SP SP+0
        MOVX      @DPTR,A
//  251 
//  252 //      if ( keys & HAL_KEY_SW_6 )
//  253 //      {
//  254 //        osal_msg_send( registeredKeysTaskID, (uint8 *)msgPtr );
//  255 //      }
//  256 //      else if ( keys & HAL_KEY_SW_5 )
//  257 //      {
//  258 //        osal_msg_send( registeredSW2KeysTaskID, (uint8 *)msgPtr );
//  259 //      }
//  260 //      else if ( keys & HAL_KEY_SW3 )
//  261 //      {
//  262 //        osal_msg_send( registeredSW3KeysTaskID, (uint8 *)msgPtr );
//  263 //      }
//  264       osal_msg_send( registeredKeysTaskID, (uint8 *)msgPtr );
        ; Setup parameters for call to function osal_msg_send
        MOV       A,R6
        MOV       R2,A
        MOV       A,R7
        MOV       R3,A
        MOV       DPTR,#registeredKeysTaskID
        MOVX      A,@DPTR
        MOV       R1,A
        LCALL     `??osal_msg_send::?relay`; Banked call to: osal_msg_send
        MOV       A,R1
//  265     }
//  266     return ( ZSuccess );
??OnBoard_SendKeys_1:
        MOV       R1,#0x0
        SJMP      ??OnBoard_SendKeys_2
//  267   }
//  268   else
//  269     return ( ZFailure );
??OnBoard_SendKeys_0:
        MOV       R1,#0x1
??OnBoard_SendKeys_2:
        MOV       R7,#0x4
        LJMP      ?BANKED_LEAVE_XDATA
//  270 }
          CFI EndBlock cfiBlock5
//  271 
//  272 /*********************************************************************
//  273  * @fn      OnBoard_KeyCallback
//  274  *
//  275  * @brief   Callback service for keys
//  276  *
//  277  * @param   keys  - keys that were pressed
//  278  *          state - shifted
//  279  *
//  280  * @return  void
//  281  *********************************************************************/

        RSEG BANKED_CODE:HUGECODE:NOROOT(0)
//  282 void OnBoard_KeyCallback ( uint8 keys, uint8 state )
OnBoard_KeyCallback:
          CFI Block cfiBlock6 Using cfiCommon0
          CFI Function OnBoard_KeyCallback
        CODE
//  283 {
        FUNCALL OnBoard_KeyCallback, OnBoard_SendKeys
        LOCFRAME ISTACK, 0, STACK
        LOCFRAME PSTACK, 0, STACK
        LOCFRAME XSTACK, 9, STACK
        LOCFRAME IOVERLAY, 0, STATIC
        LOCFRAME DOVERLAY, 0, STATIC
        ARGFRAME ISTACK, 0, STACK
        ARGFRAME PSTACK, 0, STACK
        ARGFRAME XSTACK, 9, STACK
        ARGFRAME IOVERLAY, 0, STATIC
        ARGFRAME DOVERLAY, 0, STATIC
        REQUIRE ?V0
        MOV       A,#-0x9
        LCALL     ?BANKED_ENTER_XDATA
          CFI DPH0 load(1, XDATA, add(CFA_XSP16, literal(-1)))
          CFI DPL0 load(1, XDATA, add(CFA_XSP16, literal(-2)))
          CFI ?BRET_EXT load(1, XDATA, add(CFA_XSP16, literal(-3)))
          CFI ?RET_HIGH load(1, XDATA, add(CFA_XSP16, literal(-4)))
          CFI ?RET_LOW load(1, XDATA, add(CFA_XSP16, literal(-5)))
          CFI R7 load(1, XDATA, add(CFA_XSP16, literal(-6)))
          CFI V0 load(1, XDATA, add(CFA_XSP16, literal(-7)))
          CFI VB load(1, XDATA, add(CFA_XSP16, literal(-8)))
          CFI R6 load(1, XDATA, add(CFA_XSP16, literal(-9)))
          CFI CFA_SP SP+0
          CFI CFA_XSP16 add(XSP16, 9)
        ; Saved register size: 9
        ; Auto size: 0
        MOV       A,R1
        MOV       R7,A
        MOV       ?V0,R2
//  284   uint8 shift;
//  285   (void)state;
//  286 
//  287 //  shift = (keys & HAL_KEY_SW_6) ? true : false;
//  288   shift = 1;
        MOV       R6,#0x1
//  289   if ( OnBoard_SendKeys( keys, shift ) != ZSuccess )
        ; Setup parameters for call to function OnBoard_SendKeys
        MOV       A,R6
        MOV       R2,A
        MOV       A,R7
        MOV       R1,A
        LCALL     `??OnBoard_SendKeys::?relay`; Banked call to: OnBoard_SendKeys
        MOV       A,R1
//  290   {
//  291     // Process SW1 here
//  292     if ( keys & HAL_KEY_SW_1 )  // Switch 1
//  293     {
//  294     }
//  295     // Process SW2 here
//  296     if ( keys & HAL_KEY_SW_2 )  // Switch 2
//  297     {
//  298     }
//  299     // Process SW3 here
//  300     if ( keys & HAL_KEY_SW_3 )  // Switch 3
//  301     {
//  302     }
//  303     // Process SW4 here
//  304     if ( keys & HAL_KEY_SW_4 )  // Switch 4
//  305     {
//  306     }
//  307     // Process SW5 here
//  308     if ( keys & HAL_KEY_SW_5 )  // Switch 5
//  309     {
//  310     }
//  311     // Process SW6 here
//  312     if ( keys & HAL_KEY_SW_6 )  // Switch 6
//  313     {
//  314     }
//  315   }
//  316 }
        MOV       R7,#0x1
        LJMP      ?BANKED_LEAVE_XDATA
          CFI EndBlock cfiBlock6
//  317 
//  318 /*********************************************************************
//  319  *                  Low Voltage Protectiion Support
//  320  *********************************************************************/
//  321 
//  322 /*********************************************************************
//  323  * @fn      RegisterVoltageWarningCB
//  324  *
//  325  * @brief   Register Low Voltage Warning Callback
//  326  *
//  327  * @param   pVoltWarnCB - fundion pointer of the callback
//  328  *
//  329  * @return  none
//  330  *********************************************************************/

        RSEG BANKED_CODE:HUGECODE:NOROOT(0)
//  331 void RegisterVoltageWarningCB( void (*pVoltWarnCB)(uint8) )
RegisterVoltageWarningCB:
          CFI Block cfiBlock7 Using cfiCommon0
          CFI Function RegisterVoltageWarningCB
        CODE
//  332 {
        PUSH      DPL
          CFI DPL0 Frame(CFA_SP, 4)
          CFI CFA_SP SP+-4
        PUSH      DPH
          CFI DPH0 Frame(CFA_SP, 5)
          CFI CFA_SP SP+-5
        ; Saved register size: 2
        ; Auto size: 0
//  333   gpLowVoltageWarning = pVoltWarnCB;
        MOV       DPTR,#gpLowVoltageWarning
        MOV       A,R2
        MOVX      @DPTR,A
        INC       DPTR
        MOV       A,R3
        MOVX      @DPTR,A
//  334 }
        POP       DPH
          CFI DPH0 SameValue
          CFI CFA_SP SP+-4
        POP       DPL
          CFI DPL0 SameValue
          CFI CFA_SP SP+-3
        LJMP      ?BRET
          CFI EndBlock cfiBlock7
//  335 
//  336 /*********************************************************************
//  337  * @fn      OnBoard_CheckVoltage
//  338  *
//  339  * @brief   Check voltage and notify the callback of the status
//  340  *
//  341  * @param   none
//  342  *
//  343  * @return  TRUE  - The voltage is good for NV writing
//  344  *          FALSE - The voltage is not high enough for NV writing
//  345  *********************************************************************/

        RSEG BANKED_CODE:HUGECODE:NOROOT(0)
//  346 bool OnBoard_CheckVoltage( void )
OnBoard_CheckVoltage:
          CFI Block cfiBlock8 Using cfiCommon0
          CFI Function OnBoard_CheckVoltage
        CODE
//  347 {
        FUNCALL OnBoard_CheckVoltage, HalAdcCheckVddRaw
        LOCFRAME ISTACK, 0, STACK
        LOCFRAME PSTACK, 0, STACK
        LOCFRAME XSTACK, 9, STACK
        LOCFRAME IOVERLAY, 0, STATIC
        LOCFRAME DOVERLAY, 0, STATIC
        ARGFRAME ISTACK, 0, STACK
        ARGFRAME PSTACK, 0, STACK
        ARGFRAME XSTACK, 9, STACK
        ARGFRAME IOVERLAY, 0, STATIC
        ARGFRAME DOVERLAY, 0, STATIC
        MOV       A,#-0x9
        LCALL     ?BANKED_ENTER_XDATA
          CFI DPH0 load(1, XDATA, add(CFA_XSP16, literal(-1)))
          CFI DPL0 load(1, XDATA, add(CFA_XSP16, literal(-2)))
          CFI ?BRET_EXT load(1, XDATA, add(CFA_XSP16, literal(-3)))
          CFI ?RET_HIGH load(1, XDATA, add(CFA_XSP16, literal(-4)))
          CFI ?RET_LOW load(1, XDATA, add(CFA_XSP16, literal(-5)))
          CFI R7 load(1, XDATA, add(CFA_XSP16, literal(-6)))
          CFI V0 load(1, XDATA, add(CFA_XSP16, literal(-7)))
          CFI VB load(1, XDATA, add(CFA_XSP16, literal(-8)))
          CFI R6 load(1, XDATA, add(CFA_XSP16, literal(-9)))
          CFI CFA_SP SP+0
          CFI CFA_XSP16 add(XSP16, 9)
        ; Saved register size: 9
        ; Auto size: 0
//  348   uint8 voltageMeasured;
//  349   uint8 howGood;
//  350 
//  351   voltageMeasured = HalAdcCheckVddRaw();
        ; Setup parameters for call to function HalAdcCheckVddRaw
        LCALL     `??HalAdcCheckVddRaw::?relay`; Banked call to: HalAdcCheckVddRaw
        MOV       A,R1
        MOV       R7,A
//  352 
//  353   if ( voltageMeasured > VDD_MIN_GOOD )
        MOV       A,R7
        CLR       C
        SUBB      A,#0x53
        JC        ??OnBoard_CheckVoltage_0
//  354   {
//  355     howGood = VOLT_LEVEL_GOOD;
        MOV       R6,#0x2
        SJMP      ??OnBoard_CheckVoltage_1
//  356   }
//  357   else if ( voltageMeasured > VDD_MIN_NV )
??OnBoard_CheckVoltage_0:
        MOV       A,R7
        CLR       C
        SUBB      A,#0x4f
        JC        ??OnBoard_CheckVoltage_2
//  358   {
//  359     howGood = VOLT_LEVEL_CAUTIOUS;
        MOV       R6,#0x1
        SJMP      ??OnBoard_CheckVoltage_1
//  360   }
//  361   else
//  362   {
//  363     howGood = VOLT_LEVEL_BAD;
??OnBoard_CheckVoltage_2:
        MOV       R6,#0x0
//  364   }
//  365     
//  366   if ( gpLowVoltageWarning )
??OnBoard_CheckVoltage_1:
        MOV       DPTR,#gpLowVoltageWarning
        MOVX      A,@DPTR
        MOV       R0,A
        INC       DPTR
        MOVX      A,@DPTR
        MOV       R1,A
        MOV       A,R0
        ORL       A,R1
        JZ        ??OnBoard_CheckVoltage_3
//  367   {
//  368     if ( howGood < VOLT_LEVEL_GOOD )
        MOV       A,R6
        CLR       C
        SUBB      A,#0x2
        JNC       ??OnBoard_CheckVoltage_3
//  369     {
//  370       gpLowVoltageWarning( howGood );
        ; Setup parameters for indirect call
        MOV       A,R6
        MOV       R1,A
        MOV       DPTR,#gpLowVoltageWarning
        MOVX      A,@DPTR
        MOV       R0,A
        INC       DPTR
        MOVX      A,@DPTR
        MOV       DPH,A
        MOV       DPL,R0
        LCALL     ?CALL_IND
//  371     }
//  372   }
//  373 
//  374   return ( howGood > VOLT_LEVEL_BAD );
??OnBoard_CheckVoltage_3:
        MOV       A,R6
        JZ        ??OnBoard_CheckVoltage_4
        MOV       R1,#0x1
        SJMP      ??OnBoard_CheckVoltage_5
??OnBoard_CheckVoltage_4:
        MOV       R1,#0x0
??OnBoard_CheckVoltage_5:
        MOV       R7,#0x1
        LJMP      ?BANKED_LEAVE_XDATA
//  375 }
          CFI EndBlock cfiBlock8
//  376 
//  377 /*********************************************************************
//  378  * @fn      OnBoard_stack_used
//  379  *
//  380  * @brief   Runs through the stack looking for touched memory.
//  381  *
//  382  * @param   none
//  383  *
//  384  * @return  Maximum number of bytes used by the stack.
//  385  *********************************************************************/

        RSEG BANKED_CODE:HUGECODE:NOROOT(0)
//  386 uint16 OnBoard_stack_used(void)
OnBoard_stack_used:
          CFI Block cfiBlock9 Using cfiCommon0
          CFI Function OnBoard_stack_used
        CODE
//  387 {
        PUSH      DPL
          CFI DPL0 Frame(CFA_SP, 4)
          CFI CFA_SP SP+-4
        PUSH      DPH
          CFI DPH0 Frame(CFA_SP, 5)
          CFI CFA_SP SP+-5
        ; Saved register size: 2
        ; Auto size: 0
//  388   uint8 const *ptr;
//  389   uint8 cnt = 0;
        MOV       R0,#0x0
//  390 
//  391   for (ptr = CSTACK_END; ptr > CSTACK_BEG; ptr--)
        MOV       DPL,#(SFE(XSTACK) + 255) & 0xff
        MOV       DPH,#((SFE(XSTACK) - 1) >> 8) & 0xff
??OnBoard_stack_used_0:
        CLR       C
        MOV       A,#SFB(XSTACK) & 0xff
        SUBB      A,DPL
        MOV       A,#(SFB(XSTACK) >> 8) & 0xff
        SUBB      A,DPH
        JNC       ??OnBoard_stack_used_1
//  392   {
//  393     if (STACK_INIT_VALUE == *ptr)
        MOVX      A,@DPTR
        XRL       A,#0xcd
        JNZ       ??OnBoard_stack_used_2
//  394     {
//  395       if (++cnt >= MIN_RAM_INIT)
        INC       R0
        MOV       A,R0
        CLR       C
        SUBB      A,#0xc
        JC        ??OnBoard_stack_used_3
//  396       {
//  397         ptr += MIN_RAM_INIT;
        MOV       A,DPL
        ADD       A,#0xc
        MOV       DPL,A
        JNC       ??OnBoard_stack_used_1
        INC       DPH
//  398         break;
        SJMP      ??OnBoard_stack_used_1
//  399       }
//  400     }
//  401     else
//  402     {
//  403       cnt = 0;
??OnBoard_stack_used_2:
        MOV       R0,#0x0
//  404     }
//  405   }
??OnBoard_stack_used_3:
        MOV       A,DPL
        ADD       A,#-0x1
        MOV       DPL,A
        MOV       A,DPH
        ADDC      A,#-0x1
        MOV       DPH,A
        SJMP      ??OnBoard_stack_used_0
//  406 
//  407   return (uint16)(CSTACK_END - ptr + 1);
??OnBoard_stack_used_1:
        MOV       A,#(SFE(XSTACK) + 255) & 0xff
        CLR       C
        SUBB      A,DPL
        MOV       R2,A
        MOV       A,#((SFE(XSTACK) - 1) >> 8) & 0xff
        SUBB      A,DPH
        MOV       R3,A
        MOV       A,R2
        ADD       A,#0x1
        MOV       R2,A
        JNC       ??OnBoard_stack_used_4
        INC       R3
??OnBoard_stack_used_4:
        POP       DPH
          CFI DPH0 SameValue
          CFI CFA_SP SP+-4
        POP       DPL
          CFI DPL0 SameValue
          CFI CFA_SP SP+-3
        LJMP      ?BRET
//  408 }
          CFI EndBlock cfiBlock9
//  409 
//  410 /*********************************************************************
//  411  * @fn      _itoa
//  412  *
//  413  * @brief   convert a 16bit number to ASCII
//  414  *
//  415  * @param   num -
//  416  *          buf -
//  417  *          radix -
//  418  *
//  419  * @return  void
//  420  *
//  421  *********************************************************************/

        RSEG BANKED_CODE:HUGECODE:NOROOT(0)
//  422 void _itoa(uint16 num, uint8 *buf, uint8 radix)
_itoa:
          CFI Block cfiBlock10 Using cfiCommon0
          CFI Function _itoa
        CODE
//  423 {
        REQUIRE ?V0
        REQUIRE ?V1
        REQUIRE ?V2
        REQUIRE ?V3
        REQUIRE ?V4
        REQUIRE ?V6
        REQUIRE ?V7
        MOV       A,#-0x10
        LCALL     ?BANKED_ENTER_XDATA
          CFI DPH0 load(1, XDATA, add(CFA_XSP16, literal(-1)))
          CFI DPL0 load(1, XDATA, add(CFA_XSP16, literal(-2)))
          CFI ?BRET_EXT load(1, XDATA, add(CFA_XSP16, literal(-3)))
          CFI ?RET_HIGH load(1, XDATA, add(CFA_XSP16, literal(-4)))
          CFI ?RET_LOW load(1, XDATA, add(CFA_XSP16, literal(-5)))
          CFI R7 load(1, XDATA, add(CFA_XSP16, literal(-6)))
          CFI V7 load(1, XDATA, add(CFA_XSP16, literal(-7)))
          CFI V6 load(1, XDATA, add(CFA_XSP16, literal(-8)))
          CFI V5 load(1, XDATA, add(CFA_XSP16, literal(-9)))
          CFI V4 load(1, XDATA, add(CFA_XSP16, literal(-10)))
          CFI V3 load(1, XDATA, add(CFA_XSP16, literal(-11)))
          CFI V2 load(1, XDATA, add(CFA_XSP16, literal(-12)))
          CFI V1 load(1, XDATA, add(CFA_XSP16, literal(-13)))
          CFI V0 load(1, XDATA, add(CFA_XSP16, literal(-14)))
          CFI VB load(1, XDATA, add(CFA_XSP16, literal(-15)))
          CFI R6 load(1, XDATA, add(CFA_XSP16, literal(-16)))
          CFI CFA_SP SP+0
          CFI CFA_XSP16 add(XSP16, 16)
        ; Saved register size: 16
        ; Auto size: 5
        MOV       A,#-0x5
        LCALL     ?ALLOC_XSTACK8
          CFI CFA_XSP16 add(XSP16, 21)
        MOV       A,R2
        MOV       R6,A
        MOV       A,R3
        MOV       R7,A
        MOV       ?V4,R1
//  424   char c,i;
//  425   uint8 *p, rst[5];
//  426 
//  427   p = rst;
        MOV       R0,?XSP + 0
        MOV       R1,?XSP + 1
        MOV       ?V6,R0
        MOV       ?V7,R1
        MOV       ?V0,?V6
        MOV       ?V1,?V7
//  428   for ( i=0; i<5; i++,p++ )
        MOV       ?V3,#0x0
??_itoa_0:
        MOV       A,?V3
        CLR       C
        SUBB      A,#0x5
        JNC       ??_itoa_1
//  429   {
//  430     c = num % radix;  // Isolate a digit
        MOV       A,R6
        MOV       R0,A
        MOV       A,R7
        MOV       R1,A
        MOV       A,?V4
        MOV       R2,A
        MOV       R3,#0x0
        LCALL     ?US_DIV_MOD
        MOV       A,R2
        MOV       ?V2,A
//  431     *p = c + (( c < 10 ) ? '0' : '7');  // Convert to Ascii
        MOV       A,?V2
        CLR       C
        SUBB      A,#0xa
        JNC       ??_itoa_2
        MOV       R0,#0x30
        MOV       R1,#0x0
        SJMP      ??_itoa_3
??_itoa_2:
        MOV       R0,#0x37
        MOV       R1,#0x0
??_itoa_3:
        MOV       A,R0
        ADD       A,?V2
        PUSH      A
          CFI CFA_SP SP+-1
        MOV       DPL,?V0
        MOV       DPH,?V1
        POP       A
          CFI CFA_SP SP+0
        MOVX      @DPTR,A
//  432     num /= radix;
        MOV       A,R6
        MOV       R0,A
        MOV       A,R7
        MOV       R1,A
        MOV       A,?V4
        MOV       R2,A
        MOV       R3,#0x0
        LCALL     ?US_DIV_MOD
        MOV       ?V6,R0
        MOV       ?V7,R1
        MOV       R6,?V6
        MOV       R7,?V7
//  433     if ( !num )
        MOV       A,R6
        ORL       A,R7
        JZ        ??_itoa_1
//  434       break;
//  435   }
        INC       ?V3
        MOV       DPL,?V0
        MOV       DPH,?V1
        INC       DPTR
        MOV       ?V0,DPL
        MOV       ?V1,DPH
        SJMP      ??_itoa_0
//  436 
//  437   for ( c=0 ; c<=i; c++ )
??_itoa_1:
        MOV       ?V2,#0x0
??_itoa_4:
        MOV       A,?V3
        CLR       C
        SUBB      A,?V2
        JC        ??_itoa_5
//  438     *buf++ = *p--;  // Reverse character order
        MOV       DPL,?V0
        MOV       DPH,?V1
        MOVX      A,@DPTR
        PUSH      A
          CFI CFA_SP SP+-1
        MOV       DPL,R4
        MOV       DPH,R5
        POP       A
          CFI CFA_SP SP+0
        MOVX      @DPTR,A
        MOV       A,?V0
        ADD       A,#-0x1
        MOV       ?V0,A
        MOV       A,?V1
        ADDC      A,#-0x1
        MOV       ?V1,A
        MOV       DPL,R4
        MOV       DPH,R5
        INC       DPTR
        MOV       R4,DPL
        MOV       R5,DPH
        INC       ?V2
        SJMP      ??_itoa_4
//  439 
//  440   *buf = '\0';
??_itoa_5:
        MOV       DPL,R4
        MOV       DPH,R5
        MOV       A,#0x0
        MOVX      @DPTR,A
//  441 }
        MOV       A,#0x5
        LCALL     ?DEALLOC_XSTACK8
          CFI CFA_XSP16 add(XSP16, 16)
        MOV       R7,#0x8
        LJMP      ?BANKED_LEAVE_XDATA
          CFI EndBlock cfiBlock10
//  442 
//  443 /*********************************************************************
//  444  * @fn        Onboard_rand
//  445  *
//  446  * @brief    Random number generator
//  447  *
//  448  * @param   none
//  449  *
//  450  * @return  uint16 - new random number
//  451  *
//  452  *********************************************************************/

        RSEG BANKED_CODE:HUGECODE:NOROOT(0)
//  453 uint16 Onboard_rand( void )
Onboard_rand:
          CFI Block cfiBlock11 Using cfiCommon0
          CFI Function Onboard_rand
        CODE
//  454 {
        FUNCALL Onboard_rand, macMcuRandomWord
        LOCFRAME ISTACK, 2, STACK
        LOCFRAME PSTACK, 0, STACK
        LOCFRAME XSTACK, 0, STACK
        LOCFRAME IOVERLAY, 0, STATIC
        LOCFRAME DOVERLAY, 0, STATIC
        ARGFRAME ISTACK, 2, STACK
        ARGFRAME PSTACK, 0, STACK
        ARGFRAME XSTACK, 0, STACK
        ARGFRAME IOVERLAY, 0, STATIC
        ARGFRAME DOVERLAY, 0, STATIC
        PUSH      DPL
          CFI DPL0 Frame(CFA_SP, 4)
          CFI CFA_SP SP+-4
        PUSH      DPH
          CFI DPH0 Frame(CFA_SP, 5)
          CFI CFA_SP SP+-5
        ; Saved register size: 2
        ; Auto size: 0
//  455   return ( MAC_RADIO_RANDOM_WORD() );
        ; Setup parameters for call to function macMcuRandomWord
        LCALL     `??macMcuRandomWord::?relay`; Banked call to: macMcuRandomWord
        POP       DPH
          CFI DPH0 SameValue
          CFI CFA_SP SP+-4
        POP       DPL
          CFI DPL0 SameValue
          CFI CFA_SP SP+-3
        LJMP      ?BRET
//  456 }
          CFI EndBlock cfiBlock11
//  457 
//  458 /*********************************************************************
//  459  * @fn        Onboard_wait
//  460  *
//  461  * @brief    Delay wait
//  462  *
//  463  * @param   uint16 - time to wait
//  464  *
//  465  * @return  none
//  466  *
//  467  *********************************************************************/

        RSEG BANKED_CODE:HUGECODE:NOROOT(0)
//  468 void Onboard_wait( uint16 timeout )
Onboard_wait:
          CFI Block cfiBlock12 Using cfiCommon0
          CFI Function Onboard_wait
        CODE
//  469 {
        ; Saved register size: 0
        ; Auto size: 0
//  470   while (timeout--)
??Onboard_wait_0:
        MOV       A,R2
        MOV       R0,A
        MOV       A,R3
        MOV       R1,A
        MOV       A,R0
        ADD       A,#-0x1
        MOV       R2,A
        MOV       A,R1
        ADDC      A,#-0x1
        MOV       R3,A
        MOV       A,R0
        ORL       A,R1
        JZ        ??Onboard_wait_1
//  471   {
//  472     asm("NOP");
        NOP
//  473     asm("NOP");
        NOP
//  474     asm("NOP");
        NOP
        SJMP      ??Onboard_wait_0
//  475   }
//  476 }
??Onboard_wait_1:
        LJMP      ?BRET
          CFI EndBlock cfiBlock12
//  477 
//  478 /*********************************************************************
//  479  * @fn      Onboard_soft_reset
//  480  *
//  481  * @brief   Effect a soft reset.
//  482  *
//  483  * @param   none
//  484  *
//  485  * @return  none
//  486  *
//  487  *********************************************************************/

        RSEG NEAR_CODE:CODE:NOROOT(0)
//  488 __near_func void Onboard_soft_reset( void )
Onboard_soft_reset:
          CFI Block cfiBlock13 Using cfiCommon1
          CFI Function Onboard_soft_reset
        CODE
//  489 {
        ; Saved register size: 0
        ; Auto size: 0
//  490   HAL_DISABLE_INTERRUPTS();
        CLR       0xa8.7
//  491   // Abort all DMA channels to insure that ongoing operations do not
//  492   // interfere with re-configuration.
//  493   DMAARM = 0x80 | 0x1F;
        MOV       0xd6,#-0x61
//  494   asm("LJMP 0x0");
        LJMP 0x0
//  495 }
        RET
          CFI EndBlock cfiBlock13
        REQUIRE _A_IEN0
        REQUIRE DMAARM
//  496 
//  497 #if defined MT_UBL_FUNC
//  498 #if !defined UBL_RC_IMG_PG_BEG
//  499 #define UBL_RC_IMG_PG_BEG  (HAL_SB_CRC_ADDR / HAL_FLASH_PAGE_SIZE)
//  500 #endif
//  501 #if !defined UBL_MD_PG_OFFSET
//  502 #define UBL_MD_PG_OFFSET   (HAL_SB_CRC_ADDR % HAL_FLASH_PAGE_SIZE + 2)
//  503 #endif
//  504 #if !defined UBL_ADDR
//  505 #define UBL_MD_ADDR        (HAL_SB_CRC_ADDR + 2)
//  506 #endif
//  507 
//  508 /*********************************************************************
//  509  * @fn      MT_UblCommandProcessing
//  510  *
//  511  * @brief   Effect a soft reset.
//  512  *
//  513  * @param   pBuf - Pointer to the received MT buffer.
//  514  *
//  515  * @return  MT_RPC_ERR_COMMAND_ID if the MT command is not MT_UBL_ERASE.
//  516  *
//  517  *********************************************************************/
//  518 uint8 MT_UblCommandProcessing(uint8 *pBuf);
//  519 uint8 MT_UblCommandProcessing(uint8 *pBuf)
//  520 {
//  521   if (pBuf[MT_RPC_POS_CMD1] == MT_UBL_ERASE)
//  522   {
//  523     uint16 crc[2];
//  524     HalFlashRead(UBL_RC_IMG_PG_BEG, UBL_MD_PG_OFFSET, (uint8 *)(crc+1), 2);
//  525 
//  526     if (crc[1] != 0)
//  527     {
//  528       crc[1] ^= 0xFFFF;  // Only write to zero bits that are not already zero.
//  529       crc[0] = 0xFFFF;
//  530       HalFlashWrite((UBL_MD_ADDR - 2) / HAL_FLASH_WORD_SIZE, (uint8 *)crc, 1);
//  531     }
//  532 
//  533     Onboard_soft_reset();
//  534   }
//  535 
//  536   return MT_RPC_ERR_COMMAND_ID;
//  537 }
//  538 #endif
//  539 
//  540 /*********************************************************************
//  541  *                    EXTERNAL I/O FUNCTIONS
//  542  *
//  543  * User defined functions to control external devices. Add your code
//  544  * to the following functions to control devices wired to DB outputs.
//  545  *
//  546  *********************************************************************/
//  547 

        RSEG BANKED_CODE:HUGECODE:NOROOT(0)
//  548 void BigLight_On( void )
BigLight_On:
          CFI Block cfiBlock14 Using cfiCommon0
          CFI Function BigLight_On
        CODE
//  549 {
        ; Saved register size: 0
        ; Auto size: 0
//  550   // Put code here to turn on an external light
//  551 }
        LJMP      ?BRET
          CFI EndBlock cfiBlock14
//  552 

        RSEG BANKED_CODE:HUGECODE:NOROOT(0)
//  553 void BigLight_Off( void )
BigLight_Off:
          CFI Block cfiBlock15 Using cfiCommon0
          CFI Function BigLight_Off
        CODE
//  554 {
        ; Saved register size: 0
        ; Auto size: 0
//  555   // Put code here to turn off an external light
//  556 }
        LJMP      ?BRET
          CFI EndBlock cfiBlock15
//  557 

        RSEG BANKED_CODE:HUGECODE:NOROOT(0)
//  558 void BuzzerControl( uint8 on )
BuzzerControl:
          CFI Block cfiBlock16 Using cfiCommon0
          CFI Function BuzzerControl
        CODE
//  559 {
        ; Saved register size: 0
        ; Auto size: 0
//  560   // Put code here to turn a buzzer on/off
//  561   (void)on;
//  562 }
        LJMP      ?BRET
          CFI EndBlock cfiBlock16
//  563 

        RSEG BANKED_CODE:HUGECODE:NOROOT(0)
//  564 void Dimmer( uint8 lvl )
Dimmer:
          CFI Block cfiBlock17 Using cfiCommon0
          CFI Function Dimmer
        CODE
//  565 {
        ; Saved register size: 0
        ; Auto size: 0
//  566   // Put code here to control a dimmer
//  567   (void)lvl;
//  568 }
        LJMP      ?BRET
          CFI EndBlock cfiBlock17
//  569 
//  570 // No dip switches on this board

        RSEG BANKED_CODE:HUGECODE:NOROOT(0)
//  571 uint8 GetUserDipSw( void )
GetUserDipSw:
          CFI Block cfiBlock18 Using cfiCommon0
          CFI Function GetUserDipSw
        CODE
//  572 {
        ; Saved register size: 0
        ; Auto size: 0
//  573   return 0;
        MOV       R1,#0x0
        LJMP      ?BRET
//  574 }
          CFI EndBlock cfiBlock18

        RSEG XDATA_ID:CODE:NOROOT(0)
`?<Initializer for registeredKeysTaskID>`:
        DATA8
        DB 255

        RSEG XDATA_ID:CODE:NOROOT(0)
`?<Initializer for registeredSW2KeysTaskID>`:
        DATA8
        DB 255

        RSEG XDATA_ID:CODE:NOROOT(0)
`?<Initializer for registeredSW3KeysTaskID>`:
        DATA8
        DB 255

        RSEG BANK_RELAYS:CODE:REORDER:NOROOT(0)
`??InitBoard::?relay`:
        CODE
        LCALL   ?BDISPATCH
        DATA24
        DC24    InitBoard

        RSEG BANK_RELAYS:CODE:REORDER:NOROOT(0)
`??ChkReset::?relay`:
        CODE
        LCALL   ?BDISPATCH
        DATA24
        DC24    ChkReset

        RSEG BANK_RELAYS:CODE:REORDER:NOROOT(0)
`??RegisterForKeys::?relay`:
        CODE
        LCALL   ?BDISPATCH
        DATA24
        DC24    RegisterForKeys

        RSEG BANK_RELAYS:CODE:REORDER:NOROOT(0)
`??RegisterSW2ForKeys::?relay`:
        CODE
        LCALL   ?BDISPATCH
        DATA24
        DC24    RegisterSW2ForKeys

        RSEG BANK_RELAYS:CODE:REORDER:NOROOT(0)
`??RegisterSW3ForKeys::?relay`:
        CODE
        LCALL   ?BDISPATCH
        DATA24
        DC24    RegisterSW3ForKeys

        RSEG BANK_RELAYS:CODE:REORDER:NOROOT(0)
`??OnBoard_SendKeys::?relay`:
        CODE
        LCALL   ?BDISPATCH
        DATA24
        DC24    OnBoard_SendKeys

        RSEG BANK_RELAYS:CODE:REORDER:NOROOT(0)
`??OnBoard_KeyCallback::?relay`:
        CODE
        LCALL   ?BDISPATCH
        DATA24
        DC24    OnBoard_KeyCallback

        RSEG BANK_RELAYS:CODE:REORDER:NOROOT(0)
`??RegisterVoltageWarningCB::?relay`:
        CODE
        LCALL   ?BDISPATCH
        DATA24
        DC24    RegisterVoltageWarningCB

        RSEG BANK_RELAYS:CODE:REORDER:NOROOT(0)
`??OnBoard_CheckVoltage::?relay`:
        CODE
        LCALL   ?BDISPATCH
        DATA24
        DC24    OnBoard_CheckVoltage

        RSEG BANK_RELAYS:CODE:REORDER:NOROOT(0)
`??OnBoard_stack_used::?relay`:
        CODE
        LCALL   ?BDISPATCH
        DATA24
        DC24    OnBoard_stack_used

        RSEG BANK_RELAYS:CODE:REORDER:NOROOT(0)
`??_itoa::?relay`:
        CODE
        LCALL   ?BDISPATCH
        DATA24
        DC24    _itoa

        RSEG BANK_RELAYS:CODE:REORDER:NOROOT(0)
`??Onboard_rand::?relay`:
        CODE
        LCALL   ?BDISPATCH
        DATA24
        DC24    Onboard_rand

        RSEG BANK_RELAYS:CODE:REORDER:NOROOT(0)
`??Onboard_wait::?relay`:
        CODE
        LCALL   ?BDISPATCH
        DATA24
        DC24    Onboard_wait

        RSEG BANK_RELAYS:CODE:REORDER:NOROOT(0)
`??BigLight_On::?relay`:
        CODE
        LCALL   ?BDISPATCH
        DATA24
        DC24    BigLight_On

        RSEG BANK_RELAYS:CODE:REORDER:NOROOT(0)
`??BigLight_Off::?relay`:
        CODE
        LCALL   ?BDISPATCH
        DATA24
        DC24    BigLight_Off

        RSEG BANK_RELAYS:CODE:REORDER:NOROOT(0)
`??BuzzerControl::?relay`:
        CODE
        LCALL   ?BDISPATCH
        DATA24
        DC24    BuzzerControl

        RSEG BANK_RELAYS:CODE:REORDER:NOROOT(0)
`??Dimmer::?relay`:
        CODE
        LCALL   ?BDISPATCH
        DATA24
        DC24    Dimmer

        RSEG BANK_RELAYS:CODE:REORDER:NOROOT(0)
`??GetUserDipSw::?relay`:
        CODE
        LCALL   ?BDISPATCH
        DATA24
        DC24    GetUserDipSw

        RSEG XSTACK:DATA:REORDER:NOROOT(0)

        END
//  575 
//  576 /*********************************************************************
//  577 *********************************************************************/
// 
//   723 bytes in segment BANKED_CODE
//   108 bytes in segment BANK_RELAYS
//     8 bytes in segment IEEE_ADDRESS_SPACE
//    16 bytes in segment LOCK_BITS_ADDRESS_SPACE
//     9 bytes in segment NEAR_CODE
// 1 932 bytes in segment RESERVED_ADDRESS_SPACE
//     3 bytes in segment SFR_AN
//     3 bytes in segment XDATA_I
//     3 bytes in segment XDATA_ID
//    10 bytes in segment XDATA_Z
// 
//   120 bytes of CODE     memory
//     0 bytes of DATA     memory (+ 3 bytes shared)
//   723 bytes of HUGECODE memory
// 1 969 bytes of XDATA    memory
//
//Errors: none
//Warnings: none
