///////////////////////////////////////////////////////////////////////////////
//
// IAR C/C++ Compiler V10.30.1.6000 for 8051              30/Jul/2020  16:03:42
// Copyright 2004-2018 IAR Systems AB.
// PC-locked license - IAR Embedded Workbench for 8051
//
//    Core               =  plain
//    Code model         =  banked
//    Data model         =  large
//    Calling convention =  xdata reentrant
//    Constant location  =  data_rom
//    Dptr setup         =  1,16
//                          
//    Source file        =  
//        D:\AA\Z-Stack
//        3.0.2\Projects\zstack\HomeAutomation\SampleSwitch\Source\zcl_samplesw.c
//    Command line       =  
//        -f C:\Users\sunli\AppData\Local\Temp\EWF62.tmp ("D:\AA\Z-Stack
//        3.0.2\Projects\zstack\HomeAutomation\SampleSwitch\Source\zcl_samplesw.c"
//        -D SECURE=1 -D TC_LINKKEY_JOIN -D NV_INIT -D NV_RESTORE -D
//        xPOWER_SAVING -D NWK_AUTO_POLL -D xZTOOL_P1 -D xMT_TASK -D
//        xMT_APP_FUNC -D xMT_SYS_FUNC -D xMT_ZDO_FUNC -D xMT_ZDO_MGMT -D
//        xMT_APP_CNF_FUNC -D LCD_SUPPORTED=DEBUG -D MULTICAST_ENABLED=FALSE -D
//        ZCL_READ -D ZCL_DISCOVER -D ZCL_WRITE -D ZCL_BASIC -D ZCL_IDENTIFY -D
//        ZCL_ON_OFF -D ZCL_GROUPS -D BDB_TL_INITIATOR -D INTER_PAN -lC
//        "D:\AA\Z-Stack
//        3.0.2\Projects\zstack\HomeAutomation\SampleSwitch\CC2530DB\EndDeviceEB\List"
//        -lA "D:\AA\Z-Stack
//        3.0.2\Projects\zstack\HomeAutomation\SampleSwitch\CC2530DB\EndDeviceEB\List"
//        --diag_suppress Pe001,Pa010 -o "D:\AA\Z-Stack
//        3.0.2\Projects\zstack\HomeAutomation\SampleSwitch\CC2530DB\EndDeviceEB\Obj"
//        -e --debug --core=plain --dptr=16,1 --data_model=large
//        --code_model=banked --calling_convention=xdata_reentrant
//        --place_constants=data_rom --nr_virtual_regs 16 -f "D:\AA\Z-Stack
//        3.0.2\Projects\zstack\HomeAutomation\SampleSwitch\CC2530DB\..\..\..\Tools\CC2530DB\f8wEndev.cfg"
//        (-DCPU32MHZ -DROOT=__near_func -DMAC_CFG_TX_DATA_MAX=3
//        -DMAC_CFG_TX_MAX=6 -DMAC_CFG_RX_MAX=3) -f "D:\AA\Z-Stack
//        3.0.2\Projects\zstack\HomeAutomation\SampleSwitch\CC2530DB\..\..\..\Tools\CC2530DB\f8wConfig.cfg"
//        (-DZIGBEEPRO -DSECURE=1 -DZG_SECURE_DYNAMIC=0 -DREFLECTOR
//        -DDEFAULT_CHANLIST=0x00000800 -DZDAPP_CONFIG_PAN_ID=0xFFFF
//        -DNWK_START_DELAY=100 -DEXTENDED_JOINING_RANDOM_MASK=0x007F
//        -DBEACON_REQUEST_DELAY=100 -DBEACON_REQ_DELAY_MASK=0x00FF
//        -DLINK_STATUS_JITTER_MASK=0x007F -DROUTE_EXPIRY_TIME=30
//        -DAPSC_ACK_WAIT_DURATION_POLLED=3000 -DNWK_INDIRECT_MSG_TIMEOUT=7
//        -DMAX_RREQ_ENTRIES=8 -DAPSC_MAX_FRAME_RETRIES=3
//        -DNWK_MAX_DATA_RETRIES=2 -DMAX_POLL_FAILURE_RETRIES=2 -DMAX_BCAST=9
//        -DAPS_MAX_GROUPS=16 -DMAX_RTG_ENTRIES=40 -DNWK_MAX_BINDING_ENTRIES=4
//        -DMAX_BINDING_CLUSTER_IDS=4 -DDEFAULT_KEY={0}
//        -DMAC_MAX_FRAME_SIZE=116 -DZDNWKMGR_MIN_TRANSMISSIONS=20
//        "-DCONST=const __code" -DGENERIC=__generic -DRFD_RCVC_ALWAYS_ON=FALSE
//        -DPOLL_RATE=1000 -DQUEUED_POLL_RATE=100 -DRESPONSE_POLL_RATE=100
//        -DREJOIN_POLL_RATE=440 -DREJOIN_BACKOFF=900000 -DREJOIN_SCAN=900000
//        -DENABLE_LED4_DISABLE_S1) -f "D:\AA\Z-Stack
//        3.0.2\Projects\zstack\HomeAutomation\SampleSwitch\CC2530DB\..\..\..\Tools\CC2530DB\f8wZCL.cfg"
//        -I "D:\AA\Z-Stack
//        3.0.2\Projects\zstack\HomeAutomation\SampleSwitch\CC2530DB\" -I
//        "D:\AA\Z-Stack
//        3.0.2\Projects\zstack\HomeAutomation\SampleSwitch\CC2530DB\..\Source\"
//        -I "D:\AA\Z-Stack
//        3.0.2\Projects\zstack\HomeAutomation\SampleSwitch\CC2530DB\..\..\Source\"
//        -I "D:\AA\Z-Stack
//        3.0.2\Projects\zstack\HomeAutomation\SampleSwitch\CC2530DB\..\..\..\ZMain\TI2530DB\"
//        -I "D:\AA\Z-Stack
//        3.0.2\Projects\zstack\HomeAutomation\SampleSwitch\CC2530DB\..\..\..\..\..\Components\hal\include\"
//        -I "D:\AA\Z-Stack
//        3.0.2\Projects\zstack\HomeAutomation\SampleSwitch\CC2530DB\..\..\..\..\..\Components\hal\target\CC2530EB\"
//        -I "D:\AA\Z-Stack
//        3.0.2\Projects\zstack\HomeAutomation\SampleSwitch\CC2530DB\..\..\..\..\..\Components\mac\include\"
//        -I "D:\AA\Z-Stack
//        3.0.2\Projects\zstack\HomeAutomation\SampleSwitch\CC2530DB\..\..\..\..\..\Components\mac\high_level\"
//        -I "D:\AA\Z-Stack
//        3.0.2\Projects\zstack\HomeAutomation\SampleSwitch\CC2530DB\..\..\..\..\..\Components\mac\low_level\srf04\"
//        -I "D:\AA\Z-Stack
//        3.0.2\Projects\zstack\HomeAutomation\SampleSwitch\CC2530DB\..\..\..\..\..\Components\mac\low_level\srf04\single_chip\"
//        -I "D:\AA\Z-Stack
//        3.0.2\Projects\zstack\HomeAutomation\SampleSwitch\CC2530DB\..\..\..\..\..\Components\mt\"
//        -I "D:\AA\Z-Stack
//        3.0.2\Projects\zstack\HomeAutomation\SampleSwitch\CC2530DB\..\..\..\..\..\Components\osal\include\"
//        -I "D:\AA\Z-Stack
//        3.0.2\Projects\zstack\HomeAutomation\SampleSwitch\CC2530DB\..\..\..\..\..\Components\services\saddr\"
//        -I "D:\AA\Z-Stack
//        3.0.2\Projects\zstack\HomeAutomation\SampleSwitch\CC2530DB\..\..\..\..\..\Components\services\sdata\"
//        -I "D:\AA\Z-Stack
//        3.0.2\Projects\zstack\HomeAutomation\SampleSwitch\CC2530DB\..\..\..\..\..\Components\stack\af\"
//        -I "D:\AA\Z-Stack
//        3.0.2\Projects\zstack\HomeAutomation\SampleSwitch\CC2530DB\..\..\..\..\..\Components\stack\bdb\"
//        -I "D:\AA\Z-Stack
//        3.0.2\Projects\zstack\HomeAutomation\SampleSwitch\CC2530DB\..\..\..\..\..\Components\stack\gp\"
//        -I "D:\AA\Z-Stack
//        3.0.2\Projects\zstack\HomeAutomation\SampleSwitch\CC2530DB\..\..\..\..\..\Components\stack\nwk\"
//        -I "D:\AA\Z-Stack
//        3.0.2\Projects\zstack\HomeAutomation\SampleSwitch\CC2530DB\..\..\..\..\..\Components\stack\sapi\"
//        -I "D:\AA\Z-Stack
//        3.0.2\Projects\zstack\HomeAutomation\SampleSwitch\CC2530DB\..\..\..\..\..\Components\stack\sec\"
//        -I "D:\AA\Z-Stack
//        3.0.2\Projects\zstack\HomeAutomation\SampleSwitch\CC2530DB\..\..\..\..\..\Components\stack\sys\"
//        -I "D:\AA\Z-Stack
//        3.0.2\Projects\zstack\HomeAutomation\SampleSwitch\CC2530DB\..\..\..\..\..\Components\stack\zcl\"
//        -I "D:\AA\Z-Stack
//        3.0.2\Projects\zstack\HomeAutomation\SampleSwitch\CC2530DB\..\..\..\..\..\Components\stack\zdo\"
//        -I "D:\AA\Z-Stack
//        3.0.2\Projects\zstack\HomeAutomation\SampleSwitch\CC2530DB\..\..\..\..\..\Components\zmac\"
//        -I "D:\AA\Z-Stack
//        3.0.2\Projects\zstack\HomeAutomation\SampleSwitch\CC2530DB\..\..\..\..\..\Components\zmac\f8w\"
//        -On --require_prototypes --no_cse --no_unroll --no_inline
//        --no_code_motion --no_tbaa --no_cross_call)
//    Locale             =  Chinese (Simplified)_CHN.936
//    List file          =  
//        D:\AA\Z-Stack
//        3.0.2\Projects\zstack\HomeAutomation\SampleSwitch\CC2530DB\EndDeviceEB\List\zcl_samplesw.s51
//
///////////////////////////////////////////////////////////////////////////////

        NAME zcl_samplesw

        RTMODEL "__SystemLibrary", "CLib"
        RTMODEL "__calling_convention", "xdata_reentrant"
        RTMODEL "__code_model", "banked"
        RTMODEL "__core", "plain"
        RTMODEL "__data_model", "large"
        RTMODEL "__dptr_size", "16"
        RTMODEL "__extended_stack", "disabled"
        RTMODEL "__location_for_constants", "data"
        RTMODEL "__number_of_dptrs", "1"
        RTMODEL "__register_banks", "*"
        RTMODEL "__rt_version", "1"

        RSEG DOVERLAY:DATA:NOROOT(0)
        RSEG IOVERLAY:IDATA:NOROOT(0)
        RSEG ISTACK:IDATA:NOROOT(0)
        RSEG PSTACK:XDATA:NOROOT(0)
        RSEG XSTACK:XDATA:NOROOT(0)

        EXTERN ?V0
        EXTERN ?V1
        EXTERN ?V2
        EXTERN ?V3
        EXTERN ?V4
        EXTERN ?V5
        EXTERN ?BANKED_ENTER_XDATA
        EXTERN ?BANKED_LEAVE_XDATA
        EXTERN ?BDISPATCH
        EXTERN ?BRET
        EXTERN ?DEALLOC_XSTACK8
        EXTERN ?PUSH_XSTACK8_X_FOUR
        EXTERN ?PUSH_XSTACK_I_ONE
        EXTERN ?PUSH_XSTACK_I_TWO
        EXTERN __INIT_XDATA_I
        EXTERN __INIT_XDATA_Z

        FUNCTION `??Send_To_SW1::?relay`,0203H
        FUNCTION `??Send_To_SW2::?relay`,0203H
        FUNCTION `??zclSampleApp_BatteryWarningCB::?relay`,0203H
        FUNCTION `??zclSampleSw_BasicResetCB::?relay`,0203H
        FUNCTION `??zclSampleSw_HandleKeys::?relay`,0203H
        PUBLIC `??zclSampleSw_Init::?relay`
        FUNCTION `??zclSampleSw_Init::?relay`,0203H
        FUNCTION `??zclSampleSw_ProcessCommissioningStatus::?rela`,0203H
        FUNCTION `??zclSampleSw_ProcessInDefaultRspCmd::?relay`,0203H
        FUNCTION `??zclSampleSw_ProcessInDiscAttrsExtRspCmd::?rel`,0203H
        FUNCTION `??zclSampleSw_ProcessInDiscAttrsRspCmd::?relay`,0203H
        FUNCTION `??zclSampleSw_ProcessInDiscCmdsRspCmd::?relay`,0203H
        FUNCTION `??zclSampleSw_ProcessInReadRspCmd::?relay`,0203H
        FUNCTION `??zclSampleSw_ProcessInWriteRspCmd::?relay`,0203H
        FUNCTION `??zclSampleSw_ProcessIncomingMsg::?relay`,0203H
        PUBLIC `??zclSampleSw_event_loop::?relay`
        FUNCTION `??zclSampleSw_event_loop::?relay`,0203H
        PUBLIC SW_DstAddr
        FUNCTION Send_To_SW1,0a1203H
        ARGFRAME XSTACK, 14, STACK
        ARGFRAME IOVERLAY, 0, STATIC
        ARGFRAME DOVERLAY, 0, STATIC
        LOCFRAME XSTACK, 21, STACK
        FUNCTION Send_To_SW2,0a1203H
        ARGFRAME XSTACK, 14, STACK
        ARGFRAME IOVERLAY, 0, STATIC
        ARGFRAME DOVERLAY, 0, STATIC
        LOCFRAME XSTACK, 21, STACK
        PUBLIC SourceAddr
        PUBWEAK __Constant_1f4
        PUBWEAK __Constant_2710
        FUNCTION zclSampleApp_BatteryWarningCB,0603H
        ARGFRAME XSTACK, 0, STACK
        PUBLIC zclSampleSwSeqNum
        FUNCTION zclSampleSw_BasicResetCB,021603H
        ARGFRAME XSTACK, 0, STACK
        LOCFRAME ISTACK, 2, STACK
        PUBLIC zclSampleSw_DstAddr
        FUNCTION zclSampleSw_HandleKeys,021203H
        ARGFRAME XSTACK, 14, STACK
        ARGFRAME IOVERLAY, 0, STATIC
        ARGFRAME DOVERLAY, 0, STATIC
        LOCFRAME XSTACK, 9, STACK
        PUBLIC zclSampleSw_Init
        FUNCTION zclSampleSw_Init,021203H
        ARGFRAME XSTACK, 0, STACK
        LOCFRAME XSTACK, 9, STACK
        PUBLIC zclSampleSw_NwkState
        PUBLIC zclSampleSw_OnOffSwitchActions
        PUBLIC zclSampleSw_OnOffSwitchType
        FUNCTION zclSampleSw_ProcessCommissioningStatus,021603H
        ARGFRAME XSTACK, 0, STACK
        LOCFRAME XSTACK, 13, STACK
        FUNCTION zclSampleSw_ProcessInDefaultRspCmd,0203H
        ARGFRAME XSTACK, 9, STACK
        ARGFRAME IOVERLAY, 0, STATIC
        ARGFRAME DOVERLAY, 0, STATIC
        FUNCTION zclSampleSw_ProcessInDiscAttrsExtRspCmd,0203H
        ARGFRAME XSTACK, 9, STACK
        ARGFRAME IOVERLAY, 0, STATIC
        ARGFRAME DOVERLAY, 0, STATIC
        LOCFRAME XSTACK, 9, STACK
        FUNCTION zclSampleSw_ProcessInDiscAttrsRspCmd,0203H
        ARGFRAME XSTACK, 9, STACK
        ARGFRAME IOVERLAY, 0, STATIC
        ARGFRAME DOVERLAY, 0, STATIC
        LOCFRAME XSTACK, 9, STACK
        FUNCTION zclSampleSw_ProcessInDiscCmdsRspCmd,0203H
        ARGFRAME XSTACK, 9, STACK
        ARGFRAME IOVERLAY, 0, STATIC
        ARGFRAME DOVERLAY, 0, STATIC
        LOCFRAME XSTACK, 9, STACK
        FUNCTION zclSampleSw_ProcessInReadRspCmd,0203H
        ARGFRAME XSTACK, 9, STACK
        ARGFRAME IOVERLAY, 0, STATIC
        ARGFRAME DOVERLAY, 0, STATIC
        LOCFRAME XSTACK, 9, STACK
        FUNCTION zclSampleSw_ProcessInWriteRspCmd,0203H
        ARGFRAME XSTACK, 9, STACK
        ARGFRAME IOVERLAY, 0, STATIC
        ARGFRAME DOVERLAY, 0, STATIC
        LOCFRAME XSTACK, 9, STACK
        FUNCTION zclSampleSw_ProcessIncomingMsg,021203H
        ARGFRAME XSTACK, 14, STACK
        ARGFRAME IOVERLAY, 0, STATIC
        ARGFRAME DOVERLAY, 0, STATIC
        LOCFRAME XSTACK, 9, STACK
        PUBLIC zclSampleSw_TaskID
        PUBLIC zclSampleSw_event_loop
        FUNCTION zclSampleSw_event_loop,0a1203H
        ARGFRAME XSTACK, 0, STACK
        LOCFRAME XSTACK, 25, STACK
        
          CFI Names cfiNames0
          CFI StackFrame CFA_SP SP IDATA
          CFI StackFrame CFA_PSP16 PSP16 XDATA
          CFI StackFrame CFA_XSP16 XSP16 XDATA
          CFI StaticOverlayFrame CFA_IOVERLAY IOVERLAY
          CFI StaticOverlayFrame CFA_DOVERLAY DOVERLAY
          CFI Resource `PSW.CY`:1, `B.BR0`:1, `B.BR1`:1, `B.BR2`:1, `B.BR3`:1
          CFI Resource `B.BR4`:1, `B.BR5`:1, `B.BR6`:1, `B.BR7`:1, `VB.BR8`:1
          CFI Resource `VB.BR9`:1, `VB.BR10`:1, `VB.BR11`:1, `VB.BR12`:1
          CFI Resource `VB.BR13`:1, `VB.BR14`:1, `VB.BR15`:1, VB:8, B:8, A:8
          CFI Resource PSW:8, DPL0:8, DPH0:8, R0:8, R1:8, R2:8, R3:8, R4:8, R5:8
          CFI Resource R6:8, R7:8, V0:8, V1:8, V2:8, V3:8, V4:8, V5:8, V6:8, V7:8
          CFI Resource V8:8, V9:8, V10:8, V11:8, V12:8, V13:8, V14:8, V15:8, SP:8
          CFI Resource PSPH:8, PSPL:8, PSP16:16, XSPH:8, XSPL:8, XSP16:16
          CFI VirtualResource ?RET:24
          CFI Resource ?BRET_EXT:8
          CFI VirtualResource ?RET_HIGH:8, ?RET_LOW:8
          CFI ResourceParts PSP16 PSPH, PSPL
          CFI ResourceParts XSP16 XSPH, XSPL
          CFI ResourceParts ?RET ?BRET_EXT, ?RET_HIGH, ?RET_LOW
          CFI EndNames cfiNames0
        
          CFI Common cfiCommon0 Using cfiNames0
          CFI CodeAlign 1
          CFI DataAlign -1
          CFI ReturnAddress ?RET CODE
          CFI CFA_DOVERLAY Used
          CFI CFA_IOVERLAY Used
          CFI CFA_SP SP+-3
          CFI CFA_PSP16 PSP16+0
          CFI CFA_XSP16 XSP16+0
          CFI `PSW.CY` SameValue
          CFI `B.BR0` SameValue
          CFI `B.BR1` SameValue
          CFI `B.BR2` SameValue
          CFI `B.BR3` SameValue
          CFI `B.BR4` SameValue
          CFI `B.BR5` SameValue
          CFI `B.BR6` SameValue
          CFI `B.BR7` SameValue
          CFI `VB.BR8` SameValue
          CFI `VB.BR9` SameValue
          CFI `VB.BR10` SameValue
          CFI `VB.BR11` SameValue
          CFI `VB.BR12` SameValue
          CFI `VB.BR13` SameValue
          CFI `VB.BR14` SameValue
          CFI `VB.BR15` SameValue
          CFI VB SameValue
          CFI B Undefined
          CFI A Undefined
          CFI PSW SameValue
          CFI DPL0 SameValue
          CFI DPH0 SameValue
          CFI R0 Undefined
          CFI R1 Undefined
          CFI R2 Undefined
          CFI R3 Undefined
          CFI R4 Undefined
          CFI R5 Undefined
          CFI R6 SameValue
          CFI R7 SameValue
          CFI V0 SameValue
          CFI V1 SameValue
          CFI V2 SameValue
          CFI V3 SameValue
          CFI V4 SameValue
          CFI V5 SameValue
          CFI V6 SameValue
          CFI V7 SameValue
          CFI V8 SameValue
          CFI V9 SameValue
          CFI V10 SameValue
          CFI V11 SameValue
          CFI V12 SameValue
          CFI V13 SameValue
          CFI V14 SameValue
          CFI V15 SameValue
          CFI PSPH Undefined
          CFI PSPL Undefined
          CFI XSPH Undefined
          CFI XSPL Undefined
          CFI ?RET Concat
          CFI ?BRET_EXT Frame(CFA_SP, 3)
          CFI ?RET_HIGH Frame(CFA_SP, 2)
          CFI ?RET_LOW Frame(CFA_SP, 1)
          CFI EndCommon cfiCommon0
        
HalLedSet           SYMBOL "HalLedSet"
`??HalLedSet::?relay` SYMBOL "?relay", HalLedSet
RegisterForKeys     SYMBOL "RegisterForKeys"
`??RegisterForKeys::?relay` SYMBOL "?relay", RegisterForKeys
RegisterForUart0    SYMBOL "RegisterForUart0"
`??RegisterForUart0::?relay` SYMBOL "?relay", RegisterForUart0
RegisterVoltageWarningCB SYMBOL "RegisterVoltageWarningCB"
`??RegisterVoltageWarningCB::?relay` SYMBOL "?relay", RegisterVoltageWarningCB
Uart0_Init          SYMBOL "Uart0_Init"
`??Uart0_Init::?relay` SYMBOL "?relay", Uart0_Init
bdb_RegisterCommissioningStatusCB SYMBOL "bdb_RegisterCommissioningStatusCB"
`??bdb_RegisterCommissioningStatusCB::?relay` SYMBOL "?relay", bdb_RegisterCommissioningStatusCB
bdb_RegisterSimpleDescriptor SYMBOL "bdb_RegisterSimpleDescriptor"
`??bdb_RegisterSimpleDescriptor::?relay` SYMBOL "?relay", bdb_RegisterSimpleDescriptor
bdb_StartCommissioning SYMBOL "bdb_StartCommissioning"
`??bdb_StartCommissioning::?relay` SYMBOL "?relay", bdb_StartCommissioning
bdb_ZedAttemptRecoverNwk SYMBOL "bdb_ZedAttemptRecoverNwk"
`??bdb_ZedAttemptRecoverNwk::?relay` SYMBOL "?relay", bdb_ZedAttemptRecoverNwk
osal_mem_free       SYMBOL "osal_mem_free"
`??osal_mem_free::?relay` SYMBOL "?relay", osal_mem_free
osal_msg_deallocate SYMBOL "osal_msg_deallocate"
`??osal_msg_deallocate::?relay` SYMBOL "?relay", osal_msg_deallocate
osal_msg_receive    SYMBOL "osal_msg_receive"
`??osal_msg_receive::?relay` SYMBOL "?relay", osal_msg_receive
osal_start_timerEx  SYMBOL "osal_start_timerEx"
`??osal_start_timerEx::?relay` SYMBOL "?relay", osal_start_timerEx
printf              SYMBOL "printf"
`??printf::?relay`  SYMBOL "?relay", printf
touchLinkInitiator_ResetToFNSelectedTarget SYMBOL "touchLinkInitiator_ResetToFNSelectedTarget"
`??touchLinkInitiator_ResetToFNSelectedTarget::?` SYMBOL "?relay", touchLinkInitiator_ResetToFNSelectedTarget
touchLinkInitiator_StartDevDisc SYMBOL "touchLinkInitiator_StartDevDisc"
`??touchLinkInitiator_StartDevDisc::?relay` SYMBOL "?relay", touchLinkInitiator_StartDevDisc
zclGeneral_RegisterCmdCallbacks SYMBOL "zclGeneral_RegisterCmdCallbacks"
`??zclGeneral_RegisterCmdCallbacks::?relay` SYMBOL "?relay", zclGeneral_RegisterCmdCallbacks
zclSampleSw_ResetAttributesToDefaultValues SYMBOL "zclSampleSw_ResetAttributesToDefaultValues"
`??zclSampleSw_ResetAttributesToDefaultValues::?` SYMBOL "?relay", zclSampleSw_ResetAttributesToDefaultValues
zcl_SendCommand     SYMBOL "zcl_SendCommand"
`??zcl_SendCommand::?relay` SYMBOL "?relay", zcl_SendCommand
zcl_registerAttrList SYMBOL "zcl_registerAttrList"
`??zcl_registerAttrList::?relay` SYMBOL "?relay", zcl_registerAttrList
zcl_registerForMsg  SYMBOL "zcl_registerForMsg"
`??zcl_registerForMsg::?relay` SYMBOL "?relay", zcl_registerForMsg
zclSampleSw_Init    SYMBOL "zclSampleSw_Init"
`??zclSampleSw_Init::?relay` SYMBOL "?relay", zclSampleSw_Init
zclSampleSw_event_loop SYMBOL "zclSampleSw_event_loop"
`??zclSampleSw_event_loop::?relay` SYMBOL "?relay", zclSampleSw_event_loop

        EXTERN `??HalLedSet::?relay`
        FUNCTION `??HalLedSet::?relay`,00H
        EXTERN `??RegisterForKeys::?relay`
        FUNCTION `??RegisterForKeys::?relay`,00H
        EXTERN `??RegisterForUart0::?relay`
        FUNCTION `??RegisterForUart0::?relay`,00H
        EXTERN `??RegisterVoltageWarningCB::?relay`
        FUNCTION `??RegisterVoltageWarningCB::?relay`,00H
        EXTERN `??Uart0_Init::?relay`
        FUNCTION `??Uart0_Init::?relay`,00H
        EXTERN `??bdb_RegisterCommissioningStatusCB::?relay`
        FUNCTION `??bdb_RegisterCommissioningStatusCB::?relay`,00H
        EXTERN `??bdb_RegisterSimpleDescriptor::?relay`
        FUNCTION `??bdb_RegisterSimpleDescriptor::?relay`,00H
        EXTERN `??bdb_StartCommissioning::?relay`
        FUNCTION `??bdb_StartCommissioning::?relay`,00H
        EXTERN `??bdb_ZedAttemptRecoverNwk::?relay`
        FUNCTION `??bdb_ZedAttemptRecoverNwk::?relay`,00H
        EXTERN `??osal_mem_free::?relay`
        FUNCTION `??osal_mem_free::?relay`,00H
        EXTERN `??osal_msg_deallocate::?relay`
        FUNCTION `??osal_msg_deallocate::?relay`,00H
        EXTERN `??osal_msg_receive::?relay`
        FUNCTION `??osal_msg_receive::?relay`,00H
        EXTERN `??osal_start_timerEx::?relay`
        FUNCTION `??osal_start_timerEx::?relay`,00H
        EXTERN `??printf::?relay`
        FUNCTION `??printf::?relay`,00H
        EXTERN `??touchLinkInitiator_ResetToFNSelectedTarget::?`
        FUNCTION `??touchLinkInitiator_ResetToFNSelectedTarget::?`,00H
        EXTERN `??touchLinkInitiator_StartDevDisc::?relay`
        FUNCTION `??touchLinkInitiator_StartDevDisc::?relay`,00H
        EXTERN `??zclGeneral_RegisterCmdCallbacks::?relay`
        FUNCTION `??zclGeneral_RegisterCmdCallbacks::?relay`,00H
        EXTERN `??zclSampleSw_ResetAttributesToDefaultValues::?`
        FUNCTION `??zclSampleSw_ResetAttributesToDefaultValues::?`,00H
        EXTERN `??zcl_SendCommand::?relay`
        FUNCTION `??zcl_SendCommand::?relay`,00H
        EXTERN `??zcl_registerAttrList::?relay`
        FUNCTION `??zcl_registerAttrList::?relay`,00H
        EXTERN `??zcl_registerForMsg::?relay`
        FUNCTION `??zcl_registerForMsg::?relay`,00H
        EXTERN HalLedSet
        FUNCTION HalLedSet,0202H
        ARGFRAME ISTACK, 0, STACK
        ARGFRAME PSTACK, 0, STACK
        ARGFRAME XSTACK, 9, STACK
        ARGFRAME IOVERLAY, 0, STATIC
        ARGFRAME DOVERLAY, 0, STATIC
        EXTERN RegisterForKeys
        FUNCTION RegisterForKeys,0202H
        ARGFRAME ISTACK, 0, STACK
        ARGFRAME PSTACK, 0, STACK
        ARGFRAME XSTACK, 9, STACK
        ARGFRAME IOVERLAY, 0, STATIC
        ARGFRAME DOVERLAY, 0, STATIC
        EXTERN RegisterForUart0
        FUNCTION RegisterForUart0,0202H
        ARGFRAME ISTACK, 0, STACK
        ARGFRAME PSTACK, 0, STACK
        ARGFRAME XSTACK, 9, STACK
        ARGFRAME IOVERLAY, 0, STATIC
        ARGFRAME DOVERLAY, 0, STATIC
        EXTERN RegisterVoltageWarningCB
        FUNCTION RegisterVoltageWarningCB,0202H
        ARGFRAME ISTACK, 0, STACK
        ARGFRAME PSTACK, 0, STACK
        ARGFRAME XSTACK, 9, STACK
        ARGFRAME IOVERLAY, 0, STATIC
        ARGFRAME DOVERLAY, 0, STATIC
        EXTERN Uart0_Init
        FUNCTION Uart0_Init,0202H
        ARGFRAME ISTACK, 0, STACK
        ARGFRAME PSTACK, 0, STACK
        ARGFRAME XSTACK, 9, STACK
        ARGFRAME IOVERLAY, 0, STATIC
        ARGFRAME DOVERLAY, 0, STATIC
        EXTERN bdb_RegisterCommissioningStatusCB
        FUNCTION bdb_RegisterCommissioningStatusCB,0202H
        ARGFRAME ISTACK, 0, STACK
        ARGFRAME PSTACK, 0, STACK
        ARGFRAME XSTACK, 9, STACK
        ARGFRAME IOVERLAY, 0, STATIC
        ARGFRAME DOVERLAY, 0, STATIC
        EXTERN bdb_RegisterSimpleDescriptor
        FUNCTION bdb_RegisterSimpleDescriptor,0202H
        ARGFRAME ISTACK, 0, STACK
        ARGFRAME PSTACK, 0, STACK
        ARGFRAME XSTACK, 9, STACK
        ARGFRAME IOVERLAY, 0, STATIC
        ARGFRAME DOVERLAY, 0, STATIC
        EXTERN bdb_StartCommissioning
        FUNCTION bdb_StartCommissioning,0202H
        ARGFRAME ISTACK, 0, STACK
        ARGFRAME PSTACK, 0, STACK
        ARGFRAME XSTACK, 9, STACK
        ARGFRAME IOVERLAY, 0, STATIC
        ARGFRAME DOVERLAY, 0, STATIC
        EXTERN bdb_ZedAttemptRecoverNwk
        FUNCTION bdb_ZedAttemptRecoverNwk,0202H
        ARGFRAME ISTACK, 0, STACK
        ARGFRAME PSTACK, 0, STACK
        ARGFRAME XSTACK, 14, STACK
        ARGFRAME IOVERLAY, 0, STATIC
        ARGFRAME DOVERLAY, 0, STATIC
        EXTERN osal_mem_free
        FUNCTION osal_mem_free,0202H
        ARGFRAME ISTACK, 0, STACK
        ARGFRAME PSTACK, 0, STACK
        ARGFRAME XSTACK, 9, STACK
        ARGFRAME IOVERLAY, 0, STATIC
        ARGFRAME DOVERLAY, 0, STATIC
        EXTERN osal_msg_deallocate
        FUNCTION osal_msg_deallocate,0202H
        ARGFRAME ISTACK, 0, STACK
        ARGFRAME PSTACK, 0, STACK
        ARGFRAME XSTACK, 14, STACK
        ARGFRAME IOVERLAY, 0, STATIC
        ARGFRAME DOVERLAY, 0, STATIC
        EXTERN osal_msg_receive
        FUNCTION osal_msg_receive,0202H
        ARGFRAME ISTACK, 0, STACK
        ARGFRAME PSTACK, 0, STACK
        ARGFRAME XSTACK, 14, STACK
        ARGFRAME IOVERLAY, 0, STATIC
        ARGFRAME DOVERLAY, 0, STATIC
        EXTERN osal_start_timerEx
        FUNCTION osal_start_timerEx,0202H
        ARGFRAME ISTACK, 0, STACK
        ARGFRAME PSTACK, 0, STACK
        ARGFRAME XSTACK, 18, STACK
        ARGFRAME IOVERLAY, 0, STATIC
        ARGFRAME DOVERLAY, 0, STATIC
        EXTERN printf
        FUNCTION printf,0202H
        ARGFRAME ISTACK, 0, STACK
        ARGFRAME PSTACK, 0, STACK
        ARGFRAME XSTACK, 9, STACK
        ARGFRAME IOVERLAY, 0, STATIC
        ARGFRAME DOVERLAY, 0, STATIC
        EXTERN touchLinkInitiator_ResetToFNSelectedTarget
        FUNCTION touchLinkInitiator_ResetToFNSelectedTarget,0202H
        ARGFRAME ISTACK, 0, STACK
        ARGFRAME PSTACK, 0, STACK
        ARGFRAME XSTACK, 9, STACK
        ARGFRAME IOVERLAY, 0, STATIC
        ARGFRAME DOVERLAY, 0, STATIC
        EXTERN touchLinkInitiator_StartDevDisc
        FUNCTION touchLinkInitiator_StartDevDisc,0202H
        ARGFRAME ISTACK, 0, STACK
        ARGFRAME PSTACK, 0, STACK
        ARGFRAME XSTACK, 9, STACK
        ARGFRAME IOVERLAY, 0, STATIC
        ARGFRAME DOVERLAY, 0, STATIC
        EXTERN zclGeneral_RegisterCmdCallbacks
        FUNCTION zclGeneral_RegisterCmdCallbacks,0202H
        ARGFRAME ISTACK, 0, STACK
        ARGFRAME PSTACK, 0, STACK
        ARGFRAME XSTACK, 9, STACK
        ARGFRAME IOVERLAY, 0, STATIC
        ARGFRAME DOVERLAY, 0, STATIC
        EXTERN zclSampleSw_Attrs
        EXTERN zclSampleSw_NumAttributes
        EXTERN zclSampleSw_ResetAttributesToDefaultValues
        FUNCTION zclSampleSw_ResetAttributesToDefaultValues,0202H
        ARGFRAME ISTACK, 2, STACK
        ARGFRAME PSTACK, 0, STACK
        ARGFRAME XSTACK, 9, STACK
        ARGFRAME IOVERLAY, 0, STATIC
        ARGFRAME DOVERLAY, 0, STATIC
        EXTERN zclSampleSw_SimpleDesc
        EXTERN zcl_SendCommand
        FUNCTION zcl_SendCommand,0202H
        ARGFRAME ISTACK, 0, STACK
        ARGFRAME PSTACK, 0, STACK
        ARGFRAME XSTACK, 25, STACK
        ARGFRAME IOVERLAY, 0, STATIC
        ARGFRAME DOVERLAY, 0, STATIC
        EXTERN zcl_registerAttrList
        FUNCTION zcl_registerAttrList,0202H
        ARGFRAME ISTACK, 0, STACK
        ARGFRAME PSTACK, 0, STACK
        ARGFRAME XSTACK, 9, STACK
        ARGFRAME IOVERLAY, 0, STATIC
        ARGFRAME DOVERLAY, 0, STATIC
        EXTERN zcl_registerForMsg
        FUNCTION zcl_registerForMsg,0202H
        ARGFRAME ISTACK, 0, STACK
        ARGFRAME PSTACK, 0, STACK
        ARGFRAME XSTACK, 9, STACK
        ARGFRAME IOVERLAY, 0, STATIC
        ARGFRAME DOVERLAY, 0, STATIC
        EXTERN zdpExternalStateTaskID

// D:\AA\Z-Stack 3.0.2\Projects\zstack\HomeAutomation\SampleSwitch\Source\zcl_samplesw.c
//    1 /**************************************************************************************************
//    2   Filename:       zcl_samplesw.c
//    3   Revised:        $Date: 2015-08-19 17:11:00 -0700 (Wed, 19 Aug 2015) $
//    4   Revision:       $Revision: 44460 $
//    5 
//    6   Description:    Zigbee Cluster Library - sample switch application.
//    7 
//    8 
//    9   Copyright 2006-2013 Texas Instruments Incorporated. All rights reserved.
//   10 
//   11   IMPORTANT: Your use of this Software is limited to those specific rights
//   12   granted under the terms of a software license agreement between the user
//   13   who downloaded the software, his/her employer (which must be your employer)
//   14   and Texas Instruments Incorporated (the "License").  You may not use this
//   15   Software unless you agree to abide by the terms of the License. The License
//   16   limits your use, and you acknowledge, that the Software may not be modified,
//   17   copied or distributed unless embedded on a Texas Instruments microcontroller
//   18   or used solely and exclusively in conjunction with a Texas Instruments radio
//   19   frequency transceiver, which is integrated into your product.  Other than for
//   20   the foregoing purpose, you may not use, reproduce, copy, prepare derivative
//   21   works of, modify, distribute, perform, display or sell this Software and/or
//   22   its documentation for any purpose.
//   23 
//   24   YOU FURTHER ACKNOWLEDGE AND AGREE THAT THE SOFTWARE AND DOCUMENTATION ARE
//   25   PROVIDED “AS IS” WITHOUT WARRANTY OF ANY KIND, EITHER EXPRESS OR IMPLIED,
//   26   INCLUDING WITHOUT LIMITATION, ANY WARRANTY OF MERCHANTABILITY, TITLE,
//   27   NON-INFRINGEMENT AND FITNESS FOR A PARTICULAR PURPOSE. IN NO EVENT SHALL
//   28   TEXAS INSTRUMENTS OR ITS LICENSORS BE LIABLE OR OBLIGATED UNDER CONTRACT,
//   29   NEGLIGENCE, STRICT LIABILITY, CONTRIBUTION, BREACH OF WARRANTY, OR OTHER
//   30   LEGAL EQUITABLE THEORY ANY DIRECT OR INDIRECT DAMAGES OR EXPENSES
//   31   INCLUDING BUT NOT LIMITED TO ANY INCIDENTAL, SPECIAL, INDIRECT, PUNITIVE
//   32   OR CONSEQUENTIAL DAMAGES, LOST PROFITS OR LOST DATA, COST OF PROCUREMENT
//   33   OF SUBSTITUTE GOODS, TECHNOLOGY, SERVICES, OR ANY CLAIMS BY THIRD PARTIES
//   34   (INCLUDING BUT NOT LIMITED TO ANY DEFENSE THEREOF), OR OTHER SIMILAR COSTS.
//   35 
//   36   Should you have any questions regarding your right to use this Software,
//   37   contact Texas Instruments Incorporated at www.TI.com.
//   38 **************************************************************************************************/
//   39 
//   40 /*********************************************************************
//   41   This application implements a ZigBee On/Off Switch, based on Z-Stack 3.0.
//   42 
//   43   This application is based on the common sample-application user interface. Please see the main
//   44   comment in zcl_sampleapp_ui.c. The rest of this comment describes only the content specific for
//   45   this sample applicetion.
//   46   
//   47   Application-specific UI peripherals being used:
//   48 
//   49   - none (LED1 is currently unused by this application).
//   50 
//   51   Application-specific menu system:
//   52 
//   53     <TOGGLE LIGHT> Send an On, Off or Toggle command targeting appropriate devices from the binding table.
//   54       Pressing / releasing [OK] will have the following functionality, depending on the value of the 
//   55       zclSampleSw_OnOffSwitchActions attribute:
//   56       - OnOffSwitchActions == 0: pressing [OK] will send ON command, releasing it will send OFF command;
//   57       - OnOffSwitchActions == 1: pressing [OK] will send OFF command, releasing it will send ON command;
//   58       - OnOffSwitchActions == 2: pressing [OK] will send TOGGLE command, releasing it will not send any command.
//   59 
//   60 *********************************************************************/
//   61 
//   62 #if ! defined ZCL_ON_OFF
//   63 #error ZCL_ON_OFF must be defined for this project.
//   64 #endif
//   65 
//   66 /*********************************************************************
//   67  * INCLUDES
//   68  */
//   69 #include "ZComDef.h"
//   70 #include "OSAL.h"
//   71 #include "AF.h"
//   72 #include "ZDApp.h"
//   73 #include "ZDObject.h"
//   74 #include "ZDProfile.h"
//   75 #include "MT_SYS.h"
//   76 
//   77 #include "zcl.h"
//   78 #include "zcl_general.h"
//   79 #include "zcl_ha.h"
//   80 #include "zcl_samplesw.h"
//   81 #include "zcl_diagnostic.h"
//   82 
//   83 #include "onboard.h"
//   84 
//   85 /* HAL */
//   86 #include "hal_lcd.h"
//   87 #include "hal_led.h"
//   88 #include "hal_key.h"
//   89 
//   90 /* UART */
//   91 #include "uart0.h"
//   92 #include "user_printf.h"
//   93 
//   94 #if defined (OTA_CLIENT) && (OTA_CLIENT == TRUE)
//   95 #include "zcl_ota.h"
//   96 #include "hal_ota.h"
//   97 #endif
//   98 
//   99 #include "bdb.h"
//  100 #include "bdb_interface.h"
//  101 #include "bdb_touchlink_initiator.h"
//  102 
//  103 /*********************************************************************
//  104  * MACROS
//  105  */
//  106 
//  107 #define APP_TITLE "TI Sample Switch"
//  108 
//  109 /*********************************************************************
//  110  * TYPEDEFS
//  111  */
//  112 
//  113 /*********************************************************************
//  114  * GLOBAL VARIABLES
//  115  */

        RSEG XDATA_Z:XDATA:NOROOT(0)
        DATA8
//  116 byte zclSampleSw_TaskID;
zclSampleSw_TaskID:
        DS 1
        REQUIRE __INIT_XDATA_Z
//  117 

        RSEG XDATA_Z:XDATA:NOROOT(0)
        DATA8
//  118 uint8 zclSampleSwSeqNum;
zclSampleSwSeqNum:
        DS 1
        REQUIRE __INIT_XDATA_Z
//  119 

        RSEG XDATA_I:XDATA:NOROOT(0)
//  120 uint8 zclSampleSw_OnOffSwitchType = ON_OFF_SWITCH_TYPE_MOMENTARY;
zclSampleSw_OnOffSwitchType:
        DATA8
        DS 1
        REQUIRE `?<Initializer for zclSampleSw_OnOffSwitchType>`
        REQUIRE __INIT_XDATA_I
//  121 

        RSEG XDATA_Z:XDATA:NOROOT(0)
        DATA8
//  122 uint8 zclSampleSw_OnOffSwitchActions;
zclSampleSw_OnOffSwitchActions:
        DS 1
        REQUIRE __INIT_XDATA_Z
//  123 
//  124 /*********************************************************************
//  125  * GLOBAL FUNCTIONS
//  126  */
//  127 //extern ZStatus_t touchLinkInitiator_StartDevDisc( void );
//  128 //extern ZStatus_t touchLinkInitiator_ResetToFNSelectedTarget( void );
//  129 /*********************************************************************
//  130  * LOCAL VARIABLES
//  131  */

        RSEG XDATA_Z:XDATA:NOROOT(0)
        DATA8
//  132 afAddrType_t zclSampleSw_DstAddr;
zclSampleSw_DstAddr:
        DS 12
        REQUIRE __INIT_XDATA_Z

        RSEG XDATA_Z:XDATA:NOROOT(0)
        DATA8
//  133 afAddrType_t SW_DstAddr;
SW_DstAddr:
        DS 12
        REQUIRE __INIT_XDATA_Z
//  134 

        RSEG XDATA_Z:XDATA:NOROOT(0)
        DATA16
//  135 uint16 SourceAddr;
SourceAddr:
        DS 2
        REQUIRE __INIT_XDATA_Z
//  136 // Endpoint to allow SYS_APP_MSGs
//  137 
//  138 //static uint8 aProcessCmd[] = { 1, 0, 0, 0 }; // used for reset command, { length + cmd0 + cmd1 + data }
//  139 

        RSEG XDATA_I:XDATA:NOROOT(0)
//  140 devStates_t zclSampleSw_NwkState = DEV_INIT;
zclSampleSw_NwkState:
        DATA8
        DS 1
        REQUIRE `?<Initializer for zclSampleSw_NwkState>`
        REQUIRE __INIT_XDATA_I
//  141 
//  142 #if defined (OTA_CLIENT) && (OTA_CLIENT == TRUE)
//  143 #define DEVICE_POLL_RATE                 8000   // Poll rate for end device
//  144 #endif
//  145 
//  146 #define SAMPLESW_TOGGLE_TEST_EVT   0x1000
//  147 /*********************************************************************
//  148  * LOCAL FUNCTIONS
//  149  */
//  150 static void Send_To_SW1( void );
//  151 static void Send_To_SW2( void );
//  152 //static void Send_To_SW3( void );
//  153 
//  154 static void zclSampleSw_HandleKeys( byte shift, byte keys );
//  155 static void zclSampleSw_BasicResetCB( void );
//  156 
//  157 static void zclSampleSw_ProcessCommissioningStatus(bdbCommissioningModeMsg_t *bdbCommissioningModeMsg);
//  158 
//  159 
//  160 // Functions to process ZCL Foundation incoming Command/Response messages
//  161 static void zclSampleSw_ProcessInReportCmd( zclIncomingMsg_t *pInMsg );
//  162 
//  163 static void zclSampleSw_ProcessIncomingMsg( zclIncomingMsg_t *msg );
//  164 #ifdef ZCL_READ
//  165 static uint8 zclSampleSw_ProcessInReadRspCmd( zclIncomingMsg_t *pInMsg );
//  166 #endif
//  167 #ifdef ZCL_WRITE
//  168 static uint8 zclSampleSw_ProcessInWriteRspCmd( zclIncomingMsg_t *pInMsg );
//  169 #endif
//  170 static uint8 zclSampleSw_ProcessInDefaultRspCmd( zclIncomingMsg_t *pInMsg );
//  171 #ifdef ZCL_DISCOVER
//  172 static uint8 zclSampleSw_ProcessInDiscCmdsRspCmd( zclIncomingMsg_t *pInMsg );
//  173 static uint8 zclSampleSw_ProcessInDiscAttrsRspCmd( zclIncomingMsg_t *pInMsg );
//  174 static uint8 zclSampleSw_ProcessInDiscAttrsExtRspCmd( zclIncomingMsg_t *pInMsg );
//  175 #endif
//  176 
//  177 #if defined (OTA_CLIENT) && (OTA_CLIENT == TRUE)
//  178 static void zclSampleSw_ProcessOTAMsgs( zclOTA_CallbackMsg_t* pMsg );
//  179 #endif
//  180 
//  181 
//  182 static void zclSampleApp_BatteryWarningCB( uint8 voltLevel);
//  183 
//  184 
//  185 /*********************************************************************
//  186  * CONSTANTS
//  187  */
//  188 
//  189   
//  190 /*********************************************************************
//  191  * REFERENCED EXTERNALS
//  192  */
//  193 extern int16 zdpExternalStateTaskID;
//  194 
//  195 /*********************************************************************
//  196  * ZCL General Profile Callback table
//  197  */

        RSEG XDATA_I:XDATA:NOROOT(0)
//  198 static zclGeneral_AppCallbacks_t zclSampleSw_CmdCallbacks =
zclSampleSw_CmdCallbacks:
        DATA8
        DS 18
        REQUIRE `?<Initializer for zclSampleSw_CmdCallbacks>`
        REQUIRE __INIT_XDATA_I
//  199 {
//  200   zclSampleSw_BasicResetCB,               // Basic Cluster Reset command
//  201   NULL,                                   // Identify Trigger Effect command
//  202   NULL,                                   // On/Off cluster commands
//  203   NULL,                                   // On/Off cluster enhanced command Off with Effect
//  204   NULL,                                   // On/Off cluster enhanced command On with Recall Global Scene
//  205   NULL,                                   // On/Off cluster enhanced command On with Timed Off
//  206 #ifdef ZCL_LEVEL_CTRL
//  207   NULL,                                   // Level Control Move to Level command
//  208   NULL,                                   // Level Control Move command
//  209   NULL,                                   // Level Control Step command
//  210   NULL,                                   // Level Control Stop command
//  211 #endif
//  212 #ifdef ZCL_GROUPS
//  213   NULL,                                   // Group Response commands
//  214 #endif
//  215 #ifdef ZCL_SCENES
//  216   NULL,                                   // Scene Store Request command
//  217   NULL,                                   // Scene Recall Request command
//  218   NULL,                                   // Scene Response command
//  219 #endif
//  220 #ifdef ZCL_ALARMS
//  221   NULL,                                   // Alarm (Response) commands
//  222 #endif
//  223 #ifdef SE_UK_EXT
//  224   NULL,                                   // Get Event Log command
//  225   NULL,                                   // Publish Event Log command
//  226 #endif
//  227   NULL,                                   // RSSI Location command
//  228   NULL                                    // RSSI Location Response command
//  229 };
//  230 
//  231 /*********************************************************************
//  232  * @fn          zclSampleSw_Init
//  233  *
//  234  * @brief       Initialization function for the zclGeneral layer.
//  235  *
//  236  * @param       none
//  237  *
//  238  * @return      none
//  239  */

        RSEG BANKED_CODE:HUGECODE:NOROOT(0)
//  240 void zclSampleSw_Init( byte task_id )
zclSampleSw_Init:
          CFI Block cfiBlock0 Using cfiCommon0
          CFI Function zclSampleSw_Init
        CODE
//  241 {
        FUNCALL zclSampleSw_Init, Uart0_Init
        LOCFRAME ISTACK, 0, STACK
        LOCFRAME PSTACK, 0, STACK
        LOCFRAME XSTACK, 9, STACK
        LOCFRAME IOVERLAY, 0, STATIC
        LOCFRAME DOVERLAY, 0, STATIC
        ARGFRAME ISTACK, 0, STACK
        ARGFRAME PSTACK, 0, STACK
        ARGFRAME XSTACK, 9, STACK
        ARGFRAME IOVERLAY, 0, STATIC
        ARGFRAME DOVERLAY, 0, STATIC
        FUNCALL zclSampleSw_Init, RegisterForUart0
        LOCFRAME ISTACK, 0, STACK
        LOCFRAME PSTACK, 0, STACK
        LOCFRAME XSTACK, 9, STACK
        LOCFRAME IOVERLAY, 0, STATIC
        LOCFRAME DOVERLAY, 0, STATIC
        ARGFRAME ISTACK, 0, STACK
        ARGFRAME PSTACK, 0, STACK
        ARGFRAME XSTACK, 9, STACK
        ARGFRAME IOVERLAY, 0, STATIC
        ARGFRAME DOVERLAY, 0, STATIC
        FUNCALL zclSampleSw_Init, bdb_RegisterSimpleDescriptor
        LOCFRAME ISTACK, 0, STACK
        LOCFRAME PSTACK, 0, STACK
        LOCFRAME XSTACK, 9, STACK
        LOCFRAME IOVERLAY, 0, STATIC
        LOCFRAME DOVERLAY, 0, STATIC
        ARGFRAME ISTACK, 0, STACK
        ARGFRAME PSTACK, 0, STACK
        ARGFRAME XSTACK, 9, STACK
        ARGFRAME IOVERLAY, 0, STATIC
        ARGFRAME DOVERLAY, 0, STATIC
        FUNCALL zclSampleSw_Init, zclGeneral_RegisterCmdCallbacks
        LOCFRAME ISTACK, 0, STACK
        LOCFRAME PSTACK, 0, STACK
        LOCFRAME XSTACK, 9, STACK
        LOCFRAME IOVERLAY, 0, STATIC
        LOCFRAME DOVERLAY, 0, STATIC
        ARGFRAME ISTACK, 0, STACK
        ARGFRAME PSTACK, 0, STACK
        ARGFRAME XSTACK, 9, STACK
        ARGFRAME IOVERLAY, 0, STATIC
        ARGFRAME DOVERLAY, 0, STATIC
        FUNCALL zclSampleSw_Init, zclSampleSw_ResetAttributesToDefaultValues
        LOCFRAME ISTACK, 0, STACK
        LOCFRAME PSTACK, 0, STACK
        LOCFRAME XSTACK, 9, STACK
        LOCFRAME IOVERLAY, 0, STATIC
        LOCFRAME DOVERLAY, 0, STATIC
        ARGFRAME ISTACK, 0, STACK
        ARGFRAME PSTACK, 0, STACK
        ARGFRAME XSTACK, 9, STACK
        ARGFRAME IOVERLAY, 0, STATIC
        ARGFRAME DOVERLAY, 0, STATIC
        FUNCALL zclSampleSw_Init, zcl_registerAttrList
        LOCFRAME ISTACK, 0, STACK
        LOCFRAME PSTACK, 0, STACK
        LOCFRAME XSTACK, 9, STACK
        LOCFRAME IOVERLAY, 0, STATIC
        LOCFRAME DOVERLAY, 0, STATIC
        ARGFRAME ISTACK, 0, STACK
        ARGFRAME PSTACK, 0, STACK
        ARGFRAME XSTACK, 9, STACK
        ARGFRAME IOVERLAY, 0, STATIC
        ARGFRAME DOVERLAY, 0, STATIC
        FUNCALL zclSampleSw_Init, zcl_registerForMsg
        LOCFRAME ISTACK, 0, STACK
        LOCFRAME PSTACK, 0, STACK
        LOCFRAME XSTACK, 9, STACK
        LOCFRAME IOVERLAY, 0, STATIC
        LOCFRAME DOVERLAY, 0, STATIC
        ARGFRAME ISTACK, 0, STACK
        ARGFRAME PSTACK, 0, STACK
        ARGFRAME XSTACK, 9, STACK
        ARGFRAME IOVERLAY, 0, STATIC
        ARGFRAME DOVERLAY, 0, STATIC
        FUNCALL zclSampleSw_Init, RegisterVoltageWarningCB
        LOCFRAME ISTACK, 0, STACK
        LOCFRAME PSTACK, 0, STACK
        LOCFRAME XSTACK, 9, STACK
        LOCFRAME IOVERLAY, 0, STATIC
        LOCFRAME DOVERLAY, 0, STATIC
        ARGFRAME ISTACK, 0, STACK
        ARGFRAME PSTACK, 0, STACK
        ARGFRAME XSTACK, 9, STACK
        ARGFRAME IOVERLAY, 0, STATIC
        ARGFRAME DOVERLAY, 0, STATIC
        FUNCALL zclSampleSw_Init, RegisterForKeys
        LOCFRAME ISTACK, 0, STACK
        LOCFRAME PSTACK, 0, STACK
        LOCFRAME XSTACK, 9, STACK
        LOCFRAME IOVERLAY, 0, STATIC
        LOCFRAME DOVERLAY, 0, STATIC
        ARGFRAME ISTACK, 0, STACK
        ARGFRAME PSTACK, 0, STACK
        ARGFRAME XSTACK, 9, STACK
        ARGFRAME IOVERLAY, 0, STATIC
        ARGFRAME DOVERLAY, 0, STATIC
        FUNCALL zclSampleSw_Init, bdb_RegisterCommissioningStatusCB
        LOCFRAME ISTACK, 0, STACK
        LOCFRAME PSTACK, 0, STACK
        LOCFRAME XSTACK, 9, STACK
        LOCFRAME IOVERLAY, 0, STATIC
        LOCFRAME DOVERLAY, 0, STATIC
        ARGFRAME ISTACK, 0, STACK
        ARGFRAME PSTACK, 0, STACK
        ARGFRAME XSTACK, 9, STACK
        ARGFRAME IOVERLAY, 0, STATIC
        ARGFRAME DOVERLAY, 0, STATIC
        FUNCALL zclSampleSw_Init, bdb_StartCommissioning
        LOCFRAME ISTACK, 0, STACK
        LOCFRAME PSTACK, 0, STACK
        LOCFRAME XSTACK, 9, STACK
        LOCFRAME IOVERLAY, 0, STATIC
        LOCFRAME DOVERLAY, 0, STATIC
        ARGFRAME ISTACK, 0, STACK
        ARGFRAME PSTACK, 0, STACK
        ARGFRAME XSTACK, 9, STACK
        ARGFRAME IOVERLAY, 0, STATIC
        ARGFRAME DOVERLAY, 0, STATIC
        FUNCALL zclSampleSw_Init, printf
        LOCFRAME ISTACK, 0, STACK
        LOCFRAME PSTACK, 0, STACK
        LOCFRAME XSTACK, 9, STACK
        LOCFRAME IOVERLAY, 0, STATIC
        LOCFRAME DOVERLAY, 0, STATIC
        ARGFRAME ISTACK, 0, STACK
        ARGFRAME PSTACK, 0, STACK
        ARGFRAME XSTACK, 9, STACK
        ARGFRAME IOVERLAY, 0, STATIC
        ARGFRAME DOVERLAY, 0, STATIC
        MOV       A,#-0x9
        LCALL     ?BANKED_ENTER_XDATA
          CFI DPH0 load(1, XDATA, add(CFA_XSP16, literal(-1)))
          CFI DPL0 load(1, XDATA, add(CFA_XSP16, literal(-2)))
          CFI ?BRET_EXT load(1, XDATA, add(CFA_XSP16, literal(-3)))
          CFI ?RET_HIGH load(1, XDATA, add(CFA_XSP16, literal(-4)))
          CFI ?RET_LOW load(1, XDATA, add(CFA_XSP16, literal(-5)))
          CFI R7 load(1, XDATA, add(CFA_XSP16, literal(-6)))
          CFI V0 load(1, XDATA, add(CFA_XSP16, literal(-7)))
          CFI VB load(1, XDATA, add(CFA_XSP16, literal(-8)))
          CFI R6 load(1, XDATA, add(CFA_XSP16, literal(-9)))
          CFI CFA_SP SP+0
          CFI CFA_XSP16 add(XSP16, 9)
        ; Saved register size: 9
        ; Auto size: 0
        MOV       A,R1
        MOV       R6,A
//  242   zclSampleSw_TaskID = task_id;
        MOV       A,R6
        MOV       DPTR,#zclSampleSw_TaskID
        MOVX      @DPTR,A
//  243 
//  244   // Set destination address to indirect
//  245   zclSampleSw_DstAddr.addrMode = (afAddrMode_t)AddrNotPresent;
        MOV       DPTR,#zclSampleSw_DstAddr + 8
        MOV       A,#0x0
        MOVX      @DPTR,A
//  246   zclSampleSw_DstAddr.endPoint = 0;
        MOV       DPTR,#zclSampleSw_DstAddr + 9
        MOV       A,#0x0
        MOVX      @DPTR,A
//  247   zclSampleSw_DstAddr.addr.shortAddr = 0;
        MOV       DPTR,#zclSampleSw_DstAddr
        MOV       A,#0x0
        MOVX      @DPTR,A
        INC       DPTR
        MOV       A,#0x0
        MOVX      @DPTR,A
//  248 
//  249   //Initialize the Uart0
//  250   Uart0_Init(HAL_UART_BR_115200);
        ; Setup parameters for call to function Uart0_Init
        MOV       R1,#0x4
        LCALL     `??Uart0_Init::?relay`; Banked call to: Uart0_Init
//  251 
//  252   // Register the Uart0
//  253   RegisterForUart0( zclSampleSw_TaskID );
        ; Setup parameters for call to function RegisterForUart0
        MOV       DPTR,#zclSampleSw_TaskID
        MOVX      A,@DPTR
        MOV       R1,A
        LCALL     `??RegisterForUart0::?relay`; Banked call to: RegisterForUart0
        MOV       A,R1
//  254 
//  255   // Register the Simple Descriptor for this application
//  256   bdb_RegisterSimpleDescriptor( &zclSampleSw_SimpleDesc );
        ; Setup parameters for call to function bdb_RegisterSimpleDescriptor
        MOV       R2,#zclSampleSw_SimpleDesc & 0xff
        MOV       R3,#(zclSampleSw_SimpleDesc >> 8) & 0xff
        LCALL     `??bdb_RegisterSimpleDescriptor::?relay`; Banked call to: bdb_RegisterSimpleDescriptor
//  257 
//  258   // Register the ZCL General Cluster Library callback functions
//  259   zclGeneral_RegisterCmdCallbacks( SW1_ENDPOINT, &zclSampleSw_CmdCallbacks );
        ; Setup parameters for call to function zclGeneral_RegisterCmdCallbacks
        MOV       R2,#zclSampleSw_CmdCallbacks & 0xff
        MOV       R3,#(zclSampleSw_CmdCallbacks >> 8) & 0xff
        MOV       R1,#0x8
        LCALL     `??zclGeneral_RegisterCmdCallbacks::?relay`; Banked call to: zclGeneral_RegisterCmdCallbacks
        MOV       A,R1
//  260 
//  261   zclSampleSw_ResetAttributesToDefaultValues();
        ; Setup parameters for call to function zclSampleSw_ResetAttributesToDefaultValues
        LCALL     `??zclSampleSw_ResetAttributesToDefaultValues::?`; Banked call to: zclSampleSw_ResetAttributesToDefaultValues
//  262   
//  263   // Register the application's attribute list
//  264   zcl_registerAttrList( SW1_ENDPOINT, zclSampleSw_NumAttributes, zclSampleSw_Attrs );
        ; Setup parameters for call to function zcl_registerAttrList
        MOV       R4,#zclSampleSw_Attrs & 0xff
        MOV       R5,#(zclSampleSw_Attrs >> 8) & 0xff
        MOV       DPTR,#zclSampleSw_NumAttributes
        CLR       A
        MOVC      A,@A+DPTR
        MOV       R2,A
        MOV       R1,#0x8
        LCALL     `??zcl_registerAttrList::?relay`; Banked call to: zcl_registerAttrList
        MOV       A,R1
//  265   
//  266   // Register the Application to receive the unprocessed Foundation command/response messages
//  267   zcl_registerForMsg( zclSampleSw_TaskID );
        ; Setup parameters for call to function zcl_registerForMsg
        MOV       DPTR,#zclSampleSw_TaskID
        MOVX      A,@DPTR
        MOV       R1,A
        LCALL     `??zcl_registerForMsg::?relay`; Banked call to: zcl_registerForMsg
        MOV       A,R1
//  268   
//  269   // Register low voltage NV memory protection application callback
//  270   RegisterVoltageWarningCB( zclSampleApp_BatteryWarningCB );
        ; Setup parameters for call to function RegisterVoltageWarningCB
        MOV       R2,#`??zclSampleApp_BatteryWarningCB::?relay` & 0xff
        MOV       R3,#(`??zclSampleApp_BatteryWarningCB::?relay` >> 8) & 0xff
        LCALL     `??RegisterVoltageWarningCB::?relay`; Banked call to: RegisterVoltageWarningCB
//  271 
//  272   // Register for all key events - This app will handle all key events
//  273   RegisterForKeys( zclSampleSw_TaskID );
        ; Setup parameters for call to function RegisterForKeys
        MOV       DPTR,#zclSampleSw_TaskID
        MOVX      A,@DPTR
        MOV       R1,A
        LCALL     `??RegisterForKeys::?relay`; Banked call to: RegisterForKeys
        MOV       A,R1
//  274   
//  275   bdb_RegisterCommissioningStatusCB( zclSampleSw_ProcessCommissioningStatus );
        ; Setup parameters for call to function bdb_RegisterCommissioningStatusCB
        MOV       R2,#`??zclSampleSw_ProcessCommissioningStatus::?rela` & 0xff
        MOV       R3,#(`??zclSampleSw_ProcessCommissioningStatus::?rela` >> 8) & 0xff
        LCALL     `??bdb_RegisterCommissioningStatusCB::?relay`; Banked call to: bdb_RegisterCommissioningStatusCB
//  276   
//  277 #ifdef ZCL_DIAGNOSTIC
//  278   // Register the application's callback function to read/write attribute data.
//  279   // This is only required when the attribute data format is unknown to ZCL.
//  280   zcl_registerReadWriteCB( SAMPLESW_ENDPOINT, zclDiagnostic_ReadWriteAttrCB, NULL );
//  281 
//  282   if ( zclDiagnostic_InitStats() == ZSuccess )
//  283   {
//  284     // Here the user could start the timer to save Diagnostics to NV
//  285   }
//  286 #endif
//  287 
//  288 #if defined (OTA_CLIENT) && (OTA_CLIENT == TRUE)
//  289   // Register for callback events from the ZCL OTA
//  290   zclOTA_Register(zclSampleSw_TaskID);
//  291 #endif
//  292 
//  293   zdpExternalStateTaskID = zclSampleSw_TaskID;
        MOV       DPTR,#zclSampleSw_TaskID
        MOVX      A,@DPTR
        MOV       R0,A
        MOV       R1,#0x0
        MOV       DPTR,#zdpExternalStateTaskID
        MOV       A,R0
        MOVX      @DPTR,A
        INC       DPTR
        MOV       A,R1
        MOVX      @DPTR,A
//  294 
//  295   bdb_StartCommissioning( BDB_COMMISSIONING_MODE_INITIATOR_TL );
        ; Setup parameters for call to function bdb_StartCommissioning
        MOV       R1,#0x1
        LCALL     `??bdb_StartCommissioning::?relay`; Banked call to: bdb_StartCommissioning
//  296   //touchLinkInitiator_ChannelChange( 11 );
//  297   printf("init successful\r\n"); 
        ; Setup parameters for call to function printf
        MOV       R2,#`?<Constant "init successful\\r\\n">` & 0xff
        MOV       R3,#(`?<Constant "init successful\\r\\n">` >> 8) & 0xff
        LCALL     `??printf::?relay`; Banked call to: printf
//  298 }
        MOV       R7,#0x1
        LJMP      ?BANKED_LEAVE_XDATA
          CFI EndBlock cfiBlock0
//  299 
//  300 /*********************************************************************
//  301  * @fn          zclSample_event_loop
//  302  *
//  303  * @brief       Event Loop Processor for zclGeneral.
//  304  *
//  305  * @param       none
//  306  *
//  307  * @return      none
//  308  */

        RSEG BANKED_CODE:HUGECODE:NOROOT(0)
//  309 uint16 zclSampleSw_event_loop( uint8 task_id, uint16 events )
zclSampleSw_event_loop:
          CFI Block cfiBlock1 Using cfiCommon0
          CFI Function zclSampleSw_event_loop
        CODE
//  310 {
        FUNCALL zclSampleSw_event_loop, osal_start_timerEx
        LOCFRAME ISTACK, 0, STACK
        LOCFRAME PSTACK, 0, STACK
        LOCFRAME XSTACK, 18, STACK
        LOCFRAME IOVERLAY, 0, STATIC
        LOCFRAME DOVERLAY, 0, STATIC
        ARGFRAME ISTACK, 0, STACK
        ARGFRAME PSTACK, 0, STACK
        ARGFRAME XSTACK, 18, STACK
        ARGFRAME IOVERLAY, 0, STATIC
        ARGFRAME DOVERLAY, 0, STATIC
        FUNCALL zclSampleSw_event_loop, zcl_SendCommand
        LOCFRAME ISTACK, 0, STACK
        LOCFRAME PSTACK, 0, STACK
        LOCFRAME XSTACK, 25, STACK
        LOCFRAME IOVERLAY, 0, STATIC
        LOCFRAME DOVERLAY, 0, STATIC
        ARGFRAME ISTACK, 0, STACK
        ARGFRAME PSTACK, 0, STACK
        ARGFRAME XSTACK, 25, STACK
        ARGFRAME IOVERLAY, 0, STATIC
        ARGFRAME DOVERLAY, 0, STATIC
        FUNCALL zclSampleSw_event_loop, osal_msg_receive
        LOCFRAME ISTACK, 0, STACK
        LOCFRAME PSTACK, 0, STACK
        LOCFRAME XSTACK, 14, STACK
        LOCFRAME IOVERLAY, 0, STATIC
        LOCFRAME DOVERLAY, 0, STATIC
        ARGFRAME ISTACK, 0, STACK
        ARGFRAME PSTACK, 0, STACK
        ARGFRAME XSTACK, 14, STACK
        ARGFRAME IOVERLAY, 0, STATIC
        ARGFRAME DOVERLAY, 0, STATIC
        FUNCALL zclSampleSw_event_loop, zclSampleSw_ProcessIncomingMsg
        LOCFRAME ISTACK, 0, STACK
        LOCFRAME PSTACK, 0, STACK
        LOCFRAME XSTACK, 14, STACK
        LOCFRAME IOVERLAY, 0, STATIC
        LOCFRAME DOVERLAY, 0, STATIC
        ARGFRAME ISTACK, 0, STACK
        ARGFRAME PSTACK, 0, STACK
        ARGFRAME XSTACK, 14, STACK
        ARGFRAME IOVERLAY, 0, STATIC
        ARGFRAME DOVERLAY, 0, STATIC
        FUNCALL zclSampleSw_event_loop, zclSampleSw_HandleKeys
        LOCFRAME ISTACK, 0, STACK
        LOCFRAME PSTACK, 0, STACK
        LOCFRAME XSTACK, 14, STACK
        LOCFRAME IOVERLAY, 0, STATIC
        LOCFRAME DOVERLAY, 0, STATIC
        ARGFRAME ISTACK, 0, STACK
        ARGFRAME PSTACK, 0, STACK
        ARGFRAME XSTACK, 14, STACK
        ARGFRAME IOVERLAY, 0, STATIC
        ARGFRAME DOVERLAY, 0, STATIC
        FUNCALL zclSampleSw_event_loop, Send_To_SW1
        LOCFRAME ISTACK, 0, STACK
        LOCFRAME PSTACK, 0, STACK
        LOCFRAME XSTACK, 14, STACK
        LOCFRAME IOVERLAY, 0, STATIC
        LOCFRAME DOVERLAY, 0, STATIC
        ARGFRAME ISTACK, 0, STACK
        ARGFRAME PSTACK, 0, STACK
        ARGFRAME XSTACK, 14, STACK
        ARGFRAME IOVERLAY, 0, STATIC
        ARGFRAME DOVERLAY, 0, STATIC
        FUNCALL zclSampleSw_event_loop, Send_To_SW2
        LOCFRAME ISTACK, 0, STACK
        LOCFRAME PSTACK, 0, STACK
        LOCFRAME XSTACK, 14, STACK
        LOCFRAME IOVERLAY, 0, STATIC
        LOCFRAME DOVERLAY, 0, STATIC
        ARGFRAME ISTACK, 0, STACK
        ARGFRAME PSTACK, 0, STACK
        ARGFRAME XSTACK, 14, STACK
        ARGFRAME IOVERLAY, 0, STATIC
        ARGFRAME DOVERLAY, 0, STATIC
        FUNCALL zclSampleSw_event_loop, osal_msg_deallocate
        LOCFRAME ISTACK, 0, STACK
        LOCFRAME PSTACK, 0, STACK
        LOCFRAME XSTACK, 14, STACK
        LOCFRAME IOVERLAY, 0, STATIC
        LOCFRAME DOVERLAY, 0, STATIC
        ARGFRAME ISTACK, 0, STACK
        ARGFRAME PSTACK, 0, STACK
        ARGFRAME XSTACK, 14, STACK
        ARGFRAME IOVERLAY, 0, STATIC
        ARGFRAME DOVERLAY, 0, STATIC
        FUNCALL zclSampleSw_event_loop, bdb_ZedAttemptRecoverNwk
        LOCFRAME ISTACK, 0, STACK
        LOCFRAME PSTACK, 0, STACK
        LOCFRAME XSTACK, 14, STACK
        LOCFRAME IOVERLAY, 0, STATIC
        LOCFRAME DOVERLAY, 0, STATIC
        ARGFRAME ISTACK, 0, STACK
        ARGFRAME PSTACK, 0, STACK
        ARGFRAME XSTACK, 14, STACK
        ARGFRAME IOVERLAY, 0, STATIC
        ARGFRAME DOVERLAY, 0, STATIC
        REQUIRE ?V0
        REQUIRE ?V1
        REQUIRE ?V2
        REQUIRE ?V3
        REQUIRE ?V4
        REQUIRE ?V5
        MOV       A,#-0xe
        LCALL     ?BANKED_ENTER_XDATA
          CFI DPH0 load(1, XDATA, add(CFA_XSP16, literal(-1)))
          CFI DPL0 load(1, XDATA, add(CFA_XSP16, literal(-2)))
          CFI ?BRET_EXT load(1, XDATA, add(CFA_XSP16, literal(-3)))
          CFI ?RET_HIGH load(1, XDATA, add(CFA_XSP16, literal(-4)))
          CFI ?RET_LOW load(1, XDATA, add(CFA_XSP16, literal(-5)))
          CFI R7 load(1, XDATA, add(CFA_XSP16, literal(-6)))
          CFI V5 load(1, XDATA, add(CFA_XSP16, literal(-7)))
          CFI V4 load(1, XDATA, add(CFA_XSP16, literal(-8)))
          CFI V3 load(1, XDATA, add(CFA_XSP16, literal(-9)))
          CFI V2 load(1, XDATA, add(CFA_XSP16, literal(-10)))
          CFI V1 load(1, XDATA, add(CFA_XSP16, literal(-11)))
          CFI V0 load(1, XDATA, add(CFA_XSP16, literal(-12)))
          CFI VB load(1, XDATA, add(CFA_XSP16, literal(-13)))
          CFI R6 load(1, XDATA, add(CFA_XSP16, literal(-14)))
          CFI CFA_SP SP+0
          CFI CFA_XSP16 add(XSP16, 14)
        ; Saved register size: 14
        ; Auto size: 0
        MOV       ?V2,R1
        MOV       A,R2
        MOV       R6,A
        MOV       A,R3
        MOV       R7,A
//  311   afIncomingMSGPacket_t *MSGpkt;
//  312   (void)task_id;  // Intentionally unreferenced parameter
//  313 
//  314   //Send toggle every 500ms
//  315   if( events & SAMPLESW_TOGGLE_TEST_EVT )
        MOV       A,R6
        ANL       A,#0x0
        MOV       R0,A
        MOV       A,R7
        ANL       A,#0x10
        MOV       R1,A
        MOV       A,R0
        ORL       A,R1
        JZ        ??zclSampleSw_event_loop_0
//  316   {
//  317     osal_start_timerEx(zclSampleSw_TaskID,SAMPLESW_TOGGLE_TEST_EVT,500);
        ; Setup parameters for call to function osal_start_timerEx
        MOV       DPTR,#__Constant_1f4
        LCALL     ?PUSH_XSTACK8_X_FOUR
          CFI CFA_XSP16 add(XSP16, 18)
        MOV       R2,#0x0
        MOV       R3,#0x10
        MOV       DPTR,#zclSampleSw_TaskID
        MOVX      A,@DPTR
        MOV       R1,A
        LCALL     `??osal_start_timerEx::?relay`; Banked call to: osal_start_timerEx
        MOV       A,#0x4
        LCALL     ?DEALLOC_XSTACK8
          CFI CFA_XSP16 add(XSP16, 14)
        MOV       A,R1
//  318     zclGeneral_SendOnOff_CmdToggle( SW1_ENDPOINT, &zclSampleSw_DstAddr, FALSE, 0 );
        ; Setup parameters for call to function zcl_SendCommand
        CLR       A
        MOV       ?V4,A
        MOV       ?V5,A
        MOV       R0,#?V4
        LCALL     ?PUSH_XSTACK_I_TWO
          CFI CFA_XSP16 add(XSP16, 16)
        CLR       A
        MOV       ?V4,A
        MOV       ?V5,A
        MOV       R0,#?V4
        LCALL     ?PUSH_XSTACK_I_TWO
          CFI CFA_XSP16 add(XSP16, 18)
        MOV       ?V3,#0x0
        MOV       R0,#?V3
        LCALL     ?PUSH_XSTACK_I_ONE
          CFI CFA_XSP16 add(XSP16, 19)
        CLR       A
        MOV       ?V4,A
        MOV       ?V5,A
        MOV       R0,#?V4
        LCALL     ?PUSH_XSTACK_I_TWO
          CFI CFA_XSP16 add(XSP16, 21)
        MOV       ?V3,#0x0
        MOV       R0,#?V3
        LCALL     ?PUSH_XSTACK_I_ONE
          CFI CFA_XSP16 add(XSP16, 22)
        MOV       ?V3,#0x0
        MOV       R0,#?V3
        LCALL     ?PUSH_XSTACK_I_ONE
          CFI CFA_XSP16 add(XSP16, 23)
        MOV       ?V3,#0x1
        MOV       R0,#?V3
        LCALL     ?PUSH_XSTACK_I_ONE
          CFI CFA_XSP16 add(XSP16, 24)
        MOV       ?V3,#0x2
        MOV       R0,#?V3
        LCALL     ?PUSH_XSTACK_I_ONE
          CFI CFA_XSP16 add(XSP16, 25)
        MOV       R4,#0x6
        MOV       R5,#0x0
        MOV       R2,#zclSampleSw_DstAddr & 0xff
        MOV       R3,#(zclSampleSw_DstAddr >> 8) & 0xff
        MOV       R1,#0x8
        LCALL     `??zcl_SendCommand::?relay`; Banked call to: zcl_SendCommand
        MOV       A,#0xb
        LCALL     ?DEALLOC_XSTACK8
          CFI CFA_XSP16 add(XSP16, 14)
        MOV       A,R1
//  319     
//  320     // return unprocessed events
//  321     return (events ^ SAMPLESW_TOGGLE_TEST_EVT);
        MOV       A,R6
        XRL       A,#0x0
        MOV       R2,A
        MOV       A,R7
        XRL       A,#0x10
        MOV       R3,A
        LJMP      ??zclSampleSw_event_loop_1 & 0xFFFF
//  322   }
//  323   
//  324 
//  325   if ( events & SYS_EVENT_MSG )
??zclSampleSw_event_loop_0:
        MOV       A,R6
        ANL       A,#0x0
        MOV       R0,A
        MOV       A,R7
        ANL       A,#0x80
        MOV       R1,A
        MOV       A,R0
        ORL       A,R1
        JZ        ??zclSampleSw_event_loop_2
//  326   {
//  327     while ( (MSGpkt = (afIncomingMSGPacket_t *)osal_msg_receive( zclSampleSw_TaskID )) )
??zclSampleSw_event_loop_3:
        ; Setup parameters for call to function osal_msg_receive
        MOV       DPTR,#zclSampleSw_TaskID
        MOVX      A,@DPTR
        MOV       R1,A
        LCALL     `??osal_msg_receive::?relay`; Banked call to: osal_msg_receive
        MOV       ?V4,R2
        MOV       ?V5,R3
        MOV       ?V0,?V4
        MOV       ?V1,?V5
        MOV       A,?V0
        ORL       A,?V1
        JZ        ??zclSampleSw_event_loop_4
//  328     {
//  329       switch ( MSGpkt->hdr.event )
        MOV       DPL,?V0
        MOV       DPH,?V1
        MOVX      A,@DPTR
        ADD       A,#-0x34
        JZ        ??zclSampleSw_event_loop_5
        ADD       A,#-0x3
        JZ        ??zclSampleSw_event_loop_6
        DEC       A
        JZ        ??zclSampleSw_event_loop_7
        ADD       A,#0x78
        JZ        ??zclSampleSw_event_loop_8
        ADD       A,#-0x11
        JZ        ??zclSampleSw_event_loop_9
        SJMP      ??zclSampleSw_event_loop_9
//  330       {
//  331         case ZCL_INCOMING_MSG:
//  332           // Incoming ZCL Foundation command/response messages
//  333           zclSampleSw_ProcessIncomingMsg( (zclIncomingMsg_t *)MSGpkt );
??zclSampleSw_event_loop_5:
        ; Setup parameters for call to function zclSampleSw_ProcessIncomingMsg
        MOV       R2,?V0
        MOV       R3,?V1
        LCALL     `??zclSampleSw_ProcessIncomingMsg::?relay`; Banked call to: zclSampleSw_ProcessIncomingMsg
//  334           break;
        SJMP      ??zclSampleSw_event_loop_9
//  335 
//  336         case KEY_CHANGE:
//  337           zclSampleSw_HandleKeys( ((keyChange_t *)MSGpkt)->state, ((keyChange_t *)MSGpkt)->keys );
??zclSampleSw_event_loop_8:
        ; Setup parameters for call to function zclSampleSw_HandleKeys
        MOV       DPL,?V0
        MOV       DPH,?V1
        INC       DPTR
        INC       DPTR
        INC       DPTR
        MOVX      A,@DPTR
        MOV       R2,A
        MOV       DPL,?V0
        MOV       DPH,?V1
        INC       DPTR
        INC       DPTR
        MOVX      A,@DPTR
        MOV       R1,A
        LCALL     `??zclSampleSw_HandleKeys::?relay`; Banked call to: zclSampleSw_HandleKeys
//  338           break;
        SJMP      ??zclSampleSw_event_loop_9
//  339 
//  340         case ZDO_STATE_CHANGE:
//  341           break;
//  342 
//  343         case UART0_MESSAGE_SW1_TOGGLE:
//  344           Send_To_SW1();
??zclSampleSw_event_loop_6:
        ; Setup parameters for call to function Send_To_SW1
        LCALL     `??Send_To_SW1::?relay`; Banked call to: Send_To_SW1
//  345           break;
        SJMP      ??zclSampleSw_event_loop_9
//  346 
//  347         case UART0_MESSAGE_SW2_TOGGLE:
//  348           Send_To_SW2();
??zclSampleSw_event_loop_7:
        ; Setup parameters for call to function Send_To_SW2
        LCALL     `??Send_To_SW2::?relay`; Banked call to: Send_To_SW2
//  349           break;
//  350 
//  351 #if defined (OTA_CLIENT) && (OTA_CLIENT == TRUE)
//  352         case ZCL_OTA_CALLBACK_IND:
//  353           zclSampleSw_ProcessOTAMsgs( (zclOTA_CallbackMsg_t*)MSGpkt  );
//  354           break;
//  355 #endif
//  356 
//  357         default:
//  358           break;
//  359       }
//  360 
//  361       // Release the memory
//  362       osal_msg_deallocate( (uint8 *)MSGpkt );
??zclSampleSw_event_loop_9:
        ; Setup parameters for call to function osal_msg_deallocate
        MOV       R2,?V0
        MOV       R3,?V1
        LCALL     `??osal_msg_deallocate::?relay`; Banked call to: osal_msg_deallocate
        MOV       A,R1
        SJMP      ??zclSampleSw_event_loop_3
//  363     }
//  364 
//  365     // return unprocessed events
//  366     return (events ^ SYS_EVENT_MSG);
??zclSampleSw_event_loop_4:
        MOV       A,R6
        XRL       A,#0x0
        MOV       R2,A
        MOV       A,R7
        XRL       A,#0x80
        MOV       R3,A
        SJMP      ??zclSampleSw_event_loop_1
//  367   }
//  368 
//  369 #if ZG_BUILD_ENDDEVICE_TYPE    
//  370   if ( events & SAMPLEAPP_END_DEVICE_REJOIN_EVT )
??zclSampleSw_event_loop_2:
        MOV       A,R6
        MOV       C,0xE0 /* A   */.0
        JNC       ??zclSampleSw_event_loop_10
//  371   {
//  372     bdb_ZedAttemptRecoverNwk();
        ; Setup parameters for call to function bdb_ZedAttemptRecoverNwk
        LCALL     `??bdb_ZedAttemptRecoverNwk::?relay`; Banked call to: bdb_ZedAttemptRecoverNwk
        MOV       A,R1
//  373     return ( events ^ SAMPLEAPP_END_DEVICE_REJOIN_EVT );
        MOV       A,R6
        XRL       A,#0x1
        MOV       R2,A
        MOV       A,R7
        XRL       A,#0x0
        MOV       R3,A
        SJMP      ??zclSampleSw_event_loop_1
//  374   }
//  375 #endif
//  376 
//  377   if ( events & SAMPLEAPP_LCD_AUTO_UPDATE_EVT )
??zclSampleSw_event_loop_10:
        MOV       A,R6
        ANL       A,#0x10
        JZ        ??zclSampleSw_event_loop_11
//  378   {
//  379     return ( events ^ SAMPLEAPP_LCD_AUTO_UPDATE_EVT );
        MOV       A,R6
        XRL       A,#0x10
        MOV       R2,A
        MOV       A,R7
        XRL       A,#0x0
        MOV       R3,A
        SJMP      ??zclSampleSw_event_loop_1
//  380   }
//  381 
//  382   if ( events & SAMPLEAPP_KEY_AUTO_REPEAT_EVT )
??zclSampleSw_event_loop_11:
        MOV       A,R6
        ANL       A,#0x20
        JZ        ??zclSampleSw_event_loop_12
//  383   {
//  384     return ( events ^ SAMPLEAPP_KEY_AUTO_REPEAT_EVT );
        MOV       A,R6
        XRL       A,#0x20
        MOV       R2,A
        MOV       A,R7
        XRL       A,#0x0
        MOV       R3,A
        SJMP      ??zclSampleSw_event_loop_1
//  385   }
//  386   // Discard unknown events
//  387   return 0;
??zclSampleSw_event_loop_12:
        MOV       R2,#0x0
        MOV       R3,#0x0
??zclSampleSw_event_loop_1:
        MOV       R7,#0x6
        LJMP      ?BANKED_LEAVE_XDATA
//  388 }
          CFI EndBlock cfiBlock1
//  389 
//  390 /*********************************************************************
//  391  * @fn      zclSampleSw_HandleKeys
//  392  *
//  393  * @brief   Handles all key events for this device.
//  394  *
//  395  * @param   shift - true if in shift/alt.
//  396  * @param   keys - bit field for key events. Valid entries:
//  397  *                 HAL_KEY_SW_5
//  398  *                 HAL_KEY_SW_4
//  399  *                 HAL_KEY_SW_2
//  400  *                 HAL_KEY_SW_1
//  401  *bdbAttributes.bdbNodeIsOnANetwork
//  402  * @return  none
//  403  */

        RSEG BANKED_CODE:HUGECODE:NOROOT(0)
//  404 static void zclSampleSw_HandleKeys( byte shift, byte keys )
zclSampleSw_HandleKeys:
          CFI Block cfiBlock2 Using cfiCommon0
          CFI Function zclSampleSw_HandleKeys
        CODE
//  405 {
        FUNCALL zclSampleSw_HandleKeys, HalLedSet
        LOCFRAME ISTACK, 0, STACK
        LOCFRAME PSTACK, 0, STACK
        LOCFRAME XSTACK, 9, STACK
        LOCFRAME IOVERLAY, 0, STATIC
        LOCFRAME DOVERLAY, 0, STATIC
        ARGFRAME ISTACK, 0, STACK
        ARGFRAME PSTACK, 0, STACK
        ARGFRAME XSTACK, 9, STACK
        ARGFRAME IOVERLAY, 0, STATIC
        ARGFRAME DOVERLAY, 0, STATIC
        FUNCALL zclSampleSw_HandleKeys, touchLinkInitiator_StartDevDisc
        LOCFRAME ISTACK, 0, STACK
        LOCFRAME PSTACK, 0, STACK
        LOCFRAME XSTACK, 9, STACK
        LOCFRAME IOVERLAY, 0, STATIC
        LOCFRAME DOVERLAY, 0, STATIC
        ARGFRAME ISTACK, 0, STACK
        ARGFRAME PSTACK, 0, STACK
        ARGFRAME XSTACK, 9, STACK
        ARGFRAME IOVERLAY, 0, STATIC
        ARGFRAME DOVERLAY, 0, STATIC
        FUNCALL zclSampleSw_HandleKeys, HalLedSet
        LOCFRAME ISTACK, 0, STACK
        LOCFRAME PSTACK, 0, STACK
        LOCFRAME XSTACK, 9, STACK
        LOCFRAME IOVERLAY, 0, STATIC
        LOCFRAME DOVERLAY, 0, STATIC
        ARGFRAME ISTACK, 0, STACK
        ARGFRAME PSTACK, 0, STACK
        ARGFRAME XSTACK, 9, STACK
        ARGFRAME IOVERLAY, 0, STATIC
        ARGFRAME DOVERLAY, 0, STATIC
        FUNCALL zclSampleSw_HandleKeys, touchLinkInitiator_ResetToFNSelectedTarget
        LOCFRAME ISTACK, 0, STACK
        LOCFRAME PSTACK, 0, STACK
        LOCFRAME XSTACK, 9, STACK
        LOCFRAME IOVERLAY, 0, STATIC
        LOCFRAME DOVERLAY, 0, STATIC
        ARGFRAME ISTACK, 0, STACK
        ARGFRAME PSTACK, 0, STACK
        ARGFRAME XSTACK, 9, STACK
        ARGFRAME IOVERLAY, 0, STATIC
        ARGFRAME DOVERLAY, 0, STATIC
        MOV       A,#-0x9
        LCALL     ?BANKED_ENTER_XDATA
          CFI DPH0 load(1, XDATA, add(CFA_XSP16, literal(-1)))
          CFI DPL0 load(1, XDATA, add(CFA_XSP16, literal(-2)))
          CFI ?BRET_EXT load(1, XDATA, add(CFA_XSP16, literal(-3)))
          CFI ?RET_HIGH load(1, XDATA, add(CFA_XSP16, literal(-4)))
          CFI ?RET_LOW load(1, XDATA, add(CFA_XSP16, literal(-5)))
          CFI R7 load(1, XDATA, add(CFA_XSP16, literal(-6)))
          CFI V0 load(1, XDATA, add(CFA_XSP16, literal(-7)))
          CFI VB load(1, XDATA, add(CFA_XSP16, literal(-8)))
          CFI R6 load(1, XDATA, add(CFA_XSP16, literal(-9)))
          CFI CFA_SP SP+0
          CFI CFA_XSP16 add(XSP16, 9)
        ; Saved register size: 9
        ; Auto size: 0
        MOV       A,R1
        MOV       R6,A
        MOV       A,R2
        MOV       R7,A
//  406   if ( keys & HAL_KEY_SW_6 ) //key1
        MOV       A,R7
        MOV       C,0xE0 /* A   */.5
        JNC       ??zclSampleSw_HandleKeys_0
//  407   {
//  408     HalLedSet ( HAL_LED_2, HAL_LED_MODE_TOGGLE );
        ; Setup parameters for call to function HalLedSet
        MOV       R2,#0x8
        MOV       R1,#0x2
        LCALL     `??HalLedSet::?relay`; Banked call to: HalLedSet
        MOV       A,R1
//  409    // bdb_StartCommissioning( BDB_COMMISSIONING_MODE_NWK_FORMATION | BDB_COMMISSIONING_MODE_INITIATOR_TL );  //Coordiinator BDB_COMMISSIONING_TOUCHLINK
//  410 //    bdb_StartCommissioning( BDB_COMMISSIONING_MODE_INITIATOR_TL );
//  411     touchLinkInitiator_StartDevDisc();
        ; Setup parameters for call to function touchLinkInitiator_StartDevDisc
        LCALL     `??touchLinkInitiator_StartDevDisc::?relay`; Banked call to: touchLinkInitiator_StartDevDisc
        MOV       A,R1
//  412     
//  413   }    
//  414   if ( keys & HAL_KEY_SW_5 ) //key2
??zclSampleSw_HandleKeys_0:
        MOV       A,R7
        MOV       C,0xE0 /* A   */.2
        JNC       ??zclSampleSw_HandleKeys_1
//  415   {
//  416 //    Send_To_SW1();
//  417     HalLedSet ( HAL_LED_3, HAL_LED_MODE_FLASH );
        ; Setup parameters for call to function HalLedSet
        MOV       R2,#0x4
        MOV       R1,#0x4
        LCALL     `??HalLedSet::?relay`; Banked call to: HalLedSet
        MOV       A,R1
//  418     touchLinkInitiator_ResetToFNSelectedTarget();
        ; Setup parameters for call to function touchLinkInitiator_ResetToFNSelectedTarget
        LCALL     `??touchLinkInitiator_ResetToFNSelectedTarget::?`; Banked call to: touchLinkInitiator_ResetToFNSelectedTarget
        MOV       A,R1
//  419 //    Send_To_SW2();
//  420   }
//  421 }
??zclSampleSw_HandleKeys_1:
        MOV       R7,#0x1
        LJMP      ?BANKED_LEAVE_XDATA
          CFI EndBlock cfiBlock2
//  422 
//  423 
//  424 /*********************************************************************
//  425  * @fn      zclSampleSw_ProcessCommissioningStatus
//  426  *
//  427  * @brief   Callback in which the status of the commissioning process are reported
//  428  *
//  429  * @param   bdbCommissioningModeMsg - Context message of the status of a commissioning process
//  430  *
//  431  * @return  none
//  432  */

        RSEG BANKED_CODE:HUGECODE:NOROOT(0)
//  433 static void zclSampleSw_ProcessCommissioningStatus(bdbCommissioningModeMsg_t *bdbCommissioningModeMsg)
zclSampleSw_ProcessCommissioningStatus:
          CFI Block cfiBlock3 Using cfiCommon0
          CFI Function zclSampleSw_ProcessCommissioningStatus
        CODE
//  434 {
        FUNCALL zclSampleSw_ProcessCommissioningStatus, bdb_StartCommissioning
        LOCFRAME ISTACK, 0, STACK
        LOCFRAME PSTACK, 0, STACK
        LOCFRAME XSTACK, 9, STACK
        LOCFRAME IOVERLAY, 0, STATIC
        LOCFRAME DOVERLAY, 0, STATIC
        ARGFRAME ISTACK, 0, STACK
        ARGFRAME PSTACK, 0, STACK
        ARGFRAME XSTACK, 9, STACK
        ARGFRAME IOVERLAY, 0, STATIC
        ARGFRAME DOVERLAY, 0, STATIC
        FUNCALL zclSampleSw_ProcessCommissioningStatus, osal_start_timerEx
        LOCFRAME ISTACK, 0, STACK
        LOCFRAME PSTACK, 0, STACK
        LOCFRAME XSTACK, 13, STACK
        LOCFRAME IOVERLAY, 0, STATIC
        LOCFRAME DOVERLAY, 0, STATIC
        ARGFRAME ISTACK, 0, STACK
        ARGFRAME PSTACK, 0, STACK
        ARGFRAME XSTACK, 13, STACK
        ARGFRAME IOVERLAY, 0, STATIC
        ARGFRAME DOVERLAY, 0, STATIC
        MOV       A,#-0x9
        LCALL     ?BANKED_ENTER_XDATA
          CFI DPH0 load(1, XDATA, add(CFA_XSP16, literal(-1)))
          CFI DPL0 load(1, XDATA, add(CFA_XSP16, literal(-2)))
          CFI ?BRET_EXT load(1, XDATA, add(CFA_XSP16, literal(-3)))
          CFI ?RET_HIGH load(1, XDATA, add(CFA_XSP16, literal(-4)))
          CFI ?RET_LOW load(1, XDATA, add(CFA_XSP16, literal(-5)))
          CFI R7 load(1, XDATA, add(CFA_XSP16, literal(-6)))
          CFI V0 load(1, XDATA, add(CFA_XSP16, literal(-7)))
          CFI VB load(1, XDATA, add(CFA_XSP16, literal(-8)))
          CFI R6 load(1, XDATA, add(CFA_XSP16, literal(-9)))
          CFI CFA_SP SP+0
          CFI CFA_XSP16 add(XSP16, 9)
        ; Saved register size: 9
        ; Auto size: 0
        MOV       A,R2
        MOV       R6,A
        MOV       A,R3
        MOV       R7,A
//  435   switch(bdbCommissioningModeMsg->bdbCommissioningMode)
        MOV       DPL,R6
        MOV       DPH,R7
        INC       DPTR
        MOVX      A,@DPTR
        JZ        ??zclSampleSw_ProcessCommissioningStatus_0
        DEC       A
        JZ        ??zclSampleSw_ProcessCommissioningStatus_0
        DEC       A
        JZ        ??zclSampleSw_ProcessCommissioningStatus_1
        DEC       A
        JZ        ??zclSampleSw_ProcessCommissioningStatus_0
        ADD       A,#-0x2
        JZ        ??zclSampleSw_ProcessCommissioningStatus_2
        SJMP      ??zclSampleSw_ProcessCommissioningStatus_0
//  436   {
//  437     case BDB_COMMISSIONING_FORMATION:
//  438       if(bdbCommissioningModeMsg->bdbCommissioningStatus == BDB_COMMISSIONING_SUCCESS)
??zclSampleSw_ProcessCommissioningStatus_1:
        MOV       DPL,R6
        MOV       DPH,R7
        MOVX      A,@DPTR
        JNZ       ??zclSampleSw_ProcessCommissioningStatus_0
//  439       {
//  440         //After formation, perform nwk steering again plus the remaining commissioning modes that has not been processed yet
//  441         //HalLedSet ( HAL_LED_1, HAL_LED_MODE_ON );
//  442         bdb_StartCommissioning(BDB_COMMISSIONING_MODE_NWK_STEERING | bdbCommissioningModeMsg->bdbRemainingCommissioningModes);
        ; Setup parameters for call to function bdb_StartCommissioning
        MOV       DPL,R6
        MOV       DPH,R7
        INC       DPTR
        INC       DPTR
        MOVX      A,@DPTR
        ORL       A,#0x2
        MOV       R1,A
        LCALL     `??bdb_StartCommissioning::?relay`; Banked call to: bdb_StartCommissioning
//  443       }
//  444       else
//  445       {
//  446         //Want to try other channels?
//  447         //try with bdb_setChannelAttribute
//  448       }
//  449     break;
        SJMP      ??zclSampleSw_ProcessCommissioningStatus_0
//  450     case BDB_COMMISSIONING_NWK_STEERING:
//  451       if(bdbCommissioningModeMsg->bdbCommissioningStatus == BDB_COMMISSIONING_SUCCESS)
//  452       {
//  453         //YOUR JOB:
//  454         //We are on the nwk, what now?
//  455       }
//  456       else
//  457       {
//  458         //See the possible errors for nwk steering procedure
//  459         //No suitable networks found
//  460         //Want to try other channels?
//  461         //try with bdb_setChannelAttribute
//  462       }
//  463     break;
//  464     case BDB_COMMISSIONING_FINDING_BINDING:
//  465       if(bdbCommissioningModeMsg->bdbCommissioningStatus == BDB_COMMISSIONING_SUCCESS)
//  466       {
//  467         //YOUR JOB:
//  468       }
//  469       else
//  470       {
//  471         //YOUR JOB:
//  472         //retry?, wait for user interaction?
//  473       }
//  474     break;
//  475     case BDB_COMMISSIONING_INITIALIZATION:
//  476       //Initialization notification can only be successful. Failure on initialization 
//  477       //only happens for ZED and is notified as BDB_COMMISSIONING_PARENT_LOST notification
//  478       
//  479       //YOUR JOB:
//  480       //We are on a network, what now?
//  481       
//  482     break;
//  483 #if ZG_BUILD_ENDDEVICE_TYPE    
//  484     case BDB_COMMISSIONING_PARENT_LOST:
//  485       if(bdbCommissioningModeMsg->bdbCommissioningStatus == BDB_COMMISSIONING_NETWORK_RESTORED)
??zclSampleSw_ProcessCommissioningStatus_2:
        MOV       DPL,R6
        MOV       DPH,R7
        MOVX      A,@DPTR
        XRL       A,#0xd
        JZ        ??zclSampleSw_ProcessCommissioningStatus_0
//  486       {
//  487         //We did recover from losing parent
//  488       }
//  489       else
//  490       {
//  491         //Parent not found, attempt to rejoin again after a fixed delay
//  492         osal_start_timerEx(zclSampleSw_TaskID, SAMPLEAPP_END_DEVICE_REJOIN_EVT, SAMPLEAPP_END_DEVICE_REJOIN_DELAY);
        ; Setup parameters for call to function osal_start_timerEx
        MOV       DPTR,#__Constant_2710
        LCALL     ?PUSH_XSTACK8_X_FOUR
          CFI CFA_XSP16 add(XSP16, 13)
        MOV       R2,#0x1
        MOV       R3,#0x0
        MOV       DPTR,#zclSampleSw_TaskID
        MOVX      A,@DPTR
        MOV       R1,A
        LCALL     `??osal_start_timerEx::?relay`; Banked call to: osal_start_timerEx
        MOV       A,#0x4
        LCALL     ?DEALLOC_XSTACK8
          CFI CFA_XSP16 add(XSP16, 9)
        MOV       A,R1
//  493       }
//  494     break;
//  495 #endif 
//  496   }
//  497   
//  498 }
??zclSampleSw_ProcessCommissioningStatus_0:
        MOV       R7,#0x1
        LJMP      ?BANKED_LEAVE_XDATA
          CFI EndBlock cfiBlock3
//  499 
//  500 /*********************************************************************
//  501  * @fn      zclSampleSw_BasicResetCB
//  502  *
//  503  * @brief   Callback from the ZCL General Cluster Library
//  504  *          to set all the Basic Cluster attributes to  default values.
//  505  *
//  506  * @param   none
//  507  *
//  508  * @return  none
//  509  */

        RSEG BANKED_CODE:HUGECODE:NOROOT(0)
//  510 static void zclSampleSw_BasicResetCB( void )
zclSampleSw_BasicResetCB:
          CFI Block cfiBlock4 Using cfiCommon0
          CFI Function zclSampleSw_BasicResetCB
        CODE
//  511 {
        FUNCALL zclSampleSw_BasicResetCB, zclSampleSw_ResetAttributesToDefaultValues
        LOCFRAME ISTACK, 2, STACK
        LOCFRAME PSTACK, 0, STACK
        LOCFRAME XSTACK, 0, STACK
        LOCFRAME IOVERLAY, 0, STATIC
        LOCFRAME DOVERLAY, 0, STATIC
        ARGFRAME ISTACK, 2, STACK
        ARGFRAME PSTACK, 0, STACK
        ARGFRAME XSTACK, 0, STACK
        ARGFRAME IOVERLAY, 0, STATIC
        ARGFRAME DOVERLAY, 0, STATIC
        PUSH      DPL
          CFI DPL0 Frame(CFA_SP, 4)
          CFI CFA_SP SP+-4
        PUSH      DPH
          CFI DPH0 Frame(CFA_SP, 5)
          CFI CFA_SP SP+-5
        ; Saved register size: 2
        ; Auto size: 0
//  512   zclSampleSw_ResetAttributesToDefaultValues();
        ; Setup parameters for call to function zclSampleSw_ResetAttributesToDefaultValues
        LCALL     `??zclSampleSw_ResetAttributesToDefaultValues::?`; Banked call to: zclSampleSw_ResetAttributesToDefaultValues
//  513 }
        POP       DPH
          CFI DPH0 SameValue
          CFI CFA_SP SP+-4
        POP       DPL
          CFI DPL0 SameValue
          CFI CFA_SP SP+-3
        LJMP      ?BRET
          CFI EndBlock cfiBlock4
//  514 
//  515 /*********************************************************************
//  516  * @fn      zclSampleApp_BatteryWarningCB
//  517  *
//  518  * @brief   Called to handle battery-low situation.
//  519  *
//  520  * @param   voltLevel - level of severity
//  521  *
//  522  * @return  none
//  523  */

        RSEG BANKED_CODE:HUGECODE:NOROOT(0)
//  524 void zclSampleApp_BatteryWarningCB( uint8 voltLevel )
zclSampleApp_BatteryWarningCB:
          CFI Block cfiBlock5 Using cfiCommon0
          CFI Function zclSampleApp_BatteryWarningCB
        CODE
//  525 {
        ; Saved register size: 0
        ; Auto size: 0
//  526   if ( voltLevel == VOLT_LEVEL_CAUTIOUS )
        MOV       A,#0x1
        XRL       A,R1
//  527   {
//  528     // Send warning message to the gateway and blink LED
//  529   }
//  530   else if ( voltLevel == VOLT_LEVEL_BAD )
//  531   {
//  532     // Shut down the system
//  533   }
//  534 }
        LJMP      ?BRET
          CFI EndBlock cfiBlock5
//  535 
//  536 /******************************************************************************
//  537  *
//  538  *  Functions for processing ZCL Foundation incoming Command/Response messages
//  539  *
//  540  *****************************************************************************/
//  541 
//  542 /*********************************************************************
//  543  * @fn      zclSampleSw_ProcessIncomingMsg
//  544  *
//  545  * @brief   Process ZCL Foundation incoming message
//  546  *
//  547  * @param   pInMsg - pointer to the received message
//  548  *
//  549  * @return  none
//  550  */

        RSEG BANKED_CODE:HUGECODE:NOROOT(0)
//  551 static void zclSampleSw_ProcessIncomingMsg( zclIncomingMsg_t *pInMsg )
zclSampleSw_ProcessIncomingMsg:
          CFI Block cfiBlock6 Using cfiCommon0
          CFI Function zclSampleSw_ProcessIncomingMsg
        CODE
//  552 {
        FUNCALL zclSampleSw_ProcessIncomingMsg, zclSampleSw_ProcessInReadRspCmd
        LOCFRAME ISTACK, 0, STACK
        LOCFRAME PSTACK, 0, STACK
        LOCFRAME XSTACK, 9, STACK
        LOCFRAME IOVERLAY, 0, STATIC
        LOCFRAME DOVERLAY, 0, STATIC
        ARGFRAME ISTACK, 0, STACK
        ARGFRAME PSTACK, 0, STACK
        ARGFRAME XSTACK, 9, STACK
        ARGFRAME IOVERLAY, 0, STATIC
        ARGFRAME DOVERLAY, 0, STATIC
        FUNCALL zclSampleSw_ProcessIncomingMsg, zclSampleSw_ProcessInWriteRspCmd
        LOCFRAME ISTACK, 0, STACK
        LOCFRAME PSTACK, 0, STACK
        LOCFRAME XSTACK, 9, STACK
        LOCFRAME IOVERLAY, 0, STATIC
        LOCFRAME DOVERLAY, 0, STATIC
        ARGFRAME ISTACK, 0, STACK
        ARGFRAME PSTACK, 0, STACK
        ARGFRAME XSTACK, 9, STACK
        ARGFRAME IOVERLAY, 0, STATIC
        ARGFRAME DOVERLAY, 0, STATIC
        FUNCALL zclSampleSw_ProcessIncomingMsg, zclSampleSw_ProcessInDefaultRspCmd
        LOCFRAME ISTACK, 0, STACK
        LOCFRAME PSTACK, 0, STACK
        LOCFRAME XSTACK, 9, STACK
        LOCFRAME IOVERLAY, 0, STATIC
        LOCFRAME DOVERLAY, 0, STATIC
        ARGFRAME ISTACK, 0, STACK
        ARGFRAME PSTACK, 0, STACK
        ARGFRAME XSTACK, 9, STACK
        ARGFRAME IOVERLAY, 0, STATIC
        ARGFRAME DOVERLAY, 0, STATIC
        FUNCALL zclSampleSw_ProcessIncomingMsg, zclSampleSw_ProcessInDiscCmdsRspCmd
        LOCFRAME ISTACK, 0, STACK
        LOCFRAME PSTACK, 0, STACK
        LOCFRAME XSTACK, 9, STACK
        LOCFRAME IOVERLAY, 0, STATIC
        LOCFRAME DOVERLAY, 0, STATIC
        ARGFRAME ISTACK, 0, STACK
        ARGFRAME PSTACK, 0, STACK
        ARGFRAME XSTACK, 9, STACK
        ARGFRAME IOVERLAY, 0, STATIC
        ARGFRAME DOVERLAY, 0, STATIC
        FUNCALL zclSampleSw_ProcessIncomingMsg, zclSampleSw_ProcessInDiscCmdsRspCmd
        LOCFRAME ISTACK, 0, STACK
        LOCFRAME PSTACK, 0, STACK
        LOCFRAME XSTACK, 9, STACK
        LOCFRAME IOVERLAY, 0, STATIC
        LOCFRAME DOVERLAY, 0, STATIC
        ARGFRAME ISTACK, 0, STACK
        ARGFRAME PSTACK, 0, STACK
        ARGFRAME XSTACK, 9, STACK
        ARGFRAME IOVERLAY, 0, STATIC
        ARGFRAME DOVERLAY, 0, STATIC
        FUNCALL zclSampleSw_ProcessIncomingMsg, zclSampleSw_ProcessInDiscAttrsRspCmd
        LOCFRAME ISTACK, 0, STACK
        LOCFRAME PSTACK, 0, STACK
        LOCFRAME XSTACK, 9, STACK
        LOCFRAME IOVERLAY, 0, STATIC
        LOCFRAME DOVERLAY, 0, STATIC
        ARGFRAME ISTACK, 0, STACK
        ARGFRAME PSTACK, 0, STACK
        ARGFRAME XSTACK, 9, STACK
        ARGFRAME IOVERLAY, 0, STATIC
        ARGFRAME DOVERLAY, 0, STATIC
        FUNCALL zclSampleSw_ProcessIncomingMsg, zclSampleSw_ProcessInDiscAttrsExtRspCmd
        LOCFRAME ISTACK, 0, STACK
        LOCFRAME PSTACK, 0, STACK
        LOCFRAME XSTACK, 9, STACK
        LOCFRAME IOVERLAY, 0, STATIC
        LOCFRAME DOVERLAY, 0, STATIC
        ARGFRAME ISTACK, 0, STACK
        ARGFRAME PSTACK, 0, STACK
        ARGFRAME XSTACK, 9, STACK
        ARGFRAME IOVERLAY, 0, STATIC
        ARGFRAME DOVERLAY, 0, STATIC
        FUNCALL zclSampleSw_ProcessIncomingMsg, osal_mem_free
        LOCFRAME ISTACK, 0, STACK
        LOCFRAME PSTACK, 0, STACK
        LOCFRAME XSTACK, 9, STACK
        LOCFRAME IOVERLAY, 0, STATIC
        LOCFRAME DOVERLAY, 0, STATIC
        ARGFRAME ISTACK, 0, STACK
        ARGFRAME PSTACK, 0, STACK
        ARGFRAME XSTACK, 9, STACK
        ARGFRAME IOVERLAY, 0, STATIC
        ARGFRAME DOVERLAY, 0, STATIC
        MOV       A,#-0x9
        LCALL     ?BANKED_ENTER_XDATA
          CFI DPH0 load(1, XDATA, add(CFA_XSP16, literal(-1)))
          CFI DPL0 load(1, XDATA, add(CFA_XSP16, literal(-2)))
          CFI ?BRET_EXT load(1, XDATA, add(CFA_XSP16, literal(-3)))
          CFI ?RET_HIGH load(1, XDATA, add(CFA_XSP16, literal(-4)))
          CFI ?RET_LOW load(1, XDATA, add(CFA_XSP16, literal(-5)))
          CFI R7 load(1, XDATA, add(CFA_XSP16, literal(-6)))
          CFI V0 load(1, XDATA, add(CFA_XSP16, literal(-7)))
          CFI VB load(1, XDATA, add(CFA_XSP16, literal(-8)))
          CFI R6 load(1, XDATA, add(CFA_XSP16, literal(-9)))
          CFI CFA_SP SP+0
          CFI CFA_XSP16 add(XSP16, 9)
        ; Saved register size: 9
        ; Auto size: 0
        MOV       A,R2
        MOV       R6,A
        MOV       A,R3
        MOV       R7,A
//  553   switch ( pInMsg->zclHdr.commandID )
        MOV       DPL,R6
        MOV       DPH,R7
        INC       DPTR
        INC       DPTR
        INC       DPTR
        INC       DPTR
        INC       DPTR
        INC       DPTR
        INC       DPTR
        MOVX      A,@DPTR
        DEC       A
        JZ        ??zclSampleSw_ProcessIncomingMsg_0
        ADD       A,#-0x3
        JZ        ??zclSampleSw_ProcessIncomingMsg_1
        ADD       A,#-0x7
        JZ        ??zclSampleSw_ProcessIncomingMsg_2
        ADD       A,#-0x2
        JZ        ??zclSampleSw_ProcessIncomingMsg_3
        ADD       A,#-0x5
        JZ        ??zclSampleSw_ProcessIncomingMsg_4
        ADD       A,#-0x2
        JZ        ??zclSampleSw_ProcessIncomingMsg_5
        ADD       A,#-0x2
        JZ        ??zclSampleSw_ProcessIncomingMsg_6
        SJMP      ??zclSampleSw_ProcessIncomingMsg_7
//  554   {
//  555 #ifdef ZCL_READ
//  556     case ZCL_CMD_READ_RSP:
//  557       zclSampleSw_ProcessInReadRspCmd( pInMsg );
??zclSampleSw_ProcessIncomingMsg_0:
        ; Setup parameters for call to function zclSampleSw_ProcessInReadRspCmd
        MOV       A,R6
        MOV       R2,A
        MOV       A,R7
        MOV       R3,A
        LCALL     `??zclSampleSw_ProcessInReadRspCmd::?relay`; Banked call to: zclSampleSw_ProcessInReadRspCmd
        MOV       A,R1
//  558       break;
        SJMP      ??zclSampleSw_ProcessIncomingMsg_7
//  559 #endif
//  560 #ifdef ZCL_WRITE
//  561     case ZCL_CMD_WRITE_RSP:
//  562       zclSampleSw_ProcessInWriteRspCmd( pInMsg );
??zclSampleSw_ProcessIncomingMsg_1:
        ; Setup parameters for call to function zclSampleSw_ProcessInWriteRspCmd
        MOV       A,R6
        MOV       R2,A
        MOV       A,R7
        MOV       R3,A
        LCALL     `??zclSampleSw_ProcessInWriteRspCmd::?relay`; Banked call to: zclSampleSw_ProcessInWriteRspCmd
        MOV       A,R1
//  563       break;
        SJMP      ??zclSampleSw_ProcessIncomingMsg_7
//  564 #endif
//  565 #ifdef ZCL_REPORT
//  566     // See ZCL Test Applicaiton (zcl_testapp.c) for sample code on Attribute Reporting
//  567     case ZCL_CMD_CONFIG_REPORT:
//  568       //zclSampleSw_ProcessInConfigReportCmd( pInMsg );
//  569       break;
//  570 
//  571     case ZCL_CMD_CONFIG_REPORT_RSP:
//  572       //zclSampleSw_ProcessInConfigReportRspCmd( pInMsg );
//  573       break;
//  574 
//  575     case ZCL_CMD_READ_REPORT_CFG:
//  576       //zclSampleSw_ProcessInReadReportCfgCmd( pInMsg );
//  577       break;
//  578 
//  579     case ZCL_CMD_READ_REPORT_CFG_RSP:
//  580       //zclSampleSw_ProcessInReadReportCfgRspCmd( pInMsg );
//  581       break;
//  582 
//  583     case ZCL_CMD_REPORT:
//  584       zclSampleSw_ProcessInReportCmd( pInMsg );
//  585       break;
//  586 #endif
//  587     case ZCL_CMD_DEFAULT_RSP:
//  588       zclSampleSw_ProcessInDefaultRspCmd( pInMsg );
??zclSampleSw_ProcessIncomingMsg_2:
        ; Setup parameters for call to function zclSampleSw_ProcessInDefaultRspCmd
        MOV       A,R6
        MOV       R2,A
        MOV       A,R7
        MOV       R3,A
        LCALL     `??zclSampleSw_ProcessInDefaultRspCmd::?relay`; Banked call to: zclSampleSw_ProcessInDefaultRspCmd
        MOV       A,R1
//  589       break;
        SJMP      ??zclSampleSw_ProcessIncomingMsg_7
//  590 #ifdef ZCL_DISCOVER
//  591     case ZCL_CMD_DISCOVER_CMDS_RECEIVED_RSP:
//  592       zclSampleSw_ProcessInDiscCmdsRspCmd( pInMsg );
??zclSampleSw_ProcessIncomingMsg_4:
        ; Setup parameters for call to function zclSampleSw_ProcessInDiscCmdsRspCmd
        MOV       A,R6
        MOV       R2,A
        MOV       A,R7
        MOV       R3,A
        LCALL     `??zclSampleSw_ProcessInDiscCmdsRspCmd::?relay`; Banked call to: zclSampleSw_ProcessInDiscCmdsRspCmd
        MOV       A,R1
//  593       break;
        SJMP      ??zclSampleSw_ProcessIncomingMsg_7
//  594 
//  595     case ZCL_CMD_DISCOVER_CMDS_GEN_RSP:
//  596       zclSampleSw_ProcessInDiscCmdsRspCmd( pInMsg );
??zclSampleSw_ProcessIncomingMsg_5:
        ; Setup parameters for call to function zclSampleSw_ProcessInDiscCmdsRspCmd
        MOV       A,R6
        MOV       R2,A
        MOV       A,R7
        MOV       R3,A
        LCALL     `??zclSampleSw_ProcessInDiscCmdsRspCmd::?relay`; Banked call to: zclSampleSw_ProcessInDiscCmdsRspCmd
        MOV       A,R1
//  597       break;
        SJMP      ??zclSampleSw_ProcessIncomingMsg_7
//  598 
//  599     case ZCL_CMD_DISCOVER_ATTRS_RSP:
//  600       zclSampleSw_ProcessInDiscAttrsRspCmd( pInMsg );
??zclSampleSw_ProcessIncomingMsg_3:
        ; Setup parameters for call to function zclSampleSw_ProcessInDiscAttrsRspCmd
        MOV       A,R6
        MOV       R2,A
        MOV       A,R7
        MOV       R3,A
        LCALL     `??zclSampleSw_ProcessInDiscAttrsRspCmd::?relay`; Banked call to: zclSampleSw_ProcessInDiscAttrsRspCmd
        MOV       A,R1
//  601       break;
        SJMP      ??zclSampleSw_ProcessIncomingMsg_7
//  602 
//  603     case ZCL_CMD_DISCOVER_ATTRS_EXT_RSP:
//  604       zclSampleSw_ProcessInDiscAttrsExtRspCmd( pInMsg );
??zclSampleSw_ProcessIncomingMsg_6:
        ; Setup parameters for call to function zclSampleSw_ProcessInDiscAttrsExtRspCmd
        MOV       A,R6
        MOV       R2,A
        MOV       A,R7
        MOV       R3,A
        LCALL     `??zclSampleSw_ProcessInDiscAttrsExtRspCmd::?rel`; Banked call to: zclSampleSw_ProcessInDiscAttrsExtRspCmd
        MOV       A,R1
//  605       break;
//  606 #endif
//  607     default:
//  608       break;
//  609   }
//  610 
//  611   if ( pInMsg->attrCmd )
??zclSampleSw_ProcessIncomingMsg_7:
        MOV       A,R6
        ADD       A,#0x17
        MOV       DPL,A
        CLR       A
        ADDC      A,R7
        MOV       DPH,A
        MOVX      A,@DPTR
        MOV       R0,A
        INC       DPTR
        MOVX      A,@DPTR
        MOV       R1,A
        MOV       A,R0
        ORL       A,R1
        JZ        ??zclSampleSw_ProcessIncomingMsg_8
//  612     osal_mem_free( pInMsg->attrCmd );
        ; Setup parameters for call to function osal_mem_free
        MOV       A,R6
        ADD       A,#0x17
        MOV       DPL,A
        CLR       A
        ADDC      A,R7
        MOV       DPH,A
        MOVX      A,@DPTR
        MOV       R2,A
        INC       DPTR
        MOVX      A,@DPTR
        MOV       R3,A
        LCALL     `??osal_mem_free::?relay`; Banked call to: osal_mem_free
//  613 }
??zclSampleSw_ProcessIncomingMsg_8:
        MOV       R7,#0x1
        LJMP      ?BANKED_LEAVE_XDATA
          CFI EndBlock cfiBlock6
//  614 
//  615 #ifdef ZCL_READ
//  616 /*********************************************************************
//  617  * @fn      zclSampleSw_ProcessInReadRspCmd
//  618  *
//  619  * @brief   Process the "Profile" Read Response Command
//  620  *
//  621  * @param   pInMsg - incoming message to process
//  622  *
//  623  * @return  none
//  624  */

        RSEG BANKED_CODE:HUGECODE:NOROOT(0)
//  625 static uint8 zclSampleSw_ProcessInReadRspCmd( zclIncomingMsg_t *pInMsg )
zclSampleSw_ProcessInReadRspCmd:
          CFI Block cfiBlock7 Using cfiCommon0
          CFI Function zclSampleSw_ProcessInReadRspCmd
        CODE
//  626 {
        MOV       A,#-0x9
        LCALL     ?BANKED_ENTER_XDATA
          CFI DPH0 load(1, XDATA, add(CFA_XSP16, literal(-1)))
          CFI DPL0 load(1, XDATA, add(CFA_XSP16, literal(-2)))
          CFI ?BRET_EXT load(1, XDATA, add(CFA_XSP16, literal(-3)))
          CFI ?RET_HIGH load(1, XDATA, add(CFA_XSP16, literal(-4)))
          CFI ?RET_LOW load(1, XDATA, add(CFA_XSP16, literal(-5)))
          CFI R7 load(1, XDATA, add(CFA_XSP16, literal(-6)))
          CFI V0 load(1, XDATA, add(CFA_XSP16, literal(-7)))
          CFI VB load(1, XDATA, add(CFA_XSP16, literal(-8)))
          CFI R6 load(1, XDATA, add(CFA_XSP16, literal(-9)))
          CFI CFA_SP SP+0
          CFI CFA_XSP16 add(XSP16, 9)
        ; Saved register size: 9
        ; Auto size: 0
//  627   zclReadRspCmd_t *readRspCmd;
//  628   uint8 i;
//  629 
//  630   readRspCmd = (zclReadRspCmd_t *)pInMsg->attrCmd;
        MOV       A,R2
        ADD       A,#0x17
        MOV       DPL,A
        CLR       A
        ADDC      A,R3
        MOV       DPH,A
        MOVX      A,@DPTR
        MOV       R0,A
        INC       DPTR
        MOVX      A,@DPTR
        MOV       R1,A
        MOV       A,R0
        MOV       R6,A
        MOV       A,R1
        MOV       R7,A
//  631   for (i = 0; i < readRspCmd->numAttr; i++)
        MOV       R4,#0x0
??zclSampleSw_ProcessInReadRspCmd_0:
        MOV       DPL,R6
        MOV       DPH,R7
        MOVX      A,@DPTR
        MOV       R0,A
        MOV       A,R4
        CLR       C
        SUBB      A,R0
        JNC       ??zclSampleSw_ProcessInReadRspCmd_1
        INC       R4
        SJMP      ??zclSampleSw_ProcessInReadRspCmd_0
//  632   {
//  633     // Notify the originator of the results of the original read attributes
//  634     // attempt and, for each successfull request, the value of the requested
//  635     // attribute
//  636   }
//  637 
//  638   return TRUE;
??zclSampleSw_ProcessInReadRspCmd_1:
        MOV       R1,#0x1
        MOV       R7,#0x1
        LJMP      ?BANKED_LEAVE_XDATA
//  639 }
          CFI EndBlock cfiBlock7
//  640 #endif // ZCL_READ
//  641 
//  642 #ifdef ZCL_WRITE
//  643 /*********************************************************************
//  644  * @fn      zclSampleSw_ProcessInWriteRspCmd
//  645  *
//  646  * @brief   Process the "Profile" Write Response Command
//  647  *
//  648  * @param   pInMsg - incoming message to process
//  649  *
//  650  * @return  none
//  651  */

        RSEG BANKED_CODE:HUGECODE:NOROOT(0)
//  652 static uint8 zclSampleSw_ProcessInWriteRspCmd( zclIncomingMsg_t *pInMsg )
zclSampleSw_ProcessInWriteRspCmd:
          CFI Block cfiBlock8 Using cfiCommon0
          CFI Function zclSampleSw_ProcessInWriteRspCmd
        CODE
//  653 {
        MOV       A,#-0x9
        LCALL     ?BANKED_ENTER_XDATA
          CFI DPH0 load(1, XDATA, add(CFA_XSP16, literal(-1)))
          CFI DPL0 load(1, XDATA, add(CFA_XSP16, literal(-2)))
          CFI ?BRET_EXT load(1, XDATA, add(CFA_XSP16, literal(-3)))
          CFI ?RET_HIGH load(1, XDATA, add(CFA_XSP16, literal(-4)))
          CFI ?RET_LOW load(1, XDATA, add(CFA_XSP16, literal(-5)))
          CFI R7 load(1, XDATA, add(CFA_XSP16, literal(-6)))
          CFI V0 load(1, XDATA, add(CFA_XSP16, literal(-7)))
          CFI VB load(1, XDATA, add(CFA_XSP16, literal(-8)))
          CFI R6 load(1, XDATA, add(CFA_XSP16, literal(-9)))
          CFI CFA_SP SP+0
          CFI CFA_XSP16 add(XSP16, 9)
        ; Saved register size: 9
        ; Auto size: 0
//  654   zclWriteRspCmd_t *writeRspCmd;
//  655   uint8 i;
//  656 
//  657   writeRspCmd = (zclWriteRspCmd_t *)pInMsg->attrCmd;
        MOV       A,R2
        ADD       A,#0x17
        MOV       DPL,A
        CLR       A
        ADDC      A,R3
        MOV       DPH,A
        MOVX      A,@DPTR
        MOV       R0,A
        INC       DPTR
        MOVX      A,@DPTR
        MOV       R1,A
        MOV       A,R0
        MOV       R6,A
        MOV       A,R1
        MOV       R7,A
//  658   for (i = 0; i < writeRspCmd->numAttr; i++)
        MOV       R4,#0x0
??zclSampleSw_ProcessInWriteRspCmd_0:
        MOV       DPL,R6
        MOV       DPH,R7
        MOVX      A,@DPTR
        MOV       R0,A
        MOV       A,R4
        CLR       C
        SUBB      A,R0
        JNC       ??zclSampleSw_ProcessInWriteRspCmd_1
        INC       R4
        SJMP      ??zclSampleSw_ProcessInWriteRspCmd_0
//  659   {
//  660     // Notify the device of the results of the its original write attributes
//  661     // command.
//  662   }
//  663 
//  664   return TRUE;
??zclSampleSw_ProcessInWriteRspCmd_1:
        MOV       R1,#0x1
        MOV       R7,#0x1
        LJMP      ?BANKED_LEAVE_XDATA
//  665 }
          CFI EndBlock cfiBlock8
//  666 #endif // ZCL_WRITE
//  667 
//  668 /*********************************************************************
//  669  * @fn      zclSampleSw_ProcessInDefaultRspCmd
//  670  *
//  671  * @brief   Process the "Profile" Default Response Command
//  672  *
//  673  * @param   pInMsg - incoming message to process
//  674  *
//  675  * @return  none
//  676  */

        RSEG BANKED_CODE:HUGECODE:NOROOT(0)
//  677 static uint8 zclSampleSw_ProcessInDefaultRspCmd( zclIncomingMsg_t *pInMsg )
zclSampleSw_ProcessInDefaultRspCmd:
          CFI Block cfiBlock9 Using cfiCommon0
          CFI Function zclSampleSw_ProcessInDefaultRspCmd
        CODE
//  678 {
        ; Saved register size: 0
        ; Auto size: 0
//  679   // zclDefaultRspCmd_t *defaultRspCmd = (zclDefaultRspCmd_t *)pInMsg->attrCmd;
//  680   // Device is notified of the Default Response command.
//  681   (void)pInMsg;
//  682   return TRUE;
        MOV       R1,#0x1
        LJMP      ?BRET
//  683 }
          CFI EndBlock cfiBlock9
//  684 
//  685 #ifdef ZCL_DISCOVER
//  686 /*********************************************************************
//  687  * @fn      zclSampleSw_ProcessInDiscCmdsRspCmd
//  688  *
//  689  * @brief   Process the Discover Commands Response Command
//  690  *
//  691  * @param   pInMsg - incoming message to process
//  692  *
//  693  * @return  none
//  694  */

        RSEG BANKED_CODE:HUGECODE:NOROOT(0)
//  695 static uint8 zclSampleSw_ProcessInDiscCmdsRspCmd( zclIncomingMsg_t *pInMsg )
zclSampleSw_ProcessInDiscCmdsRspCmd:
          CFI Block cfiBlock10 Using cfiCommon0
          CFI Function zclSampleSw_ProcessInDiscCmdsRspCmd
        CODE
//  696 {
        MOV       A,#-0x9
        LCALL     ?BANKED_ENTER_XDATA
          CFI DPH0 load(1, XDATA, add(CFA_XSP16, literal(-1)))
          CFI DPL0 load(1, XDATA, add(CFA_XSP16, literal(-2)))
          CFI ?BRET_EXT load(1, XDATA, add(CFA_XSP16, literal(-3)))
          CFI ?RET_HIGH load(1, XDATA, add(CFA_XSP16, literal(-4)))
          CFI ?RET_LOW load(1, XDATA, add(CFA_XSP16, literal(-5)))
          CFI R7 load(1, XDATA, add(CFA_XSP16, literal(-6)))
          CFI V0 load(1, XDATA, add(CFA_XSP16, literal(-7)))
          CFI VB load(1, XDATA, add(CFA_XSP16, literal(-8)))
          CFI R6 load(1, XDATA, add(CFA_XSP16, literal(-9)))
          CFI CFA_SP SP+0
          CFI CFA_XSP16 add(XSP16, 9)
        ; Saved register size: 9
        ; Auto size: 0
//  697   zclDiscoverCmdsCmdRsp_t *discoverRspCmd;
//  698   uint8 i;
//  699 
//  700   discoverRspCmd = (zclDiscoverCmdsCmdRsp_t *)pInMsg->attrCmd;
        MOV       A,R2
        ADD       A,#0x17
        MOV       DPL,A
        CLR       A
        ADDC      A,R3
        MOV       DPH,A
        MOVX      A,@DPTR
        MOV       R0,A
        INC       DPTR
        MOVX      A,@DPTR
        MOV       R1,A
        MOV       A,R0
        MOV       R6,A
        MOV       A,R1
        MOV       R7,A
//  701   for ( i = 0; i < discoverRspCmd->numCmd; i++ )
        MOV       R4,#0x0
??zclSampleSw_ProcessInDiscCmdsRspCmd_0:
        MOV       DPL,R6
        MOV       DPH,R7
        INC       DPTR
        INC       DPTR
        MOVX      A,@DPTR
        MOV       R0,A
        MOV       A,R4
        CLR       C
        SUBB      A,R0
        JNC       ??zclSampleSw_ProcessInDiscCmdsRspCmd_1
        INC       R4
        SJMP      ??zclSampleSw_ProcessInDiscCmdsRspCmd_0
//  702   {
//  703     // Device is notified of the result of its attribute discovery command.
//  704   }
//  705 
//  706   return TRUE;
??zclSampleSw_ProcessInDiscCmdsRspCmd_1:
        MOV       R1,#0x1
        MOV       R7,#0x1
        LJMP      ?BANKED_LEAVE_XDATA
//  707 }
          CFI EndBlock cfiBlock10
//  708 
//  709 /*********************************************************************
//  710  * @fn      zclSampleSw_ProcessInDiscAttrsRspCmd
//  711  *
//  712  * @brief   Process the "Profile" Discover Attributes Response Command
//  713  *
//  714  * @param   pInMsg - incoming message to process
//  715  *
//  716  * @return  none
//  717  */

        RSEG BANKED_CODE:HUGECODE:NOROOT(0)
//  718 static uint8 zclSampleSw_ProcessInDiscAttrsRspCmd( zclIncomingMsg_t *pInMsg )
zclSampleSw_ProcessInDiscAttrsRspCmd:
          CFI Block cfiBlock11 Using cfiCommon0
          CFI Function zclSampleSw_ProcessInDiscAttrsRspCmd
        CODE
//  719 {
        MOV       A,#-0x9
        LCALL     ?BANKED_ENTER_XDATA
          CFI DPH0 load(1, XDATA, add(CFA_XSP16, literal(-1)))
          CFI DPL0 load(1, XDATA, add(CFA_XSP16, literal(-2)))
          CFI ?BRET_EXT load(1, XDATA, add(CFA_XSP16, literal(-3)))
          CFI ?RET_HIGH load(1, XDATA, add(CFA_XSP16, literal(-4)))
          CFI ?RET_LOW load(1, XDATA, add(CFA_XSP16, literal(-5)))
          CFI R7 load(1, XDATA, add(CFA_XSP16, literal(-6)))
          CFI V0 load(1, XDATA, add(CFA_XSP16, literal(-7)))
          CFI VB load(1, XDATA, add(CFA_XSP16, literal(-8)))
          CFI R6 load(1, XDATA, add(CFA_XSP16, literal(-9)))
          CFI CFA_SP SP+0
          CFI CFA_XSP16 add(XSP16, 9)
        ; Saved register size: 9
        ; Auto size: 0
//  720   zclDiscoverAttrsRspCmd_t *discoverRspCmd;
//  721   uint8 i;
//  722 
//  723   discoverRspCmd = (zclDiscoverAttrsRspCmd_t *)pInMsg->attrCmd;
        MOV       A,R2
        ADD       A,#0x17
        MOV       DPL,A
        CLR       A
        ADDC      A,R3
        MOV       DPH,A
        MOVX      A,@DPTR
        MOV       R0,A
        INC       DPTR
        MOVX      A,@DPTR
        MOV       R1,A
        MOV       A,R0
        MOV       R6,A
        MOV       A,R1
        MOV       R7,A
//  724   for ( i = 0; i < discoverRspCmd->numAttr; i++ )
        MOV       R4,#0x0
??zclSampleSw_ProcessInDiscAttrsRspCmd_0:
        MOV       DPL,R6
        MOV       DPH,R7
        INC       DPTR
        MOVX      A,@DPTR
        MOV       R0,A
        MOV       A,R4
        CLR       C
        SUBB      A,R0
        JNC       ??zclSampleSw_ProcessInDiscAttrsRspCmd_1
        INC       R4
        SJMP      ??zclSampleSw_ProcessInDiscAttrsRspCmd_0
//  725   {
//  726     // Device is notified of the result of its attribute discovery command.
//  727   }
//  728 
//  729   return TRUE;
??zclSampleSw_ProcessInDiscAttrsRspCmd_1:
        MOV       R1,#0x1
        MOV       R7,#0x1
        LJMP      ?BANKED_LEAVE_XDATA
//  730 }
          CFI EndBlock cfiBlock11
//  731 
//  732 /*********************************************************************
//  733  * @fn      zclSampleSw_ProcessInDiscAttrsExtRspCmd
//  734  *
//  735  * @brief   Process the "Profile" Discover Attributes Extended Response Command
//  736  *
//  737  * @param   pInMsg - incoming message to process
//  738  *
//  739  * @return  none
//  740  */

        RSEG BANKED_CODE:HUGECODE:NOROOT(0)
//  741 static uint8 zclSampleSw_ProcessInDiscAttrsExtRspCmd( zclIncomingMsg_t *pInMsg )
zclSampleSw_ProcessInDiscAttrsExtRspCmd:
          CFI Block cfiBlock12 Using cfiCommon0
          CFI Function zclSampleSw_ProcessInDiscAttrsExtRspCmd
        CODE
//  742 {
        MOV       A,#-0x9
        LCALL     ?BANKED_ENTER_XDATA
          CFI DPH0 load(1, XDATA, add(CFA_XSP16, literal(-1)))
          CFI DPL0 load(1, XDATA, add(CFA_XSP16, literal(-2)))
          CFI ?BRET_EXT load(1, XDATA, add(CFA_XSP16, literal(-3)))
          CFI ?RET_HIGH load(1, XDATA, add(CFA_XSP16, literal(-4)))
          CFI ?RET_LOW load(1, XDATA, add(CFA_XSP16, literal(-5)))
          CFI R7 load(1, XDATA, add(CFA_XSP16, literal(-6)))
          CFI V0 load(1, XDATA, add(CFA_XSP16, literal(-7)))
          CFI VB load(1, XDATA, add(CFA_XSP16, literal(-8)))
          CFI R6 load(1, XDATA, add(CFA_XSP16, literal(-9)))
          CFI CFA_SP SP+0
          CFI CFA_XSP16 add(XSP16, 9)
        ; Saved register size: 9
        ; Auto size: 0
//  743   zclDiscoverAttrsExtRsp_t *discoverRspCmd;
//  744   uint8 i;
//  745 
//  746   discoverRspCmd = (zclDiscoverAttrsExtRsp_t *)pInMsg->attrCmd;
        MOV       A,R2
        ADD       A,#0x17
        MOV       DPL,A
        CLR       A
        ADDC      A,R3
        MOV       DPH,A
        MOVX      A,@DPTR
        MOV       R0,A
        INC       DPTR
        MOVX      A,@DPTR
        MOV       R1,A
        MOV       A,R0
        MOV       R6,A
        MOV       A,R1
        MOV       R7,A
//  747   for ( i = 0; i < discoverRspCmd->numAttr; i++ )
        MOV       R4,#0x0
??zclSampleSw_ProcessInDiscAttrsExtRspCmd_0:
        MOV       DPL,R6
        MOV       DPH,R7
        INC       DPTR
        MOVX      A,@DPTR
        MOV       R0,A
        MOV       A,R4
        CLR       C
        SUBB      A,R0
        JNC       ??zclSampleSw_ProcessInDiscAttrsExtRspCmd_1
        INC       R4
        SJMP      ??zclSampleSw_ProcessInDiscAttrsExtRspCmd_0
//  748   {
//  749     // Device is notified of the result of its attribute discovery command.
//  750   }
//  751 
//  752   return TRUE;
??zclSampleSw_ProcessInDiscAttrsExtRspCmd_1:
        MOV       R1,#0x1
        MOV       R7,#0x1
        LJMP      ?BANKED_LEAVE_XDATA
//  753 }
          CFI EndBlock cfiBlock12
//  754 #endif // ZCL_DISCOVER
//  755 
//  756 #if defined (OTA_CLIENT) && (OTA_CLIENT == TRUE)
//  757 /*********************************************************************
//  758  * @fn      zclSampleSw_ProcessOTAMsgs
//  759  *
//  760  * @brief   Called to process callbacks from the ZCL OTA.
//  761  *
//  762  * @param   none
//  763  *
//  764  * @return  none
//  765  */
//  766 static void zclSampleSw_ProcessOTAMsgs( zclOTA_CallbackMsg_t* pMsg )
//  767 {
//  768   uint8 RxOnIdle;
//  769 
//  770   switch(pMsg->ota_event)
//  771   {
//  772   case ZCL_OTA_START_CALLBACK:
//  773     if (pMsg->hdr.status == ZSuccess)
//  774     {
//  775       // Speed up the poll rate
//  776       RxOnIdle = TRUE;
//  777       ZMacSetReq( ZMacRxOnIdle, &RxOnIdle );
//  778       NLME_SetPollRate( 2000 );
//  779     }
//  780     break;
//  781 
//  782   case ZCL_OTA_DL_COMPLETE_CALLBACK:
//  783     if (pMsg->hdr.status == ZSuccess)
//  784     {
//  785       // Reset the CRC Shadow and reboot.  The bootloader will see the
//  786       // CRC shadow has been cleared and switch to the new image
//  787       HalOTAInvRC();
//  788       SystemReset();
//  789     }
//  790     else
//  791     {
//  792 #if (ZG_BUILD_ENDDEVICE_TYPE)    
//  793       // slow the poll rate back down.
//  794       RxOnIdle = FALSE;
//  795       ZMacSetReq( ZMacRxOnIdle, &RxOnIdle );
//  796       NLME_SetPollRate(DEVICE_POLL_RATE);
//  797 #endif
//  798     }
//  799     break;
//  800 
//  801   default:
//  802     break;
//  803   }
//  804 }
//  805 #endif // defined (OTA_CLIENT) && (OTA_CLIENT == TRUE)
//  806 
//  807 /****************************************************************************
//  808 ****************************************************************************/
//  809 static void zclSampleSw_ProcessInReportCmd( zclIncomingMsg_t *pInMsg )
//  810 {
//  811 //  HalLedSet ( HAL_LED_3, HAL_LED_MODE_TOGGLE );
//  812   
//  813   zclReportCmd_t *pInTempSensorReport;
//  814 
//  815   uint8 On_Off_State;
//  816   uint16 Dev_Nwk_ID;
//  817   uint8 End_Point;
//  818   
//  819   Dev_Nwk_ID = pInMsg->srcAddr.addr.shortAddr;
//  820   End_Point = pInMsg->srcAddr.endPoint;
//  821   SourceAddr = Dev_Nwk_ID;
//  822     
//  823   pInTempSensorReport = (zclReportCmd_t *)pInMsg->attrCmd;
//  824   
//  825   On_Off_State = pInTempSensorReport->attrList[0].attrData[0];
//  826 //  zclSampleThermostat_LocalTemperature2 = BUILD_UINT16(pInTempSensorReport->attrList[0].attrData[1], pInTempSensorReport->attrList[0].attrData[2]);
//  827 
//  828   printf( "0x%04X", Dev_Nwk_ID );
//  829   printf( " %d", End_Point);
//  830   printf( " %d\n", On_Off_State );
//  831 }
//  832 

        RSEG BANKED_CODE:HUGECODE:NOROOT(0)
//  833 static void Send_To_SW1( void )
Send_To_SW1:
          CFI Block cfiBlock13 Using cfiCommon0
          CFI Function Send_To_SW1
        CODE
//  834 {
        FUNCALL Send_To_SW1, zcl_SendCommand
        LOCFRAME ISTACK, 0, STACK
        LOCFRAME PSTACK, 0, STACK
        LOCFRAME XSTACK, 21, STACK
        LOCFRAME IOVERLAY, 0, STATIC
        LOCFRAME DOVERLAY, 0, STATIC
        ARGFRAME ISTACK, 0, STACK
        ARGFRAME PSTACK, 0, STACK
        ARGFRAME XSTACK, 21, STACK
        ARGFRAME IOVERLAY, 0, STATIC
        ARGFRAME DOVERLAY, 0, STATIC
        REQUIRE ?V0
        REQUIRE ?V1
        MOV       A,#-0xa
        LCALL     ?BANKED_ENTER_XDATA
          CFI DPH0 load(1, XDATA, add(CFA_XSP16, literal(-1)))
          CFI DPL0 load(1, XDATA, add(CFA_XSP16, literal(-2)))
          CFI ?BRET_EXT load(1, XDATA, add(CFA_XSP16, literal(-3)))
          CFI ?RET_HIGH load(1, XDATA, add(CFA_XSP16, literal(-4)))
          CFI ?RET_LOW load(1, XDATA, add(CFA_XSP16, literal(-5)))
          CFI R7 load(1, XDATA, add(CFA_XSP16, literal(-6)))
          CFI V1 load(1, XDATA, add(CFA_XSP16, literal(-7)))
          CFI V0 load(1, XDATA, add(CFA_XSP16, literal(-8)))
          CFI VB load(1, XDATA, add(CFA_XSP16, literal(-9)))
          CFI R6 load(1, XDATA, add(CFA_XSP16, literal(-10)))
          CFI CFA_SP SP+0
          CFI CFA_XSP16 add(XSP16, 10)
        ; Saved register size: 10
        ; Auto size: 0
//  835   SW_DstAddr.addrMode = (afAddrMode_t)Addr16Bit;
        MOV       DPTR,#SW_DstAddr + 8
        MOV       A,#0x2
        MOVX      @DPTR,A
//  836   SW_DstAddr.endPoint = SW1_ENDPOINT;
        MOV       DPTR,#SW_DstAddr + 9
        MOV       A,#0x8
        MOVX      @DPTR,A
//  837   SW_DstAddr.addr.shortAddr = SourceAddr; 
        MOV       DPTR,#SourceAddr
        MOVX      A,@DPTR
        MOV       R0,A
        INC       DPTR
        MOVX      A,@DPTR
        MOV       R1,A
        MOV       DPTR,#SW_DstAddr
        MOV       A,R0
        MOVX      @DPTR,A
        INC       DPTR
        MOV       A,R1
        MOVX      @DPTR,A
//  838   zclGeneral_SendOnOff_CmdToggle( SW1_ENDPOINT, &SW_DstAddr, FALSE, 0 );
        ; Setup parameters for call to function zcl_SendCommand
        CLR       A
        MOV       ?V0,A
        MOV       ?V1,A
        MOV       R0,#?V0
        LCALL     ?PUSH_XSTACK_I_TWO
          CFI CFA_XSP16 add(XSP16, 12)
        CLR       A
        MOV       ?V0,A
        MOV       ?V1,A
        MOV       R0,#?V0
        LCALL     ?PUSH_XSTACK_I_TWO
          CFI CFA_XSP16 add(XSP16, 14)
        MOV       ?V0,#0x0
        MOV       R0,#?V0
        LCALL     ?PUSH_XSTACK_I_ONE
          CFI CFA_XSP16 add(XSP16, 15)
        CLR       A
        MOV       ?V0,A
        MOV       ?V1,A
        MOV       R0,#?V0
        LCALL     ?PUSH_XSTACK_I_TWO
          CFI CFA_XSP16 add(XSP16, 17)
        MOV       ?V0,#0x0
        MOV       R0,#?V0
        LCALL     ?PUSH_XSTACK_I_ONE
          CFI CFA_XSP16 add(XSP16, 18)
        MOV       ?V0,#0x0
        MOV       R0,#?V0
        LCALL     ?PUSH_XSTACK_I_ONE
          CFI CFA_XSP16 add(XSP16, 19)
        MOV       ?V0,#0x1
        MOV       R0,#?V0
        LCALL     ?PUSH_XSTACK_I_ONE
          CFI CFA_XSP16 add(XSP16, 20)
        MOV       ?V0,#0x2
        MOV       R0,#?V0
        LCALL     ?PUSH_XSTACK_I_ONE
          CFI CFA_XSP16 add(XSP16, 21)
        MOV       R4,#0x6
        MOV       R5,#0x0
        MOV       R2,#SW_DstAddr & 0xff
        MOV       R3,#(SW_DstAddr >> 8) & 0xff
        MOV       R1,#0x8
        LCALL     `??zcl_SendCommand::?relay`; Banked call to: zcl_SendCommand
        MOV       A,#0xb
        LCALL     ?DEALLOC_XSTACK8
          CFI CFA_XSP16 add(XSP16, 10)
        MOV       A,R1
//  839 }
        MOV       R7,#0x2
        LJMP      ?BANKED_LEAVE_XDATA
          CFI EndBlock cfiBlock13
//  840 

        RSEG BANKED_CODE:HUGECODE:NOROOT(0)
//  841 static void Send_To_SW2( void )
Send_To_SW2:
          CFI Block cfiBlock14 Using cfiCommon0
          CFI Function Send_To_SW2
        CODE
//  842 {
        FUNCALL Send_To_SW2, zcl_SendCommand
        LOCFRAME ISTACK, 0, STACK
        LOCFRAME PSTACK, 0, STACK
        LOCFRAME XSTACK, 21, STACK
        LOCFRAME IOVERLAY, 0, STATIC
        LOCFRAME DOVERLAY, 0, STATIC
        ARGFRAME ISTACK, 0, STACK
        ARGFRAME PSTACK, 0, STACK
        ARGFRAME XSTACK, 21, STACK
        ARGFRAME IOVERLAY, 0, STATIC
        ARGFRAME DOVERLAY, 0, STATIC
        REQUIRE ?V0
        REQUIRE ?V1
        MOV       A,#-0xa
        LCALL     ?BANKED_ENTER_XDATA
          CFI DPH0 load(1, XDATA, add(CFA_XSP16, literal(-1)))
          CFI DPL0 load(1, XDATA, add(CFA_XSP16, literal(-2)))
          CFI ?BRET_EXT load(1, XDATA, add(CFA_XSP16, literal(-3)))
          CFI ?RET_HIGH load(1, XDATA, add(CFA_XSP16, literal(-4)))
          CFI ?RET_LOW load(1, XDATA, add(CFA_XSP16, literal(-5)))
          CFI R7 load(1, XDATA, add(CFA_XSP16, literal(-6)))
          CFI V1 load(1, XDATA, add(CFA_XSP16, literal(-7)))
          CFI V0 load(1, XDATA, add(CFA_XSP16, literal(-8)))
          CFI VB load(1, XDATA, add(CFA_XSP16, literal(-9)))
          CFI R6 load(1, XDATA, add(CFA_XSP16, literal(-10)))
          CFI CFA_SP SP+0
          CFI CFA_XSP16 add(XSP16, 10)
        ; Saved register size: 10
        ; Auto size: 0
//  843   SW_DstAddr.addrMode = (afAddrMode_t)Addr16Bit;
        MOV       DPTR,#SW_DstAddr + 8
        MOV       A,#0x2
        MOVX      @DPTR,A
//  844   SW_DstAddr.endPoint = SW2_ENDPOINT;
        MOV       DPTR,#SW_DstAddr + 9
        MOV       A,#0x9
        MOVX      @DPTR,A
//  845   SW_DstAddr.addr.shortAddr = SourceAddr; 
        MOV       DPTR,#SourceAddr
        MOVX      A,@DPTR
        MOV       R0,A
        INC       DPTR
        MOVX      A,@DPTR
        MOV       R1,A
        MOV       DPTR,#SW_DstAddr
        MOV       A,R0
        MOVX      @DPTR,A
        INC       DPTR
        MOV       A,R1
        MOVX      @DPTR,A
//  846   zclGeneral_SendOnOff_CmdToggle( SW1_ENDPOINT, &SW_DstAddr, FALSE, 0 );
        ; Setup parameters for call to function zcl_SendCommand
        CLR       A
        MOV       ?V0,A
        MOV       ?V1,A
        MOV       R0,#?V0
        LCALL     ?PUSH_XSTACK_I_TWO
          CFI CFA_XSP16 add(XSP16, 12)
        CLR       A
        MOV       ?V0,A
        MOV       ?V1,A
        MOV       R0,#?V0
        LCALL     ?PUSH_XSTACK_I_TWO
          CFI CFA_XSP16 add(XSP16, 14)
        MOV       ?V0,#0x0
        MOV       R0,#?V0
        LCALL     ?PUSH_XSTACK_I_ONE
          CFI CFA_XSP16 add(XSP16, 15)
        CLR       A
        MOV       ?V0,A
        MOV       ?V1,A
        MOV       R0,#?V0
        LCALL     ?PUSH_XSTACK_I_TWO
          CFI CFA_XSP16 add(XSP16, 17)
        MOV       ?V0,#0x0
        MOV       R0,#?V0
        LCALL     ?PUSH_XSTACK_I_ONE
          CFI CFA_XSP16 add(XSP16, 18)
        MOV       ?V0,#0x0
        MOV       R0,#?V0
        LCALL     ?PUSH_XSTACK_I_ONE
          CFI CFA_XSP16 add(XSP16, 19)
        MOV       ?V0,#0x1
        MOV       R0,#?V0
        LCALL     ?PUSH_XSTACK_I_ONE
          CFI CFA_XSP16 add(XSP16, 20)
        MOV       ?V0,#0x2
        MOV       R0,#?V0
        LCALL     ?PUSH_XSTACK_I_ONE
          CFI CFA_XSP16 add(XSP16, 21)
        MOV       R4,#0x6
        MOV       R5,#0x0
        MOV       R2,#SW_DstAddr & 0xff
        MOV       R3,#(SW_DstAddr >> 8) & 0xff
        MOV       R1,#0x8
        LCALL     `??zcl_SendCommand::?relay`; Banked call to: zcl_SendCommand
        MOV       A,#0xb
        LCALL     ?DEALLOC_XSTACK8
          CFI CFA_XSP16 add(XSP16, 10)
        MOV       A,R1
//  847 }
        MOV       R7,#0x2
        LJMP      ?BANKED_LEAVE_XDATA
          CFI EndBlock cfiBlock14

        RSEG XDATA_ID:CODE:NOROOT(0)
`?<Initializer for zclSampleSw_OnOffSwitchType>`:
        DATA8
        DB 1

        RSEG XDATA_ID:CODE:NOROOT(0)
`?<Initializer for zclSampleSw_NwkState>`:
        DATA8
        DB 1

        RSEG XDATA_ID:CODE:NOROOT(0)
`?<Initializer for zclSampleSw_CmdCallbacks>`:
        DATA16
        DW `??zclSampleSw_BasicResetCB::?relay`
        DW 0H
        DW 0H
        DW 0H
        DW 0H
        DW 0H
        DW 0H
        DW 0H
        DW 0H

        RSEG BANK_RELAYS:CODE:REORDER:NOROOT(0)
`??zclSampleSw_Init::?relay`:
        CODE
        LCALL   ?BDISPATCH
        DATA24
        DC24    zclSampleSw_Init

        RSEG BANK_RELAYS:CODE:REORDER:NOROOT(0)
`??zclSampleSw_event_loop::?relay`:
        CODE
        LCALL   ?BDISPATCH
        DATA24
        DC24    zclSampleSw_event_loop

        RSEG BANK_RELAYS:CODE:REORDER:NOROOT(0)
`??zclSampleSw_HandleKeys::?relay`:
        CODE
        LCALL   ?BDISPATCH
        DATA24
        DC24    zclSampleSw_HandleKeys

        RSEG BANK_RELAYS:CODE:REORDER:NOROOT(0)
`??zclSampleSw_ProcessCommissioningStatus::?rela`:
        CODE
        LCALL   ?BDISPATCH
        DATA24
        DC24    zclSampleSw_ProcessCommissioningStatus

        RSEG BANK_RELAYS:CODE:REORDER:NOROOT(0)
`??zclSampleSw_BasicResetCB::?relay`:
        CODE
        LCALL   ?BDISPATCH
        DATA24
        DC24    zclSampleSw_BasicResetCB

        RSEG BANK_RELAYS:CODE:REORDER:NOROOT(0)
`??zclSampleApp_BatteryWarningCB::?relay`:
        CODE
        LCALL   ?BDISPATCH
        DATA24
        DC24    zclSampleApp_BatteryWarningCB

        RSEG BANK_RELAYS:CODE:REORDER:NOROOT(0)
`??zclSampleSw_ProcessIncomingMsg::?relay`:
        CODE
        LCALL   ?BDISPATCH
        DATA24
        DC24    zclSampleSw_ProcessIncomingMsg

        RSEG BANK_RELAYS:CODE:REORDER:NOROOT(0)
`??zclSampleSw_ProcessInReadRspCmd::?relay`:
        CODE
        LCALL   ?BDISPATCH
        DATA24
        DC24    zclSampleSw_ProcessInReadRspCmd

        RSEG BANK_RELAYS:CODE:REORDER:NOROOT(0)
`??zclSampleSw_ProcessInWriteRspCmd::?relay`:
        CODE
        LCALL   ?BDISPATCH
        DATA24
        DC24    zclSampleSw_ProcessInWriteRspCmd

        RSEG BANK_RELAYS:CODE:REORDER:NOROOT(0)
`??zclSampleSw_ProcessInDefaultRspCmd::?relay`:
        CODE
        LCALL   ?BDISPATCH
        DATA24
        DC24    zclSampleSw_ProcessInDefaultRspCmd

        RSEG BANK_RELAYS:CODE:REORDER:NOROOT(0)
`??zclSampleSw_ProcessInDiscCmdsRspCmd::?relay`:
        CODE
        LCALL   ?BDISPATCH
        DATA24
        DC24    zclSampleSw_ProcessInDiscCmdsRspCmd

        RSEG BANK_RELAYS:CODE:REORDER:NOROOT(0)
`??zclSampleSw_ProcessInDiscAttrsRspCmd::?relay`:
        CODE
        LCALL   ?BDISPATCH
        DATA24
        DC24    zclSampleSw_ProcessInDiscAttrsRspCmd

        RSEG BANK_RELAYS:CODE:REORDER:NOROOT(0)
`??zclSampleSw_ProcessInDiscAttrsExtRspCmd::?rel`:
        CODE
        LCALL   ?BDISPATCH
        DATA24
        DC24    zclSampleSw_ProcessInDiscAttrsExtRspCmd

        RSEG BANK_RELAYS:CODE:REORDER:NOROOT(0)
`??Send_To_SW1::?relay`:
        CODE
        LCALL   ?BDISPATCH
        DATA24
        DC24    Send_To_SW1

        RSEG BANK_RELAYS:CODE:REORDER:NOROOT(0)
`??Send_To_SW2::?relay`:
        CODE
        LCALL   ?BDISPATCH
        DATA24
        DC24    Send_To_SW2

        RSEG XDATA_ROM_C:CONST:REORDER:NOROOT(0)
        DATA8
`?<Constant "init successful\\r\\n">`:
        DB "init successful\015\012"

        RSEG XDATA_ROM_C:CONST:REORDER:NOROOT(0)
        DATA32
__Constant_1f4:
        DD 500

        RSEG XDATA_ROM_C:CONST:REORDER:NOROOT(0)
        DATA32
__Constant_2710:
        DD 10000

        END
//  848 
//  849 //static void Send_To_SW3( void )
//  850 //{
//  851 //  SW_DstAddr.addrMode = (afAddrMode_t)Addr16Bit;
//  852 //  SW_DstAddr.endPoint = SW3_ENDPOINT;
//  853 //  SW_DstAddr.addr.shortAddr = SourceAddr; 
//  854 //  zclGeneral_SendOnOff_CmdToggle( SW1_ENDPOINT, &SW_DstAddr, FALSE, 0 );
//  855 //}
// 
// 1 291 bytes in segment BANKED_CODE
//    90 bytes in segment BANK_RELAYS
//    20 bytes in segment XDATA_I
//    20 bytes in segment XDATA_ID
//    26 bytes in segment XDATA_ROM_C
//    29 bytes in segment XDATA_Z
// 
//   110 bytes of CODE     memory
//    18 bytes of CONST    memory (+ 8 bytes shared)
// 1 291 bytes of HUGECODE memory
//    49 bytes of XDATA    memory
//
//Errors: none
//Warnings: 1
