///////////////////////////////////////////////////////////////////////////////
//
// IAR C/C++ Compiler V10.30.1.6000 for 8051              06/Aug/2020  10:36:21
// Copyright 2004-2018 IAR Systems AB.
// PC-locked license - IAR Embedded Workbench for 8051
//
//    Core               =  plain
//    Code model         =  banked
//    Data model         =  large
//    Calling convention =  xdata reentrant
//    Constant location  =  data_rom
//    Dptr setup         =  1,16
//                          
//    Source file        =  
//        D:\AA\Z-Stack
//        3.0.2\Projects\zstack\HomeAutomation\SampleSwitch\Source\zcl_samplesw.c
//    Command line       =  
//        -f C:\Users\sunli\AppData\Local\Temp\EWE10B.tmp ("D:\AA\Z-Stack
//        3.0.2\Projects\zstack\HomeAutomation\SampleSwitch\Source\zcl_samplesw.c"
//        -D SECURE=1 -D TC_LINKKEY_JOIN -D NV_INIT -D NV_RESTORE -D
//        POWER_SAVING -D NWK_AUTO_POLL -D xZTOOL_P1 -D xMT_TASK -D
//        xMT_APP_FUNC -D xMT_SYS_FUNC -D xMT_ZDO_FUNC -D xMT_ZDO_MGMT -D
//        xMT_APP_CNF_FUNC -D LCD_SUPPORTED=DEBUG -D MULTICAST_ENABLED=FALSE -D
//        ZCL_READ -D ZCL_DISCOVER -D ZCL_WRITE -D ZCL_BASIC -D ZCL_IDENTIFY -D
//        ZCL_ON_OFF -D ZCL_GROUPS -D BDB_TL_INITIATOR -D INTER_PAN -lC
//        "D:\AA\Z-Stack
//        3.0.2\Projects\zstack\HomeAutomation\SampleSwitch\CC2530DB\EndDeviceEB\List"
//        -lA "D:\AA\Z-Stack
//        3.0.2\Projects\zstack\HomeAutomation\SampleSwitch\CC2530DB\EndDeviceEB\List"
//        --diag_suppress Pe001,Pa010 -o "D:\AA\Z-Stack
//        3.0.2\Projects\zstack\HomeAutomation\SampleSwitch\CC2530DB\EndDeviceEB\Obj"
//        -e --debug --core=plain --dptr=16,1 --data_model=large
//        --code_model=banked --calling_convention=xdata_reentrant
//        --place_constants=data_rom --nr_virtual_regs 16 -f "D:\AA\Z-Stack
//        3.0.2\Projects\zstack\HomeAutomation\SampleSwitch\CC2530DB\..\..\..\Tools\CC2530DB\f8wEndev.cfg"
//        (-DCPU32MHZ -DROOT=__near_func -DMAC_CFG_TX_DATA_MAX=3
//        -DMAC_CFG_TX_MAX=6 -DMAC_CFG_RX_MAX=3) -f "D:\AA\Z-Stack
//        3.0.2\Projects\zstack\HomeAutomation\SampleSwitch\CC2530DB\..\..\..\Tools\CC2530DB\f8wConfig.cfg"
//        (-DZIGBEEPRO -DSECURE=1 -DZG_SECURE_DYNAMIC=0 -DREFLECTOR
//        -DDEFAULT_CHANLIST=0x00000800 -DZDAPP_CONFIG_PAN_ID=0xFFFF
//        -DNWK_START_DELAY=100 -DEXTENDED_JOINING_RANDOM_MASK=0x007F
//        -DBEACON_REQUEST_DELAY=100 -DBEACON_REQ_DELAY_MASK=0x00FF
//        -DLINK_STATUS_JITTER_MASK=0x007F -DROUTE_EXPIRY_TIME=30
//        -DAPSC_ACK_WAIT_DURATION_POLLED=3000 -DNWK_INDIRECT_MSG_TIMEOUT=7
//        -DMAX_RREQ_ENTRIES=8 -DAPSC_MAX_FRAME_RETRIES=3
//        -DNWK_MAX_DATA_RETRIES=2 -DMAX_POLL_FAILURE_RETRIES=2 -DMAX_BCAST=9
//        -DAPS_MAX_GROUPS=16 -DMAX_RTG_ENTRIES=40 -DNWK_MAX_BINDING_ENTRIES=4
//        -DMAX_BINDING_CLUSTER_IDS=4 -DDEFAULT_KEY={0}
//        -DMAC_MAX_FRAME_SIZE=116 -DZDNWKMGR_MIN_TRANSMISSIONS=20
//        "-DCONST=const __code" -DGENERIC=__generic -DRFD_RCVC_ALWAYS_ON=FALSE
//        -DPOLL_RATE=0 -DQUEUED_POLL_RATE=0 -DRESPONSE_POLL_RATE=0
//        -DREJOIN_POLL_RATE=0 -DREJOIN_BACKOFF=900000 -DREJOIN_SCAN=900000
//        -DENABLE_LED4_DISABLE_S1) -f "D:\AA\Z-Stack
//        3.0.2\Projects\zstack\HomeAutomation\SampleSwitch\CC2530DB\..\..\..\Tools\CC2530DB\f8wZCL.cfg"
//        -I "D:\AA\Z-Stack
//        3.0.2\Projects\zstack\HomeAutomation\SampleSwitch\CC2530DB\" -I
//        "D:\AA\Z-Stack
//        3.0.2\Projects\zstack\HomeAutomation\SampleSwitch\CC2530DB\..\Source\"
//        -I "D:\AA\Z-Stack
//        3.0.2\Projects\zstack\HomeAutomation\SampleSwitch\CC2530DB\..\..\Source\"
//        -I "D:\AA\Z-Stack
//        3.0.2\Projects\zstack\HomeAutomation\SampleSwitch\CC2530DB\..\..\..\ZMain\TI2530DB\"
//        -I "D:\AA\Z-Stack
//        3.0.2\Projects\zstack\HomeAutomation\SampleSwitch\CC2530DB\..\..\..\..\..\Components\hal\include\"
//        -I "D:\AA\Z-Stack
//        3.0.2\Projects\zstack\HomeAutomation\SampleSwitch\CC2530DB\..\..\..\..\..\Components\hal\target\CC2530EB\"
//        -I "D:\AA\Z-Stack
//        3.0.2\Projects\zstack\HomeAutomation\SampleSwitch\CC2530DB\..\..\..\..\..\Components\mac\include\"
//        -I "D:\AA\Z-Stack
//        3.0.2\Projects\zstack\HomeAutomation\SampleSwitch\CC2530DB\..\..\..\..\..\Components\mac\high_level\"
//        -I "D:\AA\Z-Stack
//        3.0.2\Projects\zstack\HomeAutomation\SampleSwitch\CC2530DB\..\..\..\..\..\Components\mac\low_level\srf04\"
//        -I "D:\AA\Z-Stack
//        3.0.2\Projects\zstack\HomeAutomation\SampleSwitch\CC2530DB\..\..\..\..\..\Components\mac\low_level\srf04\single_chip\"
//        -I "D:\AA\Z-Stack
//        3.0.2\Projects\zstack\HomeAutomation\SampleSwitch\CC2530DB\..\..\..\..\..\Components\mt\"
//        -I "D:\AA\Z-Stack
//        3.0.2\Projects\zstack\HomeAutomation\SampleSwitch\CC2530DB\..\..\..\..\..\Components\osal\include\"
//        -I "D:\AA\Z-Stack
//        3.0.2\Projects\zstack\HomeAutomation\SampleSwitch\CC2530DB\..\..\..\..\..\Components\services\saddr\"
//        -I "D:\AA\Z-Stack
//        3.0.2\Projects\zstack\HomeAutomation\SampleSwitch\CC2530DB\..\..\..\..\..\Components\services\sdata\"
//        -I "D:\AA\Z-Stack
//        3.0.2\Projects\zstack\HomeAutomation\SampleSwitch\CC2530DB\..\..\..\..\..\Components\stack\af\"
//        -I "D:\AA\Z-Stack
//        3.0.2\Projects\zstack\HomeAutomation\SampleSwitch\CC2530DB\..\..\..\..\..\Components\stack\bdb\"
//        -I "D:\AA\Z-Stack
//        3.0.2\Projects\zstack\HomeAutomation\SampleSwitch\CC2530DB\..\..\..\..\..\Components\stack\gp\"
//        -I "D:\AA\Z-Stack
//        3.0.2\Projects\zstack\HomeAutomation\SampleSwitch\CC2530DB\..\..\..\..\..\Components\stack\nwk\"
//        -I "D:\AA\Z-Stack
//        3.0.2\Projects\zstack\HomeAutomation\SampleSwitch\CC2530DB\..\..\..\..\..\Components\stack\sapi\"
//        -I "D:\AA\Z-Stack
//        3.0.2\Projects\zstack\HomeAutomation\SampleSwitch\CC2530DB\..\..\..\..\..\Components\stack\sec\"
//        -I "D:\AA\Z-Stack
//        3.0.2\Projects\zstack\HomeAutomation\SampleSwitch\CC2530DB\..\..\..\..\..\Components\stack\sys\"
//        -I "D:\AA\Z-Stack
//        3.0.2\Projects\zstack\HomeAutomation\SampleSwitch\CC2530DB\..\..\..\..\..\Components\stack\zcl\"
//        -I "D:\AA\Z-Stack
//        3.0.2\Projects\zstack\HomeAutomation\SampleSwitch\CC2530DB\..\..\..\..\..\Components\stack\zdo\"
//        -I "D:\AA\Z-Stack
//        3.0.2\Projects\zstack\HomeAutomation\SampleSwitch\CC2530DB\..\..\..\..\..\Components\zmac\"
//        -I "D:\AA\Z-Stack
//        3.0.2\Projects\zstack\HomeAutomation\SampleSwitch\CC2530DB\..\..\..\..\..\Components\zmac\f8w\"
//        -On --require_prototypes --no_cse --no_unroll --no_inline
//        --no_code_motion --no_tbaa --no_cross_call)
//    Locale             =  Chinese (Simplified)_CHN.936
//    List file          =  
//        D:\AA\Z-Stack
//        3.0.2\Projects\zstack\HomeAutomation\SampleSwitch\CC2530DB\EndDeviceEB\List\zcl_samplesw.s51
//
///////////////////////////////////////////////////////////////////////////////

        NAME zcl_samplesw

        RTMODEL "__SystemLibrary", "CLib"
        RTMODEL "__calling_convention", "xdata_reentrant"
        RTMODEL "__code_model", "banked"
        RTMODEL "__core", "plain"
        RTMODEL "__data_model", "large"
        RTMODEL "__dptr_size", "16"
        RTMODEL "__extended_stack", "disabled"
        RTMODEL "__location_for_constants", "data"
        RTMODEL "__number_of_dptrs", "1"
        RTMODEL "__register_banks", "*"
        RTMODEL "__rt_version", "1"

        RSEG DOVERLAY:DATA:NOROOT(0)
        RSEG IOVERLAY:IDATA:NOROOT(0)
        RSEG ISTACK:IDATA:NOROOT(0)
        RSEG PSTACK:XDATA:NOROOT(0)
        RSEG XSTACK:XDATA:NOROOT(0)

        EXTERN ?V0
        EXTERN ?V1
        EXTERN ?V2
        EXTERN ?V4
        EXTERN ?V5
        EXTERN ?BANKED_ENTER_XDATA
        EXTERN ?BANKED_LEAVE_XDATA
        EXTERN ?BDISPATCH
        EXTERN ?BRET
        EXTERN ?DEALLOC_XSTACK8
        EXTERN ?PUSH_XSTACK8_X_FOUR
        EXTERN __INIT_XDATA_I
        EXTERN __INIT_XDATA_Z

        FUNCTION `??zclSampleApp_BatteryWarningCB::?relay`,0203H
        FUNCTION `??zclSampleSw_BasicResetCB::?relay`,0203H
        FUNCTION `??zclSampleSw_HandleKeys::?relay`,0203H
        PUBLIC `??zclSampleSw_Init::?relay`
        FUNCTION `??zclSampleSw_Init::?relay`,0203H
        FUNCTION `??zclSampleSw_ProcessCommissioningStatus::?rela`,0203H
        FUNCTION `??zclSampleSw_ProcessInDefaultRspCmd::?relay`,0203H
        FUNCTION `??zclSampleSw_ProcessInDiscAttrsExtRspCmd::?rel`,0203H
        FUNCTION `??zclSampleSw_ProcessInDiscAttrsRspCmd::?relay`,0203H
        FUNCTION `??zclSampleSw_ProcessInDiscCmdsRspCmd::?relay`,0203H
        FUNCTION `??zclSampleSw_ProcessInReadRspCmd::?relay`,0203H
        FUNCTION `??zclSampleSw_ProcessInWriteRspCmd::?relay`,0203H
        FUNCTION `??zclSampleSw_ProcessIncomingMsg::?relay`,0203H
        PUBLIC `??zclSampleSw_event_loop::?relay`
        FUNCTION `??zclSampleSw_event_loop::?relay`,0203H
        PUBLIC SW_DstAddr
        PUBLIC SourceAddr
        PUBWEAK __Constant_2710
        PUBWEAK __Constant_9c4
        FUNCTION zclSampleApp_BatteryWarningCB,0603H
        ARGFRAME XSTACK, 0, STACK
        PUBLIC zclSampleSwSeqNum
        FUNCTION zclSampleSw_BasicResetCB,021603H
        ARGFRAME XSTACK, 0, STACK
        LOCFRAME ISTACK, 2, STACK
        PUBLIC zclSampleSw_DstAddr
        FUNCTION zclSampleSw_HandleKeys,021203H
        ARGFRAME XSTACK, 14, STACK
        ARGFRAME IOVERLAY, 0, STATIC
        ARGFRAME DOVERLAY, 0, STATIC
        LOCFRAME XSTACK, 13, STACK
        PUBLIC zclSampleSw_Init
        FUNCTION zclSampleSw_Init,021203H
        ARGFRAME XSTACK, 0, STACK
        LOCFRAME XSTACK, 9, STACK
        PUBLIC zclSampleSw_NwkState
        PUBLIC zclSampleSw_OnOffSwitchActions
        PUBLIC zclSampleSw_OnOffSwitchType
        FUNCTION zclSampleSw_ProcessCommissioningStatus,021603H
        ARGFRAME XSTACK, 0, STACK
        LOCFRAME XSTACK, 13, STACK
        FUNCTION zclSampleSw_ProcessInDefaultRspCmd,0203H
        ARGFRAME XSTACK, 9, STACK
        ARGFRAME IOVERLAY, 0, STATIC
        ARGFRAME DOVERLAY, 0, STATIC
        FUNCTION zclSampleSw_ProcessInDiscAttrsExtRspCmd,0203H
        ARGFRAME XSTACK, 9, STACK
        ARGFRAME IOVERLAY, 0, STATIC
        ARGFRAME DOVERLAY, 0, STATIC
        LOCFRAME XSTACK, 9, STACK
        FUNCTION zclSampleSw_ProcessInDiscAttrsRspCmd,0203H
        ARGFRAME XSTACK, 9, STACK
        ARGFRAME IOVERLAY, 0, STATIC
        ARGFRAME DOVERLAY, 0, STATIC
        LOCFRAME XSTACK, 9, STACK
        FUNCTION zclSampleSw_ProcessInDiscCmdsRspCmd,0203H
        ARGFRAME XSTACK, 9, STACK
        ARGFRAME IOVERLAY, 0, STATIC
        ARGFRAME DOVERLAY, 0, STATIC
        LOCFRAME XSTACK, 9, STACK
        FUNCTION zclSampleSw_ProcessInReadRspCmd,0203H
        ARGFRAME XSTACK, 9, STACK
        ARGFRAME IOVERLAY, 0, STATIC
        ARGFRAME DOVERLAY, 0, STATIC
        LOCFRAME XSTACK, 9, STACK
        FUNCTION zclSampleSw_ProcessInWriteRspCmd,0203H
        ARGFRAME XSTACK, 9, STACK
        ARGFRAME IOVERLAY, 0, STATIC
        ARGFRAME DOVERLAY, 0, STATIC
        LOCFRAME XSTACK, 9, STACK
        FUNCTION zclSampleSw_ProcessIncomingMsg,021203H
        ARGFRAME XSTACK, 14, STACK
        ARGFRAME IOVERLAY, 0, STATIC
        ARGFRAME DOVERLAY, 0, STATIC
        LOCFRAME XSTACK, 9, STACK
        PUBLIC zclSampleSw_TaskID
        PUBLIC zclSampleSw_event_loop
        FUNCTION zclSampleSw_event_loop,0a1203H
        ARGFRAME XSTACK, 0, STACK
        LOCFRAME XSTACK, 14, STACK
        
          CFI Names cfiNames0
          CFI StackFrame CFA_SP SP IDATA
          CFI StackFrame CFA_PSP16 PSP16 XDATA
          CFI StackFrame CFA_XSP16 XSP16 XDATA
          CFI StaticOverlayFrame CFA_IOVERLAY IOVERLAY
          CFI StaticOverlayFrame CFA_DOVERLAY DOVERLAY
          CFI Resource `PSW.CY`:1, `B.BR0`:1, `B.BR1`:1, `B.BR2`:1, `B.BR3`:1
          CFI Resource `B.BR4`:1, `B.BR5`:1, `B.BR6`:1, `B.BR7`:1, `VB.BR8`:1
          CFI Resource `VB.BR9`:1, `VB.BR10`:1, `VB.BR11`:1, `VB.BR12`:1
          CFI Resource `VB.BR13`:1, `VB.BR14`:1, `VB.BR15`:1, VB:8, B:8, A:8
          CFI Resource PSW:8, DPL0:8, DPH0:8, R0:8, R1:8, R2:8, R3:8, R4:8, R5:8
          CFI Resource R6:8, R7:8, V0:8, V1:8, V2:8, V3:8, V4:8, V5:8, V6:8, V7:8
          CFI Resource V8:8, V9:8, V10:8, V11:8, V12:8, V13:8, V14:8, V15:8, SP:8
          CFI Resource PSPH:8, PSPL:8, PSP16:16, XSPH:8, XSPL:8, XSP16:16
          CFI VirtualResource ?RET:24
          CFI Resource ?BRET_EXT:8
          CFI VirtualResource ?RET_HIGH:8, ?RET_LOW:8
          CFI ResourceParts PSP16 PSPH, PSPL
          CFI ResourceParts XSP16 XSPH, XSPL
          CFI ResourceParts ?RET ?BRET_EXT, ?RET_HIGH, ?RET_LOW
          CFI EndNames cfiNames0
        
          CFI Common cfiCommon0 Using cfiNames0
          CFI CodeAlign 1
          CFI DataAlign -1
          CFI ReturnAddress ?RET CODE
          CFI CFA_DOVERLAY Used
          CFI CFA_IOVERLAY Used
          CFI CFA_SP SP+-3
          CFI CFA_PSP16 PSP16+0
          CFI CFA_XSP16 XSP16+0
          CFI `PSW.CY` SameValue
          CFI `B.BR0` SameValue
          CFI `B.BR1` SameValue
          CFI `B.BR2` SameValue
          CFI `B.BR3` SameValue
          CFI `B.BR4` SameValue
          CFI `B.BR5` SameValue
          CFI `B.BR6` SameValue
          CFI `B.BR7` SameValue
          CFI `VB.BR8` SameValue
          CFI `VB.BR9` SameValue
          CFI `VB.BR10` SameValue
          CFI `VB.BR11` SameValue
          CFI `VB.BR12` SameValue
          CFI `VB.BR13` SameValue
          CFI `VB.BR14` SameValue
          CFI `VB.BR15` SameValue
          CFI VB SameValue
          CFI B Undefined
          CFI A Undefined
          CFI PSW SameValue
          CFI DPL0 SameValue
          CFI DPH0 SameValue
          CFI R0 Undefined
          CFI R1 Undefined
          CFI R2 Undefined
          CFI R3 Undefined
          CFI R4 Undefined
          CFI R5 Undefined
          CFI R6 SameValue
          CFI R7 SameValue
          CFI V0 SameValue
          CFI V1 SameValue
          CFI V2 SameValue
          CFI V3 SameValue
          CFI V4 SameValue
          CFI V5 SameValue
          CFI V6 SameValue
          CFI V7 SameValue
          CFI V8 SameValue
          CFI V9 SameValue
          CFI V10 SameValue
          CFI V11 SameValue
          CFI V12 SameValue
          CFI V13 SameValue
          CFI V14 SameValue
          CFI V15 SameValue
          CFI PSPH Undefined
          CFI PSPL Undefined
          CFI XSPH Undefined
          CFI XSPL Undefined
          CFI ?RET Concat
          CFI ?BRET_EXT Frame(CFA_SP, 3)
          CFI ?RET_HIGH Frame(CFA_SP, 2)
          CFI ?RET_LOW Frame(CFA_SP, 1)
          CFI EndCommon cfiCommon0
        
RegisterForKeys     SYMBOL "RegisterForKeys"
`??RegisterForKeys::?relay` SYMBOL "?relay", RegisterForKeys
RegisterForUart0    SYMBOL "RegisterForUart0"
`??RegisterForUart0::?relay` SYMBOL "?relay", RegisterForUart0
RegisterVoltageWarningCB SYMBOL "RegisterVoltageWarningCB"
`??RegisterVoltageWarningCB::?relay` SYMBOL "?relay", RegisterVoltageWarningCB
Uart0_Init          SYMBOL "Uart0_Init"
`??Uart0_Init::?relay` SYMBOL "?relay", Uart0_Init
bdb_RegisterCommissioningStatusCB SYMBOL "bdb_RegisterCommissioningStatusCB"
`??bdb_RegisterCommissioningStatusCB::?relay` SYMBOL "?relay", bdb_RegisterCommissioningStatusCB
bdb_RegisterSimpleDescriptor SYMBOL "bdb_RegisterSimpleDescriptor"
`??bdb_RegisterSimpleDescriptor::?relay` SYMBOL "?relay", bdb_RegisterSimpleDescriptor
bdb_StartCommissioning SYMBOL "bdb_StartCommissioning"
`??bdb_StartCommissioning::?relay` SYMBOL "?relay", bdb_StartCommissioning
bdb_ZedAttemptRecoverNwk SYMBOL "bdb_ZedAttemptRecoverNwk"
`??bdb_ZedAttemptRecoverNwk::?relay` SYMBOL "?relay", bdb_ZedAttemptRecoverNwk
osal_mem_free       SYMBOL "osal_mem_free"
`??osal_mem_free::?relay` SYMBOL "?relay", osal_mem_free
osal_msg_deallocate SYMBOL "osal_msg_deallocate"
`??osal_msg_deallocate::?relay` SYMBOL "?relay", osal_msg_deallocate
osal_msg_receive    SYMBOL "osal_msg_receive"
`??osal_msg_receive::?relay` SYMBOL "?relay", osal_msg_receive
osal_pwrmgr_device  SYMBOL "osal_pwrmgr_device"
`??osal_pwrmgr_device::?relay` SYMBOL "?relay", osal_pwrmgr_device
osal_start_timerEx  SYMBOL "osal_start_timerEx"
`??osal_start_timerEx::?relay` SYMBOL "?relay", osal_start_timerEx
touchLinkInitiator_ResetToFNSelectedTarget SYMBOL "touchLinkInitiator_ResetToFNSelectedTarget"
`??touchLinkInitiator_ResetToFNSelectedTarget::?` SYMBOL "?relay", touchLinkInitiator_ResetToFNSelectedTarget
touchLinkInitiator_StartDevDisc SYMBOL "touchLinkInitiator_StartDevDisc"
`??touchLinkInitiator_StartDevDisc::?relay` SYMBOL "?relay", touchLinkInitiator_StartDevDisc
zclGeneral_RegisterCmdCallbacks SYMBOL "zclGeneral_RegisterCmdCallbacks"
`??zclGeneral_RegisterCmdCallbacks::?relay` SYMBOL "?relay", zclGeneral_RegisterCmdCallbacks
zclSampleSw_ResetAttributesToDefaultValues SYMBOL "zclSampleSw_ResetAttributesToDefaultValues"
`??zclSampleSw_ResetAttributesToDefaultValues::?` SYMBOL "?relay", zclSampleSw_ResetAttributesToDefaultValues
zcl_registerAttrList SYMBOL "zcl_registerAttrList"
`??zcl_registerAttrList::?relay` SYMBOL "?relay", zcl_registerAttrList
zcl_registerForMsg  SYMBOL "zcl_registerForMsg"
`??zcl_registerForMsg::?relay` SYMBOL "?relay", zcl_registerForMsg
zclSampleSw_Init    SYMBOL "zclSampleSw_Init"
`??zclSampleSw_Init::?relay` SYMBOL "?relay", zclSampleSw_Init
zclSampleSw_event_loop SYMBOL "zclSampleSw_event_loop"
`??zclSampleSw_event_loop::?relay` SYMBOL "?relay", zclSampleSw_event_loop

        EXTERN `??RegisterForKeys::?relay`
        FUNCTION `??RegisterForKeys::?relay`,00H
        EXTERN `??RegisterForUart0::?relay`
        FUNCTION `??RegisterForUart0::?relay`,00H
        EXTERN `??RegisterVoltageWarningCB::?relay`
        FUNCTION `??RegisterVoltageWarningCB::?relay`,00H
        EXTERN `??Uart0_Init::?relay`
        FUNCTION `??Uart0_Init::?relay`,00H
        EXTERN `??bdb_RegisterCommissioningStatusCB::?relay`
        FUNCTION `??bdb_RegisterCommissioningStatusCB::?relay`,00H
        EXTERN `??bdb_RegisterSimpleDescriptor::?relay`
        FUNCTION `??bdb_RegisterSimpleDescriptor::?relay`,00H
        EXTERN `??bdb_StartCommissioning::?relay`
        FUNCTION `??bdb_StartCommissioning::?relay`,00H
        EXTERN `??bdb_ZedAttemptRecoverNwk::?relay`
        FUNCTION `??bdb_ZedAttemptRecoverNwk::?relay`,00H
        EXTERN `??osal_mem_free::?relay`
        FUNCTION `??osal_mem_free::?relay`,00H
        EXTERN `??osal_msg_deallocate::?relay`
        FUNCTION `??osal_msg_deallocate::?relay`,00H
        EXTERN `??osal_msg_receive::?relay`
        FUNCTION `??osal_msg_receive::?relay`,00H
        EXTERN `??osal_pwrmgr_device::?relay`
        FUNCTION `??osal_pwrmgr_device::?relay`,00H
        EXTERN `??osal_start_timerEx::?relay`
        FUNCTION `??osal_start_timerEx::?relay`,00H
        EXTERN `??touchLinkInitiator_ResetToFNSelectedTarget::?`
        FUNCTION `??touchLinkInitiator_ResetToFNSelectedTarget::?`,00H
        EXTERN `??touchLinkInitiator_StartDevDisc::?relay`
        FUNCTION `??touchLinkInitiator_StartDevDisc::?relay`,00H
        EXTERN `??zclGeneral_RegisterCmdCallbacks::?relay`
        FUNCTION `??zclGeneral_RegisterCmdCallbacks::?relay`,00H
        EXTERN `??zclSampleSw_ResetAttributesToDefaultValues::?`
        FUNCTION `??zclSampleSw_ResetAttributesToDefaultValues::?`,00H
        EXTERN `??zcl_registerAttrList::?relay`
        FUNCTION `??zcl_registerAttrList::?relay`,00H
        EXTERN `??zcl_registerForMsg::?relay`
        FUNCTION `??zcl_registerForMsg::?relay`,00H
        EXTERN RegisterForKeys
        FUNCTION RegisterForKeys,0202H
        ARGFRAME ISTACK, 0, STACK
        ARGFRAME PSTACK, 0, STACK
        ARGFRAME XSTACK, 9, STACK
        ARGFRAME IOVERLAY, 0, STATIC
        ARGFRAME DOVERLAY, 0, STATIC
        EXTERN RegisterForUart0
        FUNCTION RegisterForUart0,0202H
        ARGFRAME ISTACK, 0, STACK
        ARGFRAME PSTACK, 0, STACK
        ARGFRAME XSTACK, 9, STACK
        ARGFRAME IOVERLAY, 0, STATIC
        ARGFRAME DOVERLAY, 0, STATIC
        EXTERN RegisterVoltageWarningCB
        FUNCTION RegisterVoltageWarningCB,0202H
        ARGFRAME ISTACK, 0, STACK
        ARGFRAME PSTACK, 0, STACK
        ARGFRAME XSTACK, 9, STACK
        ARGFRAME IOVERLAY, 0, STATIC
        ARGFRAME DOVERLAY, 0, STATIC
        EXTERN Uart0_Init
        FUNCTION Uart0_Init,0202H
        ARGFRAME ISTACK, 0, STACK
        ARGFRAME PSTACK, 0, STACK
        ARGFRAME XSTACK, 9, STACK
        ARGFRAME IOVERLAY, 0, STATIC
        ARGFRAME DOVERLAY, 0, STATIC
        EXTERN bdb_RegisterCommissioningStatusCB
        FUNCTION bdb_RegisterCommissioningStatusCB,0202H
        ARGFRAME ISTACK, 0, STACK
        ARGFRAME PSTACK, 0, STACK
        ARGFRAME XSTACK, 9, STACK
        ARGFRAME IOVERLAY, 0, STATIC
        ARGFRAME DOVERLAY, 0, STATIC
        EXTERN bdb_RegisterSimpleDescriptor
        FUNCTION bdb_RegisterSimpleDescriptor,0202H
        ARGFRAME ISTACK, 0, STACK
        ARGFRAME PSTACK, 0, STACK
        ARGFRAME XSTACK, 9, STACK
        ARGFRAME IOVERLAY, 0, STATIC
        ARGFRAME DOVERLAY, 0, STATIC
        EXTERN bdb_StartCommissioning
        FUNCTION bdb_StartCommissioning,0202H
        ARGFRAME ISTACK, 0, STACK
        ARGFRAME PSTACK, 0, STACK
        ARGFRAME XSTACK, 9, STACK
        ARGFRAME IOVERLAY, 0, STATIC
        ARGFRAME DOVERLAY, 0, STATIC
        EXTERN bdb_ZedAttemptRecoverNwk
        FUNCTION bdb_ZedAttemptRecoverNwk,0202H
        ARGFRAME ISTACK, 0, STACK
        ARGFRAME PSTACK, 0, STACK
        ARGFRAME XSTACK, 14, STACK
        ARGFRAME IOVERLAY, 0, STATIC
        ARGFRAME DOVERLAY, 0, STATIC
        EXTERN osal_mem_free
        FUNCTION osal_mem_free,0202H
        ARGFRAME ISTACK, 0, STACK
        ARGFRAME PSTACK, 0, STACK
        ARGFRAME XSTACK, 9, STACK
        ARGFRAME IOVERLAY, 0, STATIC
        ARGFRAME DOVERLAY, 0, STATIC
        EXTERN osal_msg_deallocate
        FUNCTION osal_msg_deallocate,0202H
        ARGFRAME ISTACK, 0, STACK
        ARGFRAME PSTACK, 0, STACK
        ARGFRAME XSTACK, 14, STACK
        ARGFRAME IOVERLAY, 0, STATIC
        ARGFRAME DOVERLAY, 0, STATIC
        EXTERN osal_msg_receive
        FUNCTION osal_msg_receive,0202H
        ARGFRAME ISTACK, 0, STACK
        ARGFRAME PSTACK, 0, STACK
        ARGFRAME XSTACK, 14, STACK
        ARGFRAME IOVERLAY, 0, STATIC
        ARGFRAME DOVERLAY, 0, STATIC
        EXTERN osal_pwrmgr_device
        FUNCTION osal_pwrmgr_device,0202H
        ARGFRAME ISTACK, 0, STACK
        ARGFRAME PSTACK, 0, STACK
        ARGFRAME XSTACK, 9, STACK
        ARGFRAME IOVERLAY, 0, STATIC
        ARGFRAME DOVERLAY, 0, STATIC
        EXTERN osal_start_timerEx
        FUNCTION osal_start_timerEx,0202H
        ARGFRAME ISTACK, 0, STACK
        ARGFRAME PSTACK, 0, STACK
        ARGFRAME XSTACK, 13, STACK
        ARGFRAME IOVERLAY, 0, STATIC
        ARGFRAME DOVERLAY, 0, STATIC
        EXTERN touchLinkInitiator_ResetToFNSelectedTarget
        FUNCTION touchLinkInitiator_ResetToFNSelectedTarget,0202H
        ARGFRAME ISTACK, 0, STACK
        ARGFRAME PSTACK, 0, STACK
        ARGFRAME XSTACK, 14, STACK
        ARGFRAME IOVERLAY, 0, STATIC
        ARGFRAME DOVERLAY, 0, STATIC
        EXTERN touchLinkInitiator_StartDevDisc
        FUNCTION touchLinkInitiator_StartDevDisc,0202H
        ARGFRAME ISTACK, 0, STACK
        ARGFRAME PSTACK, 0, STACK
        ARGFRAME XSTACK, 9, STACK
        ARGFRAME IOVERLAY, 0, STATIC
        ARGFRAME DOVERLAY, 0, STATIC
        EXTERN zclGeneral_RegisterCmdCallbacks
        FUNCTION zclGeneral_RegisterCmdCallbacks,0202H
        ARGFRAME ISTACK, 0, STACK
        ARGFRAME PSTACK, 0, STACK
        ARGFRAME XSTACK, 9, STACK
        ARGFRAME IOVERLAY, 0, STATIC
        ARGFRAME DOVERLAY, 0, STATIC
        EXTERN zclSampleSw_Attrs
        EXTERN zclSampleSw_NumAttributes
        EXTERN zclSampleSw_ResetAttributesToDefaultValues
        FUNCTION zclSampleSw_ResetAttributesToDefaultValues,0202H
        ARGFRAME ISTACK, 2, STACK
        ARGFRAME PSTACK, 0, STACK
        ARGFRAME XSTACK, 9, STACK
        ARGFRAME IOVERLAY, 0, STATIC
        ARGFRAME DOVERLAY, 0, STATIC
        EXTERN zclSampleSw_SimpleDesc
        EXTERN zcl_registerAttrList
        FUNCTION zcl_registerAttrList,0202H
        ARGFRAME ISTACK, 0, STACK
        ARGFRAME PSTACK, 0, STACK
        ARGFRAME XSTACK, 9, STACK
        ARGFRAME IOVERLAY, 0, STATIC
        ARGFRAME DOVERLAY, 0, STATIC
        EXTERN zcl_registerForMsg
        FUNCTION zcl_registerForMsg,0202H
        ARGFRAME ISTACK, 0, STACK
        ARGFRAME PSTACK, 0, STACK
        ARGFRAME XSTACK, 9, STACK
        ARGFRAME IOVERLAY, 0, STATIC
        ARGFRAME DOVERLAY, 0, STATIC
        EXTERN zdpExternalStateTaskID

// D:\AA\Z-Stack 3.0.2\Projects\zstack\HomeAutomation\SampleSwitch\Source\zcl_samplesw.c
//    1 /**************************************************************************************************
//    2   Filename:       zcl_samplesw.c
//    3   Revised:        $Date: 2015-08-19 17:11:00 -0700 (Wed, 19 Aug 2015) $
//    4   Revision:       $Revision: 44460 $
//    5 
//    6   Description:    Zigbee Cluster Library - sample switch application.
//    7 
//    8 
//    9   Copyright 2006-2013 Texas Instruments Incorporated. All rights reserved.
//   10 
//   11   IMPORTANT: Your use of this Software is limited to those specific rights
//   12   granted under the terms of a software license agreement between the user
//   13   who downloaded the software, his/her employer (which must be your employer)
//   14   and Texas Instruments Incorporated (the "License").  You may not use this
//   15   Software unless you agree to abide by the terms of the License. The License
//   16   limits your use, and you acknowledge, that the Software may not be modified,
//   17   copied or distributed unless embedded on a Texas Instruments microcontroller
//   18   or used solely and exclusively in conjunction with a Texas Instruments radio
//   19   frequency transceiver, which is integrated into your product.  Other than for
//   20   the foregoing purpose, you may not use, reproduce, copy, prepare derivative
//   21   works of, modify, distribute, perform, display or sell this Software and/or
//   22   its documentation for any purpose.
//   23 
//   24   YOU FURTHER ACKNOWLEDGE AND AGREE THAT THE SOFTWARE AND DOCUMENTATION ARE
//   25   PROVIDED “AS IS” WITHOUT WARRANTY OF ANY KIND, EITHER EXPRESS OR IMPLIED,
//   26   INCLUDING WITHOUT LIMITATION, ANY WARRANTY OF MERCHANTABILITY, TITLE,
//   27   NON-INFRINGEMENT AND FITNESS FOR A PARTICULAR PURPOSE. IN NO EVENT SHALL
//   28   TEXAS INSTRUMENTS OR ITS LICENSORS BE LIABLE OR OBLIGATED UNDER CONTRACT,
//   29   NEGLIGENCE, STRICT LIABILITY, CONTRIBUTION, BREACH OF WARRANTY, OR OTHER
//   30   LEGAL EQUITABLE THEORY ANY DIRECT OR INDIRECT DAMAGES OR EXPENSES
//   31   INCLUDING BUT NOT LIMITED TO ANY INCIDENTAL, SPECIAL, INDIRECT, PUNITIVE
//   32   OR CONSEQUENTIAL DAMAGES, LOST PROFITS OR LOST DATA, COST OF PROCUREMENT
//   33   OF SUBSTITUTE GOODS, TECHNOLOGY, SERVICES, OR ANY CLAIMS BY THIRD PARTIES
//   34   (INCLUDING BUT NOT LIMITED TO ANY DEFENSE THEREOF), OR OTHER SIMILAR COSTS.
//   35 
//   36   Should you have any questions regarding your right to use this Software,
//   37   contact Texas Instruments Incorporated at www.TI.com.
//   38 **************************************************************************************************/
//   39 
//   40 /*********************************************************************
//   41   This application implements a ZigBee On/Off Switch, based on Z-Stack 3.0.
//   42 
//   43   This application is based on the common sample-application user interface. Please see the main
//   44   comment in zcl_sampleapp_ui.c. The rest of this comment describes only the content specific for
//   45   this sample applicetion.
//   46   
//   47   Application-specific UI peripherals being used:
//   48 
//   49   - none (LED1 is currently unused by this application).
//   50 
//   51   Application-specific menu system:
//   52 
//   53     <TOGGLE LIGHT> Send an On, Off or Toggle command targeting appropriate devices from the binding table.
//   54       Pressing / releasing [OK] will have the following functionality, depending on the value of the 
//   55       zclSampleSw_OnOffSwitchActions attribute:
//   56       - OnOffSwitchActions == 0: pressing [OK] will send ON command, releasing it will send OFF command;
//   57       - OnOffSwitchActions == 1: pressing [OK] will send OFF command, releasing it will send ON command;
//   58       - OnOffSwitchActions == 2: pressing [OK] will send TOGGLE command, releasing it will not send any command.
//   59 
//   60 *********************************************************************/
//   61 
//   62 #if ! defined ZCL_ON_OFF
//   63 #error ZCL_ON_OFF must be defined for this project.
//   64 #endif
//   65 
//   66 /*********************************************************************
//   67  * INCLUDES
//   68  */
//   69 #include "ZComDef.h"
//   70 #include "OSAL.h"
//   71 #include "AF.h"
//   72 #include "ZDApp.h"
//   73 #include "ZDObject.h"
//   74 #include "ZDProfile.h"
//   75 #include "MT_SYS.h"
//   76 
//   77 #include "zcl.h"
//   78 #include "zcl_general.h"
//   79 #include "zcl_ha.h"
//   80 #include "zcl_samplesw.h"
//   81 #include "zcl_diagnostic.h"
//   82 
//   83 #include "onboard.h"
//   84 
//   85 /* HAL */
//   86 #include "hal_lcd.h"
//   87 #include "hal_led.h"
//   88 #include "hal_key.h"
//   89 
//   90 /* UART */
//   91 #include "uart0.h"
//   92 #include "user_printf.h"
//   93 
//   94 #if defined (OTA_CLIENT) && (OTA_CLIENT == TRUE)
//   95 #include "zcl_ota.h"
//   96 #include "hal_ota.h"
//   97 #endif
//   98 
//   99 #include "bdb.h"
//  100 #include "bdb_interface.h"
//  101 #include "bdb_touchlink_initiator.h"
//  102 
//  103 #include "OSAL_PwrMgr.h"
//  104 /*********************************************************************
//  105  * MACROS
//  106  */
//  107 
//  108 #define APP_TITLE "TI Sample Switch"
//  109 
//  110 /*********************************************************************
//  111  * TYPEDEFS
//  112  */
//  113 
//  114 /*********************************************************************
//  115  * GLOBAL VARIABLES
//  116  */

        RSEG XDATA_Z:XDATA:NOROOT(0)
        DATA8
//  117 byte zclSampleSw_TaskID;
zclSampleSw_TaskID:
        DS 1
        REQUIRE __INIT_XDATA_Z
//  118 

        RSEG XDATA_Z:XDATA:NOROOT(0)
        DATA8
//  119 uint8 zclSampleSwSeqNum;
zclSampleSwSeqNum:
        DS 1
        REQUIRE __INIT_XDATA_Z
//  120 

        RSEG XDATA_I:XDATA:NOROOT(0)
//  121 uint8 zclSampleSw_OnOffSwitchType = ON_OFF_SWITCH_TYPE_MOMENTARY;
zclSampleSw_OnOffSwitchType:
        DATA8
        DS 1
        REQUIRE `?<Initializer for zclSampleSw_OnOffSwitchType>`
        REQUIRE __INIT_XDATA_I
//  122 

        RSEG XDATA_Z:XDATA:NOROOT(0)
        DATA8
//  123 uint8 zclSampleSw_OnOffSwitchActions;
zclSampleSw_OnOffSwitchActions:
        DS 1
        REQUIRE __INIT_XDATA_Z
//  124 
//  125 /*********************************************************************
//  126  * GLOBAL FUNCTIONS
//  127  */
//  128 
//  129 /*********************************************************************
//  130  * LOCAL VARIABLES
//  131  */

        RSEG XDATA_Z:XDATA:NOROOT(0)
        DATA8
//  132 afAddrType_t zclSampleSw_DstAddr;
zclSampleSw_DstAddr:
        DS 12
        REQUIRE __INIT_XDATA_Z

        RSEG XDATA_Z:XDATA:NOROOT(0)
        DATA8
//  133 afAddrType_t SW_DstAddr;
SW_DstAddr:
        DS 12
        REQUIRE __INIT_XDATA_Z
//  134 

        RSEG XDATA_Z:XDATA:NOROOT(0)
        DATA16
//  135 uint16 SourceAddr;
SourceAddr:
        DS 2
        REQUIRE __INIT_XDATA_Z
//  136 // Endpoint to allow SYS_APP_MSGs
//  137 

        RSEG XDATA_I:XDATA:NOROOT(0)
//  138 devStates_t zclSampleSw_NwkState = DEV_INIT;
zclSampleSw_NwkState:
        DATA8
        DS 1
        REQUIRE `?<Initializer for zclSampleSw_NwkState>`
        REQUIRE __INIT_XDATA_I
//  139 
//  140 #if defined (OTA_CLIENT) && (OTA_CLIENT == TRUE)
//  141 #define DEVICE_POLL_RATE                 8000   // Poll rate for end device
//  142 #endif
//  143 
//  144 #define SAMPLESW_TOGGLE_TEST_EVT   0x1000
//  145 #define TOUCHLINK_RESET_TARGET_EVT    0x1001
//  146 /*********************************************************************
//  147  * LOCAL FUNCTIONS
//  148  */
//  149 
//  150 
//  151 static void zclSampleSw_HandleKeys( byte shift, byte keys );
//  152 static void zclSampleSw_BasicResetCB( void );
//  153 
//  154 static void zclSampleSw_ProcessCommissioningStatus(bdbCommissioningModeMsg_t *bdbCommissioningModeMsg);
//  155 
//  156 
//  157 // Functions to process ZCL Foundation incoming Command/Response messages
//  158 
//  159 static void zclSampleSw_ProcessIncomingMsg( zclIncomingMsg_t *msg );
//  160 #ifdef ZCL_READ
//  161 static uint8 zclSampleSw_ProcessInReadRspCmd( zclIncomingMsg_t *pInMsg );
//  162 #endif
//  163 #ifdef ZCL_WRITE
//  164 static uint8 zclSampleSw_ProcessInWriteRspCmd( zclIncomingMsg_t *pInMsg );
//  165 #endif
//  166 static uint8 zclSampleSw_ProcessInDefaultRspCmd( zclIncomingMsg_t *pInMsg );
//  167 #ifdef ZCL_DISCOVER
//  168 static uint8 zclSampleSw_ProcessInDiscCmdsRspCmd( zclIncomingMsg_t *pInMsg );
//  169 static uint8 zclSampleSw_ProcessInDiscAttrsRspCmd( zclIncomingMsg_t *pInMsg );
//  170 static uint8 zclSampleSw_ProcessInDiscAttrsExtRspCmd( zclIncomingMsg_t *pInMsg );
//  171 #endif
//  172 
//  173 #if defined (OTA_CLIENT) && (OTA_CLIENT == TRUE)
//  174 static void zclSampleSw_ProcessOTAMsgs( zclOTA_CallbackMsg_t* pMsg );
//  175 #endif
//  176 
//  177 
//  178 static void zclSampleApp_BatteryWarningCB( uint8 voltLevel);
//  179 
//  180 
//  181 /*********************************************************************
//  182  * CONSTANTS
//  183  */
//  184 
//  185   
//  186 /*********************************************************************
//  187  * REFERENCED EXTERNALS
//  188  */
//  189 extern int16 zdpExternalStateTaskID;
//  190 
//  191 /*********************************************************************
//  192  * ZCL General Profile Callback table
//  193  */

        RSEG XDATA_I:XDATA:NOROOT(0)
//  194 static zclGeneral_AppCallbacks_t zclSampleSw_CmdCallbacks =
zclSampleSw_CmdCallbacks:
        DATA8
        DS 18
        REQUIRE `?<Initializer for zclSampleSw_CmdCallbacks>`
        REQUIRE __INIT_XDATA_I
//  195 {
//  196   zclSampleSw_BasicResetCB,               // Basic Cluster Reset command
//  197   NULL,                                   // Identify Trigger Effect command
//  198   NULL,                                   // On/Off cluster commands
//  199   NULL,                                   // On/Off cluster enhanced command Off with Effect
//  200   NULL,                                   // On/Off cluster enhanced command On with Recall Global Scene
//  201   NULL,                                   // On/Off cluster enhanced command On with Timed Off
//  202 #ifdef ZCL_LEVEL_CTRL
//  203   NULL,                                   // Level Control Move to Level command
//  204   NULL,                                   // Level Control Move command
//  205   NULL,                                   // Level Control Step command
//  206   NULL,                                   // Level Control Stop command
//  207 #endif
//  208 #ifdef ZCL_GROUPS
//  209   NULL,                                   // Group Response commands
//  210 #endif
//  211 #ifdef ZCL_SCENES
//  212   NULL,                                   // Scene Store Request command
//  213   NULL,                                   // Scene Recall Request command
//  214   NULL,                                   // Scene Response command
//  215 #endif
//  216 #ifdef ZCL_ALARMS
//  217   NULL,                                   // Alarm (Response) commands
//  218 #endif
//  219 #ifdef SE_UK_EXT
//  220   NULL,                                   // Get Event Log command
//  221   NULL,                                   // Publish Event Log command
//  222 #endif
//  223   NULL,                                   // RSSI Location command
//  224   NULL                                    // RSSI Location Response command
//  225 };
//  226 
//  227 /*********************************************************************
//  228  * @fn          zclSampleSw_Init
//  229  *
//  230  * @brief       Initialization function for the zclGeneral layer.
//  231  *
//  232  * @param       none
//  233  *
//  234  * @return      none
//  235  */

        RSEG BANKED_CODE:HUGECODE:NOROOT(0)
//  236 void zclSampleSw_Init( byte task_id )
zclSampleSw_Init:
          CFI Block cfiBlock0 Using cfiCommon0
          CFI Function zclSampleSw_Init
        CODE
//  237 {
        FUNCALL zclSampleSw_Init, osal_pwrmgr_device
        LOCFRAME ISTACK, 0, STACK
        LOCFRAME PSTACK, 0, STACK
        LOCFRAME XSTACK, 9, STACK
        LOCFRAME IOVERLAY, 0, STATIC
        LOCFRAME DOVERLAY, 0, STATIC
        ARGFRAME ISTACK, 0, STACK
        ARGFRAME PSTACK, 0, STACK
        ARGFRAME XSTACK, 9, STACK
        ARGFRAME IOVERLAY, 0, STATIC
        ARGFRAME DOVERLAY, 0, STATIC
        FUNCALL zclSampleSw_Init, Uart0_Init
        LOCFRAME ISTACK, 0, STACK
        LOCFRAME PSTACK, 0, STACK
        LOCFRAME XSTACK, 9, STACK
        LOCFRAME IOVERLAY, 0, STATIC
        LOCFRAME DOVERLAY, 0, STATIC
        ARGFRAME ISTACK, 0, STACK
        ARGFRAME PSTACK, 0, STACK
        ARGFRAME XSTACK, 9, STACK
        ARGFRAME IOVERLAY, 0, STATIC
        ARGFRAME DOVERLAY, 0, STATIC
        FUNCALL zclSampleSw_Init, RegisterForUart0
        LOCFRAME ISTACK, 0, STACK
        LOCFRAME PSTACK, 0, STACK
        LOCFRAME XSTACK, 9, STACK
        LOCFRAME IOVERLAY, 0, STATIC
        LOCFRAME DOVERLAY, 0, STATIC
        ARGFRAME ISTACK, 0, STACK
        ARGFRAME PSTACK, 0, STACK
        ARGFRAME XSTACK, 9, STACK
        ARGFRAME IOVERLAY, 0, STATIC
        ARGFRAME DOVERLAY, 0, STATIC
        FUNCALL zclSampleSw_Init, bdb_RegisterSimpleDescriptor
        LOCFRAME ISTACK, 0, STACK
        LOCFRAME PSTACK, 0, STACK
        LOCFRAME XSTACK, 9, STACK
        LOCFRAME IOVERLAY, 0, STATIC
        LOCFRAME DOVERLAY, 0, STATIC
        ARGFRAME ISTACK, 0, STACK
        ARGFRAME PSTACK, 0, STACK
        ARGFRAME XSTACK, 9, STACK
        ARGFRAME IOVERLAY, 0, STATIC
        ARGFRAME DOVERLAY, 0, STATIC
        FUNCALL zclSampleSw_Init, zclGeneral_RegisterCmdCallbacks
        LOCFRAME ISTACK, 0, STACK
        LOCFRAME PSTACK, 0, STACK
        LOCFRAME XSTACK, 9, STACK
        LOCFRAME IOVERLAY, 0, STATIC
        LOCFRAME DOVERLAY, 0, STATIC
        ARGFRAME ISTACK, 0, STACK
        ARGFRAME PSTACK, 0, STACK
        ARGFRAME XSTACK, 9, STACK
        ARGFRAME IOVERLAY, 0, STATIC
        ARGFRAME DOVERLAY, 0, STATIC
        FUNCALL zclSampleSw_Init, zclSampleSw_ResetAttributesToDefaultValues
        LOCFRAME ISTACK, 0, STACK
        LOCFRAME PSTACK, 0, STACK
        LOCFRAME XSTACK, 9, STACK
        LOCFRAME IOVERLAY, 0, STATIC
        LOCFRAME DOVERLAY, 0, STATIC
        ARGFRAME ISTACK, 0, STACK
        ARGFRAME PSTACK, 0, STACK
        ARGFRAME XSTACK, 9, STACK
        ARGFRAME IOVERLAY, 0, STATIC
        ARGFRAME DOVERLAY, 0, STATIC
        FUNCALL zclSampleSw_Init, zcl_registerAttrList
        LOCFRAME ISTACK, 0, STACK
        LOCFRAME PSTACK, 0, STACK
        LOCFRAME XSTACK, 9, STACK
        LOCFRAME IOVERLAY, 0, STATIC
        LOCFRAME DOVERLAY, 0, STATIC
        ARGFRAME ISTACK, 0, STACK
        ARGFRAME PSTACK, 0, STACK
        ARGFRAME XSTACK, 9, STACK
        ARGFRAME IOVERLAY, 0, STATIC
        ARGFRAME DOVERLAY, 0, STATIC
        FUNCALL zclSampleSw_Init, zcl_registerForMsg
        LOCFRAME ISTACK, 0, STACK
        LOCFRAME PSTACK, 0, STACK
        LOCFRAME XSTACK, 9, STACK
        LOCFRAME IOVERLAY, 0, STATIC
        LOCFRAME DOVERLAY, 0, STATIC
        ARGFRAME ISTACK, 0, STACK
        ARGFRAME PSTACK, 0, STACK
        ARGFRAME XSTACK, 9, STACK
        ARGFRAME IOVERLAY, 0, STATIC
        ARGFRAME DOVERLAY, 0, STATIC
        FUNCALL zclSampleSw_Init, RegisterVoltageWarningCB
        LOCFRAME ISTACK, 0, STACK
        LOCFRAME PSTACK, 0, STACK
        LOCFRAME XSTACK, 9, STACK
        LOCFRAME IOVERLAY, 0, STATIC
        LOCFRAME DOVERLAY, 0, STATIC
        ARGFRAME ISTACK, 0, STACK
        ARGFRAME PSTACK, 0, STACK
        ARGFRAME XSTACK, 9, STACK
        ARGFRAME IOVERLAY, 0, STATIC
        ARGFRAME DOVERLAY, 0, STATIC
        FUNCALL zclSampleSw_Init, RegisterForKeys
        LOCFRAME ISTACK, 0, STACK
        LOCFRAME PSTACK, 0, STACK
        LOCFRAME XSTACK, 9, STACK
        LOCFRAME IOVERLAY, 0, STATIC
        LOCFRAME DOVERLAY, 0, STATIC
        ARGFRAME ISTACK, 0, STACK
        ARGFRAME PSTACK, 0, STACK
        ARGFRAME XSTACK, 9, STACK
        ARGFRAME IOVERLAY, 0, STATIC
        ARGFRAME DOVERLAY, 0, STATIC
        FUNCALL zclSampleSw_Init, bdb_RegisterCommissioningStatusCB
        LOCFRAME ISTACK, 0, STACK
        LOCFRAME PSTACK, 0, STACK
        LOCFRAME XSTACK, 9, STACK
        LOCFRAME IOVERLAY, 0, STATIC
        LOCFRAME DOVERLAY, 0, STATIC
        ARGFRAME ISTACK, 0, STACK
        ARGFRAME PSTACK, 0, STACK
        ARGFRAME XSTACK, 9, STACK
        ARGFRAME IOVERLAY, 0, STATIC
        ARGFRAME DOVERLAY, 0, STATIC
        FUNCALL zclSampleSw_Init, bdb_StartCommissioning
        LOCFRAME ISTACK, 0, STACK
        LOCFRAME PSTACK, 0, STACK
        LOCFRAME XSTACK, 9, STACK
        LOCFRAME IOVERLAY, 0, STATIC
        LOCFRAME DOVERLAY, 0, STATIC
        ARGFRAME ISTACK, 0, STACK
        ARGFRAME PSTACK, 0, STACK
        ARGFRAME XSTACK, 9, STACK
        ARGFRAME IOVERLAY, 0, STATIC
        ARGFRAME DOVERLAY, 0, STATIC
        MOV       A,#-0x9
        LCALL     ?BANKED_ENTER_XDATA
          CFI DPH0 load(1, XDATA, add(CFA_XSP16, literal(-1)))
          CFI DPL0 load(1, XDATA, add(CFA_XSP16, literal(-2)))
          CFI ?BRET_EXT load(1, XDATA, add(CFA_XSP16, literal(-3)))
          CFI ?RET_HIGH load(1, XDATA, add(CFA_XSP16, literal(-4)))
          CFI ?RET_LOW load(1, XDATA, add(CFA_XSP16, literal(-5)))
          CFI R7 load(1, XDATA, add(CFA_XSP16, literal(-6)))
          CFI V0 load(1, XDATA, add(CFA_XSP16, literal(-7)))
          CFI VB load(1, XDATA, add(CFA_XSP16, literal(-8)))
          CFI R6 load(1, XDATA, add(CFA_XSP16, literal(-9)))
          CFI CFA_SP SP+0
          CFI CFA_XSP16 add(XSP16, 9)
        ; Saved register size: 9
        ; Auto size: 0
        MOV       A,R1
        MOV       R6,A
//  238   zclSampleSw_TaskID = task_id;
        MOV       A,R6
        MOV       DPTR,#zclSampleSw_TaskID
        MOVX      @DPTR,A
//  239 
//  240   osal_pwrmgr_device(PWRMGR_BATTERY);
        ; Setup parameters for call to function osal_pwrmgr_device
        MOV       R1,#0x1
        LCALL     `??osal_pwrmgr_device::?relay`; Banked call to: osal_pwrmgr_device
//  241 
//  242   // Set destination address to indirect
//  243   zclSampleSw_DstAddr.addrMode = (afAddrMode_t)AddrNotPresent;
        MOV       DPTR,#zclSampleSw_DstAddr + 8
        MOV       A,#0x0
        MOVX      @DPTR,A
//  244   zclSampleSw_DstAddr.endPoint = 0;
        MOV       DPTR,#zclSampleSw_DstAddr + 9
        MOV       A,#0x0
        MOVX      @DPTR,A
//  245   zclSampleSw_DstAddr.addr.shortAddr = 0;
        MOV       DPTR,#zclSampleSw_DstAddr
        MOV       A,#0x0
        MOVX      @DPTR,A
        INC       DPTR
        MOV       A,#0x0
        MOVX      @DPTR,A
//  246 
//  247   //Initialize the Uart0
//  248   Uart0_Init(HAL_UART_BR_115200);
        ; Setup parameters for call to function Uart0_Init
        MOV       R1,#0x4
        LCALL     `??Uart0_Init::?relay`; Banked call to: Uart0_Init
//  249 
//  250   // Register the Uart0
//  251   RegisterForUart0( zclSampleSw_TaskID );
        ; Setup parameters for call to function RegisterForUart0
        MOV       DPTR,#zclSampleSw_TaskID
        MOVX      A,@DPTR
        MOV       R1,A
        LCALL     `??RegisterForUart0::?relay`; Banked call to: RegisterForUart0
        MOV       A,R1
//  252 
//  253   // Register the Simple Descriptor for this application
//  254   bdb_RegisterSimpleDescriptor( &zclSampleSw_SimpleDesc );
        ; Setup parameters for call to function bdb_RegisterSimpleDescriptor
        MOV       R2,#zclSampleSw_SimpleDesc & 0xff
        MOV       R3,#(zclSampleSw_SimpleDesc >> 8) & 0xff
        LCALL     `??bdb_RegisterSimpleDescriptor::?relay`; Banked call to: bdb_RegisterSimpleDescriptor
//  255 
//  256   // Register the ZCL General Cluster Library callback functions
//  257   zclGeneral_RegisterCmdCallbacks( SW1_ENDPOINT, &zclSampleSw_CmdCallbacks );
        ; Setup parameters for call to function zclGeneral_RegisterCmdCallbacks
        MOV       R2,#zclSampleSw_CmdCallbacks & 0xff
        MOV       R3,#(zclSampleSw_CmdCallbacks >> 8) & 0xff
        MOV       R1,#0x8
        LCALL     `??zclGeneral_RegisterCmdCallbacks::?relay`; Banked call to: zclGeneral_RegisterCmdCallbacks
        MOV       A,R1
//  258 
//  259   zclSampleSw_ResetAttributesToDefaultValues();
        ; Setup parameters for call to function zclSampleSw_ResetAttributesToDefaultValues
        LCALL     `??zclSampleSw_ResetAttributesToDefaultValues::?`; Banked call to: zclSampleSw_ResetAttributesToDefaultValues
//  260   
//  261   // Register the application's attribute list
//  262   zcl_registerAttrList( SW1_ENDPOINT, zclSampleSw_NumAttributes, zclSampleSw_Attrs );
        ; Setup parameters for call to function zcl_registerAttrList
        MOV       R4,#zclSampleSw_Attrs & 0xff
        MOV       R5,#(zclSampleSw_Attrs >> 8) & 0xff
        MOV       DPTR,#zclSampleSw_NumAttributes
        CLR       A
        MOVC      A,@A+DPTR
        MOV       R2,A
        MOV       R1,#0x8
        LCALL     `??zcl_registerAttrList::?relay`; Banked call to: zcl_registerAttrList
        MOV       A,R1
//  263   
//  264   // Register the Application to receive the unprocessed Foundation command/response messages
//  265   zcl_registerForMsg( zclSampleSw_TaskID );
        ; Setup parameters for call to function zcl_registerForMsg
        MOV       DPTR,#zclSampleSw_TaskID
        MOVX      A,@DPTR
        MOV       R1,A
        LCALL     `??zcl_registerForMsg::?relay`; Banked call to: zcl_registerForMsg
        MOV       A,R1
//  266   
//  267   // Register low voltage NV memory protection application callback
//  268   RegisterVoltageWarningCB( zclSampleApp_BatteryWarningCB );
        ; Setup parameters for call to function RegisterVoltageWarningCB
        MOV       R2,#`??zclSampleApp_BatteryWarningCB::?relay` & 0xff
        MOV       R3,#(`??zclSampleApp_BatteryWarningCB::?relay` >> 8) & 0xff
        LCALL     `??RegisterVoltageWarningCB::?relay`; Banked call to: RegisterVoltageWarningCB
//  269 
//  270   // Register for all key events - This app will handle all key events
//  271   RegisterForKeys( zclSampleSw_TaskID );
        ; Setup parameters for call to function RegisterForKeys
        MOV       DPTR,#zclSampleSw_TaskID
        MOVX      A,@DPTR
        MOV       R1,A
        LCALL     `??RegisterForKeys::?relay`; Banked call to: RegisterForKeys
        MOV       A,R1
//  272   
//  273   bdb_RegisterCommissioningStatusCB( zclSampleSw_ProcessCommissioningStatus );
        ; Setup parameters for call to function bdb_RegisterCommissioningStatusCB
        MOV       R2,#`??zclSampleSw_ProcessCommissioningStatus::?rela` & 0xff
        MOV       R3,#(`??zclSampleSw_ProcessCommissioningStatus::?rela` >> 8) & 0xff
        LCALL     `??bdb_RegisterCommissioningStatusCB::?relay`; Banked call to: bdb_RegisterCommissioningStatusCB
//  274   
//  275 #ifdef ZCL_DIAGNOSTIC
//  276   // Register the application's callback function to read/write attribute data.
//  277   // This is only required when the attribute data format is unknown to ZCL.
//  278   zcl_registerReadWriteCB( SAMPLESW_ENDPOINT, zclDiagnostic_ReadWriteAttrCB, NULL );
//  279 
//  280   if ( zclDiagnostic_InitStats() == ZSuccess )
//  281   {
//  282     // Here the user could start the timer to save Diagnostics to NV
//  283   }
//  284 #endif
//  285 
//  286 #if defined (OTA_CLIENT) && (OTA_CLIENT == TRUE)
//  287   // Register for callback events from the ZCL OTA
//  288   zclOTA_Register(zclSampleSw_TaskID);
//  289 #endif
//  290 
//  291   zdpExternalStateTaskID = zclSampleSw_TaskID;
        MOV       DPTR,#zclSampleSw_TaskID
        MOVX      A,@DPTR
        MOV       R0,A
        MOV       R1,#0x0
        MOV       DPTR,#zdpExternalStateTaskID
        MOV       A,R0
        MOVX      @DPTR,A
        INC       DPTR
        MOV       A,R1
        MOVX      @DPTR,A
//  292 
//  293   bdb_StartCommissioning( BDB_COMMISSIONING_MODE_INITIATOR_TL );
        ; Setup parameters for call to function bdb_StartCommissioning
        MOV       R1,#0x1
        LCALL     `??bdb_StartCommissioning::?relay`; Banked call to: bdb_StartCommissioning
//  294 
//  295 }
        MOV       R7,#0x1
        LJMP      ?BANKED_LEAVE_XDATA
          CFI EndBlock cfiBlock0
//  296 
//  297 /*********************************************************************
//  298  * @fn          zclSample_event_loop
//  299  *
//  300  * @brief       Event Loop Processor for zclGeneral.
//  301  *
//  302  * @param       none
//  303  *
//  304  * @return      none
//  305  */

        RSEG BANKED_CODE:HUGECODE:NOROOT(0)
//  306 uint16 zclSampleSw_event_loop( uint8 task_id, uint16 events )
zclSampleSw_event_loop:
          CFI Block cfiBlock1 Using cfiCommon0
          CFI Function zclSampleSw_event_loop
        CODE
//  307 {
        FUNCALL zclSampleSw_event_loop, touchLinkInitiator_ResetToFNSelectedTarget
        LOCFRAME ISTACK, 0, STACK
        LOCFRAME PSTACK, 0, STACK
        LOCFRAME XSTACK, 14, STACK
        LOCFRAME IOVERLAY, 0, STATIC
        LOCFRAME DOVERLAY, 0, STATIC
        ARGFRAME ISTACK, 0, STACK
        ARGFRAME PSTACK, 0, STACK
        ARGFRAME XSTACK, 14, STACK
        ARGFRAME IOVERLAY, 0, STATIC
        ARGFRAME DOVERLAY, 0, STATIC
        FUNCALL zclSampleSw_event_loop, osal_msg_receive
        LOCFRAME ISTACK, 0, STACK
        LOCFRAME PSTACK, 0, STACK
        LOCFRAME XSTACK, 14, STACK
        LOCFRAME IOVERLAY, 0, STATIC
        LOCFRAME DOVERLAY, 0, STATIC
        ARGFRAME ISTACK, 0, STACK
        ARGFRAME PSTACK, 0, STACK
        ARGFRAME XSTACK, 14, STACK
        ARGFRAME IOVERLAY, 0, STATIC
        ARGFRAME DOVERLAY, 0, STATIC
        FUNCALL zclSampleSw_event_loop, zclSampleSw_ProcessIncomingMsg
        LOCFRAME ISTACK, 0, STACK
        LOCFRAME PSTACK, 0, STACK
        LOCFRAME XSTACK, 14, STACK
        LOCFRAME IOVERLAY, 0, STATIC
        LOCFRAME DOVERLAY, 0, STATIC
        ARGFRAME ISTACK, 0, STACK
        ARGFRAME PSTACK, 0, STACK
        ARGFRAME XSTACK, 14, STACK
        ARGFRAME IOVERLAY, 0, STATIC
        ARGFRAME DOVERLAY, 0, STATIC
        FUNCALL zclSampleSw_event_loop, zclSampleSw_HandleKeys
        LOCFRAME ISTACK, 0, STACK
        LOCFRAME PSTACK, 0, STACK
        LOCFRAME XSTACK, 14, STACK
        LOCFRAME IOVERLAY, 0, STATIC
        LOCFRAME DOVERLAY, 0, STATIC
        ARGFRAME ISTACK, 0, STACK
        ARGFRAME PSTACK, 0, STACK
        ARGFRAME XSTACK, 14, STACK
        ARGFRAME IOVERLAY, 0, STATIC
        ARGFRAME DOVERLAY, 0, STATIC
        FUNCALL zclSampleSw_event_loop, osal_msg_deallocate
        LOCFRAME ISTACK, 0, STACK
        LOCFRAME PSTACK, 0, STACK
        LOCFRAME XSTACK, 14, STACK
        LOCFRAME IOVERLAY, 0, STATIC
        LOCFRAME DOVERLAY, 0, STATIC
        ARGFRAME ISTACK, 0, STACK
        ARGFRAME PSTACK, 0, STACK
        ARGFRAME XSTACK, 14, STACK
        ARGFRAME IOVERLAY, 0, STATIC
        ARGFRAME DOVERLAY, 0, STATIC
        FUNCALL zclSampleSw_event_loop, bdb_ZedAttemptRecoverNwk
        LOCFRAME ISTACK, 0, STACK
        LOCFRAME PSTACK, 0, STACK
        LOCFRAME XSTACK, 14, STACK
        LOCFRAME IOVERLAY, 0, STATIC
        LOCFRAME DOVERLAY, 0, STATIC
        ARGFRAME ISTACK, 0, STACK
        ARGFRAME PSTACK, 0, STACK
        ARGFRAME XSTACK, 14, STACK
        ARGFRAME IOVERLAY, 0, STATIC
        ARGFRAME DOVERLAY, 0, STATIC
        REQUIRE ?V0
        REQUIRE ?V1
        REQUIRE ?V2
        REQUIRE ?V4
        REQUIRE ?V5
        MOV       A,#-0xe
        LCALL     ?BANKED_ENTER_XDATA
          CFI DPH0 load(1, XDATA, add(CFA_XSP16, literal(-1)))
          CFI DPL0 load(1, XDATA, add(CFA_XSP16, literal(-2)))
          CFI ?BRET_EXT load(1, XDATA, add(CFA_XSP16, literal(-3)))
          CFI ?RET_HIGH load(1, XDATA, add(CFA_XSP16, literal(-4)))
          CFI ?RET_LOW load(1, XDATA, add(CFA_XSP16, literal(-5)))
          CFI R7 load(1, XDATA, add(CFA_XSP16, literal(-6)))
          CFI V5 load(1, XDATA, add(CFA_XSP16, literal(-7)))
          CFI V4 load(1, XDATA, add(CFA_XSP16, literal(-8)))
          CFI V3 load(1, XDATA, add(CFA_XSP16, literal(-9)))
          CFI V2 load(1, XDATA, add(CFA_XSP16, literal(-10)))
          CFI V1 load(1, XDATA, add(CFA_XSP16, literal(-11)))
          CFI V0 load(1, XDATA, add(CFA_XSP16, literal(-12)))
          CFI VB load(1, XDATA, add(CFA_XSP16, literal(-13)))
          CFI R6 load(1, XDATA, add(CFA_XSP16, literal(-14)))
          CFI CFA_SP SP+0
          CFI CFA_XSP16 add(XSP16, 14)
        ; Saved register size: 14
        ; Auto size: 0
        MOV       ?V2,R1
        MOV       A,R2
        MOV       R6,A
        MOV       A,R3
        MOV       R7,A
//  308   afIncomingMSGPacket_t *MSGpkt;
//  309   (void)task_id;  // Intentionally unreferenced parameter
//  310 
//  311   if( events & TOUCHLINK_RESET_TARGET_EVT )
        MOV       A,R6
        ANL       A,#0x1
        MOV       R0,A
        MOV       A,R7
        ANL       A,#0x10
        MOV       R1,A
        MOV       A,R0
        ORL       A,R1
        JZ        ??zclSampleSw_event_loop_0
//  312   {
//  313     touchLinkInitiator_ResetToFNSelectedTarget();
        ; Setup parameters for call to function touchLinkInitiator_ResetToFNSelectedTarget
        LCALL     `??touchLinkInitiator_ResetToFNSelectedTarget::?`; Banked call to: touchLinkInitiator_ResetToFNSelectedTarget
        MOV       A,R1
//  314   }
//  315 
//  316   if ( events & SYS_EVENT_MSG )
??zclSampleSw_event_loop_0:
        MOV       A,R6
        ANL       A,#0x0
        MOV       R0,A
        MOV       A,R7
        ANL       A,#0x80
        MOV       R1,A
        MOV       A,R0
        ORL       A,R1
        JZ        ??zclSampleSw_event_loop_1
//  317   {
//  318     while ( (MSGpkt = (afIncomingMSGPacket_t *)osal_msg_receive( zclSampleSw_TaskID )) )
??zclSampleSw_event_loop_2:
        ; Setup parameters for call to function osal_msg_receive
        MOV       DPTR,#zclSampleSw_TaskID
        MOVX      A,@DPTR
        MOV       R1,A
        LCALL     `??osal_msg_receive::?relay`; Banked call to: osal_msg_receive
        MOV       ?V4,R2
        MOV       ?V5,R3
        MOV       ?V0,?V4
        MOV       ?V1,?V5
        MOV       A,?V0
        ORL       A,?V1
        JZ        ??zclSampleSw_event_loop_3
//  319     {
//  320       switch ( MSGpkt->hdr.event )
        MOV       DPL,?V0
        MOV       DPH,?V1
        MOVX      A,@DPTR
        ADD       A,#-0x34
        JZ        ??zclSampleSw_event_loop_4
        ADD       A,#0x74
        JZ        ??zclSampleSw_event_loop_5
        ADD       A,#-0x11
        JZ        ??zclSampleSw_event_loop_6
        SJMP      ??zclSampleSw_event_loop_6
//  321       {
//  322         case ZCL_INCOMING_MSG:
//  323           // Incoming ZCL Foundation command/response messages
//  324           zclSampleSw_ProcessIncomingMsg( (zclIncomingMsg_t *)MSGpkt );
??zclSampleSw_event_loop_4:
        ; Setup parameters for call to function zclSampleSw_ProcessIncomingMsg
        MOV       R2,?V0
        MOV       R3,?V1
        LCALL     `??zclSampleSw_ProcessIncomingMsg::?relay`; Banked call to: zclSampleSw_ProcessIncomingMsg
//  325           break;
        SJMP      ??zclSampleSw_event_loop_6
//  326 
//  327         case KEY_CHANGE:
//  328           zclSampleSw_HandleKeys( ((keyChange_t *)MSGpkt)->state, ((keyChange_t *)MSGpkt)->keys );
??zclSampleSw_event_loop_5:
        ; Setup parameters for call to function zclSampleSw_HandleKeys
        MOV       DPL,?V0
        MOV       DPH,?V1
        INC       DPTR
        INC       DPTR
        INC       DPTR
        MOVX      A,@DPTR
        MOV       R2,A
        MOV       DPL,?V0
        MOV       DPH,?V1
        INC       DPTR
        INC       DPTR
        MOVX      A,@DPTR
        MOV       R1,A
        LCALL     `??zclSampleSw_HandleKeys::?relay`; Banked call to: zclSampleSw_HandleKeys
//  329           break;
//  330 
//  331         case ZDO_STATE_CHANGE:
//  332           break;
//  333 
//  334 #if defined (OTA_CLIENT) && (OTA_CLIENT == TRUE)
//  335         case ZCL_OTA_CALLBACK_IND:
//  336           zclSampleSw_ProcessOTAMsgs( (zclOTA_CallbackMsg_t*)MSGpkt  );
//  337           break;
//  338 #endif
//  339 
//  340         default:
//  341           break;
//  342       }
//  343 
//  344       // Release the memory
//  345       osal_msg_deallocate( (uint8 *)MSGpkt );
??zclSampleSw_event_loop_6:
        ; Setup parameters for call to function osal_msg_deallocate
        MOV       R2,?V0
        MOV       R3,?V1
        LCALL     `??osal_msg_deallocate::?relay`; Banked call to: osal_msg_deallocate
        MOV       A,R1
        SJMP      ??zclSampleSw_event_loop_2
//  346     }
//  347 
//  348     // return unprocessed events
//  349     return (events ^ SYS_EVENT_MSG);
??zclSampleSw_event_loop_3:
        MOV       A,R6
        XRL       A,#0x0
        MOV       R2,A
        MOV       A,R7
        XRL       A,#0x80
        MOV       R3,A
        SJMP      ??zclSampleSw_event_loop_7
//  350   }
//  351 
//  352 #if ZG_BUILD_ENDDEVICE_TYPE    
//  353   if ( events & SAMPLEAPP_END_DEVICE_REJOIN_EVT )
??zclSampleSw_event_loop_1:
        MOV       A,R6
        MOV       C,0xE0 /* A   */.0
        JNC       ??zclSampleSw_event_loop_8
//  354   {
//  355     bdb_ZedAttemptRecoverNwk();
        ; Setup parameters for call to function bdb_ZedAttemptRecoverNwk
        LCALL     `??bdb_ZedAttemptRecoverNwk::?relay`; Banked call to: bdb_ZedAttemptRecoverNwk
        MOV       A,R1
//  356     return ( events ^ SAMPLEAPP_END_DEVICE_REJOIN_EVT );
        MOV       A,R6
        XRL       A,#0x1
        MOV       R2,A
        MOV       A,R7
        XRL       A,#0x0
        MOV       R3,A
        SJMP      ??zclSampleSw_event_loop_7
//  357   }
//  358 #endif
//  359 
//  360   if ( events & SAMPLEAPP_LCD_AUTO_UPDATE_EVT )
??zclSampleSw_event_loop_8:
        MOV       A,R6
        ANL       A,#0x10
        JZ        ??zclSampleSw_event_loop_9
//  361   {
//  362     return ( events ^ SAMPLEAPP_LCD_AUTO_UPDATE_EVT );
        MOV       A,R6
        XRL       A,#0x10
        MOV       R2,A
        MOV       A,R7
        XRL       A,#0x0
        MOV       R3,A
        SJMP      ??zclSampleSw_event_loop_7
//  363   }
//  364 
//  365   if ( events & SAMPLEAPP_KEY_AUTO_REPEAT_EVT )
??zclSampleSw_event_loop_9:
        MOV       A,R6
        ANL       A,#0x20
        JZ        ??zclSampleSw_event_loop_10
//  366   {
//  367     return ( events ^ SAMPLEAPP_KEY_AUTO_REPEAT_EVT );
        MOV       A,R6
        XRL       A,#0x20
        MOV       R2,A
        MOV       A,R7
        XRL       A,#0x0
        MOV       R3,A
        SJMP      ??zclSampleSw_event_loop_7
//  368   }
//  369   // Discard unknown events
//  370   return 0;
??zclSampleSw_event_loop_10:
        MOV       R2,#0x0
        MOV       R3,#0x0
??zclSampleSw_event_loop_7:
        MOV       R7,#0x6
        LJMP      ?BANKED_LEAVE_XDATA
//  371 }
          CFI EndBlock cfiBlock1
//  372 
//  373 /*********************************************************************
//  374  * @fn      zclSampleSw_HandleKeys
//  375  *
//  376  * @brief   Handles all key events for this device.
//  377  *
//  378  * @param   shift - true if in shift/alt.
//  379  * @param   keys - bit field for key events. Valid entries:
//  380  *                 HAL_KEY_SW_5
//  381  *                 HAL_KEY_SW_4
//  382  *                 HAL_KEY_SW_2
//  383  *                 HAL_KEY_SW_1
//  384  *
//  385  * @return  none
//  386  */

        RSEG BANKED_CODE:HUGECODE:NOROOT(0)
//  387 static void zclSampleSw_HandleKeys( byte shift, byte keys )
zclSampleSw_HandleKeys:
          CFI Block cfiBlock2 Using cfiCommon0
          CFI Function zclSampleSw_HandleKeys
        CODE
//  388 {
        FUNCALL zclSampleSw_HandleKeys, touchLinkInitiator_StartDevDisc
        LOCFRAME ISTACK, 0, STACK
        LOCFRAME PSTACK, 0, STACK
        LOCFRAME XSTACK, 9, STACK
        LOCFRAME IOVERLAY, 0, STATIC
        LOCFRAME DOVERLAY, 0, STATIC
        ARGFRAME ISTACK, 0, STACK
        ARGFRAME PSTACK, 0, STACK
        ARGFRAME XSTACK, 9, STACK
        ARGFRAME IOVERLAY, 0, STATIC
        ARGFRAME DOVERLAY, 0, STATIC
        FUNCALL zclSampleSw_HandleKeys, osal_start_timerEx
        LOCFRAME ISTACK, 0, STACK
        LOCFRAME PSTACK, 0, STACK
        LOCFRAME XSTACK, 13, STACK
        LOCFRAME IOVERLAY, 0, STATIC
        LOCFRAME DOVERLAY, 0, STATIC
        ARGFRAME ISTACK, 0, STACK
        ARGFRAME PSTACK, 0, STACK
        ARGFRAME XSTACK, 13, STACK
        ARGFRAME IOVERLAY, 0, STATIC
        ARGFRAME DOVERLAY, 0, STATIC
        MOV       A,#-0x9
        LCALL     ?BANKED_ENTER_XDATA
          CFI DPH0 load(1, XDATA, add(CFA_XSP16, literal(-1)))
          CFI DPL0 load(1, XDATA, add(CFA_XSP16, literal(-2)))
          CFI ?BRET_EXT load(1, XDATA, add(CFA_XSP16, literal(-3)))
          CFI ?RET_HIGH load(1, XDATA, add(CFA_XSP16, literal(-4)))
          CFI ?RET_LOW load(1, XDATA, add(CFA_XSP16, literal(-5)))
          CFI R7 load(1, XDATA, add(CFA_XSP16, literal(-6)))
          CFI V0 load(1, XDATA, add(CFA_XSP16, literal(-7)))
          CFI VB load(1, XDATA, add(CFA_XSP16, literal(-8)))
          CFI R6 load(1, XDATA, add(CFA_XSP16, literal(-9)))
          CFI CFA_SP SP+0
          CFI CFA_XSP16 add(XSP16, 9)
        ; Saved register size: 9
        ; Auto size: 0
        MOV       A,R1
        MOV       R6,A
        MOV       A,R2
        MOV       R7,A
//  389   if ( keys & HAL_KEY_SW_6 ) //key1
        MOV       A,R7
        MOV       C,0xE0 /* A   */.5
        JNC       ??zclSampleSw_HandleKeys_0
//  390   {
//  391     touchLinkInitiator_StartDevDisc();
        ; Setup parameters for call to function touchLinkInitiator_StartDevDisc
        LCALL     `??touchLinkInitiator_StartDevDisc::?relay`; Banked call to: touchLinkInitiator_StartDevDisc
        MOV       A,R1
//  392     osal_start_timerEx(zclSampleSw_TaskID,TOUCHLINK_RESET_TARGET_EVT,2500);
        ; Setup parameters for call to function osal_start_timerEx
        MOV       DPTR,#__Constant_9c4
        LCALL     ?PUSH_XSTACK8_X_FOUR
          CFI CFA_XSP16 add(XSP16, 13)
        MOV       R2,#0x1
        MOV       R3,#0x10
        MOV       DPTR,#zclSampleSw_TaskID
        MOVX      A,@DPTR
        MOV       R1,A
        LCALL     `??osal_start_timerEx::?relay`; Banked call to: osal_start_timerEx
        MOV       A,#0x4
        LCALL     ?DEALLOC_XSTACK8
          CFI CFA_XSP16 add(XSP16, 9)
        MOV       A,R1
//  393   }    
//  394 }
??zclSampleSw_HandleKeys_0:
        MOV       R7,#0x1
        LJMP      ?BANKED_LEAVE_XDATA
          CFI EndBlock cfiBlock2
//  395 
//  396 /*********************************************************************
//  397  * @fn      zclSampleSw_ProcessCommissioningStatus
//  398  *
//  399  * @brief   Callback in which the status of the commissioning process are reported
//  400  *
//  401  * @param   bdbCommissioningModeMsg - Context message of the status of a commissioning process
//  402  *
//  403  * @return  none
//  404  */

        RSEG BANKED_CODE:HUGECODE:NOROOT(0)
//  405 static void zclSampleSw_ProcessCommissioningStatus(bdbCommissioningModeMsg_t *bdbCommissioningModeMsg)
zclSampleSw_ProcessCommissioningStatus:
          CFI Block cfiBlock3 Using cfiCommon0
          CFI Function zclSampleSw_ProcessCommissioningStatus
        CODE
//  406 {
        FUNCALL zclSampleSw_ProcessCommissioningStatus, bdb_StartCommissioning
        LOCFRAME ISTACK, 0, STACK
        LOCFRAME PSTACK, 0, STACK
        LOCFRAME XSTACK, 9, STACK
        LOCFRAME IOVERLAY, 0, STATIC
        LOCFRAME DOVERLAY, 0, STATIC
        ARGFRAME ISTACK, 0, STACK
        ARGFRAME PSTACK, 0, STACK
        ARGFRAME XSTACK, 9, STACK
        ARGFRAME IOVERLAY, 0, STATIC
        ARGFRAME DOVERLAY, 0, STATIC
        FUNCALL zclSampleSw_ProcessCommissioningStatus, osal_start_timerEx
        LOCFRAME ISTACK, 0, STACK
        LOCFRAME PSTACK, 0, STACK
        LOCFRAME XSTACK, 13, STACK
        LOCFRAME IOVERLAY, 0, STATIC
        LOCFRAME DOVERLAY, 0, STATIC
        ARGFRAME ISTACK, 0, STACK
        ARGFRAME PSTACK, 0, STACK
        ARGFRAME XSTACK, 13, STACK
        ARGFRAME IOVERLAY, 0, STATIC
        ARGFRAME DOVERLAY, 0, STATIC
        MOV       A,#-0x9
        LCALL     ?BANKED_ENTER_XDATA
          CFI DPH0 load(1, XDATA, add(CFA_XSP16, literal(-1)))
          CFI DPL0 load(1, XDATA, add(CFA_XSP16, literal(-2)))
          CFI ?BRET_EXT load(1, XDATA, add(CFA_XSP16, literal(-3)))
          CFI ?RET_HIGH load(1, XDATA, add(CFA_XSP16, literal(-4)))
          CFI ?RET_LOW load(1, XDATA, add(CFA_XSP16, literal(-5)))
          CFI R7 load(1, XDATA, add(CFA_XSP16, literal(-6)))
          CFI V0 load(1, XDATA, add(CFA_XSP16, literal(-7)))
          CFI VB load(1, XDATA, add(CFA_XSP16, literal(-8)))
          CFI R6 load(1, XDATA, add(CFA_XSP16, literal(-9)))
          CFI CFA_SP SP+0
          CFI CFA_XSP16 add(XSP16, 9)
        ; Saved register size: 9
        ; Auto size: 0
        MOV       A,R2
        MOV       R6,A
        MOV       A,R3
        MOV       R7,A
//  407   switch(bdbCommissioningModeMsg->bdbCommissioningMode)
        MOV       DPL,R6
        MOV       DPH,R7
        INC       DPTR
        MOVX      A,@DPTR
        JZ        ??zclSampleSw_ProcessCommissioningStatus_0
        DEC       A
        JZ        ??zclSampleSw_ProcessCommissioningStatus_0
        DEC       A
        JZ        ??zclSampleSw_ProcessCommissioningStatus_1
        DEC       A
        JZ        ??zclSampleSw_ProcessCommissioningStatus_0
        ADD       A,#-0x2
        JZ        ??zclSampleSw_ProcessCommissioningStatus_2
        SJMP      ??zclSampleSw_ProcessCommissioningStatus_0
//  408   {
//  409     case BDB_COMMISSIONING_FORMATION:
//  410       if(bdbCommissioningModeMsg->bdbCommissioningStatus == BDB_COMMISSIONING_SUCCESS)
??zclSampleSw_ProcessCommissioningStatus_1:
        MOV       DPL,R6
        MOV       DPH,R7
        MOVX      A,@DPTR
        JNZ       ??zclSampleSw_ProcessCommissioningStatus_0
//  411       {
//  412         //After formation, perform nwk steering again plus the remaining commissioning modes that has not been processed yet
//  413         bdb_StartCommissioning(BDB_COMMISSIONING_MODE_NWK_STEERING | bdbCommissioningModeMsg->bdbRemainingCommissioningModes);
        ; Setup parameters for call to function bdb_StartCommissioning
        MOV       DPL,R6
        MOV       DPH,R7
        INC       DPTR
        INC       DPTR
        MOVX      A,@DPTR
        ORL       A,#0x2
        MOV       R1,A
        LCALL     `??bdb_StartCommissioning::?relay`; Banked call to: bdb_StartCommissioning
//  414       }
//  415       else
//  416       {
//  417         //Want to try other channels?
//  418         //try with bdb_setChannelAttribute
//  419       }
//  420     break;
        SJMP      ??zclSampleSw_ProcessCommissioningStatus_0
//  421     case BDB_COMMISSIONING_NWK_STEERING:
//  422       if(bdbCommissioningModeMsg->bdbCommissioningStatus == BDB_COMMISSIONING_SUCCESS)
//  423       {
//  424         //YOUR JOB:
//  425         //We are on the nwk, what now?
//  426       }
//  427       else
//  428       {
//  429         //See the possible errors for nwk steering procedure
//  430         //No suitable networks found
//  431         //Want to try other channels?
//  432         //try with bdb_setChannelAttribute
//  433       }
//  434     break;
//  435     case BDB_COMMISSIONING_FINDING_BINDING:
//  436       if(bdbCommissioningModeMsg->bdbCommissioningStatus == BDB_COMMISSIONING_SUCCESS)
//  437       {
//  438         //YOUR JOB:
//  439       }
//  440       else
//  441       {
//  442         //YOUR JOB:
//  443         //retry?, wait for user interaction?
//  444       }
//  445     break;
//  446     case BDB_COMMISSIONING_INITIALIZATION:
//  447       //Initialization notification can only be successful. Failure on initialization 
//  448       //only happens for ZED and is notified as BDB_COMMISSIONING_PARENT_LOST notification
//  449       
//  450       //YOUR JOB:
//  451       //We are on a network, what now?
//  452       
//  453     break;
//  454 #if ZG_BUILD_ENDDEVICE_TYPE    
//  455     case BDB_COMMISSIONING_PARENT_LOST:
//  456       if(bdbCommissioningModeMsg->bdbCommissioningStatus == BDB_COMMISSIONING_NETWORK_RESTORED)
??zclSampleSw_ProcessCommissioningStatus_2:
        MOV       DPL,R6
        MOV       DPH,R7
        MOVX      A,@DPTR
        XRL       A,#0xd
        JZ        ??zclSampleSw_ProcessCommissioningStatus_0
//  457       {
//  458         //We did recover from losing parent
//  459       }
//  460       else
//  461       {
//  462         //Parent not found, attempt to rejoin again after a fixed delay
//  463         osal_start_timerEx(zclSampleSw_TaskID, SAMPLEAPP_END_DEVICE_REJOIN_EVT, SAMPLEAPP_END_DEVICE_REJOIN_DELAY);
        ; Setup parameters for call to function osal_start_timerEx
        MOV       DPTR,#__Constant_2710
        LCALL     ?PUSH_XSTACK8_X_FOUR
          CFI CFA_XSP16 add(XSP16, 13)
        MOV       R2,#0x1
        MOV       R3,#0x0
        MOV       DPTR,#zclSampleSw_TaskID
        MOVX      A,@DPTR
        MOV       R1,A
        LCALL     `??osal_start_timerEx::?relay`; Banked call to: osal_start_timerEx
        MOV       A,#0x4
        LCALL     ?DEALLOC_XSTACK8
          CFI CFA_XSP16 add(XSP16, 9)
        MOV       A,R1
//  464       }
//  465     break;
//  466 #endif 
//  467   }
//  468   
//  469 }
??zclSampleSw_ProcessCommissioningStatus_0:
        MOV       R7,#0x1
        LJMP      ?BANKED_LEAVE_XDATA
          CFI EndBlock cfiBlock3
//  470 
//  471 /*********************************************************************
//  472  * @fn      zclSampleSw_BasicResetCB
//  473  *
//  474  * @brief   Callback from the ZCL General Cluster Library
//  475  *          to set all the Basic Cluster attributes to  default values.
//  476  *
//  477  * @param   none
//  478  *
//  479  * @return  none
//  480  */

        RSEG BANKED_CODE:HUGECODE:NOROOT(0)
//  481 static void zclSampleSw_BasicResetCB( void )
zclSampleSw_BasicResetCB:
          CFI Block cfiBlock4 Using cfiCommon0
          CFI Function zclSampleSw_BasicResetCB
        CODE
//  482 {
        FUNCALL zclSampleSw_BasicResetCB, zclSampleSw_ResetAttributesToDefaultValues
        LOCFRAME ISTACK, 2, STACK
        LOCFRAME PSTACK, 0, STACK
        LOCFRAME XSTACK, 0, STACK
        LOCFRAME IOVERLAY, 0, STATIC
        LOCFRAME DOVERLAY, 0, STATIC
        ARGFRAME ISTACK, 2, STACK
        ARGFRAME PSTACK, 0, STACK
        ARGFRAME XSTACK, 0, STACK
        ARGFRAME IOVERLAY, 0, STATIC
        ARGFRAME DOVERLAY, 0, STATIC
        PUSH      DPL
          CFI DPL0 Frame(CFA_SP, 4)
          CFI CFA_SP SP+-4
        PUSH      DPH
          CFI DPH0 Frame(CFA_SP, 5)
          CFI CFA_SP SP+-5
        ; Saved register size: 2
        ; Auto size: 0
//  483   zclSampleSw_ResetAttributesToDefaultValues();
        ; Setup parameters for call to function zclSampleSw_ResetAttributesToDefaultValues
        LCALL     `??zclSampleSw_ResetAttributesToDefaultValues::?`; Banked call to: zclSampleSw_ResetAttributesToDefaultValues
//  484 }
        POP       DPH
          CFI DPH0 SameValue
          CFI CFA_SP SP+-4
        POP       DPL
          CFI DPL0 SameValue
          CFI CFA_SP SP+-3
        LJMP      ?BRET
          CFI EndBlock cfiBlock4
//  485 
//  486 /*********************************************************************
//  487  * @fn      zclSampleApp_BatteryWarningCB
//  488  *
//  489  * @brief   Called to handle battery-low situation.
//  490  *
//  491  * @param   voltLevel - level of severity
//  492  *
//  493  * @return  none
//  494  */

        RSEG BANKED_CODE:HUGECODE:NOROOT(0)
//  495 void zclSampleApp_BatteryWarningCB( uint8 voltLevel )
zclSampleApp_BatteryWarningCB:
          CFI Block cfiBlock5 Using cfiCommon0
          CFI Function zclSampleApp_BatteryWarningCB
        CODE
//  496 {
        ; Saved register size: 0
        ; Auto size: 0
//  497   if ( voltLevel == VOLT_LEVEL_CAUTIOUS )
        MOV       A,#0x1
        XRL       A,R1
//  498   {
//  499     // Send warning message to the gateway and blink LED
//  500   }
//  501   else if ( voltLevel == VOLT_LEVEL_BAD )
//  502   {
//  503     // Shut down the system
//  504   }
//  505 }
        LJMP      ?BRET
          CFI EndBlock cfiBlock5
//  506 
//  507 /******************************************************************************
//  508  *
//  509  *  Functions for processing ZCL Foundation incoming Command/Response messages
//  510  *
//  511  *****************************************************************************/
//  512 
//  513 /*********************************************************************
//  514  * @fn      zclSampleSw_ProcessIncomingMsg
//  515  *
//  516  * @brief   Process ZCL Foundation incoming message
//  517  *
//  518  * @param   pInMsg - pointer to the received message
//  519  *
//  520  * @return  none
//  521  */

        RSEG BANKED_CODE:HUGECODE:NOROOT(0)
//  522 static void zclSampleSw_ProcessIncomingMsg( zclIncomingMsg_t *pInMsg )
zclSampleSw_ProcessIncomingMsg:
          CFI Block cfiBlock6 Using cfiCommon0
          CFI Function zclSampleSw_ProcessIncomingMsg
        CODE
//  523 {
        FUNCALL zclSampleSw_ProcessIncomingMsg, zclSampleSw_ProcessInReadRspCmd
        LOCFRAME ISTACK, 0, STACK
        LOCFRAME PSTACK, 0, STACK
        LOCFRAME XSTACK, 9, STACK
        LOCFRAME IOVERLAY, 0, STATIC
        LOCFRAME DOVERLAY, 0, STATIC
        ARGFRAME ISTACK, 0, STACK
        ARGFRAME PSTACK, 0, STACK
        ARGFRAME XSTACK, 9, STACK
        ARGFRAME IOVERLAY, 0, STATIC
        ARGFRAME DOVERLAY, 0, STATIC
        FUNCALL zclSampleSw_ProcessIncomingMsg, zclSampleSw_ProcessInWriteRspCmd
        LOCFRAME ISTACK, 0, STACK
        LOCFRAME PSTACK, 0, STACK
        LOCFRAME XSTACK, 9, STACK
        LOCFRAME IOVERLAY, 0, STATIC
        LOCFRAME DOVERLAY, 0, STATIC
        ARGFRAME ISTACK, 0, STACK
        ARGFRAME PSTACK, 0, STACK
        ARGFRAME XSTACK, 9, STACK
        ARGFRAME IOVERLAY, 0, STATIC
        ARGFRAME DOVERLAY, 0, STATIC
        FUNCALL zclSampleSw_ProcessIncomingMsg, zclSampleSw_ProcessInDefaultRspCmd
        LOCFRAME ISTACK, 0, STACK
        LOCFRAME PSTACK, 0, STACK
        LOCFRAME XSTACK, 9, STACK
        LOCFRAME IOVERLAY, 0, STATIC
        LOCFRAME DOVERLAY, 0, STATIC
        ARGFRAME ISTACK, 0, STACK
        ARGFRAME PSTACK, 0, STACK
        ARGFRAME XSTACK, 9, STACK
        ARGFRAME IOVERLAY, 0, STATIC
        ARGFRAME DOVERLAY, 0, STATIC
        FUNCALL zclSampleSw_ProcessIncomingMsg, zclSampleSw_ProcessInDiscCmdsRspCmd
        LOCFRAME ISTACK, 0, STACK
        LOCFRAME PSTACK, 0, STACK
        LOCFRAME XSTACK, 9, STACK
        LOCFRAME IOVERLAY, 0, STATIC
        LOCFRAME DOVERLAY, 0, STATIC
        ARGFRAME ISTACK, 0, STACK
        ARGFRAME PSTACK, 0, STACK
        ARGFRAME XSTACK, 9, STACK
        ARGFRAME IOVERLAY, 0, STATIC
        ARGFRAME DOVERLAY, 0, STATIC
        FUNCALL zclSampleSw_ProcessIncomingMsg, zclSampleSw_ProcessInDiscCmdsRspCmd
        LOCFRAME ISTACK, 0, STACK
        LOCFRAME PSTACK, 0, STACK
        LOCFRAME XSTACK, 9, STACK
        LOCFRAME IOVERLAY, 0, STATIC
        LOCFRAME DOVERLAY, 0, STATIC
        ARGFRAME ISTACK, 0, STACK
        ARGFRAME PSTACK, 0, STACK
        ARGFRAME XSTACK, 9, STACK
        ARGFRAME IOVERLAY, 0, STATIC
        ARGFRAME DOVERLAY, 0, STATIC
        FUNCALL zclSampleSw_ProcessIncomingMsg, zclSampleSw_ProcessInDiscAttrsRspCmd
        LOCFRAME ISTACK, 0, STACK
        LOCFRAME PSTACK, 0, STACK
        LOCFRAME XSTACK, 9, STACK
        LOCFRAME IOVERLAY, 0, STATIC
        LOCFRAME DOVERLAY, 0, STATIC
        ARGFRAME ISTACK, 0, STACK
        ARGFRAME PSTACK, 0, STACK
        ARGFRAME XSTACK, 9, STACK
        ARGFRAME IOVERLAY, 0, STATIC
        ARGFRAME DOVERLAY, 0, STATIC
        FUNCALL zclSampleSw_ProcessIncomingMsg, zclSampleSw_ProcessInDiscAttrsExtRspCmd
        LOCFRAME ISTACK, 0, STACK
        LOCFRAME PSTACK, 0, STACK
        LOCFRAME XSTACK, 9, STACK
        LOCFRAME IOVERLAY, 0, STATIC
        LOCFRAME DOVERLAY, 0, STATIC
        ARGFRAME ISTACK, 0, STACK
        ARGFRAME PSTACK, 0, STACK
        ARGFRAME XSTACK, 9, STACK
        ARGFRAME IOVERLAY, 0, STATIC
        ARGFRAME DOVERLAY, 0, STATIC
        FUNCALL zclSampleSw_ProcessIncomingMsg, osal_mem_free
        LOCFRAME ISTACK, 0, STACK
        LOCFRAME PSTACK, 0, STACK
        LOCFRAME XSTACK, 9, STACK
        LOCFRAME IOVERLAY, 0, STATIC
        LOCFRAME DOVERLAY, 0, STATIC
        ARGFRAME ISTACK, 0, STACK
        ARGFRAME PSTACK, 0, STACK
        ARGFRAME XSTACK, 9, STACK
        ARGFRAME IOVERLAY, 0, STATIC
        ARGFRAME DOVERLAY, 0, STATIC
        MOV       A,#-0x9
        LCALL     ?BANKED_ENTER_XDATA
          CFI DPH0 load(1, XDATA, add(CFA_XSP16, literal(-1)))
          CFI DPL0 load(1, XDATA, add(CFA_XSP16, literal(-2)))
          CFI ?BRET_EXT load(1, XDATA, add(CFA_XSP16, literal(-3)))
          CFI ?RET_HIGH load(1, XDATA, add(CFA_XSP16, literal(-4)))
          CFI ?RET_LOW load(1, XDATA, add(CFA_XSP16, literal(-5)))
          CFI R7 load(1, XDATA, add(CFA_XSP16, literal(-6)))
          CFI V0 load(1, XDATA, add(CFA_XSP16, literal(-7)))
          CFI VB load(1, XDATA, add(CFA_XSP16, literal(-8)))
          CFI R6 load(1, XDATA, add(CFA_XSP16, literal(-9)))
          CFI CFA_SP SP+0
          CFI CFA_XSP16 add(XSP16, 9)
        ; Saved register size: 9
        ; Auto size: 0
        MOV       A,R2
        MOV       R6,A
        MOV       A,R3
        MOV       R7,A
//  524   switch ( pInMsg->zclHdr.commandID )
        MOV       DPL,R6
        MOV       DPH,R7
        INC       DPTR
        INC       DPTR
        INC       DPTR
        INC       DPTR
        INC       DPTR
        INC       DPTR
        INC       DPTR
        MOVX      A,@DPTR
        DEC       A
        JZ        ??zclSampleSw_ProcessIncomingMsg_0
        ADD       A,#-0x3
        JZ        ??zclSampleSw_ProcessIncomingMsg_1
        ADD       A,#-0x7
        JZ        ??zclSampleSw_ProcessIncomingMsg_2
        ADD       A,#-0x2
        JZ        ??zclSampleSw_ProcessIncomingMsg_3
        ADD       A,#-0x5
        JZ        ??zclSampleSw_ProcessIncomingMsg_4
        ADD       A,#-0x2
        JZ        ??zclSampleSw_ProcessIncomingMsg_5
        ADD       A,#-0x2
        JZ        ??zclSampleSw_ProcessIncomingMsg_6
        SJMP      ??zclSampleSw_ProcessIncomingMsg_7
//  525   {
//  526 #ifdef ZCL_READ
//  527     case ZCL_CMD_READ_RSP:
//  528       zclSampleSw_ProcessInReadRspCmd( pInMsg );
??zclSampleSw_ProcessIncomingMsg_0:
        ; Setup parameters for call to function zclSampleSw_ProcessInReadRspCmd
        MOV       A,R6
        MOV       R2,A
        MOV       A,R7
        MOV       R3,A
        LCALL     `??zclSampleSw_ProcessInReadRspCmd::?relay`; Banked call to: zclSampleSw_ProcessInReadRspCmd
        MOV       A,R1
//  529       break;
        SJMP      ??zclSampleSw_ProcessIncomingMsg_7
//  530 #endif
//  531 #ifdef ZCL_WRITE
//  532     case ZCL_CMD_WRITE_RSP:
//  533       zclSampleSw_ProcessInWriteRspCmd( pInMsg );
??zclSampleSw_ProcessIncomingMsg_1:
        ; Setup parameters for call to function zclSampleSw_ProcessInWriteRspCmd
        MOV       A,R6
        MOV       R2,A
        MOV       A,R7
        MOV       R3,A
        LCALL     `??zclSampleSw_ProcessInWriteRspCmd::?relay`; Banked call to: zclSampleSw_ProcessInWriteRspCmd
        MOV       A,R1
//  534       break;
        SJMP      ??zclSampleSw_ProcessIncomingMsg_7
//  535 #endif
//  536 #ifdef ZCL_REPORT
//  537     // See ZCL Test Applicaiton (zcl_testapp.c) for sample code on Attribute Reporting
//  538     case ZCL_CMD_CONFIG_REPORT:
//  539       //zclSampleSw_ProcessInConfigReportCmd( pInMsg );
//  540       break;
//  541 
//  542     case ZCL_CMD_CONFIG_REPORT_RSP:
//  543       //zclSampleSw_ProcessInConfigReportRspCmd( pInMsg );
//  544       break;
//  545 
//  546     case ZCL_CMD_READ_REPORT_CFG:
//  547       //zclSampleSw_ProcessInReadReportCfgCmd( pInMsg );
//  548       break;
//  549 
//  550     case ZCL_CMD_READ_REPORT_CFG_RSP:
//  551       //zclSampleSw_ProcessInReadReportCfgRspCmd( pInMsg );
//  552       break;
//  553 
//  554     case ZCL_CMD_REPORT:
//  555       zclSampleSw_ProcessInReportCmd( pInMsg );
//  556       break;
//  557 #endif
//  558     case ZCL_CMD_DEFAULT_RSP:
//  559       zclSampleSw_ProcessInDefaultRspCmd( pInMsg );
??zclSampleSw_ProcessIncomingMsg_2:
        ; Setup parameters for call to function zclSampleSw_ProcessInDefaultRspCmd
        MOV       A,R6
        MOV       R2,A
        MOV       A,R7
        MOV       R3,A
        LCALL     `??zclSampleSw_ProcessInDefaultRspCmd::?relay`; Banked call to: zclSampleSw_ProcessInDefaultRspCmd
        MOV       A,R1
//  560       break;
        SJMP      ??zclSampleSw_ProcessIncomingMsg_7
//  561 #ifdef ZCL_DISCOVER
//  562     case ZCL_CMD_DISCOVER_CMDS_RECEIVED_RSP:
//  563       zclSampleSw_ProcessInDiscCmdsRspCmd( pInMsg );
??zclSampleSw_ProcessIncomingMsg_4:
        ; Setup parameters for call to function zclSampleSw_ProcessInDiscCmdsRspCmd
        MOV       A,R6
        MOV       R2,A
        MOV       A,R7
        MOV       R3,A
        LCALL     `??zclSampleSw_ProcessInDiscCmdsRspCmd::?relay`; Banked call to: zclSampleSw_ProcessInDiscCmdsRspCmd
        MOV       A,R1
//  564       break;
        SJMP      ??zclSampleSw_ProcessIncomingMsg_7
//  565 
//  566     case ZCL_CMD_DISCOVER_CMDS_GEN_RSP:
//  567       zclSampleSw_ProcessInDiscCmdsRspCmd( pInMsg );
??zclSampleSw_ProcessIncomingMsg_5:
        ; Setup parameters for call to function zclSampleSw_ProcessInDiscCmdsRspCmd
        MOV       A,R6
        MOV       R2,A
        MOV       A,R7
        MOV       R3,A
        LCALL     `??zclSampleSw_ProcessInDiscCmdsRspCmd::?relay`; Banked call to: zclSampleSw_ProcessInDiscCmdsRspCmd
        MOV       A,R1
//  568       break;
        SJMP      ??zclSampleSw_ProcessIncomingMsg_7
//  569 
//  570     case ZCL_CMD_DISCOVER_ATTRS_RSP:
//  571       zclSampleSw_ProcessInDiscAttrsRspCmd( pInMsg );
??zclSampleSw_ProcessIncomingMsg_3:
        ; Setup parameters for call to function zclSampleSw_ProcessInDiscAttrsRspCmd
        MOV       A,R6
        MOV       R2,A
        MOV       A,R7
        MOV       R3,A
        LCALL     `??zclSampleSw_ProcessInDiscAttrsRspCmd::?relay`; Banked call to: zclSampleSw_ProcessInDiscAttrsRspCmd
        MOV       A,R1
//  572       break;
        SJMP      ??zclSampleSw_ProcessIncomingMsg_7
//  573 
//  574     case ZCL_CMD_DISCOVER_ATTRS_EXT_RSP:
//  575       zclSampleSw_ProcessInDiscAttrsExtRspCmd( pInMsg );
??zclSampleSw_ProcessIncomingMsg_6:
        ; Setup parameters for call to function zclSampleSw_ProcessInDiscAttrsExtRspCmd
        MOV       A,R6
        MOV       R2,A
        MOV       A,R7
        MOV       R3,A
        LCALL     `??zclSampleSw_ProcessInDiscAttrsExtRspCmd::?rel`; Banked call to: zclSampleSw_ProcessInDiscAttrsExtRspCmd
        MOV       A,R1
//  576       break;
//  577 #endif
//  578     default:
//  579       break;
//  580   }
//  581 
//  582   if ( pInMsg->attrCmd )
??zclSampleSw_ProcessIncomingMsg_7:
        MOV       A,R6
        ADD       A,#0x17
        MOV       DPL,A
        CLR       A
        ADDC      A,R7
        MOV       DPH,A
        MOVX      A,@DPTR
        MOV       R0,A
        INC       DPTR
        MOVX      A,@DPTR
        MOV       R1,A
        MOV       A,R0
        ORL       A,R1
        JZ        ??zclSampleSw_ProcessIncomingMsg_8
//  583     osal_mem_free( pInMsg->attrCmd );
        ; Setup parameters for call to function osal_mem_free
        MOV       A,R6
        ADD       A,#0x17
        MOV       DPL,A
        CLR       A
        ADDC      A,R7
        MOV       DPH,A
        MOVX      A,@DPTR
        MOV       R2,A
        INC       DPTR
        MOVX      A,@DPTR
        MOV       R3,A
        LCALL     `??osal_mem_free::?relay`; Banked call to: osal_mem_free
//  584 }
??zclSampleSw_ProcessIncomingMsg_8:
        MOV       R7,#0x1
        LJMP      ?BANKED_LEAVE_XDATA
          CFI EndBlock cfiBlock6
//  585 
//  586 #ifdef ZCL_READ
//  587 /*********************************************************************
//  588  * @fn      zclSampleSw_ProcessInReadRspCmd
//  589  *
//  590  * @brief   Process the "Profile" Read Response Command
//  591  *
//  592  * @param   pInMsg - incoming message to process
//  593  *
//  594  * @return  none
//  595  */

        RSEG BANKED_CODE:HUGECODE:NOROOT(0)
//  596 static uint8 zclSampleSw_ProcessInReadRspCmd( zclIncomingMsg_t *pInMsg )
zclSampleSw_ProcessInReadRspCmd:
          CFI Block cfiBlock7 Using cfiCommon0
          CFI Function zclSampleSw_ProcessInReadRspCmd
        CODE
//  597 {
        MOV       A,#-0x9
        LCALL     ?BANKED_ENTER_XDATA
          CFI DPH0 load(1, XDATA, add(CFA_XSP16, literal(-1)))
          CFI DPL0 load(1, XDATA, add(CFA_XSP16, literal(-2)))
          CFI ?BRET_EXT load(1, XDATA, add(CFA_XSP16, literal(-3)))
          CFI ?RET_HIGH load(1, XDATA, add(CFA_XSP16, literal(-4)))
          CFI ?RET_LOW load(1, XDATA, add(CFA_XSP16, literal(-5)))
          CFI R7 load(1, XDATA, add(CFA_XSP16, literal(-6)))
          CFI V0 load(1, XDATA, add(CFA_XSP16, literal(-7)))
          CFI VB load(1, XDATA, add(CFA_XSP16, literal(-8)))
          CFI R6 load(1, XDATA, add(CFA_XSP16, literal(-9)))
          CFI CFA_SP SP+0
          CFI CFA_XSP16 add(XSP16, 9)
        ; Saved register size: 9
        ; Auto size: 0
//  598   zclReadRspCmd_t *readRspCmd;
//  599   uint8 i;
//  600 
//  601   readRspCmd = (zclReadRspCmd_t *)pInMsg->attrCmd;
        MOV       A,R2
        ADD       A,#0x17
        MOV       DPL,A
        CLR       A
        ADDC      A,R3
        MOV       DPH,A
        MOVX      A,@DPTR
        MOV       R0,A
        INC       DPTR
        MOVX      A,@DPTR
        MOV       R1,A
        MOV       A,R0
        MOV       R6,A
        MOV       A,R1
        MOV       R7,A
//  602   for (i = 0; i < readRspCmd->numAttr; i++)
        MOV       R4,#0x0
??zclSampleSw_ProcessInReadRspCmd_0:
        MOV       DPL,R6
        MOV       DPH,R7
        MOVX      A,@DPTR
        MOV       R0,A
        MOV       A,R4
        CLR       C
        SUBB      A,R0
        JNC       ??zclSampleSw_ProcessInReadRspCmd_1
        INC       R4
        SJMP      ??zclSampleSw_ProcessInReadRspCmd_0
//  603   {
//  604     // Notify the originator of the results of the original read attributes
//  605     // attempt and, for each successfull request, the value of the requested
//  606     // attribute
//  607   }
//  608 
//  609   return TRUE;
??zclSampleSw_ProcessInReadRspCmd_1:
        MOV       R1,#0x1
        MOV       R7,#0x1
        LJMP      ?BANKED_LEAVE_XDATA
//  610 }
          CFI EndBlock cfiBlock7
//  611 #endif // ZCL_READ
//  612 
//  613 #ifdef ZCL_WRITE
//  614 /*********************************************************************
//  615  * @fn      zclSampleSw_ProcessInWriteRspCmd
//  616  *
//  617  * @brief   Process the "Profile" Write Response Command
//  618  *
//  619  * @param   pInMsg - incoming message to process
//  620  *
//  621  * @return  none
//  622  */

        RSEG BANKED_CODE:HUGECODE:NOROOT(0)
//  623 static uint8 zclSampleSw_ProcessInWriteRspCmd( zclIncomingMsg_t *pInMsg )
zclSampleSw_ProcessInWriteRspCmd:
          CFI Block cfiBlock8 Using cfiCommon0
          CFI Function zclSampleSw_ProcessInWriteRspCmd
        CODE
//  624 {
        MOV       A,#-0x9
        LCALL     ?BANKED_ENTER_XDATA
          CFI DPH0 load(1, XDATA, add(CFA_XSP16, literal(-1)))
          CFI DPL0 load(1, XDATA, add(CFA_XSP16, literal(-2)))
          CFI ?BRET_EXT load(1, XDATA, add(CFA_XSP16, literal(-3)))
          CFI ?RET_HIGH load(1, XDATA, add(CFA_XSP16, literal(-4)))
          CFI ?RET_LOW load(1, XDATA, add(CFA_XSP16, literal(-5)))
          CFI R7 load(1, XDATA, add(CFA_XSP16, literal(-6)))
          CFI V0 load(1, XDATA, add(CFA_XSP16, literal(-7)))
          CFI VB load(1, XDATA, add(CFA_XSP16, literal(-8)))
          CFI R6 load(1, XDATA, add(CFA_XSP16, literal(-9)))
          CFI CFA_SP SP+0
          CFI CFA_XSP16 add(XSP16, 9)
        ; Saved register size: 9
        ; Auto size: 0
//  625   zclWriteRspCmd_t *writeRspCmd;
//  626   uint8 i;
//  627 
//  628   writeRspCmd = (zclWriteRspCmd_t *)pInMsg->attrCmd;
        MOV       A,R2
        ADD       A,#0x17
        MOV       DPL,A
        CLR       A
        ADDC      A,R3
        MOV       DPH,A
        MOVX      A,@DPTR
        MOV       R0,A
        INC       DPTR
        MOVX      A,@DPTR
        MOV       R1,A
        MOV       A,R0
        MOV       R6,A
        MOV       A,R1
        MOV       R7,A
//  629   for (i = 0; i < writeRspCmd->numAttr; i++)
        MOV       R4,#0x0
??zclSampleSw_ProcessInWriteRspCmd_0:
        MOV       DPL,R6
        MOV       DPH,R7
        MOVX      A,@DPTR
        MOV       R0,A
        MOV       A,R4
        CLR       C
        SUBB      A,R0
        JNC       ??zclSampleSw_ProcessInWriteRspCmd_1
        INC       R4
        SJMP      ??zclSampleSw_ProcessInWriteRspCmd_0
//  630   {
//  631     // Notify the device of the results of the its original write attributes
//  632     // command.
//  633   }
//  634 
//  635   return TRUE;
??zclSampleSw_ProcessInWriteRspCmd_1:
        MOV       R1,#0x1
        MOV       R7,#0x1
        LJMP      ?BANKED_LEAVE_XDATA
//  636 }
          CFI EndBlock cfiBlock8
//  637 #endif // ZCL_WRITE
//  638 
//  639 /*********************************************************************
//  640  * @fn      zclSampleSw_ProcessInDefaultRspCmd
//  641  *
//  642  * @brief   Process the "Profile" Default Response Command
//  643  *
//  644  * @param   pInMsg - incoming message to process
//  645  *
//  646  * @return  none
//  647  */

        RSEG BANKED_CODE:HUGECODE:NOROOT(0)
//  648 static uint8 zclSampleSw_ProcessInDefaultRspCmd( zclIncomingMsg_t *pInMsg )
zclSampleSw_ProcessInDefaultRspCmd:
          CFI Block cfiBlock9 Using cfiCommon0
          CFI Function zclSampleSw_ProcessInDefaultRspCmd
        CODE
//  649 {
        ; Saved register size: 0
        ; Auto size: 0
//  650   // zclDefaultRspCmd_t *defaultRspCmd = (zclDefaultRspCmd_t *)pInMsg->attrCmd;
//  651   // Device is notified of the Default Response command.
//  652   (void)pInMsg;
//  653   return TRUE;
        MOV       R1,#0x1
        LJMP      ?BRET
//  654 }
          CFI EndBlock cfiBlock9
//  655 
//  656 #ifdef ZCL_DISCOVER
//  657 /*********************************************************************
//  658  * @fn      zclSampleSw_ProcessInDiscCmdsRspCmd
//  659  *
//  660  * @brief   Process the Discover Commands Response Command
//  661  *
//  662  * @param   pInMsg - incoming message to process
//  663  *
//  664  * @return  none
//  665  */

        RSEG BANKED_CODE:HUGECODE:NOROOT(0)
//  666 static uint8 zclSampleSw_ProcessInDiscCmdsRspCmd( zclIncomingMsg_t *pInMsg )
zclSampleSw_ProcessInDiscCmdsRspCmd:
          CFI Block cfiBlock10 Using cfiCommon0
          CFI Function zclSampleSw_ProcessInDiscCmdsRspCmd
        CODE
//  667 {
        MOV       A,#-0x9
        LCALL     ?BANKED_ENTER_XDATA
          CFI DPH0 load(1, XDATA, add(CFA_XSP16, literal(-1)))
          CFI DPL0 load(1, XDATA, add(CFA_XSP16, literal(-2)))
          CFI ?BRET_EXT load(1, XDATA, add(CFA_XSP16, literal(-3)))
          CFI ?RET_HIGH load(1, XDATA, add(CFA_XSP16, literal(-4)))
          CFI ?RET_LOW load(1, XDATA, add(CFA_XSP16, literal(-5)))
          CFI R7 load(1, XDATA, add(CFA_XSP16, literal(-6)))
          CFI V0 load(1, XDATA, add(CFA_XSP16, literal(-7)))
          CFI VB load(1, XDATA, add(CFA_XSP16, literal(-8)))
          CFI R6 load(1, XDATA, add(CFA_XSP16, literal(-9)))
          CFI CFA_SP SP+0
          CFI CFA_XSP16 add(XSP16, 9)
        ; Saved register size: 9
        ; Auto size: 0
//  668   zclDiscoverCmdsCmdRsp_t *discoverRspCmd;
//  669   uint8 i;
//  670 
//  671   discoverRspCmd = (zclDiscoverCmdsCmdRsp_t *)pInMsg->attrCmd;
        MOV       A,R2
        ADD       A,#0x17
        MOV       DPL,A
        CLR       A
        ADDC      A,R3
        MOV       DPH,A
        MOVX      A,@DPTR
        MOV       R0,A
        INC       DPTR
        MOVX      A,@DPTR
        MOV       R1,A
        MOV       A,R0
        MOV       R6,A
        MOV       A,R1
        MOV       R7,A
//  672   for ( i = 0; i < discoverRspCmd->numCmd; i++ )
        MOV       R4,#0x0
??zclSampleSw_ProcessInDiscCmdsRspCmd_0:
        MOV       DPL,R6
        MOV       DPH,R7
        INC       DPTR
        INC       DPTR
        MOVX      A,@DPTR
        MOV       R0,A
        MOV       A,R4
        CLR       C
        SUBB      A,R0
        JNC       ??zclSampleSw_ProcessInDiscCmdsRspCmd_1
        INC       R4
        SJMP      ??zclSampleSw_ProcessInDiscCmdsRspCmd_0
//  673   {
//  674     // Device is notified of the result of its attribute discovery command.
//  675   }
//  676 
//  677   return TRUE;
??zclSampleSw_ProcessInDiscCmdsRspCmd_1:
        MOV       R1,#0x1
        MOV       R7,#0x1
        LJMP      ?BANKED_LEAVE_XDATA
//  678 }
          CFI EndBlock cfiBlock10
//  679 
//  680 /*********************************************************************
//  681  * @fn      zclSampleSw_ProcessInDiscAttrsRspCmd
//  682  *
//  683  * @brief   Process the "Profile" Discover Attributes Response Command
//  684  *
//  685  * @param   pInMsg - incoming message to process
//  686  *
//  687  * @return  none
//  688  */

        RSEG BANKED_CODE:HUGECODE:NOROOT(0)
//  689 static uint8 zclSampleSw_ProcessInDiscAttrsRspCmd( zclIncomingMsg_t *pInMsg )
zclSampleSw_ProcessInDiscAttrsRspCmd:
          CFI Block cfiBlock11 Using cfiCommon0
          CFI Function zclSampleSw_ProcessInDiscAttrsRspCmd
        CODE
//  690 {
        MOV       A,#-0x9
        LCALL     ?BANKED_ENTER_XDATA
          CFI DPH0 load(1, XDATA, add(CFA_XSP16, literal(-1)))
          CFI DPL0 load(1, XDATA, add(CFA_XSP16, literal(-2)))
          CFI ?BRET_EXT load(1, XDATA, add(CFA_XSP16, literal(-3)))
          CFI ?RET_HIGH load(1, XDATA, add(CFA_XSP16, literal(-4)))
          CFI ?RET_LOW load(1, XDATA, add(CFA_XSP16, literal(-5)))
          CFI R7 load(1, XDATA, add(CFA_XSP16, literal(-6)))
          CFI V0 load(1, XDATA, add(CFA_XSP16, literal(-7)))
          CFI VB load(1, XDATA, add(CFA_XSP16, literal(-8)))
          CFI R6 load(1, XDATA, add(CFA_XSP16, literal(-9)))
          CFI CFA_SP SP+0
          CFI CFA_XSP16 add(XSP16, 9)
        ; Saved register size: 9
        ; Auto size: 0
//  691   zclDiscoverAttrsRspCmd_t *discoverRspCmd;
//  692   uint8 i;
//  693 
//  694   discoverRspCmd = (zclDiscoverAttrsRspCmd_t *)pInMsg->attrCmd;
        MOV       A,R2
        ADD       A,#0x17
        MOV       DPL,A
        CLR       A
        ADDC      A,R3
        MOV       DPH,A
        MOVX      A,@DPTR
        MOV       R0,A
        INC       DPTR
        MOVX      A,@DPTR
        MOV       R1,A
        MOV       A,R0
        MOV       R6,A
        MOV       A,R1
        MOV       R7,A
//  695   for ( i = 0; i < discoverRspCmd->numAttr; i++ )
        MOV       R4,#0x0
??zclSampleSw_ProcessInDiscAttrsRspCmd_0:
        MOV       DPL,R6
        MOV       DPH,R7
        INC       DPTR
        MOVX      A,@DPTR
        MOV       R0,A
        MOV       A,R4
        CLR       C
        SUBB      A,R0
        JNC       ??zclSampleSw_ProcessInDiscAttrsRspCmd_1
        INC       R4
        SJMP      ??zclSampleSw_ProcessInDiscAttrsRspCmd_0
//  696   {
//  697     // Device is notified of the result of its attribute discovery command.
//  698   }
//  699 
//  700   return TRUE;
??zclSampleSw_ProcessInDiscAttrsRspCmd_1:
        MOV       R1,#0x1
        MOV       R7,#0x1
        LJMP      ?BANKED_LEAVE_XDATA
//  701 }
          CFI EndBlock cfiBlock11
//  702 
//  703 /*********************************************************************
//  704  * @fn      zclSampleSw_ProcessInDiscAttrsExtRspCmd
//  705  *
//  706  * @brief   Process the "Profile" Discover Attributes Extended Response Command
//  707  *
//  708  * @param   pInMsg - incoming message to process
//  709  *
//  710  * @return  none
//  711  */

        RSEG BANKED_CODE:HUGECODE:NOROOT(0)
//  712 static uint8 zclSampleSw_ProcessInDiscAttrsExtRspCmd( zclIncomingMsg_t *pInMsg )
zclSampleSw_ProcessInDiscAttrsExtRspCmd:
          CFI Block cfiBlock12 Using cfiCommon0
          CFI Function zclSampleSw_ProcessInDiscAttrsExtRspCmd
        CODE
//  713 {
        MOV       A,#-0x9
        LCALL     ?BANKED_ENTER_XDATA
          CFI DPH0 load(1, XDATA, add(CFA_XSP16, literal(-1)))
          CFI DPL0 load(1, XDATA, add(CFA_XSP16, literal(-2)))
          CFI ?BRET_EXT load(1, XDATA, add(CFA_XSP16, literal(-3)))
          CFI ?RET_HIGH load(1, XDATA, add(CFA_XSP16, literal(-4)))
          CFI ?RET_LOW load(1, XDATA, add(CFA_XSP16, literal(-5)))
          CFI R7 load(1, XDATA, add(CFA_XSP16, literal(-6)))
          CFI V0 load(1, XDATA, add(CFA_XSP16, literal(-7)))
          CFI VB load(1, XDATA, add(CFA_XSP16, literal(-8)))
          CFI R6 load(1, XDATA, add(CFA_XSP16, literal(-9)))
          CFI CFA_SP SP+0
          CFI CFA_XSP16 add(XSP16, 9)
        ; Saved register size: 9
        ; Auto size: 0
//  714   zclDiscoverAttrsExtRsp_t *discoverRspCmd;
//  715   uint8 i;
//  716 
//  717   discoverRspCmd = (zclDiscoverAttrsExtRsp_t *)pInMsg->attrCmd;
        MOV       A,R2
        ADD       A,#0x17
        MOV       DPL,A
        CLR       A
        ADDC      A,R3
        MOV       DPH,A
        MOVX      A,@DPTR
        MOV       R0,A
        INC       DPTR
        MOVX      A,@DPTR
        MOV       R1,A
        MOV       A,R0
        MOV       R6,A
        MOV       A,R1
        MOV       R7,A
//  718   for ( i = 0; i < discoverRspCmd->numAttr; i++ )
        MOV       R4,#0x0
??zclSampleSw_ProcessInDiscAttrsExtRspCmd_0:
        MOV       DPL,R6
        MOV       DPH,R7
        INC       DPTR
        MOVX      A,@DPTR
        MOV       R0,A
        MOV       A,R4
        CLR       C
        SUBB      A,R0
        JNC       ??zclSampleSw_ProcessInDiscAttrsExtRspCmd_1
        INC       R4
        SJMP      ??zclSampleSw_ProcessInDiscAttrsExtRspCmd_0
//  719   {
//  720     // Device is notified of the result of its attribute discovery command.
//  721   }
//  722 
//  723   return TRUE;
??zclSampleSw_ProcessInDiscAttrsExtRspCmd_1:
        MOV       R1,#0x1
        MOV       R7,#0x1
        LJMP      ?BANKED_LEAVE_XDATA
//  724 }
          CFI EndBlock cfiBlock12

        RSEG XDATA_ID:CODE:NOROOT(0)
`?<Initializer for zclSampleSw_OnOffSwitchType>`:
        DATA8
        DB 1

        RSEG XDATA_ID:CODE:NOROOT(0)
`?<Initializer for zclSampleSw_NwkState>`:
        DATA8
        DB 1

        RSEG XDATA_ID:CODE:NOROOT(0)
`?<Initializer for zclSampleSw_CmdCallbacks>`:
        DATA16
        DW `??zclSampleSw_BasicResetCB::?relay`
        DW 0H
        DW 0H
        DW 0H
        DW 0H
        DW 0H
        DW 0H
        DW 0H
        DW 0H

        RSEG XDATA_ROM_C:CONST:REORDER:NOROOT(0)
        DATA32
__Constant_9c4:
        DD 2500

        RSEG XDATA_ROM_C:CONST:REORDER:NOROOT(0)
        DATA32
__Constant_2710:
        DD 10000

        RSEG BANK_RELAYS:CODE:REORDER:NOROOT(0)
`??zclSampleSw_Init::?relay`:
        CODE
        LCALL   ?BDISPATCH
        DATA24
        DC24    zclSampleSw_Init

        RSEG BANK_RELAYS:CODE:REORDER:NOROOT(0)
`??zclSampleSw_event_loop::?relay`:
        CODE
        LCALL   ?BDISPATCH
        DATA24
        DC24    zclSampleSw_event_loop

        RSEG BANK_RELAYS:CODE:REORDER:NOROOT(0)
`??zclSampleSw_HandleKeys::?relay`:
        CODE
        LCALL   ?BDISPATCH
        DATA24
        DC24    zclSampleSw_HandleKeys

        RSEG BANK_RELAYS:CODE:REORDER:NOROOT(0)
`??zclSampleSw_ProcessCommissioningStatus::?rela`:
        CODE
        LCALL   ?BDISPATCH
        DATA24
        DC24    zclSampleSw_ProcessCommissioningStatus

        RSEG BANK_RELAYS:CODE:REORDER:NOROOT(0)
`??zclSampleSw_BasicResetCB::?relay`:
        CODE
        LCALL   ?BDISPATCH
        DATA24
        DC24    zclSampleSw_BasicResetCB

        RSEG BANK_RELAYS:CODE:REORDER:NOROOT(0)
`??zclSampleApp_BatteryWarningCB::?relay`:
        CODE
        LCALL   ?BDISPATCH
        DATA24
        DC24    zclSampleApp_BatteryWarningCB

        RSEG BANK_RELAYS:CODE:REORDER:NOROOT(0)
`??zclSampleSw_ProcessIncomingMsg::?relay`:
        CODE
        LCALL   ?BDISPATCH
        DATA24
        DC24    zclSampleSw_ProcessIncomingMsg

        RSEG BANK_RELAYS:CODE:REORDER:NOROOT(0)
`??zclSampleSw_ProcessInReadRspCmd::?relay`:
        CODE
        LCALL   ?BDISPATCH
        DATA24
        DC24    zclSampleSw_ProcessInReadRspCmd

        RSEG BANK_RELAYS:CODE:REORDER:NOROOT(0)
`??zclSampleSw_ProcessInWriteRspCmd::?relay`:
        CODE
        LCALL   ?BDISPATCH
        DATA24
        DC24    zclSampleSw_ProcessInWriteRspCmd

        RSEG BANK_RELAYS:CODE:REORDER:NOROOT(0)
`??zclSampleSw_ProcessInDefaultRspCmd::?relay`:
        CODE
        LCALL   ?BDISPATCH
        DATA24
        DC24    zclSampleSw_ProcessInDefaultRspCmd

        RSEG BANK_RELAYS:CODE:REORDER:NOROOT(0)
`??zclSampleSw_ProcessInDiscCmdsRspCmd::?relay`:
        CODE
        LCALL   ?BDISPATCH
        DATA24
        DC24    zclSampleSw_ProcessInDiscCmdsRspCmd

        RSEG BANK_RELAYS:CODE:REORDER:NOROOT(0)
`??zclSampleSw_ProcessInDiscAttrsRspCmd::?relay`:
        CODE
        LCALL   ?BDISPATCH
        DATA24
        DC24    zclSampleSw_ProcessInDiscAttrsRspCmd

        RSEG BANK_RELAYS:CODE:REORDER:NOROOT(0)
`??zclSampleSw_ProcessInDiscAttrsExtRspCmd::?rel`:
        CODE
        LCALL   ?BDISPATCH
        DATA24
        DC24    zclSampleSw_ProcessInDiscAttrsExtRspCmd

        END
//  725 #endif // ZCL_DISCOVER
//  726 
//  727 #if defined (OTA_CLIENT) && (OTA_CLIENT == TRUE)
//  728 /*********************************************************************
//  729  * @fn      zclSampleSw_ProcessOTAMsgs
//  730  *
//  731  * @brief   Called to process callbacks from the ZCL OTA.
//  732  *
//  733  * @param   none
//  734  *
//  735  * @return  none
//  736  */
//  737 static void zclSampleSw_ProcessOTAMsgs( zclOTA_CallbackMsg_t* pMsg )
//  738 {
//  739   uint8 RxOnIdle;
//  740 
//  741   switch(pMsg->ota_event)
//  742   {
//  743   case ZCL_OTA_START_CALLBACK:
//  744     if (pMsg->hdr.status == ZSuccess)
//  745     {
//  746       // Speed up the poll rate
//  747       RxOnIdle = TRUE;
//  748       ZMacSetReq( ZMacRxOnIdle, &RxOnIdle );
//  749       NLME_SetPollRate( 2000 );
//  750     }
//  751     break;
//  752 
//  753   case ZCL_OTA_DL_COMPLETE_CALLBACK:
//  754     if (pMsg->hdr.status == ZSuccess)
//  755     {
//  756       // Reset the CRC Shadow and reboot.  The bootloader will see the
//  757       // CRC shadow has been cleared and switch to the new image
//  758       HalOTAInvRC();
//  759       SystemReset();
//  760     }
//  761     else
//  762     {
//  763 #if (ZG_BUILD_ENDDEVICE_TYPE)    
//  764       // slow the poll rate back down.
//  765       RxOnIdle = FALSE;
//  766       ZMacSetReq( ZMacRxOnIdle, &RxOnIdle );
//  767       NLME_SetPollRate(DEVICE_POLL_RATE);
//  768 #endif
//  769     }
//  770     break;
//  771 
//  772   default:
//  773     break;
//  774   }
//  775 }
//  776 #endif // defined (OTA_CLIENT) && (OTA_CLIENT == TRUE)
//  777 
//  778 /****************************************************************************
//  779 ****************************************************************************/
// 
// 897 bytes in segment BANKED_CODE
//  78 bytes in segment BANK_RELAYS
//  20 bytes in segment XDATA_I
//  20 bytes in segment XDATA_ID
//   8 bytes in segment XDATA_ROM_C
//  29 bytes in segment XDATA_Z
// 
//  98 bytes of CODE     memory
//   0 bytes of CONST    memory (+ 8 bytes shared)
// 897 bytes of HUGECODE memory
//  49 bytes of XDATA    memory
//
//Errors: none
//Warnings: none
