###############################################################################
#
# IAR C/C++ Compiler V10.30.1.6000 for 8051               31/Jul/2020  11:47:32
# Copyright 2004-2018 IAR Systems AB.
# PC-locked license - IAR Embedded Workbench for 8051
#
#    Core               =  plain
#    Code model         =  banked
#    Data model         =  large
#    Calling convention =  xdata reentrant
#    Constant location  =  data_rom
#    Dptr setup         =  1,16
#                          
#    Source file        =  D:\AA\Z-Stack 3.0.2\Components\stack\zdo\ZDObject.c
#    Command line       =  
#        -f C:\Users\sunli\AppData\Local\Temp\EWE58B.tmp ("D:\AA\Z-Stack
#        3.0.2\Components\stack\zdo\ZDObject.c" -D SECURE=1 -D TC_LINKKEY_JOIN
#        -D NV_INIT -D NV_RESTORE -D POWER_SAVING -D NWK_AUTO_POLL -D xZTOOL_P1
#        -D xMT_TASK -D xMT_APP_FUNC -D xMT_SYS_FUNC -D xMT_ZDO_FUNC -D
#        xMT_ZDO_MGMT -D xMT_APP_CNF_FUNC -D LCD_SUPPORTED=DEBUG -D
#        MULTICAST_ENABLED=FALSE -D ZCL_READ -D ZCL_DISCOVER -D ZCL_WRITE -D
#        ZCL_BASIC -D ZCL_IDENTIFY -D ZCL_ON_OFF -D ZCL_GROUPS -D
#        BDB_TL_INITIATOR -D INTER_PAN -lC "D:\AA\Z-Stack
#        3.0.2\Projects\zstack\HomeAutomation\SampleSwitch\CC2530DB\EndDeviceEB\List"
#        -lA "D:\AA\Z-Stack
#        3.0.2\Projects\zstack\HomeAutomation\SampleSwitch\CC2530DB\EndDeviceEB\List"
#        --diag_suppress Pe001,Pa010 -o "D:\AA\Z-Stack
#        3.0.2\Projects\zstack\HomeAutomation\SampleSwitch\CC2530DB\EndDeviceEB\Obj"
#        -e --debug --core=plain --dptr=16,1 --data_model=large
#        --code_model=banked --calling_convention=xdata_reentrant
#        --place_constants=data_rom --nr_virtual_regs 16 -f "D:\AA\Z-Stack
#        3.0.2\Projects\zstack\HomeAutomation\SampleSwitch\CC2530DB\..\..\..\Tools\CC2530DB\f8wEndev.cfg"
#        (-DCPU32MHZ -DROOT=__near_func -DMAC_CFG_TX_DATA_MAX=3
#        -DMAC_CFG_TX_MAX=6 -DMAC_CFG_RX_MAX=3) -f "D:\AA\Z-Stack
#        3.0.2\Projects\zstack\HomeAutomation\SampleSwitch\CC2530DB\..\..\..\Tools\CC2530DB\f8wConfig.cfg"
#        (-DZIGBEEPRO -DSECURE=1 -DZG_SECURE_DYNAMIC=0 -DREFLECTOR
#        -DDEFAULT_CHANLIST=0x00000800 -DZDAPP_CONFIG_PAN_ID=0xFFFF
#        -DNWK_START_DELAY=100 -DEXTENDED_JOINING_RANDOM_MASK=0x007F
#        -DBEACON_REQUEST_DELAY=100 -DBEACON_REQ_DELAY_MASK=0x00FF
#        -DLINK_STATUS_JITTER_MASK=0x007F -DROUTE_EXPIRY_TIME=30
#        -DAPSC_ACK_WAIT_DURATION_POLLED=3000 -DNWK_INDIRECT_MSG_TIMEOUT=7
#        -DMAX_RREQ_ENTRIES=8 -DAPSC_MAX_FRAME_RETRIES=3
#        -DNWK_MAX_DATA_RETRIES=2 -DMAX_POLL_FAILURE_RETRIES=2 -DMAX_BCAST=9
#        -DAPS_MAX_GROUPS=16 -DMAX_RTG_ENTRIES=40 -DNWK_MAX_BINDING_ENTRIES=4
#        -DMAX_BINDING_CLUSTER_IDS=4 -DDEFAULT_KEY={0} -DMAC_MAX_FRAME_SIZE=116
#        -DZDNWKMGR_MIN_TRANSMISSIONS=20 "-DCONST=const __code"
#        -DGENERIC=__generic -DRFD_RCVC_ALWAYS_ON=FALSE -DPOLL_RATE=1000
#        -DQUEUED_POLL_RATE=100 -DRESPONSE_POLL_RATE=100 -DREJOIN_POLL_RATE=440
#        -DREJOIN_BACKOFF=900000 -DREJOIN_SCAN=900000 -DENABLE_LED4_DISABLE_S1)
#        -f "D:\AA\Z-Stack
#        3.0.2\Projects\zstack\HomeAutomation\SampleSwitch\CC2530DB\..\..\..\Tools\CC2530DB\f8wZCL.cfg"
#        -I "D:\AA\Z-Stack
#        3.0.2\Projects\zstack\HomeAutomation\SampleSwitch\CC2530DB\" -I
#        "D:\AA\Z-Stack
#        3.0.2\Projects\zstack\HomeAutomation\SampleSwitch\CC2530DB\..\Source\"
#        -I "D:\AA\Z-Stack
#        3.0.2\Projects\zstack\HomeAutomation\SampleSwitch\CC2530DB\..\..\Source\"
#        -I "D:\AA\Z-Stack
#        3.0.2\Projects\zstack\HomeAutomation\SampleSwitch\CC2530DB\..\..\..\ZMain\TI2530DB\"
#        -I "D:\AA\Z-Stack
#        3.0.2\Projects\zstack\HomeAutomation\SampleSwitch\CC2530DB\..\..\..\..\..\Components\hal\include\"
#        -I "D:\AA\Z-Stack
#        3.0.2\Projects\zstack\HomeAutomation\SampleSwitch\CC2530DB\..\..\..\..\..\Components\hal\target\CC2530EB\"
#        -I "D:\AA\Z-Stack
#        3.0.2\Projects\zstack\HomeAutomation\SampleSwitch\CC2530DB\..\..\..\..\..\Components\mac\include\"
#        -I "D:\AA\Z-Stack
#        3.0.2\Projects\zstack\HomeAutomation\SampleSwitch\CC2530DB\..\..\..\..\..\Components\mac\high_level\"
#        -I "D:\AA\Z-Stack
#        3.0.2\Projects\zstack\HomeAutomation\SampleSwitch\CC2530DB\..\..\..\..\..\Components\mac\low_level\srf04\"
#        -I "D:\AA\Z-Stack
#        3.0.2\Projects\zstack\HomeAutomation\SampleSwitch\CC2530DB\..\..\..\..\..\Components\mac\low_level\srf04\single_chip\"
#        -I "D:\AA\Z-Stack
#        3.0.2\Projects\zstack\HomeAutomation\SampleSwitch\CC2530DB\..\..\..\..\..\Components\mt\"
#        -I "D:\AA\Z-Stack
#        3.0.2\Projects\zstack\HomeAutomation\SampleSwitch\CC2530DB\..\..\..\..\..\Components\osal\include\"
#        -I "D:\AA\Z-Stack
#        3.0.2\Projects\zstack\HomeAutomation\SampleSwitch\CC2530DB\..\..\..\..\..\Components\services\saddr\"
#        -I "D:\AA\Z-Stack
#        3.0.2\Projects\zstack\HomeAutomation\SampleSwitch\CC2530DB\..\..\..\..\..\Components\services\sdata\"
#        -I "D:\AA\Z-Stack
#        3.0.2\Projects\zstack\HomeAutomation\SampleSwitch\CC2530DB\..\..\..\..\..\Components\stack\af\"
#        -I "D:\AA\Z-Stack
#        3.0.2\Projects\zstack\HomeAutomation\SampleSwitch\CC2530DB\..\..\..\..\..\Components\stack\bdb\"
#        -I "D:\AA\Z-Stack
#        3.0.2\Projects\zstack\HomeAutomation\SampleSwitch\CC2530DB\..\..\..\..\..\Components\stack\gp\"
#        -I "D:\AA\Z-Stack
#        3.0.2\Projects\zstack\HomeAutomation\SampleSwitch\CC2530DB\..\..\..\..\..\Components\stack\nwk\"
#        -I "D:\AA\Z-Stack
#        3.0.2\Projects\zstack\HomeAutomation\SampleSwitch\CC2530DB\..\..\..\..\..\Components\stack\sapi\"
#        -I "D:\AA\Z-Stack
#        3.0.2\Projects\zstack\HomeAutomation\SampleSwitch\CC2530DB\..\..\..\..\..\Components\stack\sec\"
#        -I "D:\AA\Z-Stack
#        3.0.2\Projects\zstack\HomeAutomation\SampleSwitch\CC2530DB\..\..\..\..\..\Components\stack\sys\"
#        -I "D:\AA\Z-Stack
#        3.0.2\Projects\zstack\HomeAutomation\SampleSwitch\CC2530DB\..\..\..\..\..\Components\stack\zcl\"
#        -I "D:\AA\Z-Stack
#        3.0.2\Projects\zstack\HomeAutomation\SampleSwitch\CC2530DB\..\..\..\..\..\Components\stack\zdo\"
#        -I "D:\AA\Z-Stack
#        3.0.2\Projects\zstack\HomeAutomation\SampleSwitch\CC2530DB\..\..\..\..\..\Components\zmac\"
#        -I "D:\AA\Z-Stack
#        3.0.2\Projects\zstack\HomeAutomation\SampleSwitch\CC2530DB\..\..\..\..\..\Components\zmac\f8w\"
#        -On --require_prototypes --no_cse --no_unroll --no_inline
#        --no_code_motion --no_tbaa --no_cross_call)
#    Locale             =  Chinese (Simplified)_CHN.936
#    List file          =  
#        D:\AA\Z-Stack
#        3.0.2\Projects\zstack\HomeAutomation\SampleSwitch\CC2530DB\EndDeviceEB\List\ZDObject.lst
#    Object file        =  
#        D:\AA\Z-Stack
#        3.0.2\Projects\zstack\HomeAutomation\SampleSwitch\CC2530DB\EndDeviceEB\Obj\ZDObject.r51
#
###############################################################################

D:\AA\Z-Stack 3.0.2\Components\stack\zdo\ZDObject.c
      1          /**************************************************************************************************
      2            Filename:       ZDObject.c
      3            Revised:        $Date: 2015-10-01 15:01:50 -0700 (Thu, 01 Oct 2015) $
      4            Revision:       $Revision: 44513 $
      5          
      6            Description:    This is the Zigbee Device Object.
      7          
      8          
      9            Copyright 2004-2015 Texas Instruments Incorporated. All rights reserved.
     10          
     11            IMPORTANT: Your use of this Software is limited to those specific rights
     12            granted under the terms of a software license agreement between the user
     13            who downloaded the software, his/her employer (which must be your employer)
     14            and Texas Instruments Incorporated (the "License"). You may not use this
     15            Software unless you agree to abide by the terms of the License. The License
     16            limits your use, and you acknowledge, that the Software may not be modified,
     17            copied or distributed unless embedded on a Texas Instruments microcontroller
     18            or used solely and exclusively in conjunction with a Texas Instruments radio
     19            frequency transceiver, which is integrated into your product. Other than for
     20            the foregoing purpose, you may not use, reproduce, copy, prepare derivative
     21            works of, modify, distribute, perform, display or sell this Software and/or
     22            its documentation for any purpose.
     23          
     24            YOU FURTHER ACKNOWLEDGE AND AGREE THAT THE SOFTWARE AND DOCUMENTATION ARE
     25            PROVIDED "AS IS" WITHOUT WARRANTY OF ANY KIND, EITHER EXPRESS OR IMPLIED,
     26            INCLUDING WITHOUT LIMITATION, ANY WARRANTY OF MERCHANTABILITY, TITLE,
     27            NON-INFRINGEMENT AND FITNESS FOR A PARTICULAR PURPOSE. IN NO EVENT SHALL
     28            TEXAS INSTRUMENTS OR ITS LICENSORS BE LIABLE OR OBLIGATED UNDER CONTRACT,
     29            NEGLIGENCE, STRICT LIABILITY, CONTRIBUTION, BREACH OF WARRANTY, OR OTHER
     30            LEGAL EQUITABLE THEORY ANY DIRECT OR INDIRECT DAMAGES OR EXPENSES
     31            INCLUDING BUT NOT LIMITED TO ANY INCIDENTAL, SPECIAL, INDIRECT, PUNITIVE
     32            OR CONSEQUENTIAL DAMAGES, LOST PROFITS OR LOST DATA, COST OF PROCUREMENT
     33            OF SUBSTITUTE GOODS, TECHNOLOGY, SERVICES, OR ANY CLAIMS BY THIRD PARTIES
     34            (INCLUDING BUT NOT LIMITED TO ANY DEFENSE THEREOF), OR OTHER SIMILAR COSTS.
     35          
     36            Should you have any questions regarding your right to use this Software,
     37            contact Texas Instruments Incorporated at www.TI.com.
     38          **************************************************************************************************/
     39          
     40          /*********************************************************************
     41           * INCLUDES
     42           */
     43          #include "ZComDef.h"
     44          #include "OSAL.h"
     45          #include "OSAL_Nv.h"
     46          #include "rtg.h"
     47          #include "NLMEDE.h"
     48          #include "nwk_globals.h"
     49          #include "APS.h"
     50          #include "APSMEDE.h"
     51          #include "AssocList.h"
     52          #include "BindingTable.h"
     53          #include "AddrMgr.h"
     54          #include "AF.h"
     55          #include "ZDObject.h"
     56          #include "ZDProfile.h"
     57          #include "ZDConfig.h"
     58          #include "ZDSecMgr.h"
     59          #include "ZDApp.h"
     60          #include "nwk_util.h"   // NLME_IsAddressBroadcast()
     61          #include "ZGlobals.h"
     62          #if defined MT_ZDO_CB_FUNC
     63          #include "MT.h"
     64          #endif
     65          
     66          #include "bdb.h"
     67          
     68          #if !defined (DISABLE_GREENPOWER_BASIC_PROXY) && (ZG_BUILD_RTR_TYPE)
     69          #include "gp_common.h"
     70          #endif
     71           
     72          #if defined( LCD_SUPPORTED )
     73            #include "OnBoard.h"
     74          #endif
     75          
     76          /* HAL */
     77          #include "hal_lcd.h"
     78          
     79          /*********************************************************************
     80           * MACROS
     81           */
     82          
     83          /*********************************************************************
     84           * CONSTANTS
     85           */
     86          // NLME Stub Implementations
     87          #define ZDO_ProcessMgmtPermitJoinTimeout NLME_PermitJoiningTimeout
     88          
     89          /*********************************************************************
     90           * TYPEDEFS
     91           */
     92          #if defined ( REFLECTOR )
     93          typedef struct
     94          {
     95            byte SrcTransSeq;
     96            zAddrType_t SrcAddr;
     97            uint16 LocalCoordinator;
     98            byte epIntf;
     99            uint16 ProfileID;
    100            byte numInClusters;
    101            uint16 *inClusters;
    102            byte numOutClusters;
    103            uint16 *outClusters;
    104            byte SecurityUse;
    105            byte status;
    106          } ZDO_EDBind_t;
    107          #endif // defined ( REFLECTOR )
    108          
    109          enum
    110          {
    111            ZDMATCH_INIT,           // Initialized
    112            ZDMATCH_WAIT_REQ,       // Received first request, waiting for second
    113            ZDMATCH_SENDING_BINDS   // Received both requests, sending unbind/binds
    114          };
    115          
    116          enum
    117          {
    118            ZDMATCH_SENDING_NOT,
    119            ZDMATCH_SENDING_UNBIND,
    120            ZDMATCH_SENDING_BIND
    121          };
    122          
    123          /*********************************************************************
    124           * GLOBAL VARIABLES
    125           */
    126          
    127          /*********************************************************************
    128           * EXTERNAL VARIABLES
    129           */
    130          
    131          extern bool  requestNewTrustCenterLinkKey;   
    132             
    133          /*********************************************************************
    134           * EXTERNAL FUNCTIONS
    135           */
    136          
    137          /*********************************************************************
    138           * LOCAL VARIABLES
    139           */

   \                                 In  segment XDATA_Z, align 1, keep-with-next
    140          static uint16 ZDOBuildBuf[26];  // temp area to build data without allocation
   \                     ZDOBuildBuf:
   \   000000                DS 52
   \   000034                REQUIRE __INIT_XDATA_Z
    141          
    142          #if defined ( REFLECTOR )

   \                                 In  segment XDATA_Z, align 1, keep-with-next
    143          static ZDO_EDBind_t *ZDO_EDBind;     // Null when not used
   \                     ZDO_EDBind:
   \   000000                DS 2
   \   000002                REQUIRE __INIT_XDATA_Z
    144          #endif
    145          
    146          #if defined ( MANAGED_SCAN )
    147            uint32 managedScanNextChannel = 0;
    148            uint32 managedScanChannelMask = 0;
    149            uint8  managedScanTimesPerChannel = 0;
    150          #endif
    151          

   \                                 In  segment XDATA_Z, align 1, keep-with-next
    152          ZDMatchEndDeviceBind_t *matchED = (ZDMatchEndDeviceBind_t *)NULL;
   \                     matchED:
   \   000000                DS 2
   \   000002                REQUIRE __INIT_XDATA_Z
    153          

   \                                 In  segment XDATA_Z, align 1, keep-with-next
    154          uint32 apsChannelMask = 0;
   \                     apsChannelMask:
   \   000000                DS 4
   \   000004                REQUIRE __INIT_XDATA_Z
    155          

   \                                 In  segment XDATA_I, align 1, keep-with-next
    156          int16 zdpExternalStateTaskID = -1;
   \                     zdpExternalStateTaskID:
   \   000000                DS 2
   \   000002                REQUIRE `?<Initializer for zdpExternalStateTaskID>`
   \   000002                REQUIRE __INIT_XDATA_I
    157          
    158          /*********************************************************************
    159           * LOCAL FUNCTIONS
    160           */
    161          static void ZDODeviceSetup( void );
    162          #if defined ( MANAGED_SCAN )
    163            static void ZDOManagedScan_Next( void );
    164          #endif
    165          #if defined ( REFLECTOR )
    166            static void ZDO_RemoveEndDeviceBind( void );
    167            static void ZDO_SendEDBindRsp( byte TransSeq, zAddrType_t *dstAddr, byte Status, byte secUse );
    168          #endif
    169          #if ( ZG_BUILD_COORDINATOR_TYPE )
    170            static byte ZDO_CompareClusterLists( byte numList1, uint16 *list1,
    171                                                 byte numList2, uint16 *list2, uint16 *pMatches );
    172            static void ZDO_RemoveMatchMemory( void );
    173            static uint8 ZDO_CopyMatchInfo( ZDEndDeviceBind_t *destReq, ZDEndDeviceBind_t *srcReq );
    174            static void ZDO_EndDeviceBindMatchTimeoutCB( void );
    175          #endif
    176          uint8 *ZDO_ConvertOTAClusters( uint8 cnt, uint8 *inBuf, uint16 *outList );
    177          static void zdoSendStateChangeMsg(uint8 state, uint8 taskId);
    178          
    179          /*********************************************************************
    180           * @fn          ZDO_Init
    181           *
    182           * @brief       ZDObject and ZDProfile initialization.
    183           *
    184           * @param       none
    185           *
    186           * @return      none
    187           */

   \                                 In  segment BANKED_CODE, align 1, keep-with-next
    188          void ZDO_Init( void )
   \                     ZDO_Init:
    189          {
   \   000000   C082         PUSH      DPL
   \   000002   C083         PUSH      DPH
   \   000004                ; Saved register size: 2
   \   000004                ; Auto size: 0
    190            // Initialize ZD items
    191            #if defined ( REFLECTOR )
    192            ZDO_EDBind = NULL;
   \   000004   90....       MOV       DPTR,#ZDO_EDBind
   \   000007   7400         MOV       A,#0x0
   \   000009   F0           MOVX      @DPTR,A
   \   00000A   A3           INC       DPTR
   \   00000B   7400         MOV       A,#0x0
   \   00000D   F0           MOVX      @DPTR,A
    193            #endif
    194          
    195            // Initialize default ZDO_UseExtendedPANID to the APS one.
    196            osal_cpyExtAddr( ZDO_UseExtendedPANID, AIB_apsUseExtendedPANID );
   \   00000E                ; Setup parameters for call to function sAddrExtCpy
   \   00000E   7C..         MOV       R4,#AIB_apsUseExtendedPANID & 0xff
   \   000010   7D..         MOV       R5,#(AIB_apsUseExtendedPANID >> 8) & 0xff
   \   000012   7A..         MOV       R2,#ZDO_UseExtendedPANID & 0xff
   \   000014   7B..         MOV       R3,#(ZDO_UseExtendedPANID >> 8) & 0xff
   \   000016   12....       LCALL     `??sAddrExtCpy::?relay`; Banked call to: sAddrExtCpy
    197          
    198            // Setup the device - type of device to create.
    199            ZDODeviceSetup();
   \   000019                ; Setup parameters for call to function ZDODeviceSetup
   \   000019   12....       LCALL     `??ZDODeviceSetup::?relay`; Banked call to: ZDODeviceSetup
    200          }
   \   00001C   D083         POP       DPH
   \   00001E   D082         POP       DPL
   \   000020   02....       LJMP      ?BRET
    201          
    202          #if defined ( MANAGED_SCAN )
    203          /*********************************************************************
    204           * @fn      ZDOManagedScan_Next()
    205           *
    206           * @brief   Setup a managed scan.
    207           *
    208           * @param   none
    209           *
    210           * @return  none
    211           */
    212          static void ZDOManagedScan_Next( void )
    213          {
    214            // Is it the first time
    215            if ( managedScanNextChannel == 0 && managedScanTimesPerChannel == 0 )
    216            {
    217              // Setup the defaults
    218              managedScanNextChannel  = 1;
    219          
    220              while( managedScanNextChannel && (runtimeChannel & managedScanNextChannel) == 0 )
    221                managedScanNextChannel <<= 1;
    222          
    223              managedScanChannelMask = managedScanNextChannel;
    224              managedScanTimesPerChannel = MANAGEDSCAN_TIMES_PRE_CHANNEL;
    225            }
    226            else
    227            {
    228              // Do we need to go to the next channel
    229              if ( managedScanTimesPerChannel == 0 )
    230              {
    231                // Find next active channel
    232                managedScanChannelMask  = managedScanNextChannel;
    233                managedScanTimesPerChannel = MANAGEDSCAN_TIMES_PRE_CHANNEL;
    234              }
    235              else
    236              {
    237                managedScanTimesPerChannel--;
    238          
    239                if ( managedScanTimesPerChannel == 0 )
    240                {
    241                  managedScanNextChannel  <<= 1;
    242                  while( managedScanNextChannel && (runtimeChannel & managedScanNextChannel) == 0 )
    243                    managedScanNextChannel <<= 1;
    244          
    245                  if ( managedScanNextChannel == 0 )
    246                    zdoDiscCounter  = NUM_DISC_ATTEMPTS + 1; // Stop
    247                }
    248              }
    249            }
    250          }
    251          #endif // MANAGED_SCAN
    252          
    253          /*********************************************************************
    254           * @fn      ZDODeviceSetup()
    255           *
    256           * @brief   Call set functions depending on the type of device compiled.
    257           *
    258           * @param   none
    259           *
    260           * @return  none
    261           */

   \                                 In  segment BANKED_CODE, align 1, keep-with-next
    262          static void ZDODeviceSetup( void )
   \                     ZDODeviceSetup:
    263          {
   \   000000   C082         PUSH      DPL
   \   000002   C083         PUSH      DPH
   \   000004                ; Saved register size: 2
   \   000004                ; Auto size: 0
    264            if ( ZG_BUILD_COORDINATOR_TYPE )
    265            {
    266              NLME_CoordinatorInit();
    267            }
    268          
    269          #if defined ( REFLECTOR )
    270            APS_ReflectorInit();
   \   000004                ; Setup parameters for call to function APS_ReflectorInit
   \   000004   12....       LCALL     `??APS_ReflectorInit::?relay`; Banked call to: APS_ReflectorInit
    271          #endif
    272          
    273            if ( ZG_BUILD_JOINING_TYPE )
    274            {
    275              NLME_DeviceJoiningInit();
   \   000007                ; Setup parameters for call to function NLME_DeviceJoiningInit
   \   000007   12....       LCALL     `??NLME_DeviceJoiningInit::?relay`; Banked call to: NLME_DeviceJoiningInit
    276            }
    277          }
   \   00000A   D083         POP       DPH
   \   00000C   D082         POP       DPL
   \   00000E   02....       LJMP      ?BRET
    278          
    279          
    280          
    281          
    282          /*********************************************************************
    283           * @fn          ZDO_StartDevice
    284           *
    285           * @brief       This function starts a device in a network. Added distributed network for router devices
    286           *
    287           * @param       logicalType     - Device type to start
    288           *              startMode       - indicates mode of device startup
    289           *              beaconOrder     - indicates time betwen beacons
    290           *              superframeOrder - indicates length of active superframe
    291           *              distributed     - indicates if the network will be formed
    292           *
    293           * @return      none
    294           */

   \                                 In  segment BANKED_CODE, align 1, keep-with-next
    295          void ZDO_StartDevice( byte logicalType, devStartModes_t startMode, byte beaconOrder, byte superframeOrder )
   \                     ZDO_StartDevice:
    296          {
   \   000000                REQUIRE ?V0
   \   000000                REQUIRE ?V1
   \   000000                REQUIRE ?V2
   \   000000                REQUIRE ?V3
   \   000000                REQUIRE ?V4
   \   000000                REQUIRE ?V5
   \   000000                REQUIRE ?V6
   \   000000                REQUIRE ?V7
   \   000000   74F0         MOV       A,#-0x10
   \   000002   12....       LCALL     ?BANKED_ENTER_XDATA
   \   000005                ; Saved register size: 16
   \   000005                ; Auto size: 2
   \   000005   74FE         MOV       A,#-0x2
   \   000007   12....       LCALL     ?ALLOC_XSTACK8
   \   00000A   E9           MOV       A,R1
   \   00000B   FF           MOV       R7,A
   \   00000C   8A..         MOV       ?V0,R2
   \   00000E   8B..         MOV       ?V2,R3
   \   000010   8C..         MOV       ?V1,R4
    297            ZStatus_t ret;
    298          #if defined ( ZIGBEE_FREQ_AGILITY )
    299            static uint8 discRetries = 0;
    300          #endif
    301          #if defined ( ZIGBEE_COMMISSIONING )
    302            static uint8 scanCnt = 0;
    303          #endif
    304          
    305            ret = ZUnsupportedMode;
   \   000012   7E12         MOV       R6,#0x12
    306          
    307            if ( ZG_BUILD_COORDINATOR_TYPE && logicalType == NODETYPE_COORDINATOR )
    308            {
    309              if ( startMode == MODE_HARD )
    310              {
    311                ZDApp_ChangeState( DEV_COORD_STARTING );
    312                ret = NLME_NetworkFormationRequest( zgConfigPANID, zgApsUseExtendedPANID, runtimeChannel,
    313                                                    zgDefaultStartingScanDuration, beaconOrder,
    314                                                    superframeOrder, false, false, 0 );
    315              }
    316              else if ( startMode == MODE_RESUME )
    317              {
    318                // Just start the coordinator
    319                ZDApp_ChangeState( DEV_COORD_STARTING );
    320                ret = NLME_StartRouterRequest( beaconOrder, beaconOrder, false );
    321              }
    322              else
    323              {
    324          #if defined( LCD_SUPPORTED )
    325                HalLcdWriteScreen( "StartDevice ERR", "MODE unknown" );
    326          #endif
    327              }
    328            }
    329          
    330            if ( ZG_BUILD_JOINING_TYPE && (logicalType == NODETYPE_ROUTER || logicalType == NODETYPE_DEVICE) )
   \   000014   7401         MOV       A,#0x1
   \   000016   6F           XRL       A,R7
   \   000017   6008         JZ        ??ZDO_StartDevice_0
   \   000019   7402         MOV       A,#0x2
   \   00001B   6F           XRL       A,R7
   \   00001C   6003         JZ        $+5
   \   00001E   02....       LJMP      ??ZDO_StartDevice_1 & 0xFFFF
    331            {
    332              if ( (startMode == MODE_JOIN) || (startMode == MODE_REJOIN) )
   \                     ??ZDO_StartDevice_0:
   \   000021   E5..         MOV       A,?V0
   \   000023   6009         JZ        ??ZDO_StartDevice_2
   \   000025   7403         MOV       A,#0x3
   \   000027   65..         XRL       A,?V0
   \   000029   6003         JZ        $+5
   \   00002B   02....       LJMP      ??ZDO_StartDevice_3 & 0xFFFF
    333              {
    334                if(APSME_IsDistributedSecurity() && (startMode != MODE_REJOIN))
   \                     ??ZDO_StartDevice_2:
   \   00002E                ; Setup parameters for call to function APSME_IsDistributedSecurity
   \   00002E   12....       LCALL     `??APSME_IsDistributedSecurity::?relay`; Banked call to: APSME_IsDistributedSecurity
   \   000031   E9           MOV       A,R1
   \   000032   605E         JZ        ??ZDO_StartDevice_4
   \   000034   7403         MOV       A,#0x3
   \   000036   65..         XRL       A,?V0
   \   000038   6058         JZ        ??ZDO_StartDevice_4
    335                {
    336                        ret = NLME_NetworkFormationRequest( zgConfigPANID, zgApsUseExtendedPANID, runtimeChannel,
    337                                                    zgDefaultStartingScanDuration, beaconOrder,
    338                                                    superframeOrder, false, true, osal_rand() );
   \   00003A                ; Setup parameters for call to function osal_rand
   \   00003A   12....       LCALL     `??osal_rand::?relay`; Banked call to: osal_rand
   \   00003D   8A..         MOV       ?V6,R2
   \   00003F   8B..         MOV       ?V7,R3
   \   000041   85....       MOV       ?V4,?V6
   \   000044   85....       MOV       ?V5,?V7
   \   000047                ; Setup parameters for call to function NLME_NetworkFormationRequest
   \   000047   78..         MOV       R0,#?V4
   \   000049   12....       LCALL     ?PUSH_XSTACK_I_TWO
   \   00004C   75..01       MOV       ?V3,#0x1
   \   00004F   78..         MOV       R0,#?V3
   \   000051   12....       LCALL     ?PUSH_XSTACK_I_ONE
   \   000054   75..00       MOV       ?V3,#0x0
   \   000057   78..         MOV       R0,#?V3
   \   000059   12....       LCALL     ?PUSH_XSTACK_I_ONE
   \   00005C   E5..         MOV       A,?V1
   \   00005E   F5..         MOV       ?V3,A
   \   000060   78..         MOV       R0,#?V3
   \   000062   12....       LCALL     ?PUSH_XSTACK_I_ONE
   \   000065   E5..         MOV       A,?V2
   \   000067   F5..         MOV       ?V3,A
   \   000069   78..         MOV       R0,#?V3
   \   00006B   12....       LCALL     ?PUSH_XSTACK_I_ONE
   \   00006E   90....       MOV       DPTR,#runtimeChannel
   \   000071   12....       LCALL     ?PUSH_XSTACK8_X_FOUR
   \   000074   90....       MOV       DPTR,#bdbAttributes + 13
   \   000077   E0           MOVX      A,@DPTR
   \   000078   F9           MOV       R1,A
   \   000079   7C..         MOV       R4,#zgApsUseExtendedPANID & 0xff
   \   00007B   7D..         MOV       R5,#(zgApsUseExtendedPANID >> 8) & 0xff
   \   00007D   90....       MOV       DPTR,#zgConfigPANID
   \   000080   E0           MOVX      A,@DPTR
   \   000081   FA           MOV       R2,A
   \   000082   A3           INC       DPTR
   \   000083   E0           MOVX      A,@DPTR
   \   000084   FB           MOV       R3,A
   \   000085   12....       LCALL     `??NLME_NetworkFormationRequest::?relay`; Banked call to: NLME_NetworkFormationRequest
   \   000088   740A         MOV       A,#0xa
   \   00008A   12....       LCALL     ?DEALLOC_XSTACK8
   \   00008D   E9           MOV       A,R1
   \   00008E   FE           MOV       R6,A
   \   00008F   02....       LJMP      ??ZDO_StartDevice_1 & 0xFFFF
    339                  
    340                }
    341                else
    342                {
    343                  ZDApp_ChangeState( DEV_NWK_DISC );
   \                     ??ZDO_StartDevice_4:
   \   000092                ; Setup parameters for call to function ZDApp_ChangeState
   \   000092   7902         MOV       R1,#0x2
   \   000094   12....       LCALL     `??ZDApp_ChangeState::?relay`; Banked call to: ZDApp_ChangeState
    344          
    345                #if defined( MANAGED_SCAN )
    346                  ZDOManagedScan_Next();
    347                  ret = NLME_NetworkDiscoveryRequest( managedScanChannelMask, BEACON_ORDER_15_MSEC );
    348                #else
    349                  ret = NLME_NetworkDiscoveryRequest( runtimeChannel, zgDefaultStartingScanDuration );
   \   000097                ; Setup parameters for call to function NLME_NetworkDiscoveryRequest
   \   000097   90....       MOV       DPTR,#bdbAttributes + 13
   \   00009A   E0           MOVX      A,@DPTR
   \   00009B   F9           MOV       R1,A
   \   00009C   90....       MOV       DPTR,#runtimeChannel
   \   00009F   12....       LCALL     ?XLOAD_R2345
   \   0000A2   12....       LCALL     `??NLME_NetworkDiscoveryRequest::?relay`; Banked call to: NLME_NetworkDiscoveryRequest
   \   0000A5   E9           MOV       A,R1
   \   0000A6   FE           MOV       R6,A
    350                  #if defined ( ZIGBEE_FREQ_AGILITY )
    351                  if ( !( ZDO_Config_Node_Descriptor.CapabilityFlags & CAPINFO_RCVR_ON_IDLE ) &&
    352                      ( ret == ZSuccess ) && ( ++discRetries == 4 ) )
    353                  {
    354                    // For devices with RxOnWhenIdle equals to FALSE, any network channel
    355                    // change will not be recieved. On these devices or routers that have
    356                    // lost the network, an active scan shall be conducted on the Default
    357                    // Channel list using the extended PANID to find the network. If the
    358                    // extended PANID isn't found using the Default Channel list, an scan
    359                    // should be completed using all channels.
    360                    runtimeChannel = MAX_CHANNELS_24GHZ;
    361                  }
    362                  #endif // ZIGBEE_FREQ_AGILITY
    363                  #if defined ( ZIGBEE_COMMISSIONING )
    364                  if (startMode == MODE_REJOIN && scanCnt++ >= 5 )
   \   0000A7   7403         MOV       A,#0x3
   \   0000A9   65..         XRL       A,?V0
   \   0000AB   6003         JZ        $+5
   \   0000AD   02....       LJMP      ??ZDO_StartDevice_1 & 0xFFFF
   \   0000B0   90....       MOV       DPTR,#??scanCnt
   \   0000B3   E0           MOVX      A,@DPTR
   \   0000B4   F8           MOV       R0,A
   \   0000B5   7401         MOV       A,#0x1
   \   0000B7   28           ADD       A,R0
   \   0000B8   90....       MOV       DPTR,#??scanCnt
   \   0000BB   F0           MOVX      @DPTR,A
   \   0000BC   E8           MOV       A,R0
   \   0000BD   C3           CLR       C
   \   0000BE   9405         SUBB      A,#0x5
   \   0000C0   5003         JNC       $+5
   \   0000C2   02....       LJMP      ??ZDO_StartDevice_1 & 0xFFFF
    365                  {
    366                    // When ApsUseExtendedPanID is commissioned to a non zero value via
    367                    // application specific means, the device shall conduct an active scan
    368                    // on the Default Channel list and join the PAN with the same
    369                    // ExtendedPanID. If the PAN is not found, an scan should be completed
    370                    // on all channels.
    371                    // When devices rejoin the network and the PAN is not found from
    372                    runtimeChannel = MAX_CHANNELS_24GHZ;
   \   0000C5   90....       MOV       DPTR,#runtimeChannel
   \   0000C8   7400         MOV       A,#0x0
   \   0000CA   F0           MOVX      @DPTR,A
   \   0000CB   A3           INC       DPTR
   \   0000CC   74F8         MOV       A,#-0x8
   \   0000CE   F0           MOVX      @DPTR,A
   \   0000CF   A3           INC       DPTR
   \   0000D0   74FF         MOV       A,#-0x1
   \   0000D2   F0           MOVX      @DPTR,A
   \   0000D3   A3           INC       DPTR
   \   0000D4   7407         MOV       A,#0x7
   \   0000D6   F0           MOVX      @DPTR,A
   \   0000D7   02....       LJMP      ??ZDO_StartDevice_1 & 0xFFFF
    373                  }
    374                  #endif // ZIGBEE_COMMISSIONING
    375                #endif
    376                }
    377              }
    378              else if ( startMode == MODE_RESUME )
   \                     ??ZDO_StartDevice_3:
   \   0000DA   7401         MOV       A,#0x1
   \   0000DC   65..         XRL       A,?V0
   \   0000DE   7074         JNZ       ??ZDO_StartDevice_5
    379              {
    380                if ( logicalType == NODETYPE_ROUTER )
   \   0000E0   7401         MOV       A,#0x1
   \   0000E2   6F           XRL       A,R7
   \   0000E3   7040         JNZ       ??ZDO_StartDevice_6
    381                {
    382                  uint16 panID;
    383                  
    384                  ZDApp_ChangeState( DEV_NWK_ORPHAN );
   \   0000E5                ; Setup parameters for call to function ZDApp_ChangeState
   \   0000E5   790A         MOV       R1,#0xa
   \   0000E7   12....       LCALL     `??ZDApp_ChangeState::?relay`; Banked call to: ZDApp_ChangeState
    385                  
    386                  // Stop the rejoin timeout
    387                  osal_stop_timerEx( NWK_TaskID, NWK_REJOIN_TIMEOUT_EVT );
   \   0000EA                ; Setup parameters for call to function osal_stop_timerEx
   \   0000EA   7A00         MOV       R2,#0x0
   \   0000EC   7B04         MOV       R3,#0x4
   \   0000EE   90....       MOV       DPTR,#NWK_TaskID
   \   0000F1   E0           MOVX      A,@DPTR
   \   0000F2   F9           MOV       R1,A
   \   0000F3   12....       LCALL     `??osal_stop_timerEx::?relay`; Banked call to: osal_stop_timerEx
   \   0000F6   E9           MOV       A,R1
    388                  ZMacGetReq( ZMacPanId, (uint8 *)&( panID ) );
   \   0000F7                ; Setup parameters for call to function ZMacGetReq
   \   0000F7   AA..         MOV       R2,?XSP + 0
   \   0000F9   AB..         MOV       R3,?XSP + 1
   \   0000FB   7950         MOV       R1,#0x50
   \   0000FD   12....       LCALL     `??ZMacGetReq::?relay`; Banked call to: ZMacGetReq
   \   000100   E9           MOV       A,R1
    389                  
    390                  _NIB.nwkPanId = panID;
   \   000101   85..82       MOV       DPL,?XSP + 0
   \   000104   85..83       MOV       DPH,?XSP + 1
   \   000107   E0           MOVX      A,@DPTR
   \   000108   F8           MOV       R0,A
   \   000109   A3           INC       DPTR
   \   00010A   E0           MOVX      A,@DPTR
   \   00010B   F9           MOV       R1,A
   \   00010C   90....       MOV       DPTR,#_NIB + 33
   \   00010F   E8           MOV       A,R0
   \   000110   F0           MOVX      @DPTR,A
   \   000111   A3           INC       DPTR
   \   000112   E9           MOV       A,R1
   \   000113   F0           MOVX      @DPTR,A
    391                  NLME_JoinConfirm(  _NIB.nwkPanId, ZSuccess );
   \   000114                ; Setup parameters for call to function NLME_JoinConfirm
   \   000114   7900         MOV       R1,#0x0
   \   000116   90....       MOV       DPTR,#_NIB + 33
   \   000119   E0           MOVX      A,@DPTR
   \   00011A   FA           MOV       R2,A
   \   00011B   A3           INC       DPTR
   \   00011C   E0           MOVX      A,@DPTR
   \   00011D   FB           MOV       R3,A
   \   00011E   12....       LCALL     `??NLME_JoinConfirm::?relay`; Banked call to: NLME_JoinConfirm
    392          
    393                  ret = ZSuccess;
   \   000121   7E00         MOV       R6,#0x0
   \   000123   803A         SJMP      ??ZDO_StartDevice_1
    394                }
    395                else
    396                {
    397                  ZDApp_ChangeState( DEV_NWK_ORPHAN );
   \                     ??ZDO_StartDevice_6:
   \   000125                ; Setup parameters for call to function ZDApp_ChangeState
   \   000125   790A         MOV       R1,#0xa
   \   000127   12....       LCALL     `??ZDApp_ChangeState::?relay`; Banked call to: ZDApp_ChangeState
    398                  //set timer for scan and rejoin
    399                  osal_start_timerEx( ZDAppTaskID, ZDO_REJOIN_BACKOFF, zgDefaultRejoinScan );
   \   00012A                ; Setup parameters for call to function osal_start_timerEx
   \   00012A   90....       MOV       DPTR,#zgDefaultRejoinScan
   \   00012D   12....       LCALL     ?PUSH_XSTACK8_X_FOUR
   \   000130   7A00         MOV       R2,#0x0
   \   000132   7B20         MOV       R3,#0x20
   \   000134   90....       MOV       DPTR,#ZDAppTaskID
   \   000137   E0           MOVX      A,@DPTR
   \   000138   F9           MOV       R1,A
   \   000139   12....       LCALL     `??osal_start_timerEx::?relay`; Banked call to: osal_start_timerEx
   \   00013C   7404         MOV       A,#0x4
   \   00013E   12....       LCALL     ?DEALLOC_XSTACK8
   \   000141   E9           MOV       A,R1
    400                  ret = NLME_OrphanJoinRequest( runtimeChannel,
    401                                                zgDefaultStartingScanDuration );
   \   000142                ; Setup parameters for call to function NLME_OrphanJoinRequest
   \   000142   90....       MOV       DPTR,#bdbAttributes + 13
   \   000145   E0           MOVX      A,@DPTR
   \   000146   F9           MOV       R1,A
   \   000147   90....       MOV       DPTR,#runtimeChannel
   \   00014A   12....       LCALL     ?XLOAD_R2345
   \   00014D   12....       LCALL     `??NLME_OrphanJoinRequest::?relay`; Banked call to: NLME_OrphanJoinRequest
   \   000150   E9           MOV       A,R1
   \   000151   FE           MOV       R6,A
   \   000152   800B         SJMP      ??ZDO_StartDevice_1
    402                }
    403              }
    404              else
    405              {
    406          #if defined( LCD_SUPPORTED )
    407                HalLcdWriteScreen( "StartDevice ERR", "MODE unknown" );
   \                     ??ZDO_StartDevice_5:
   \   000154                ; Setup parameters for call to function HalLcdWriteScreen
   \   000154   7C..         MOV       R4,#`?<Constant "MODE unknown">` & 0xff
   \   000156   7D..         MOV       R5,#(`?<Constant "MODE unknown">` >> 8) & 0xff
   \   000158   7A..         MOV       R2,#`?<Constant "StartDevice ERR">` & 0xff
   \   00015A   7B..         MOV       R3,#(`?<Constant "StartDevice ERR">` >> 8) & 0xff
   \   00015C   12....       LCALL     `??HalLcdWriteScreen::?relay`; Banked call to: HalLcdWriteScreen
    408          #endif
    409              }
    410            }
    411          
    412            if ( ret != ZSuccess )
   \                     ??ZDO_StartDevice_1:
   \   00015F   EE           MOV       A,R6
   \   000160   6018         JZ        ??ZDO_StartDevice_7
    413            {
    414              osal_start_timerEx(ZDAppTaskID, ZDO_NETWORK_INIT, NWK_RETRY_DELAY );
   \   000162                ; Setup parameters for call to function osal_start_timerEx
   \   000162   90....       MOV       DPTR,#__Constant_3e8
   \   000165   12....       LCALL     ?PUSH_XSTACK8_X_FOUR
   \   000168   7A01         MOV       R2,#0x1
   \   00016A   7B00         MOV       R3,#0x0
   \   00016C   90....       MOV       DPTR,#ZDAppTaskID
   \   00016F   E0           MOVX      A,@DPTR
   \   000170   F9           MOV       R1,A
   \   000171   12....       LCALL     `??osal_start_timerEx::?relay`; Banked call to: osal_start_timerEx
   \   000174   7404         MOV       A,#0x4
   \   000176   12....       LCALL     ?DEALLOC_XSTACK8
   \   000179   E9           MOV       A,R1
    415            }
    416          }
   \                     ??ZDO_StartDevice_7:
   \   00017A   7402         MOV       A,#0x2
   \   00017C   12....       LCALL     ?DEALLOC_XSTACK8
   \   00017F   7F08         MOV       R7,#0x8
   \   000181   02....       LJMP      ?BANKED_LEAVE_XDATA

   \                                 In  segment XDATA_Z, align 1, keep-with-next
   \                     ??scanCnt:
   \   000000                DS 1
   \   000001                REQUIRE __INIT_XDATA_Z
    417          
    418          /**************************************************************************************************
    419           * @fn          zdoSendStateChangeMsg
    420           *
    421           * @brief       Helper function for ZDO_UpdateNwkStatus.
    422           *
    423           * input parameters
    424           *
    425           * @param       taskId - The OSAL task identifier to which to send the ZDO_STATE_CHANGE_EVT.
    426           * @param       state - The current device state.
    427           *
    428           * output parameters
    429           *
    430           * None.
    431           *
    432           * @return      None.
    433           **************************************************************************************************
    434           */

   \                                 In  segment BANKED_CODE, align 1, keep-with-next
    435          static void zdoSendStateChangeMsg(uint8 state, uint8 taskId)
   \                     zdoSendStateChangeMsg:
    436          {
   \   000000                REQUIRE ?V0
   \   000000                REQUIRE ?V1
   \   000000                REQUIRE ?V2
   \   000000                REQUIRE ?V3
   \   000000   74F4         MOV       A,#-0xc
   \   000002   12....       LCALL     ?BANKED_ENTER_XDATA
   \   000005                ; Saved register size: 12
   \   000005                ; Auto size: 1
   \   000005   74FF         MOV       A,#-0x1
   \   000007   12....       LCALL     ?ALLOC_XSTACK8
   \   00000A   89..         MOV       ?V1,R1
   \   00000C   8A..         MOV       ?V0,R2
    437            osal_event_hdr_t *pMsg = (osal_event_hdr_t *)osal_msg_find(taskId, ZDO_STATE_CHANGE);
   \   00000E                ; Setup parameters for call to function osal_msg_find
   \   00000E   7AD1         MOV       R2,#-0x2f
   \   000010   A9..         MOV       R1,?V0
   \   000012   12....       LCALL     `??osal_msg_find::?relay`; Banked call to: osal_msg_find
   \   000015   8A..         MOV       ?V2,R2
   \   000017   8B..         MOV       ?V3,R3
   \   000019   AE..         MOV       R6,?V2
   \   00001B   AF..         MOV       R7,?V3
    438          
    439            if (NULL == pMsg)
   \   00001D   EE           MOV       A,R6
   \   00001E   4F           ORL       A,R7
   \   00001F   704C         JNZ       ??zdoSendStateChangeMsg_0
    440            {
    441              if (NULL == (pMsg = (osal_event_hdr_t *)osal_msg_allocate(sizeof(osal_event_hdr_t))))
   \   000021                ; Setup parameters for call to function osal_msg_allocate
   \   000021   7A02         MOV       R2,#0x2
   \   000023   7B00         MOV       R3,#0x0
   \   000025   12....       LCALL     `??osal_msg_allocate::?relay`; Banked call to: osal_msg_allocate
   \   000028   8A..         MOV       ?V2,R2
   \   00002A   8B..         MOV       ?V3,R3
   \   00002C   AE..         MOV       R6,?V2
   \   00002E   AF..         MOV       R7,?V3
   \   000030   EE           MOV       A,R6
   \   000031   4F           ORL       A,R7
   \   000032   700F         JNZ       ??zdoSendStateChangeMsg_1
    442              {
    443                // Upon failure to notify any EndPoint of the state change, re-set the ZDO event to
    444                // try again later when more Heap may be available.
    445                osal_set_event(ZDAppTaskID, ZDO_STATE_CHANGE_EVT);
   \   000034                ; Setup parameters for call to function osal_set_event
   \   000034   7A10         MOV       R2,#0x10
   \   000036   7B00         MOV       R3,#0x0
   \   000038   90....       MOV       DPTR,#ZDAppTaskID
   \   00003B   E0           MOVX      A,@DPTR
   \   00003C   F9           MOV       R1,A
   \   00003D   12....       LCALL     `??osal_set_event::?relay`; Banked call to: osal_set_event
   \   000040   E9           MOV       A,R1
   \   000041   8036         SJMP      ??zdoSendStateChangeMsg_2
    446              }
    447              else
    448              {
    449                pMsg->event = ZDO_STATE_CHANGE;
   \                     ??zdoSendStateChangeMsg_1:
   \   000043   8E82         MOV       DPL,R6
   \   000045   8F83         MOV       DPH,R7
   \   000047   74D1         MOV       A,#-0x2f
   \   000049   F0           MOVX      @DPTR,A
    450                pMsg->status = state;
   \   00004A   E5..         MOV       A,?V1
   \   00004C   C0E0         PUSH      A
   \   00004E   8E82         MOV       DPL,R6
   \   000050   8F83         MOV       DPH,R7
   \   000052   A3           INC       DPTR
   \   000053   D0E0         POP       A
   \   000055   F0           MOVX      @DPTR,A
    451          
    452                (void)osal_msg_send(taskId, (uint8 *)pMsg);
   \   000056                ; Setup parameters for call to function osal_msg_send
   \   000056   EE           MOV       A,R6
   \   000057   FA           MOV       R2,A
   \   000058   EF           MOV       A,R7
   \   000059   FB           MOV       R3,A
   \   00005A   A9..         MOV       R1,?V0
   \   00005C   12....       LCALL     `??osal_msg_send::?relay`; Banked call to: osal_msg_send
   \   00005F   E9           MOV       A,R1
   \   000060   C0E0         PUSH      A
   \   000062   85..82       MOV       DPL,?XSP + 0
   \   000065   85..83       MOV       DPH,?XSP + 1
   \   000068   D0E0         POP       A
   \   00006A   F0           MOVX      @DPTR,A
   \   00006B   800C         SJMP      ??zdoSendStateChangeMsg_2
    453              }
    454            }
    455            else
    456            {
    457              // Modify in place the status of an existing ZDO_STATE_CHANGE message to the EndPoint.
    458              pMsg->status = state;
   \                     ??zdoSendStateChangeMsg_0:
   \   00006D   E5..         MOV       A,?V1
   \   00006F   C0E0         PUSH      A
   \   000071   8E82         MOV       DPL,R6
   \   000073   8F83         MOV       DPH,R7
   \   000075   A3           INC       DPTR
   \   000076   D0E0         POP       A
   \   000078   F0           MOVX      @DPTR,A
    459            }
    460          }
   \                     ??zdoSendStateChangeMsg_2:
   \   000079   7401         MOV       A,#0x1
   \   00007B   12....       LCALL     ?DEALLOC_XSTACK8
   \   00007E   7F04         MOV       R7,#0x4
   \   000080   02....       LJMP      ?BANKED_LEAVE_XDATA
    461          
    462          /**************************************************************************************************
    463           * @fn          ZDO_UpdateNwkStatus
    464           *
    465           * @brief       This function sends a ZDO_STATE_CHANGE message to the task of every EndPoint
    466           *              registered with AF (except, of course, the ZDO_EP). Even if a single task has more
    467           *              than one registered EndPoint, it will only receive one notification per state
    468           *              change. Although the device may go through a sequence of state changes, the
    469           *              Application task may only receive notification of the final, steady-state state
    470           *              because it has the lowest priority and never even runs to receive the intermediate
    471           *              state change notifications.
    472           *
    473           * input parameters
    474           *
    475           * @param       state - The current device state.
    476           *
    477           * output parameters
    478           *
    479           * None.
    480           *
    481           * @return      None.
    482           **************************************************************************************************
    483           */

   \                                 In  segment BANKED_CODE, align 1, keep-with-next
    484          void ZDO_UpdateNwkStatus(devStates_t state)
   \                     ZDO_UpdateNwkStatus:
    485          {
   \   000000                REQUIRE ?V0
   \   000000                REQUIRE ?V2
   \   000000                REQUIRE ?V3
   \   000000   74F4         MOV       A,#-0xc
   \   000002   12....       LCALL     ?BANKED_ENTER_XDATA
   \   000005                ; Saved register size: 12
   \   000005                ; Auto size: 0
   \   000005   89..         MOV       ?V0,R1
    486            epList_t *pItem = epList;
   \   000007   90....       MOV       DPTR,#epList
   \   00000A   E0           MOVX      A,@DPTR
   \   00000B   FE           MOV       R6,A
   \   00000C   A3           INC       DPTR
   \   00000D   E0           MOVX      A,@DPTR
   \   00000E   FF           MOV       R7,A
    487          
    488          #if defined MT_ZDO_CB_FUNC
    489            if ( zdpExternalStateTaskID == -1 )
    490            {
    491              zdpExternalStateTaskID = MT_TaskID;
    492            }
    493          #endif
    494          
    495            while (pItem != NULL)
   \                     ??ZDO_UpdateNwkStatus_0:
   \   00000F   EE           MOV       A,R6
   \   000010   4F           ORL       A,R7
   \   000011   603F         JZ        ??ZDO_UpdateNwkStatus_1
    496            {
    497              if (pItem->epDesc->endPoint != ZDO_EP)
   \   000013   8E82         MOV       DPL,R6
   \   000015   8F83         MOV       DPH,R7
   \   000017   A3           INC       DPTR
   \   000018   A3           INC       DPTR
   \   000019   E0           MOVX      A,@DPTR
   \   00001A   F8           MOV       R0,A
   \   00001B   A3           INC       DPTR
   \   00001C   E0           MOVX      A,@DPTR
   \   00001D   F583         MOV       DPH,A
   \   00001F   8882         MOV       DPL,R0
   \   000021   E0           MOVX      A,@DPTR
   \   000022   601F         JZ        ??ZDO_UpdateNwkStatus_2
    498              {
    499                zdoSendStateChangeMsg(state, *(pItem->epDesc->task_id));
   \   000024                ; Setup parameters for call to function zdoSendStateChangeMsg
   \   000024   8E82         MOV       DPL,R6
   \   000026   8F83         MOV       DPH,R7
   \   000028   A3           INC       DPTR
   \   000029   A3           INC       DPTR
   \   00002A   E0           MOVX      A,@DPTR
   \   00002B   F8           MOV       R0,A
   \   00002C   A3           INC       DPTR
   \   00002D   E0           MOVX      A,@DPTR
   \   00002E   F583         MOV       DPH,A
   \   000030   8882         MOV       DPL,R0
   \   000032   A3           INC       DPTR
   \   000033   A3           INC       DPTR
   \   000034   E0           MOVX      A,@DPTR
   \   000035   F8           MOV       R0,A
   \   000036   A3           INC       DPTR
   \   000037   E0           MOVX      A,@DPTR
   \   000038   F583         MOV       DPH,A
   \   00003A   8882         MOV       DPL,R0
   \   00003C   E0           MOVX      A,@DPTR
   \   00003D   FA           MOV       R2,A
   \   00003E   A9..         MOV       R1,?V0
   \   000040   12....       LCALL     `??zdoSendStateChangeMsg::?relay`; Banked call to: zdoSendStateChangeMsg
    500              }
    501          
    502              pItem = pItem->nextDesc;
   \                     ??ZDO_UpdateNwkStatus_2:
   \   000043   8E82         MOV       DPL,R6
   \   000045   8F83         MOV       DPH,R7
   \   000047   E0           MOVX      A,@DPTR
   \   000048   F8           MOV       R0,A
   \   000049   A3           INC       DPTR
   \   00004A   E0           MOVX      A,@DPTR
   \   00004B   F9           MOV       R1,A
   \   00004C   E8           MOV       A,R0
   \   00004D   FE           MOV       R6,A
   \   00004E   E9           MOV       A,R1
   \   00004F   FF           MOV       R7,A
   \   000050   80BD         SJMP      ??ZDO_UpdateNwkStatus_0
    503            }
    504          
    505            if ( zdpExternalStateTaskID != -1 )
   \                     ??ZDO_UpdateNwkStatus_1:
   \   000052   90....       MOV       DPTR,#zdpExternalStateTaskID
   \   000055   E0           MOVX      A,@DPTR
   \   000056   64FF         XRL       A,#0xff
   \   000058   7004         JNZ       ??ZDO_UpdateNwkStatus_3
   \   00005A   A3           INC       DPTR
   \   00005B   E0           MOVX      A,@DPTR
   \   00005C   64FF         XRL       A,#0xff
   \                     ??ZDO_UpdateNwkStatus_3:
   \   00005E   600D         JZ        ??ZDO_UpdateNwkStatus_4
    506            {
    507              zdoSendStateChangeMsg( state, zdpExternalStateTaskID );
   \   000060                ; Setup parameters for call to function zdoSendStateChangeMsg
   \   000060   90....       MOV       DPTR,#zdpExternalStateTaskID
   \   000063   E0           MOVX      A,@DPTR
   \   000064   FA           MOV       R2,A
   \   000065   A3           INC       DPTR
   \   000066   E0           MOVX      A,@DPTR
   \   000067   FB           MOV       R3,A
   \   000068   A9..         MOV       R1,?V0
   \   00006A   12....       LCALL     `??zdoSendStateChangeMsg::?relay`; Banked call to: zdoSendStateChangeMsg
    508            }
    509          
    510            ZDAppNwkAddr.addr.shortAddr = NLME_GetShortAddr();
   \                     ??ZDO_UpdateNwkStatus_4:
   \   00006D                ; Setup parameters for call to function NLME_GetShortAddr
   \   00006D   12....       LCALL     `??NLME_GetShortAddr::?relay`; Banked call to: NLME_GetShortAddr
   \   000070   90....       MOV       DPTR,#ZDAppNwkAddr
   \   000073   EA           MOV       A,R2
   \   000074   F0           MOVX      @DPTR,A
   \   000075   A3           INC       DPTR
   \   000076   EB           MOV       A,R3
   \   000077   F0           MOVX      @DPTR,A
    511            (void)NLME_GetExtAddr();  // Load the saveExtAddr pointer.
   \   000078                ; Setup parameters for call to function NLME_GetExtAddr
   \   000078   12....       LCALL     `??NLME_GetExtAddr::?relay`; Banked call to: NLME_GetExtAddr
   \   00007B   8A..         MOV       ?V2,R2
   \   00007D   8B..         MOV       ?V3,R3
   \   00007F   85..82       MOV       DPL,?V2
   \   000082   85..83       MOV       DPH,?V3
    512          }
   \   000085   7F04         MOV       R7,#0x4
   \   000087   02....       LJMP      ?BANKED_LEAVE_XDATA
    513          
    514          #if defined ( REFLECTOR )
    515          /*********************************************************************
    516           * @fn          ZDO_RemoveEndDeviceBind
    517           *
    518           * @brief       Remove the end device bind
    519           *
    520           * @param  none
    521           *
    522           * @return      none
    523           */

   \                                 In  segment BANKED_CODE, align 1, keep-with-next
    524          static void ZDO_RemoveEndDeviceBind( void )
   \                     ZDO_RemoveEndDeviceBind:
    525          {
   \   000000   C082         PUSH      DPL
   \   000002   C083         PUSH      DPH
   \   000004                ; Saved register size: 2
   \   000004                ; Auto size: 0
    526            if ( ZDO_EDBind != NULL )
   \   000004   90....       MOV       DPTR,#ZDO_EDBind
   \   000007   E0           MOVX      A,@DPTR
   \   000008   F8           MOV       R0,A
   \   000009   A3           INC       DPTR
   \   00000A   E0           MOVX      A,@DPTR
   \   00000B   F9           MOV       R1,A
   \   00000C   E8           MOV       A,R0
   \   00000D   49           ORL       A,R1
   \   00000E   607B         JZ        ??ZDO_RemoveEndDeviceBind_0
    527            {
    528              // Free the RAM
    529              if ( ZDO_EDBind->inClusters != NULL )
   \   000010   90....       MOV       DPTR,#ZDO_EDBind
   \   000013   E0           MOVX      A,@DPTR
   \   000014   F8           MOV       R0,A
   \   000015   A3           INC       DPTR
   \   000016   E0           MOVX      A,@DPTR
   \   000017   C8           XCH       A,R0
   \   000018   2410         ADD       A,#0x10
   \   00001A   F582         MOV       DPL,A
   \   00001C   C8           XCH       A,R0
   \   00001D   3400         ADDC      A,#0x0
   \   00001F   F583         MOV       DPH,A
   \   000021   E0           MOVX      A,@DPTR
   \   000022   F8           MOV       R0,A
   \   000023   A3           INC       DPTR
   \   000024   E0           MOVX      A,@DPTR
   \   000025   F9           MOV       R1,A
   \   000026   E8           MOV       A,R0
   \   000027   49           ORL       A,R1
   \   000028   6019         JZ        ??ZDO_RemoveEndDeviceBind_1
    530              {
    531                osal_mem_free( ZDO_EDBind->inClusters );
   \   00002A                ; Setup parameters for call to function osal_mem_free
   \   00002A   90....       MOV       DPTR,#ZDO_EDBind
   \   00002D   E0           MOVX      A,@DPTR
   \   00002E   F8           MOV       R0,A
   \   00002F   A3           INC       DPTR
   \   000030   E0           MOVX      A,@DPTR
   \   000031   C8           XCH       A,R0
   \   000032   2410         ADD       A,#0x10
   \   000034   F582         MOV       DPL,A
   \   000036   C8           XCH       A,R0
   \   000037   3400         ADDC      A,#0x0
   \   000039   F583         MOV       DPH,A
   \   00003B   E0           MOVX      A,@DPTR
   \   00003C   FA           MOV       R2,A
   \   00003D   A3           INC       DPTR
   \   00003E   E0           MOVX      A,@DPTR
   \   00003F   FB           MOV       R3,A
   \   000040   12....       LCALL     `??osal_mem_free::?relay`; Banked call to: osal_mem_free
    532              }
    533              if ( ZDO_EDBind->outClusters != NULL )
   \                     ??ZDO_RemoveEndDeviceBind_1:
   \   000043   90....       MOV       DPTR,#ZDO_EDBind
   \   000046   E0           MOVX      A,@DPTR
   \   000047   F8           MOV       R0,A
   \   000048   A3           INC       DPTR
   \   000049   E0           MOVX      A,@DPTR
   \   00004A   C8           XCH       A,R0
   \   00004B   2413         ADD       A,#0x13
   \   00004D   F582         MOV       DPL,A
   \   00004F   C8           XCH       A,R0
   \   000050   3400         ADDC      A,#0x0
   \   000052   F583         MOV       DPH,A
   \   000054   E0           MOVX      A,@DPTR
   \   000055   F8           MOV       R0,A
   \   000056   A3           INC       DPTR
   \   000057   E0           MOVX      A,@DPTR
   \   000058   F9           MOV       R1,A
   \   000059   E8           MOV       A,R0
   \   00005A   49           ORL       A,R1
   \   00005B   6019         JZ        ??ZDO_RemoveEndDeviceBind_2
    534              {
    535                osal_mem_free( ZDO_EDBind->outClusters );
   \   00005D                ; Setup parameters for call to function osal_mem_free
   \   00005D   90....       MOV       DPTR,#ZDO_EDBind
   \   000060   E0           MOVX      A,@DPTR
   \   000061   F8           MOV       R0,A
   \   000062   A3           INC       DPTR
   \   000063   E0           MOVX      A,@DPTR
   \   000064   C8           XCH       A,R0
   \   000065   2413         ADD       A,#0x13
   \   000067   F582         MOV       DPL,A
   \   000069   C8           XCH       A,R0
   \   00006A   3400         ADDC      A,#0x0
   \   00006C   F583         MOV       DPH,A
   \   00006E   E0           MOVX      A,@DPTR
   \   00006F   FA           MOV       R2,A
   \   000070   A3           INC       DPTR
   \   000071   E0           MOVX      A,@DPTR
   \   000072   FB           MOV       R3,A
   \   000073   12....       LCALL     `??osal_mem_free::?relay`; Banked call to: osal_mem_free
    536              }
    537              osal_mem_free( ZDO_EDBind );
   \                     ??ZDO_RemoveEndDeviceBind_2:
   \   000076                ; Setup parameters for call to function osal_mem_free
   \   000076   90....       MOV       DPTR,#ZDO_EDBind
   \   000079   E0           MOVX      A,@DPTR
   \   00007A   FA           MOV       R2,A
   \   00007B   A3           INC       DPTR
   \   00007C   E0           MOVX      A,@DPTR
   \   00007D   FB           MOV       R3,A
   \   00007E   12....       LCALL     `??osal_mem_free::?relay`; Banked call to: osal_mem_free
    538              ZDO_EDBind = NULL;
   \   000081   90....       MOV       DPTR,#ZDO_EDBind
   \   000084   7400         MOV       A,#0x0
   \   000086   F0           MOVX      @DPTR,A
   \   000087   A3           INC       DPTR
   \   000088   7400         MOV       A,#0x0
   \   00008A   F0           MOVX      @DPTR,A
    539            }
    540          }
   \                     ??ZDO_RemoveEndDeviceBind_0:
   \   00008B   D083         POP       DPH
   \   00008D   D082         POP       DPL
   \   00008F   02....       LJMP      ?BRET
    541          #endif // REFLECTOR
    542          
    543          #if defined ( REFLECTOR )
    544          /*********************************************************************
    545           * @fn          ZDO_SendEDBindRsp
    546           *
    547           * @brief       Send the end device bind response
    548           *
    549           * @param  none
    550           *
    551           * @return      none
    552           */

   \                                 In  segment BANKED_CODE, align 1, keep-with-next
    553          static void ZDO_SendEDBindRsp( byte TransSeq, zAddrType_t *dstAddr, byte Status, byte secUse )
   \                     ZDO_SendEDBindRsp:
    554          {
   \   000000                REQUIRE ?V0
   \   000000                REQUIRE ?V1
   \   000000                REQUIRE ?V2
   \   000000                REQUIRE ?V3
   \   000000   74F4         MOV       A,#-0xc
   \   000002   12....       LCALL     ?BANKED_ENTER_XDATA
   \   000005                ; Saved register size: 12
   \   000005                ; Auto size: 2
   \   000005   74FE         MOV       A,#-0x2
   \   000007   12....       LCALL     ?ALLOC_XSTACK8
   \   00000A   E9           MOV       A,R1
   \   00000B   C0E0         PUSH      A
   \   00000D   7401         MOV       A,#0x1
   \   00000F   12....       LCALL     ?XSTACK_DISP0_8
   \   000012   D0E0         POP       A
   \   000014   F0           MOVX      @DPTR,A
   \   000015   EC           MOV       A,R4
   \   000016   C0E0         PUSH      A
   \   000018   85..82       MOV       DPL,?XSP + 0
   \   00001B   85..83       MOV       DPH,?XSP + 1
   \   00001E   D0E0         POP       A
   \   000020   F0           MOVX      @DPTR,A
   \   000021   EA           MOV       A,R2
   \   000022   FE           MOV       R6,A
   \   000023   EB           MOV       A,R3
   \   000024   FF           MOV       R7,A
   \   000025   8D..         MOV       ?V0,R5
    555            ZDP_EndDeviceBindRsp( TransSeq, dstAddr, Status, secUse );
   \   000027                ; Setup parameters for call to function ZDP_SendData
   \   000027   E5..         MOV       A,?V0
   \   000029   F5..         MOV       ?V1,A
   \   00002B   78..         MOV       R0,#?V1
   \   00002D   12....       LCALL     ?PUSH_XSTACK_I_ONE
   \   000030   7401         MOV       A,#0x1
   \   000032   12....       LCALL     ?XSTACK_DISP100_8
   \   000035   88..         MOV       ?V2,R0
   \   000037   89..         MOV       ?V3,R1
   \   000039   78..         MOV       R0,#?V2
   \   00003B   12....       LCALL     ?PUSH_XSTACK_I_TWO
   \   00003E   75..20       MOV       ?V2,#0x20
   \   000041   75..80       MOV       ?V3,#-0x80
   \   000044   78..         MOV       R0,#?V2
   \   000046   12....       LCALL     ?PUSH_XSTACK_I_TWO
   \   000049   7901         MOV       R1,#0x1
   \   00004B   EE           MOV       A,R6
   \   00004C   FC           MOV       R4,A
   \   00004D   EF           MOV       A,R7
   \   00004E   FD           MOV       R5,A
   \   00004F   7406         MOV       A,#0x6
   \   000051   12....       LCALL     ?XSTACK_DISP101_8
   \   000054   12....       LCALL     `??ZDP_SendData::?relay`; Banked call to: ZDP_SendData
   \   000057   7405         MOV       A,#0x5
   \   000059   12....       LCALL     ?DEALLOC_XSTACK8
   \   00005C   E9           MOV       A,R1
    556          
    557          #if defined( LCD_SUPPORTED )
    558            HalLcdWriteString( "End Device Bind", HAL_LCD_LINE_1 );
   \   00005D                ; Setup parameters for call to function HalLcdWriteString
   \   00005D   7901         MOV       R1,#0x1
   \   00005F   7A..         MOV       R2,#`?<Constant "End Device Bind">` & 0xff
   \   000061   7B..         MOV       R3,#(`?<Constant "End Device Bind">` >> 8) & 0xff
   \   000063   12....       LCALL     `??HalLcdWriteString::?relay`; Banked call to: HalLcdWriteString
    559            if ( Status == ZDP_SUCCESS )
   \   000066   85..82       MOV       DPL,?XSP + 0
   \   000069   85..83       MOV       DPH,?XSP + 1
   \   00006C   E0           MOVX      A,@DPTR
   \   00006D   700B         JNZ       ??ZDO_SendEDBindRsp_0
    560            {
    561              HalLcdWriteString( "Success Sent", HAL_LCD_LINE_2 );
   \   00006F                ; Setup parameters for call to function HalLcdWriteString
   \   00006F   7902         MOV       R1,#0x2
   \   000071   7A..         MOV       R2,#`?<Constant "Success Sent">` & 0xff
   \   000073   7B..         MOV       R3,#(`?<Constant "Success Sent">` >> 8) & 0xff
   \   000075   12....       LCALL     `??HalLcdWriteString::?relay`; Banked call to: HalLcdWriteString
   \   000078   8009         SJMP      ??ZDO_SendEDBindRsp_1
    562            }
    563            else
    564            {
    565              HalLcdWriteString( "Timeout", HAL_LCD_LINE_2 );
   \                     ??ZDO_SendEDBindRsp_0:
   \   00007A                ; Setup parameters for call to function HalLcdWriteString
   \   00007A   7902         MOV       R1,#0x2
   \   00007C   7A..         MOV       R2,#`?<Constant "Timeout">` & 0xff
   \   00007E   7B..         MOV       R3,#(`?<Constant "Timeout">` >> 8) & 0xff
   \   000080   12....       LCALL     `??HalLcdWriteString::?relay`; Banked call to: HalLcdWriteString
    566            }
    567          #endif
    568          
    569          }
   \                     ??ZDO_SendEDBindRsp_1:
   \   000083   7402         MOV       A,#0x2
   \   000085   12....       LCALL     ?DEALLOC_XSTACK8
   \   000088   7F04         MOV       R7,#0x4
   \   00008A   02....       LJMP      ?BANKED_LEAVE_XDATA
    570          #endif // REFLECTOR
    571          
    572          #if ( ZG_BUILD_COORDINATOR_TYPE )
    573          /*********************************************************************
    574           * @fn          ZDO_CompareClusterLists
    575           *
    576           * @brief       Compare one list to another list
    577           *
    578           * @param       numList1 - number of items in list 1
    579           * @param       list1 - first list of cluster IDs
    580           * @param       numList2 - number of items in list 2
    581           * @param       list2 - second list of cluster IDs
    582           * @param       pMatches - buffer to put matches
    583           *
    584           * @return      number of matches
    585           */
    586          static byte ZDO_CompareClusterLists( byte numList1, uint16 *list1,
    587                                    byte numList2, uint16 *list2, uint16 *pMatches )
    588          {
    589            byte x, y;
    590            uint16 z;
    591            byte numMatches = 0;
    592          
    593            // Check the first in against the seconds out
    594            for ( x = 0; x < numList1; x++ )
    595            {
    596              for ( y = 0; y < numList2; y++ )
    597              {
    598                z = list2[y];
    599                if ( list1[x] == z )
    600                {
    601                  pMatches[numMatches++] = z;
    602                }
    603              }
    604            }
    605          
    606            return ( numMatches );
    607          }
    608          #endif // ZG_BUILD_COORDINATOR_TYPE
    609          
    610          /*********************************************************************
    611           * Utility functions
    612           */
    613          
    614          /*********************************************************************
    615           * @fn          ZDO_CompareByteLists
    616           *
    617           * @brief       Compares two lists for matches.
    618           *
    619           * @param       ACnt  - number of entries in list A
    620           * @param       AList  - List A
    621           * @param       BCnt  - number of entries in list B
    622           * @param       BList  - List B
    623           *
    624           * @return      true if a match is found
    625           */

   \                                 In  segment BANKED_CODE, align 1, keep-with-next
    626          byte ZDO_AnyClusterMatches( byte ACnt, uint16 *AList, byte BCnt, uint16 *BList )
   \                     ZDO_AnyClusterMatches:
    627          {
   \   000000                REQUIRE ?V0
   \   000000                REQUIRE ?V1
   \   000000                REQUIRE ?V2
   \   000000                REQUIRE ?V3
   \   000000                REQUIRE ?V4
   \   000000   74F3         MOV       A,#-0xd
   \   000002   12....       LCALL     ?BANKED_ENTER_XDATA
   \   000005                ; Saved register size: 13
   \   000005                ; Auto size: 0
   \   000005   89..         MOV       ?V4,R1
   \   000007   8C..         MOV       ?V2,R4
   \   000009   740D         MOV       A,#0xd
   \   00000B   12....       LCALL     ?XSTACK_DISP0_8
   \   00000E   E0           MOVX      A,@DPTR
   \   00000F   F8           MOV       R0,A
   \   000010   A3           INC       DPTR
   \   000011   E0           MOVX      A,@DPTR
   \   000012   F9           MOV       R1,A
   \   000013   E8           MOV       A,R0
   \   000014   FC           MOV       R4,A
   \   000015   E9           MOV       A,R1
   \   000016   FD           MOV       R5,A
    628            byte x, y;
    629          
    630            for ( x = 0; x < ACnt; x++ )
   \   000017   75..00       MOV       ?V1,#0x0
   \                     ??ZDO_AnyClusterMatches_0:
   \   00001A   E5..         MOV       A,?V1
   \   00001C   C3           CLR       C
   \   00001D   95..         SUBB      A,?V4
   \   00001F   506C         JNC       ??ZDO_AnyClusterMatches_1
    631            {
    632              for ( y = 0; y < BCnt; y++ )
   \   000021   75..00       MOV       ?V0,#0x0
   \                     ??ZDO_AnyClusterMatches_2:
   \   000024   E5..         MOV       A,?V0
   \   000026   C3           CLR       C
   \   000027   95..         SUBB      A,?V2
   \   000029   505E         JNC       ??ZDO_AnyClusterMatches_3
    633              {
    634                if ( AList[x] == BList[y] )
   \   00002B   E5..         MOV       A,?V1
   \   00002D   F8           MOV       R0,A
   \   00002E   7900         MOV       R1,#0x0
   \   000030   E8           MOV       A,R0
   \   000031   75F002       MOV       B,#0x2
   \   000034   A4           MUL       AB
   \   000035   C8           XCH       A,R0
   \   000036   AEF0         MOV       R6,B
   \   000038   75F000       MOV       B,#0x0
   \   00003B   A4           MUL       AB
   \   00003C   2E           ADD       A,R6
   \   00003D   FE           MOV       R6,A
   \   00003E   75F002       MOV       B,#0x2
   \   000041   E9           MOV       A,R1
   \   000042   A4           MUL       AB
   \   000043   2E           ADD       A,R6
   \   000044   F9           MOV       R1,A
   \   000045   EA           MOV       A,R2
   \   000046   28           ADD       A,R0
   \   000047   F582         MOV       DPL,A
   \   000049   EB           MOV       A,R3
   \   00004A   39           ADDC      A,R1
   \   00004B   F583         MOV       DPH,A
   \   00004D   E0           MOVX      A,@DPTR
   \   00004E   F8           MOV       R0,A
   \   00004F   A3           INC       DPTR
   \   000050   E0           MOVX      A,@DPTR
   \   000051   F9           MOV       R1,A
   \   000052   E5..         MOV       A,?V0
   \   000054   FE           MOV       R6,A
   \   000055   7F00         MOV       R7,#0x0
   \   000057   EE           MOV       A,R6
   \   000058   75F002       MOV       B,#0x2
   \   00005B   A4           MUL       AB
   \   00005C   CE           XCH       A,R6
   \   00005D   85F0..       MOV       ?V3,B
   \   000060   75F000       MOV       B,#0x0
   \   000063   A4           MUL       AB
   \   000064   25..         ADD       A,?V3
   \   000066   F5..         MOV       ?V3,A
   \   000068   75F002       MOV       B,#0x2
   \   00006B   EF           MOV       A,R7
   \   00006C   A4           MUL       AB
   \   00006D   25..         ADD       A,?V3
   \   00006F   FF           MOV       R7,A
   \   000070   EC           MOV       A,R4
   \   000071   2E           ADD       A,R6
   \   000072   F582         MOV       DPL,A
   \   000074   ED           MOV       A,R5
   \   000075   3F           ADDC      A,R7
   \   000076   F583         MOV       DPH,A
   \   000078   E0           MOVX      A,@DPTR
   \   000079   68           XRL       A,R0
   \   00007A   7003         JNZ       ??ZDO_AnyClusterMatches_4
   \   00007C   A3           INC       DPTR
   \   00007D   E0           MOVX      A,@DPTR
   \   00007E   69           XRL       A,R1
   \                     ??ZDO_AnyClusterMatches_4:
   \   00007F   7004         JNZ       ??ZDO_AnyClusterMatches_5
    635                {
    636                  return true;
   \   000081   7901         MOV       R1,#0x1
   \   000083   800A         SJMP      ??ZDO_AnyClusterMatches_6
    637                }
    638              }
   \                     ??ZDO_AnyClusterMatches_5:
   \   000085   05..         INC       ?V0
   \   000087   809B         SJMP      ??ZDO_AnyClusterMatches_2
    639            }
   \                     ??ZDO_AnyClusterMatches_3:
   \   000089   05..         INC       ?V1
   \   00008B   808D         SJMP      ??ZDO_AnyClusterMatches_0
    640          
    641            return false;
   \                     ??ZDO_AnyClusterMatches_1:
   \   00008D   7900         MOV       R1,#0x0
   \                     ??ZDO_AnyClusterMatches_6:
   \   00008F   7F05         MOV       R7,#0x5
   \   000091   02....       LJMP      ?BANKED_LEAVE_XDATA
    642          }
    643          
    644          /*********************************************************************
    645           * Callback functions from ZDProfile
    646           */
    647          
    648          
    649          /*********************************************************************
    650           * @fn          ZDO_ProcessNodeDescRsp
    651           *
    652           * @brief       This function processes the Node_Desc_rsp and request
    653           *              Update the TC Link key if the TC supports it.
    654           *
    655           * @param       inMsg - incoming message
    656           *
    657           * @return      none
    658           */

   \                                 In  segment BANKED_CODE, align 1, keep-with-next
    659          void ZDO_ProcessNodeDescRsp ( zdoIncomingMsg_t *inMsg )
   \                     ZDO_ProcessNodeDescRsp:
    660          {
   \   000000                ; Saved register size: 0
   \   000000                ; Auto size: 0
    661          }
   \   000000   02....       LJMP      ?BRET
    662          
    663          
    664          
    665          /*********************************************************************
    666           * @fn          ZDO_ProcessNodeDescReq
    667           *
    668           * @brief       This function processes and responds to the
    669           *              Node_Desc_req message.
    670           *
    671           * @param       inMsg - incoming message
    672           *
    673           * @return      none
    674           */

   \                                 In  segment BANKED_CODE, align 1, keep-with-next
    675          void ZDO_ProcessNodeDescReq( zdoIncomingMsg_t *inMsg )
   \                     ZDO_ProcessNodeDescReq:
    676          {
   \   000000                REQUIRE ?V0
   \   000000                REQUIRE ?V1
   \   000000                REQUIRE ?V2
   \   000000                REQUIRE ?V3
   \   000000                REQUIRE ?V4
   \   000000                REQUIRE ?V5
   \   000000   74F2         MOV       A,#-0xe
   \   000002   12....       LCALL     ?BANKED_ENTER_XDATA
   \   000005                ; Saved register size: 14
   \   000005                ; Auto size: 0
   \   000005   EA           MOV       A,R2
   \   000006   FE           MOV       R6,A
   \   000007   EB           MOV       A,R3
   \   000008   FF           MOV       R7,A
    677            uint16 aoi = BUILD_UINT16( inMsg->asdu[0], inMsg->asdu[1] );
   \   000009   EE           MOV       A,R6
   \   00000A   2413         ADD       A,#0x13
   \   00000C   F582         MOV       DPL,A
   \   00000E   E4           CLR       A
   \   00000F   3F           ADDC      A,R7
   \   000010   F583         MOV       DPH,A
   \   000012   E0           MOVX      A,@DPTR
   \   000013   F8           MOV       R0,A
   \   000014   A3           INC       DPTR
   \   000015   E0           MOVX      A,@DPTR
   \   000016   F583         MOV       DPH,A
   \   000018   8882         MOV       DPL,R0
   \   00001A   E0           MOVX      A,@DPTR
   \   00001B   FA           MOV       R2,A
   \   00001C   7B00         MOV       R3,#0x0
   \   00001E   EE           MOV       A,R6
   \   00001F   2413         ADD       A,#0x13
   \   000021   F582         MOV       DPL,A
   \   000023   E4           CLR       A
   \   000024   3F           ADDC      A,R7
   \   000025   F583         MOV       DPH,A
   \   000027   E0           MOVX      A,@DPTR
   \   000028   F8           MOV       R0,A
   \   000029   A3           INC       DPTR
   \   00002A   E0           MOVX      A,@DPTR
   \   00002B   F583         MOV       DPH,A
   \   00002D   8882         MOV       DPL,R0
   \   00002F   A3           INC       DPTR
   \   000030   E0           MOVX      A,@DPTR
   \   000031   F8           MOV       R0,A
   \   000032   7900         MOV       R1,#0x0
   \   000034   E4           CLR       A
   \   000035   C8           XCH       A,R0
   \   000036   F9           MOV       R1,A
   \   000037   EA           MOV       A,R2
   \   000038   28           ADD       A,R0
   \   000039   F5..         MOV       ?V0,A
   \   00003B   EB           MOV       A,R3
   \   00003C   39           ADDC      A,R1
   \   00003D   F5..         MOV       ?V1,A
    678            NodeDescriptorFormat_t *desc = NULL;
   \   00003F   75..00       MOV       ?V2,#0x0
   \   000042   75..00       MOV       ?V3,#0x0
    679          
    680            if ( aoi == ZDAppNwkAddr.addr.shortAddr )
   \   000045   90....       MOV       DPTR,#ZDAppNwkAddr
   \   000048   E0           MOVX      A,@DPTR
   \   000049   65..         XRL       A,?V0
   \   00004B   7004         JNZ       ??ZDO_ProcessNodeDescReq_0
   \   00004D   A3           INC       DPTR
   \   00004E   E0           MOVX      A,@DPTR
   \   00004F   65..         XRL       A,?V1
   \                     ??ZDO_ProcessNodeDescReq_0:
   \   000051   7006         JNZ       ??ZDO_ProcessNodeDescReq_1
    681            {
    682              desc = &ZDO_Config_Node_Descriptor;
   \   000053   75....       MOV       ?V2,#ZDO_Config_Node_Descriptor & 0xff
   \   000056   75....       MOV       ?V3,#(ZDO_Config_Node_Descriptor >> 8) & 0xff
    683            }
    684          
    685            if ( desc != NULL )
   \                     ??ZDO_ProcessNodeDescReq_1:
   \   000059   E5..         MOV       A,?V2
   \   00005B   45..         ORL       A,?V3
   \   00005D   6018         JZ        ??ZDO_ProcessNodeDescReq_2
    686            {
    687              ZDP_NodeDescMsg( inMsg, aoi, desc );
   \   00005F                ; Setup parameters for call to function ZDP_NodeDescMsg
   \   00005F   78..         MOV       R0,#?V2
   \   000061   12....       LCALL     ?PUSH_XSTACK_I_TWO
   \   000064   AC..         MOV       R4,?V0
   \   000066   AD..         MOV       R5,?V1
   \   000068   EE           MOV       A,R6
   \   000069   FA           MOV       R2,A
   \   00006A   EF           MOV       A,R7
   \   00006B   FB           MOV       R3,A
   \   00006C   12....       LCALL     `??ZDP_NodeDescMsg::?relay`; Banked call to: ZDP_NodeDescMsg
   \   00006F   7402         MOV       A,#0x2
   \   000071   12....       LCALL     ?DEALLOC_XSTACK8
   \   000074   E9           MOV       A,R1
   \   000075   8038         SJMP      ??ZDO_ProcessNodeDescReq_3
    688            }
    689            else
    690            {
    691              ZDP_GenericRsp( inMsg->TransSeq, &(inMsg->srcAddr),
    692                        ZDP_INVALID_REQTYPE, aoi, Node_Desc_rsp, inMsg->SecurityUse );
   \                     ??ZDO_ProcessNodeDescReq_2:
   \   000077                ; Setup parameters for call to function ZDP_GenericRsp
   \   000077   75..02       MOV       ?V4,#0x2
   \   00007A   75..80       MOV       ?V5,#-0x80
   \   00007D   78..         MOV       R0,#?V4
   \   00007F   12....       LCALL     ?PUSH_XSTACK_I_TWO
   \   000082   78..         MOV       R0,#?V0
   \   000084   12....       LCALL     ?PUSH_XSTACK_I_TWO
   \   000087   EE           MOV       A,R6
   \   000088   240E         ADD       A,#0xe
   \   00008A   F582         MOV       DPL,A
   \   00008C   E4           CLR       A
   \   00008D   3F           ADDC      A,R7
   \   00008E   F583         MOV       DPH,A
   \   000090   E0           MOVX      A,@DPTR
   \   000091   FD           MOV       R5,A
   \   000092   7C80         MOV       R4,#-0x80
   \   000094   EE           MOV       A,R6
   \   000095   2402         ADD       A,#0x2
   \   000097   FA           MOV       R2,A
   \   000098   E4           CLR       A
   \   000099   3F           ADDC      A,R7
   \   00009A   FB           MOV       R3,A
   \   00009B   EE           MOV       A,R6
   \   00009C   240F         ADD       A,#0xf
   \   00009E   F582         MOV       DPL,A
   \   0000A0   E4           CLR       A
   \   0000A1   3F           ADDC      A,R7
   \   0000A2   F583         MOV       DPH,A
   \   0000A4   E0           MOVX      A,@DPTR
   \   0000A5   F9           MOV       R1,A
   \   0000A6   12....       LCALL     `??ZDP_GenericRsp::?relay`; Banked call to: ZDP_GenericRsp
   \   0000A9   7404         MOV       A,#0x4
   \   0000AB   12....       LCALL     ?DEALLOC_XSTACK8
   \   0000AE   E9           MOV       A,R1
    693            }
    694          }
   \                     ??ZDO_ProcessNodeDescReq_3:
   \   0000AF   7F06         MOV       R7,#0x6
   \   0000B1   02....       LJMP      ?BANKED_LEAVE_XDATA
    695          
    696          /*********************************************************************
    697           * @fn          ZDO_ProcessPowerDescReq
    698           *
    699           * @brief       This function processes and responds to the
    700           *              Node_Power_req message.
    701           *
    702           * @param       inMsg  - incoming request
    703           *
    704           * @return      none
    705           */

   \                                 In  segment BANKED_CODE, align 1, keep-with-next
    706          void ZDO_ProcessPowerDescReq( zdoIncomingMsg_t *inMsg )
   \                     ZDO_ProcessPowerDescReq:
    707          {
   \   000000                REQUIRE ?V0
   \   000000                REQUIRE ?V1
   \   000000                REQUIRE ?V2
   \   000000                REQUIRE ?V3
   \   000000                REQUIRE ?V4
   \   000000                REQUIRE ?V5
   \   000000   74F2         MOV       A,#-0xe
   \   000002   12....       LCALL     ?BANKED_ENTER_XDATA
   \   000005                ; Saved register size: 14
   \   000005                ; Auto size: 0
   \   000005   EA           MOV       A,R2
   \   000006   FE           MOV       R6,A
   \   000007   EB           MOV       A,R3
   \   000008   FF           MOV       R7,A
    708            uint16 aoi = BUILD_UINT16( inMsg->asdu[0], inMsg->asdu[1] );
   \   000009   EE           MOV       A,R6
   \   00000A   2413         ADD       A,#0x13
   \   00000C   F582         MOV       DPL,A
   \   00000E   E4           CLR       A
   \   00000F   3F           ADDC      A,R7
   \   000010   F583         MOV       DPH,A
   \   000012   E0           MOVX      A,@DPTR
   \   000013   F8           MOV       R0,A
   \   000014   A3           INC       DPTR
   \   000015   E0           MOVX      A,@DPTR
   \   000016   F583         MOV       DPH,A
   \   000018   8882         MOV       DPL,R0
   \   00001A   E0           MOVX      A,@DPTR
   \   00001B   FA           MOV       R2,A
   \   00001C   7B00         MOV       R3,#0x0
   \   00001E   EE           MOV       A,R6
   \   00001F   2413         ADD       A,#0x13
   \   000021   F582         MOV       DPL,A
   \   000023   E4           CLR       A
   \   000024   3F           ADDC      A,R7
   \   000025   F583         MOV       DPH,A
   \   000027   E0           MOVX      A,@DPTR
   \   000028   F8           MOV       R0,A
   \   000029   A3           INC       DPTR
   \   00002A   E0           MOVX      A,@DPTR
   \   00002B   F583         MOV       DPH,A
   \   00002D   8882         MOV       DPL,R0
   \   00002F   A3           INC       DPTR
   \   000030   E0           MOVX      A,@DPTR
   \   000031   F8           MOV       R0,A
   \   000032   7900         MOV       R1,#0x0
   \   000034   E4           CLR       A
   \   000035   C8           XCH       A,R0
   \   000036   F9           MOV       R1,A
   \   000037   EA           MOV       A,R2
   \   000038   28           ADD       A,R0
   \   000039   F5..         MOV       ?V0,A
   \   00003B   EB           MOV       A,R3
   \   00003C   39           ADDC      A,R1
   \   00003D   F5..         MOV       ?V1,A
    709            NodePowerDescriptorFormat_t *desc = NULL;
   \   00003F   75..00       MOV       ?V2,#0x0
   \   000042   75..00       MOV       ?V3,#0x0
    710          
    711            if ( aoi == ZDAppNwkAddr.addr.shortAddr )
   \   000045   90....       MOV       DPTR,#ZDAppNwkAddr
   \   000048   E0           MOVX      A,@DPTR
   \   000049   65..         XRL       A,?V0
   \   00004B   7004         JNZ       ??ZDO_ProcessPowerDescReq_0
   \   00004D   A3           INC       DPTR
   \   00004E   E0           MOVX      A,@DPTR
   \   00004F   65..         XRL       A,?V1
   \                     ??ZDO_ProcessPowerDescReq_0:
   \   000051   7006         JNZ       ??ZDO_ProcessPowerDescReq_1
    712            {
    713              desc = &ZDO_Config_Power_Descriptor;
   \   000053   75....       MOV       ?V2,#ZDO_Config_Power_Descriptor & 0xff
   \   000056   75....       MOV       ?V3,#(ZDO_Config_Power_Descriptor >> 8) & 0xff
    714            }
    715          
    716            if ( desc != NULL )
   \                     ??ZDO_ProcessPowerDescReq_1:
   \   000059   E5..         MOV       A,?V2
   \   00005B   45..         ORL       A,?V3
   \   00005D   6018         JZ        ??ZDO_ProcessPowerDescReq_2
    717            {
    718              ZDP_PowerDescMsg( inMsg, aoi, desc );
   \   00005F                ; Setup parameters for call to function ZDP_PowerDescMsg
   \   00005F   78..         MOV       R0,#?V2
   \   000061   12....       LCALL     ?PUSH_XSTACK_I_TWO
   \   000064   AC..         MOV       R4,?V0
   \   000066   AD..         MOV       R5,?V1
   \   000068   EE           MOV       A,R6
   \   000069   FA           MOV       R2,A
   \   00006A   EF           MOV       A,R7
   \   00006B   FB           MOV       R3,A
   \   00006C   12....       LCALL     `??ZDP_PowerDescMsg::?relay`; Banked call to: ZDP_PowerDescMsg
   \   00006F   7402         MOV       A,#0x2
   \   000071   12....       LCALL     ?DEALLOC_XSTACK8
   \   000074   E9           MOV       A,R1
   \   000075   8038         SJMP      ??ZDO_ProcessPowerDescReq_3
    719            }
    720            else
    721            {
    722              ZDP_GenericRsp( inMsg->TransSeq, &(inMsg->srcAddr),
    723                        ZDP_INVALID_REQTYPE, aoi, Power_Desc_rsp, inMsg->SecurityUse );
   \                     ??ZDO_ProcessPowerDescReq_2:
   \   000077                ; Setup parameters for call to function ZDP_GenericRsp
   \   000077   75..03       MOV       ?V4,#0x3
   \   00007A   75..80       MOV       ?V5,#-0x80
   \   00007D   78..         MOV       R0,#?V4
   \   00007F   12....       LCALL     ?PUSH_XSTACK_I_TWO
   \   000082   78..         MOV       R0,#?V0
   \   000084   12....       LCALL     ?PUSH_XSTACK_I_TWO
   \   000087   EE           MOV       A,R6
   \   000088   240E         ADD       A,#0xe
   \   00008A   F582         MOV       DPL,A
   \   00008C   E4           CLR       A
   \   00008D   3F           ADDC      A,R7
   \   00008E   F583         MOV       DPH,A
   \   000090   E0           MOVX      A,@DPTR
   \   000091   FD           MOV       R5,A
   \   000092   7C80         MOV       R4,#-0x80
   \   000094   EE           MOV       A,R6
   \   000095   2402         ADD       A,#0x2
   \   000097   FA           MOV       R2,A
   \   000098   E4           CLR       A
   \   000099   3F           ADDC      A,R7
   \   00009A   FB           MOV       R3,A
   \   00009B   EE           MOV       A,R6
   \   00009C   240F         ADD       A,#0xf
   \   00009E   F582         MOV       DPL,A
   \   0000A0   E4           CLR       A
   \   0000A1   3F           ADDC      A,R7
   \   0000A2   F583         MOV       DPH,A
   \   0000A4   E0           MOVX      A,@DPTR
   \   0000A5   F9           MOV       R1,A
   \   0000A6   12....       LCALL     `??ZDP_GenericRsp::?relay`; Banked call to: ZDP_GenericRsp
   \   0000A9   7404         MOV       A,#0x4
   \   0000AB   12....       LCALL     ?DEALLOC_XSTACK8
   \   0000AE   E9           MOV       A,R1
    724            }
    725          }
   \                     ??ZDO_ProcessPowerDescReq_3:
   \   0000AF   7F06         MOV       R7,#0x6
   \   0000B1   02....       LJMP      ?BANKED_LEAVE_XDATA
    726          
    727          /*********************************************************************
    728           * @fn          ZDO_ProcessSimpleDescReq
    729           *
    730           * @brief       This function processes and responds to the
    731           *              Simple_Desc_req message.
    732           *
    733           * @param       inMsg - incoming message (request)
    734           *
    735           * @return      none
    736           */

   \                                 In  segment BANKED_CODE, align 1, keep-with-next
    737          void ZDO_ProcessSimpleDescReq( zdoIncomingMsg_t *inMsg )
   \                     ZDO_ProcessSimpleDescReq:
    738          {
   \   000000                REQUIRE ?V0
   \   000000                REQUIRE ?V1
   \   000000                REQUIRE ?V2
   \   000000                REQUIRE ?V3
   \   000000                REQUIRE ?V4
   \   000000   74F3         MOV       A,#-0xd
   \   000002   12....       LCALL     ?BANKED_ENTER_XDATA
   \   000005                ; Saved register size: 13
   \   000005                ; Auto size: 2
   \   000005   74FE         MOV       A,#-0x2
   \   000007   12....       LCALL     ?ALLOC_XSTACK8
   \   00000A   8A..         MOV       ?V0,R2
   \   00000C   8B..         MOV       ?V1,R3
    739            SimpleDescriptionFormat_t *sDesc = NULL;
   \   00000E   85..82       MOV       DPL,?XSP + 0
   \   000011   85..83       MOV       DPH,?XSP + 1
   \   000014   7400         MOV       A,#0x0
   \   000016   F0           MOVX      @DPTR,A
   \   000017   A3           INC       DPTR
   \   000018   7400         MOV       A,#0x0
   \   00001A   F0           MOVX      @DPTR,A
    740            uint16 aoi = BUILD_UINT16( inMsg->asdu[0], inMsg->asdu[1] );
   \   00001B   E5..         MOV       A,?V0
   \   00001D   2413         ADD       A,#0x13
   \   00001F   F582         MOV       DPL,A
   \   000021   E4           CLR       A
   \   000022   35..         ADDC      A,?V1
   \   000024   F583         MOV       DPH,A
   \   000026   E0           MOVX      A,@DPTR
   \   000027   F8           MOV       R0,A
   \   000028   A3           INC       DPTR
   \   000029   E0           MOVX      A,@DPTR
   \   00002A   F583         MOV       DPH,A
   \   00002C   8882         MOV       DPL,R0
   \   00002E   E0           MOVX      A,@DPTR
   \   00002F   FA           MOV       R2,A
   \   000030   7B00         MOV       R3,#0x0
   \   000032   E5..         MOV       A,?V0
   \   000034   2413         ADD       A,#0x13
   \   000036   F582         MOV       DPL,A
   \   000038   E4           CLR       A
   \   000039   35..         ADDC      A,?V1
   \   00003B   F583         MOV       DPH,A
   \   00003D   E0           MOVX      A,@DPTR
   \   00003E   F8           MOV       R0,A
   \   00003F   A3           INC       DPTR
   \   000040   E0           MOVX      A,@DPTR
   \   000041   F583         MOV       DPH,A
   \   000043   8882         MOV       DPL,R0
   \   000045   A3           INC       DPTR
   \   000046   E0           MOVX      A,@DPTR
   \   000047   F8           MOV       R0,A
   \   000048   7900         MOV       R1,#0x0
   \   00004A   E4           CLR       A
   \   00004B   C8           XCH       A,R0
   \   00004C   F9           MOV       R1,A
   \   00004D   EA           MOV       A,R2
   \   00004E   28           ADD       A,R0
   \   00004F   FE           MOV       R6,A
   \   000050   EB           MOV       A,R3
   \   000051   39           ADDC      A,R1
   \   000052   FF           MOV       R7,A
    741            byte endPoint = inMsg->asdu[2];
   \   000053   E5..         MOV       A,?V0
   \   000055   2413         ADD       A,#0x13
   \   000057   F582         MOV       DPL,A
   \   000059   E4           CLR       A
   \   00005A   35..         ADDC      A,?V1
   \   00005C   F583         MOV       DPH,A
   \   00005E   E0           MOVX      A,@DPTR
   \   00005F   F8           MOV       R0,A
   \   000060   A3           INC       DPTR
   \   000061   E0           MOVX      A,@DPTR
   \   000062   F583         MOV       DPH,A
   \   000064   8882         MOV       DPL,R0
   \   000066   A3           INC       DPTR
   \   000067   A3           INC       DPTR
   \   000068   E0           MOVX      A,@DPTR
   \   000069   F5..         MOV       ?V4,A
    742            byte free = false;
   \   00006B   75..00       MOV       ?V3,#0x0
    743            byte stat = ZDP_SUCCESS;
   \   00006E   75..00       MOV       ?V2,#0x0
    744          
    745            if ( (endPoint == ZDO_EP) || (endPoint > MAX_ENDPOINTS) )
   \   000071   E5..         MOV       A,?V4
   \   000073   6006         JZ        ??ZDO_ProcessSimpleDescReq_0
   \   000075   74FF         MOV       A,#-0x1
   \   000077   65..         XRL       A,?V4
   \   000079   7005         JNZ       ??ZDO_ProcessSimpleDescReq_1
    746            {
    747              stat = ZDP_INVALID_EP;
   \                     ??ZDO_ProcessSimpleDescReq_0:
   \   00007B   75..82       MOV       ?V2,#-0x7e
   \   00007E   802F         SJMP      ??ZDO_ProcessSimpleDescReq_2
    748            }
    749            else if ( aoi == ZDAppNwkAddr.addr.shortAddr )
   \                     ??ZDO_ProcessSimpleDescReq_1:
   \   000080   90....       MOV       DPTR,#ZDAppNwkAddr
   \   000083   E0           MOVX      A,@DPTR
   \   000084   6E           XRL       A,R6
   \   000085   7003         JNZ       ??ZDO_ProcessSimpleDescReq_3
   \   000087   A3           INC       DPTR
   \   000088   E0           MOVX      A,@DPTR
   \   000089   6F           XRL       A,R7
   \                     ??ZDO_ProcessSimpleDescReq_3:
   \   00008A   7020         JNZ       ??ZDO_ProcessSimpleDescReq_4
    750            {
    751              free = afFindSimpleDesc( &sDesc, endPoint );
   \   00008C                ; Setup parameters for call to function afFindSimpleDesc
   \   00008C   A9..         MOV       R1,?V4
   \   00008E   AA..         MOV       R2,?XSP + 0
   \   000090   AB..         MOV       R3,?XSP + 1
   \   000092   12....       LCALL     `??afFindSimpleDesc::?relay`; Banked call to: afFindSimpleDesc
   \   000095   E9           MOV       A,R1
   \   000096   F5..         MOV       ?V3,A
    752              if ( sDesc == NULL )
   \   000098   85..82       MOV       DPL,?XSP + 0
   \   00009B   85..83       MOV       DPH,?XSP + 1
   \   00009E   E0           MOVX      A,@DPTR
   \   00009F   F8           MOV       R0,A
   \   0000A0   A3           INC       DPTR
   \   0000A1   E0           MOVX      A,@DPTR
   \   0000A2   F9           MOV       R1,A
   \   0000A3   E8           MOV       A,R0
   \   0000A4   49           ORL       A,R1
   \   0000A5   7008         JNZ       ??ZDO_ProcessSimpleDescReq_2
    753              {
    754                stat = ZDP_NOT_ACTIVE;
   \   0000A7   75..83       MOV       ?V2,#-0x7d
   \   0000AA   8003         SJMP      ??ZDO_ProcessSimpleDescReq_2
    755              }
    756            }
    757            else
    758            {
    759              if ( ZSTACK_ROUTER_BUILD )
    760              {
    761                //If child found, then no descriptor
    762                if(AssocIsChild(aoi))
    763                {
    764                  stat = ZDP_NO_DESCRIPTOR;
    765                }
    766                //Otherwise no device found
    767                else
    768                {
    769                  stat = ZDP_DEVICE_NOT_FOUND;
    770                }
    771              }
    772              else if ( ZSTACK_END_DEVICE_BUILD )
    773              {
    774                stat = ZDP_INVALID_REQTYPE;
   \                     ??ZDO_ProcessSimpleDescReq_4:
   \   0000AC   75..80       MOV       ?V2,#-0x80
    775              }
    776            }
    777          
    778            ZDP_SimpleDescMsg( inMsg, stat, sDesc );
   \                     ??ZDO_ProcessSimpleDescReq_2:
   \   0000AF                ; Setup parameters for call to function ZDP_SimpleDescMsg
   \   0000AF   85..82       MOV       DPL,?XSP + 0
   \   0000B2   85..83       MOV       DPH,?XSP + 1
   \   0000B5   E0           MOVX      A,@DPTR
   \   0000B6   FC           MOV       R4,A
   \   0000B7   A3           INC       DPTR
   \   0000B8   E0           MOVX      A,@DPTR
   \   0000B9   FD           MOV       R5,A
   \   0000BA   A9..         MOV       R1,?V2
   \   0000BC   AA..         MOV       R2,?V0
   \   0000BE   AB..         MOV       R3,?V1
   \   0000C0   12....       LCALL     `??ZDP_SimpleDescMsg::?relay`; Banked call to: ZDP_SimpleDescMsg
   \   0000C3   E9           MOV       A,R1
    779          
    780            if ( free && sDesc )
   \   0000C4   E5..         MOV       A,?V3
   \   0000C6   601D         JZ        ??ZDO_ProcessSimpleDescReq_5
   \   0000C8   85..82       MOV       DPL,?XSP + 0
   \   0000CB   85..83       MOV       DPH,?XSP + 1
   \   0000CE   E0           MOVX      A,@DPTR
   \   0000CF   F8           MOV       R0,A
   \   0000D0   A3           INC       DPTR
   \   0000D1   E0           MOVX      A,@DPTR
   \   0000D2   F9           MOV       R1,A
   \   0000D3   E8           MOV       A,R0
   \   0000D4   49           ORL       A,R1
   \   0000D5   600E         JZ        ??ZDO_ProcessSimpleDescReq_5
    781            {
    782              osal_mem_free( sDesc );
   \   0000D7                ; Setup parameters for call to function osal_mem_free
   \   0000D7   85..82       MOV       DPL,?XSP + 0
   \   0000DA   85..83       MOV       DPH,?XSP + 1
   \   0000DD   E0           MOVX      A,@DPTR
   \   0000DE   FA           MOV       R2,A
   \   0000DF   A3           INC       DPTR
   \   0000E0   E0           MOVX      A,@DPTR
   \   0000E1   FB           MOV       R3,A
   \   0000E2   12....       LCALL     `??osal_mem_free::?relay`; Banked call to: osal_mem_free
    783            }
    784          }
   \                     ??ZDO_ProcessSimpleDescReq_5:
   \   0000E5   7402         MOV       A,#0x2
   \   0000E7   12....       LCALL     ?DEALLOC_XSTACK8
   \   0000EA   7F05         MOV       R7,#0x5
   \   0000EC   02....       LJMP      ?BANKED_LEAVE_XDATA
    785          
    786          /*********************************************************************
    787           * @fn          ZDO_ProcessSimpleDescRsp
    788           *
    789           * @brief       This function processes and responds to the
    790           *              Simple_Desc_rsp message.
    791           *
    792           * @param       inMsg - incoming message (request)
    793           *
    794           * @return      none
    795           */

   \                                 In  segment BANKED_CODE, align 1, keep-with-next
    796          void ZDO_ProcessSimpleDescRsp( zdoIncomingMsg_t *inMsg )
   \                     ZDO_ProcessSimpleDescRsp:
    797          {
   \   000000                ; Saved register size: 0
   \   000000                ; Auto size: 0
    798          
    799          }
   \   000000   02....       LJMP      ?BRET
    800          
    801          /*********************************************************************
    802           * @fn          ZDO_ProcessActiveEPReq
    803           *
    804           * @brief       This function processes and responds to the
    805           *              Active_EP_req message.
    806           *
    807           * @param       inMsg  - incoming message (request)
    808           *
    809           * @return      none
    810           */

   \                                 In  segment BANKED_CODE, align 1, keep-with-next
    811          void ZDO_ProcessActiveEPReq( zdoIncomingMsg_t *inMsg )
   \                     ZDO_ProcessActiveEPReq:
    812          {
   \   000000                REQUIRE ?V0
   \   000000                REQUIRE ?V1
   \   000000                REQUIRE ?V2
   \   000000                REQUIRE ?V3
   \   000000                REQUIRE ?V4
   \   000000                REQUIRE ?V5
   \   000000   74F2         MOV       A,#-0xe
   \   000002   12....       LCALL     ?BANKED_ENTER_XDATA
   \   000005                ; Saved register size: 14
   \   000005                ; Auto size: 0
   \   000005   EA           MOV       A,R2
   \   000006   FE           MOV       R6,A
   \   000007   EB           MOV       A,R3
   \   000008   FF           MOV       R7,A
    813            byte cnt = 0;
   \   000009   75..00       MOV       ?V0,#0x0
    814            uint16 aoi;
    815            byte stat = ZDP_SUCCESS;
   \   00000C   75..00       MOV       ?V1,#0x0
    816          
    817            aoi = BUILD_UINT16( inMsg->asdu[0], inMsg->asdu[1] );
   \   00000F   EE           MOV       A,R6
   \   000010   2413         ADD       A,#0x13
   \   000012   F582         MOV       DPL,A
   \   000014   E4           CLR       A
   \   000015   3F           ADDC      A,R7
   \   000016   F583         MOV       DPH,A
   \   000018   E0           MOVX      A,@DPTR
   \   000019   F8           MOV       R0,A
   \   00001A   A3           INC       DPTR
   \   00001B   E0           MOVX      A,@DPTR
   \   00001C   F583         MOV       DPH,A
   \   00001E   8882         MOV       DPL,R0
   \   000020   E0           MOVX      A,@DPTR
   \   000021   FA           MOV       R2,A
   \   000022   7B00         MOV       R3,#0x0
   \   000024   EE           MOV       A,R6
   \   000025   2413         ADD       A,#0x13
   \   000027   F582         MOV       DPL,A
   \   000029   E4           CLR       A
   \   00002A   3F           ADDC      A,R7
   \   00002B   F583         MOV       DPH,A
   \   00002D   E0           MOVX      A,@DPTR
   \   00002E   F8           MOV       R0,A
   \   00002F   A3           INC       DPTR
   \   000030   E0           MOVX      A,@DPTR
   \   000031   F583         MOV       DPH,A
   \   000033   8882         MOV       DPL,R0
   \   000035   A3           INC       DPTR
   \   000036   E0           MOVX      A,@DPTR
   \   000037   F8           MOV       R0,A
   \   000038   7900         MOV       R1,#0x0
   \   00003A   E4           CLR       A
   \   00003B   C8           XCH       A,R0
   \   00003C   F9           MOV       R1,A
   \   00003D   EA           MOV       A,R2
   \   00003E   28           ADD       A,R0
   \   00003F   F8           MOV       R0,A
   \   000040   EB           MOV       A,R3
   \   000041   39           ADDC      A,R1
   \   000042   F9           MOV       R1,A
   \   000043   88..         MOV       ?V2,R0
   \   000045   89..         MOV       ?V3,R1
    818          
    819            if ( aoi == NLME_GetShortAddr() )
   \   000047                ; Setup parameters for call to function NLME_GetShortAddr
   \   000047   12....       LCALL     `??NLME_GetShortAddr::?relay`; Banked call to: NLME_GetShortAddr
   \   00004A   8A..         MOV       ?V4,R2
   \   00004C   8B..         MOV       ?V5,R3
   \   00004E   E5..         MOV       A,?V4
   \   000050   65..         XRL       A,?V2
   \   000052   7004         JNZ       ??ZDO_ProcessActiveEPReq_0
   \   000054   E5..         MOV       A,?V5
   \   000056   65..         XRL       A,?V3
   \                     ??ZDO_ProcessActiveEPReq_0:
   \   000058   7013         JNZ       ??ZDO_ProcessActiveEPReq_1
    820            {
    821              cnt = afNumEndPoints() - 1;  // -1 for ZDO endpoint descriptor
   \   00005A                ; Setup parameters for call to function afNumEndPoints
   \   00005A   12....       LCALL     `??afNumEndPoints::?relay`; Banked call to: afNumEndPoints
   \   00005D   E9           MOV       A,R1
   \   00005E   24FF         ADD       A,#-0x1
   \   000060   F5..         MOV       ?V0,A
    822              afEndPoints( (uint8 *)ZDOBuildBuf, true );
   \   000062                ; Setup parameters for call to function afEndPoints
   \   000062   7901         MOV       R1,#0x1
   \   000064   7A..         MOV       R2,#ZDOBuildBuf & 0xff
   \   000066   7B..         MOV       R3,#(ZDOBuildBuf >> 8) & 0xff
   \   000068   12....       LCALL     `??afEndPoints::?relay`; Banked call to: afEndPoints
   \   00006B   8003         SJMP      ??ZDO_ProcessActiveEPReq_2
    823            }
    824            else
    825            {
    826              if(ZG_BUILD_ENDDEVICE_TYPE)
    827              {
    828                stat = ZDP_INVALID_REQTYPE;
   \                     ??ZDO_ProcessActiveEPReq_1:
   \   00006D   75..80       MOV       ?V1,#-0x80
    829              }
    830              else
    831              {
    832                stat = ZDP_DEVICE_NOT_FOUND;
    833              }
    834            }
    835          
    836            ZDP_ActiveEPRsp( inMsg->TransSeq, &(inMsg->srcAddr), stat,
    837                            aoi, cnt, (uint8 *)ZDOBuildBuf, inMsg->SecurityUse );
   \                     ??ZDO_ProcessActiveEPReq_2:
   \   000070                ; Setup parameters for call to function ZDP_EPRsp
   \   000070   EE           MOV       A,R6
   \   000071   240E         ADD       A,#0xe
   \   000073   F582         MOV       DPL,A
   \   000075   E4           CLR       A
   \   000076   3F           ADDC      A,R7
   \   000077   F583         MOV       DPH,A
   \   000079   E0           MOVX      A,@DPTR
   \   00007A   F5..         MOV       ?V4,A
   \   00007C   78..         MOV       R0,#?V4
   \   00007E   12....       LCALL     ?PUSH_XSTACK_I_ONE
   \   000081   75....       MOV       ?V4,#ZDOBuildBuf & 0xff
   \   000084   75....       MOV       ?V5,#(ZDOBuildBuf >> 8) & 0xff
   \   000087   78..         MOV       R0,#?V4
   \   000089   12....       LCALL     ?PUSH_XSTACK_I_TWO
   \   00008C   E5..         MOV       A,?V0
   \   00008E   F5..         MOV       ?V4,A
   \   000090   78..         MOV       R0,#?V4
   \   000092   12....       LCALL     ?PUSH_XSTACK_I_ONE
   \   000095   78..         MOV       R0,#?V2
   \   000097   12....       LCALL     ?PUSH_XSTACK_I_TWO
   \   00009A   E5..         MOV       A,?V1
   \   00009C   F5..         MOV       ?V4,A
   \   00009E   78..         MOV       R0,#?V4
   \   0000A0   12....       LCALL     ?PUSH_XSTACK_I_ONE
   \   0000A3   EE           MOV       A,R6
   \   0000A4   2402         ADD       A,#0x2
   \   0000A6   FC           MOV       R4,A
   \   0000A7   E4           CLR       A
   \   0000A8   3F           ADDC      A,R7
   \   0000A9   FD           MOV       R5,A
   \   0000AA   EE           MOV       A,R6
   \   0000AB   240F         ADD       A,#0xf
   \   0000AD   F582         MOV       DPL,A
   \   0000AF   E4           CLR       A
   \   0000B0   3F           ADDC      A,R7
   \   0000B1   F583         MOV       DPH,A
   \   0000B3   E0           MOVX      A,@DPTR
   \   0000B4   F9           MOV       R1,A
   \   0000B5   7A05         MOV       R2,#0x5
   \   0000B7   7B80         MOV       R3,#-0x80
   \   0000B9   12....       LCALL     `??ZDP_EPRsp::?relay`; Banked call to: ZDP_EPRsp
   \   0000BC   7407         MOV       A,#0x7
   \   0000BE   12....       LCALL     ?DEALLOC_XSTACK8
   \   0000C1   E9           MOV       A,R1
    838          }
   \   0000C2   7F06         MOV       R7,#0x6
   \   0000C4   02....       LJMP      ?BANKED_LEAVE_XDATA
    839          
    840          /*********************************************************************
    841           * @fn          ZDO_ConvertOTAClusters
    842           *
    843           * @brief       This function will convert the over-the-air cluster list
    844           *              format to an internal format.
    845           *
    846           * @param       inMsg  - incoming message (request)
    847           *
    848           * @return      pointer to incremented inBuf
    849           */

   \                                 In  segment BANKED_CODE, align 1, keep-with-next
    850          uint8 *ZDO_ConvertOTAClusters( uint8 cnt, uint8 *inBuf, uint16 *outList )
   \                     ZDO_ConvertOTAClusters:
    851          {
   \   000000                REQUIRE ?V0
   \   000000                REQUIRE ?V1
   \   000000                REQUIRE ?V2
   \   000000   74F5         MOV       A,#-0xb
   \   000002   12....       LCALL     ?BANKED_ENTER_XDATA
   \   000005                ; Saved register size: 11
   \   000005                ; Auto size: 0
   \   000005   E9           MOV       A,R1
   \   000006   FF           MOV       R7,A
    852            uint8 x;
    853          
    854            for ( x = 0; x < cnt; x++ )
   \   000007   7E00         MOV       R6,#0x0
   \                     ??ZDO_ConvertOTAClusters_0:
   \   000009   EE           MOV       A,R6
   \   00000A   C3           CLR       C
   \   00000B   9F           SUBB      A,R7
   \   00000C   5056         JNC       ??ZDO_ConvertOTAClusters_1
    855            {
    856              // convert ota format to internal
    857              outList[x] = BUILD_UINT16( inBuf[0], inBuf[1] );
   \   00000E   8A82         MOV       DPL,R2
   \   000010   8B83         MOV       DPH,R3
   \   000012   E0           MOVX      A,@DPTR
   \   000013   F5..         MOV       ?V0,A
   \   000015   75..00       MOV       ?V1,#0x0
   \   000018   8A82         MOV       DPL,R2
   \   00001A   8B83         MOV       DPH,R3
   \   00001C   A3           INC       DPTR
   \   00001D   E0           MOVX      A,@DPTR
   \   00001E   F8           MOV       R0,A
   \   00001F   7900         MOV       R1,#0x0
   \   000021   E4           CLR       A
   \   000022   C8           XCH       A,R0
   \   000023   F9           MOV       R1,A
   \   000024   E5..         MOV       A,?V0
   \   000026   28           ADD       A,R0
   \   000027   F5..         MOV       ?V0,A
   \   000029   E5..         MOV       A,?V1
   \   00002B   39           ADDC      A,R1
   \   00002C   F5..         MOV       ?V1,A
   \   00002E   EE           MOV       A,R6
   \   00002F   F8           MOV       R0,A
   \   000030   7900         MOV       R1,#0x0
   \   000032   E8           MOV       A,R0
   \   000033   75F002       MOV       B,#0x2
   \   000036   A4           MUL       AB
   \   000037   C8           XCH       A,R0
   \   000038   85F0..       MOV       ?V2,B
   \   00003B   75F000       MOV       B,#0x0
   \   00003E   A4           MUL       AB
   \   00003F   25..         ADD       A,?V2
   \   000041   F5..         MOV       ?V2,A
   \   000043   75F002       MOV       B,#0x2
   \   000046   E9           MOV       A,R1
   \   000047   A4           MUL       AB
   \   000048   25..         ADD       A,?V2
   \   00004A   F9           MOV       R1,A
   \   00004B   EC           MOV       A,R4
   \   00004C   28           ADD       A,R0
   \   00004D   F582         MOV       DPL,A
   \   00004F   ED           MOV       A,R5
   \   000050   39           ADDC      A,R1
   \   000051   F583         MOV       DPH,A
   \   000053   E5..         MOV       A,?V0
   \   000055   F0           MOVX      @DPTR,A
   \   000056   A3           INC       DPTR
   \   000057   E5..         MOV       A,?V1
   \   000059   F0           MOVX      @DPTR,A
    858              inBuf += sizeof( uint16 );
   \   00005A   EA           MOV       A,R2
   \   00005B   2402         ADD       A,#0x2
   \   00005D   FA           MOV       R2,A
   \   00005E   5001         JNC       ??ZDO_ConvertOTAClusters_2
   \   000060   0B           INC       R3
    859            }
   \                     ??ZDO_ConvertOTAClusters_2:
   \   000061   0E           INC       R6
   \   000062   80A5         SJMP      ??ZDO_ConvertOTAClusters_0
    860            return ( inBuf );
   \                     ??ZDO_ConvertOTAClusters_1:
   \   000064   7F03         MOV       R7,#0x3
   \   000066   02....       LJMP      ?BANKED_LEAVE_XDATA
    861          }
    862          
    863          /*********************************************************************
    864           * @fn          ZDO_ProcessMatchDescReq
    865           *
    866           * @brief       This function processes and responds to the
    867           *              Match_Desc_req message.
    868           *
    869           * @param       inMsg  - incoming message (request)
    870           *
    871           * @return      none
    872           */

   \                                 In  segment BANKED_CODE, align 1, keep-with-next
    873          void ZDO_ProcessMatchDescReq( zdoIncomingMsg_t *inMsg )
   \                     ZDO_ProcessMatchDescReq:
    874          {
   \   000000                REQUIRE ?V0
   \   000000                REQUIRE ?V1
   \   000000                REQUIRE ?V2
   \   000000                REQUIRE ?V3
   \   000000                REQUIRE ?V4
   \   000000                REQUIRE ?V5
   \   000000                REQUIRE ?V6
   \   000000                REQUIRE ?V7
   \   000000                REQUIRE ?V8
   \   000000                REQUIRE ?V9
   \   000000                REQUIRE ?V10
   \   000000                REQUIRE ?V11
   \   000000                REQUIRE ?V12
   \   000000                REQUIRE ?V13
   \   000000                REQUIRE ?V14
   \   000000                REQUIRE ?V15
   \   000000   74E8         MOV       A,#-0x18
   \   000002   12....       LCALL     ?BANKED_ENTER_XDATA
   \   000005                ; Saved register size: 24
   \   000005                ; Auto size: 10
   \   000005   74F6         MOV       A,#-0xa
   \   000007   12....       LCALL     ?ALLOC_XSTACK8
   \   00000A   8A..         MOV       ?V10,R2
   \   00000C   8B..         MOV       ?V11,R3
    875            uint8 epCnt = 0;
   \   00000E   85..82       MOV       DPL,?XSP + 0
   \   000011   85..83       MOV       DPH,?XSP + 1
   \   000014   7400         MOV       A,#0x0
   \   000016   F0           MOVX      @DPTR,A
    876            uint8 numInClusters;
    877            uint16 *inClusters = NULL;
   \   000017   7403         MOV       A,#0x3
   \   000019   12....       LCALL     ?XSTACK_DISP0_8
   \   00001C   7400         MOV       A,#0x0
   \   00001E   F0           MOVX      @DPTR,A
   \   00001F   A3           INC       DPTR
   \   000020   7400         MOV       A,#0x0
   \   000022   F0           MOVX      @DPTR,A
    878            uint8 numOutClusters;
    879            uint16 *outClusters = NULL;
   \   000023   7401         MOV       A,#0x1
   \   000025   12....       LCALL     ?XSTACK_DISP0_8
   \   000028   7400         MOV       A,#0x0
   \   00002A   F0           MOVX      @DPTR,A
   \   00002B   A3           INC       DPTR
   \   00002C   7400         MOV       A,#0x0
   \   00002E   F0           MOVX      @DPTR,A
    880            epList_t *epDesc;
    881            SimpleDescriptionFormat_t *sDesc = NULL;
   \   00002F   75..00       MOV       ?V12,#0x0
   \   000032   75..00       MOV       ?V13,#0x0
    882            uint8 allocated;
    883            uint8 *msg;
    884            uint16 aoi;
    885            uint16 profileID;
    886          
    887            // Parse the incoming message
    888            msg = inMsg->asdu;
   \   000035   E5..         MOV       A,?V10
   \   000037   2413         ADD       A,#0x13
   \   000039   F582         MOV       DPL,A
   \   00003B   E4           CLR       A
   \   00003C   35..         ADDC      A,?V11
   \   00003E   F583         MOV       DPH,A
   \   000040   E0           MOVX      A,@DPTR
   \   000041   F8           MOV       R0,A
   \   000042   A3           INC       DPTR
   \   000043   E0           MOVX      A,@DPTR
   \   000044   F9           MOV       R1,A
   \   000045   88..         MOV       ?V2,R0
   \   000047   89..         MOV       ?V3,R1
    889            aoi = BUILD_UINT16( msg[0], msg[1] );
   \   000049   85..82       MOV       DPL,?V2
   \   00004C   85..83       MOV       DPH,?V3
   \   00004F   E0           MOVX      A,@DPTR
   \   000050   FA           MOV       R2,A
   \   000051   7B00         MOV       R3,#0x0
   \   000053   85..82       MOV       DPL,?V2
   \   000056   85..83       MOV       DPH,?V3
   \   000059   A3           INC       DPTR
   \   00005A   E0           MOVX      A,@DPTR
   \   00005B   F8           MOV       R0,A
   \   00005C   7900         MOV       R1,#0x0
   \   00005E   E4           CLR       A
   \   00005F   C8           XCH       A,R0
   \   000060   F9           MOV       R1,A
   \   000061   EA           MOV       A,R2
   \   000062   28           ADD       A,R0
   \   000063   F8           MOV       R0,A
   \   000064   EB           MOV       A,R3
   \   000065   39           ADDC      A,R1
   \   000066   F9           MOV       R1,A
   \   000067   E8           MOV       A,R0
   \   000068   FE           MOV       R6,A
   \   000069   E9           MOV       A,R1
   \   00006A   FF           MOV       R7,A
    890            profileID = BUILD_UINT16( msg[2], msg[3] );
   \   00006B   85..82       MOV       DPL,?V2
   \   00006E   85..83       MOV       DPH,?V3
   \   000071   A3           INC       DPTR
   \   000072   A3           INC       DPTR
   \   000073   E0           MOVX      A,@DPTR
   \   000074   FA           MOV       R2,A
   \   000075   7B00         MOV       R3,#0x0
   \   000077   85..82       MOV       DPL,?V2
   \   00007A   85..83       MOV       DPH,?V3
   \   00007D   A3           INC       DPTR
   \   00007E   A3           INC       DPTR
   \   00007F   A3           INC       DPTR
   \   000080   E0           MOVX      A,@DPTR
   \   000081   F8           MOV       R0,A
   \   000082   7900         MOV       R1,#0x0
   \   000084   E4           CLR       A
   \   000085   C8           XCH       A,R0
   \   000086   F9           MOV       R1,A
   \   000087   EA           MOV       A,R2
   \   000088   28           ADD       A,R0
   \   000089   F8           MOV       R0,A
   \   00008A   EB           MOV       A,R3
   \   00008B   39           ADDC      A,R1
   \   00008C   F9           MOV       R1,A
   \   00008D   7406         MOV       A,#0x6
   \   00008F   12....       LCALL     ?XSTACK_DISP0_8
   \   000092   E8           MOV       A,R0
   \   000093   F0           MOVX      @DPTR,A
   \   000094   A3           INC       DPTR
   \   000095   E9           MOV       A,R1
   \   000096   F0           MOVX      @DPTR,A
    891            msg += 4;
   \   000097   E5..         MOV       A,?V2
   \   000099   2404         ADD       A,#0x4
   \   00009B   F5..         MOV       ?V2,A
   \   00009D   5002         JNC       ??ZDO_ProcessMatchDescReq_0
   \   00009F   05..         INC       ?V3
    892          
    893            if ( ADDR_BCAST_NOT_ME == NLME_IsAddressBroadcast(aoi) )
   \                     ??ZDO_ProcessMatchDescReq_0:
   \   0000A1                ; Setup parameters for call to function NLME_IsAddressBroadcast
   \   0000A1   EE           MOV       A,R6
   \   0000A2   FA           MOV       R2,A
   \   0000A3   EF           MOV       A,R7
   \   0000A4   FB           MOV       R3,A
   \   0000A5   12....       LCALL     `??NLME_IsAddressBroadcast::?relay`; Banked call to: NLME_IsAddressBroadcast
   \   0000A8   E9           MOV       A,R1
   \   0000A9   6401         XRL       A,#0x1
   \   0000AB   705C         JNZ       ??ZDO_ProcessMatchDescReq_1
    894            {
    895              ZDP_MatchDescRsp( inMsg->TransSeq, &(inMsg->srcAddr), ZDP_INVALID_REQTYPE,
    896                                    aoi, 0, NULL, inMsg->SecurityUse );
   \   0000AD                ; Setup parameters for call to function ZDP_EPRsp
   \   0000AD   E5..         MOV       A,?V10
   \   0000AF   240E         ADD       A,#0xe
   \   0000B1   F582         MOV       DPL,A
   \   0000B3   E4           CLR       A
   \   0000B4   35..         ADDC      A,?V11
   \   0000B6   F583         MOV       DPH,A
   \   0000B8   E0           MOVX      A,@DPTR
   \   0000B9   F5..         MOV       ?V0,A
   \   0000BB   78..         MOV       R0,#?V0
   \   0000BD   12....       LCALL     ?PUSH_XSTACK_I_ONE
   \   0000C0   E4           CLR       A
   \   0000C1   F5..         MOV       ?V0,A
   \   0000C3   F5..         MOV       ?V1,A
   \   0000C5   78..         MOV       R0,#?V0
   \   0000C7   12....       LCALL     ?PUSH_XSTACK_I_TWO
   \   0000CA   75..00       MOV       ?V0,#0x0
   \   0000CD   78..         MOV       R0,#?V0
   \   0000CF   12....       LCALL     ?PUSH_XSTACK_I_ONE
   \   0000D2   8E..         MOV       ?V0,R6
   \   0000D4   8F..         MOV       ?V1,R7
   \   0000D6   78..         MOV       R0,#?V0
   \   0000D8   12....       LCALL     ?PUSH_XSTACK_I_TWO
   \   0000DB   75..80       MOV       ?V0,#-0x80
   \   0000DE   78..         MOV       R0,#?V0
   \   0000E0   12....       LCALL     ?PUSH_XSTACK_I_ONE
   \   0000E3   E5..         MOV       A,?V10
   \   0000E5   2402         ADD       A,#0x2
   \   0000E7   FC           MOV       R4,A
   \   0000E8   E4           CLR       A
   \   0000E9   35..         ADDC      A,?V11
   \   0000EB   FD           MOV       R5,A
   \   0000EC   E5..         MOV       A,?V10
   \   0000EE   240F         ADD       A,#0xf
   \   0000F0   F582         MOV       DPL,A
   \   0000F2   E4           CLR       A
   \   0000F3   35..         ADDC      A,?V11
   \   0000F5   F583         MOV       DPH,A
   \   0000F7   E0           MOVX      A,@DPTR
   \   0000F8   F9           MOV       R1,A
   \   0000F9   7A06         MOV       R2,#0x6
   \   0000FB   7B80         MOV       R3,#-0x80
   \   0000FD   12....       LCALL     `??ZDP_EPRsp::?relay`; Banked call to: ZDP_EPRsp
   \   000100   7407         MOV       A,#0x7
   \   000102   12....       LCALL     ?DEALLOC_XSTACK8
   \   000105   E9           MOV       A,R1
    897              return;
   \   000106   02....       LJMP      ??ZDO_ProcessMatchDescReq_2 & 0xFFFF
    898            }
    899            else if ( (ADDR_NOT_BCAST == NLME_IsAddressBroadcast(aoi)) && (aoi != ZDAppNwkAddr.addr.shortAddr) )
   \                     ??ZDO_ProcessMatchDescReq_1:
   \   000109                ; Setup parameters for call to function NLME_IsAddressBroadcast
   \   000109   EE           MOV       A,R6
   \   00010A   FA           MOV       R2,A
   \   00010B   EF           MOV       A,R7
   \   00010C   FB           MOV       R3,A
   \   00010D   12....       LCALL     `??NLME_IsAddressBroadcast::?relay`; Banked call to: NLME_IsAddressBroadcast
   \   000110   E9           MOV       A,R1
   \   000111   7068         JNZ       ??ZDO_ProcessMatchDescReq_3
   \   000113   90....       MOV       DPTR,#ZDAppNwkAddr
   \   000116   E0           MOVX      A,@DPTR
   \   000117   6E           XRL       A,R6
   \   000118   7003         JNZ       ??ZDO_ProcessMatchDescReq_4
   \   00011A   A3           INC       DPTR
   \   00011B   E0           MOVX      A,@DPTR
   \   00011C   6F           XRL       A,R7
   \                     ??ZDO_ProcessMatchDescReq_4:
   \   00011D   605C         JZ        ??ZDO_ProcessMatchDescReq_3
    900            {
    901          #if (ZG_BUILD_ENDDEVICE_TYPE)
    902              if(ZG_DEVICE_ENDDEVICE_TYPE)
    903              {    
    904              ZDP_MatchDescRsp( inMsg->TransSeq, &(inMsg->srcAddr), ZDP_INVALID_REQTYPE,
    905                                       aoi, 0, NULL, inMsg->SecurityUse );
   \   00011F                ; Setup parameters for call to function ZDP_EPRsp
   \   00011F   E5..         MOV       A,?V10
   \   000121   240E         ADD       A,#0xe
   \   000123   F582         MOV       DPL,A
   \   000125   E4           CLR       A
   \   000126   35..         ADDC      A,?V11
   \   000128   F583         MOV       DPH,A
   \   00012A   E0           MOVX      A,@DPTR
   \   00012B   F5..         MOV       ?V0,A
   \   00012D   78..         MOV       R0,#?V0
   \   00012F   12....       LCALL     ?PUSH_XSTACK_I_ONE
   \   000132   E4           CLR       A
   \   000133   F5..         MOV       ?V0,A
   \   000135   F5..         MOV       ?V1,A
   \   000137   78..         MOV       R0,#?V0
   \   000139   12....       LCALL     ?PUSH_XSTACK_I_TWO
   \   00013C   75..00       MOV       ?V0,#0x0
   \   00013F   78..         MOV       R0,#?V0
   \   000141   12....       LCALL     ?PUSH_XSTACK_I_ONE
   \   000144   8E..         MOV       ?V0,R6
   \   000146   8F..         MOV       ?V1,R7
   \   000148   78..         MOV       R0,#?V0
   \   00014A   12....       LCALL     ?PUSH_XSTACK_I_TWO
   \   00014D   75..80       MOV       ?V0,#-0x80
   \   000150   78..         MOV       R0,#?V0
   \   000152   12....       LCALL     ?PUSH_XSTACK_I_ONE
   \   000155   E5..         MOV       A,?V10
   \   000157   2402         ADD       A,#0x2
   \   000159   FC           MOV       R4,A
   \   00015A   E4           CLR       A
   \   00015B   35..         ADDC      A,?V11
   \   00015D   FD           MOV       R5,A
   \   00015E   E5..         MOV       A,?V10
   \   000160   240F         ADD       A,#0xf
   \   000162   F582         MOV       DPL,A
   \   000164   E4           CLR       A
   \   000165   35..         ADDC      A,?V11
   \   000167   F583         MOV       DPH,A
   \   000169   E0           MOVX      A,@DPTR
   \   00016A   F9           MOV       R1,A
   \   00016B   7A06         MOV       R2,#0x6
   \   00016D   7B80         MOV       R3,#-0x80
   \   00016F   12....       LCALL     `??ZDP_EPRsp::?relay`; Banked call to: ZDP_EPRsp
   \   000172   7407         MOV       A,#0x7
   \   000174   12....       LCALL     ?DEALLOC_XSTACK8
   \   000177   E9           MOV       A,R1
    906              }
    907          #else 
    908              if (ZG_DEVICE_RTR_TYPE)
    909              {
    910              ZDP_MatchDescRsp( inMsg->TransSeq, &(inMsg->srcAddr), ZDP_DEVICE_NOT_FOUND,
    911                                       aoi, 0, NULL, inMsg->SecurityUse );
    912              }
    913          #endif
    914              return;
   \   000178   02....       LJMP      ??ZDO_ProcessMatchDescReq_2 & 0xFFFF
    915            }
    916          
    917            if ((numInClusters = *msg++) &&
    918                (inClusters = (uint16*)osal_mem_alloc( numInClusters * sizeof( uint16 ) )))
   \                     ??ZDO_ProcessMatchDescReq_3:
   \   00017B   85..82       MOV       DPL,?V2
   \   00017E   85..83       MOV       DPH,?V3
   \   000181   E0           MOVX      A,@DPTR
   \   000182   F5..         MOV       ?V7,A
   \   000184   85..82       MOV       DPL,?V2
   \   000187   85..83       MOV       DPH,?V3
   \   00018A   A3           INC       DPTR
   \   00018B   8582..       MOV       ?V2,DPL
   \   00018E   8583..       MOV       ?V3,DPH
   \   000191   E5..         MOV       A,?V7
   \   000193   6054         JZ        ??ZDO_ProcessMatchDescReq_5
   \   000195                ; Setup parameters for call to function osal_mem_alloc
   \   000195   E5..         MOV       A,?V7
   \   000197   FA           MOV       R2,A
   \   000198   7B00         MOV       R3,#0x0
   \   00019A   EA           MOV       A,R2
   \   00019B   75F002       MOV       B,#0x2
   \   00019E   A4           MUL       AB
   \   00019F   CA           XCH       A,R2
   \   0001A0   A8F0         MOV       R0,B
   \   0001A2   75F000       MOV       B,#0x0
   \   0001A5   A4           MUL       AB
   \   0001A6   28           ADD       A,R0
   \   0001A7   F8           MOV       R0,A
   \   0001A8   75F002       MOV       B,#0x2
   \   0001AB   EB           MOV       A,R3
   \   0001AC   A4           MUL       AB
   \   0001AD   28           ADD       A,R0
   \   0001AE   FB           MOV       R3,A
   \   0001AF   12....       LCALL     `??osal_mem_alloc::?relay`; Banked call to: osal_mem_alloc
   \   0001B2   7403         MOV       A,#0x3
   \   0001B4   12....       LCALL     ?XSTACK_DISP0_8
   \   0001B7   EA           MOV       A,R2
   \   0001B8   F0           MOVX      @DPTR,A
   \   0001B9   A3           INC       DPTR
   \   0001BA   EB           MOV       A,R3
   \   0001BB   F0           MOVX      @DPTR,A
   \   0001BC   7403         MOV       A,#0x3
   \   0001BE   12....       LCALL     ?XSTACK_DISP0_8
   \   0001C1   E0           MOVX      A,@DPTR
   \   0001C2   F8           MOV       R0,A
   \   0001C3   A3           INC       DPTR
   \   0001C4   E0           MOVX      A,@DPTR
   \   0001C5   F9           MOV       R1,A
   \   0001C6   E8           MOV       A,R0
   \   0001C7   49           ORL       A,R1
   \   0001C8   601F         JZ        ??ZDO_ProcessMatchDescReq_5
    919            {
    920              msg = ZDO_ConvertOTAClusters( numInClusters, msg, inClusters );
   \   0001CA                ; Setup parameters for call to function ZDO_ConvertOTAClusters
   \   0001CA   7403         MOV       A,#0x3
   \   0001CC   12....       LCALL     ?XSTACK_DISP0_8
   \   0001CF   E0           MOVX      A,@DPTR
   \   0001D0   FC           MOV       R4,A
   \   0001D1   A3           INC       DPTR
   \   0001D2   E0           MOVX      A,@DPTR
   \   0001D3   FD           MOV       R5,A
   \   0001D4   AA..         MOV       R2,?V2
   \   0001D6   AB..         MOV       R3,?V3
   \   0001D8   A9..         MOV       R1,?V7
   \   0001DA   12....       LCALL     `??ZDO_ConvertOTAClusters::?relay`; Banked call to: ZDO_ConvertOTAClusters
   \   0001DD   8A..         MOV       ?V0,R2
   \   0001DF   8B..         MOV       ?V1,R3
   \   0001E1   85....       MOV       ?V2,?V0
   \   0001E4   85....       MOV       ?V3,?V1
   \   0001E7   8003         SJMP      ??ZDO_ProcessMatchDescReq_6
    921            }
    922            else
    923            {
    924              numInClusters = 0;
   \                     ??ZDO_ProcessMatchDescReq_5:
   \   0001E9   75..00       MOV       ?V7,#0x0
    925            }
    926          
    927            if ((numOutClusters = *msg++) &&
    928                (outClusters = (uint16 *)osal_mem_alloc( numOutClusters * sizeof( uint16 ) )))
   \                     ??ZDO_ProcessMatchDescReq_6:
   \   0001EC   85..82       MOV       DPL,?V2
   \   0001EF   85..83       MOV       DPH,?V3
   \   0001F2   E0           MOVX      A,@DPTR
   \   0001F3   F5..         MOV       ?V8,A
   \   0001F5   85..82       MOV       DPL,?V2
   \   0001F8   85..83       MOV       DPH,?V3
   \   0001FB   A3           INC       DPTR
   \   0001FC   8582..       MOV       ?V2,DPL
   \   0001FF   8583..       MOV       ?V3,DPH
   \   000202   E5..         MOV       A,?V8
   \   000204   6054         JZ        ??ZDO_ProcessMatchDescReq_7
   \   000206                ; Setup parameters for call to function osal_mem_alloc
   \   000206   E5..         MOV       A,?V8
   \   000208   FA           MOV       R2,A
   \   000209   7B00         MOV       R3,#0x0
   \   00020B   EA           MOV       A,R2
   \   00020C   75F002       MOV       B,#0x2
   \   00020F   A4           MUL       AB
   \   000210   CA           XCH       A,R2
   \   000211   A8F0         MOV       R0,B
   \   000213   75F000       MOV       B,#0x0
   \   000216   A4           MUL       AB
   \   000217   28           ADD       A,R0
   \   000218   F8           MOV       R0,A
   \   000219   75F002       MOV       B,#0x2
   \   00021C   EB           MOV       A,R3
   \   00021D   A4           MUL       AB
   \   00021E   28           ADD       A,R0
   \   00021F   FB           MOV       R3,A
   \   000220   12....       LCALL     `??osal_mem_alloc::?relay`; Banked call to: osal_mem_alloc
   \   000223   7401         MOV       A,#0x1
   \   000225   12....       LCALL     ?XSTACK_DISP0_8
   \   000228   EA           MOV       A,R2
   \   000229   F0           MOVX      @DPTR,A
   \   00022A   A3           INC       DPTR
   \   00022B   EB           MOV       A,R3
   \   00022C   F0           MOVX      @DPTR,A
   \   00022D   7401         MOV       A,#0x1
   \   00022F   12....       LCALL     ?XSTACK_DISP0_8
   \   000232   E0           MOVX      A,@DPTR
   \   000233   F8           MOV       R0,A
   \   000234   A3           INC       DPTR
   \   000235   E0           MOVX      A,@DPTR
   \   000236   F9           MOV       R1,A
   \   000237   E8           MOV       A,R0
   \   000238   49           ORL       A,R1
   \   000239   601F         JZ        ??ZDO_ProcessMatchDescReq_7
    929            {
    930              msg = ZDO_ConvertOTAClusters( numOutClusters, msg, outClusters );
   \   00023B                ; Setup parameters for call to function ZDO_ConvertOTAClusters
   \   00023B   7401         MOV       A,#0x1
   \   00023D   12....       LCALL     ?XSTACK_DISP0_8
   \   000240   E0           MOVX      A,@DPTR
   \   000241   FC           MOV       R4,A
   \   000242   A3           INC       DPTR
   \   000243   E0           MOVX      A,@DPTR
   \   000244   FD           MOV       R5,A
   \   000245   AA..         MOV       R2,?V2
   \   000247   AB..         MOV       R3,?V3
   \   000249   A9..         MOV       R1,?V8
   \   00024B   12....       LCALL     `??ZDO_ConvertOTAClusters::?relay`; Banked call to: ZDO_ConvertOTAClusters
   \   00024E   8A..         MOV       ?V0,R2
   \   000250   8B..         MOV       ?V1,R3
   \   000252   85....       MOV       ?V2,?V0
   \   000255   85....       MOV       ?V3,?V1
   \   000258   8003         SJMP      ??ZDO_ProcessMatchDescReq_8
    931            }
    932            else
    933            {
    934              numOutClusters = 0;
   \                     ??ZDO_ProcessMatchDescReq_7:
   \   00025A   75..00       MOV       ?V8,#0x0
    935            }
    936          
    937            // First count the number of endpoints that match.
    938            epDesc = epList;
   \                     ??ZDO_ProcessMatchDescReq_8:
   \   00025D   90....       MOV       DPTR,#epList
   \   000260   E0           MOVX      A,@DPTR
   \   000261   F8           MOV       R0,A
   \   000262   A3           INC       DPTR
   \   000263   E0           MOVX      A,@DPTR
   \   000264   F9           MOV       R1,A
   \   000265   88..         MOV       ?V14,R0
   \   000267   89..         MOV       ?V15,R1
    939            while ( epDesc )
   \                     ??ZDO_ProcessMatchDescReq_9:
   \   000269   E5..         MOV       A,?V14
   \   00026B   45..         ORL       A,?V15
   \   00026D   7003         JNZ       $+5
   \   00026F   02....       LJMP      ??ZDO_ProcessMatchDescReq_10 & 0xFFFF
    940            {
    941              // Don't search endpoint 0 and check if response is allowed
    942              if ( epDesc->epDesc->endPoint != ZDO_EP && (epDesc->flags&eEP_AllowMatch) )
   \   000272   85..82       MOV       DPL,?V14
   \   000275   85..83       MOV       DPH,?V15
   \   000278   A3           INC       DPTR
   \   000279   A3           INC       DPTR
   \   00027A   E0           MOVX      A,@DPTR
   \   00027B   F8           MOV       R0,A
   \   00027C   A3           INC       DPTR
   \   00027D   E0           MOVX      A,@DPTR
   \   00027E   F583         MOV       DPH,A
   \   000280   8882         MOV       DPL,R0
   \   000282   E0           MOVX      A,@DPTR
   \   000283   7003         JNZ       $+5
   \   000285   02....       LJMP      ??ZDO_ProcessMatchDescReq_11 & 0xFFFF
   \   000288   85..82       MOV       DPL,?V14
   \   00028B   85..83       MOV       DPH,?V15
   \   00028E   A3           INC       DPTR
   \   00028F   A3           INC       DPTR
   \   000290   A3           INC       DPTR
   \   000291   A3           INC       DPTR
   \   000292   A3           INC       DPTR
   \   000293   A3           INC       DPTR
   \   000294   A3           INC       DPTR
   \   000295   A3           INC       DPTR
   \   000296   E0           MOVX      A,@DPTR
   \   000297   A2E0         MOV       C,0xE0 /* A   */.0
   \   000299   4003         JC        $+5
   \   00029B   02....       LJMP      ??ZDO_ProcessMatchDescReq_11 & 0xFFFF
    943              {
    944                if ( epDesc->pfnDescCB )
   \   00029E   85..82       MOV       DPL,?V14
   \   0002A1   85..83       MOV       DPH,?V15
   \   0002A4   A3           INC       DPTR
   \   0002A5   A3           INC       DPTR
   \   0002A6   A3           INC       DPTR
   \   0002A7   A3           INC       DPTR
   \   0002A8   E0           MOVX      A,@DPTR
   \   0002A9   F8           MOV       R0,A
   \   0002AA   A3           INC       DPTR
   \   0002AB   E0           MOVX      A,@DPTR
   \   0002AC   F9           MOV       R1,A
   \   0002AD   E8           MOV       A,R0
   \   0002AE   49           ORL       A,R1
   \   0002AF   603D         JZ        ??ZDO_ProcessMatchDescReq_12
    945                {
    946                  sDesc = (SimpleDescriptionFormat_t *)epDesc->pfnDescCB( AF_DESCRIPTOR_SIMPLE, epDesc->epDesc->endPoint );
   \   0002B1                ; Setup parameters for indirect call
   \   0002B1   85..82       MOV       DPL,?V14
   \   0002B4   85..83       MOV       DPH,?V15
   \   0002B7   A3           INC       DPTR
   \   0002B8   A3           INC       DPTR
   \   0002B9   E0           MOVX      A,@DPTR
   \   0002BA   F8           MOV       R0,A
   \   0002BB   A3           INC       DPTR
   \   0002BC   E0           MOVX      A,@DPTR
   \   0002BD   F583         MOV       DPH,A
   \   0002BF   8882         MOV       DPL,R0
   \   0002C1   E0           MOVX      A,@DPTR
   \   0002C2   FA           MOV       R2,A
   \   0002C3   7901         MOV       R1,#0x1
   \   0002C5   85..82       MOV       DPL,?V14
   \   0002C8   85..83       MOV       DPH,?V15
   \   0002CB   A3           INC       DPTR
   \   0002CC   A3           INC       DPTR
   \   0002CD   A3           INC       DPTR
   \   0002CE   A3           INC       DPTR
   \   0002CF   E0           MOVX      A,@DPTR
   \   0002D0   F8           MOV       R0,A
   \   0002D1   A3           INC       DPTR
   \   0002D2   E0           MOVX      A,@DPTR
   \   0002D3   F583         MOV       DPH,A
   \   0002D5   8882         MOV       DPL,R0
   \   0002D7   12....       LCALL     ?CALL_IND
   \   0002DA   8A..         MOV       ?V0,R2
   \   0002DC   8B..         MOV       ?V1,R3
   \   0002DE   85....       MOV       ?V12,?V0
   \   0002E1   85....       MOV       ?V13,?V1
    947                  allocated = TRUE;
   \   0002E4   7405         MOV       A,#0x5
   \   0002E6   12....       LCALL     ?XSTACK_DISP0_8
   \   0002E9   7401         MOV       A,#0x1
   \   0002EB   F0           MOVX      @DPTR,A
   \   0002EC   8025         SJMP      ??ZDO_ProcessMatchDescReq_13
    948                }
    949                else
    950                {
    951                  sDesc = epDesc->epDesc->simpleDesc;
   \                     ??ZDO_ProcessMatchDescReq_12:
   \   0002EE   85..82       MOV       DPL,?V14
   \   0002F1   85..83       MOV       DPH,?V15
   \   0002F4   A3           INC       DPTR
   \   0002F5   A3           INC       DPTR
   \   0002F6   E0           MOVX      A,@DPTR
   \   0002F7   F8           MOV       R0,A
   \   0002F8   A3           INC       DPTR
   \   0002F9   E0           MOVX      A,@DPTR
   \   0002FA   F583         MOV       DPH,A
   \   0002FC   8882         MOV       DPL,R0
   \   0002FE   A3           INC       DPTR
   \   0002FF   A3           INC       DPTR
   \   000300   A3           INC       DPTR
   \   000301   A3           INC       DPTR
   \   000302   E0           MOVX      A,@DPTR
   \   000303   F8           MOV       R0,A
   \   000304   A3           INC       DPTR
   \   000305   E0           MOVX      A,@DPTR
   \   000306   F9           MOV       R1,A
   \   000307   88..         MOV       ?V12,R0
   \   000309   89..         MOV       ?V13,R1
    952                  allocated = FALSE;
   \   00030B   7405         MOV       A,#0x5
   \   00030D   12....       LCALL     ?XSTACK_DISP0_8
   \   000310   7400         MOV       A,#0x0
   \   000312   F0           MOVX      @DPTR,A
    953                }
    954          
    955                // Allow specific ProfileId or Wildcard ProfileID
    956                if ( sDesc && ( ( sDesc->AppProfId == profileID ) || ( profileID == ZDO_WILDCARD_PROFILE_ID ) ) )
   \                     ??ZDO_ProcessMatchDescReq_13:
   \   000313   E5..         MOV       A,?V12
   \   000315   45..         ORL       A,?V13
   \   000317   7003         JNZ       $+5
   \   000319   02....       LJMP      ??ZDO_ProcessMatchDescReq_14 & 0xFFFF
   \   00031C   85..82       MOV       DPL,?V12
   \   00031F   85..83       MOV       DPH,?V13
   \   000322   A3           INC       DPTR
   \   000323   E0           MOVX      A,@DPTR
   \   000324   F8           MOV       R0,A
   \   000325   A3           INC       DPTR
   \   000326   E0           MOVX      A,@DPTR
   \   000327   F9           MOV       R1,A
   \   000328   7406         MOV       A,#0x6
   \   00032A   12....       LCALL     ?XSTACK_DISP0_8
   \   00032D   E0           MOVX      A,@DPTR
   \   00032E   68           XRL       A,R0
   \   00032F   7003         JNZ       ??ZDO_ProcessMatchDescReq_15
   \   000331   A3           INC       DPTR
   \   000332   E0           MOVX      A,@DPTR
   \   000333   69           XRL       A,R1
   \                     ??ZDO_ProcessMatchDescReq_15:
   \   000334   6013         JZ        ??ZDO_ProcessMatchDescReq_16
   \   000336   7406         MOV       A,#0x6
   \   000338   12....       LCALL     ?XSTACK_DISP0_8
   \   00033B   E0           MOVX      A,@DPTR
   \   00033C   64FF         XRL       A,#0xff
   \   00033E   7004         JNZ       ??ZDO_ProcessMatchDescReq_17
   \   000340   A3           INC       DPTR
   \   000341   E0           MOVX      A,@DPTR
   \   000342   64FF         XRL       A,#0xff
   \                     ??ZDO_ProcessMatchDescReq_17:
   \   000344   6003         JZ        $+5
   \   000346   02....       LJMP      ??ZDO_ProcessMatchDescReq_14 & 0xFFFF
    957                {
    958                  uint8 *uint8Buf = (uint8 *)ZDOBuildBuf;
   \                     ??ZDO_ProcessMatchDescReq_16:
   \   000349   7408         MOV       A,#0x8
   \   00034B   12....       LCALL     ?XSTACK_DISP0_8
   \   00034E   74..         MOV       A,#ZDOBuildBuf & 0xff
   \   000350   F0           MOVX      @DPTR,A
   \   000351   A3           INC       DPTR
   \   000352   74..         MOV       A,#(ZDOBuildBuf >> 8) & 0xff
   \   000354   F0           MOVX      @DPTR,A
    959          
    960                  // Are there matching input clusters?
    961                  if ((ZDO_AnyClusterMatches( numInClusters, inClusters,
    962                             sDesc->AppNumInClusters, sDesc->pAppInClusterList )) ||
    963                      // Are there matching output clusters?
    964                      (ZDO_AnyClusterMatches( numOutClusters, outClusters,
    965                             sDesc->AppNumOutClusters, sDesc->pAppOutClusterList )))
   \   000355                ; Setup parameters for call to function ZDO_AnyClusterMatches
   \   000355   85..82       MOV       DPL,?V12
   \   000358   85..83       MOV       DPH,?V13
   \   00035B   A3           INC       DPTR
   \   00035C   A3           INC       DPTR
   \   00035D   A3           INC       DPTR
   \   00035E   A3           INC       DPTR
   \   00035F   A3           INC       DPTR
   \   000360   A3           INC       DPTR
   \   000361   A3           INC       DPTR
   \   000362   12....       LCALL     ?PUSH_XSTACK8_X_TWO
   \   000365   85..82       MOV       DPL,?V12
   \   000368   85..83       MOV       DPH,?V13
   \   00036B   A3           INC       DPTR
   \   00036C   A3           INC       DPTR
   \   00036D   A3           INC       DPTR
   \   00036E   A3           INC       DPTR
   \   00036F   A3           INC       DPTR
   \   000370   A3           INC       DPTR
   \   000371   E0           MOVX      A,@DPTR
   \   000372   FC           MOV       R4,A
   \   000373   7405         MOV       A,#0x5
   \   000375   12....       LCALL     ?XSTACK_DISP0_8
   \   000378   E0           MOVX      A,@DPTR
   \   000379   FA           MOV       R2,A
   \   00037A   A3           INC       DPTR
   \   00037B   E0           MOVX      A,@DPTR
   \   00037C   FB           MOV       R3,A
   \   00037D   A9..         MOV       R1,?V7
   \   00037F   12....       LCALL     `??ZDO_AnyClusterMatches::?relay`; Banked call to: ZDO_AnyClusterMatches
   \   000382   7402         MOV       A,#0x2
   \   000384   12....       LCALL     ?DEALLOC_XSTACK8
   \   000387   E9           MOV       A,R1
   \   000388   703E         JNZ       ??ZDO_ProcessMatchDescReq_18
   \   00038A                ; Setup parameters for call to function ZDO_AnyClusterMatches
   \   00038A   85..82       MOV       DPL,?V12
   \   00038D   85..83       MOV       DPH,?V13
   \   000390   A3           INC       DPTR
   \   000391   A3           INC       DPTR
   \   000392   A3           INC       DPTR
   \   000393   A3           INC       DPTR
   \   000394   A3           INC       DPTR
   \   000395   A3           INC       DPTR
   \   000396   A3           INC       DPTR
   \   000397   A3           INC       DPTR
   \   000398   A3           INC       DPTR
   \   000399   A3           INC       DPTR
   \   00039A   12....       LCALL     ?PUSH_XSTACK8_X_TWO
   \   00039D   85..82       MOV       DPL,?V12
   \   0003A0   85..83       MOV       DPH,?V13
   \   0003A3   A3           INC       DPTR
   \   0003A4   A3           INC       DPTR
   \   0003A5   A3           INC       DPTR
   \   0003A6   A3           INC       DPTR
   \   0003A7   A3           INC       DPTR
   \   0003A8   A3           INC       DPTR
   \   0003A9   A3           INC       DPTR
   \   0003AA   A3           INC       DPTR
   \   0003AB   A3           INC       DPTR
   \   0003AC   E0           MOVX      A,@DPTR
   \   0003AD   FC           MOV       R4,A
   \   0003AE   7403         MOV       A,#0x3
   \   0003B0   12....       LCALL     ?XSTACK_DISP0_8
   \   0003B3   E0           MOVX      A,@DPTR
   \   0003B4   FA           MOV       R2,A
   \   0003B5   A3           INC       DPTR
   \   0003B6   E0           MOVX      A,@DPTR
   \   0003B7   FB           MOV       R3,A
   \   0003B8   A9..         MOV       R1,?V8
   \   0003BA   12....       LCALL     `??ZDO_AnyClusterMatches::?relay`; Banked call to: ZDO_AnyClusterMatches
   \   0003BD   7402         MOV       A,#0x2
   \   0003BF   12....       LCALL     ?DEALLOC_XSTACK8
   \   0003C2   E9           MOV       A,R1
   \   0003C3   7003         JNZ       $+5
   \   0003C5   02....       LJMP      ??ZDO_ProcessMatchDescReq_14 & 0xFFFF
    966                  {
    967                    // Notify the endpoint of the match.
    968                    uint8 bufLen = sizeof( ZDO_MatchDescRspSent_t ) + (numOutClusters + numInClusters) * sizeof(uint16);
   \                     ??ZDO_ProcessMatchDescReq_18:
   \   0003C8   75F002       MOV       B,#0x2
   \   0003CB   E5..         MOV       A,?V8
   \   0003CD   FA           MOV       R2,A
   \   0003CE   7B00         MOV       R3,#0x0
   \   0003D0   E5..         MOV       A,?V7
   \   0003D2   F8           MOV       R0,A
   \   0003D3   7900         MOV       R1,#0x0
   \   0003D5   EA           MOV       A,R2
   \   0003D6   28           ADD       A,R0
   \   0003D7   F8           MOV       R0,A
   \   0003D8   EB           MOV       A,R3
   \   0003D9   39           ADDC      A,R1
   \   0003DA   F9           MOV       R1,A
   \   0003DB   E8           MOV       A,R0
   \   0003DC   A4           MUL       AB
   \   0003DD   240A         ADD       A,#0xa
   \   0003DF   F5..         MOV       ?V9,A
    969                    ZDO_MatchDescRspSent_t *pRspSent = (ZDO_MatchDescRspSent_t *) osal_msg_allocate( bufLen );
   \   0003E1                ; Setup parameters for call to function osal_msg_allocate
   \   0003E1   E5..         MOV       A,?V9
   \   0003E3   FA           MOV       R2,A
   \   0003E4   7B00         MOV       R3,#0x0
   \   0003E6   12....       LCALL     `??osal_msg_allocate::?relay`; Banked call to: osal_msg_allocate
   \   0003E9   8A..         MOV       ?V4,R2
   \   0003EB   8B..         MOV       ?V5,R3
   \   0003ED   85....       MOV       ?V0,?V4
   \   0003F0   85....       MOV       ?V1,?V5
    970          
    971                    if (pRspSent)
   \   0003F3   E5..         MOV       A,?V0
   \   0003F5   45..         ORL       A,?V1
   \   0003F7   7003         JNZ       $+5
   \   0003F9   02....       LJMP      ??ZDO_ProcessMatchDescReq_19 & 0xFFFF
    972                    {
    973                      pRspSent->hdr.event = ZDO_MATCH_DESC_RSP_SENT;
   \   0003FC   85..82       MOV       DPL,?V0
   \   0003FF   85..83       MOV       DPH,?V1
   \   000402   74D2         MOV       A,#-0x2e
   \   000404   F0           MOVX      @DPTR,A
    974                      pRspSent->nwkAddr = inMsg->srcAddr.addr.shortAddr;
   \   000405   85..82       MOV       DPL,?V10
   \   000408   85..83       MOV       DPH,?V11
   \   00040B   A3           INC       DPTR
   \   00040C   A3           INC       DPTR
   \   00040D   E0           MOVX      A,@DPTR
   \   00040E   F8           MOV       R0,A
   \   00040F   A3           INC       DPTR
   \   000410   E0           MOVX      A,@DPTR
   \   000411   F9           MOV       R1,A
   \   000412   85..82       MOV       DPL,?V0
   \   000415   85..83       MOV       DPH,?V1
   \   000418   A3           INC       DPTR
   \   000419   A3           INC       DPTR
   \   00041A   E8           MOV       A,R0
   \   00041B   F0           MOVX      @DPTR,A
   \   00041C   A3           INC       DPTR
   \   00041D   E9           MOV       A,R1
   \   00041E   F0           MOVX      @DPTR,A
    975                      pRspSent->numInClusters = numInClusters;
   \   00041F   E5..         MOV       A,?V7
   \   000421   C0E0         PUSH      A
   \   000423   85..82       MOV       DPL,?V0
   \   000426   85..83       MOV       DPH,?V1
   \   000429   A3           INC       DPTR
   \   00042A   A3           INC       DPTR
   \   00042B   A3           INC       DPTR
   \   00042C   A3           INC       DPTR
   \   00042D   D0E0         POP       A
   \   00042F   F0           MOVX      @DPTR,A
    976                      pRspSent->numOutClusters = numOutClusters;
   \   000430   E5..         MOV       A,?V8
   \   000432   C0E0         PUSH      A
   \   000434   85..82       MOV       DPL,?V0
   \   000437   85..83       MOV       DPH,?V1
   \   00043A   A3           INC       DPTR
   \   00043B   A3           INC       DPTR
   \   00043C   A3           INC       DPTR
   \   00043D   A3           INC       DPTR
   \   00043E   A3           INC       DPTR
   \   00043F   A3           INC       DPTR
   \   000440   A3           INC       DPTR
   \   000441   D0E0         POP       A
   \   000443   F0           MOVX      @DPTR,A
    977          
    978                      if (numInClusters)
   \   000444   E5..         MOV       A,?V7
   \   000446   6061         JZ        ??ZDO_ProcessMatchDescReq_20
    979                      {
    980                        pRspSent->pInClusters = (uint16*) (pRspSent + 1);
   \   000448   E5..         MOV       A,?V0
   \   00044A   240A         ADD       A,#0xa
   \   00044C   F8           MOV       R0,A
   \   00044D   E4           CLR       A
   \   00044E   35..         ADDC      A,?V1
   \   000450   F9           MOV       R1,A
   \   000451   85..82       MOV       DPL,?V0
   \   000454   85..83       MOV       DPH,?V1
   \   000457   A3           INC       DPTR
   \   000458   A3           INC       DPTR
   \   000459   A3           INC       DPTR
   \   00045A   A3           INC       DPTR
   \   00045B   A3           INC       DPTR
   \   00045C   E8           MOV       A,R0
   \   00045D   F0           MOVX      @DPTR,A
   \   00045E   A3           INC       DPTR
   \   00045F   E9           MOV       A,R1
   \   000460   F0           MOVX      @DPTR,A
    981                        osal_memcpy(pRspSent->pInClusters, inClusters, numInClusters * sizeof(uint16));
   \   000461                ; Setup parameters for call to function osal_memcpy
   \   000461   7403         MOV       A,#0x3
   \   000463   12....       LCALL     ?XSTACK_DISP0_8
   \   000466   E0           MOVX      A,@DPTR
   \   000467   F5..         MOV       ?V4,A
   \   000469   A3           INC       DPTR
   \   00046A   E0           MOVX      A,@DPTR
   \   00046B   F5..         MOV       ?V5,A
   \   00046D   75..00       MOV       ?V6,#0x0
   \   000470   78..         MOV       R0,#?V4
   \   000472   12....       LCALL     ?PUSH_XSTACK_I_THREE
   \   000475   E5..         MOV       A,?V7
   \   000477   FC           MOV       R4,A
   \   000478   7D00         MOV       R5,#0x0
   \   00047A   EC           MOV       A,R4
   \   00047B   75F002       MOV       B,#0x2
   \   00047E   A4           MUL       AB
   \   00047F   CC           XCH       A,R4
   \   000480   A8F0         MOV       R0,B
   \   000482   75F000       MOV       B,#0x0
   \   000485   A4           MUL       AB
   \   000486   28           ADD       A,R0
   \   000487   F8           MOV       R0,A
   \   000488   75F002       MOV       B,#0x2
   \   00048B   ED           MOV       A,R5
   \   00048C   A4           MUL       AB
   \   00048D   28           ADD       A,R0
   \   00048E   FD           MOV       R5,A
   \   00048F   85..82       MOV       DPL,?V0
   \   000492   85..83       MOV       DPH,?V1
   \   000495   A3           INC       DPTR
   \   000496   A3           INC       DPTR
   \   000497   A3           INC       DPTR
   \   000498   A3           INC       DPTR
   \   000499   A3           INC       DPTR
   \   00049A   E0           MOVX      A,@DPTR
   \   00049B   FA           MOV       R2,A
   \   00049C   A3           INC       DPTR
   \   00049D   E0           MOVX      A,@DPTR
   \   00049E   FB           MOV       R3,A
   \   00049F   12....       LCALL     `??osal_memcpy::?relay`; Banked call to: osal_memcpy
   \   0004A2   7403         MOV       A,#0x3
   \   0004A4   12....       LCALL     ?DEALLOC_XSTACK8
   \   0004A7   8012         SJMP      ??ZDO_ProcessMatchDescReq_21
    982                      }
    983                      else
    984                      {
    985                        pRspSent->pInClusters = NULL;
   \                     ??ZDO_ProcessMatchDescReq_20:
   \   0004A9   85..82       MOV       DPL,?V0
   \   0004AC   85..83       MOV       DPH,?V1
   \   0004AF   A3           INC       DPTR
   \   0004B0   A3           INC       DPTR
   \   0004B1   A3           INC       DPTR
   \   0004B2   A3           INC       DPTR
   \   0004B3   A3           INC       DPTR
   \   0004B4   7400         MOV       A,#0x0
   \   0004B6   F0           MOVX      @DPTR,A
   \   0004B7   A3           INC       DPTR
   \   0004B8   7400         MOV       A,#0x0
   \   0004BA   F0           MOVX      @DPTR,A
    986                      }
    987          
    988                      if (numOutClusters)
   \                     ??ZDO_ProcessMatchDescReq_21:
   \   0004BB   E5..         MOV       A,?V8
   \   0004BD   7003         JNZ       $+5
   \   0004BF   02....       LJMP      ??ZDO_ProcessMatchDescReq_22 & 0xFFFF
    989                      {
    990                        pRspSent->pOutClusters = (uint16*)(pRspSent + 1) + numInClusters;
   \   0004C2   E5..         MOV       A,?V7
   \   0004C4   F8           MOV       R0,A
   \   0004C5   7900         MOV       R1,#0x0
   \   0004C7   E8           MOV       A,R0
   \   0004C8   75F002       MOV       B,#0x2
   \   0004CB   A4           MUL       AB
   \   0004CC   C8           XCH       A,R0
   \   0004CD   AAF0         MOV       R2,B
   \   0004CF   75F000       MOV       B,#0x0
   \   0004D2   A4           MUL       AB
   \   0004D3   2A           ADD       A,R2
   \   0004D4   FA           MOV       R2,A
   \   0004D5   75F002       MOV       B,#0x2
   \   0004D8   E9           MOV       A,R1
   \   0004D9   A4           MUL       AB
   \   0004DA   2A           ADD       A,R2
   \   0004DB   F9           MOV       R1,A
   \   0004DC   E5..         MOV       A,?V0
   \   0004DE   28           ADD       A,R0
   \   0004DF   F8           MOV       R0,A
   \   0004E0   E5..         MOV       A,?V1
   \   0004E2   39           ADDC      A,R1
   \   0004E3   F9           MOV       R1,A
   \   0004E4   E8           MOV       A,R0
   \   0004E5   240A         ADD       A,#0xa
   \   0004E7   F8           MOV       R0,A
   \   0004E8   5001         JNC       ??ZDO_ProcessMatchDescReq_23
   \   0004EA   09           INC       R1
   \                     ??ZDO_ProcessMatchDescReq_23:
   \   0004EB   85..82       MOV       DPL,?V0
   \   0004EE   85..83       MOV       DPH,?V1
   \   0004F1   A3           INC       DPTR
   \   0004F2   A3           INC       DPTR
   \   0004F3   A3           INC       DPTR
   \   0004F4   A3           INC       DPTR
   \   0004F5   A3           INC       DPTR
   \   0004F6   A3           INC       DPTR
   \   0004F7   A3           INC       DPTR
   \   0004F8   A3           INC       DPTR
   \   0004F9   E8           MOV       A,R0
   \   0004FA   F0           MOVX      @DPTR,A
   \   0004FB   A3           INC       DPTR
   \   0004FC   E9           MOV       A,R1
   \   0004FD   F0           MOVX      @DPTR,A
    991                        osal_memcpy(pRspSent->pOutClusters, outClusters, numOutClusters * sizeof(uint16));
   \   0004FE                ; Setup parameters for call to function osal_memcpy
   \   0004FE   7401         MOV       A,#0x1
   \   000500   12....       LCALL     ?XSTACK_DISP0_8
   \   000503   E0           MOVX      A,@DPTR
   \   000504   F5..         MOV       ?V4,A
   \   000506   A3           INC       DPTR
   \   000507   E0           MOVX      A,@DPTR
   \   000508   F5..         MOV       ?V5,A
   \   00050A   75..00       MOV       ?V6,#0x0
   \   00050D   78..         MOV       R0,#?V4
   \   00050F   12....       LCALL     ?PUSH_XSTACK_I_THREE
   \   000512   E5..         MOV       A,?V8
   \   000514   FC           MOV       R4,A
   \   000515   7D00         MOV       R5,#0x0
   \   000517   EC           MOV       A,R4
   \   000518   75F002       MOV       B,#0x2
   \   00051B   A4           MUL       AB
   \   00051C   CC           XCH       A,R4
   \   00051D   A8F0         MOV       R0,B
   \   00051F   75F000       MOV       B,#0x0
   \   000522   A4           MUL       AB
   \   000523   28           ADD       A,R0
   \   000524   F8           MOV       R0,A
   \   000525   75F002       MOV       B,#0x2
   \   000528   ED           MOV       A,R5
   \   000529   A4           MUL       AB
   \   00052A   28           ADD       A,R0
   \   00052B   FD           MOV       R5,A
   \   00052C   85..82       MOV       DPL,?V0
   \   00052F   85..83       MOV       DPH,?V1
   \   000532   A3           INC       DPTR
   \   000533   A3           INC       DPTR
   \   000534   A3           INC       DPTR
   \   000535   A3           INC       DPTR
   \   000536   A3           INC       DPTR
   \   000537   A3           INC       DPTR
   \   000538   A3           INC       DPTR
   \   000539   A3           INC       DPTR
   \   00053A   E0           MOVX      A,@DPTR
   \   00053B   FA           MOV       R2,A
   \   00053C   A3           INC       DPTR
   \   00053D   E0           MOVX      A,@DPTR
   \   00053E   FB           MOV       R3,A
   \   00053F   12....       LCALL     `??osal_memcpy::?relay`; Banked call to: osal_memcpy
   \   000542   7403         MOV       A,#0x3
   \   000544   12....       LCALL     ?DEALLOC_XSTACK8
   \   000547   8015         SJMP      ??ZDO_ProcessMatchDescReq_24
    992                      }
    993                      else
    994                      {
    995                        pRspSent->pOutClusters = NULL;
   \                     ??ZDO_ProcessMatchDescReq_22:
   \   000549   85..82       MOV       DPL,?V0
   \   00054C   85..83       MOV       DPH,?V1
   \   00054F   A3           INC       DPTR
   \   000550   A3           INC       DPTR
   \   000551   A3           INC       DPTR
   \   000552   A3           INC       DPTR
   \   000553   A3           INC       DPTR
   \   000554   A3           INC       DPTR
   \   000555   A3           INC       DPTR
   \   000556   A3           INC       DPTR
   \   000557   7400         MOV       A,#0x0
   \   000559   F0           MOVX      @DPTR,A
   \   00055A   A3           INC       DPTR
   \   00055B   7400         MOV       A,#0x0
   \   00055D   F0           MOVX      @DPTR,A
    996                      }
    997          
    998                      osal_msg_send( *epDesc->epDesc->task_id, (uint8 *)pRspSent );
   \                     ??ZDO_ProcessMatchDescReq_24:
   \   00055E                ; Setup parameters for call to function osal_msg_send
   \   00055E   AA..         MOV       R2,?V0
   \   000560   AB..         MOV       R3,?V1
   \   000562   85..82       MOV       DPL,?V14
   \   000565   85..83       MOV       DPH,?V15
   \   000568   A3           INC       DPTR
   \   000569   A3           INC       DPTR
   \   00056A   E0           MOVX      A,@DPTR
   \   00056B   F8           MOV       R0,A
   \   00056C   A3           INC       DPTR
   \   00056D   E0           MOVX      A,@DPTR
   \   00056E   F583         MOV       DPH,A
   \   000570   8882         MOV       DPL,R0
   \   000572   A3           INC       DPTR
   \   000573   A3           INC       DPTR
   \   000574   E0           MOVX      A,@DPTR
   \   000575   F8           MOV       R0,A
   \   000576   A3           INC       DPTR
   \   000577   E0           MOVX      A,@DPTR
   \   000578   F583         MOV       DPH,A
   \   00057A   8882         MOV       DPL,R0
   \   00057C   E0           MOVX      A,@DPTR
   \   00057D   F9           MOV       R1,A
   \   00057E   12....       LCALL     `??osal_msg_send::?relay`; Banked call to: osal_msg_send
   \   000581   E9           MOV       A,R1
    999                    }
   1000          
   1001                    uint8Buf[epCnt++] = sDesc->EndPoint;
   \                     ??ZDO_ProcessMatchDescReq_19:
   \   000582   85..82       MOV       DPL,?V12
   \   000585   85..83       MOV       DPH,?V13
   \   000588   E0           MOVX      A,@DPTR
   \   000589   C0E0         PUSH      A
   \   00058B   85..82       MOV       DPL,?XSP + 0
   \   00058E   85..83       MOV       DPH,?XSP + 1
   \   000591   E0           MOVX      A,@DPTR
   \   000592   F8           MOV       R0,A
   \   000593   7900         MOV       R1,#0x0
   \   000595   7408         MOV       A,#0x8
   \   000597   12....       LCALL     ?XSTACK_DISP0_8
   \   00059A   E0           MOVX      A,@DPTR
   \   00059B   28           ADD       A,R0
   \   00059C   FA           MOV       R2,A
   \   00059D   A3           INC       DPTR
   \   00059E   E0           MOVX      A,@DPTR
   \   00059F   39           ADDC      A,R1
   \   0005A0   8A82         MOV       DPL,R2
   \   0005A2   F583         MOV       DPH,A
   \   0005A4   D0E0         POP       A
   \   0005A6   F0           MOVX      @DPTR,A
   \   0005A7   85..82       MOV       DPL,?XSP + 0
   \   0005AA   85..83       MOV       DPH,?XSP + 1
   \   0005AD   E0           MOVX      A,@DPTR
   \   0005AE   2401         ADD       A,#0x1
   \   0005B0   F0           MOVX      @DPTR,A
   1002                  }
   1003                }
   1004          
   1005                if ( allocated )
   \                     ??ZDO_ProcessMatchDescReq_14:
   \   0005B1   7405         MOV       A,#0x5
   \   0005B3   12....       LCALL     ?XSTACK_DISP0_8
   \   0005B6   E0           MOVX      A,@DPTR
   \   0005B7   6007         JZ        ??ZDO_ProcessMatchDescReq_11
   1006                {
   1007                  osal_mem_free( sDesc );
   \   0005B9                ; Setup parameters for call to function osal_mem_free
   \   0005B9   AA..         MOV       R2,?V12
   \   0005BB   AB..         MOV       R3,?V13
   \   0005BD   12....       LCALL     `??osal_mem_free::?relay`; Banked call to: osal_mem_free
   1008                }
   1009              }
   1010              epDesc = epDesc->nextDesc;
   \                     ??ZDO_ProcessMatchDescReq_11:
   \   0005C0   85..82       MOV       DPL,?V14
   \   0005C3   85..83       MOV       DPH,?V15
   \   0005C6   E0           MOVX      A,@DPTR
   \   0005C7   F5..         MOV       ?V14,A
   \   0005C9   A3           INC       DPTR
   \   0005CA   E0           MOVX      A,@DPTR
   \   0005CB   F5..         MOV       ?V15,A
   \   0005CD   02....       LJMP      ??ZDO_ProcessMatchDescReq_9 & 0xFFFF
   1011            }
   1012          
   1013            if ( epCnt )
   \                     ??ZDO_ProcessMatchDescReq_10:
   \   0005D0   85..82       MOV       DPL,?XSP + 0
   \   0005D3   85..83       MOV       DPH,?XSP + 1
   \   0005D6   E0           MOVX      A,@DPTR
   \   0005D7   606E         JZ        ??ZDO_ProcessMatchDescReq_25
   1014            {
   1015              // Send the message if at least one match found.
   1016              if ( ZSuccess == ZDP_MatchDescRsp( inMsg->TransSeq, &(inMsg->srcAddr), ZDP_SUCCESS,
   1017                        ZDAppNwkAddr.addr.shortAddr, epCnt, (uint8 *)ZDOBuildBuf, inMsg->SecurityUse ) )
   \   0005D9                ; Setup parameters for call to function ZDP_EPRsp
   \   0005D9   E5..         MOV       A,?V10
   \   0005DB   240E         ADD       A,#0xe
   \   0005DD   F582         MOV       DPL,A
   \   0005DF   E4           CLR       A
   \   0005E0   35..         ADDC      A,?V11
   \   0005E2   F583         MOV       DPH,A
   \   0005E4   E0           MOVX      A,@DPTR
   \   0005E5   F5..         MOV       ?V0,A
   \   0005E7   78..         MOV       R0,#?V0
   \   0005E9   12....       LCALL     ?PUSH_XSTACK_I_ONE
   \   0005EC   75....       MOV       ?V0,#ZDOBuildBuf & 0xff
   \   0005EF   75....       MOV       ?V1,#(ZDOBuildBuf >> 8) & 0xff
   \   0005F2   78..         MOV       R0,#?V0
   \   0005F4   12....       LCALL     ?PUSH_XSTACK_I_TWO
   \   0005F7   7403         MOV       A,#0x3
   \   0005F9   12....       LCALL     ?XSTACK_DISP0_8
   \   0005FC   E0           MOVX      A,@DPTR
   \   0005FD   F5..         MOV       ?V0,A
   \   0005FF   78..         MOV       R0,#?V0
   \   000601   12....       LCALL     ?PUSH_XSTACK_I_ONE
   \   000604   90....       MOV       DPTR,#ZDAppNwkAddr
   \   000607   12....       LCALL     ?PUSH_XSTACK8_X_TWO
   \   00060A   75..00       MOV       ?V0,#0x0
   \   00060D   78..         MOV       R0,#?V0
   \   00060F   12....       LCALL     ?PUSH_XSTACK_I_ONE
   \   000612   E5..         MOV       A,?V10
   \   000614   2402         ADD       A,#0x2
   \   000616   FC           MOV       R4,A
   \   000617   E4           CLR       A
   \   000618   35..         ADDC      A,?V11
   \   00061A   FD           MOV       R5,A
   \   00061B   E5..         MOV       A,?V10
   \   00061D   240F         ADD       A,#0xf
   \   00061F   F582         MOV       DPL,A
   \   000621   E4           CLR       A
   \   000622   35..         ADDC      A,?V11
   \   000624   F583         MOV       DPH,A
   \   000626   E0           MOVX      A,@DPTR
   \   000627   F9           MOV       R1,A
   \   000628   7A06         MOV       R2,#0x6
   \   00062A   7B80         MOV       R3,#-0x80
   \   00062C   12....       LCALL     `??ZDP_EPRsp::?relay`; Banked call to: ZDP_EPRsp
   \   00062F   7407         MOV       A,#0x7
   \   000631   12....       LCALL     ?DEALLOC_XSTACK8
   \   000634   E9           MOV       A,R1
   \   000635   6003         JZ        $+5
   \   000637   02....       LJMP      ??ZDO_ProcessMatchDescReq_26 & 0xFFFF
   1018              {
   1019          #if defined( LCD_SUPPORTED )
   1020                HalLcdWriteScreen( "Match Desc Req", "Rsp Sent" );
   \   00063A                ; Setup parameters for call to function HalLcdWriteScreen
   \   00063A   7C..         MOV       R4,#`?<Constant "Rsp Sent">` & 0xff
   \   00063C   7D..         MOV       R5,#(`?<Constant "Rsp Sent">` >> 8) & 0xff
   \   00063E   7A..         MOV       R2,#`?<Constant "Match Desc Req">` & 0xff
   \   000640   7B..         MOV       R3,#(`?<Constant "Match Desc Req">` >> 8) & 0xff
   \   000642   12....       LCALL     `??HalLcdWriteScreen::?relay`; Banked call to: HalLcdWriteScreen
   \   000645   807D         SJMP      ??ZDO_ProcessMatchDescReq_26
   1021          #endif
   1022              }
   1023            }
   1024            else
   1025            {
   1026              if (!inMsg->wasBroadcast)
   \                     ??ZDO_ProcessMatchDescReq_25:
   \   000647   E5..         MOV       A,?V10
   \   000649   240B         ADD       A,#0xb
   \   00064B   F582         MOV       DPL,A
   \   00064D   E4           CLR       A
   \   00064E   35..         ADDC      A,?V11
   \   000650   F583         MOV       DPH,A
   \   000652   E0           MOVX      A,@DPTR
   \   000653   7064         JNZ       ??ZDO_ProcessMatchDescReq_27
   1027              {
   1028                // send response message with match length = 0
   1029                ZDP_MatchDescRsp( inMsg->TransSeq, &(inMsg->srcAddr), ZDP_SUCCESS,
   1030                                  ZDAppNwkAddr.addr.shortAddr, 0, (uint8 *)ZDOBuildBuf, inMsg->SecurityUse );
   \   000655                ; Setup parameters for call to function ZDP_EPRsp
   \   000655   E5..         MOV       A,?V10
   \   000657   240E         ADD       A,#0xe
   \   000659   F582         MOV       DPL,A
   \   00065B   E4           CLR       A
   \   00065C   35..         ADDC      A,?V11
   \   00065E   F583         MOV       DPH,A
   \   000660   E0           MOVX      A,@DPTR
   \   000661   F5..         MOV       ?V0,A
   \   000663   78..         MOV       R0,#?V0
   \   000665   12....       LCALL     ?PUSH_XSTACK_I_ONE
   \   000668   75....       MOV       ?V0,#ZDOBuildBuf & 0xff
   \   00066B   75....       MOV       ?V1,#(ZDOBuildBuf >> 8) & 0xff
   \   00066E   78..         MOV       R0,#?V0
   \   000670   12....       LCALL     ?PUSH_XSTACK_I_TWO
   \   000673   75..00       MOV       ?V0,#0x0
   \   000676   78..         MOV       R0,#?V0
   \   000678   12....       LCALL     ?PUSH_XSTACK_I_ONE
   \   00067B   90....       MOV       DPTR,#ZDAppNwkAddr
   \   00067E   12....       LCALL     ?PUSH_XSTACK8_X_TWO
   \   000681   75..00       MOV       ?V0,#0x0
   \   000684   78..         MOV       R0,#?V0
   \   000686   12....       LCALL     ?PUSH_XSTACK_I_ONE
   \   000689   E5..         MOV       A,?V10
   \   00068B   2402         ADD       A,#0x2
   \   00068D   FC           MOV       R4,A
   \   00068E   E4           CLR       A
   \   00068F   35..         ADDC      A,?V11
   \   000691   FD           MOV       R5,A
   \   000692   E5..         MOV       A,?V10
   \   000694   240F         ADD       A,#0xf
   \   000696   F582         MOV       DPL,A
   \   000698   E4           CLR       A
   \   000699   35..         ADDC      A,?V11
   \   00069B   F583         MOV       DPH,A
   \   00069D   E0           MOVX      A,@DPTR
   \   00069E   F9           MOV       R1,A
   \   00069F   7A06         MOV       R2,#0x6
   \   0006A1   7B80         MOV       R3,#-0x80
   \   0006A3   12....       LCALL     `??ZDP_EPRsp::?relay`; Banked call to: ZDP_EPRsp
   \   0006A6   7407         MOV       A,#0x7
   \   0006A8   12....       LCALL     ?DEALLOC_XSTACK8
   \   0006AB   E9           MOV       A,R1
   1031          #if defined( LCD_SUPPORTED )
   1032                HalLcdWriteScreen( "Match Desc Req", "Rsp Non Matched" );
   \   0006AC                ; Setup parameters for call to function HalLcdWriteScreen
   \   0006AC   7C..         MOV       R4,#`?<Constant "Rsp Non Matched">` & 0xff
   \   0006AE   7D..         MOV       R5,#(`?<Constant "Rsp Non Matched">` >> 8) & 0xff
   \   0006B0   7A..         MOV       R2,#`?<Constant "Match Desc Req">` & 0xff
   \   0006B2   7B..         MOV       R3,#(`?<Constant "Match Desc Req">` >> 8) & 0xff
   \   0006B4   12....       LCALL     `??HalLcdWriteScreen::?relay`; Banked call to: HalLcdWriteScreen
   \   0006B7   800B         SJMP      ??ZDO_ProcessMatchDescReq_26
   1033          #endif
   1034              }
   1035              else
   1036              {
   1037                // no response mesage for broadcast message
   1038          #if defined( LCD_SUPPORTED )
   1039                HalLcdWriteScreen( "Match Desc Req", "Non Matched" );
   \                     ??ZDO_ProcessMatchDescReq_27:
   \   0006B9                ; Setup parameters for call to function HalLcdWriteScreen
   \   0006B9   7C..         MOV       R4,#`?<Constant "Non Matched">` & 0xff
   \   0006BB   7D..         MOV       R5,#(`?<Constant "Non Matched">` >> 8) & 0xff
   \   0006BD   7A..         MOV       R2,#`?<Constant "Match Desc Req">` & 0xff
   \   0006BF   7B..         MOV       R3,#(`?<Constant "Match Desc Req">` >> 8) & 0xff
   \   0006C1   12....       LCALL     `??HalLcdWriteScreen::?relay`; Banked call to: HalLcdWriteScreen
   1040          #endif
   1041              }
   1042            }
   1043          
   1044            if ( inClusters != NULL )
   \                     ??ZDO_ProcessMatchDescReq_26:
   \   0006C4   7403         MOV       A,#0x3
   \   0006C6   12....       LCALL     ?XSTACK_DISP0_8
   \   0006C9   E0           MOVX      A,@DPTR
   \   0006CA   F8           MOV       R0,A
   \   0006CB   A3           INC       DPTR
   \   0006CC   E0           MOVX      A,@DPTR
   \   0006CD   F9           MOV       R1,A
   \   0006CE   E8           MOV       A,R0
   \   0006CF   49           ORL       A,R1
   \   0006D0   600D         JZ        ??ZDO_ProcessMatchDescReq_28
   1045            {
   1046              osal_mem_free( inClusters );
   \   0006D2                ; Setup parameters for call to function osal_mem_free
   \   0006D2   7403         MOV       A,#0x3
   \   0006D4   12....       LCALL     ?XSTACK_DISP0_8
   \   0006D7   E0           MOVX      A,@DPTR
   \   0006D8   FA           MOV       R2,A
   \   0006D9   A3           INC       DPTR
   \   0006DA   E0           MOVX      A,@DPTR
   \   0006DB   FB           MOV       R3,A
   \   0006DC   12....       LCALL     `??osal_mem_free::?relay`; Banked call to: osal_mem_free
   1047            }
   1048          
   1049            if ( outClusters != NULL )
   \                     ??ZDO_ProcessMatchDescReq_28:
   \   0006DF   7401         MOV       A,#0x1
   \   0006E1   12....       LCALL     ?XSTACK_DISP0_8
   \   0006E4   E0           MOVX      A,@DPTR
   \   0006E5   F8           MOV       R0,A
   \   0006E6   A3           INC       DPTR
   \   0006E7   E0           MOVX      A,@DPTR
   \   0006E8   F9           MOV       R1,A
   \   0006E9   E8           MOV       A,R0
   \   0006EA   49           ORL       A,R1
   \   0006EB   600D         JZ        ??ZDO_ProcessMatchDescReq_2
   1050            {
   1051              osal_mem_free( outClusters );
   \   0006ED                ; Setup parameters for call to function osal_mem_free
   \   0006ED   7401         MOV       A,#0x1
   \   0006EF   12....       LCALL     ?XSTACK_DISP0_8
   \   0006F2   E0           MOVX      A,@DPTR
   \   0006F3   FA           MOV       R2,A
   \   0006F4   A3           INC       DPTR
   \   0006F5   E0           MOVX      A,@DPTR
   \   0006F6   FB           MOV       R3,A
   \   0006F7   12....       LCALL     `??osal_mem_free::?relay`; Banked call to: osal_mem_free
   1052            }
   1053          }
   \                     ??ZDO_ProcessMatchDescReq_2:
   \   0006FA   740A         MOV       A,#0xa
   \   0006FC   12....       LCALL     ?DEALLOC_XSTACK8
   \   0006FF   7F10         MOV       R7,#0x10
   \   000701   02....       LJMP      ?BANKED_LEAVE_XDATA
   1054          
   1055          #if defined ( REFLECTOR )
   1056          /*********************************************************************
   1057           * @fn      ZDO_ProcessBindUnbindReq()
   1058           *
   1059           * @brief   Called to process a Bind or Unbind Request message.
   1060           *
   1061           * @param   inMsg  - incoming message (request)
   1062           * @param   pReq - place to put parsed information
   1063           *
   1064           * @return  none
   1065           */

   \                                 In  segment BANKED_CODE, align 1, keep-with-next
   1066          void ZDO_ProcessBindUnbindReq( zdoIncomingMsg_t *inMsg, ZDO_BindUnbindReq_t *pReq )
   \                     ZDO_ProcessBindUnbindReq:
   1067          {
   \   000000                REQUIRE ?V0
   \   000000                REQUIRE ?V1
   \   000000                REQUIRE ?V2
   \   000000                REQUIRE ?V3
   \   000000   74F4         MOV       A,#-0xc
   \   000002   12....       LCALL     ?BANKED_ENTER_XDATA
   \   000005                ; Saved register size: 12
   \   000005                ; Auto size: 12
   \   000005   74F4         MOV       A,#-0xc
   \   000007   12....       LCALL     ?ALLOC_XSTACK8
   \   00000A   8A..         MOV       ?V0,R2
   \   00000C   8B..         MOV       ?V1,R3
   \   00000E   EC           MOV       A,R4
   \   00000F   FE           MOV       R6,A
   \   000010   ED           MOV       A,R5
   \   000011   FF           MOV       R7,A
   1068            zAddrType_t SourceAddr;       // Binding Source addres
   1069            byte bindStat;
   1070          
   1071            SourceAddr.addrMode = Addr64Bit;
   \   000012   740B         MOV       A,#0xb
   \   000014   12....       LCALL     ?XSTACK_DISP0_8
   \   000017   7403         MOV       A,#0x3
   \   000019   F0           MOVX      @DPTR,A
   1072            osal_cpyExtAddr( SourceAddr.addr.extAddr, pReq->srcAddress );
   \   00001A                ; Setup parameters for call to function sAddrExtCpy
   \   00001A   EE           MOV       A,R6
   \   00001B   FC           MOV       R4,A
   \   00001C   EF           MOV       A,R7
   \   00001D   FD           MOV       R5,A
   \   00001E   7403         MOV       A,#0x3
   \   000020   12....       LCALL     ?XSTACK_DISP101_8
   \   000023   12....       LCALL     `??sAddrExtCpy::?relay`; Banked call to: sAddrExtCpy
   1073          
   1074            // If the local device is not the primary binding cache
   1075            // check the src address of the bind request.
   1076            // If it is not the local device's extended address
   1077            // discard the request.
   1078            if ( !osal_ExtAddrEqual( SourceAddr.addr.extAddr, NLME_GetExtAddr()) ||
   1079                  (pReq->dstAddress.addrMode != Addr64Bit &&
   1080                   pReq->dstAddress.addrMode != AddrGroup) )
   \   000026                ; Setup parameters for call to function NLME_GetExtAddr
   \   000026   12....       LCALL     `??NLME_GetExtAddr::?relay`; Banked call to: NLME_GetExtAddr
   \   000029   8A..         MOV       ?V2,R2
   \   00002B   8B..         MOV       ?V3,R3
   \   00002D   AC..         MOV       R4,?V2
   \   00002F   AD..         MOV       R5,?V3
   \   000031                ; Setup parameters for call to function sAddrExtCmp
   \   000031   7403         MOV       A,#0x3
   \   000033   12....       LCALL     ?XSTACK_DISP101_8
   \   000036   12....       LCALL     `??sAddrExtCmp::?relay`; Banked call to: sAddrExtCmp
   \   000039   E9           MOV       A,R1
   \   00003A   601C         JZ        ??ZDO_ProcessBindUnbindReq_0
   \   00003C   EE           MOV       A,R6
   \   00003D   2413         ADD       A,#0x13
   \   00003F   F582         MOV       DPL,A
   \   000041   E4           CLR       A
   \   000042   3F           ADDC      A,R7
   \   000043   F583         MOV       DPH,A
   \   000045   E0           MOVX      A,@DPTR
   \   000046   6403         XRL       A,#0x3
   \   000048   601A         JZ        ??ZDO_ProcessBindUnbindReq_1
   \   00004A   EE           MOV       A,R6
   \   00004B   2413         ADD       A,#0x13
   \   00004D   F582         MOV       DPL,A
   \   00004F   E4           CLR       A
   \   000050   3F           ADDC      A,R7
   \   000051   F583         MOV       DPH,A
   \   000053   E0           MOVX      A,@DPTR
   \   000054   6401         XRL       A,#0x1
   \   000056   600C         JZ        ??ZDO_ProcessBindUnbindReq_1
   1081            {
   1082              bindStat = ZDP_NOT_SUPPORTED;
   \                     ??ZDO_ProcessBindUnbindReq_0:
   \   000058   85..82       MOV       DPL,?XSP + 0
   \   00005B   85..83       MOV       DPH,?XSP + 1
   \   00005E   7484         MOV       A,#-0x7c
   \   000060   F0           MOVX      @DPTR,A
   \   000061   02....       LJMP      ??ZDO_ProcessBindUnbindReq_2 & 0xFFFF
   1083            }
   1084            else
   1085            {
   1086              // Check source & destination endpoints
   1087              if ( (pReq->srcEndpoint == 0 || pReq->srcEndpoint > MAX_ENDPOINTS)
   1088                  || (( pReq->dstAddress.addrMode == Addr64Bit ) &&
   1089                      (pReq->dstEndpoint == 0 || pReq->dstEndpoint > MAX_ENDPOINTS)) )
   \                     ??ZDO_ProcessBindUnbindReq_1:
   \   000064   8E82         MOV       DPL,R6
   \   000066   8F83         MOV       DPH,R7
   \   000068   A3           INC       DPTR
   \   000069   A3           INC       DPTR
   \   00006A   A3           INC       DPTR
   \   00006B   A3           INC       DPTR
   \   00006C   A3           INC       DPTR
   \   00006D   A3           INC       DPTR
   \   00006E   A3           INC       DPTR
   \   00006F   A3           INC       DPTR
   \   000070   E0           MOVX      A,@DPTR
   \   000071   6039         JZ        ??ZDO_ProcessBindUnbindReq_3
   \   000073   8E82         MOV       DPL,R6
   \   000075   8F83         MOV       DPH,R7
   \   000077   A3           INC       DPTR
   \   000078   A3           INC       DPTR
   \   000079   A3           INC       DPTR
   \   00007A   A3           INC       DPTR
   \   00007B   A3           INC       DPTR
   \   00007C   A3           INC       DPTR
   \   00007D   A3           INC       DPTR
   \   00007E   A3           INC       DPTR
   \   00007F   E0           MOVX      A,@DPTR
   \   000080   64FF         XRL       A,#0xff
   \   000082   6028         JZ        ??ZDO_ProcessBindUnbindReq_3
   \   000084   EE           MOV       A,R6
   \   000085   2413         ADD       A,#0x13
   \   000087   F582         MOV       DPL,A
   \   000089   E4           CLR       A
   \   00008A   3F           ADDC      A,R7
   \   00008B   F583         MOV       DPH,A
   \   00008D   E0           MOVX      A,@DPTR
   \   00008E   6403         XRL       A,#0x3
   \   000090   7026         JNZ       ??ZDO_ProcessBindUnbindReq_4
   \   000092   EE           MOV       A,R6
   \   000093   2414         ADD       A,#0x14
   \   000095   F582         MOV       DPL,A
   \   000097   E4           CLR       A
   \   000098   3F           ADDC      A,R7
   \   000099   F583         MOV       DPH,A
   \   00009B   E0           MOVX      A,@DPTR
   \   00009C   600E         JZ        ??ZDO_ProcessBindUnbindReq_3
   \   00009E   EE           MOV       A,R6
   \   00009F   2414         ADD       A,#0x14
   \   0000A1   F582         MOV       DPL,A
   \   0000A3   E4           CLR       A
   \   0000A4   3F           ADDC      A,R7
   \   0000A5   F583         MOV       DPH,A
   \   0000A7   E0           MOVX      A,@DPTR
   \   0000A8   64FF         XRL       A,#0xff
   \   0000AA   700C         JNZ       ??ZDO_ProcessBindUnbindReq_4
   1090              {
   1091                bindStat = ZDP_INVALID_EP;
   \                     ??ZDO_ProcessBindUnbindReq_3:
   \   0000AC   85..82       MOV       DPL,?XSP + 0
   \   0000AF   85..83       MOV       DPH,?XSP + 1
   \   0000B2   7482         MOV       A,#-0x7e
   \   0000B4   F0           MOVX      @DPTR,A
   \   0000B5   02....       LJMP      ??ZDO_ProcessBindUnbindReq_2 & 0xFFFF
   1092              }
   1093              else
   1094              {
   1095                if ( inMsg->clusterID == Bind_req )
   \                     ??ZDO_ProcessBindUnbindReq_4:
   \   0000B8   E5..         MOV       A,?V0
   \   0000BA   240C         ADD       A,#0xc
   \   0000BC   F582         MOV       DPL,A
   \   0000BE   E4           CLR       A
   \   0000BF   35..         ADDC      A,?V1
   \   0000C1   F583         MOV       DPH,A
   \   0000C3   E0           MOVX      A,@DPTR
   \   0000C4   6421         XRL       A,#0x21
   \   0000C6   7004         JNZ       ??ZDO_ProcessBindUnbindReq_5
   \   0000C8   A3           INC       DPTR
   \   0000C9   E0           MOVX      A,@DPTR
   \   0000CA   6400         XRL       A,#0x0
   \                     ??ZDO_ProcessBindUnbindReq_5:
   \   0000CC   6003         JZ        $+5
   \   0000CE   02....       LJMP      ??ZDO_ProcessBindUnbindReq_6 & 0xFFFF
   1096                {
   1097                  // Assume the table is full
   1098                  bindStat = ZDP_TABLE_FULL;
   \   0000D1   85..82       MOV       DPL,?XSP + 0
   \   0000D4   85..83       MOV       DPH,?XSP + 1
   \   0000D7   748C         MOV       A,#-0x74
   \   0000D9   F0           MOVX      @DPTR,A
   1099          
   1100          #if defined( APP_TP ) || defined( APP_TP2 )
   1101                  // For ZigBee Conformance Testing
   1102                  if ( bindNumOfEntries() < gNWK_MAX_BINDING_ENTRIES )
   1103          #endif
   1104                  {
   1105          #if defined ( ZDP_BIND_VALIDATION )
   1106                    uint16 nwkAddr;
   1107          
   1108                    // Verifies that a valid NWK address exists for the device
   1109                    // before creating a Binding entry. If NWK address does not
   1110                    // exist the request is sent out and the BindReq is saved, to
   1111                    // create the Bind Entry once the NwkAddrRsp is received
   1112                    if ( ( pReq->dstAddress.addrMode == Addr64Bit ) &&
   1113                         ( APSME_LookupNwkAddr( pReq->dstAddress.addr.extAddr, &nwkAddr ) == FALSE ) )
   1114                    {
   1115                      // find an empty bind slot in the pending Bind Req list
   1116                      ZDO_PendingBindReq_t *pPendingBind;
   1117          
   1118                      if ( ( pPendingBind = ZDApp_GetEmptyPendingBindReq() ) != NULL )
   1119                      {
   1120                        // copy the received request into the empty slot and all required info
   1121                        osal_memcpy( &(pPendingBind->bindReq), pReq, sizeof( ZDO_BindUnbindReq_t ) );
   1122          
   1123                        pPendingBind->srcAddr = inMsg->srcAddr;
   1124                        pPendingBind->securityUse = inMsg->SecurityUse;
   1125                        pPendingBind->transSeq = inMsg->TransSeq;
   1126                        pPendingBind->age = MAX_TIME_ADDR_REQ;
   1127          
   1128                        // create an entry in Address Manager
   1129                        ( void )bindAddrIndexGet( &(pReq->dstAddress) );
   1130          
   1131                        ZDP_NwkAddrReq( pReq->dstAddress.addr.extAddr, ZDP_ADDR_REQTYPE_SINGLE, 0, 0 );
   1132          
   1133                        osal_start_timerEx( ZDAppTaskID, ZDO_PENDING_BIND_REQ_EVT,
   1134                                            AGE_OUT_PEND_BIND_REQ_DELAY );
   1135                        return;
   1136                      }
   1137                    }
   1138                    // Add Bind entry
   1139                    else if ( APSME_BindRequest( pReq->srcEndpoint, pReq->clusterID,
   1140                                                 &(pReq->dstAddress), pReq->dstEndpoint ) == ZSuccess )
   1141                    {
   1142                      // valid entry
   1143                      bindStat = ZDP_SUCCESS;
   1144          
   1145                      // Notify to save info into NV
   1146                      ZDApp_NVUpdate();
   1147                    }
   1148          #else // ZDP_BIND_VALIDATION  is not Defined
   1149                    // Create binding entry first independently of existance of  valid NWK addres
   1150                    // if NWK address does not exist a request is sent out
   1151                    if ( APSME_BindRequest( pReq->srcEndpoint, pReq->clusterID,
   1152                                   &(pReq->dstAddress), pReq->dstEndpoint ) == ZSuccess )
   \   0000DA                ; Setup parameters for call to function APSME_BindRequest
   \   0000DA   EE           MOV       A,R6
   \   0000DB   2414         ADD       A,#0x14
   \   0000DD   F582         MOV       DPL,A
   \   0000DF   E4           CLR       A
   \   0000E0   3F           ADDC      A,R7
   \   0000E1   F583         MOV       DPH,A
   \   0000E3   E0           MOVX      A,@DPTR
   \   0000E4   F5..         MOV       ?V2,A
   \   0000E6   78..         MOV       R0,#?V2
   \   0000E8   12....       LCALL     ?PUSH_XSTACK_I_ONE
   \   0000EB   EE           MOV       A,R6
   \   0000EC   240B         ADD       A,#0xb
   \   0000EE   FC           MOV       R4,A
   \   0000EF   E4           CLR       A
   \   0000F0   3F           ADDC      A,R7
   \   0000F1   FD           MOV       R5,A
   \   0000F2   8E82         MOV       DPL,R6
   \   0000F4   8F83         MOV       DPH,R7
   \   0000F6   A3           INC       DPTR
   \   0000F7   A3           INC       DPTR
   \   0000F8   A3           INC       DPTR
   \   0000F9   A3           INC       DPTR
   \   0000FA   A3           INC       DPTR
   \   0000FB   A3           INC       DPTR
   \   0000FC   A3           INC       DPTR
   \   0000FD   A3           INC       DPTR
   \   0000FE   A3           INC       DPTR
   \   0000FF   E0           MOVX      A,@DPTR
   \   000100   FA           MOV       R2,A
   \   000101   A3           INC       DPTR
   \   000102   E0           MOVX      A,@DPTR
   \   000103   FB           MOV       R3,A
   \   000104   8E82         MOV       DPL,R6
   \   000106   8F83         MOV       DPH,R7
   \   000108   A3           INC       DPTR
   \   000109   A3           INC       DPTR
   \   00010A   A3           INC       DPTR
   \   00010B   A3           INC       DPTR
   \   00010C   A3           INC       DPTR
   \   00010D   A3           INC       DPTR
   \   00010E   A3           INC       DPTR
   \   00010F   A3           INC       DPTR
   \   000110   E0           MOVX      A,@DPTR
   \   000111   F9           MOV       R1,A
   \   000112   12....       LCALL     `??APSME_BindRequest::?relay`; Banked call to: APSME_BindRequest
   \   000115   7401         MOV       A,#0x1
   \   000117   12....       LCALL     ?DEALLOC_XSTACK8
   \   00011A   E9           MOV       A,R1
   \   00011B   6003         JZ        $+5
   \   00011D   02....       LJMP      ??ZDO_ProcessBindUnbindReq_2 & 0xFFFF
   1153                    {
   1154                      uint16 nwkAddr;
   1155          
   1156                      // valid entry
   1157                      bindStat = ZDP_SUCCESS;
   \   000120   85..82       MOV       DPL,?XSP + 0
   \   000123   85..83       MOV       DPH,?XSP + 1
   \   000126   7400         MOV       A,#0x0
   \   000128   F0           MOVX      @DPTR,A
   1158          
   1159                      // Notify to save info into NV
   1160                      ZDApp_NVUpdate();
   \   000129                ; Setup parameters for call to function ZDApp_NVUpdate
   \   000129   12....       LCALL     `??ZDApp_NVUpdate::?relay`; Banked call to: ZDApp_NVUpdate
   1161          
   1162                      // Check for the destination address
   1163                      if ( pReq->dstAddress.addrMode == Addr64Bit )
   \   00012C   EE           MOV       A,R6
   \   00012D   2413         ADD       A,#0x13
   \   00012F   F582         MOV       DPL,A
   \   000131   E4           CLR       A
   \   000132   3F           ADDC      A,R7
   \   000133   F583         MOV       DPH,A
   \   000135   E0           MOVX      A,@DPTR
   \   000136   6403         XRL       A,#0x3
   \   000138   707F         JNZ       ??ZDO_ProcessBindUnbindReq_2
   1164                      {
   1165                        if ( APSME_LookupNwkAddr( pReq->dstAddress.addr.extAddr, &nwkAddr ) == FALSE )
   \   00013A                ; Setup parameters for call to function APSME_LookupNwkAddr
   \   00013A   7401         MOV       A,#0x1
   \   00013C   12....       LCALL     ?XSTACK_DISP102_8
   \   00013F   EE           MOV       A,R6
   \   000140   240B         ADD       A,#0xb
   \   000142   FA           MOV       R2,A
   \   000143   E4           CLR       A
   \   000144   3F           ADDC      A,R7
   \   000145   FB           MOV       R3,A
   \   000146   12....       LCALL     `??APSME_LookupNwkAddr::?relay`; Banked call to: APSME_LookupNwkAddr
   \   000149   E9           MOV       A,R1
   \   00014A   706D         JNZ       ??ZDO_ProcessBindUnbindReq_2
   1166                        {
   1167                          ZDP_NwkAddrReq( pReq->dstAddress.addr.extAddr, ZDP_ADDR_REQTYPE_SINGLE, 0, 0 );
   \   00014C                ; Setup parameters for call to function ZDP_NwkAddrReq
   \   00014C   7D00         MOV       R5,#0x0
   \   00014E   7C00         MOV       R4,#0x0
   \   000150   7900         MOV       R1,#0x0
   \   000152   EE           MOV       A,R6
   \   000153   240B         ADD       A,#0xb
   \   000155   FA           MOV       R2,A
   \   000156   E4           CLR       A
   \   000157   3F           ADDC      A,R7
   \   000158   FB           MOV       R3,A
   \   000159   12....       LCALL     `??ZDP_NwkAddrReq::?relay`; Banked call to: ZDP_NwkAddrReq
   \   00015C   E9           MOV       A,R1
   \   00015D   805A         SJMP      ??ZDO_ProcessBindUnbindReq_2
   1168                        }
   1169                      }
   1170                    }
   1171          #endif
   1172                  }
   1173                }
   1174                else // Unbind_req
   1175                {
   1176                  if ( APSME_UnBindRequest( pReq->srcEndpoint, pReq->clusterID,
   1177                                 &(pReq->dstAddress), pReq->dstEndpoint ) == ZSuccess )
   \                     ??ZDO_ProcessBindUnbindReq_6:
   \   00015F                ; Setup parameters for call to function APSME_UnBindRequest
   \   00015F   EE           MOV       A,R6
   \   000160   2414         ADD       A,#0x14
   \   000162   F582         MOV       DPL,A
   \   000164   E4           CLR       A
   \   000165   3F           ADDC      A,R7
   \   000166   F583         MOV       DPH,A
   \   000168   E0           MOVX      A,@DPTR
   \   000169   F5..         MOV       ?V2,A
   \   00016B   78..         MOV       R0,#?V2
   \   00016D   12....       LCALL     ?PUSH_XSTACK_I_ONE
   \   000170   EE           MOV       A,R6
   \   000171   240B         ADD       A,#0xb
   \   000173   FC           MOV       R4,A
   \   000174   E4           CLR       A
   \   000175   3F           ADDC      A,R7
   \   000176   FD           MOV       R5,A
   \   000177   8E82         MOV       DPL,R6
   \   000179   8F83         MOV       DPH,R7
   \   00017B   A3           INC       DPTR
   \   00017C   A3           INC       DPTR
   \   00017D   A3           INC       DPTR
   \   00017E   A3           INC       DPTR
   \   00017F   A3           INC       DPTR
   \   000180   A3           INC       DPTR
   \   000181   A3           INC       DPTR
   \   000182   A3           INC       DPTR
   \   000183   A3           INC       DPTR
   \   000184   E0           MOVX      A,@DPTR
   \   000185   FA           MOV       R2,A
   \   000186   A3           INC       DPTR
   \   000187   E0           MOVX      A,@DPTR
   \   000188   FB           MOV       R3,A
   \   000189   8E82         MOV       DPL,R6
   \   00018B   8F83         MOV       DPH,R7
   \   00018D   A3           INC       DPTR
   \   00018E   A3           INC       DPTR
   \   00018F   A3           INC       DPTR
   \   000190   A3           INC       DPTR
   \   000191   A3           INC       DPTR
   \   000192   A3           INC       DPTR
   \   000193   A3           INC       DPTR
   \   000194   A3           INC       DPTR
   \   000195   E0           MOVX      A,@DPTR
   \   000196   F9           MOV       R1,A
   \   000197   12....       LCALL     `??APSME_UnBindRequest::?relay`; Banked call to: APSME_UnBindRequest
   \   00019A   7401         MOV       A,#0x1
   \   00019C   12....       LCALL     ?DEALLOC_XSTACK8
   \   00019F   E9           MOV       A,R1
   \   0001A0   700E         JNZ       ??ZDO_ProcessBindUnbindReq_7
   1178                  {
   1179                    bindStat = ZDP_SUCCESS;
   \   0001A2   85..82       MOV       DPL,?XSP + 0
   \   0001A5   85..83       MOV       DPH,?XSP + 1
   \   0001A8   7400         MOV       A,#0x0
   \   0001AA   F0           MOVX      @DPTR,A
   1180          
   1181                    // Notify to save info into NV
   1182                    ZDApp_NVUpdate();
   \   0001AB                ; Setup parameters for call to function ZDApp_NVUpdate
   \   0001AB   12....       LCALL     `??ZDApp_NVUpdate::?relay`; Banked call to: ZDApp_NVUpdate
   \   0001AE   8009         SJMP      ??ZDO_ProcessBindUnbindReq_2
   1183                  }
   1184                  else
   1185                    bindStat = ZDP_NO_ENTRY;
   \                     ??ZDO_ProcessBindUnbindReq_7:
   \   0001B0   85..82       MOV       DPL,?XSP + 0
   \   0001B3   85..83       MOV       DPH,?XSP + 1
   \   0001B6   7488         MOV       A,#-0x78
   \   0001B8   F0           MOVX      @DPTR,A
   1186                }
   1187              }
   1188            }
   1189          
   1190            // Send back a response message
   1191            ZDP_SendData( &(inMsg->TransSeq), &(inMsg->srcAddr),
   1192                         (inMsg->clusterID | ZDO_RESPONSE_BIT), 1, &bindStat,
   1193                         inMsg->SecurityUse );
   \                     ??ZDO_ProcessBindUnbindReq_2:
   \   0001B9                ; Setup parameters for call to function ZDP_SendData
   \   0001B9   E5..         MOV       A,?V0
   \   0001BB   240E         ADD       A,#0xe
   \   0001BD   F582         MOV       DPL,A
   \   0001BF   E4           CLR       A
   \   0001C0   35..         ADDC      A,?V1
   \   0001C2   F583         MOV       DPH,A
   \   0001C4   E0           MOVX      A,@DPTR
   \   0001C5   F5..         MOV       ?V2,A
   \   0001C7   78..         MOV       R0,#?V2
   \   0001C9   12....       LCALL     ?PUSH_XSTACK_I_ONE
   \   0001CC   7401         MOV       A,#0x1
   \   0001CE   12....       LCALL     ?XSTACK_DISP100_8
   \   0001D1   88..         MOV       ?V2,R0
   \   0001D3   89..         MOV       ?V3,R1
   \   0001D5   78..         MOV       R0,#?V2
   \   0001D7   12....       LCALL     ?PUSH_XSTACK_I_TWO
   \   0001DA   E5..         MOV       A,?V0
   \   0001DC   240C         ADD       A,#0xc
   \   0001DE   F582         MOV       DPL,A
   \   0001E0   E4           CLR       A
   \   0001E1   35..         ADDC      A,?V1
   \   0001E3   F583         MOV       DPH,A
   \   0001E5   E0           MOVX      A,@DPTR
   \   0001E6   4400         ORL       A,#0x0
   \   0001E8   F5..         MOV       ?V2,A
   \   0001EA   A3           INC       DPTR
   \   0001EB   E0           MOVX      A,@DPTR
   \   0001EC   4480         ORL       A,#0x80
   \   0001EE   F5..         MOV       ?V3,A
   \   0001F0   78..         MOV       R0,#?V2
   \   0001F2   12....       LCALL     ?PUSH_XSTACK_I_TWO
   \   0001F5   7901         MOV       R1,#0x1
   \   0001F7   E5..         MOV       A,?V0
   \   0001F9   2402         ADD       A,#0x2
   \   0001FB   FC           MOV       R4,A
   \   0001FC   E4           CLR       A
   \   0001FD   35..         ADDC      A,?V1
   \   0001FF   FD           MOV       R5,A
   \   000200   E5..         MOV       A,?V0
   \   000202   240F         ADD       A,#0xf
   \   000204   FA           MOV       R2,A
   \   000205   E4           CLR       A
   \   000206   35..         ADDC      A,?V1
   \   000208   FB           MOV       R3,A
   \   000209   12....       LCALL     `??ZDP_SendData::?relay`; Banked call to: ZDP_SendData
   \   00020C   7405         MOV       A,#0x5
   \   00020E   12....       LCALL     ?DEALLOC_XSTACK8
   \   000211   E9           MOV       A,R1
   1194          }
   \   000212   740C         MOV       A,#0xc
   \   000214   12....       LCALL     ?DEALLOC_XSTACK8
   \   000217   7F04         MOV       R7,#0x4
   \   000219   02....       LJMP      ?BANKED_LEAVE_XDATA
   1195          #endif // REFLECTOR
   1196          
   1197          /*********************************************************************
   1198           * @fn      ZDO_UpdateAddrManager
   1199           *
   1200           * @brief   Update the Address Manager.
   1201           *
   1202           * @param   nwkAddr - network address
   1203           * @param   extAddr - extended address
   1204           *
   1205           * @return  none
   1206           */

   \                                 In  segment BANKED_CODE, align 1, keep-with-next
   1207          void ZDO_UpdateAddrManager( uint16 nwkAddr, uint8 *extAddr )
   \                     ZDO_UpdateAddrManager:
   1208          {
   \   000000                REQUIRE ?V0
   \   000000                REQUIRE ?V1
   \   000000   74F6         MOV       A,#-0xa
   \   000002   12....       LCALL     ?BANKED_ENTER_XDATA
   \   000005                ; Saved register size: 10
   \   000005                ; Auto size: 13
   \   000005   74F3         MOV       A,#-0xd
   \   000007   12....       LCALL     ?ALLOC_XSTACK8
   \   00000A   8A..         MOV       ?V0,R2
   \   00000C   8B..         MOV       ?V1,R3
   \   00000E   EC           MOV       A,R4
   \   00000F   FE           MOV       R6,A
   \   000010   ED           MOV       A,R5
   \   000011   FF           MOV       R7,A
   1209            AddrMgrEntry_t addrEntry;
   1210          
   1211            // Update the address manager
   1212            addrEntry.user = ADDRMGR_USER_DEFAULT;
   \   000012   85..82       MOV       DPL,?XSP + 0
   \   000015   85..83       MOV       DPH,?XSP + 1
   \   000018   7400         MOV       A,#0x0
   \   00001A   F0           MOVX      @DPTR,A
   1213            addrEntry.nwkAddr = nwkAddr;
   \   00001B   7401         MOV       A,#0x1
   \   00001D   12....       LCALL     ?XSTACK_DISP0_8
   \   000020   E5..         MOV       A,?V0
   \   000022   F0           MOVX      @DPTR,A
   \   000023   A3           INC       DPTR
   \   000024   E5..         MOV       A,?V1
   \   000026   F0           MOVX      @DPTR,A
   1214            AddrMgrExtAddrSet( addrEntry.extAddr, extAddr );
   \   000027                ; Setup parameters for call to function AddrMgrExtAddrSet
   \   000027   EE           MOV       A,R6
   \   000028   FC           MOV       R4,A
   \   000029   EF           MOV       A,R7
   \   00002A   FD           MOV       R5,A
   \   00002B   7403         MOV       A,#0x3
   \   00002D   12....       LCALL     ?XSTACK_DISP0_8
   \   000030   AA82         MOV       R2,DPL
   \   000032   AB83         MOV       R3,DPH
   \   000034   12....       LCALL     `??AddrMgrExtAddrSet::?relay`; Banked call to: AddrMgrExtAddrSet
   1215            AddrMgrEntryUpdate( &addrEntry );
   \   000037                ; Setup parameters for call to function AddrMgrEntryUpdate
   \   000037   AA..         MOV       R2,?XSP + 0
   \   000039   AB..         MOV       R3,?XSP + 1
   \   00003B   12....       LCALL     `??AddrMgrEntryUpdate::?relay`; Banked call to: AddrMgrEntryUpdate
   \   00003E   E9           MOV       A,R1
   1216          }
   \   00003F   740D         MOV       A,#0xd
   \   000041   12....       LCALL     ?DEALLOC_XSTACK8
   \   000044   7F02         MOV       R7,#0x2
   \   000046   02....       LJMP      ?BANKED_LEAVE_XDATA
   1217          
   1218          /*********************************************************************
   1219           * @fn      ZDO_ProcessServerDiscReq
   1220           *
   1221           * @brief   Process the Server_Discovery_req message.
   1222           *
   1223           * @param   inMsg  - incoming message (request)
   1224           *
   1225           * @return  none
   1226           */

   \                                 In  segment BANKED_CODE, align 1, keep-with-next
   1227          void ZDO_ProcessServerDiscReq( zdoIncomingMsg_t *inMsg )
   \                     ZDO_ProcessServerDiscReq:
   1228          {
   \   000000                REQUIRE ?V0
   \   000000                REQUIRE ?V1
   \   000000                REQUIRE ?V2
   \   000000                REQUIRE ?V3
   \   000000   74F4         MOV       A,#-0xc
   \   000002   12....       LCALL     ?BANKED_ENTER_XDATA
   \   000005                ; Saved register size: 12
   \   000005                ; Auto size: 0
   \   000005   EA           MOV       A,R2
   \   000006   FE           MOV       R6,A
   \   000007   EB           MOV       A,R3
   \   000008   FF           MOV       R7,A
   1229            uint16 serverMask = BUILD_UINT16( inMsg->asdu[0], inMsg->asdu[1] );
   \   000009   EE           MOV       A,R6
   \   00000A   2413         ADD       A,#0x13
   \   00000C   F582         MOV       DPL,A
   \   00000E   E4           CLR       A
   \   00000F   3F           ADDC      A,R7
   \   000010   F583         MOV       DPH,A
   \   000012   E0           MOVX      A,@DPTR
   \   000013   F8           MOV       R0,A
   \   000014   A3           INC       DPTR
   \   000015   E0           MOVX      A,@DPTR
   \   000016   F583         MOV       DPH,A
   \   000018   8882         MOV       DPL,R0
   \   00001A   E0           MOVX      A,@DPTR
   \   00001B   FA           MOV       R2,A
   \   00001C   7B00         MOV       R3,#0x0
   \   00001E   EE           MOV       A,R6
   \   00001F   2413         ADD       A,#0x13
   \   000021   F582         MOV       DPL,A
   \   000023   E4           CLR       A
   \   000024   3F           ADDC      A,R7
   \   000025   F583         MOV       DPH,A
   \   000027   E0           MOVX      A,@DPTR
   \   000028   F8           MOV       R0,A
   \   000029   A3           INC       DPTR
   \   00002A   E0           MOVX      A,@DPTR
   \   00002B   F583         MOV       DPH,A
   \   00002D   8882         MOV       DPL,R0
   \   00002F   A3           INC       DPTR
   \   000030   E0           MOVX      A,@DPTR
   \   000031   F8           MOV       R0,A
   \   000032   7900         MOV       R1,#0x0
   \   000034   E4           CLR       A
   \   000035   C8           XCH       A,R0
   \   000036   F9           MOV       R1,A
   \   000037   EA           MOV       A,R2
   \   000038   28           ADD       A,R0
   \   000039   F5..         MOV       ?V0,A
   \   00003B   EB           MOV       A,R3
   \   00003C   39           ADDC      A,R1
   \   00003D   F5..         MOV       ?V1,A
   1230            uint16 matchMask = serverMask & ZDO_Config_Node_Descriptor.ServerMask;
   \   00003F   90....       MOV       DPTR,#ZDO_Config_Node_Descriptor + 8
   \   000042   E0           MOVX      A,@DPTR
   \   000043   55..         ANL       A,?V0
   \   000045   F5..         MOV       ?V2,A
   \   000047   A3           INC       DPTR
   \   000048   E0           MOVX      A,@DPTR
   \   000049   55..         ANL       A,?V1
   \   00004B   F5..         MOV       ?V3,A
   1231          
   1232            if ( matchMask )
   \   00004D   E5..         MOV       A,?V2
   \   00004F   45..         ORL       A,?V3
   \   000051   6033         JZ        ??ZDO_ProcessServerDiscReq_0
   1233            {
   1234              ZDP_ServerDiscRsp( inMsg->TransSeq, &(inMsg->srcAddr), ZSUCCESS,
   1235                          ZDAppNwkAddr.addr.shortAddr, matchMask, inMsg->SecurityUse );
   \   000053                ; Setup parameters for call to function ZDP_ServerDiscRsp
   \   000053   78..         MOV       R0,#?V2
   \   000055   12....       LCALL     ?PUSH_XSTACK_I_TWO
   \   000058   90....       MOV       DPTR,#ZDAppNwkAddr
   \   00005B   12....       LCALL     ?PUSH_XSTACK8_X_TWO
   \   00005E   EE           MOV       A,R6
   \   00005F   240E         ADD       A,#0xe
   \   000061   F582         MOV       DPL,A
   \   000063   E4           CLR       A
   \   000064   3F           ADDC      A,R7
   \   000065   F583         MOV       DPH,A
   \   000067   E0           MOVX      A,@DPTR
   \   000068   FD           MOV       R5,A
   \   000069   7C00         MOV       R4,#0x0
   \   00006B   EE           MOV       A,R6
   \   00006C   2402         ADD       A,#0x2
   \   00006E   FA           MOV       R2,A
   \   00006F   E4           CLR       A
   \   000070   3F           ADDC      A,R7
   \   000071   FB           MOV       R3,A
   \   000072   EE           MOV       A,R6
   \   000073   240F         ADD       A,#0xf
   \   000075   F582         MOV       DPL,A
   \   000077   E4           CLR       A
   \   000078   3F           ADDC      A,R7
   \   000079   F583         MOV       DPH,A
   \   00007B   E0           MOVX      A,@DPTR
   \   00007C   F9           MOV       R1,A
   \   00007D   12....       LCALL     `??ZDP_ServerDiscRsp::?relay`; Banked call to: ZDP_ServerDiscRsp
   \   000080   7404         MOV       A,#0x4
   \   000082   12....       LCALL     ?DEALLOC_XSTACK8
   \   000085   E9           MOV       A,R1
   1236            }
   1237          }
   \                     ??ZDO_ProcessServerDiscReq_0:
   \   000086   7F04         MOV       R7,#0x4
   \   000088   02....       LJMP      ?BANKED_LEAVE_XDATA
   1238          
   1239          /*********************************************************************
   1240           * Call Back Functions from APS  - API
   1241           */
   1242          
   1243          /*********************************************************************
   1244           * @fn          ZDO_EndDeviceTimeoutCB
   1245           *
   1246           * @brief       This function handles the binding timer for the End
   1247           *              Device Bind command.
   1248           *
   1249           * @param       none
   1250           *
   1251           * @return      none
   1252           */

   \                                 In  segment BANKED_CODE, align 1, keep-with-next
   1253          void ZDO_EndDeviceTimeoutCB( void )
   \                     ZDO_EndDeviceTimeoutCB:
   1254          {
   \   000000   74F7         MOV       A,#-0x9
   \   000002   12....       LCALL     ?BANKED_ENTER_XDATA
   \   000005                ; Saved register size: 9
   \   000005                ; Auto size: 0
   1255          #if defined ( REFLECTOR )
   1256            byte stat;
   1257            if ( ZDO_EDBind )
   \   000005   90....       MOV       DPTR,#ZDO_EDBind
   \   000008   E0           MOVX      A,@DPTR
   \   000009   F8           MOV       R0,A
   \   00000A   A3           INC       DPTR
   \   00000B   E0           MOVX      A,@DPTR
   \   00000C   F9           MOV       R1,A
   \   00000D   E8           MOV       A,R0
   \   00000E   49           ORL       A,R1
   \   00000F   6047         JZ        ??ZDO_EndDeviceTimeoutCB_0
   1258            {
   1259              stat = ZDO_EDBind->status;
   \   000011   90....       MOV       DPTR,#ZDO_EDBind
   \   000014   E0           MOVX      A,@DPTR
   \   000015   F8           MOV       R0,A
   \   000016   A3           INC       DPTR
   \   000017   E0           MOVX      A,@DPTR
   \   000018   C8           XCH       A,R0
   \   000019   2416         ADD       A,#0x16
   \   00001B   F582         MOV       DPL,A
   \   00001D   C8           XCH       A,R0
   \   00001E   3400         ADDC      A,#0x0
   \   000020   F583         MOV       DPH,A
   \   000022   E0           MOVX      A,@DPTR
   \   000023   FE           MOV       R6,A
   1260          
   1261              // Send the response message to the first sent
   1262              ZDO_SendEDBindRsp( ZDO_EDBind->SrcTransSeq, &(ZDO_EDBind->SrcAddr),
   1263                                  stat, ZDO_EDBind->SecurityUse );
   \   000024                ; Setup parameters for call to function ZDO_SendEDBindRsp
   \   000024   90....       MOV       DPTR,#ZDO_EDBind
   \   000027   E0           MOVX      A,@DPTR
   \   000028   F8           MOV       R0,A
   \   000029   A3           INC       DPTR
   \   00002A   E0           MOVX      A,@DPTR
   \   00002B   C8           XCH       A,R0
   \   00002C   2415         ADD       A,#0x15
   \   00002E   F582         MOV       DPL,A
   \   000030   C8           XCH       A,R0
   \   000031   3400         ADDC      A,#0x0
   \   000033   F583         MOV       DPH,A
   \   000035   E0           MOVX      A,@DPTR
   \   000036   FD           MOV       R5,A
   \   000037   EE           MOV       A,R6
   \   000038   FC           MOV       R4,A
   \   000039   90....       MOV       DPTR,#ZDO_EDBind
   \   00003C   E0           MOVX      A,@DPTR
   \   00003D   2401         ADD       A,#0x1
   \   00003F   FA           MOV       R2,A
   \   000040   A3           INC       DPTR
   \   000041   E0           MOVX      A,@DPTR
   \   000042   3400         ADDC      A,#0x0
   \   000044   FB           MOV       R3,A
   \   000045   90....       MOV       DPTR,#ZDO_EDBind
   \   000048   E0           MOVX      A,@DPTR
   \   000049   F8           MOV       R0,A
   \   00004A   A3           INC       DPTR
   \   00004B   E0           MOVX      A,@DPTR
   \   00004C   F583         MOV       DPH,A
   \   00004E   8882         MOV       DPL,R0
   \   000050   E0           MOVX      A,@DPTR
   \   000051   F9           MOV       R1,A
   \   000052   12....       LCALL     `??ZDO_SendEDBindRsp::?relay`; Banked call to: ZDO_SendEDBindRsp
   1264          
   1265              ZDO_RemoveEndDeviceBind();
   \   000055                ; Setup parameters for call to function ZDO_RemoveEndDeviceBind
   \   000055   12....       LCALL     `??ZDO_RemoveEndDeviceBind::?relay`; Banked call to: ZDO_RemoveEndDeviceBind
   1266            }
   1267          #endif  // REFLECTOR
   1268          }
   \                     ??ZDO_EndDeviceTimeoutCB_0:
   \   000058   7F01         MOV       R7,#0x1
   \   00005A   02....       LJMP      ?BANKED_LEAVE_XDATA
   1269          
   1270          /*********************************************************************
   1271           * Optional Management Messages
   1272           */
   1273          
   1274          /*********************************************************************
   1275           * @fn          ZDO_ProcessMgmtLqiReq
   1276           *
   1277           * @brief       This function handles parsing the incoming Management
   1278           *              LQI request and generate the response.
   1279           *
   1280           *   Note:      This function will limit the number of items returned
   1281           *              to ZDO_MAX_LQI_ITEMS items.
   1282           *
   1283           * @param       inMsg - incoming message (request)
   1284           *
   1285           * @return      none
   1286           */

   \                                 In  segment BANKED_CODE, align 1, keep-with-next
   1287          void ZDO_ProcessMgmtLqiReq( zdoIncomingMsg_t *inMsg )
   \                     ZDO_ProcessMgmtLqiReq:
   1288          {
   \   000000                REQUIRE ?V0
   \   000000                REQUIRE ?V1
   \   000000                REQUIRE ?V2
   \   000000                REQUIRE ?V3
   \   000000                REQUIRE ?V4
   \   000000                REQUIRE ?V5
   \   000000                REQUIRE ?V6
   \   000000                REQUIRE ?V7
   \   000000                REQUIRE ?V8
   \   000000                REQUIRE ?V9
   \   000000                REQUIRE ?V10
   \   000000                REQUIRE ?V11
   \   000000                REQUIRE ?V12
   \   000000                REQUIRE ?V13
   \   000000   74EA         MOV       A,#-0x16
   \   000002   12....       LCALL     ?BANKED_ENTER_XDATA
   \   000005                ; Saved register size: 22
   \   000005                ; Auto size: 37
   \   000005   74DB         MOV       A,#-0x25
   \   000007   12....       LCALL     ?ALLOC_XSTACK8
   \   00000A   8A..         MOV       ?V12,R2
   \   00000C   8B..         MOV       ?V13,R3
   1289            byte x;
   1290            byte index;
   1291            byte numItems;
   1292            byte maxItems;
   1293            ZDP_MgmtLqiItem_t* table = NULL;
   \   00000E   75..00       MOV       ?V10,#0x0
   \   000011   75..00       MOV       ?V11,#0x0
   1294            ZDP_MgmtLqiItem_t* item;
   1295            neighborEntry_t    entry;
   1296            byte aItems = 0;
   \   000014   75..00       MOV       ?V2,#0x0
   1297            associated_devices_t *aDevice;
   1298            AddrMgrEntry_t  nwkEntry;
   1299            uint8 StartIndex = inMsg->asdu[0];
   \   000017   E5..         MOV       A,?V12
   \   000019   2413         ADD       A,#0x13
   \   00001B   F582         MOV       DPL,A
   \   00001D   E4           CLR       A
   \   00001E   35..         ADDC      A,?V13
   \   000020   F583         MOV       DPH,A
   \   000022   E0           MOVX      A,@DPTR
   \   000023   F8           MOV       R0,A
   \   000024   A3           INC       DPTR
   \   000025   E0           MOVX      A,@DPTR
   \   000026   F583         MOV       DPH,A
   \   000028   8882         MOV       DPL,R0
   \   00002A   E0           MOVX      A,@DPTR
   \   00002B   F5..         MOV       ?V3,A
   1300          
   1301            // Get the number of neighbor items
   1302            NLME_GetRequest( nwkNumNeighborTableEntries, 0, &maxItems );
   \   00002D                ; Setup parameters for call to function NLME_GetRequest
   \   00002D   AC..         MOV       R4,?XSP + 0
   \   00002F   AD..         MOV       R5,?XSP + 1
   \   000031   7A00         MOV       R2,#0x0
   \   000033   7B00         MOV       R3,#0x0
   \   000035   799C         MOV       R1,#-0x64
   \   000037   12....       LCALL     `??NLME_GetRequest::?relay`; Banked call to: NLME_GetRequest
   \   00003A   E9           MOV       A,R1
   1303          
   1304            //Routing devices uses assoc table, end devices don't
   1305            if ( ZG_DEVICE_RTR_TYPE )
   \   00003B   90....       MOV       DPTR,#zgDeviceLogicalType
   \   00003E   E0           MOVX      A,@DPTR
   \   00003F   6008         JZ        ??ZDO_ProcessMgmtLqiReq_0
   \   000041   90....       MOV       DPTR,#zgDeviceLogicalType
   \   000044   E0           MOVX      A,@DPTR
   \   000045   6401         XRL       A,#0x1
   \   000047   7016         JNZ       ??ZDO_ProcessMgmtLqiReq_1
   1306            {
   1307              // Get the number of associated items
   1308              aItems = (uint8)AssocCount( PARENT, CHILD_FFD_RX_IDLE );
   \                     ??ZDO_ProcessMgmtLqiReq_0:
   \   000049                ; Setup parameters for call to function AssocCount
   \   000049   7A04         MOV       R2,#0x4
   \   00004B   7900         MOV       R1,#0x0
   \   00004D   12....       LCALL     `??AssocCount::?relay`; Banked call to: AssocCount
   \   000050   EA           MOV       A,R2
   \   000051   F5..         MOV       ?V2,A
   1309              // Total number of items
   1310              maxItems += aItems;
   \   000053   85..82       MOV       DPL,?XSP + 0
   \   000056   85..83       MOV       DPH,?XSP + 1
   \   000059   E0           MOVX      A,@DPTR
   \   00005A   25..         ADD       A,?V2
   \   00005C   F0           MOVX      @DPTR,A
   \   00005D   8009         SJMP      ??ZDO_ProcessMgmtLqiReq_2
   1311            }
   1312            else
   1313            {
   1314              maxItems = 1;
   \                     ??ZDO_ProcessMgmtLqiReq_1:
   \   00005F   85..82       MOV       DPL,?XSP + 0
   \   000062   85..83       MOV       DPH,?XSP + 1
   \   000065   7401         MOV       A,#0x1
   \   000067   F0           MOVX      @DPTR,A
   1315            }
   1316          
   1317            // Start with the supplied index
   1318            if ( maxItems > StartIndex )
   \                     ??ZDO_ProcessMgmtLqiReq_2:
   \   000068   85..82       MOV       DPL,?XSP + 0
   \   00006B   85..83       MOV       DPH,?XSP + 1
   \   00006E   E0           MOVX      A,@DPTR
   \   00006F   F8           MOV       R0,A
   \   000070   E5..         MOV       A,?V3
   \   000072   C3           CLR       C
   \   000073   98           SUBB      A,R0
   \   000074   4003         JC        $+5
   \   000076   02....       LJMP      ??ZDO_ProcessMgmtLqiReq_3 & 0xFFFF
   1319            {
   1320              numItems = maxItems - StartIndex;
   \   000079   85..82       MOV       DPL,?XSP + 0
   \   00007C   85..83       MOV       DPH,?XSP + 1
   \   00007F   E0           MOVX      A,@DPTR
   \   000080   C3           CLR       C
   \   000081   95..         SUBB      A,?V3
   \   000083   F5..         MOV       ?V1,A
   1321          
   1322              // limit the size of the list
   1323              if ( numItems > ZDO_MAX_LQI_ITEMS )
   \   000085   E5..         MOV       A,?V1
   \   000087   C3           CLR       C
   \   000088   9404         SUBB      A,#0x4
   \   00008A   4003         JC        ??ZDO_ProcessMgmtLqiReq_4
   1324              {
   1325                numItems = ZDO_MAX_LQI_ITEMS;
   \   00008C   75..03       MOV       ?V1,#0x3
   1326              }
   1327              
   1328              // Allocate the memory to build the table
   1329              table = (ZDP_MgmtLqiItem_t*)osal_mem_alloc( (short)
   1330                        ( numItems * sizeof( ZDP_MgmtLqiItem_t ) ) );
   \                     ??ZDO_ProcessMgmtLqiReq_4:
   \   00008F                ; Setup parameters for call to function osal_mem_alloc
   \   00008F   E5..         MOV       A,?V1
   \   000091   FA           MOV       R2,A
   \   000092   7B00         MOV       R3,#0x0
   \   000094   EA           MOV       A,R2
   \   000095   75F01A       MOV       B,#0x1a
   \   000098   A4           MUL       AB
   \   000099   CA           XCH       A,R2
   \   00009A   A8F0         MOV       R0,B
   \   00009C   75F000       MOV       B,#0x0
   \   00009F   A4           MUL       AB
   \   0000A0   28           ADD       A,R0
   \   0000A1   F8           MOV       R0,A
   \   0000A2   75F01A       MOV       B,#0x1a
   \   0000A5   EB           MOV       A,R3
   \   0000A6   A4           MUL       AB
   \   0000A7   28           ADD       A,R0
   \   0000A8   FB           MOV       R3,A
   \   0000A9   12....       LCALL     `??osal_mem_alloc::?relay`; Banked call to: osal_mem_alloc
   \   0000AC   8A..         MOV       ?V8,R2
   \   0000AE   8B..         MOV       ?V9,R3
   \   0000B0   85....       MOV       ?V10,?V8
   \   0000B3   85....       MOV       ?V11,?V9
   1331          
   1332              if ( table != NULL )
   \   0000B6   E5..         MOV       A,?V10
   \   0000B8   45..         ORL       A,?V11
   \   0000BA   7003         JNZ       $+5
   \   0000BC   02....       LJMP      ??ZDO_ProcessMgmtLqiReq_5 & 0xFFFF
   1333              {
   1334                x = 0;
   \   0000BF   75..00       MOV       ?V4,#0x0
   1335                item = table;
   \   0000C2   AE..         MOV       R6,?V10
   \   0000C4   AF..         MOV       R7,?V11
   1336                index = StartIndex;
   \   0000C6   85....       MOV       ?V0,?V3
   1337          
   1338                // Loop through associated items and build list
   1339                for ( ; x < numItems; x++ )
   \                     ??ZDO_ProcessMgmtLqiReq_6:
   \   0000C9   E5..         MOV       A,?V4
   \   0000CB   C3           CLR       C
   \   0000CC   95..         SUBB      A,?V1
   \   0000CE   4003         JC        $+5
   \   0000D0   02....       LJMP      ??ZDO_ProcessMgmtLqiReq_7 & 0xFFFF
   1340                {
   1341                  if ( index < aItems )
   \   0000D3   E5..         MOV       A,?V0
   \   0000D5   C3           CLR       C
   \   0000D6   95..         SUBB      A,?V2
   \   0000D8   4003         JC        $+5
   \   0000DA   02....       LJMP      ??ZDO_ProcessMgmtLqiReq_8 & 0xFFFF
   1342                  {
   1343                    // get next associated device
   1344                    aDevice = AssocFindDevice( index++ );
   \   0000DD                ; Setup parameters for call to function AssocFindDevice
   \   0000DD   E5..         MOV       A,?V0
   \   0000DF   FA           MOV       R2,A
   \   0000E0   7B00         MOV       R3,#0x0
   \   0000E2   12....       LCALL     `??AssocFindDevice::?relay`; Banked call to: AssocFindDevice
   \   0000E5   8A..         MOV       ?V8,R2
   \   0000E7   8B..         MOV       ?V9,R3
   \   0000E9   85....       MOV       ?V6,?V8
   \   0000EC   85....       MOV       ?V7,?V9
   \   0000EF   05..         INC       ?V0
   1345          
   1346                    // set basic fields
   1347                    item->panID   = _NIB.nwkPanId;
   \   0000F1   90....       MOV       DPTR,#_NIB + 33
   \   0000F4   E0           MOVX      A,@DPTR
   \   0000F5   F8           MOV       R0,A
   \   0000F6   A3           INC       DPTR
   \   0000F7   E0           MOVX      A,@DPTR
   \   0000F8   F9           MOV       R1,A
   \   0000F9   8E82         MOV       DPL,R6
   \   0000FB   8F83         MOV       DPH,R7
   \   0000FD   E8           MOV       A,R0
   \   0000FE   F0           MOVX      @DPTR,A
   \   0000FF   A3           INC       DPTR
   \   000100   E9           MOV       A,R1
   \   000101   F0           MOVX      @DPTR,A
   1348                    osal_cpyExtAddr( item->extPanID, _NIB.extendedPANID );
   \   000102                ; Setup parameters for call to function sAddrExtCpy
   \   000102   7C..         MOV       R4,#(_NIB + 53) & 0xff
   \   000104   7D..         MOV       R5,#((_NIB + 53) >> 8) & 0xff
   \   000106   EE           MOV       A,R6
   \   000107   2402         ADD       A,#0x2
   \   000109   FA           MOV       R2,A
   \   00010A   E4           CLR       A
   \   00010B   3F           ADDC      A,R7
   \   00010C   FB           MOV       R3,A
   \   00010D   12....       LCALL     `??sAddrExtCpy::?relay`; Banked call to: sAddrExtCpy
   1349                    item->nwkAddr = aDevice->shortAddr;
   \   000110   85..82       MOV       DPL,?V6
   \   000113   85..83       MOV       DPH,?V7
   \   000116   E0           MOVX      A,@DPTR
   \   000117   F8           MOV       R0,A
   \   000118   A3           INC       DPTR
   \   000119   E0           MOVX      A,@DPTR
   \   00011A   F9           MOV       R1,A
   \   00011B   EE           MOV       A,R6
   \   00011C   2412         ADD       A,#0x12
   \   00011E   F582         MOV       DPL,A
   \   000120   E4           CLR       A
   \   000121   3F           ADDC      A,R7
   \   000122   F583         MOV       DPH,A
   \   000124   E8           MOV       A,R0
   \   000125   F0           MOVX      @DPTR,A
   \   000126   A3           INC       DPTR
   \   000127   E9           MOV       A,R1
   \   000128   F0           MOVX      @DPTR,A
   1350                    item->permit  = ZDP_MGMT_BOOL_UNKNOWN;
   \   000129   EE           MOV       A,R6
   \   00012A   2417         ADD       A,#0x17
   \   00012C   F582         MOV       DPL,A
   \   00012E   E4           CLR       A
   \   00012F   3F           ADDC      A,R7
   \   000130   F583         MOV       DPH,A
   \   000132   7402         MOV       A,#0x2
   \   000134   F0           MOVX      @DPTR,A
   1351                    item->depth   = 0xFF;
   \   000135   EE           MOV       A,R6
   \   000136   2418         ADD       A,#0x18
   \   000138   F582         MOV       DPL,A
   \   00013A   E4           CLR       A
   \   00013B   3F           ADDC      A,R7
   \   00013C   F583         MOV       DPH,A
   \   00013E   74FF         MOV       A,#-0x1
   \   000140   F0           MOVX      @DPTR,A
   1352                    item->lqi     = aDevice->linkInfo.rxLqi;
   \   000141   85..82       MOV       DPL,?V6
   \   000144   85..83       MOV       DPH,?V7
   \   000147   A3           INC       DPTR
   \   000148   A3           INC       DPTR
   \   000149   A3           INC       DPTR
   \   00014A   A3           INC       DPTR
   \   00014B   A3           INC       DPTR
   \   00014C   A3           INC       DPTR
   \   00014D   A3           INC       DPTR
   \   00014E   A3           INC       DPTR
   \   00014F   A3           INC       DPTR
   \   000150   A3           INC       DPTR
   \   000151   E0           MOVX      A,@DPTR
   \   000152   C0E0         PUSH      A
   \   000154   EE           MOV       A,R6
   \   000155   2419         ADD       A,#0x19
   \   000157   F582         MOV       DPL,A
   \   000159   E4           CLR       A
   \   00015A   3F           ADDC      A,R7
   \   00015B   F583         MOV       DPH,A
   \   00015D   D0E0         POP       A
   \   00015F   F0           MOVX      @DPTR,A
   1353          
   1354                    // set extented address
   1355                    nwkEntry.user    = ADDRMGR_USER_DEFAULT;
   \   000160   7401         MOV       A,#0x1
   \   000162   12....       LCALL     ?XSTACK_DISP0_8
   \   000165   7400         MOV       A,#0x0
   \   000167   F0           MOVX      @DPTR,A
   1356                    nwkEntry.nwkAddr = aDevice->shortAddr;
   \   000168   85..82       MOV       DPL,?V6
   \   00016B   85..83       MOV       DPH,?V7
   \   00016E   E0           MOVX      A,@DPTR
   \   00016F   F8           MOV       R0,A
   \   000170   A3           INC       DPTR
   \   000171   E0           MOVX      A,@DPTR
   \   000172   F9           MOV       R1,A
   \   000173   7402         MOV       A,#0x2
   \   000175   12....       LCALL     ?XSTACK_DISP0_8
   \   000178   E8           MOV       A,R0
   \   000179   F0           MOVX      @DPTR,A
   \   00017A   A3           INC       DPTR
   \   00017B   E9           MOV       A,R1
   \   00017C   F0           MOVX      @DPTR,A
   1357          
   1358                    if ( AddrMgrEntryLookupNwk( &nwkEntry ) == TRUE )
   \   00017D                ; Setup parameters for call to function AddrMgrEntryLookupNwk
   \   00017D   7401         MOV       A,#0x1
   \   00017F   12....       LCALL     ?XSTACK_DISP101_8
   \   000182   12....       LCALL     `??AddrMgrEntryLookupNwk::?relay`; Banked call to: AddrMgrEntryLookupNwk
   \   000185   E9           MOV       A,R1
   \   000186   6401         XRL       A,#0x1
   \   000188   7015         JNZ       ??ZDO_ProcessMgmtLqiReq_9
   1359                    {
   1360                      osal_cpyExtAddr( item->extAddr, nwkEntry.extAddr );
   \   00018A                ; Setup parameters for call to function sAddrExtCpy
   \   00018A   7404         MOV       A,#0x4
   \   00018C   12....       LCALL     ?XSTACK_DISP0_8
   \   00018F   AC82         MOV       R4,DPL
   \   000191   AD83         MOV       R5,DPH
   \   000193   EE           MOV       A,R6
   \   000194   240A         ADD       A,#0xa
   \   000196   FA           MOV       R2,A
   \   000197   E4           CLR       A
   \   000198   3F           ADDC      A,R7
   \   000199   FB           MOV       R3,A
   \   00019A   12....       LCALL     `??sAddrExtCpy::?relay`; Banked call to: sAddrExtCpy
   \   00019D   8010         SJMP      ??ZDO_ProcessMgmtLqiReq_10
   1361                    }
   1362                    else
   1363                    {
   1364                      osal_memset( item->extAddr, 0xFF, Z_EXTADDR_LEN );
   \                     ??ZDO_ProcessMgmtLqiReq_9:
   \   00019F                ; Setup parameters for call to function osal_memset
   \   00019F   7C08         MOV       R4,#0x8
   \   0001A1   7D00         MOV       R5,#0x0
   \   0001A3   79FF         MOV       R1,#-0x1
   \   0001A5   EE           MOV       A,R6
   \   0001A6   240A         ADD       A,#0xa
   \   0001A8   FA           MOV       R2,A
   \   0001A9   E4           CLR       A
   \   0001AA   3F           ADDC      A,R7
   \   0001AB   FB           MOV       R3,A
   \   0001AC   12....       LCALL     `??osal_memset::?relay`; Banked call to: osal_memset
   1365                    }
   1366          
   1367                    // use association info to set other fields
   1368                    if ( aDevice->nodeRelation == PARENT )
   \                     ??ZDO_ProcessMgmtLqiReq_10:
   \   0001AF   85..82       MOV       DPL,?V6
   \   0001B2   85..83       MOV       DPH,?V7
   \   0001B5   A3           INC       DPTR
   \   0001B6   A3           INC       DPTR
   \   0001B7   A3           INC       DPTR
   \   0001B8   A3           INC       DPTR
   \   0001B9   E0           MOVX      A,@DPTR
   \   0001BA   7064         JNZ       ??ZDO_ProcessMgmtLqiReq_11
   1369                    {
   1370                      if (  aDevice->shortAddr == 0 )
   \   0001BC   85..82       MOV       DPL,?V6
   \   0001BF   85..83       MOV       DPH,?V7
   \   0001C2   E0           MOVX      A,@DPTR
   \   0001C3   F8           MOV       R0,A
   \   0001C4   A3           INC       DPTR
   \   0001C5   E0           MOVX      A,@DPTR
   \   0001C6   F9           MOV       R1,A
   \   0001C7   E8           MOV       A,R0
   \   0001C8   49           ORL       A,R1
   \   0001C9   701A         JNZ       ??ZDO_ProcessMgmtLqiReq_12
   1371                      {
   1372                        item->devType = ZDP_MGMT_DT_COORD;
   \   0001CB   EE           MOV       A,R6
   \   0001CC   2414         ADD       A,#0x14
   \   0001CE   F582         MOV       DPL,A
   \   0001D0   E4           CLR       A
   \   0001D1   3F           ADDC      A,R7
   \   0001D2   F583         MOV       DPH,A
   \   0001D4   7400         MOV       A,#0x0
   \   0001D6   F0           MOVX      @DPTR,A
   1373                        item->depth = 0;
   \   0001D7   EE           MOV       A,R6
   \   0001D8   2418         ADD       A,#0x18
   \   0001DA   F582         MOV       DPL,A
   \   0001DC   E4           CLR       A
   \   0001DD   3F           ADDC      A,R7
   \   0001DE   F583         MOV       DPH,A
   \   0001E0   7400         MOV       A,#0x0
   \   0001E2   F0           MOVX      @DPTR,A
   \   0001E3   8020         SJMP      ??ZDO_ProcessMgmtLqiReq_13
   1374                      }
   1375                      else
   1376                      {
   1377                        item->devType = ZDP_MGMT_DT_ROUTER;
   \                     ??ZDO_ProcessMgmtLqiReq_12:
   \   0001E5   EE           MOV       A,R6
   \   0001E6   2414         ADD       A,#0x14
   \   0001E8   F582         MOV       DPL,A
   \   0001EA   E4           CLR       A
   \   0001EB   3F           ADDC      A,R7
   \   0001EC   F583         MOV       DPH,A
   \   0001EE   7401         MOV       A,#0x1
   \   0001F0   F0           MOVX      @DPTR,A
   1378                        item->depth = _NIB.nodeDepth - 1;
   \   0001F1   90....       MOV       DPTR,#_NIB + 52
   \   0001F4   E0           MOVX      A,@DPTR
   \   0001F5   24FF         ADD       A,#-0x1
   \   0001F7   C0E0         PUSH      A
   \   0001F9   EE           MOV       A,R6
   \   0001FA   2418         ADD       A,#0x18
   \   0001FC   F582         MOV       DPL,A
   \   0001FE   E4           CLR       A
   \   0001FF   3F           ADDC      A,R7
   \   000200   F583         MOV       DPH,A
   \   000202   D0E0         POP       A
   \   000204   F0           MOVX      @DPTR,A
   1379                      }
   1380          
   1381                      item->rxOnIdle = ZDP_MGMT_BOOL_UNKNOWN;
   \                     ??ZDO_ProcessMgmtLqiReq_13:
   \   000205   EE           MOV       A,R6
   \   000206   2415         ADD       A,#0x15
   \   000208   F582         MOV       DPL,A
   \   00020A   E4           CLR       A
   \   00020B   3F           ADDC      A,R7
   \   00020C   F583         MOV       DPH,A
   \   00020E   7402         MOV       A,#0x2
   \   000210   F0           MOVX      @DPTR,A
   1382                      item->relation = ZDP_MGMT_REL_PARENT;
   \   000211   EE           MOV       A,R6
   \   000212   2416         ADD       A,#0x16
   \   000214   F582         MOV       DPL,A
   \   000216   E4           CLR       A
   \   000217   3F           ADDC      A,R7
   \   000218   F583         MOV       DPH,A
   \   00021A   7400         MOV       A,#0x0
   \   00021C   F0           MOVX      @DPTR,A
   \   00021D   02....       LJMP      ??ZDO_ProcessMgmtLqiReq_14 & 0xFFFF
   1383                    }
   1384                    else
   1385                    {
   1386                      // If not parent, then it's a child
   1387                      item->depth = _NIB.nodeDepth + 1;
   \                     ??ZDO_ProcessMgmtLqiReq_11:
   \   000220   90....       MOV       DPTR,#_NIB + 52
   \   000223   E0           MOVX      A,@DPTR
   \   000224   2401         ADD       A,#0x1
   \   000226   C0E0         PUSH      A
   \   000228   EE           MOV       A,R6
   \   000229   2418         ADD       A,#0x18
   \   00022B   F582         MOV       DPL,A
   \   00022D   E4           CLR       A
   \   00022E   3F           ADDC      A,R7
   \   00022F   F583         MOV       DPH,A
   \   000231   D0E0         POP       A
   \   000233   F0           MOVX      @DPTR,A
   1388          
   1389                      if ( aDevice->nodeRelation < CHILD_FFD )
   \   000234   85..82       MOV       DPL,?V6
   \   000237   85..83       MOV       DPH,?V7
   \   00023A   A3           INC       DPTR
   \   00023B   A3           INC       DPTR
   \   00023C   A3           INC       DPTR
   \   00023D   A3           INC       DPTR
   \   00023E   E0           MOVX      A,@DPTR
   \   00023F   C3           CLR       C
   \   000240   9403         SUBB      A,#0x3
   \   000242   5037         JNC       ??ZDO_ProcessMgmtLqiReq_15
   1390                      {
   1391                        item->devType = ZDP_MGMT_DT_ENDDEV;
   \   000244   EE           MOV       A,R6
   \   000245   2414         ADD       A,#0x14
   \   000247   F582         MOV       DPL,A
   \   000249   E4           CLR       A
   \   00024A   3F           ADDC      A,R7
   \   00024B   F583         MOV       DPH,A
   \   00024D   7402         MOV       A,#0x2
   \   00024F   F0           MOVX      @DPTR,A
   1392          
   1393                        if ( aDevice->nodeRelation == CHILD_RFD )
   \   000250   85..82       MOV       DPL,?V6
   \   000253   85..83       MOV       DPH,?V7
   \   000256   A3           INC       DPTR
   \   000257   A3           INC       DPTR
   \   000258   A3           INC       DPTR
   \   000259   A3           INC       DPTR
   \   00025A   E0           MOVX      A,@DPTR
   \   00025B   6401         XRL       A,#0x1
   \   00025D   700E         JNZ       ??ZDO_ProcessMgmtLqiReq_16
   1394                        {
   1395                          item->rxOnIdle = FALSE;
   \   00025F   EE           MOV       A,R6
   \   000260   2415         ADD       A,#0x15
   \   000262   F582         MOV       DPL,A
   \   000264   E4           CLR       A
   \   000265   3F           ADDC      A,R7
   \   000266   F583         MOV       DPH,A
   \   000268   7400         MOV       A,#0x0
   \   00026A   F0           MOVX      @DPTR,A
   \   00026B   8043         SJMP      ??ZDO_ProcessMgmtLqiReq_17
   1396                        }
   1397                        else
   1398                        {
   1399                          item->rxOnIdle = TRUE;
   \                     ??ZDO_ProcessMgmtLqiReq_16:
   \   00026D   EE           MOV       A,R6
   \   00026E   2415         ADD       A,#0x15
   \   000270   F582         MOV       DPL,A
   \   000272   E4           CLR       A
   \   000273   3F           ADDC      A,R7
   \   000274   F583         MOV       DPH,A
   \   000276   7401         MOV       A,#0x1
   \   000278   F0           MOVX      @DPTR,A
   \   000279   8035         SJMP      ??ZDO_ProcessMgmtLqiReq_17
   1400                        }
   1401                      }
   1402                      else
   1403                      {
   1404                        item->devType = ZDP_MGMT_DT_ROUTER;
   \                     ??ZDO_ProcessMgmtLqiReq_15:
   \   00027B   EE           MOV       A,R6
   \   00027C   2414         ADD       A,#0x14
   \   00027E   F582         MOV       DPL,A
   \   000280   E4           CLR       A
   \   000281   3F           ADDC      A,R7
   \   000282   F583         MOV       DPH,A
   \   000284   7401         MOV       A,#0x1
   \   000286   F0           MOVX      @DPTR,A
   1405          
   1406                        if ( aDevice->nodeRelation == CHILD_FFD )
   \   000287   85..82       MOV       DPL,?V6
   \   00028A   85..83       MOV       DPH,?V7
   \   00028D   A3           INC       DPTR
   \   00028E   A3           INC       DPTR
   \   00028F   A3           INC       DPTR
   \   000290   A3           INC       DPTR
   \   000291   E0           MOVX      A,@DPTR
   \   000292   6403         XRL       A,#0x3
   \   000294   700E         JNZ       ??ZDO_ProcessMgmtLqiReq_18
   1407                        {
   1408                          item->rxOnIdle = FALSE;
   \   000296   EE           MOV       A,R6
   \   000297   2415         ADD       A,#0x15
   \   000299   F582         MOV       DPL,A
   \   00029B   E4           CLR       A
   \   00029C   3F           ADDC      A,R7
   \   00029D   F583         MOV       DPH,A
   \   00029F   7400         MOV       A,#0x0
   \   0002A1   F0           MOVX      @DPTR,A
   \   0002A2   800C         SJMP      ??ZDO_ProcessMgmtLqiReq_17
   1409                        }
   1410                        else
   1411                        {
   1412                          item->rxOnIdle = TRUE;
   \                     ??ZDO_ProcessMgmtLqiReq_18:
   \   0002A4   EE           MOV       A,R6
   \   0002A5   2415         ADD       A,#0x15
   \   0002A7   F582         MOV       DPL,A
   \   0002A9   E4           CLR       A
   \   0002AA   3F           ADDC      A,R7
   \   0002AB   F583         MOV       DPH,A
   \   0002AD   7401         MOV       A,#0x1
   \   0002AF   F0           MOVX      @DPTR,A
   1413                        }
   1414                      }
   1415          
   1416                      item->relation = ZDP_MGMT_REL_CHILD;
   \                     ??ZDO_ProcessMgmtLqiReq_17:
   \   0002B0   EE           MOV       A,R6
   \   0002B1   2416         ADD       A,#0x16
   \   0002B3   F582         MOV       DPL,A
   \   0002B5   E4           CLR       A
   \   0002B6   3F           ADDC      A,R7
   \   0002B7   F583         MOV       DPH,A
   \   0002B9   7401         MOV       A,#0x1
   \   0002BB   F0           MOVX      @DPTR,A
   1417                    }
   1418          
   1419                    item++;
   \                     ??ZDO_ProcessMgmtLqiReq_14:
   \   0002BC   EE           MOV       A,R6
   \   0002BD   241A         ADD       A,#0x1a
   \   0002BF   FE           MOV       R6,A
   \   0002C0   5001         JNC       ??ZDO_ProcessMgmtLqiReq_19
   \   0002C2   0F           INC       R7
   1420                  }
   \                     ??ZDO_ProcessMgmtLqiReq_19:
   \   0002C3   05..         INC       ?V4
   \   0002C5   02....       LJMP      ??ZDO_ProcessMgmtLqiReq_6 & 0xFFFF
   1421                  else
   1422                  {
   1423                    if ( StartIndex <= aItems )
   \                     ??ZDO_ProcessMgmtLqiReq_8:
   \   0002C8   E5..         MOV       A,?V2
   \   0002CA   C3           CLR       C
   \   0002CB   95..         SUBB      A,?V3
   \   0002CD   4005         JC        ??ZDO_ProcessMgmtLqiReq_20
   1424                      // Start with 1st neighbor
   1425                      index = 0;
   \   0002CF   75..00       MOV       ?V0,#0x0
   \   0002D2   8007         SJMP      ??ZDO_ProcessMgmtLqiReq_7
   1426                    else
   1427                      // Start with >1st neighbor
   1428                      index = StartIndex - aItems;
   \                     ??ZDO_ProcessMgmtLqiReq_20:
   \   0002D4   E5..         MOV       A,?V3
   \   0002D6   C3           CLR       C
   \   0002D7   95..         SUBB      A,?V2
   \   0002D9   F5..         MOV       ?V0,A
   1429                    break;
   1430                  }
   1431                }
   1432          
   1433                // Loop through neighbor items and finish list
   1434                for ( ; x < numItems; x++ )
   \                     ??ZDO_ProcessMgmtLqiReq_7:
   \   0002DB   E5..         MOV       A,?V4
   \   0002DD   C3           CLR       C
   \   0002DE   95..         SUBB      A,?V1
   \   0002E0   4003         JC        $+5
   \   0002E2   02....       LJMP      ??ZDO_ProcessMgmtLqiReq_5 & 0xFFFF
   1435                {
   1436                  // Add next neighbor table item
   1437                  NLME_GetRequest( nwkNeighborTable, index++, &entry );
   \   0002E5                ; Setup parameters for call to function NLME_GetRequest
   \   0002E5   740E         MOV       A,#0xe
   \   0002E7   12....       LCALL     ?XSTACK_DISP102_8
   \   0002EA   E5..         MOV       A,?V0
   \   0002EC   FA           MOV       R2,A
   \   0002ED   7B00         MOV       R3,#0x0
   \   0002EF   7987         MOV       R1,#-0x79
   \   0002F1   12....       LCALL     `??NLME_GetRequest::?relay`; Banked call to: NLME_GetRequest
   \   0002F4   E9           MOV       A,R1
   \   0002F5   05..         INC       ?V0
   1438          
   1439                  // set ZDP_MgmtLqiItem_t fields
   1440                  item->panID    = entry.panId;
   \   0002F7   7418         MOV       A,#0x18
   \   0002F9   12....       LCALL     ?XSTACK_DISP0_8
   \   0002FC   E0           MOVX      A,@DPTR
   \   0002FD   F8           MOV       R0,A
   \   0002FE   A3           INC       DPTR
   \   0002FF   E0           MOVX      A,@DPTR
   \   000300   F9           MOV       R1,A
   \   000301   8E82         MOV       DPL,R6
   \   000303   8F83         MOV       DPH,R7
   \   000305   E8           MOV       A,R0
   \   000306   F0           MOVX      @DPTR,A
   \   000307   A3           INC       DPTR
   \   000308   E9           MOV       A,R1
   \   000309   F0           MOVX      @DPTR,A
   1441                  osal_cpyExtAddr( item->extPanID, _NIB.extendedPANID );
   \   00030A                ; Setup parameters for call to function sAddrExtCpy
   \   00030A   7C..         MOV       R4,#(_NIB + 53) & 0xff
   \   00030C   7D..         MOV       R5,#((_NIB + 53) >> 8) & 0xff
   \   00030E   EE           MOV       A,R6
   \   00030F   2402         ADD       A,#0x2
   \   000311   FA           MOV       R2,A
   \   000312   E4           CLR       A
   \   000313   3F           ADDC      A,R7
   \   000314   FB           MOV       R3,A
   \   000315   12....       LCALL     `??sAddrExtCpy::?relay`; Banked call to: sAddrExtCpy
   1442                  osal_cpyExtAddr( item->extAddr, entry.neighborExtAddr);
   \   000318                ; Setup parameters for call to function sAddrExtCpy
   \   000318   7410         MOV       A,#0x10
   \   00031A   12....       LCALL     ?XSTACK_DISP0_8
   \   00031D   AC82         MOV       R4,DPL
   \   00031F   AD83         MOV       R5,DPH
   \   000321   EE           MOV       A,R6
   \   000322   240A         ADD       A,#0xa
   \   000324   FA           MOV       R2,A
   \   000325   E4           CLR       A
   \   000326   3F           ADDC      A,R7
   \   000327   FB           MOV       R3,A
   \   000328   12....       LCALL     `??sAddrExtCpy::?relay`; Banked call to: sAddrExtCpy
   1443                  item->nwkAddr  = entry.neighborAddress;
   \   00032B   740E         MOV       A,#0xe
   \   00032D   12....       LCALL     ?XSTACK_DISP0_8
   \   000330   E0           MOVX      A,@DPTR
   \   000331   F8           MOV       R0,A
   \   000332   A3           INC       DPTR
   \   000333   E0           MOVX      A,@DPTR
   \   000334   F9           MOV       R1,A
   \   000335   EE           MOV       A,R6
   \   000336   2412         ADD       A,#0x12
   \   000338   F582         MOV       DPL,A
   \   00033A   E4           CLR       A
   \   00033B   3F           ADDC      A,R7
   \   00033C   F583         MOV       DPH,A
   \   00033E   E8           MOV       A,R0
   \   00033F   F0           MOVX      @DPTR,A
   \   000340   A3           INC       DPTR
   \   000341   E9           MOV       A,R1
   \   000342   F0           MOVX      @DPTR,A
   1444          
   1445                  if ( ZG_DEVICE_RTR_TYPE )
   \   000343   90....       MOV       DPTR,#zgDeviceLogicalType
   \   000346   E0           MOVX      A,@DPTR
   \   000347   6008         JZ        ??ZDO_ProcessMgmtLqiReq_21
   \   000349   90....       MOV       DPTR,#zgDeviceLogicalType
   \   00034C   E0           MOVX      A,@DPTR
   \   00034D   6401         XRL       A,#0x1
   \   00034F   7026         JNZ       ??ZDO_ProcessMgmtLqiReq_22
   1446                  {
   1447                    item->rxOnIdle = ZDP_MGMT_BOOL_UNKNOWN;
   \                     ??ZDO_ProcessMgmtLqiReq_21:
   \   000351   EE           MOV       A,R6
   \   000352   2415         ADD       A,#0x15
   \   000354   F582         MOV       DPL,A
   \   000356   E4           CLR       A
   \   000357   3F           ADDC      A,R7
   \   000358   F583         MOV       DPH,A
   \   00035A   7402         MOV       A,#0x2
   \   00035C   F0           MOVX      @DPTR,A
   1448                    item->relation = ZDP_MGMT_REL_UNKNOWN;
   \   00035D   EE           MOV       A,R6
   \   00035E   2416         ADD       A,#0x16
   \   000360   F582         MOV       DPL,A
   \   000362   E4           CLR       A
   \   000363   3F           ADDC      A,R7
   \   000364   F583         MOV       DPH,A
   \   000366   7403         MOV       A,#0x3
   \   000368   F0           MOVX      @DPTR,A
   1449                    item->depth    = 0xFF;
   \   000369   EE           MOV       A,R6
   \   00036A   2418         ADD       A,#0x18
   \   00036C   F582         MOV       DPL,A
   \   00036E   E4           CLR       A
   \   00036F   3F           ADDC      A,R7
   \   000370   F583         MOV       DPH,A
   \   000372   74FF         MOV       A,#-0x1
   \   000374   F0           MOVX      @DPTR,A
   \   000375   802C         SJMP      ??ZDO_ProcessMgmtLqiReq_23
   1450                  }
   1451                  else
   1452                  {
   1453                    //end devices knows this for sure
   1454                    item->rxOnIdle = ZDP_MGMT_BOOL_RECEIVER_ON;
   \                     ??ZDO_ProcessMgmtLqiReq_22:
   \   000377   EE           MOV       A,R6
   \   000378   2415         ADD       A,#0x15
   \   00037A   F582         MOV       DPL,A
   \   00037C   E4           CLR       A
   \   00037D   3F           ADDC      A,R7
   \   00037E   F583         MOV       DPH,A
   \   000380   7400         MOV       A,#0x0
   \   000382   F0           MOVX      @DPTR,A
   1455                    item->relation = ZDP_MGMT_REL_PARENT;
   \   000383   EE           MOV       A,R6
   \   000384   2416         ADD       A,#0x16
   \   000386   F582         MOV       DPL,A
   \   000388   E4           CLR       A
   \   000389   3F           ADDC      A,R7
   \   00038A   F583         MOV       DPH,A
   \   00038C   7400         MOV       A,#0x0
   \   00038E   F0           MOVX      @DPTR,A
   1456                    item->depth = _NIB.nodeDepth - 1;
   \   00038F   90....       MOV       DPTR,#_NIB + 52
   \   000392   E0           MOVX      A,@DPTR
   \   000393   24FF         ADD       A,#-0x1
   \   000395   C0E0         PUSH      A
   \   000397   EE           MOV       A,R6
   \   000398   2418         ADD       A,#0x18
   \   00039A   F582         MOV       DPL,A
   \   00039C   E4           CLR       A
   \   00039D   3F           ADDC      A,R7
   \   00039E   F583         MOV       DPH,A
   \   0003A0   D0E0         POP       A
   \   0003A2   F0           MOVX      @DPTR,A
   1457                  }
   1458                  item->permit   = ZDP_MGMT_BOOL_UNKNOWN;
   \                     ??ZDO_ProcessMgmtLqiReq_23:
   \   0003A3   EE           MOV       A,R6
   \   0003A4   2417         ADD       A,#0x17
   \   0003A6   F582         MOV       DPL,A
   \   0003A8   E4           CLR       A
   \   0003A9   3F           ADDC      A,R7
   \   0003AA   F583         MOV       DPH,A
   \   0003AC   7402         MOV       A,#0x2
   \   0003AE   F0           MOVX      @DPTR,A
   1459                  item->lqi      = entry.linkInfo.rxLqi;
   \   0003AF   741D         MOV       A,#0x1d
   \   0003B1   12....       LCALL     ?XSTACK_DISP0_8
   \   0003B4   E0           MOVX      A,@DPTR
   \   0003B5   C0E0         PUSH      A
   \   0003B7   EE           MOV       A,R6
   \   0003B8   2419         ADD       A,#0x19
   \   0003BA   F582         MOV       DPL,A
   \   0003BC   E4           CLR       A
   \   0003BD   3F           ADDC      A,R7
   \   0003BE   F583         MOV       DPH,A
   \   0003C0   D0E0         POP       A
   \   0003C2   F0           MOVX      @DPTR,A
   1460          
   1461                  if ( item->nwkAddr == 0 )
   \   0003C3   EE           MOV       A,R6
   \   0003C4   2412         ADD       A,#0x12
   \   0003C6   F582         MOV       DPL,A
   \   0003C8   E4           CLR       A
   \   0003C9   3F           ADDC      A,R7
   \   0003CA   F583         MOV       DPH,A
   \   0003CC   E0           MOVX      A,@DPTR
   \   0003CD   F8           MOV       R0,A
   \   0003CE   A3           INC       DPTR
   \   0003CF   E0           MOVX      A,@DPTR
   \   0003D0   F9           MOV       R1,A
   \   0003D1   E8           MOV       A,R0
   \   0003D2   49           ORL       A,R1
   \   0003D3   700E         JNZ       ??ZDO_ProcessMgmtLqiReq_24
   1462                  {
   1463                    item->devType = ZDP_MGMT_DT_COORD;
   \   0003D5   EE           MOV       A,R6
   \   0003D6   2414         ADD       A,#0x14
   \   0003D8   F582         MOV       DPL,A
   \   0003DA   E4           CLR       A
   \   0003DB   3F           ADDC      A,R7
   \   0003DC   F583         MOV       DPH,A
   \   0003DE   7400         MOV       A,#0x0
   \   0003E0   F0           MOVX      @DPTR,A
   \   0003E1   800C         SJMP      ??ZDO_ProcessMgmtLqiReq_25
   1464                  }
   1465                  else
   1466                  {
   1467                    item->devType = ZDP_MGMT_DT_ROUTER;
   \                     ??ZDO_ProcessMgmtLqiReq_24:
   \   0003E3   EE           MOV       A,R6
   \   0003E4   2414         ADD       A,#0x14
   \   0003E6   F582         MOV       DPL,A
   \   0003E8   E4           CLR       A
   \   0003E9   3F           ADDC      A,R7
   \   0003EA   F583         MOV       DPH,A
   \   0003EC   7401         MOV       A,#0x1
   \   0003EE   F0           MOVX      @DPTR,A
   1468                  }
   1469          
   1470                  item++;
   \                     ??ZDO_ProcessMgmtLqiReq_25:
   \   0003EF   EE           MOV       A,R6
   \   0003F0   241A         ADD       A,#0x1a
   \   0003F2   FE           MOV       R6,A
   \   0003F3   5001         JNC       ??ZDO_ProcessMgmtLqiReq_26
   \   0003F5   0F           INC       R7
   1471                }
   \                     ??ZDO_ProcessMgmtLqiReq_26:
   \   0003F6   05..         INC       ?V4
   \   0003F8   02....       LJMP      ??ZDO_ProcessMgmtLqiReq_7 & 0xFFFF
   1472              }
   1473            }
   1474            else
   1475            {
   1476              numItems = 0;
   \                     ??ZDO_ProcessMgmtLqiReq_3:
   \   0003FB   75..00       MOV       ?V1,#0x0
   1477            }
   1478          
   1479            // Send response
   1480            ZDP_MgmtLqiRsp( inMsg->TransSeq, &(inMsg->srcAddr), ZSuccess, maxItems,
   1481                            StartIndex, numItems, table, false );
   \                     ??ZDO_ProcessMgmtLqiReq_5:
   \   0003FE                ; Setup parameters for call to function ZDP_MgmtLqiRsp
   \   0003FE   75..00       MOV       ?V5,#0x0
   \   000401   78..         MOV       R0,#?V5
   \   000403   12....       LCALL     ?PUSH_XSTACK_I_ONE
   \   000406   78..         MOV       R0,#?V10
   \   000408   12....       LCALL     ?PUSH_XSTACK_I_TWO
   \   00040B   E5..         MOV       A,?V1
   \   00040D   F5..         MOV       ?V5,A
   \   00040F   78..         MOV       R0,#?V5
   \   000411   12....       LCALL     ?PUSH_XSTACK_I_ONE
   \   000414   E5..         MOV       A,?V3
   \   000416   F5..         MOV       ?V5,A
   \   000418   78..         MOV       R0,#?V5
   \   00041A   12....       LCALL     ?PUSH_XSTACK_I_ONE
   \   00041D   7405         MOV       A,#0x5
   \   00041F   12....       LCALL     ?XSTACK_DISP0_8
   \   000422   E0           MOVX      A,@DPTR
   \   000423   FD           MOV       R5,A
   \   000424   7C00         MOV       R4,#0x0
   \   000426   E5..         MOV       A,?V12
   \   000428   2402         ADD       A,#0x2
   \   00042A   FA           MOV       R2,A
   \   00042B   E4           CLR       A
   \   00042C   35..         ADDC      A,?V13
   \   00042E   FB           MOV       R3,A
   \   00042F   E5..         MOV       A,?V12
   \   000431   240F         ADD       A,#0xf
   \   000433   F582         MOV       DPL,A
   \   000435   E4           CLR       A
   \   000436   35..         ADDC      A,?V13
   \   000438   F583         MOV       DPH,A
   \   00043A   E0           MOVX      A,@DPTR
   \   00043B   F9           MOV       R1,A
   \   00043C   12....       LCALL     `??ZDP_MgmtLqiRsp::?relay`; Banked call to: ZDP_MgmtLqiRsp
   \   00043F   7405         MOV       A,#0x5
   \   000441   12....       LCALL     ?DEALLOC_XSTACK8
   \   000444   E9           MOV       A,R1
   1482          
   1483            if ( table )
   \   000445   E5..         MOV       A,?V10
   \   000447   45..         ORL       A,?V11
   \   000449   6007         JZ        ??ZDO_ProcessMgmtLqiReq_27
   1484            {
   1485              osal_mem_free( table );
   \   00044B                ; Setup parameters for call to function osal_mem_free
   \   00044B   AA..         MOV       R2,?V10
   \   00044D   AB..         MOV       R3,?V11
   \   00044F   12....       LCALL     `??osal_mem_free::?relay`; Banked call to: osal_mem_free
   1486            }
   1487          }
   \                     ??ZDO_ProcessMgmtLqiReq_27:
   \   000452   7425         MOV       A,#0x25
   \   000454   12....       LCALL     ?DEALLOC_XSTACK8
   \   000457   7F0E         MOV       R7,#0xe
   \   000459   02....       LJMP      ?BANKED_LEAVE_XDATA
   1488          
   1489          /*********************************************************************
   1490           * @fn          ZDO_ProcessMgmtNwkDiscReq
   1491           *
   1492           * @brief       This function handles parsing the incoming Management
   1493           *              Network Discover request and starts the request.
   1494           *
   1495           * @param       inMsg - incoming message (request)
   1496           *
   1497           * @return      none
   1498           */

   \                                 In  segment BANKED_CODE, align 1, keep-with-next
   1499          void ZDO_ProcessMgmtNwkDiscReq( zdoIncomingMsg_t *inMsg )
   \                     ZDO_ProcessMgmtNwkDiscReq:
   1500          {
   \   000000                REQUIRE ?V0
   \   000000                REQUIRE ?V1
   \   000000                REQUIRE ?V2
   \   000000   74F5         MOV       A,#-0xb
   \   000002   12....       LCALL     ?BANKED_ENTER_XDATA
   \   000005                ; Saved register size: 11
   \   000005                ; Auto size: 7
   \   000005   74F9         MOV       A,#-0x7
   \   000007   12....       LCALL     ?ALLOC_XSTACK8
   \   00000A   8A..         MOV       ?V0,R2
   \   00000C   8B..         MOV       ?V1,R3
   1501            NLME_ScanFields_t scan;
   1502            uint8             index;
   1503            uint8             *msg;
   1504          
   1505            msg = inMsg->asdu;
   \   00000E   E5..         MOV       A,?V0
   \   000010   2413         ADD       A,#0x13
   \   000012   F582         MOV       DPL,A
   \   000014   E4           CLR       A
   \   000015   35..         ADDC      A,?V1
   \   000017   F583         MOV       DPH,A
   \   000019   E0           MOVX      A,@DPTR
   \   00001A   F8           MOV       R0,A
   \   00001B   A3           INC       DPTR
   \   00001C   E0           MOVX      A,@DPTR
   \   00001D   F9           MOV       R1,A
   \   00001E   E8           MOV       A,R0
   \   00001F   FE           MOV       R6,A
   \   000020   E9           MOV       A,R1
   \   000021   FF           MOV       R7,A
   1506            scan.channels = osal_build_uint32( msg, 4 );
   \   000022                ; Setup parameters for call to function osal_build_uint32
   \   000022   7904         MOV       R1,#0x4
   \   000024   EE           MOV       A,R6
   \   000025   FA           MOV       R2,A
   \   000026   EF           MOV       A,R7
   \   000027   FB           MOV       R3,A
   \   000028   12....       LCALL     `??osal_build_uint32::?relay`; Banked call to: osal_build_uint32
   \   00002B   EA           MOV       A,R2
   \   00002C   F8           MOV       R0,A
   \   00002D   EB           MOV       A,R3
   \   00002E   F9           MOV       R1,A
   \   00002F   EC           MOV       A,R4
   \   000030   FA           MOV       R2,A
   \   000031   ED           MOV       A,R5
   \   000032   FB           MOV       R3,A
   \   000033   85..82       MOV       DPL,?XSP + 0
   \   000036   85..83       MOV       DPH,?XSP + 1
   \   000039   12....       LCALL     ?XSTORE_R0123
   1507            msg += 4;
   \   00003C   EE           MOV       A,R6
   \   00003D   2404         ADD       A,#0x4
   \   00003F   FE           MOV       R6,A
   \   000040   5001         JNC       ??ZDO_ProcessMgmtNwkDiscReq_0
   \   000042   0F           INC       R7
   1508            scan.duration = *msg++;
   \                     ??ZDO_ProcessMgmtNwkDiscReq_0:
   \   000043   8E82         MOV       DPL,R6
   \   000045   8F83         MOV       DPH,R7
   \   000047   E0           MOVX      A,@DPTR
   \   000048   C0E0         PUSH      A
   \   00004A   7404         MOV       A,#0x4
   \   00004C   12....       LCALL     ?XSTACK_DISP0_8
   \   00004F   D0E0         POP       A
   \   000051   F0           MOVX      @DPTR,A
   \   000052   8E82         MOV       DPL,R6
   \   000054   8F83         MOV       DPH,R7
   \   000056   A3           INC       DPTR
   \   000057   AE82         MOV       R6,DPL
   \   000059   AF83         MOV       R7,DPH
   1509            index         = *msg;
   \   00005B   8E82         MOV       DPL,R6
   \   00005D   8F83         MOV       DPH,R7
   \   00005F   E0           MOVX      A,@DPTR
   \   000060   F5..         MOV       ?V2,A
   1510            scan.scanType = ZMAC_ACTIVE_SCAN;
   \   000062   7405         MOV       A,#0x5
   \   000064   12....       LCALL     ?XSTACK_DISP0_8
   \   000067   7401         MOV       A,#0x1
   \   000069   F0           MOVX      @DPTR,A
   1511            scan.scanApp  = NLME_DISC_SCAN;
   \   00006A   7406         MOV       A,#0x6
   \   00006C   12....       LCALL     ?XSTACK_DISP0_8
   \   00006F   7401         MOV       A,#0x1
   \   000071   F0           MOVX      @DPTR,A
   1512          
   1513            // Save off the information to be used for the response
   1514            zdappMgmtNwkDiscReqInProgress          = true;
   \   000072   90....       MOV       DPTR,#zdappMgmtNwkDiscReqInProgress
   \   000075   7401         MOV       A,#0x1
   \   000077   F0           MOVX      @DPTR,A
   1515            zdappMgmtNwkDiscRspAddr.addrMode       = Addr16Bit;
   \   000078   90....       MOV       DPTR,#zdappMgmtNwkDiscRspAddr + 8
   \   00007B   7402         MOV       A,#0x2
   \   00007D   F0           MOVX      @DPTR,A
   1516            zdappMgmtNwkDiscRspAddr.addr.shortAddr = inMsg->srcAddr.addr.shortAddr;
   \   00007E   85..82       MOV       DPL,?V0
   \   000081   85..83       MOV       DPH,?V1
   \   000084   A3           INC       DPTR
   \   000085   A3           INC       DPTR
   \   000086   E0           MOVX      A,@DPTR
   \   000087   F8           MOV       R0,A
   \   000088   A3           INC       DPTR
   \   000089   E0           MOVX      A,@DPTR
   \   00008A   F9           MOV       R1,A
   \   00008B   90....       MOV       DPTR,#zdappMgmtNwkDiscRspAddr
   \   00008E   E8           MOV       A,R0
   \   00008F   F0           MOVX      @DPTR,A
   \   000090   A3           INC       DPTR
   \   000091   E9           MOV       A,R1
   \   000092   F0           MOVX      @DPTR,A
   1517            zdappMgmtNwkDiscStartIndex             = index;
   \   000093   E5..         MOV       A,?V2
   \   000095   90....       MOV       DPTR,#zdappMgmtNwkDiscStartIndex
   \   000098   F0           MOVX      @DPTR,A
   1518            zdappMgmtNwkDiscRspTransSeq            = inMsg->TransSeq;
   \   000099   E5..         MOV       A,?V0
   \   00009B   240F         ADD       A,#0xf
   \   00009D   F582         MOV       DPL,A
   \   00009F   E4           CLR       A
   \   0000A0   35..         ADDC      A,?V1
   \   0000A2   F583         MOV       DPH,A
   \   0000A4   E0           MOVX      A,@DPTR
   \   0000A5   90....       MOV       DPTR,#zdappMgmtNwkDiscRspTransSeq
   \   0000A8   F0           MOVX      @DPTR,A
   1519          
   1520            if ( NLME_NwkDiscReq2( &scan ) != ZSuccess )
   \   0000A9                ; Setup parameters for call to function NLME_NwkDiscReq2
   \   0000A9   AA..         MOV       R2,?XSP + 0
   \   0000AB   AB..         MOV       R3,?XSP + 1
   \   0000AD   12....       LCALL     `??NLME_NwkDiscReq2::?relay`; Banked call to: NLME_NwkDiscReq2
   \   0000B0   E9           MOV       A,R1
   \   0000B1   6003         JZ        ??ZDO_ProcessMgmtNwkDiscReq_1
   1521            {
   1522              NLME_NwkDiscTerm();
   \   0000B3                ; Setup parameters for call to function NLME_NwkDiscTerm
   \   0000B3   12....       LCALL     `??NLME_NwkDiscTerm::?relay`; Banked call to: NLME_NwkDiscTerm
   1523          
   1524              // zdappMgmtNwkDiscReqInProgress will be reset in the confirm callback
   1525            }
   1526          }
   \                     ??ZDO_ProcessMgmtNwkDiscReq_1:
   \   0000B6   7407         MOV       A,#0x7
   \   0000B8   12....       LCALL     ?DEALLOC_XSTACK8
   \   0000BB   7F03         MOV       R7,#0x3
   \   0000BD   02....       LJMP      ?BANKED_LEAVE_XDATA
   1527          
   1528          #if defined ( ZDO_MGMT_NWKDISC_RESPONSE )
   1529          /*********************************************************************
   1530           * @fn          ZDO_FinishProcessingMgmtNwkDiscReq
   1531           *
   1532           * @brief       This function finishes the processing of the Management
   1533           *              Network Discover Request and generates the response.
   1534           *
   1535           *   Note:      This function will limit the number of items returned
   1536           *              to ZDO_MAX_NWKDISC_ITEMS items.
   1537           *
   1538           * @param       ResultCountSrcAddr - source of the request
   1539           * @param       msg - pointer to incoming message
   1540           * @param       SecurityUse -
   1541           *
   1542           * @return      none
   1543           */
   1544          void ZDO_FinishProcessingMgmtNwkDiscReq( void )
   1545          {
   1546            byte count, i, ResultCount = 0;
   1547            networkDesc_t *newDesc = NULL, *pList, *NetworkList;
   1548          
   1549            NetworkList = nwk_getNwkDescList();
   1550          
   1551            // Count the number of nwk descriptors in the list
   1552            pList = nwk_getNwkDescList();
   1553            while (pList)
   1554            {
   1555              ResultCount++;
   1556              pList = pList->nextDesc;
   1557            }
   1558          
   1559            if ( ZSTACK_ROUTER_BUILD )
   1560            {
   1561              // Look for my PanID.
   1562              pList = nwk_getNwkDescList();
   1563              while ( pList )
   1564              {
   1565                if ( pList->panId == _NIB.nwkPanId )
   1566                {
   1567                  break;
   1568                }
   1569          
   1570          
   1571                if ( !pList->nextDesc )
   1572                {
   1573                  break;
   1574                }
   1575                pList = pList->nextDesc;
   1576              }
   1577          
   1578          
   1579              // If my Pan not present (query to a star network ZC or an isolated ZR?),
   1580              // prepend it.
   1581              if ( !pList || (pList->panId != _NIB.nwkPanId) )
   1582              {
   1583                newDesc = (networkDesc_t *)osal_mem_alloc( sizeof( networkDesc_t ) );
   1584                if ( newDesc )
   1585                {
   1586                  byte pJoin;
   1587          
   1588                  newDesc->panId = _NIB.nwkPanId;
   1589                  newDesc->logicalChannel = _NIB.nwkLogicalChannel;
   1590                  newDesc->version = NLME_GetProtocolVersion();
   1591                  newDesc->stackProfile = zgStackProfile;
   1592          
   1593                  //Extended PanID
   1594                  osal_cpyExtAddr( newDesc->extendedPANID, _NIB.extendedPANID);
   1595          
   1596                  ZMacGetReq( ZMacAssociationPermit, &pJoin );
   1597                  newDesc->chosenRouter = ((pJoin) ? ZDAppNwkAddr.addr.shortAddr :
   1598                                                     INVALID_NODE_ADDR);
   1599          
   1600                  newDesc->nextDesc = NetworkList;
   1601                  NetworkList = newDesc;
   1602                  ResultCount++;
   1603                }
   1604              }
   1605            }
   1606          
   1607            // Calc the count and apply a max count.
   1608            if ( zdappMgmtNwkDiscStartIndex > ResultCount )
   1609            {
   1610              count = 0;
   1611            }
   1612            else
   1613            {
   1614              count = ResultCount - zdappMgmtNwkDiscStartIndex;
   1615              if ( count > ZDO_MAX_NWKDISC_ITEMS )
   1616              {
   1617                count = ZDO_MAX_NWKDISC_ITEMS;
   1618              }
   1619          
   1620              // Move the list pointer up to the start index.
   1621              for ( i = 0; i < zdappMgmtNwkDiscStartIndex; i++ )
   1622              {
   1623                NetworkList = NetworkList->nextDesc;
   1624              }
   1625            }
   1626          
   1627            ZDP_MgmtNwkDiscRsp( zdappMgmtNwkDiscRspTransSeq,
   1628                               &zdappMgmtNwkDiscRspAddr, ZSuccess, ResultCount,
   1629                                zdappMgmtNwkDiscStartIndex,
   1630                                count,
   1631                                NetworkList,
   1632                                false );
   1633          
   1634            if ( ZSTACK_ROUTER_BUILD )
   1635            {
   1636              if ( newDesc != NULL )
   1637              {
   1638                osal_mem_free( newDesc );
   1639              }
   1640            }
   1641          
   1642            NLME_NwkDiscTerm();
   1643          }
   1644          #endif
   1645          
   1646          /*********************************************************************
   1647           * @fn          ZDO_ProcessMgmtRtgReq
   1648           *
   1649           * @brief       This function finishes the processing of the Management
   1650           *              Routing Request and generates the response.
   1651           *
   1652           *   Note:      This function will limit the number of items returned
   1653           *              to ZDO_MAX_RTG_ITEMS items.
   1654           *
   1655           * @param       inMsg - incoming message (request)
   1656           *
   1657           * @return      none
   1658           */

   \                                 In  segment BANKED_CODE, align 1, keep-with-next
   1659          void ZDO_ProcessMgmtRtgReq( zdoIncomingMsg_t *inMsg )
   \                     ZDO_ProcessMgmtRtgReq:
   1660          {
   \   000000                REQUIRE ?V0
   \   000000                REQUIRE ?V1
   \   000000                REQUIRE ?V2
   \   000000                REQUIRE ?V3
   \   000000                REQUIRE ?V4
   \   000000                REQUIRE ?V5
   \   000000                REQUIRE ?V6
   \   000000                REQUIRE ?V7
   \   000000                REQUIRE ?V8
   \   000000                REQUIRE ?V9
   \   000000   74EE         MOV       A,#-0x12
   \   000002   12....       LCALL     ?BANKED_ENTER_XDATA
   \   000005                ; Saved register size: 18
   \   000005                ; Auto size: 1
   \   000005   74FF         MOV       A,#-0x1
   \   000007   12....       LCALL     ?ALLOC_XSTACK8
   \   00000A   8A..         MOV       ?V4,R2
   \   00000C   8B..         MOV       ?V5,R3
   1661            byte x;
   1662            byte maxNumItems;
   1663            byte numItems = 0;
   \   00000E   7E00         MOV       R6,#0x0
   1664            uint8 *pBuf = NULL;
   \   000010   75..00       MOV       ?V6,#0x0
   \   000013   75..00       MOV       ?V7,#0x0
   1665            rtgItem_t *pList;
   1666            uint8 StartIndex = inMsg->asdu[0];
   \   000016   E5..         MOV       A,?V4
   \   000018   2413         ADD       A,#0x13
   \   00001A   F582         MOV       DPL,A
   \   00001C   E4           CLR       A
   \   00001D   35..         ADDC      A,?V5
   \   00001F   F583         MOV       DPH,A
   \   000021   E0           MOVX      A,@DPTR
   \   000022   F8           MOV       R0,A
   \   000023   A3           INC       DPTR
   \   000024   E0           MOVX      A,@DPTR
   \   000025   F583         MOV       DPH,A
   \   000027   8882         MOV       DPL,R0
   \   000029   E0           MOVX      A,@DPTR
   \   00002A   FF           MOV       R7,A
   1667          
   1668            // Get the number of table items
   1669            NLME_GetRequest( nwkNumRoutingTableEntries, 0, &maxNumItems );
   \   00002B                ; Setup parameters for call to function NLME_GetRequest
   \   00002B   AC..         MOV       R4,?XSP + 0
   \   00002D   AD..         MOV       R5,?XSP + 1
   \   00002F   7A00         MOV       R2,#0x0
   \   000031   7B00         MOV       R3,#0x0
   \   000033   799D         MOV       R1,#-0x63
   \   000035   12....       LCALL     `??NLME_GetRequest::?relay`; Banked call to: NLME_GetRequest
   \   000038   E9           MOV       A,R1
   1670          
   1671            if ( maxNumItems > StartIndex )
   \   000039   85..82       MOV       DPL,?XSP + 0
   \   00003C   85..83       MOV       DPH,?XSP + 1
   \   00003F   E0           MOVX      A,@DPTR
   \   000040   F8           MOV       R0,A
   \   000041   EF           MOV       A,R7
   \   000042   C3           CLR       C
   \   000043   98           SUBB      A,R0
   \   000044   4003         JC        $+5
   \   000046   02....       LJMP      ??ZDO_ProcessMgmtRtgReq_0 & 0xFFFF
   1672            {
   1673              numItems = maxNumItems - StartIndex;    // Start at the passed in index
   \   000049   85..82       MOV       DPL,?XSP + 0
   \   00004C   85..83       MOV       DPH,?XSP + 1
   \   00004F   E0           MOVX      A,@DPTR
   \   000050   C3           CLR       C
   \   000051   9F           SUBB      A,R7
   \   000052   FE           MOV       R6,A
   1674          
   1675              // limit the size of the list
   1676              if ( numItems > ZDO_MAX_RTG_ITEMS )
   \   000053   EE           MOV       A,R6
   \   000054   C3           CLR       C
   \   000055   940B         SUBB      A,#0xb
   \   000057   4002         JC        ??ZDO_ProcessMgmtRtgReq_1
   1677              {
   1678                numItems = ZDO_MAX_RTG_ITEMS;
   \   000059   7E0A         MOV       R6,#0xa
   1679              }
   1680          
   1681              // Allocate the memory to build the table
   1682              pBuf = osal_mem_alloc( (short)(sizeof( rtgItem_t ) * numItems) );
   \                     ??ZDO_ProcessMgmtRtgReq_1:
   \   00005B                ; Setup parameters for call to function osal_mem_alloc
   \   00005B   EE           MOV       A,R6
   \   00005C   FA           MOV       R2,A
   \   00005D   7B00         MOV       R3,#0x0
   \   00005F   EA           MOV       A,R2
   \   000060   75F007       MOV       B,#0x7
   \   000063   A4           MUL       AB
   \   000064   CA           XCH       A,R2
   \   000065   A8F0         MOV       R0,B
   \   000067   75F000       MOV       B,#0x0
   \   00006A   A4           MUL       AB
   \   00006B   28           ADD       A,R0
   \   00006C   F8           MOV       R0,A
   \   00006D   75F007       MOV       B,#0x7
   \   000070   EB           MOV       A,R3
   \   000071   A4           MUL       AB
   \   000072   28           ADD       A,R0
   \   000073   FB           MOV       R3,A
   \   000074   12....       LCALL     `??osal_mem_alloc::?relay`; Banked call to: osal_mem_alloc
   \   000077   8A..         MOV       ?V8,R2
   \   000079   8B..         MOV       ?V9,R3
   \   00007B   85....       MOV       ?V6,?V8
   \   00007E   85....       MOV       ?V7,?V9
   1683          
   1684              if ( pBuf != NULL )
   \   000081   E5..         MOV       A,?V6
   \   000083   45..         ORL       A,?V7
   \   000085   7003         JNZ       $+5
   \   000087   02....       LJMP      ??ZDO_ProcessMgmtRtgReq_2 & 0xFFFF
   1685              {
   1686                // Convert buffer to list
   1687                pList = (rtgItem_t *)pBuf;
   \   00008A   85....       MOV       ?V0,?V6
   \   00008D   85....       MOV       ?V1,?V7
   1688          
   1689                // Loop through items and build list
   1690                for ( x = 0; x < numItems; x++ )
   \   000090   75..00       MOV       ?V2,#0x0
   \                     ??ZDO_ProcessMgmtRtgReq_3:
   \   000093   E5..         MOV       A,?V2
   \   000095   C3           CLR       C
   \   000096   9E           SUBB      A,R6
   \   000097   507F         JNC       ??ZDO_ProcessMgmtRtgReq_0
   1691                {
   1692                  NLME_GetRequest( nwkRoutingTable, (uint16)(x + StartIndex), (void*)pList );
   \   000099                ; Setup parameters for call to function NLME_GetRequest
   \   000099   AC..         MOV       R4,?V0
   \   00009B   AD..         MOV       R5,?V1
   \   00009D   E5..         MOV       A,?V2
   \   00009F   FA           MOV       R2,A
   \   0000A0   7B00         MOV       R3,#0x0
   \   0000A2   EF           MOV       A,R7
   \   0000A3   F8           MOV       R0,A
   \   0000A4   7900         MOV       R1,#0x0
   \   0000A6   EA           MOV       A,R2
   \   0000A7   28           ADD       A,R0
   \   0000A8   FA           MOV       R2,A
   \   0000A9   EB           MOV       A,R3
   \   0000AA   39           ADDC      A,R1
   \   0000AB   FB           MOV       R3,A
   \   0000AC   798B         MOV       R1,#-0x75
   \   0000AE   12....       LCALL     `??NLME_GetRequest::?relay`; Banked call to: NLME_GetRequest
   \   0000B1   E9           MOV       A,R1
   1693          
   1694                  // Remap the status to the RoutingTableList Record Format defined in the ZigBee spec
   1695                  switch( pList->status )
   \   0000B2   85..82       MOV       DPL,?V0
   \   0000B5   85..83       MOV       DPH,?V1
   \   0000B8   A3           INC       DPTR
   \   0000B9   A3           INC       DPTR
   \   0000BA   A3           INC       DPTR
   \   0000BB   A3           INC       DPTR
   \   0000BC   A3           INC       DPTR
   \   0000BD   E0           MOVX      A,@DPTR
   \   0000BE   14           DEC       A
   \   0000BF   6008         JZ        ??ZDO_ProcessMgmtRtgReq_4
   \   0000C1   14           DEC       A
   \   0000C2   6015         JZ        ??ZDO_ProcessMgmtRtgReq_5
   \   0000C4   14           DEC       A
   \   0000C5   6022         JZ        ??ZDO_ProcessMgmtRtgReq_6
   \   0000C7   8030         SJMP      ??ZDO_ProcessMgmtRtgReq_7
   1696                  {
   1697                    case RT_ACTIVE:
   1698                      pList->status = ZDO_MGMT_RTG_ENTRY_ACTIVE;
   \                     ??ZDO_ProcessMgmtRtgReq_4:
   \   0000C9   85..82       MOV       DPL,?V0
   \   0000CC   85..83       MOV       DPH,?V1
   \   0000CF   A3           INC       DPTR
   \   0000D0   A3           INC       DPTR
   \   0000D1   A3           INC       DPTR
   \   0000D2   A3           INC       DPTR
   \   0000D3   A3           INC       DPTR
   \   0000D4   7400         MOV       A,#0x0
   \   0000D6   F0           MOVX      @DPTR,A
   1699                      break;
   \   0000D7   802E         SJMP      ??ZDO_ProcessMgmtRtgReq_8
   1700          
   1701                    case RT_DISC:
   1702                      pList->status = ZDO_MGMT_RTG_ENTRY_DISCOVERY_UNDERWAY;
   \                     ??ZDO_ProcessMgmtRtgReq_5:
   \   0000D9   85..82       MOV       DPL,?V0
   \   0000DC   85..83       MOV       DPH,?V1
   \   0000DF   A3           INC       DPTR
   \   0000E0   A3           INC       DPTR
   \   0000E1   A3           INC       DPTR
   \   0000E2   A3           INC       DPTR
   \   0000E3   A3           INC       DPTR
   \   0000E4   7401         MOV       A,#0x1
   \   0000E6   F0           MOVX      @DPTR,A
   1703                      break;
   \   0000E7   801E         SJMP      ??ZDO_ProcessMgmtRtgReq_8
   1704          
   1705                    case RT_LINK_FAIL:
   1706                      pList->status = ZDO_MGMT_RTG_ENTRY_DISCOVERY_FAILED;
   \                     ??ZDO_ProcessMgmtRtgReq_6:
   \   0000E9   85..82       MOV       DPL,?V0
   \   0000EC   85..83       MOV       DPH,?V1
   \   0000EF   A3           INC       DPTR
   \   0000F0   A3           INC       DPTR
   \   0000F1   A3           INC       DPTR
   \   0000F2   A3           INC       DPTR
   \   0000F3   A3           INC       DPTR
   \   0000F4   7402         MOV       A,#0x2
   \   0000F6   F0           MOVX      @DPTR,A
   1707                      break;
   \   0000F7   800E         SJMP      ??ZDO_ProcessMgmtRtgReq_8
   1708          
   1709                    case RT_INIT:
   1710                    case RT_REPAIR:
   1711                    default:
   1712                      pList->status = ZDO_MGMT_RTG_ENTRY_INACTIVE;
   \                     ??ZDO_ProcessMgmtRtgReq_7:
   \   0000F9   85..82       MOV       DPL,?V0
   \   0000FC   85..83       MOV       DPH,?V1
   \   0000FF   A3           INC       DPTR
   \   000100   A3           INC       DPTR
   \   000101   A3           INC       DPTR
   \   000102   A3           INC       DPTR
   \   000103   A3           INC       DPTR
   \   000104   7403         MOV       A,#0x3
   \   000106   F0           MOVX      @DPTR,A
   1713                      break;
   1714                  }
   1715          
   1716                  // Increment pointer to next record
   1717                  pList++;
   \                     ??ZDO_ProcessMgmtRtgReq_8:
   \   000107   E5..         MOV       A,?V0
   \   000109   2407         ADD       A,#0x7
   \   00010B   F5..         MOV       ?V0,A
   \   00010D   5002         JNC       ??ZDO_ProcessMgmtRtgReq_9
   \   00010F   05..         INC       ?V1
   1718                }
   \                     ??ZDO_ProcessMgmtRtgReq_9:
   \   000111   05..         INC       ?V2
   \   000113   02....       LJMP      ??ZDO_ProcessMgmtRtgReq_3 & 0xFFFF
   1719              }
   1720              else
   1721              {
   1722                numItems = 0;
   \                     ??ZDO_ProcessMgmtRtgReq_2:
   \   000116   7E00         MOV       R6,#0x0
   1723              }
   1724            }
   1725          
   1726            // Send response
   1727            ZDP_MgmtRtgRsp( inMsg->TransSeq, &(inMsg->srcAddr), ZSuccess, maxNumItems, StartIndex, numItems,
   1728                                  (rtgItem_t *)pBuf, false );
   \                     ??ZDO_ProcessMgmtRtgReq_0:
   \   000118                ; Setup parameters for call to function ZDP_MgmtRtgRsp
   \   000118   75..00       MOV       ?V3,#0x0
   \   00011B   78..         MOV       R0,#?V3
   \   00011D   12....       LCALL     ?PUSH_XSTACK_I_ONE
   \   000120   78..         MOV       R0,#?V6
   \   000122   12....       LCALL     ?PUSH_XSTACK_I_TWO
   \   000125   EE           MOV       A,R6
   \   000126   F5..         MOV       ?V3,A
   \   000128   78..         MOV       R0,#?V3
   \   00012A   12....       LCALL     ?PUSH_XSTACK_I_ONE
   \   00012D   EF           MOV       A,R7
   \   00012E   F5..         MOV       ?V3,A
   \   000130   78..         MOV       R0,#?V3
   \   000132   12....       LCALL     ?PUSH_XSTACK_I_ONE
   \   000135   7405         MOV       A,#0x5
   \   000137   12....       LCALL     ?XSTACK_DISP0_8
   \   00013A   E0           MOVX      A,@DPTR
   \   00013B   FD           MOV       R5,A
   \   00013C   7C00         MOV       R4,#0x0
   \   00013E   E5..         MOV       A,?V4
   \   000140   2402         ADD       A,#0x2
   \   000142   FA           MOV       R2,A
   \   000143   E4           CLR       A
   \   000144   35..         ADDC      A,?V5
   \   000146   FB           MOV       R3,A
   \   000147   E5..         MOV       A,?V4
   \   000149   240F         ADD       A,#0xf
   \   00014B   F582         MOV       DPL,A
   \   00014D   E4           CLR       A
   \   00014E   35..         ADDC      A,?V5
   \   000150   F583         MOV       DPH,A
   \   000152   E0           MOVX      A,@DPTR
   \   000153   F9           MOV       R1,A
   \   000154   12....       LCALL     `??ZDP_MgmtRtgRsp::?relay`; Banked call to: ZDP_MgmtRtgRsp
   \   000157   7405         MOV       A,#0x5
   \   000159   12....       LCALL     ?DEALLOC_XSTACK8
   \   00015C   E9           MOV       A,R1
   1729          
   1730            if ( pBuf != NULL )
   \   00015D   E5..         MOV       A,?V6
   \   00015F   45..         ORL       A,?V7
   \   000161   6007         JZ        ??ZDO_ProcessMgmtRtgReq_10
   1731            {
   1732              osal_mem_free( pBuf );
   \   000163                ; Setup parameters for call to function osal_mem_free
   \   000163   AA..         MOV       R2,?V6
   \   000165   AB..         MOV       R3,?V7
   \   000167   12....       LCALL     `??osal_mem_free::?relay`; Banked call to: osal_mem_free
   1733            }
   1734          }
   \                     ??ZDO_ProcessMgmtRtgReq_10:
   \   00016A   7401         MOV       A,#0x1
   \   00016C   12....       LCALL     ?DEALLOC_XSTACK8
   \   00016F   7F0A         MOV       R7,#0xa
   \   000171   02....       LJMP      ?BANKED_LEAVE_XDATA
   1735          
   1736          /*********************************************************************
   1737           * @fn          ZDO_ProcessMgmtBindReq
   1738           *
   1739           * @brief       This function finishes the processing of the Management
   1740           *              Bind Request and generates the response.
   1741           *
   1742           *   Note:      This function will limit the number of items returned
   1743           *              to ZDO_MAX_BIND_ITEMS items.
   1744           *
   1745           * @param       inMsg - incoming message (request)
   1746           *
   1747           * @return      none
   1748           */

   \                                 In  segment BANKED_CODE, align 1, keep-with-next
   1749          void ZDO_ProcessMgmtBindReq( zdoIncomingMsg_t *inMsg )
   \                     ZDO_ProcessMgmtBindReq:
   1750          {
   \   000000                REQUIRE ?V0
   \   000000                REQUIRE ?V1
   \   000000                REQUIRE ?V2
   \   000000                REQUIRE ?V3
   \   000000                REQUIRE ?V4
   \   000000                REQUIRE ?V5
   \   000000                REQUIRE ?V6
   \   000000                REQUIRE ?V7
   \   000000                REQUIRE ?V8
   \   000000                REQUIRE ?V9
   \   000000                REQUIRE ?V10
   \   000000                REQUIRE ?V11
   \   000000   74EC         MOV       A,#-0x14
   \   000002   12....       LCALL     ?BANKED_ENTER_XDATA
   \   000005                ; Saved register size: 20
   \   000005                ; Auto size: 2
   \   000005   74FE         MOV       A,#-0x2
   \   000007   12....       LCALL     ?ALLOC_XSTACK8
   \   00000A   8A..         MOV       ?V6,R2
   \   00000C   8B..         MOV       ?V7,R3
   1751          #if defined ( REFLECTOR )
   1752            byte x;
   1753            uint16 maxNumItems;
   1754            uint16 numItems;
   1755            uint8 *pBuf = NULL;
   \   00000E   75..00       MOV       ?V8,#0x0
   \   000011   75..00       MOV       ?V9,#0x0
   1756            apsBindingItem_t *pList;
   1757            uint8 StartIndex = inMsg->asdu[0];
   \   000014   E5..         MOV       A,?V6
   \   000016   2413         ADD       A,#0x13
   \   000018   F582         MOV       DPL,A
   \   00001A   E4           CLR       A
   \   00001B   35..         ADDC      A,?V7
   \   00001D   F583         MOV       DPH,A
   \   00001F   E0           MOVX      A,@DPTR
   \   000020   F8           MOV       R0,A
   \   000021   A3           INC       DPTR
   \   000022   E0           MOVX      A,@DPTR
   \   000023   F583         MOV       DPH,A
   \   000025   8882         MOV       DPL,R0
   \   000027   E0           MOVX      A,@DPTR
   \   000028   F5..         MOV       ?V1,A
   1758            uint8 status;
   1759          
   1760            // Get the number of table items
   1761            APSME_GetRequest( apsNumBindingTableEntries, 0, (byte*)(&maxNumItems) );
   \   00002A                ; Setup parameters for call to function APSME_GetRequest
   \   00002A   AC..         MOV       R4,?XSP + 0
   \   00002C   AD..         MOV       R5,?XSP + 1
   \   00002E   7A00         MOV       R2,#0x0
   \   000030   7B00         MOV       R3,#0x0
   \   000032   79A3         MOV       R1,#-0x5d
   \   000034   12....       LCALL     `??APSME_GetRequest::?relay`; Banked call to: APSME_GetRequest
   \   000037   E9           MOV       A,R1
   1762          
   1763            if ( maxNumItems > StartIndex )
   \   000038   E5..         MOV       A,?V1
   \   00003A   FA           MOV       R2,A
   \   00003B   7B00         MOV       R3,#0x0
   \   00003D   85..82       MOV       DPL,?XSP + 0
   \   000040   85..83       MOV       DPH,?XSP + 1
   \   000043   E0           MOVX      A,@DPTR
   \   000044   F8           MOV       R0,A
   \   000045   A3           INC       DPTR
   \   000046   E0           MOVX      A,@DPTR
   \   000047   F9           MOV       R1,A
   \   000048   C3           CLR       C
   \   000049   EA           MOV       A,R2
   \   00004A   98           SUBB      A,R0
   \   00004B   EB           MOV       A,R3
   \   00004C   99           SUBB      A,R1
   \   00004D   5019         JNC       ??ZDO_ProcessMgmtBindReq_0
   1764            {
   1765              numItems = maxNumItems - StartIndex;    // Start at the passed in index
   \   00004F   85..82       MOV       DPL,?XSP + 0
   \   000052   85..83       MOV       DPH,?XSP + 1
   \   000055   E5..         MOV       A,?V1
   \   000057   F8           MOV       R0,A
   \   000058   7900         MOV       R1,#0x0
   \   00005A   E0           MOVX      A,@DPTR
   \   00005B   C3           CLR       C
   \   00005C   98           SUBB      A,R0
   \   00005D   F8           MOV       R0,A
   \   00005E   A3           INC       DPTR
   \   00005F   E0           MOVX      A,@DPTR
   \   000060   99           SUBB      A,R1
   \   000061   F9           MOV       R1,A
   \   000062   E8           MOV       A,R0
   \   000063   FE           MOV       R6,A
   \   000064   E9           MOV       A,R1
   \   000065   FF           MOV       R7,A
   \   000066   8004         SJMP      ??ZDO_ProcessMgmtBindReq_1
   1766            }
   1767            else
   1768            {
   1769              numItems = 0;
   \                     ??ZDO_ProcessMgmtBindReq_0:
   \   000068   7E00         MOV       R6,#0x0
   \   00006A   7F00         MOV       R7,#0x0
   1770            }
   1771          
   1772            // limit the size of the list
   1773            if ( numItems > ZDO_MAX_BIND_ITEMS )
   \                     ??ZDO_ProcessMgmtBindReq_1:
   \   00006C   C3           CLR       C
   \   00006D   EE           MOV       A,R6
   \   00006E   9404         SUBB      A,#0x4
   \   000070   EF           MOV       A,R7
   \   000071   9400         SUBB      A,#0x0
   \   000073   4004         JC        ??ZDO_ProcessMgmtBindReq_2
   1774            {
   1775              numItems = ZDO_MAX_BIND_ITEMS;
   \   000075   7E03         MOV       R6,#0x3
   \   000077   7F00         MOV       R7,#0x0
   1776            }
   1777          
   1778            // Allocate the memory to build the table
   1779            if ( numItems )
   \                     ??ZDO_ProcessMgmtBindReq_2:
   \   000079   EE           MOV       A,R6
   \   00007A   4F           ORL       A,R7
   \   00007B   6075         JZ        ??ZDO_ProcessMgmtBindReq_3
   1780            {
   1781              pBuf = osal_mem_alloc( sizeof( apsBindingItem_t ) * numItems );
   \   00007D                ; Setup parameters for call to function osal_mem_alloc
   \   00007D   EE           MOV       A,R6
   \   00007E   FA           MOV       R2,A
   \   00007F   EF           MOV       A,R7
   \   000080   FB           MOV       R3,A
   \   000081   EA           MOV       A,R2
   \   000082   75F015       MOV       B,#0x15
   \   000085   A4           MUL       AB
   \   000086   CA           XCH       A,R2
   \   000087   A8F0         MOV       R0,B
   \   000089   75F000       MOV       B,#0x0
   \   00008C   A4           MUL       AB
   \   00008D   28           ADD       A,R0
   \   00008E   F8           MOV       R0,A
   \   00008F   75F015       MOV       B,#0x15
   \   000092   EB           MOV       A,R3
   \   000093   A4           MUL       AB
   \   000094   28           ADD       A,R0
   \   000095   FB           MOV       R3,A
   \   000096   12....       LCALL     `??osal_mem_alloc::?relay`; Banked call to: osal_mem_alloc
   \   000099   8A..         MOV       ?V10,R2
   \   00009B   8B..         MOV       ?V11,R3
   \   00009D   85....       MOV       ?V8,?V10
   \   0000A0   85....       MOV       ?V9,?V11
   1782              
   1783              if(pBuf != NULL)
   \   0000A3   E5..         MOV       A,?V8
   \   0000A5   45..         ORL       A,?V9
   \   0000A7   6040         JZ        ??ZDO_ProcessMgmtBindReq_4
   1784              {
   1785              
   1786                status = ZSuccess;
   \   0000A9   75..00       MOV       ?V0,#0x0
   1787          
   1788                // Convert buffer to list
   1789                pList = (apsBindingItem_t *)pBuf;
   \   0000AC   85....       MOV       ?V4,?V8
   \   0000AF   85....       MOV       ?V5,?V9
   1790          
   1791                // Loop through items and build list
   1792                for ( x = 0; x < numItems; x++ )
   \   0000B2   75..00       MOV       ?V2,#0x0
   \                     ??ZDO_ProcessMgmtBindReq_5:
   \   0000B5   E5..         MOV       A,?V2
   \   0000B7   F8           MOV       R0,A
   \   0000B8   7900         MOV       R1,#0x0
   \   0000BA   C3           CLR       C
   \   0000BB   E8           MOV       A,R0
   \   0000BC   9E           SUBB      A,R6
   \   0000BD   E9           MOV       A,R1
   \   0000BE   9F           SUBB      A,R7
   \   0000BF   5034         JNC       ??ZDO_ProcessMgmtBindReq_6
   1793                {
   1794                  APSME_GetRequest( apsBindingTable, (x + StartIndex), (void*)pList );
   \   0000C1                ; Setup parameters for call to function APSME_GetRequest
   \   0000C1   AC..         MOV       R4,?V4
   \   0000C3   AD..         MOV       R5,?V5
   \   0000C5   E5..         MOV       A,?V2
   \   0000C7   FA           MOV       R2,A
   \   0000C8   7B00         MOV       R3,#0x0
   \   0000CA   E5..         MOV       A,?V1
   \   0000CC   F8           MOV       R0,A
   \   0000CD   7900         MOV       R1,#0x0
   \   0000CF   EA           MOV       A,R2
   \   0000D0   28           ADD       A,R0
   \   0000D1   FA           MOV       R2,A
   \   0000D2   EB           MOV       A,R3
   \   0000D3   39           ADDC      A,R1
   \   0000D4   FB           MOV       R3,A
   \   0000D5   79A2         MOV       R1,#-0x5e
   \   0000D7   12....       LCALL     `??APSME_GetRequest::?relay`; Banked call to: APSME_GetRequest
   \   0000DA   E9           MOV       A,R1
   1795                  pList++;
   \   0000DB   E5..         MOV       A,?V4
   \   0000DD   2415         ADD       A,#0x15
   \   0000DF   F5..         MOV       ?V4,A
   \   0000E1   5002         JNC       ??ZDO_ProcessMgmtBindReq_7
   \   0000E3   05..         INC       ?V5
   1796                }
   \                     ??ZDO_ProcessMgmtBindReq_7:
   \   0000E5   05..         INC       ?V2
   \   0000E7   80CC         SJMP      ??ZDO_ProcessMgmtBindReq_5
   1797              }
   1798              else
   1799              {
   1800                //No memory to allocate response, respond unsupported attribute
   1801                status = ZApsUnsupportedAttrib;
   \                     ??ZDO_ProcessMgmtBindReq_4:
   \   0000E9   75..B5       MOV       ?V0,#-0x4b
   1802                numItems = 0;
   \   0000EC   7E00         MOV       R6,#0x0
   \   0000EE   7F00         MOV       R7,#0x0
   \   0000F0   8003         SJMP      ??ZDO_ProcessMgmtBindReq_6
   1803              }
   1804            }
   1805            else
   1806            {
   1807              status = ZSuccess;
   \                     ??ZDO_ProcessMgmtBindReq_3:
   \   0000F2   75..00       MOV       ?V0,#0x0
   1808            }
   1809          
   1810            // Send response
   1811            ZDP_MgmtBindRsp( inMsg->TransSeq, &(inMsg->srcAddr), status, (byte)maxNumItems, StartIndex,
   1812                             (byte)numItems, (apsBindingItem_t *)pBuf, false );
   \                     ??ZDO_ProcessMgmtBindReq_6:
   \   0000F5                ; Setup parameters for call to function ZDP_MgmtBindRsp
   \   0000F5   75..00       MOV       ?V3,#0x0
   \   0000F8   78..         MOV       R0,#?V3
   \   0000FA   12....       LCALL     ?PUSH_XSTACK_I_ONE
   \   0000FD   78..         MOV       R0,#?V8
   \   0000FF   12....       LCALL     ?PUSH_XSTACK_I_TWO
   \   000102   EE           MOV       A,R6
   \   000103   F5..         MOV       ?V3,A
   \   000105   78..         MOV       R0,#?V3
   \   000107   12....       LCALL     ?PUSH_XSTACK_I_ONE
   \   00010A   E5..         MOV       A,?V1
   \   00010C   F5..         MOV       ?V3,A
   \   00010E   78..         MOV       R0,#?V3
   \   000110   12....       LCALL     ?PUSH_XSTACK_I_ONE
   \   000113   7405         MOV       A,#0x5
   \   000115   12....       LCALL     ?XSTACK_DISP0_8
   \   000118   E0           MOVX      A,@DPTR
   \   000119   F8           MOV       R0,A
   \   00011A   A3           INC       DPTR
   \   00011B   E0           MOVX      A,@DPTR
   \   00011C   F9           MOV       R1,A
   \   00011D   E8           MOV       A,R0
   \   00011E   FD           MOV       R5,A
   \   00011F   AC..         MOV       R4,?V0
   \   000121   E5..         MOV       A,?V6
   \   000123   2402         ADD       A,#0x2
   \   000125   FA           MOV       R2,A
   \   000126   E4           CLR       A
   \   000127   35..         ADDC      A,?V7
   \   000129   FB           MOV       R3,A
   \   00012A   E5..         MOV       A,?V6
   \   00012C   240F         ADD       A,#0xf
   \   00012E   F582         MOV       DPL,A
   \   000130   E4           CLR       A
   \   000131   35..         ADDC      A,?V7
   \   000133   F583         MOV       DPH,A
   \   000135   E0           MOVX      A,@DPTR
   \   000136   F9           MOV       R1,A
   \   000137   12....       LCALL     `??ZDP_MgmtBindRsp::?relay`; Banked call to: ZDP_MgmtBindRsp
   \   00013A   7405         MOV       A,#0x5
   \   00013C   12....       LCALL     ?DEALLOC_XSTACK8
   \   00013F   E9           MOV       A,R1
   1813          
   1814            if ( pBuf )
   \   000140   E5..         MOV       A,?V8
   \   000142   45..         ORL       A,?V9
   \   000144   6007         JZ        ??ZDO_ProcessMgmtBindReq_8
   1815            {
   1816              osal_mem_free( pBuf );
   \   000146                ; Setup parameters for call to function osal_mem_free
   \   000146   AA..         MOV       R2,?V8
   \   000148   AB..         MOV       R3,?V9
   \   00014A   12....       LCALL     `??osal_mem_free::?relay`; Banked call to: osal_mem_free
   1817            }
   1818          #else
   1819            (void)inMsg;
   1820          #endif
   1821          }
   \                     ??ZDO_ProcessMgmtBindReq_8:
   \   00014D   7402         MOV       A,#0x2
   \   00014F   12....       LCALL     ?DEALLOC_XSTACK8
   \   000152   7F0C         MOV       R7,#0xc
   \   000154   02....       LJMP      ?BANKED_LEAVE_XDATA
   1822          
   1823          /*********************************************************************
   1824           * @fn          ZDO_ProcessMgmtDirectJoinReq
   1825           *
   1826           * @brief       This function finishes the processing of the Management
   1827           *              Direct Join Request and generates the response.
   1828           *
   1829           * @param       inMsg - incoming message (request)
   1830           *
   1831           * @return      none
   1832           */

   \                                 In  segment BANKED_CODE, align 1, keep-with-next
   1833          void ZDO_ProcessMgmtDirectJoinReq( zdoIncomingMsg_t *inMsg )
   \                     ZDO_ProcessMgmtDirectJoinReq:
   1834          {
   \   000000                REQUIRE ?V0
   \   000000                REQUIRE ?V1
   \   000000                REQUIRE ?V2
   \   000000                REQUIRE ?V3
   \   000000                REQUIRE ?V4
   \   000000                REQUIRE ?V5
   \   000000   74F2         MOV       A,#-0xe
   \   000002   12....       LCALL     ?BANKED_ENTER_XDATA
   \   000005                ; Saved register size: 14
   \   000005                ; Auto size: 1
   \   000005   74FF         MOV       A,#-0x1
   \   000007   12....       LCALL     ?ALLOC_XSTACK8
   \   00000A   EA           MOV       A,R2
   \   00000B   FE           MOV       R6,A
   \   00000C   EB           MOV       A,R3
   \   00000D   FF           MOV       R7,A
   1835            uint8 *deviceAddr;
   1836            uint8 capInfo;
   1837            uint8 stat;
   1838          
   1839            // Parse the message
   1840            deviceAddr = inMsg->asdu;
   \   00000E   EE           MOV       A,R6
   \   00000F   2413         ADD       A,#0x13
   \   000011   F582         MOV       DPL,A
   \   000013   E4           CLR       A
   \   000014   3F           ADDC      A,R7
   \   000015   F583         MOV       DPH,A
   \   000017   E0           MOVX      A,@DPTR
   \   000018   F8           MOV       R0,A
   \   000019   A3           INC       DPTR
   \   00001A   E0           MOVX      A,@DPTR
   \   00001B   F9           MOV       R1,A
   \   00001C   88..         MOV       ?V0,R0
   \   00001E   89..         MOV       ?V1,R1
   1841            capInfo = inMsg->asdu[Z_EXTADDR_LEN];
   \   000020   EE           MOV       A,R6
   \   000021   2413         ADD       A,#0x13
   \   000023   F582         MOV       DPL,A
   \   000025   E4           CLR       A
   \   000026   3F           ADDC      A,R7
   \   000027   F583         MOV       DPH,A
   \   000029   E0           MOVX      A,@DPTR
   \   00002A   F8           MOV       R0,A
   \   00002B   A3           INC       DPTR
   \   00002C   E0           MOVX      A,@DPTR
   \   00002D   C8           XCH       A,R0
   \   00002E   2408         ADD       A,#0x8
   \   000030   F582         MOV       DPL,A
   \   000032   C8           XCH       A,R0
   \   000033   3400         ADDC      A,#0x0
   \   000035   F583         MOV       DPH,A
   \   000037   E0           MOVX      A,@DPTR
   \   000038   F5..         MOV       ?V2,A
   1842          
   1843            stat = (byte) NLME_DirectJoinRequest( deviceAddr, capInfo );
   \   00003A                ; Setup parameters for call to function NLME_DirectJoinRequest
   \   00003A   A9..         MOV       R1,?V2
   \   00003C   AA..         MOV       R2,?V0
   \   00003E   AB..         MOV       R3,?V1
   \   000040   12....       LCALL     `??NLME_DirectJoinRequest::?relay`; Banked call to: NLME_DirectJoinRequest
   \   000043   E9           MOV       A,R1
   \   000044   C0E0         PUSH      A
   \   000046   85..82       MOV       DPL,?XSP + 0
   \   000049   85..83       MOV       DPH,?XSP + 1
   \   00004C   D0E0         POP       A
   \   00004E   F0           MOVX      @DPTR,A
   1844          
   1845            ZDP_MgmtDirectJoinRsp( inMsg->TransSeq, &(inMsg->srcAddr), stat, false );
   \   00004F                ; Setup parameters for call to function ZDP_SendData
   \   00004F   75..00       MOV       ?V3,#0x0
   \   000052   78..         MOV       R0,#?V3
   \   000054   12....       LCALL     ?PUSH_XSTACK_I_ONE
   \   000057   7401         MOV       A,#0x1
   \   000059   12....       LCALL     ?XSTACK_DISP100_8
   \   00005C   88..         MOV       ?V4,R0
   \   00005E   89..         MOV       ?V5,R1
   \   000060   78..         MOV       R0,#?V4
   \   000062   12....       LCALL     ?PUSH_XSTACK_I_TWO
   \   000065   75..35       MOV       ?V4,#0x35
   \   000068   75..80       MOV       ?V5,#-0x80
   \   00006B   78..         MOV       R0,#?V4
   \   00006D   12....       LCALL     ?PUSH_XSTACK_I_TWO
   \   000070   7901         MOV       R1,#0x1
   \   000072   EE           MOV       A,R6
   \   000073   2402         ADD       A,#0x2
   \   000075   FC           MOV       R4,A
   \   000076   E4           CLR       A
   \   000077   3F           ADDC      A,R7
   \   000078   FD           MOV       R5,A
   \   000079   EE           MOV       A,R6
   \   00007A   240F         ADD       A,#0xf
   \   00007C   FA           MOV       R2,A
   \   00007D   E4           CLR       A
   \   00007E   3F           ADDC      A,R7
   \   00007F   FB           MOV       R3,A
   \   000080   12....       LCALL     `??ZDP_SendData::?relay`; Banked call to: ZDP_SendData
   \   000083   7405         MOV       A,#0x5
   \   000085   12....       LCALL     ?DEALLOC_XSTACK8
   \   000088   E9           MOV       A,R1
   1846          }
   \   000089   7401         MOV       A,#0x1
   \   00008B   12....       LCALL     ?DEALLOC_XSTACK8
   \   00008E   7F06         MOV       R7,#0x6
   \   000090   02....       LJMP      ?BANKED_LEAVE_XDATA
   1847          
   1848          /*********************************************************************
   1849           * @fn          ZDO_ProcessMgmtLeaveReq
   1850           *
   1851           * @brief       This function processes a Management Leave Request
   1852           *              and generates the response.
   1853           *
   1854           * @param       inMsg - incoming message (request)
   1855           *
   1856           * @return      none
   1857           */

   \                                 In  segment BANKED_CODE, align 1, keep-with-next
   1858          void ZDO_ProcessMgmtLeaveReq( zdoIncomingMsg_t *inMsg )
   \                     ZDO_ProcessMgmtLeaveReq:
   1859          {
   \   000000                REQUIRE ?V0
   \   000000                REQUIRE ?V1
   \   000000                REQUIRE ?V2
   \   000000                REQUIRE ?V3
   \   000000                REQUIRE ?V4
   \   000000                REQUIRE ?V5
   \   000000   74F2         MOV       A,#-0xe
   \   000002   12....       LCALL     ?BANKED_ENTER_XDATA
   \   000005                ; Saved register size: 14
   \   000005                ; Auto size: 6
   \   000005   74FA         MOV       A,#-0x6
   \   000007   12....       LCALL     ?ALLOC_XSTACK8
   \   00000A   8A..         MOV       ?V0,R2
   \   00000C   8B..         MOV       ?V1,R3
   1860            NLME_LeaveReq_t req;
   1861            ZStatus_t       status;
   1862            uint8           option;
   1863            uint8 *msg = inMsg->asdu;
   \   00000E   E5..         MOV       A,?V0
   \   000010   2413         ADD       A,#0x13
   \   000012   F582         MOV       DPL,A
   \   000014   E4           CLR       A
   \   000015   35..         ADDC      A,?V1
   \   000017   F583         MOV       DPH,A
   \   000019   E0           MOVX      A,@DPTR
   \   00001A   FE           MOV       R6,A
   \   00001B   A3           INC       DPTR
   \   00001C   E0           MOVX      A,@DPTR
   \   00001D   FF           MOV       R7,A
   1864            
   1865            if ( ( AddrMgrExtAddrValid( msg ) == FALSE                 ) ||
   1866                 ( osal_ExtAddrEqual( msg, NLME_GetExtAddr() ) == TRUE )    )
   \   00001E                ; Setup parameters for call to function AddrMgrExtAddrValid
   \   00001E   EE           MOV       A,R6
   \   00001F   FA           MOV       R2,A
   \   000020   EF           MOV       A,R7
   \   000021   FB           MOV       R3,A
   \   000022   12....       LCALL     `??AddrMgrExtAddrValid::?relay`; Banked call to: AddrMgrExtAddrValid
   \   000025   E9           MOV       A,R1
   \   000026   6017         JZ        ??ZDO_ProcessMgmtLeaveReq_0
   \   000028                ; Setup parameters for call to function NLME_GetExtAddr
   \   000028   12....       LCALL     `??NLME_GetExtAddr::?relay`; Banked call to: NLME_GetExtAddr
   \   00002B   8A..         MOV       ?V4,R2
   \   00002D   8B..         MOV       ?V5,R3
   \   00002F   AC..         MOV       R4,?V4
   \   000031   AD..         MOV       R5,?V5
   \   000033                ; Setup parameters for call to function sAddrExtCmp
   \   000033   EE           MOV       A,R6
   \   000034   FA           MOV       R2,A
   \   000035   EF           MOV       A,R7
   \   000036   FB           MOV       R3,A
   \   000037   12....       LCALL     `??sAddrExtCmp::?relay`; Banked call to: sAddrExtCmp
   \   00003A   E9           MOV       A,R1
   \   00003B   6401         XRL       A,#0x1
   \   00003D   700E         JNZ       ??ZDO_ProcessMgmtLeaveReq_1
   1867            {
   1868              if ( ( ZG_BUILD_COORDINATOR_TYPE ) && ( ZG_DEVICE_COORDINATOR_TYPE ) )
   1869              {
   1870                // Coordinator shall drop the leave request for itself
   1871                // section 3.6.1.10.3.1 R21
   1872                return;
   1873              }
   1874              else
   1875              {
   1876                // Remove this device
   1877                req.extAddr = NULL;
   \                     ??ZDO_ProcessMgmtLeaveReq_0:
   \   00003F   7401         MOV       A,#0x1
   \   000041   12....       LCALL     ?XSTACK_DISP0_8
   \   000044   7400         MOV       A,#0x0
   \   000046   F0           MOVX      @DPTR,A
   \   000047   A3           INC       DPTR
   \   000048   7400         MOV       A,#0x0
   \   00004A   F0           MOVX      @DPTR,A
   \   00004B   800A         SJMP      ??ZDO_ProcessMgmtLeaveReq_2
   1878              }
   1879            }
   1880            else
   1881            {
   1882              // Remove child device
   1883              req.extAddr = msg;
   \                     ??ZDO_ProcessMgmtLeaveReq_1:
   \   00004D   7401         MOV       A,#0x1
   \   00004F   12....       LCALL     ?XSTACK_DISP0_8
   \   000052   EE           MOV       A,R6
   \   000053   F0           MOVX      @DPTR,A
   \   000054   A3           INC       DPTR
   \   000055   EF           MOV       A,R7
   \   000056   F0           MOVX      @DPTR,A
   1884            }
   1885            if ( ( ZG_BUILD_ENDDEVICE_TYPE ) && ( ZG_DEVICE_ENDDEVICE_TYPE ) )
   1886            {
   1887              //Only the parent device can request to leave, otherwise silently discard the frame
   1888              if(inMsg->srcAddr.addr.shortAddr != _NIB.nwkCoordAddress)
   \                     ??ZDO_ProcessMgmtLeaveReq_2:
   \   000057   85..82       MOV       DPL,?V0
   \   00005A   85..83       MOV       DPH,?V1
   \   00005D   A3           INC       DPTR
   \   00005E   A3           INC       DPTR
   \   00005F   E0           MOVX      A,@DPTR
   \   000060   F8           MOV       R0,A
   \   000061   A3           INC       DPTR
   \   000062   E0           MOVX      A,@DPTR
   \   000063   F9           MOV       R1,A
   \   000064   90....       MOV       DPTR,#_NIB + 23
   \   000067   E0           MOVX      A,@DPTR
   \   000068   68           XRL       A,R0
   \   000069   7003         JNZ       ??ZDO_ProcessMgmtLeaveReq_3
   \   00006B   A3           INC       DPTR
   \   00006C   E0           MOVX      A,@DPTR
   \   00006D   69           XRL       A,R1
   \                     ??ZDO_ProcessMgmtLeaveReq_3:
   \   00006E   6003         JZ        $+5
   \   000070   02....       LJMP      ??ZDO_ProcessMgmtLeaveReq_4 & 0xFFFF
   1889              {
   1890                return;
   1891              }
   1892            }
   1893          
   1894            option = msg[Z_EXTADDR_LEN];
   \   000073   8E82         MOV       DPL,R6
   \   000075   8F83         MOV       DPH,R7
   \   000077   A3           INC       DPTR
   \   000078   A3           INC       DPTR
   \   000079   A3           INC       DPTR
   \   00007A   A3           INC       DPTR
   \   00007B   A3           INC       DPTR
   \   00007C   A3           INC       DPTR
   \   00007D   A3           INC       DPTR
   \   00007E   A3           INC       DPTR
   \   00007F   E0           MOVX      A,@DPTR
   \   000080   F5..         MOV       ?V2,A
   1895            if ( option & ZDP_MGMT_LEAVE_REQ_RC )
   \   000082   E5..         MOV       A,?V2
   \   000084   A2E6         MOV       C,0xE0 /* A   */.6
   \   000086   5008         JNC       ??ZDO_ProcessMgmtLeaveReq_5
   1896            {
   1897              req.removeChildren = TRUE;
   \   000088   7403         MOV       A,#0x3
   \   00008A   12....       LCALL     ?XSTACK_DISP0_8
   \   00008D   7401         MOV       A,#0x1
   \   00008F   F0           MOVX      @DPTR,A
   1898            }
   1899          
   1900            if ( option & ZDP_MGMT_LEAVE_REQ_REJOIN )
   \                     ??ZDO_ProcessMgmtLeaveReq_5:
   \   000090   E5..         MOV       A,?V2
   \   000092   A2E7         MOV       C,0xE0 /* A   */.7
   \   000094   5008         JNC       ??ZDO_ProcessMgmtLeaveReq_6
   1901            {
   1902               req.rejoin = TRUE;
   \   000096   7404         MOV       A,#0x4
   \   000098   12....       LCALL     ?XSTACK_DISP0_8
   \   00009B   7401         MOV       A,#0x1
   \   00009D   F0           MOVX      @DPTR,A
   1903            }
   1904          
   1905            req.silent = FALSE;
   \                     ??ZDO_ProcessMgmtLeaveReq_6:
   \   00009E   7405         MOV       A,#0x5
   \   0000A0   12....       LCALL     ?XSTACK_DISP0_8
   \   0000A3   7400         MOV       A,#0x0
   \   0000A5   F0           MOVX      @DPTR,A
   1906            
   1907            //According to R21 spec sec2.4.3.3.5.2 Mgmt leave rsp must contain the status response from the nwk leave processing. 
   1908            //Latest discussion in Zigbee indicates that mgmt leave rsp due to an OTA command must have status=success (9/12/16)
   1909            status = ZSuccess;
   \   0000A6   85..82       MOV       DPL,?XSP + 0
   \   0000A9   85..83       MOV       DPH,?XSP + 1
   \   0000AC   7400         MOV       A,#0x0
   \   0000AE   F0           MOVX      @DPTR,A
   1910            
   1911            ZDP_MgmtLeaveRsp( inMsg->TransSeq, &(inMsg->srcAddr), status, FALSE );
   \   0000AF                ; Setup parameters for call to function ZDP_SendData
   \   0000AF   75..00       MOV       ?V3,#0x0
   \   0000B2   78..         MOV       R0,#?V3
   \   0000B4   12....       LCALL     ?PUSH_XSTACK_I_ONE
   \   0000B7   7401         MOV       A,#0x1
   \   0000B9   12....       LCALL     ?XSTACK_DISP100_8
   \   0000BC   88..         MOV       ?V4,R0
   \   0000BE   89..         MOV       ?V5,R1
   \   0000C0   78..         MOV       R0,#?V4
   \   0000C2   12....       LCALL     ?PUSH_XSTACK_I_TWO
   \   0000C5   75..34       MOV       ?V4,#0x34
   \   0000C8   75..80       MOV       ?V5,#-0x80
   \   0000CB   78..         MOV       R0,#?V4
   \   0000CD   12....       LCALL     ?PUSH_XSTACK_I_TWO
   \   0000D0   7901         MOV       R1,#0x1
   \   0000D2   E5..         MOV       A,?V0
   \   0000D4   2402         ADD       A,#0x2
   \   0000D6   FC           MOV       R4,A
   \   0000D7   E4           CLR       A
   \   0000D8   35..         ADDC      A,?V1
   \   0000DA   FD           MOV       R5,A
   \   0000DB   E5..         MOV       A,?V0
   \   0000DD   240F         ADD       A,#0xf
   \   0000DF   FA           MOV       R2,A
   \   0000E0   E4           CLR       A
   \   0000E1   35..         ADDC      A,?V1
   \   0000E3   FB           MOV       R3,A
   \   0000E4   12....       LCALL     `??ZDP_SendData::?relay`; Banked call to: ZDP_SendData
   \   0000E7   7405         MOV       A,#0x5
   \   0000E9   12....       LCALL     ?DEALLOC_XSTACK8
   \   0000EC   E9           MOV       A,R1
   1912            
   1913            if ( ZG_BUILD_ENDDEVICE_TYPE )
   1914            {
   1915              // Stop polling and get ready to reset
   1916              NLME_SetPollRate( 0 );
   \   0000ED                ; Setup parameters for call to function NLME_SetPollRate
   \   0000ED   90....       MOV       DPTR,#__Constant_0
   \   0000F0   12....       LCALL     ?XLOAD_R2345
   \   0000F3   12....       LCALL     `??NLME_SetPollRate::?relay`; Banked call to: NLME_SetPollRate
   1917              NLME_SetResponseRate(0);
   \   0000F6                ; Setup parameters for call to function NLME_SetResponseRate
   \   0000F6   7A00         MOV       R2,#0x0
   \   0000F8   7B00         MOV       R3,#0x0
   \   0000FA   12....       LCALL     `??NLME_SetResponseRate::?relay`; Banked call to: NLME_SetResponseRate
   1918              NLME_SetQueuedPollRate(0);
   \   0000FD                ; Setup parameters for call to function NLME_SetQueuedPollRate
   \   0000FD   7A00         MOV       R2,#0x0
   \   0000FF   7B00         MOV       R3,#0x0
   \   000101   12....       LCALL     `??NLME_SetQueuedPollRate::?relay`; Banked call to: NLME_SetQueuedPollRate
   1919            }
   1920            
   1921            NLME_LeaveReq(&req);
   \   000104                ; Setup parameters for call to function NLME_LeaveReq
   \   000104   7401         MOV       A,#0x1
   \   000106   12....       LCALL     ?XSTACK_DISP101_8
   \   000109   12....       LCALL     `??NLME_LeaveReq::?relay`; Banked call to: NLME_LeaveReq
   \   00010C   E9           MOV       A,R1
   1922            
   1923            if (! (option & ZDP_MGMT_LEAVE_REQ_REJOIN) )
   \   00010D   E5..         MOV       A,?V2
   \   00010F   A2E7         MOV       C,0xE0 /* A   */.7
   \   000111   4011         JC        ??ZDO_ProcessMgmtLeaveReq_4
   1924            {
   1925              if(req.extAddr == NULL)
   \   000113   7401         MOV       A,#0x1
   \   000115   12....       LCALL     ?XSTACK_DISP0_8
   \   000118   E0           MOVX      A,@DPTR
   \   000119   F8           MOV       R0,A
   \   00011A   A3           INC       DPTR
   \   00011B   E0           MOVX      A,@DPTR
   \   00011C   F9           MOV       R1,A
   \   00011D   E8           MOV       A,R0
   \   00011E   49           ORL       A,R1
   \   00011F   7003         JNZ       ??ZDO_ProcessMgmtLeaveReq_4
   1926              {
   1927                bdb_setFN();
   \   000121                ; Setup parameters for call to function bdb_setFN
   \   000121   12....       LCALL     `??bdb_setFN::?relay`; Banked call to: bdb_setFN
   1928              }
   1929            }
   1930          }
   \                     ??ZDO_ProcessMgmtLeaveReq_4:
   \   000124   7406         MOV       A,#0x6
   \   000126   12....       LCALL     ?DEALLOC_XSTACK8
   \   000129   7F06         MOV       R7,#0x6
   \   00012B   02....       LJMP      ?BANKED_LEAVE_XDATA
   1931          
   1932          
   1933          /*********************************************************************
   1934           * @fn          ZDO_ProcessMgmtPermitJoinReq
   1935           *
   1936           * @brief       This function processes a Management Permit Join Request
   1937           *              and generates the response.
   1938           *
   1939           * @param       inMsg - incoming message (request)
   1940           *
   1941           * @return      none
   1942           */

   \                                 In  segment BANKED_CODE, align 1, keep-with-next
   1943          void ZDO_ProcessMgmtPermitJoinReq( zdoIncomingMsg_t *inMsg )
   \                     ZDO_ProcessMgmtPermitJoinReq:
   1944          {
   \   000000                REQUIRE ?V0
   \   000000                REQUIRE ?V1
   \   000000                REQUIRE ?V2
   \   000000                REQUIRE ?V3
   \   000000   74F4         MOV       A,#-0xc
   \   000002   12....       LCALL     ?BANKED_ENTER_XDATA
   \   000005                ; Saved register size: 12
   \   000005                ; Auto size: 1
   \   000005   74FF         MOV       A,#-0x1
   \   000007   12....       LCALL     ?ALLOC_XSTACK8
   \   00000A   EA           MOV       A,R2
   \   00000B   FE           MOV       R6,A
   \   00000C   EB           MOV       A,R3
   \   00000D   FF           MOV       R7,A
   1945            uint8 stat;
   1946            uint8 duration;
   1947          #if (ZG_BUILD_COORDINATOR_TYPE)
   1948            if(ZG_DEVICE_COORDINATOR_TYPE)
   1949            {
   1950              //If zgAllowRemoteTCPolicyChange is set to FALSE, the request from other 
   1951              //devices cannot affect the  Trust Center policies
   1952              if((zgAllowRemoteTCPolicyChange == 0) && (inMsg->srcAddr.addr.shortAddr!= 0x0000))
   1953              {
   1954                return;
   1955              }
   1956            }
   1957          #endif
   1958            
   1959            duration = inMsg->asdu[ZDP_MGMT_PERMIT_JOIN_REQ_DURATION];
   \   00000E   EE           MOV       A,R6
   \   00000F   2413         ADD       A,#0x13
   \   000011   F582         MOV       DPL,A
   \   000013   E4           CLR       A
   \   000014   3F           ADDC      A,R7
   \   000015   F583         MOV       DPH,A
   \   000017   E0           MOVX      A,@DPTR
   \   000018   F8           MOV       R0,A
   \   000019   A3           INC       DPTR
   \   00001A   E0           MOVX      A,@DPTR
   \   00001B   F583         MOV       DPH,A
   \   00001D   8882         MOV       DPL,R0
   \   00001F   E0           MOVX      A,@DPTR
   \   000020   F5..         MOV       ?V0,A
   1960            // Per R21 Spec this field is not longer relevant 2.4.3.3.7.2 (Mgmt_Permit_Joining_req Effect on Receipt)
   1961            //tcsig    = inMsg->asdu[ZDP_MGMT_PERMIT_JOIN_REQ_TC_SIG];
   1962          
   1963            // Per R21 Spec this duration cannot last forever 2.4.3.3.7.2 (Mgmt_Permit_Joining_req Effect on Receipt)
   1964            if(duration == 0xFF)
   \   000022   74FF         MOV       A,#-0x1
   \   000024   65..         XRL       A,?V0
   \   000026   7003         JNZ       ??ZDO_ProcessMgmtPermitJoinReq_0
   1965            {
   1966              duration = 0xFE;
   \   000028   75..FE       MOV       ?V0,#-0x2
   1967            }
   1968            
   1969            // Set the network layer permit join duration
   1970            stat = (byte) NLME_PermitJoiningRequest( duration );
   \                     ??ZDO_ProcessMgmtPermitJoinReq_0:
   \   00002B                ; Setup parameters for call to function NLME_PermitJoiningRequest
   \   00002B   A9..         MOV       R1,?V0
   \   00002D   12....       LCALL     `??NLME_PermitJoiningRequest::?relay`; Banked call to: NLME_PermitJoiningRequest
   \   000030   E9           MOV       A,R1
   \   000031   C0E0         PUSH      A
   \   000033   85..82       MOV       DPL,?XSP + 0
   \   000036   85..83       MOV       DPH,?XSP + 1
   \   000039   D0E0         POP       A
   \   00003B   F0           MOVX      @DPTR,A
   1971          
   1972            //Handle the permit joining if running a distributed network
   1973            if(APSME_IsDistributedSecurity())
   \   00003C                ; Setup parameters for call to function APSME_IsDistributedSecurity
   \   00003C   12....       LCALL     `??APSME_IsDistributedSecurity::?relay`; Banked call to: APSME_IsDistributedSecurity
   \   00003F   E9           MOV       A,R1
   \   000040   6006         JZ        ??ZDO_ProcessMgmtPermitJoinReq_1
   1974            {
   1975              ZDSecMgrPermitJoining( duration );
   \   000042                ; Setup parameters for call to function ZDSecMgrPermitJoining
   \   000042   A9..         MOV       R1,?V0
   \   000044   12....       LCALL     `??ZDSecMgrPermitJoining::?relay`; Banked call to: ZDSecMgrPermitJoining
   \   000047   E9           MOV       A,R1
   1976            }
   1977            
   1978            // Handle the Trust Center Significance
   1979            if ( ZG_SECURE_ENABLED && ZG_BUILD_COORDINATOR_TYPE && ZG_DEVICE_COORDINATOR_TYPE )
   1980            {
   1981              ZDSecMgrPermitJoining( duration );
   1982            }
   1983          
   1984            // Send a response if unicast
   1985            if ( !inMsg->wasBroadcast )
   \                     ??ZDO_ProcessMgmtPermitJoinReq_1:
   \   000048   EE           MOV       A,R6
   \   000049   240B         ADD       A,#0xb
   \   00004B   F582         MOV       DPL,A
   \   00004D   E4           CLR       A
   \   00004E   3F           ADDC      A,R7
   \   00004F   F583         MOV       DPH,A
   \   000051   E0           MOVX      A,@DPTR
   \   000052   703A         JNZ       ??ZDO_ProcessMgmtPermitJoinReq_2
   1986            {
   1987              ZDP_MgmtPermitJoinRsp( inMsg->TransSeq, &(inMsg->srcAddr), stat, false );
   \   000054                ; Setup parameters for call to function ZDP_SendData
   \   000054   75..00       MOV       ?V1,#0x0
   \   000057   78..         MOV       R0,#?V1
   \   000059   12....       LCALL     ?PUSH_XSTACK_I_ONE
   \   00005C   7401         MOV       A,#0x1
   \   00005E   12....       LCALL     ?XSTACK_DISP100_8
   \   000061   88..         MOV       ?V2,R0
   \   000063   89..         MOV       ?V3,R1
   \   000065   78..         MOV       R0,#?V2
   \   000067   12....       LCALL     ?PUSH_XSTACK_I_TWO
   \   00006A   75..36       MOV       ?V2,#0x36
   \   00006D   75..80       MOV       ?V3,#-0x80
   \   000070   78..         MOV       R0,#?V2
   \   000072   12....       LCALL     ?PUSH_XSTACK_I_TWO
   \   000075   7901         MOV       R1,#0x1
   \   000077   EE           MOV       A,R6
   \   000078   2402         ADD       A,#0x2
   \   00007A   FC           MOV       R4,A
   \   00007B   E4           CLR       A
   \   00007C   3F           ADDC      A,R7
   \   00007D   FD           MOV       R5,A
   \   00007E   EE           MOV       A,R6
   \   00007F   240F         ADD       A,#0xf
   \   000081   FA           MOV       R2,A
   \   000082   E4           CLR       A
   \   000083   3F           ADDC      A,R7
   \   000084   FB           MOV       R3,A
   \   000085   12....       LCALL     `??ZDP_SendData::?relay`; Banked call to: ZDP_SendData
   \   000088   7405         MOV       A,#0x5
   \   00008A   12....       LCALL     ?DEALLOC_XSTACK8
   \   00008D   E9           MOV       A,R1
   1988            }
   1989          }
   \                     ??ZDO_ProcessMgmtPermitJoinReq_2:
   \   00008E   7401         MOV       A,#0x1
   \   000090   12....       LCALL     ?DEALLOC_XSTACK8
   \   000093   7F04         MOV       R7,#0x4
   \   000095   02....       LJMP      ?BANKED_LEAVE_XDATA
   1990          
   1991          /*
   1992           * This function stub allows the next higher layer to be notified of
   1993           * a permit joining timeout.
   1994           */
   1995          /*********************************************************************
   1996           * @fn          ZDO_ProcessMgmtPermitJoinTimeout
   1997           *
   1998           * @brief       This function stub allows the next higher layer to be
   1999           *              notified of a permit joining timeout. Currently, this
   2000           *              directly bypasses the APS layer.
   2001           *
   2002           * @param       none
   2003           *
   2004           * @return      none
   2005           */

   \                                 In  segment BANKED_CODE, align 1, keep-with-next
   2006          void ZDO_ProcessMgmtPermitJoinTimeout( void )
   \                     NLME_PermitJoiningTimeout:
   2007          {
   \   000000                ; Saved register size: 0
   \   000000                ; Auto size: 0
   2008            #if defined( ZDO_MGMT_PERMIT_JOIN_RESPONSE )
   2009            // Currently, only the ZDSecMgr needs to be notified
   2010            if ( ZG_SECURE_ENABLED && ZG_BUILD_COORDINATOR_TYPE && ZG_DEVICE_COORDINATOR_TYPE )
   2011            {
   2012              ZDSecMgrPermitJoiningTimeout();
   2013            }
   2014            #endif
   2015          }
   \   000000   02....       LJMP      ?BRET
   2016          
   2017          /*********************************************************************
   2018           * @fn          ZDO_ProcessUserDescReq
   2019           *
   2020           * @brief       This function finishes the processing of the User
   2021           *              Descriptor Request and generates the response.
   2022           *
   2023           * @param       inMsg - incoming message (request)
   2024           *
   2025           * @return      none
   2026           */

   \                                 In  segment BANKED_CODE, align 1, keep-with-next
   2027          void ZDO_ProcessUserDescReq( zdoIncomingMsg_t *inMsg )
   \                     ZDO_ProcessUserDescReq:
   2028          {
   \   000000                REQUIRE ?V0
   \   000000                REQUIRE ?V1
   \   000000                REQUIRE ?V2
   \   000000                REQUIRE ?V3
   \   000000   74F4         MOV       A,#-0xc
   \   000002   12....       LCALL     ?BANKED_ENTER_XDATA
   \   000005                ; Saved register size: 12
   \   000005                ; Auto size: 17
   \   000005   74EF         MOV       A,#-0x11
   \   000007   12....       LCALL     ?ALLOC_XSTACK8
   \   00000A   EA           MOV       A,R2
   \   00000B   FE           MOV       R6,A
   \   00000C   EB           MOV       A,R3
   \   00000D   FF           MOV       R7,A
   2029            uint16 aoi = BUILD_UINT16( inMsg->asdu[0], inMsg->asdu[1] );
   \   00000E   EE           MOV       A,R6
   \   00000F   2413         ADD       A,#0x13
   \   000011   F582         MOV       DPL,A
   \   000013   E4           CLR       A
   \   000014   3F           ADDC      A,R7
   \   000015   F583         MOV       DPH,A
   \   000017   E0           MOVX      A,@DPTR
   \   000018   F8           MOV       R0,A
   \   000019   A3           INC       DPTR
   \   00001A   E0           MOVX      A,@DPTR
   \   00001B   F583         MOV       DPH,A
   \   00001D   8882         MOV       DPL,R0
   \   00001F   E0           MOVX      A,@DPTR
   \   000020   FA           MOV       R2,A
   \   000021   7B00         MOV       R3,#0x0
   \   000023   EE           MOV       A,R6
   \   000024   2413         ADD       A,#0x13
   \   000026   F582         MOV       DPL,A
   \   000028   E4           CLR       A
   \   000029   3F           ADDC      A,R7
   \   00002A   F583         MOV       DPH,A
   \   00002C   E0           MOVX      A,@DPTR
   \   00002D   F8           MOV       R0,A
   \   00002E   A3           INC       DPTR
   \   00002F   E0           MOVX      A,@DPTR
   \   000030   F583         MOV       DPH,A
   \   000032   8882         MOV       DPL,R0
   \   000034   A3           INC       DPTR
   \   000035   E0           MOVX      A,@DPTR
   \   000036   F8           MOV       R0,A
   \   000037   7900         MOV       R1,#0x0
   \   000039   E4           CLR       A
   \   00003A   C8           XCH       A,R0
   \   00003B   F9           MOV       R1,A
   \   00003C   EA           MOV       A,R2
   \   00003D   28           ADD       A,R0
   \   00003E   F5..         MOV       ?V0,A
   \   000040   EB           MOV       A,R3
   \   000041   39           ADDC      A,R1
   \   000042   F5..         MOV       ?V1,A
   2030            UserDescriptorFormat_t userDesc;
   2031          
   2032            if ( (aoi == ZDAppNwkAddr.addr.shortAddr) && (ZSUCCESS == osal_nv_read(
   2033                       ZCD_NV_USERDESC, 0, sizeof(UserDescriptorFormat_t), &userDesc )) )
   \   000044   90....       MOV       DPTR,#ZDAppNwkAddr
   \   000047   E0           MOVX      A,@DPTR
   \   000048   65..         XRL       A,?V0
   \   00004A   7004         JNZ       ??ZDO_ProcessUserDescReq_0
   \   00004C   A3           INC       DPTR
   \   00004D   E0           MOVX      A,@DPTR
   \   00004E   65..         XRL       A,?V1
   \                     ??ZDO_ProcessUserDescReq_0:
   \   000050   7062         JNZ       ??ZDO_ProcessUserDescReq_1
   \   000052                ; Setup parameters for call to function osal_nv_read
   \   000052   A8..         MOV       R0,?XSP + 0
   \   000054   A9..         MOV       R1,?XSP + 1
   \   000056   88..         MOV       ?V2,R0
   \   000058   89..         MOV       ?V3,R1
   \   00005A   78..         MOV       R0,#?V2
   \   00005C   12....       LCALL     ?PUSH_XSTACK_I_TWO
   \   00005F   75..11       MOV       ?V2,#0x11
   \   000062   75..00       MOV       ?V3,#0x0
   \   000065   78..         MOV       R0,#?V2
   \   000067   12....       LCALL     ?PUSH_XSTACK_I_TWO
   \   00006A   7C00         MOV       R4,#0x0
   \   00006C   7D00         MOV       R5,#0x0
   \   00006E   7A81         MOV       R2,#-0x7f
   \   000070   7B00         MOV       R3,#0x0
   \   000072   12....       LCALL     `??osal_nv_read::?relay`; Banked call to: osal_nv_read
   \   000075   7404         MOV       A,#0x4
   \   000077   12....       LCALL     ?DEALLOC_XSTACK8
   \   00007A   E9           MOV       A,R1
   \   00007B   7037         JNZ       ??ZDO_ProcessUserDescReq_1
   2034            {
   2035              ZDP_UserDescRsp( inMsg->TransSeq, &(inMsg->srcAddr), aoi, &userDesc, false );
   \   00007D                ; Setup parameters for call to function ZDP_UserDescRsp
   \   00007D   75..00       MOV       ?V2,#0x0
   \   000080   78..         MOV       R0,#?V2
   \   000082   12....       LCALL     ?PUSH_XSTACK_I_ONE
   \   000085   7401         MOV       A,#0x1
   \   000087   12....       LCALL     ?XSTACK_DISP100_8
   \   00008A   88..         MOV       ?V2,R0
   \   00008C   89..         MOV       ?V3,R1
   \   00008E   78..         MOV       R0,#?V2
   \   000090   12....       LCALL     ?PUSH_XSTACK_I_TWO
   \   000093   AC..         MOV       R4,?V0
   \   000095   AD..         MOV       R5,?V1
   \   000097   EE           MOV       A,R6
   \   000098   2402         ADD       A,#0x2
   \   00009A   FA           MOV       R2,A
   \   00009B   E4           CLR       A
   \   00009C   3F           ADDC      A,R7
   \   00009D   FB           MOV       R3,A
   \   00009E   EE           MOV       A,R6
   \   00009F   240F         ADD       A,#0xf
   \   0000A1   F582         MOV       DPL,A
   \   0000A3   E4           CLR       A
   \   0000A4   3F           ADDC      A,R7
   \   0000A5   F583         MOV       DPH,A
   \   0000A7   E0           MOVX      A,@DPTR
   \   0000A8   F9           MOV       R1,A
   \   0000A9   12....       LCALL     `??ZDP_UserDescRsp::?relay`; Banked call to: ZDP_UserDescRsp
   \   0000AC   7403         MOV       A,#0x3
   \   0000AE   12....       LCALL     ?DEALLOC_XSTACK8
   \   0000B1   E9           MOV       A,R1
   \   0000B2   8038         SJMP      ??ZDO_ProcessUserDescReq_2
   2036            }
   2037            else
   2038            {
   2039              ZDP_GenericRsp(inMsg->TransSeq, &(inMsg->srcAddr),
   2040                     ZDP_NOT_SUPPORTED, aoi, User_Desc_rsp, inMsg->SecurityUse );
   \                     ??ZDO_ProcessUserDescReq_1:
   \   0000B4                ; Setup parameters for call to function ZDP_GenericRsp
   \   0000B4   75..11       MOV       ?V2,#0x11
   \   0000B7   75..80       MOV       ?V3,#-0x80
   \   0000BA   78..         MOV       R0,#?V2
   \   0000BC   12....       LCALL     ?PUSH_XSTACK_I_TWO
   \   0000BF   78..         MOV       R0,#?V0
   \   0000C1   12....       LCALL     ?PUSH_XSTACK_I_TWO
   \   0000C4   EE           MOV       A,R6
   \   0000C5   240E         ADD       A,#0xe
   \   0000C7   F582         MOV       DPL,A
   \   0000C9   E4           CLR       A
   \   0000CA   3F           ADDC      A,R7
   \   0000CB   F583         MOV       DPH,A
   \   0000CD   E0           MOVX      A,@DPTR
   \   0000CE   FD           MOV       R5,A
   \   0000CF   7C84         MOV       R4,#-0x7c
   \   0000D1   EE           MOV       A,R6
   \   0000D2   2402         ADD       A,#0x2
   \   0000D4   FA           MOV       R2,A
   \   0000D5   E4           CLR       A
   \   0000D6   3F           ADDC      A,R7
   \   0000D7   FB           MOV       R3,A
   \   0000D8   EE           MOV       A,R6
   \   0000D9   240F         ADD       A,#0xf
   \   0000DB   F582         MOV       DPL,A
   \   0000DD   E4           CLR       A
   \   0000DE   3F           ADDC      A,R7
   \   0000DF   F583         MOV       DPH,A
   \   0000E1   E0           MOVX      A,@DPTR
   \   0000E2   F9           MOV       R1,A
   \   0000E3   12....       LCALL     `??ZDP_GenericRsp::?relay`; Banked call to: ZDP_GenericRsp
   \   0000E6   7404         MOV       A,#0x4
   \   0000E8   12....       LCALL     ?DEALLOC_XSTACK8
   \   0000EB   E9           MOV       A,R1
   2041            }
   2042          }
   \                     ??ZDO_ProcessUserDescReq_2:
   \   0000EC   7411         MOV       A,#0x11
   \   0000EE   12....       LCALL     ?DEALLOC_XSTACK8
   \   0000F1   7F04         MOV       R7,#0x4
   \   0000F3   02....       LJMP      ?BANKED_LEAVE_XDATA
   2043          
   2044          /*********************************************************************
   2045           * @fn          ZDO_ProcessUserDescSet
   2046           *
   2047           * @brief       This function finishes the processing of the User
   2048           *              Descriptor Set and generates the response.
   2049           *
   2050           * @param       inMsg - incoming message (request)
   2051           *
   2052           * @return      none
   2053           */

   \                                 In  segment BANKED_CODE, align 1, keep-with-next
   2054          void ZDO_ProcessUserDescSet( zdoIncomingMsg_t *inMsg )
   \                     ZDO_ProcessUserDescSet:
   2055          {
   \   000000                REQUIRE ?V0
   \   000000                REQUIRE ?V1
   \   000000                REQUIRE ?V2
   \   000000                REQUIRE ?V3
   \   000000                REQUIRE ?V4
   \   000000                REQUIRE ?V5
   \   000000                REQUIRE ?V6
   \   000000                REQUIRE ?V8
   \   000000                REQUIRE ?V9
   \   000000   74EE         MOV       A,#-0x12
   \   000002   12....       LCALL     ?BANKED_ENTER_XDATA
   \   000005                ; Saved register size: 18
   \   000005                ; Auto size: 21
   \   000005   74EB         MOV       A,#-0x15
   \   000007   12....       LCALL     ?ALLOC_XSTACK8
   \   00000A   8A..         MOV       ?V8,R2
   \   00000C   8B..         MOV       ?V9,R3
   2056            uint8 *msg;
   2057            uint16 aoi;
   2058            UserDescriptorFormat_t userDesc;
   2059            uint8 outMsg[3];
   2060            uint8 status;
   2061          
   2062            msg = inMsg->asdu;
   \   00000E   E5..         MOV       A,?V8
   \   000010   2413         ADD       A,#0x13
   \   000012   F582         MOV       DPL,A
   \   000014   E4           CLR       A
   \   000015   35..         ADDC      A,?V9
   \   000017   F583         MOV       DPH,A
   \   000019   E0           MOVX      A,@DPTR
   \   00001A   F8           MOV       R0,A
   \   00001B   A3           INC       DPTR
   \   00001C   E0           MOVX      A,@DPTR
   \   00001D   F9           MOV       R1,A
   \   00001E   88..         MOV       ?V0,R0
   \   000020   89..         MOV       ?V1,R1
   2063            aoi = BUILD_UINT16( msg[0], msg[1] );
   \   000022   85..82       MOV       DPL,?V0
   \   000025   85..83       MOV       DPH,?V1
   \   000028   E0           MOVX      A,@DPTR
   \   000029   FA           MOV       R2,A
   \   00002A   7B00         MOV       R3,#0x0
   \   00002C   85..82       MOV       DPL,?V0
   \   00002F   85..83       MOV       DPH,?V1
   \   000032   A3           INC       DPTR
   \   000033   E0           MOVX      A,@DPTR
   \   000034   F8           MOV       R0,A
   \   000035   7900         MOV       R1,#0x0
   \   000037   E4           CLR       A
   \   000038   C8           XCH       A,R0
   \   000039   F9           MOV       R1,A
   \   00003A   EA           MOV       A,R2
   \   00003B   28           ADD       A,R0
   \   00003C   F8           MOV       R0,A
   \   00003D   EB           MOV       A,R3
   \   00003E   39           ADDC      A,R1
   \   00003F   F9           MOV       R1,A
   \   000040   E8           MOV       A,R0
   \   000041   FE           MOV       R6,A
   \   000042   E9           MOV       A,R1
   \   000043   FF           MOV       R7,A
   2064          
   2065            if ( aoi == ZDAppNwkAddr.addr.shortAddr )
   \   000044   90....       MOV       DPTR,#ZDAppNwkAddr
   \   000047   E0           MOVX      A,@DPTR
   \   000048   6E           XRL       A,R6
   \   000049   7003         JNZ       ??ZDO_ProcessUserDescSet_0
   \   00004B   A3           INC       DPTR
   \   00004C   E0           MOVX      A,@DPTR
   \   00004D   6F           XRL       A,R7
   \                     ??ZDO_ProcessUserDescSet_0:
   \   00004E   6003         JZ        $+5
   \   000050   02....       LJMP      ??ZDO_ProcessUserDescSet_1 & 0xFFFF
   2066            {
   2067              userDesc.len = (msg[2] < AF_MAX_USER_DESCRIPTOR_LEN) ? msg[2] : AF_MAX_USER_DESCRIPTOR_LEN;
   \   000053   85..82       MOV       DPL,?V0
   \   000056   85..83       MOV       DPH,?V1
   \   000059   A3           INC       DPTR
   \   00005A   A3           INC       DPTR
   \   00005B   E0           MOVX      A,@DPTR
   \   00005C   C3           CLR       C
   \   00005D   9410         SUBB      A,#0x10
   \   00005F   5016         JNC       ??ZDO_ProcessUserDescSet_2
   \   000061   85..82       MOV       DPL,?V0
   \   000064   85..83       MOV       DPH,?V1
   \   000067   A3           INC       DPTR
   \   000068   A3           INC       DPTR
   \   000069   E0           MOVX      A,@DPTR
   \   00006A   C0E0         PUSH      A
   \   00006C   85..82       MOV       DPL,?XSP + 0
   \   00006F   85..83       MOV       DPH,?XSP + 1
   \   000072   D0E0         POP       A
   \   000074   F0           MOVX      @DPTR,A
   \   000075   8009         SJMP      ??ZDO_ProcessUserDescSet_3
   \                     ??ZDO_ProcessUserDescSet_2:
   \   000077   85..82       MOV       DPL,?XSP + 0
   \   00007A   85..83       MOV       DPH,?XSP + 1
   \   00007D   7410         MOV       A,#0x10
   \   00007F   F0           MOVX      @DPTR,A
   \                     ??ZDO_ProcessUserDescSet_3:
   \   000080   85..82       MOV       DPL,?XSP + 0
   \   000083   85..83       MOV       DPH,?XSP + 1
   \   000086   E0           MOVX      A,@DPTR
   \   000087   C0E0         PUSH      A
   \   000089   7404         MOV       A,#0x4
   \   00008B   12....       LCALL     ?XSTACK_DISP0_8
   \   00008E   D0E0         POP       A
   \   000090   F0           MOVX      @DPTR,A
   2068              msg ++;  // increment one for the length field
   \   000091   85..82       MOV       DPL,?V0
   \   000094   85..83       MOV       DPH,?V1
   \   000097   A3           INC       DPTR
   \   000098   8582..       MOV       ?V0,DPL
   \   00009B   8583..       MOV       ?V1,DPH
   2069          
   2070              osal_memcpy( userDesc.desc, &msg[2], userDesc.len );
   \   00009E                ; Setup parameters for call to function osal_memcpy
   \   00009E   85..82       MOV       DPL,?V0
   \   0000A1   85..83       MOV       DPH,?V1
   \   0000A4   A3           INC       DPTR
   \   0000A5   A3           INC       DPTR
   \   0000A6   A982         MOV       R1,DPL
   \   0000A8   AA83         MOV       R2,DPH
   \   0000AA   7B00         MOV       R3,#0x0
   \   0000AC   89..         MOV       ?V4,R1
   \   0000AE   8A..         MOV       ?V5,R2
   \   0000B0   8B..         MOV       ?V6,R3
   \   0000B2   78..         MOV       R0,#?V4
   \   0000B4   12....       LCALL     ?PUSH_XSTACK_I_THREE
   \   0000B7   7407         MOV       A,#0x7
   \   0000B9   12....       LCALL     ?XSTACK_DISP0_8
   \   0000BC   E0           MOVX      A,@DPTR
   \   0000BD   FC           MOV       R4,A
   \   0000BE   7D00         MOV       R5,#0x0
   \   0000C0   7408         MOV       A,#0x8
   \   0000C2   12....       LCALL     ?XSTACK_DISP0_8
   \   0000C5   AA82         MOV       R2,DPL
   \   0000C7   AB83         MOV       R3,DPH
   \   0000C9   12....       LCALL     `??osal_memcpy::?relay`; Banked call to: osal_memcpy
   \   0000CC   7403         MOV       A,#0x3
   \   0000CE   12....       LCALL     ?DEALLOC_XSTACK8
   2071              osal_nv_write( ZCD_NV_USERDESC, 0, sizeof(UserDescriptorFormat_t), &userDesc );
   \   0000D1                ; Setup parameters for call to function osal_nv_write
   \   0000D1   7404         MOV       A,#0x4
   \   0000D3   12....       LCALL     ?XSTACK_DISP100_8
   \   0000D6   88..         MOV       ?V4,R0
   \   0000D8   89..         MOV       ?V5,R1
   \   0000DA   78..         MOV       R0,#?V4
   \   0000DC   12....       LCALL     ?PUSH_XSTACK_I_TWO
   \   0000DF   75..11       MOV       ?V4,#0x11
   \   0000E2   75..00       MOV       ?V5,#0x0
   \   0000E5   78..         MOV       R0,#?V4
   \   0000E7   12....       LCALL     ?PUSH_XSTACK_I_TWO
   \   0000EA   7C00         MOV       R4,#0x0
   \   0000EC   7D00         MOV       R5,#0x0
   \   0000EE   7A81         MOV       R2,#-0x7f
   \   0000F0   7B00         MOV       R3,#0x0
   \   0000F2   12....       LCALL     `??osal_nv_write::?relay`; Banked call to: osal_nv_write
   \   0000F5   7404         MOV       A,#0x4
   \   0000F7   12....       LCALL     ?DEALLOC_XSTACK8
   \   0000FA   E9           MOV       A,R1
   2072              if ( userDesc.len != 0 )
   \   0000FB   7404         MOV       A,#0x4
   \   0000FD   12....       LCALL     ?XSTACK_DISP0_8
   \   000100   E0           MOVX      A,@DPTR
   \   000101   6009         JZ        ??ZDO_ProcessUserDescSet_4
   2073              {
   2074                ZDO_Config_Node_Descriptor.UserDescAvail = TRUE;
   \   000103   90....       MOV       DPTR,#ZDO_Config_Node_Descriptor
   \   000106   E0           MOVX      A,@DPTR
   \   000107   D2E4         SETB      0xE0 /* A   */.4
   \   000109   F0           MOVX      @DPTR,A
   \   00010A   8007         SJMP      ??ZDO_ProcessUserDescSet_5
   2075              }
   2076              else
   2077              {
   2078                ZDO_Config_Node_Descriptor.UserDescAvail = FALSE;
   \                     ??ZDO_ProcessUserDescSet_4:
   \   00010C   90....       MOV       DPTR,#ZDO_Config_Node_Descriptor
   \   00010F   E0           MOVX      A,@DPTR
   \   000110   C2E4         CLR       0xE0 /* A   */.4
   \   000112   F0           MOVX      @DPTR,A
   2079              }
   2080          
   2081              status = ZDP_SUCCESS;
   \                     ??ZDO_ProcessUserDescSet_5:
   \   000113   75..00       MOV       ?V2,#0x0
   \   000116   8003         SJMP      ??ZDO_ProcessUserDescSet_6
   2082            }
   2083            else
   2084            {
   2085              status =  ZDP_NOT_SUPPORTED;
   \                     ??ZDO_ProcessUserDescSet_1:
   \   000118   75..84       MOV       ?V2,#-0x7c
   2086            }
   2087          
   2088            outMsg[0] = status;
   \                     ??ZDO_ProcessUserDescSet_6:
   \   00011B   E5..         MOV       A,?V2
   \   00011D   C0E0         PUSH      A
   \   00011F   7401         MOV       A,#0x1
   \   000121   12....       LCALL     ?XSTACK_DISP0_8
   \   000124   D0E0         POP       A
   \   000126   F0           MOVX      @DPTR,A
   2089            outMsg[1] = LO_UINT16( aoi );
   \   000127   EE           MOV       A,R6
   \   000128   C0E0         PUSH      A
   \   00012A   7402         MOV       A,#0x2
   \   00012C   12....       LCALL     ?XSTACK_DISP0_8
   \   00012F   D0E0         POP       A
   \   000131   F0           MOVX      @DPTR,A
   2090            outMsg[2] = LO_UINT16( aoi );
   \   000132   EE           MOV       A,R6
   \   000133   C0E0         PUSH      A
   \   000135   7403         MOV       A,#0x3
   \   000137   12....       LCALL     ?XSTACK_DISP0_8
   \   00013A   D0E0         POP       A
   \   00013C   F0           MOVX      @DPTR,A
   2091          
   2092            ZDP_SendData( &(inMsg->TransSeq), &(inMsg->srcAddr), User_Desc_conf, 3, outMsg,
   2093                         inMsg->SecurityUse );
   \   00013D                ; Setup parameters for call to function ZDP_SendData
   \   00013D   E5..         MOV       A,?V8
   \   00013F   240E         ADD       A,#0xe
   \   000141   F582         MOV       DPL,A
   \   000143   E4           CLR       A
   \   000144   35..         ADDC      A,?V9
   \   000146   F583         MOV       DPH,A
   \   000148   E0           MOVX      A,@DPTR
   \   000149   F5..         MOV       ?V3,A
   \   00014B   78..         MOV       R0,#?V3
   \   00014D   12....       LCALL     ?PUSH_XSTACK_I_ONE
   \   000150   7402         MOV       A,#0x2
   \   000152   12....       LCALL     ?XSTACK_DISP100_8
   \   000155   88..         MOV       ?V4,R0
   \   000157   89..         MOV       ?V5,R1
   \   000159   78..         MOV       R0,#?V4
   \   00015B   12....       LCALL     ?PUSH_XSTACK_I_TWO
   \   00015E   75..14       MOV       ?V4,#0x14
   \   000161   75..80       MOV       ?V5,#-0x80
   \   000164   78..         MOV       R0,#?V4
   \   000166   12....       LCALL     ?PUSH_XSTACK_I_TWO
   \   000169   7903         MOV       R1,#0x3
   \   00016B   E5..         MOV       A,?V8
   \   00016D   2402         ADD       A,#0x2
   \   00016F   FC           MOV       R4,A
   \   000170   E4           CLR       A
   \   000171   35..         ADDC      A,?V9
   \   000173   FD           MOV       R5,A
   \   000174   E5..         MOV       A,?V8
   \   000176   240F         ADD       A,#0xf
   \   000178   FA           MOV       R2,A
   \   000179   E4           CLR       A
   \   00017A   35..         ADDC      A,?V9
   \   00017C   FB           MOV       R3,A
   \   00017D   12....       LCALL     `??ZDP_SendData::?relay`; Banked call to: ZDP_SendData
   \   000180   7405         MOV       A,#0x5
   \   000182   12....       LCALL     ?DEALLOC_XSTACK8
   \   000185   E9           MOV       A,R1
   2094          }
   \   000186   7415         MOV       A,#0x15
   \   000188   12....       LCALL     ?DEALLOC_XSTACK8
   \   00018B   7F0A         MOV       R7,#0xa
   \   00018D   02....       LJMP      ?BANKED_LEAVE_XDATA
   2095          
   2096          /*********************************************************************
   2097           * @fn          ZDO_ProcessDeviceAnnce
   2098           *
   2099           * @brief       This function processes a device annouce message.
   2100           *
   2101           * @param       inMsg - incoming message
   2102           *
   2103           * @return      none
   2104           */

   \                                 In  segment BANKED_CODE, align 1, keep-with-next
   2105          void ZDO_ProcessDeviceAnnce( zdoIncomingMsg_t *inMsg )
   \                     ZDO_ProcessDeviceAnnce:
   2106          {
   \   000000                REQUIRE ?V0
   \   000000                REQUIRE ?V1
   \   000000   74F6         MOV       A,#-0xa
   \   000002   12....       LCALL     ?BANKED_ENTER_XDATA
   \   000005                ; Saved register size: 10
   \   000005                ; Auto size: 32
   \   000005   74E0         MOV       A,#-0x20
   \   000007   12....       LCALL     ?ALLOC_XSTACK8
   \   00000A   EA           MOV       A,R2
   \   00000B   FE           MOV       R6,A
   \   00000C   EB           MOV       A,R3
   \   00000D   FF           MOV       R7,A
   2107            ZDO_DeviceAnnce_t Annce;
   2108            AddrMgrEntry_t addrEntry;
   2109            uint8 parentExt[Z_EXTADDR_LEN];
   2110          #if !defined (DISABLE_GREENPOWER_BASIC_PROXY) && (ZG_BUILD_RTR_TYPE)
   2111            uint8 invalidIEEE[Z_EXTADDR_LEN] = {0xFF, 0xFF, 0xFF, 0xFF, 0xFF, 0xFF, 0xFF, 0xFF};
   2112          #endif
   2113          
   2114            if ( (_NIB.nwkState != NWK_ROUTER) && (_NIB.nwkState != NWK_ENDDEVICE) )
   \   00000E   90....       MOV       DPTR,#_NIB + 35
   \   000011   E0           MOVX      A,@DPTR
   \   000012   6408         XRL       A,#0x8
   \   000014   600B         JZ        ??ZDO_ProcessDeviceAnnce_0
   \   000016   90....       MOV       DPTR,#_NIB + 35
   \   000019   E0           MOVX      A,@DPTR
   \   00001A   6404         XRL       A,#0x4
   \   00001C   6003         JZ        $+5
   \   00001E   02....       LJMP      ??ZDO_ProcessDeviceAnnce_1 & 0xFFFF
   2115            {
   2116              // we arent stable, ignore the message
   2117              return;
   2118            }
   2119            
   2120            // Parse incoming message
   2121            ZDO_ParseDeviceAnnce( inMsg, &Annce );
   \                     ??ZDO_ProcessDeviceAnnce_0:
   \   000021                ; Setup parameters for call to function ZDO_ParseDeviceAnnce
   \   000021   AC..         MOV       R4,?XSP + 0
   \   000023   AD..         MOV       R5,?XSP + 1
   \   000025   EE           MOV       A,R6
   \   000026   FA           MOV       R2,A
   \   000027   EF           MOV       A,R7
   \   000028   FB           MOV       R3,A
   \   000029   12....       LCALL     `??ZDO_ParseDeviceAnnce::?relay`; Banked call to: ZDO_ParseDeviceAnnce
   2122          
   2123            if ( ZSTACK_END_DEVICE_BUILD )
   2124            {
   2125              // Make sure the message didn't come from myself - end device only
   2126              if ( osal_ExtAddrEqual( NLME_GetExtAddr(), Annce.extAddr ) && Annce.nwkAddr == NLME_GetShortAddr() )
   \   00002C                ; Setup parameters for call to function NLME_GetExtAddr
   \   00002C   12....       LCALL     `??NLME_GetExtAddr::?relay`; Banked call to: NLME_GetExtAddr
   \   00002F   8A..         MOV       ?V0,R2
   \   000031   8B..         MOV       ?V1,R3
   \   000033   AA..         MOV       R2,?V0
   \   000035   AB..         MOV       R3,?V1
   \   000037                ; Setup parameters for call to function sAddrExtCmp
   \   000037   7402         MOV       A,#0x2
   \   000039   12....       LCALL     ?XSTACK_DISP0_8
   \   00003C   AC82         MOV       R4,DPL
   \   00003E   AD83         MOV       R5,DPH
   \   000040   12....       LCALL     `??sAddrExtCmp::?relay`; Banked call to: sAddrExtCmp
   \   000043   E9           MOV       A,R1
   \   000044   601D         JZ        ??ZDO_ProcessDeviceAnnce_2
   \   000046                ; Setup parameters for call to function NLME_GetShortAddr
   \   000046   12....       LCALL     `??NLME_GetShortAddr::?relay`; Banked call to: NLME_GetShortAddr
   \   000049   8A..         MOV       ?V0,R2
   \   00004B   8B..         MOV       ?V1,R3
   \   00004D   A8..         MOV       R0,?V0
   \   00004F   A9..         MOV       R1,?V1
   \   000051   85..82       MOV       DPL,?XSP + 0
   \   000054   85..83       MOV       DPH,?XSP + 1
   \   000057   E0           MOVX      A,@DPTR
   \   000058   68           XRL       A,R0
   \   000059   7003         JNZ       ??ZDO_ProcessDeviceAnnce_3
   \   00005B   A3           INC       DPTR
   \   00005C   E0           MOVX      A,@DPTR
   \   00005D   69           XRL       A,R1
   \                     ??ZDO_ProcessDeviceAnnce_3:
   \   00005E   7003         JNZ       $+5
   \   000060   02....       LJMP      ??ZDO_ProcessDeviceAnnce_1 & 0xFFFF
   2127              {
   2128                return;
   2129              }
   2130            }
   2131          
   2132          #if defined ( ZIGBEEPRO )
   2133            // Clean up the neighbor table
   2134            nwkNeighborRemoveAllStranded();
   \                     ??ZDO_ProcessDeviceAnnce_2:
   \   000063                ; Setup parameters for call to function nwkNeighborRemoveAllStranded
   \   000063   12....       LCALL     `??nwkNeighborRemoveAllStranded::?relay`; Banked call to: nwkNeighborRemoveAllStranded
   2135          
   2136            // If address conflict is detected, no need to update the address manager
   2137            if ( NLME_CheckNewAddrSet( Annce.nwkAddr, Annce.extAddr )== ZFailure )
   \   000066                ; Setup parameters for call to function NLME_CheckNewAddrSet
   \   000066   7402         MOV       A,#0x2
   \   000068   12....       LCALL     ?XSTACK_DISP0_8
   \   00006B   AC82         MOV       R4,DPL
   \   00006D   AD83         MOV       R5,DPH
   \   00006F   85..82       MOV       DPL,?XSP + 0
   \   000072   85..83       MOV       DPH,?XSP + 1
   \   000075   E0           MOVX      A,@DPTR
   \   000076   FA           MOV       R2,A
   \   000077   A3           INC       DPTR
   \   000078   E0           MOVX      A,@DPTR
   \   000079   FB           MOV       R3,A
   \   00007A   12....       LCALL     `??NLME_CheckNewAddrSet::?relay`; Banked call to: NLME_CheckNewAddrSet
   \   00007D   E9           MOV       A,R1
   \   00007E   6401         XRL       A,#0x1
   \   000080   7003         JNZ       $+5
   \   000082   02....       LJMP      ??ZDO_ProcessDeviceAnnce_1 & 0xFFFF
   2138            {
   2139              return;
   2140            }
   2141          
   2142            // Check for parent's address
   2143            NLME_GetCoordExtAddr( parentExt );
   \   000085                ; Setup parameters for call to function NLME_GetCoordExtAddr
   \   000085   7418         MOV       A,#0x18
   \   000087   12....       LCALL     ?XSTACK_DISP101_8
   \   00008A   12....       LCALL     `??NLME_GetCoordExtAddr::?relay`; Banked call to: NLME_GetCoordExtAddr
   2144            if ( osal_ExtAddrEqual( parentExt, Annce.extAddr ) )
   \   00008D                ; Setup parameters for call to function sAddrExtCmp
   \   00008D   7402         MOV       A,#0x2
   \   00008F   12....       LCALL     ?XSTACK_DISP0_8
   \   000092   AC82         MOV       R4,DPL
   \   000094   AD83         MOV       R5,DPH
   \   000096   7418         MOV       A,#0x18
   \   000098   12....       LCALL     ?XSTACK_DISP101_8
   \   00009B   12....       LCALL     `??sAddrExtCmp::?relay`; Banked call to: sAddrExtCmp
   \   00009E   E9           MOV       A,R1
   \   00009F   6037         JZ        ??ZDO_ProcessDeviceAnnce_4
   2145            {
   2146              if ( Annce.nwkAddr != NLME_GetCoordShortAddr() )
   \   0000A1                ; Setup parameters for call to function NLME_GetCoordShortAddr
   \   0000A1   12....       LCALL     `??NLME_GetCoordShortAddr::?relay`; Banked call to: NLME_GetCoordShortAddr
   \   0000A4   8A..         MOV       ?V0,R2
   \   0000A6   8B..         MOV       ?V1,R3
   \   0000A8   A8..         MOV       R0,?V0
   \   0000AA   A9..         MOV       R1,?V1
   \   0000AC   85..82       MOV       DPL,?XSP + 0
   \   0000AF   85..83       MOV       DPH,?XSP + 1
   \   0000B2   E0           MOVX      A,@DPTR
   \   0000B3   68           XRL       A,R0
   \   0000B4   7003         JNZ       ??ZDO_ProcessDeviceAnnce_5
   \   0000B6   A3           INC       DPTR
   \   0000B7   E0           MOVX      A,@DPTR
   \   0000B8   69           XRL       A,R1
   \                     ??ZDO_ProcessDeviceAnnce_5:
   \   0000B9   601D         JZ        ??ZDO_ProcessDeviceAnnce_4
   2147              {
   2148                // Set the Parent's MAC's new short address
   2149                _NIB.nwkCoordAddress = Annce.nwkAddr;
   \   0000BB   85..82       MOV       DPL,?XSP + 0
   \   0000BE   85..83       MOV       DPH,?XSP + 1
   \   0000C1   E0           MOVX      A,@DPTR
   \   0000C2   F8           MOV       R0,A
   \   0000C3   A3           INC       DPTR
   \   0000C4   E0           MOVX      A,@DPTR
   \   0000C5   F9           MOV       R1,A
   \   0000C6   90....       MOV       DPTR,#_NIB + 23
   \   0000C9   E8           MOV       A,R0
   \   0000CA   F0           MOVX      @DPTR,A
   \   0000CB   A3           INC       DPTR
   \   0000CC   E9           MOV       A,R1
   \   0000CD   F0           MOVX      @DPTR,A
   2150                ZMacSetReq( ZMacCoordShortAddress, (byte*)&(_NIB.nwkCoordAddress) );
   \   0000CE                ; Setup parameters for call to function ZMacSetReq
   \   0000CE   7A..         MOV       R2,#(_NIB + 23) & 0xff
   \   0000D0   7B..         MOV       R3,#((_NIB + 23) >> 8) & 0xff
   \   0000D2   794B         MOV       R1,#0x4b
   \   0000D4   12....       LCALL     `??ZMacSetReq::?relay`; Banked call to: ZMacSetReq
   \   0000D7   E9           MOV       A,R1
   2151              }
   2152            }
   2153          
   2154            if ( ZSTACK_ROUTER_BUILD )
   2155            {
   2156              // If the device annce comes from a end device child that has moved
   2157              // to another parent, remove it from associated device list
   2158          
   2159              // If the dev annce is coming from other device's children,
   2160              // (The dev annce from its own children shall be unicast to itself,
   2161              // So check the mac destination address)
   2162              // Remove it from the associated device list. If it is not
   2163              // a child, no action will be taken in AssocRemove() anyway.
   2164              if ( inMsg->macDestAddr != NLME_GetShortAddr() )
   2165              {
   2166                associated_devices_t *dev_ptr;
   2167          
   2168                // If it's an end device child
   2169                dev_ptr = AssocGetWithExt( Annce.extAddr );
   2170                if ( dev_ptr )
   2171                {
   2172                  if ( dev_ptr->nodeRelation == CHILD_RFD ||
   2173                       dev_ptr->nodeRelation == CHILD_RFD_RX_IDLE )
   2174                  {
   2175                    AssocRemove( Annce.extAddr );
   2176                  }
   2177                }
   2178          
   2179                // Remove the address from the SrcMatch table,
   2180                // just in case the device was aged out by Child Management Table process
   2181                if ( ( pNwkNotMyChildListDelete != NULL ) &&
   2182                     ( zgChildAgingEnable == TRUE ) )
   2183                {
   2184                  pNwkNotMyChildListDelete( Annce.nwkAddr );
   2185                }
   2186              }
   2187            }
   2188          
   2189            // Assume that the device has moved, remove existing routing entries
   2190            RTG_RemoveRtgEntry( Annce.nwkAddr, 0 );
   \                     ??ZDO_ProcessDeviceAnnce_4:
   \   0000D8                ; Setup parameters for call to function RTG_RemoveRtgEntry
   \   0000D8   7900         MOV       R1,#0x0
   \   0000DA   85..82       MOV       DPL,?XSP + 0
   \   0000DD   85..83       MOV       DPH,?XSP + 1
   \   0000E0   E0           MOVX      A,@DPTR
   \   0000E1   FA           MOV       R2,A
   \   0000E2   A3           INC       DPTR
   \   0000E3   E0           MOVX      A,@DPTR
   \   0000E4   FB           MOV       R3,A
   \   0000E5   12....       LCALL     `??RTG_RemoveRtgEntry::?relay`; Banked call to: RTG_RemoveRtgEntry
   \   0000E8   E9           MOV       A,R1
   2191          
   2192            // Remove entry from neighborTable
   2193            nwkNeighborRemove( Annce.nwkAddr, _NIB.nwkPanId );
   \   0000E9                ; Setup parameters for call to function nwkNeighborRemove
   \   0000E9   90....       MOV       DPTR,#_NIB + 33
   \   0000EC   E0           MOVX      A,@DPTR
   \   0000ED   FC           MOV       R4,A
   \   0000EE   A3           INC       DPTR
   \   0000EF   E0           MOVX      A,@DPTR
   \   0000F0   FD           MOV       R5,A
   \   0000F1   85..82       MOV       DPL,?XSP + 0
   \   0000F4   85..83       MOV       DPH,?XSP + 1
   \   0000F7   E0           MOVX      A,@DPTR
   \   0000F8   FA           MOV       R2,A
   \   0000F9   A3           INC       DPTR
   \   0000FA   E0           MOVX      A,@DPTR
   \   0000FB   FB           MOV       R3,A
   \   0000FC   12....       LCALL     `??nwkNeighborRemove::?relay`; Banked call to: nwkNeighborRemove
   2194          
   2195          #endif // ZIGBEEPRO
   2196          
   2197            // Fill in the extended address in address manager if we don't have it already.
   2198            addrEntry.user = ADDRMGR_USER_DEFAULT;
   \   0000FF   740B         MOV       A,#0xb
   \   000101   12....       LCALL     ?XSTACK_DISP0_8
   \   000104   7400         MOV       A,#0x0
   \   000106   F0           MOVX      @DPTR,A
   2199            addrEntry.nwkAddr = Annce.nwkAddr;
   \   000107   85..82       MOV       DPL,?XSP + 0
   \   00010A   85..83       MOV       DPH,?XSP + 1
   \   00010D   E0           MOVX      A,@DPTR
   \   00010E   F8           MOV       R0,A
   \   00010F   A3           INC       DPTR
   \   000110   E0           MOVX      A,@DPTR
   \   000111   F9           MOV       R1,A
   \   000112   740C         MOV       A,#0xc
   \   000114   12....       LCALL     ?XSTACK_DISP0_8
   \   000117   E8           MOV       A,R0
   \   000118   F0           MOVX      @DPTR,A
   \   000119   A3           INC       DPTR
   \   00011A   E9           MOV       A,R1
   \   00011B   F0           MOVX      @DPTR,A
   2200            if ( AddrMgrEntryLookupNwk( &addrEntry ) )
   \   00011C                ; Setup parameters for call to function AddrMgrEntryLookupNwk
   \   00011C   740B         MOV       A,#0xb
   \   00011E   12....       LCALL     ?XSTACK_DISP101_8
   \   000121   12....       LCALL     `??AddrMgrEntryLookupNwk::?relay`; Banked call to: AddrMgrEntryLookupNwk
   \   000124   E9           MOV       A,R1
   \   000125   6040         JZ        ??ZDO_ProcessDeviceAnnce_6
   2201            {
   2202              osal_memset( parentExt, 0, Z_EXTADDR_LEN );
   \   000127                ; Setup parameters for call to function osal_memset
   \   000127   7C08         MOV       R4,#0x8
   \   000129   7D00         MOV       R5,#0x0
   \   00012B   7900         MOV       R1,#0x0
   \   00012D   7418         MOV       A,#0x18
   \   00012F   12....       LCALL     ?XSTACK_DISP101_8
   \   000132   12....       LCALL     `??osal_memset::?relay`; Banked call to: osal_memset
   2203              if ( osal_ExtAddrEqual( parentExt, addrEntry.extAddr ) )
   \   000135                ; Setup parameters for call to function sAddrExtCmp
   \   000135   740E         MOV       A,#0xe
   \   000137   12....       LCALL     ?XSTACK_DISP0_8
   \   00013A   AC82         MOV       R4,DPL
   \   00013C   AD83         MOV       R5,DPH
   \   00013E   7418         MOV       A,#0x18
   \   000140   12....       LCALL     ?XSTACK_DISP101_8
   \   000143   12....       LCALL     `??sAddrExtCmp::?relay`; Banked call to: sAddrExtCmp
   \   000146   E9           MOV       A,R1
   \   000147   601E         JZ        ??ZDO_ProcessDeviceAnnce_6
   2204              {
   2205                AddrMgrExtAddrSet( addrEntry.extAddr, Annce.extAddr );
   \   000149                ; Setup parameters for call to function AddrMgrExtAddrSet
   \   000149   7402         MOV       A,#0x2
   \   00014B   12....       LCALL     ?XSTACK_DISP0_8
   \   00014E   AC82         MOV       R4,DPL
   \   000150   AD83         MOV       R5,DPH
   \   000152   740E         MOV       A,#0xe
   \   000154   12....       LCALL     ?XSTACK_DISP0_8
   \   000157   AA82         MOV       R2,DPL
   \   000159   AB83         MOV       R3,DPH
   \   00015B   12....       LCALL     `??AddrMgrExtAddrSet::?relay`; Banked call to: AddrMgrExtAddrSet
   2206                AddrMgrEntryUpdate( &addrEntry );
   \   00015E                ; Setup parameters for call to function AddrMgrEntryUpdate
   \   00015E   740B         MOV       A,#0xb
   \   000160   12....       LCALL     ?XSTACK_DISP101_8
   \   000163   12....       LCALL     `??AddrMgrEntryUpdate::?relay`; Banked call to: AddrMgrEntryUpdate
   \   000166   E9           MOV       A,R1
   2207              }
   2208            }
   2209          
   2210            // Update the short address in address manager if it's been changed
   2211            AddrMgrExtAddrSet( addrEntry.extAddr, Annce.extAddr );
   \                     ??ZDO_ProcessDeviceAnnce_6:
   \   000167                ; Setup parameters for call to function AddrMgrExtAddrSet
   \   000167   7402         MOV       A,#0x2
   \   000169   12....       LCALL     ?XSTACK_DISP0_8
   \   00016C   AC82         MOV       R4,DPL
   \   00016E   AD83         MOV       R5,DPH
   \   000170   740E         MOV       A,#0xe
   \   000172   12....       LCALL     ?XSTACK_DISP0_8
   \   000175   AA82         MOV       R2,DPL
   \   000177   AB83         MOV       R3,DPH
   \   000179   12....       LCALL     `??AddrMgrExtAddrSet::?relay`; Banked call to: AddrMgrExtAddrSet
   2212            if ( AddrMgrEntryLookupExt( &addrEntry ) )
   \   00017C                ; Setup parameters for call to function AddrMgrEntryLookupExt
   \   00017C   740B         MOV       A,#0xb
   \   00017E   12....       LCALL     ?XSTACK_DISP101_8
   \   000181   12....       LCALL     `??AddrMgrEntryLookupExt::?relay`; Banked call to: AddrMgrEntryLookupExt
   \   000184   E9           MOV       A,R1
   \   000185   6037         JZ        ??ZDO_ProcessDeviceAnnce_1
   2213            {
   2214              if ( addrEntry.nwkAddr != Annce.nwkAddr )
   \   000187   740C         MOV       A,#0xc
   \   000189   12....       LCALL     ?XSTACK_DISP0_8
   \   00018C   E0           MOVX      A,@DPTR
   \   00018D   F8           MOV       R0,A
   \   00018E   A3           INC       DPTR
   \   00018F   E0           MOVX      A,@DPTR
   \   000190   F9           MOV       R1,A
   \   000191   85..82       MOV       DPL,?XSP + 0
   \   000194   85..83       MOV       DPH,?XSP + 1
   \   000197   E0           MOVX      A,@DPTR
   \   000198   68           XRL       A,R0
   \   000199   7003         JNZ       ??ZDO_ProcessDeviceAnnce_7
   \   00019B   A3           INC       DPTR
   \   00019C   E0           MOVX      A,@DPTR
   \   00019D   69           XRL       A,R1
   \                     ??ZDO_ProcessDeviceAnnce_7:
   \   00019E   601E         JZ        ??ZDO_ProcessDeviceAnnce_1
   2215              {
   2216                addrEntry.nwkAddr = Annce.nwkAddr;
   \   0001A0   85..82       MOV       DPL,?XSP + 0
   \   0001A3   85..83       MOV       DPH,?XSP + 1
   \   0001A6   E0           MOVX      A,@DPTR
   \   0001A7   F8           MOV       R0,A
   \   0001A8   A3           INC       DPTR
   \   0001A9   E0           MOVX      A,@DPTR
   \   0001AA   F9           MOV       R1,A
   \   0001AB   740C         MOV       A,#0xc
   \   0001AD   12....       LCALL     ?XSTACK_DISP0_8
   \   0001B0   E8           MOV       A,R0
   \   0001B1   F0           MOVX      @DPTR,A
   \   0001B2   A3           INC       DPTR
   \   0001B3   E9           MOV       A,R1
   \   0001B4   F0           MOVX      @DPTR,A
   2217                AddrMgrEntryUpdate( &addrEntry );
   \   0001B5                ; Setup parameters for call to function AddrMgrEntryUpdate
   \   0001B5   740B         MOV       A,#0xb
   \   0001B7   12....       LCALL     ?XSTACK_DISP101_8
   \   0001BA   12....       LCALL     `??AddrMgrEntryUpdate::?relay`; Banked call to: AddrMgrEntryUpdate
   \   0001BD   E9           MOV       A,R1
   2218              }
   2219            }
   2220          
   2221          #if !defined (DISABLE_GREENPOWER_BASIC_PROXY) && (ZG_BUILD_RTR_TYPE)
   2222            if(ZG_DEVICE_RTR_TYPE)
   2223            {
   2224              uint32 timeout;
   2225              uint8 invalidAddr;
   2226              uint8 sameAnnce;
   2227              
   2228              timeout = osal_get_timeoutEx( gp_TaskID, GP_PROXY_ALIAS_CONFLICT_TIMEOUT );
   2229              invalidAddr = osal_memcmp( Annce.extAddr, invalidIEEE, Z_EXTADDR_LEN );
   2230              sameAnnce = osal_memcmp( &Annce, &GP_aliasConflictAnnce, sizeof( ZDO_DeviceAnnce_t ) );
   2231                  
   2232              // Check GP proxy table to update the entry if necesary
   2233              if( timeout && ( invalidAddr && sameAnnce ) )
   2234              {
   2235                osal_stop_timerEx( gp_TaskID, GP_PROXY_ALIAS_CONFLICT_TIMEOUT );
   2236              }
   2237              else if(GP_CheckAnnouncedDeviceGCB != NULL)
   2238              {
   2239                GP_CheckAnnouncedDeviceGCB( Annce.extAddr, Annce.nwkAddr );       
   2240              }
   2241            }
   2242          #endif
   2243          }
   \                     ??ZDO_ProcessDeviceAnnce_1:
   \   0001BE   7420         MOV       A,#0x20
   \   0001C0   12....       LCALL     ?DEALLOC_XSTACK8
   \   0001C3   7F02         MOV       R7,#0x2
   \   0001C5   02....       LJMP      ?BANKED_LEAVE_XDATA
   2244          
   2245          /*********************************************************************
   2246           * @fn          ZDO_ProcessParentAnnce
   2247           *
   2248           * @brief       This function processes a Parent annouce message.
   2249           *
   2250           * @param       inMsg - incoming message
   2251           *
   2252           * @return      none
   2253           */

   \                                 In  segment BANKED_CODE, align 1, keep-with-next
   2254          void ZDO_ProcessParentAnnce( zdoIncomingMsg_t *inMsg )
   \                     ZDO_ProcessParentAnnce:
   2255          {
   \   000000                REQUIRE ?V0
   \   000000                REQUIRE ?V1
   \   000000                REQUIRE ?V2
   \   000000                REQUIRE ?V3
   \   000000                REQUIRE ?V4
   \   000000                REQUIRE ?V5
   \   000000                REQUIRE ?V6
   \   000000                REQUIRE ?V7
   \   000000                REQUIRE ?V8
   \   000000                REQUIRE ?V9
   \   000000                REQUIRE ?V10
   \   000000                REQUIRE ?V11
   \   000000                REQUIRE ?V12
   \   000000                REQUIRE ?V13
   \   000000   74EA         MOV       A,#-0x16
   \   000002   12....       LCALL     ?BANKED_ENTER_XDATA
   \   000005                ; Saved register size: 22
   \   000005                ; Auto size: 9
   \   000005   74F7         MOV       A,#-0x9
   \   000007   12....       LCALL     ?ALLOC_XSTACK8
   \   00000A   8A..         MOV       ?V12,R2
   \   00000C   8B..         MOV       ?V13,R3
   2256            ZDO_ParentAnnce_t *parentAnnce;
   2257            uint8 x;
   2258            uint8 childCount = 0;
   \   00000E   75..00       MOV       ?V5,#0x0
   2259          
   2260            ZDO_ChildInfoList_t *listHead = NULL;
   \   000011   75..00       MOV       ?V0,#0x0
   \   000014   75..00       MOV       ?V1,#0x0
   2261            ZDO_ChildInfoList_t *listTail;
   2262            ZDO_ChildInfoList_t *newNode;
   2263          
   2264            // Parse incoming message, memory is allocated by the parse function,
   2265            // it should be free after processing the message
   2266            parentAnnce = ZDO_ParseParentAnnce( inMsg );
   \   000017                ; Setup parameters for call to function ZDO_ParseParentAnnce
   \   000017   AA..         MOV       R2,?V12
   \   000019   AB..         MOV       R3,?V13
   \   00001B   12....       LCALL     `??ZDO_ParseParentAnnce::?relay`; Banked call to: ZDO_ParseParentAnnce
   \   00001E   8A..         MOV       ?V2,R2
   \   000020   8B..         MOV       ?V3,R3
   \   000022   85....       MOV       ?V6,?V2
   \   000025   85....       MOV       ?V7,?V3
   2267          
   2268            if ( parentAnnce != NULL )
   \   000028   E5..         MOV       A,?V6
   \   00002A   45..         ORL       A,?V7
   \   00002C   7003         JNZ       $+5
   \   00002E   02....       LJMP      ??ZDO_ProcessParentAnnce_0 & 0xFFFF
   2269            {
   2270              for ( x = 0; x < parentAnnce->numOfChildren; x++ )
   \   000031   75..00       MOV       ?V4,#0x0
   \                     ??ZDO_ProcessParentAnnce_1:
   \   000034   85..82       MOV       DPL,?V6
   \   000037   85..83       MOV       DPH,?V7
   \   00003A   E0           MOVX      A,@DPTR
   \   00003B   F8           MOV       R0,A
   \   00003C   E5..         MOV       A,?V4
   \   00003E   C3           CLR       C
   \   00003F   98           SUBB      A,R0
   \   000040   4003         JC        $+5
   \   000042   02....       LJMP      ??ZDO_ProcessParentAnnce_2 & 0xFFFF
   2271              {
   2272                associated_devices_t *dev_ptr;
   2273          
   2274                // If it's an End Device child
   2275                dev_ptr = AssocGetWithExt( parentAnnce->childInfo[x].extAddr );
   \   000045                ; Setup parameters for call to function AssocGetWithExt
   \   000045   E5..         MOV       A,?V4
   \   000047   F8           MOV       R0,A
   \   000048   7900         MOV       R1,#0x0
   \   00004A   E8           MOV       A,R0
   \   00004B   75F008       MOV       B,#0x8
   \   00004E   A4           MUL       AB
   \   00004F   C8           XCH       A,R0
   \   000050   AAF0         MOV       R2,B
   \   000052   75F000       MOV       B,#0x0
   \   000055   A4           MUL       AB
   \   000056   2A           ADD       A,R2
   \   000057   FA           MOV       R2,A
   \   000058   75F008       MOV       B,#0x8
   \   00005B   E9           MOV       A,R1
   \   00005C   A4           MUL       AB
   \   00005D   2A           ADD       A,R2
   \   00005E   F9           MOV       R1,A
   \   00005F   E5..         MOV       A,?V6
   \   000061   28           ADD       A,R0
   \   000062   F582         MOV       DPL,A
   \   000064   E5..         MOV       A,?V7
   \   000066   39           ADDC      A,R1
   \   000067   F583         MOV       DPH,A
   \   000069   A3           INC       DPTR
   \   00006A   AA82         MOV       R2,DPL
   \   00006C   AB83         MOV       R3,DPH
   \   00006E   12....       LCALL     `??AssocGetWithExt::?relay`; Banked call to: AssocGetWithExt
   \   000071   8A..         MOV       ?V10,R2
   \   000073   8B..         MOV       ?V11,R3
   \   000075   85....       MOV       ?V2,?V10
   \   000078   85....       MOV       ?V3,?V11
   2276          
   2277                if ( dev_ptr )
   \   00007B   E5..         MOV       A,?V2
   \   00007D   45..         ORL       A,?V3
   \   00007F   7003         JNZ       $+5
   \   000081   02....       LJMP      ??ZDO_ProcessParentAnnce_3 & 0xFFFF
   2278                {
   2279                  if ( dev_ptr->nodeRelation == CHILD_RFD ||
   2280                       dev_ptr->nodeRelation == CHILD_RFD_RX_IDLE )
   \   000084   85..82       MOV       DPL,?V2
   \   000087   85..83       MOV       DPH,?V3
   \   00008A   A3           INC       DPTR
   \   00008B   A3           INC       DPTR
   \   00008C   A3           INC       DPTR
   \   00008D   A3           INC       DPTR
   \   00008E   E0           MOVX      A,@DPTR
   \   00008F   6401         XRL       A,#0x1
   \   000091   6012         JZ        ??ZDO_ProcessParentAnnce_4
   \   000093   85..82       MOV       DPL,?V2
   \   000096   85..83       MOV       DPH,?V3
   \   000099   A3           INC       DPTR
   \   00009A   A3           INC       DPTR
   \   00009B   A3           INC       DPTR
   \   00009C   A3           INC       DPTR
   \   00009D   E0           MOVX      A,@DPTR
   \   00009E   6402         XRL       A,#0x2
   \   0000A0   6003         JZ        $+5
   \   0000A2   02....       LJMP      ??ZDO_ProcessParentAnnce_3 & 0xFFFF
   2281                  {
   2282                    if ( dev_ptr->keepaliveRcv == TRUE )
   \                     ??ZDO_ProcessParentAnnce_4:
   \   0000A5   E5..         MOV       A,?V2
   \   0000A7   241B         ADD       A,#0x1b
   \   0000A9   F582         MOV       DPL,A
   \   0000AB   E4           CLR       A
   \   0000AC   35..         ADDC      A,?V3
   \   0000AE   F583         MOV       DPH,A
   \   0000B0   E0           MOVX      A,@DPTR
   \   0000B1   6401         XRL       A,#0x1
   \   0000B3   6003         JZ        $+5
   \   0000B5   02....       LJMP      ??ZDO_ProcessParentAnnce_3 & 0xFFFF
   2283                    {
   2284                      // Add one element to the list
   2285                      newNode = (ZDO_ChildInfoList_t *)osal_mem_alloc( sizeof(ZDO_ChildInfoList_t) );
   \   0000B8                ; Setup parameters for call to function osal_mem_alloc
   \   0000B8   7A0A         MOV       R2,#0xa
   \   0000BA   7B00         MOV       R3,#0x0
   \   0000BC   12....       LCALL     `??osal_mem_alloc::?relay`; Banked call to: osal_mem_alloc
   \   0000BF   8A..         MOV       ?V10,R2
   \   0000C1   8B..         MOV       ?V11,R3
   \   0000C3   85....       MOV       ?V8,?V10
   \   0000C6   85....       MOV       ?V9,?V11
   2286          
   2287                      osal_cpyExtAddr( newNode->child.extAddr, parentAnnce->childInfo[x].extAddr );
   \   0000C9                ; Setup parameters for call to function sAddrExtCpy
   \   0000C9   E5..         MOV       A,?V4
   \   0000CB   F8           MOV       R0,A
   \   0000CC   7900         MOV       R1,#0x0
   \   0000CE   E8           MOV       A,R0
   \   0000CF   75F008       MOV       B,#0x8
   \   0000D2   A4           MUL       AB
   \   0000D3   C8           XCH       A,R0
   \   0000D4   AAF0         MOV       R2,B
   \   0000D6   75F000       MOV       B,#0x0
   \   0000D9   A4           MUL       AB
   \   0000DA   2A           ADD       A,R2
   \   0000DB   FA           MOV       R2,A
   \   0000DC   75F008       MOV       B,#0x8
   \   0000DF   E9           MOV       A,R1
   \   0000E0   A4           MUL       AB
   \   0000E1   2A           ADD       A,R2
   \   0000E2   F9           MOV       R1,A
   \   0000E3   E5..         MOV       A,?V6
   \   0000E5   28           ADD       A,R0
   \   0000E6   F582         MOV       DPL,A
   \   0000E8   E5..         MOV       A,?V7
   \   0000EA   39           ADDC      A,R1
   \   0000EB   F583         MOV       DPH,A
   \   0000ED   A3           INC       DPTR
   \   0000EE   AC82         MOV       R4,DPL
   \   0000F0   AD83         MOV       R5,DPH
   \   0000F2   AA..         MOV       R2,?V8
   \   0000F4   AB..         MOV       R3,?V9
   \   0000F6   12....       LCALL     `??sAddrExtCpy::?relay`; Banked call to: sAddrExtCpy
   2288          
   2289                      newNode->next = NULL;
   \   0000F9   85..82       MOV       DPL,?V8
   \   0000FC   85..83       MOV       DPH,?V9
   \   0000FF   A3           INC       DPTR
   \   000100   A3           INC       DPTR
   \   000101   A3           INC       DPTR
   \   000102   A3           INC       DPTR
   \   000103   A3           INC       DPTR
   \   000104   A3           INC       DPTR
   \   000105   A3           INC       DPTR
   \   000106   A3           INC       DPTR
   \   000107   7400         MOV       A,#0x0
   \   000109   F0           MOVX      @DPTR,A
   \   00010A   A3           INC       DPTR
   \   00010B   7400         MOV       A,#0x0
   \   00010D   F0           MOVX      @DPTR,A
   2290          
   2291                      if ( listHead == NULL )
   \   00010E   E5..         MOV       A,?V0
   \   000110   45..         ORL       A,?V1
   \   000112   700A         JNZ       ??ZDO_ProcessParentAnnce_5
   2292                      {
   2293                        // Initialize the head of the list
   2294                        listHead = listTail = newNode;
   \   000114   AE..         MOV       R6,?V8
   \   000116   AF..         MOV       R7,?V9
   \   000118   8E..         MOV       ?V0,R6
   \   00011A   8F..         MOV       ?V1,R7
   \   00011C   8024         SJMP      ??ZDO_ProcessParentAnnce_6
   2295                      }
   2296                      else
   2297                      {
   2298                        // Add new element to the end
   2299                        listTail->next = newNode;
   \                     ??ZDO_ProcessParentAnnce_5:
   \   00011E   8E82         MOV       DPL,R6
   \   000120   8F83         MOV       DPH,R7
   \   000122   A3           INC       DPTR
   \   000123   A3           INC       DPTR
   \   000124   A3           INC       DPTR
   \   000125   A3           INC       DPTR
   \   000126   A3           INC       DPTR
   \   000127   A3           INC       DPTR
   \   000128   A3           INC       DPTR
   \   000129   A3           INC       DPTR
   \   00012A   E5..         MOV       A,?V8
   \   00012C   F0           MOVX      @DPTR,A
   \   00012D   A3           INC       DPTR
   \   00012E   E5..         MOV       A,?V9
   \   000130   F0           MOVX      @DPTR,A
   2300          
   2301                        listTail = listTail->next;
   \   000131   8E82         MOV       DPL,R6
   \   000133   8F83         MOV       DPH,R7
   \   000135   A3           INC       DPTR
   \   000136   A3           INC       DPTR
   \   000137   A3           INC       DPTR
   \   000138   A3           INC       DPTR
   \   000139   A3           INC       DPTR
   \   00013A   A3           INC       DPTR
   \   00013B   A3           INC       DPTR
   \   00013C   A3           INC       DPTR
   \   00013D   E0           MOVX      A,@DPTR
   \   00013E   FE           MOV       R6,A
   \   00013F   A3           INC       DPTR
   \   000140   E0           MOVX      A,@DPTR
   \   000141   FF           MOV       R7,A
   2302                      }
   2303          
   2304                      childCount++;
   \                     ??ZDO_ProcessParentAnnce_6:
   \   000142   05..         INC       ?V5
   2305                    }
   2306                  }
   2307                }
   2308              }
   \                     ??ZDO_ProcessParentAnnce_3:
   \   000144   05..         INC       ?V4
   \   000146   02....       LJMP      ??ZDO_ProcessParentAnnce_1 & 0xFFFF
   2309          
   2310              // If the device has children that match some in the received list,
   2311              // it should send a unicast Parent_Annce_rsp message.
   2312              if ( childCount > 0 )
   \                     ??ZDO_ProcessParentAnnce_2:
   \   000149   E5..         MOV       A,?V5
   \   00014B   7003         JNZ       $+5
   \   00014D   02....       LJMP      ??ZDO_ProcessParentAnnce_7 & 0xFFFF
   2313              {
   2314                ZDO_ChildInfo_t *childInfo;
   2315                zAddrType_t dstAddr;
   2316          
   2317                dstAddr.addrMode = (afAddrMode_t)Addr16Bit;
   \   000150   7408         MOV       A,#0x8
   \   000152   12....       LCALL     ?XSTACK_DISP0_8
   \   000155   7402         MOV       A,#0x2
   \   000157   F0           MOVX      @DPTR,A
   2318                dstAddr.addr.shortAddr = inMsg->srcAddr.addr.shortAddr;
   \   000158   85..82       MOV       DPL,?V12
   \   00015B   85..83       MOV       DPH,?V13
   \   00015E   A3           INC       DPTR
   \   00015F   A3           INC       DPTR
   \   000160   E0           MOVX      A,@DPTR
   \   000161   F8           MOV       R0,A
   \   000162   A3           INC       DPTR
   \   000163   E0           MOVX      A,@DPTR
   \   000164   F9           MOV       R1,A
   \   000165   85..82       MOV       DPL,?XSP + 0
   \   000168   85..83       MOV       DPH,?XSP + 1
   \   00016B   E8           MOV       A,R0
   \   00016C   F0           MOVX      @DPTR,A
   \   00016D   A3           INC       DPTR
   \   00016E   E9           MOV       A,R1
   \   00016F   F0           MOVX      @DPTR,A
   2319          
   2320                x = 0;
   \   000170   75..00       MOV       ?V4,#0x0
   2321          
   2322                childInfo = (ZDO_ChildInfo_t *)osal_mem_alloc( childCount * sizeof(ZDO_ChildInfo_t) );
   \   000173                ; Setup parameters for call to function osal_mem_alloc
   \   000173   E5..         MOV       A,?V5
   \   000175   FA           MOV       R2,A
   \   000176   7B00         MOV       R3,#0x0
   \   000178   EA           MOV       A,R2
   \   000179   75F008       MOV       B,#0x8
   \   00017C   A4           MUL       AB
   \   00017D   CA           XCH       A,R2
   \   00017E   A8F0         MOV       R0,B
   \   000180   75F000       MOV       B,#0x0
   \   000183   A4           MUL       AB
   \   000184   28           ADD       A,R0
   \   000185   F8           MOV       R0,A
   \   000186   75F008       MOV       B,#0x8
   \   000189   EB           MOV       A,R3
   \   00018A   A4           MUL       AB
   \   00018B   28           ADD       A,R0
   \   00018C   FB           MOV       R3,A
   \   00018D   12....       LCALL     `??osal_mem_alloc::?relay`; Banked call to: osal_mem_alloc
   \   000190   8A..         MOV       ?V10,R2
   \   000192   8B..         MOV       ?V11,R3
   \   000194   85....       MOV       ?V2,?V10
   \   000197   85....       MOV       ?V3,?V11
   2323          
   2324                if ( childInfo != NULL )
   \   00019A   E5..         MOV       A,?V2
   \   00019C   45..         ORL       A,?V3
   \   00019E   7003         JNZ       $+5
   \   0001A0   02....       LJMP      ??ZDO_ProcessParentAnnce_8 & 0xFFFF
   2325                {
   2326                  // Copy the content of the link list into this buffer
   2327                  while ( listHead != NULL )
   \                     ??ZDO_ProcessParentAnnce_9:
   \   0001A3   E5..         MOV       A,?V0
   \   0001A5   45..         ORL       A,?V1
   \   0001A7   604D         JZ        ??ZDO_ProcessParentAnnce_10
   2328                  {
   2329                    listTail = listHead;
   \   0001A9   AE..         MOV       R6,?V0
   \   0001AB   AF..         MOV       R7,?V1
   2330          
   2331                    osal_cpyExtAddr( childInfo[x].extAddr,  listHead->child.extAddr );
   \   0001AD                ; Setup parameters for call to function sAddrExtCpy
   \   0001AD   AC..         MOV       R4,?V0
   \   0001AF   AD..         MOV       R5,?V1
   \   0001B1   E5..         MOV       A,?V4
   \   0001B3   F8           MOV       R0,A
   \   0001B4   7900         MOV       R1,#0x0
   \   0001B6   E8           MOV       A,R0
   \   0001B7   75F008       MOV       B,#0x8
   \   0001BA   A4           MUL       AB
   \   0001BB   C8           XCH       A,R0
   \   0001BC   AAF0         MOV       R2,B
   \   0001BE   75F000       MOV       B,#0x0
   \   0001C1   A4           MUL       AB
   \   0001C2   2A           ADD       A,R2
   \   0001C3   FA           MOV       R2,A
   \   0001C4   75F008       MOV       B,#0x8
   \   0001C7   E9           MOV       A,R1
   \   0001C8   A4           MUL       AB
   \   0001C9   2A           ADD       A,R2
   \   0001CA   F9           MOV       R1,A
   \   0001CB   E5..         MOV       A,?V2
   \   0001CD   28           ADD       A,R0
   \   0001CE   FA           MOV       R2,A
   \   0001CF   E5..         MOV       A,?V3
   \   0001D1   39           ADDC      A,R1
   \   0001D2   FB           MOV       R3,A
   \   0001D3   12....       LCALL     `??sAddrExtCpy::?relay`; Banked call to: sAddrExtCpy
   2332          
   2333                    x++;
   \   0001D6   05..         INC       ?V4
   2334          
   2335                    listHead = listTail->next;
   \   0001D8   8E82         MOV       DPL,R6
   \   0001DA   8F83         MOV       DPH,R7
   \   0001DC   A3           INC       DPTR
   \   0001DD   A3           INC       DPTR
   \   0001DE   A3           INC       DPTR
   \   0001DF   A3           INC       DPTR
   \   0001E0   A3           INC       DPTR
   \   0001E1   A3           INC       DPTR
   \   0001E2   A3           INC       DPTR
   \   0001E3   A3           INC       DPTR
   \   0001E4   E0           MOVX      A,@DPTR
   \   0001E5   F8           MOV       R0,A
   \   0001E6   A3           INC       DPTR
   \   0001E7   E0           MOVX      A,@DPTR
   \   0001E8   F9           MOV       R1,A
   \   0001E9   88..         MOV       ?V0,R0
   \   0001EB   89..         MOV       ?V1,R1
   2336          
   2337                    // Free this element of the link list
   2338                    osal_mem_free( listTail );
   \   0001ED                ; Setup parameters for call to function osal_mem_free
   \   0001ED   EE           MOV       A,R6
   \   0001EE   FA           MOV       R2,A
   \   0001EF   EF           MOV       A,R7
   \   0001F0   FB           MOV       R3,A
   \   0001F1   12....       LCALL     `??osal_mem_free::?relay`; Banked call to: osal_mem_free
   \   0001F4   80AD         SJMP      ??ZDO_ProcessParentAnnce_9
   2339                  }
   2340          
   2341                  ZDP_ParentAnnceRsp( (inMsg->TransSeq), dstAddr, childCount,
   2342                                      ((uint8 *)childInfo), 0 );
   \                     ??ZDO_ProcessParentAnnce_10:
   \   0001F6                ; Setup parameters for call to function ZDP_ParentAnnce
   \   0001F6   75..00       MOV       ?V10,#0x0
   \   0001F9   78..         MOV       R0,#?V10
   \   0001FB   12....       LCALL     ?PUSH_XSTACK_I_ONE
   \   0001FE   75..1F       MOV       ?V10,#0x1f
   \   000201   75..80       MOV       ?V11,#-0x80
   \   000204   78..         MOV       R0,#?V10
   \   000206   12....       LCALL     ?PUSH_XSTACK_I_TWO
   \   000209   78..         MOV       R0,#?V2
   \   00020B   12....       LCALL     ?PUSH_XSTACK_I_TWO
   \   00020E   A9..         MOV       R1,?V5
   \   000210   7405         MOV       A,#0x5
   \   000212   12....       LCALL     ?XSTACK_DISP102_8
   \   000215   E5..         MOV       A,?V12
   \   000217   240F         ADD       A,#0xf
   \   000219   FA           MOV       R2,A
   \   00021A   E4           CLR       A
   \   00021B   35..         ADDC      A,?V13
   \   00021D   FB           MOV       R3,A
   \   00021E   12....       LCALL     `??ZDP_ParentAnnce::?relay`; Banked call to: ZDP_ParentAnnce
   \   000221   7405         MOV       A,#0x5
   \   000223   12....       LCALL     ?DEALLOC_XSTACK8
   \   000226   E9           MOV       A,R1
   2343                  
   2344                  
   2345                  osal_mem_free(childInfo);
   \   000227                ; Setup parameters for call to function osal_mem_free
   \   000227   AA..         MOV       R2,?V2
   \   000229   AB..         MOV       R3,?V3
   \   00022B   12....       LCALL     `??osal_mem_free::?relay`; Banked call to: osal_mem_free
   \   00022E   8028         SJMP      ??ZDO_ProcessParentAnnce_7
   2346                }
   2347                else
   2348                {
   2349                  while(listHead != NULL)
   \                     ??ZDO_ProcessParentAnnce_8:
   \   000230   E5..         MOV       A,?V0
   \   000232   45..         ORL       A,?V1
   \   000234   6022         JZ        ??ZDO_ProcessParentAnnce_7
   2350                  {
   2351                    listTail = listHead;
   \   000236   AE..         MOV       R6,?V0
   \   000238   AF..         MOV       R7,?V1
   2352                    listHead = listTail->next;
   \   00023A   8E82         MOV       DPL,R6
   \   00023C   8F83         MOV       DPH,R7
   \   00023E   A3           INC       DPTR
   \   00023F   A3           INC       DPTR
   \   000240   A3           INC       DPTR
   \   000241   A3           INC       DPTR
   \   000242   A3           INC       DPTR
   \   000243   A3           INC       DPTR
   \   000244   A3           INC       DPTR
   \   000245   A3           INC       DPTR
   \   000246   E0           MOVX      A,@DPTR
   \   000247   F8           MOV       R0,A
   \   000248   A3           INC       DPTR
   \   000249   E0           MOVX      A,@DPTR
   \   00024A   F9           MOV       R1,A
   \   00024B   88..         MOV       ?V0,R0
   \   00024D   89..         MOV       ?V1,R1
   2353          
   2354                    // Free this element of the link list
   2355                    osal_mem_free( listTail );
   \   00024F                ; Setup parameters for call to function osal_mem_free
   \   00024F   EE           MOV       A,R6
   \   000250   FA           MOV       R2,A
   \   000251   EF           MOV       A,R7
   \   000252   FB           MOV       R3,A
   \   000253   12....       LCALL     `??osal_mem_free::?relay`; Banked call to: osal_mem_free
   \   000256   80D8         SJMP      ??ZDO_ProcessParentAnnce_8
   2356                  }  
   2357                }
   2358              }
   2359              
   2360              // Free memory allocated by parsing function
   2361              osal_mem_free( parentAnnce );
   \                     ??ZDO_ProcessParentAnnce_7:
   \   000258                ; Setup parameters for call to function osal_mem_free
   \   000258   AA..         MOV       R2,?V6
   \   00025A   AB..         MOV       R3,?V7
   \   00025C   12....       LCALL     `??osal_mem_free::?relay`; Banked call to: osal_mem_free
   2362            }
   2363          }
   \                     ??ZDO_ProcessParentAnnce_0:
   \   00025F   7409         MOV       A,#0x9
   \   000261   12....       LCALL     ?DEALLOC_XSTACK8
   \   000264   7F0E         MOV       R7,#0xe
   \   000266   02....       LJMP      ?BANKED_LEAVE_XDATA
   2364          
   2365          /*********************************************************************
   2366           * @fn          ZDO_ProcessParentAnnceRsp
   2367           *
   2368           * @brief       This function processes a Parent annouce response message.
   2369           *
   2370           * @param       inMsg - incoming message
   2371           *
   2372           * @return      none
   2373           */

   \                                 In  segment BANKED_CODE, align 1, keep-with-next
   2374          void ZDO_ProcessParentAnnceRsp( zdoIncomingMsg_t *inMsg )
   \                     ZDO_ProcessParentAnnceRsp:
   2375          {
   \   000000                REQUIRE ?V0
   \   000000                REQUIRE ?V1
   \   000000                REQUIRE ?V2
   \   000000                REQUIRE ?V4
   \   000000                REQUIRE ?V5
   \   000000                REQUIRE ?V6
   \   000000                REQUIRE ?V7
   \   000000   74F0         MOV       A,#-0x10
   \   000002   12....       LCALL     ?BANKED_ENTER_XDATA
   \   000005                ; Saved register size: 16
   \   000005                ; Auto size: 0
   \   000005   EA           MOV       A,R2
   \   000006   FE           MOV       R6,A
   \   000007   EB           MOV       A,R3
   \   000008   FF           MOV       R7,A
   2376            ZDO_ParentAnnce_t *parentAnnce;
   2377            uint8 x;
   2378          
   2379            // Parse incoming message, memory is allocated by the parse function,
   2380            // it should be free after processing the message
   2381            parentAnnce = ZDO_ParseParentAnnce( inMsg );
   \   000009                ; Setup parameters for call to function ZDO_ParseParentAnnce
   \   000009   EE           MOV       A,R6
   \   00000A   FA           MOV       R2,A
   \   00000B   EF           MOV       A,R7
   \   00000C   FB           MOV       R3,A
   \   00000D   12....       LCALL     `??ZDO_ParseParentAnnce::?relay`; Banked call to: ZDO_ParseParentAnnce
   \   000010   8A..         MOV       ?V4,R2
   \   000012   8B..         MOV       ?V5,R3
   \   000014   85....       MOV       ?V0,?V4
   \   000017   85....       MOV       ?V1,?V5
   2382          
   2383            if ( parentAnnce != NULL )
   \   00001A   E5..         MOV       A,?V0
   \   00001C   45..         ORL       A,?V1
   \   00001E   7003         JNZ       $+5
   \   000020   02....       LJMP      ??ZDO_ProcessParentAnnceRsp_0 & 0xFFFF
   2384            {
   2385              for ( x = 0; x < parentAnnce->numOfChildren; x++ )
   \   000023   75..00       MOV       ?V2,#0x0
   \                     ??ZDO_ProcessParentAnnceRsp_1:
   \   000026   85..82       MOV       DPL,?V0
   \   000029   85..83       MOV       DPH,?V1
   \   00002C   E0           MOVX      A,@DPTR
   \   00002D   F8           MOV       R0,A
   \   00002E   E5..         MOV       A,?V2
   \   000030   C3           CLR       C
   \   000031   98           SUBB      A,R0
   \   000032   4003         JC        $+5
   \   000034   02....       LJMP      ??ZDO_ProcessParentAnnceRsp_2 & 0xFFFF
   2386              {
   2387                associated_devices_t *dev_ptr;
   2388          
   2389                // If it's an End Device child
   2390                dev_ptr = AssocGetWithExt( parentAnnce->childInfo[x].extAddr );
   \   000037                ; Setup parameters for call to function AssocGetWithExt
   \   000037   E5..         MOV       A,?V2
   \   000039   F8           MOV       R0,A
   \   00003A   7900         MOV       R1,#0x0
   \   00003C   E8           MOV       A,R0
   \   00003D   75F008       MOV       B,#0x8
   \   000040   A4           MUL       AB
   \   000041   C8           XCH       A,R0
   \   000042   AAF0         MOV       R2,B
   \   000044   75F000       MOV       B,#0x0
   \   000047   A4           MUL       AB
   \   000048   2A           ADD       A,R2
   \   000049   FA           MOV       R2,A
   \   00004A   75F008       MOV       B,#0x8
   \   00004D   E9           MOV       A,R1
   \   00004E   A4           MUL       AB
   \   00004F   2A           ADD       A,R2
   \   000050   F9           MOV       R1,A
   \   000051   E5..         MOV       A,?V0
   \   000053   28           ADD       A,R0
   \   000054   F582         MOV       DPL,A
   \   000056   E5..         MOV       A,?V1
   \   000058   39           ADDC      A,R1
   \   000059   F583         MOV       DPH,A
   \   00005B   A3           INC       DPTR
   \   00005C   AA82         MOV       R2,DPL
   \   00005E   AB83         MOV       R3,DPH
   \   000060   12....       LCALL     `??AssocGetWithExt::?relay`; Banked call to: AssocGetWithExt
   \   000063   8A..         MOV       ?V6,R2
   \   000065   8B..         MOV       ?V7,R3
   \   000067   85....       MOV       ?V4,?V6
   \   00006A   85....       MOV       ?V5,?V7
   2391          
   2392                if ( dev_ptr )
   \   00006D   E5..         MOV       A,?V4
   \   00006F   45..         ORL       A,?V5
   \   000071   604B         JZ        ??ZDO_ProcessParentAnnceRsp_3
   2393                {
   2394                  if ( dev_ptr->nodeRelation == CHILD_RFD ||
   2395                       dev_ptr->nodeRelation == CHILD_RFD_RX_IDLE )
   \   000073   85..82       MOV       DPL,?V4
   \   000076   85..83       MOV       DPH,?V5
   \   000079   A3           INC       DPTR
   \   00007A   A3           INC       DPTR
   \   00007B   A3           INC       DPTR
   \   00007C   A3           INC       DPTR
   \   00007D   E0           MOVX      A,@DPTR
   \   00007E   6401         XRL       A,#0x1
   \   000080   600F         JZ        ??ZDO_ProcessParentAnnceRsp_4
   \   000082   85..82       MOV       DPL,?V4
   \   000085   85..83       MOV       DPH,?V5
   \   000088   A3           INC       DPTR
   \   000089   A3           INC       DPTR
   \   00008A   A3           INC       DPTR
   \   00008B   A3           INC       DPTR
   \   00008C   E0           MOVX      A,@DPTR
   \   00008D   6402         XRL       A,#0x2
   \   00008F   702D         JNZ       ??ZDO_ProcessParentAnnceRsp_3
   2396                  {
   2397                    AssocRemove( parentAnnce->childInfo[x].extAddr );
   \                     ??ZDO_ProcessParentAnnceRsp_4:
   \   000091                ; Setup parameters for call to function AssocRemove
   \   000091   E5..         MOV       A,?V2
   \   000093   F8           MOV       R0,A
   \   000094   7900         MOV       R1,#0x0
   \   000096   E8           MOV       A,R0
   \   000097   75F008       MOV       B,#0x8
   \   00009A   A4           MUL       AB
   \   00009B   C8           XCH       A,R0
   \   00009C   AAF0         MOV       R2,B
   \   00009E   75F000       MOV       B,#0x0
   \   0000A1   A4           MUL       AB
   \   0000A2   2A           ADD       A,R2
   \   0000A3   FA           MOV       R2,A
   \   0000A4   75F008       MOV       B,#0x8
   \   0000A7   E9           MOV       A,R1
   \   0000A8   A4           MUL       AB
   \   0000A9   2A           ADD       A,R2
   \   0000AA   F9           MOV       R1,A
   \   0000AB   E5..         MOV       A,?V0
   \   0000AD   28           ADD       A,R0
   \   0000AE   F582         MOV       DPL,A
   \   0000B0   E5..         MOV       A,?V1
   \   0000B2   39           ADDC      A,R1
   \   0000B3   F583         MOV       DPH,A
   \   0000B5   A3           INC       DPTR
   \   0000B6   AA82         MOV       R2,DPL
   \   0000B8   AB83         MOV       R3,DPH
   \   0000BA   12....       LCALL     `??AssocRemove::?relay`; Banked call to: AssocRemove
   \   0000BD   E9           MOV       A,R1
   2398                  }
   2399                }
   2400              }
   \                     ??ZDO_ProcessParentAnnceRsp_3:
   \   0000BE   05..         INC       ?V2
   \   0000C0   02....       LJMP      ??ZDO_ProcessParentAnnceRsp_1 & 0xFFFF
   2401          
   2402              // Free memory allocated by parsing function
   2403              osal_mem_free( parentAnnce );
   \                     ??ZDO_ProcessParentAnnceRsp_2:
   \   0000C3                ; Setup parameters for call to function osal_mem_free
   \   0000C3   AA..         MOV       R2,?V0
   \   0000C5   AB..         MOV       R3,?V1
   \   0000C7   12....       LCALL     `??osal_mem_free::?relay`; Banked call to: osal_mem_free
   2404            }
   2405          }
   \                     ??ZDO_ProcessParentAnnceRsp_0:
   \   0000CA   7F08         MOV       R7,#0x8
   \   0000CC   02....       LJMP      ?BANKED_LEAVE_XDATA
   2406          
   2407          /*********************************************************************
   2408           * @fn          ZDO_BuildSimpleDescBuf
   2409           *
   2410           * @brief       Build a byte sequence representation of a Simple Descriptor.
   2411           *
   2412           * @param       buf  - pointer to a byte array big enough for data.
   2413           * @param       desc - SimpleDescriptionFormat_t *
   2414           *
   2415           * @return      none
   2416           */

   \                                 In  segment BANKED_CODE, align 1, keep-with-next
   2417          void ZDO_BuildSimpleDescBuf( uint8 *buf, SimpleDescriptionFormat_t *desc )
   \                     ZDO_BuildSimpleDescBuf:
   2418          {
   \   000000                REQUIRE ?V0
   \   000000                REQUIRE ?V1
   \   000000   74F6         MOV       A,#-0xa
   \   000002   12....       LCALL     ?BANKED_ENTER_XDATA
   \   000005                ; Saved register size: 10
   \   000005                ; Auto size: 0
   \   000005   EC           MOV       A,R4
   \   000006   FE           MOV       R6,A
   \   000007   ED           MOV       A,R5
   \   000008   FF           MOV       R7,A
   2419            byte cnt;
   2420            uint16 *ptr;
   2421          
   2422            *buf++ = desc->EndPoint;
   \   000009   8E82         MOV       DPL,R6
   \   00000B   8F83         MOV       DPH,R7
   \   00000D   E0           MOVX      A,@DPTR
   \   00000E   C0E0         PUSH      A
   \   000010   8A82         MOV       DPL,R2
   \   000012   8B83         MOV       DPH,R3
   \   000014   D0E0         POP       A
   \   000016   F0           MOVX      @DPTR,A
   \   000017   8A82         MOV       DPL,R2
   \   000019   8B83         MOV       DPH,R3
   \   00001B   A3           INC       DPTR
   \   00001C   AA82         MOV       R2,DPL
   \   00001E   AB83         MOV       R3,DPH
   2423            *buf++ = HI_UINT16( desc->AppProfId );
   \   000020   8E82         MOV       DPL,R6
   \   000022   8F83         MOV       DPH,R7
   \   000024   A3           INC       DPTR
   \   000025   E0           MOVX      A,@DPTR
   \   000026   F5..         MOV       ?V0,A
   \   000028   A3           INC       DPTR
   \   000029   E0           MOVX      A,@DPTR
   \   00002A   F5..         MOV       ?V1,A
   \   00002C   E4           CLR       A
   \   00002D   C5..         XCH       A,?V1
   \   00002F   F5..         MOV       ?V0,A
   \   000031   E5..         MOV       A,?V0
   \   000033   C0E0         PUSH      A
   \   000035   8A82         MOV       DPL,R2
   \   000037   8B83         MOV       DPH,R3
   \   000039   D0E0         POP       A
   \   00003B   F0           MOVX      @DPTR,A
   \   00003C   8A82         MOV       DPL,R2
   \   00003E   8B83         MOV       DPH,R3
   \   000040   A3           INC       DPTR
   \   000041   AA82         MOV       R2,DPL
   \   000043   AB83         MOV       R3,DPH
   2424            *buf++ = LO_UINT16( desc->AppProfId );
   \   000045   8E82         MOV       DPL,R6
   \   000047   8F83         MOV       DPH,R7
   \   000049   A3           INC       DPTR
   \   00004A   E0           MOVX      A,@DPTR
   \   00004B   F5..         MOV       ?V0,A
   \   00004D   A3           INC       DPTR
   \   00004E   E0           MOVX      A,@DPTR
   \   00004F   F5..         MOV       ?V1,A
   \   000051   E5..         MOV       A,?V0
   \   000053   C0E0         PUSH      A
   \   000055   8A82         MOV       DPL,R2
   \   000057   8B83         MOV       DPH,R3
   \   000059   D0E0         POP       A
   \   00005B   F0           MOVX      @DPTR,A
   \   00005C   8A82         MOV       DPL,R2
   \   00005E   8B83         MOV       DPH,R3
   \   000060   A3           INC       DPTR
   \   000061   AA82         MOV       R2,DPL
   \   000063   AB83         MOV       R3,DPH
   2425            *buf++ = HI_UINT16( desc->AppDeviceId );
   \   000065   8E82         MOV       DPL,R6
   \   000067   8F83         MOV       DPH,R7
   \   000069   A3           INC       DPTR
   \   00006A   A3           INC       DPTR
   \   00006B   A3           INC       DPTR
   \   00006C   E0           MOVX      A,@DPTR
   \   00006D   F5..         MOV       ?V0,A
   \   00006F   A3           INC       DPTR
   \   000070   E0           MOVX      A,@DPTR
   \   000071   F5..         MOV       ?V1,A
   \   000073   E4           CLR       A
   \   000074   C5..         XCH       A,?V1
   \   000076   F5..         MOV       ?V0,A
   \   000078   E5..         MOV       A,?V0
   \   00007A   C0E0         PUSH      A
   \   00007C   8A82         MOV       DPL,R2
   \   00007E   8B83         MOV       DPH,R3
   \   000080   D0E0         POP       A
   \   000082   F0           MOVX      @DPTR,A
   \   000083   8A82         MOV       DPL,R2
   \   000085   8B83         MOV       DPH,R3
   \   000087   A3           INC       DPTR
   \   000088   AA82         MOV       R2,DPL
   \   00008A   AB83         MOV       R3,DPH
   2426            *buf++ = LO_UINT16( desc->AppDeviceId );
   \   00008C   8E82         MOV       DPL,R6
   \   00008E   8F83         MOV       DPH,R7
   \   000090   A3           INC       DPTR
   \   000091   A3           INC       DPTR
   \   000092   A3           INC       DPTR
   \   000093   E0           MOVX      A,@DPTR
   \   000094   F5..         MOV       ?V0,A
   \   000096   A3           INC       DPTR
   \   000097   E0           MOVX      A,@DPTR
   \   000098   F5..         MOV       ?V1,A
   \   00009A   E5..         MOV       A,?V0
   \   00009C   C0E0         PUSH      A
   \   00009E   8A82         MOV       DPL,R2
   \   0000A0   8B83         MOV       DPH,R3
   \   0000A2   D0E0         POP       A
   \   0000A4   F0           MOVX      @DPTR,A
   \   0000A5   8A82         MOV       DPL,R2
   \   0000A7   8B83         MOV       DPH,R3
   \   0000A9   A3           INC       DPTR
   \   0000AA   AA82         MOV       R2,DPL
   \   0000AC   AB83         MOV       R3,DPH
   2427          
   2428            *buf++ = (byte)(desc->AppDevVer << 4);
   \   0000AE   8E82         MOV       DPL,R6
   \   0000B0   8F83         MOV       DPH,R7
   \   0000B2   A3           INC       DPTR
   \   0000B3   A3           INC       DPTR
   \   0000B4   A3           INC       DPTR
   \   0000B5   A3           INC       DPTR
   \   0000B6   A3           INC       DPTR
   \   0000B7   E0           MOVX      A,@DPTR
   \   0000B8   C4           SWAP      A
   \   0000B9   54F0         ANL       A,#0xf0
   \   0000BB   C0E0         PUSH      A
   \   0000BD   8A82         MOV       DPL,R2
   \   0000BF   8B83         MOV       DPH,R3
   \   0000C1   D0E0         POP       A
   \   0000C3   F0           MOVX      @DPTR,A
   \   0000C4   8A82         MOV       DPL,R2
   \   0000C6   8B83         MOV       DPH,R3
   \   0000C8   A3           INC       DPTR
   \   0000C9   AA82         MOV       R2,DPL
   \   0000CB   AB83         MOV       R3,DPH
   2429          
   2430            *buf++ = desc->AppNumInClusters;
   \   0000CD   8E82         MOV       DPL,R6
   \   0000CF   8F83         MOV       DPH,R7
   \   0000D1   A3           INC       DPTR
   \   0000D2   A3           INC       DPTR
   \   0000D3   A3           INC       DPTR
   \   0000D4   A3           INC       DPTR
   \   0000D5   A3           INC       DPTR
   \   0000D6   A3           INC       DPTR
   \   0000D7   E0           MOVX      A,@DPTR
   \   0000D8   C0E0         PUSH      A
   \   0000DA   8A82         MOV       DPL,R2
   \   0000DC   8B83         MOV       DPH,R3
   \   0000DE   D0E0         POP       A
   \   0000E0   F0           MOVX      @DPTR,A
   \   0000E1   8A82         MOV       DPL,R2
   \   0000E3   8B83         MOV       DPH,R3
   \   0000E5   A3           INC       DPTR
   \   0000E6   AA82         MOV       R2,DPL
   \   0000E8   AB83         MOV       R3,DPH
   2431            ptr = desc->pAppInClusterList;
   \   0000EA   8E82         MOV       DPL,R6
   \   0000EC   8F83         MOV       DPH,R7
   \   0000EE   A3           INC       DPTR
   \   0000EF   A3           INC       DPTR
   \   0000F0   A3           INC       DPTR
   \   0000F1   A3           INC       DPTR
   \   0000F2   A3           INC       DPTR
   \   0000F3   A3           INC       DPTR
   \   0000F4   A3           INC       DPTR
   \   0000F5   E0           MOVX      A,@DPTR
   \   0000F6   F5..         MOV       ?V0,A
   \   0000F8   A3           INC       DPTR
   \   0000F9   E0           MOVX      A,@DPTR
   \   0000FA   F5..         MOV       ?V1,A
   \   0000FC   A8..         MOV       R0,?V0
   \   0000FE   A9..         MOV       R1,?V1
   2432            for ( cnt = 0; cnt < desc->AppNumInClusters; ptr++, cnt++ )
   \   000100   7C00         MOV       R4,#0x0
   \                     ??ZDO_BuildSimpleDescBuf_0:
   \   000102   8E82         MOV       DPL,R6
   \   000104   8F83         MOV       DPH,R7
   \   000106   A3           INC       DPTR
   \   000107   A3           INC       DPTR
   \   000108   A3           INC       DPTR
   \   000109   A3           INC       DPTR
   \   00010A   A3           INC       DPTR
   \   00010B   A3           INC       DPTR
   \   00010C   E0           MOVX      A,@DPTR
   \   00010D   FD           MOV       R5,A
   \   00010E   EC           MOV       A,R4
   \   00010F   C3           CLR       C
   \   000110   9D           SUBB      A,R5
   \   000111   504D         JNC       ??ZDO_BuildSimpleDescBuf_1
   2433            {
   2434              *buf++ = HI_UINT16( *ptr );
   \   000113   8882         MOV       DPL,R0
   \   000115   8983         MOV       DPH,R1
   \   000117   E0           MOVX      A,@DPTR
   \   000118   F5..         MOV       ?V0,A
   \   00011A   A3           INC       DPTR
   \   00011B   E0           MOVX      A,@DPTR
   \   00011C   F5..         MOV       ?V1,A
   \   00011E   E4           CLR       A
   \   00011F   C5..         XCH       A,?V1
   \   000121   F5..         MOV       ?V0,A
   \   000123   E5..         MOV       A,?V0
   \   000125   C0E0         PUSH      A
   \   000127   8A82         MOV       DPL,R2
   \   000129   8B83         MOV       DPH,R3
   \   00012B   D0E0         POP       A
   \   00012D   F0           MOVX      @DPTR,A
   \   00012E   8A82         MOV       DPL,R2
   \   000130   8B83         MOV       DPH,R3
   \   000132   A3           INC       DPTR
   \   000133   AA82         MOV       R2,DPL
   \   000135   AB83         MOV       R3,DPH
   2435              *buf++ = LO_UINT16( *ptr );
   \   000137   8882         MOV       DPL,R0
   \   000139   8983         MOV       DPH,R1
   \   00013B   E0           MOVX      A,@DPTR
   \   00013C   F5..         MOV       ?V0,A
   \   00013E   A3           INC       DPTR
   \   00013F   E0           MOVX      A,@DPTR
   \   000140   F5..         MOV       ?V1,A
   \   000142   E5..         MOV       A,?V0
   \   000144   C0E0         PUSH      A
   \   000146   8A82         MOV       DPL,R2
   \   000148   8B83         MOV       DPH,R3
   \   00014A   D0E0         POP       A
   \   00014C   F0           MOVX      @DPTR,A
   \   00014D   8A82         MOV       DPL,R2
   \   00014F   8B83         MOV       DPH,R3
   \   000151   A3           INC       DPTR
   \   000152   AA82         MOV       R2,DPL
   \   000154   AB83         MOV       R3,DPH
   2436            }
   \   000156   E8           MOV       A,R0
   \   000157   2402         ADD       A,#0x2
   \   000159   F8           MOV       R0,A
   \   00015A   5001         JNC       ??ZDO_BuildSimpleDescBuf_2
   \   00015C   09           INC       R1
   \                     ??ZDO_BuildSimpleDescBuf_2:
   \   00015D   0C           INC       R4
   \   00015E   80A2         SJMP      ??ZDO_BuildSimpleDescBuf_0
   2437          
   2438            *buf++ = desc->AppNumOutClusters;
   \                     ??ZDO_BuildSimpleDescBuf_1:
   \   000160   8E82         MOV       DPL,R6
   \   000162   8F83         MOV       DPH,R7
   \   000164   A3           INC       DPTR
   \   000165   A3           INC       DPTR
   \   000166   A3           INC       DPTR
   \   000167   A3           INC       DPTR
   \   000168   A3           INC       DPTR
   \   000169   A3           INC       DPTR
   \   00016A   A3           INC       DPTR
   \   00016B   A3           INC       DPTR
   \   00016C   A3           INC       DPTR
   \   00016D   E0           MOVX      A,@DPTR
   \   00016E   C0E0         PUSH      A
   \   000170   8A82         MOV       DPL,R2
   \   000172   8B83         MOV       DPH,R3
   \   000174   D0E0         POP       A
   \   000176   F0           MOVX      @DPTR,A
   \   000177   8A82         MOV       DPL,R2
   \   000179   8B83         MOV       DPH,R3
   \   00017B   A3           INC       DPTR
   \   00017C   AA82         MOV       R2,DPL
   \   00017E   AB83         MOV       R3,DPH
   2439            ptr = desc->pAppOutClusterList;
   \   000180   8E82         MOV       DPL,R6
   \   000182   8F83         MOV       DPH,R7
   \   000184   A3           INC       DPTR
   \   000185   A3           INC       DPTR
   \   000186   A3           INC       DPTR
   \   000187   A3           INC       DPTR
   \   000188   A3           INC       DPTR
   \   000189   A3           INC       DPTR
   \   00018A   A3           INC       DPTR
   \   00018B   A3           INC       DPTR
   \   00018C   A3           INC       DPTR
   \   00018D   A3           INC       DPTR
   \   00018E   E0           MOVX      A,@DPTR
   \   00018F   F5..         MOV       ?V0,A
   \   000191   A3           INC       DPTR
   \   000192   E0           MOVX      A,@DPTR
   \   000193   F5..         MOV       ?V1,A
   \   000195   A8..         MOV       R0,?V0
   \   000197   A9..         MOV       R1,?V1
   2440            for ( cnt = 0; cnt < desc->AppNumOutClusters; ptr++, cnt++ )
   \   000199   7C00         MOV       R4,#0x0
   \                     ??ZDO_BuildSimpleDescBuf_3:
   \   00019B   8E82         MOV       DPL,R6
   \   00019D   8F83         MOV       DPH,R7
   \   00019F   A3           INC       DPTR
   \   0001A0   A3           INC       DPTR
   \   0001A1   A3           INC       DPTR
   \   0001A2   A3           INC       DPTR
   \   0001A3   A3           INC       DPTR
   \   0001A4   A3           INC       DPTR
   \   0001A5   A3           INC       DPTR
   \   0001A6   A3           INC       DPTR
   \   0001A7   A3           INC       DPTR
   \   0001A8   E0           MOVX      A,@DPTR
   \   0001A9   FD           MOV       R5,A
   \   0001AA   EC           MOV       A,R4
   \   0001AB   C3           CLR       C
   \   0001AC   9D           SUBB      A,R5
   \   0001AD   504D         JNC       ??ZDO_BuildSimpleDescBuf_4
   2441            {
   2442              *buf++ = HI_UINT16( *ptr );
   \   0001AF   8882         MOV       DPL,R0
   \   0001B1   8983         MOV       DPH,R1
   \   0001B3   E0           MOVX      A,@DPTR
   \   0001B4   F5..         MOV       ?V0,A
   \   0001B6   A3           INC       DPTR
   \   0001B7   E0           MOVX      A,@DPTR
   \   0001B8   F5..         MOV       ?V1,A
   \   0001BA   E4           CLR       A
   \   0001BB   C5..         XCH       A,?V1
   \   0001BD   F5..         MOV       ?V0,A
   \   0001BF   E5..         MOV       A,?V0
   \   0001C1   C0E0         PUSH      A
   \   0001C3   8A82         MOV       DPL,R2
   \   0001C5   8B83         MOV       DPH,R3
   \   0001C7   D0E0         POP       A
   \   0001C9   F0           MOVX      @DPTR,A
   \   0001CA   8A82         MOV       DPL,R2
   \   0001CC   8B83         MOV       DPH,R3
   \   0001CE   A3           INC       DPTR
   \   0001CF   AA82         MOV       R2,DPL
   \   0001D1   AB83         MOV       R3,DPH
   2443              *buf++ = LO_UINT16( *ptr );
   \   0001D3   8882         MOV       DPL,R0
   \   0001D5   8983         MOV       DPH,R1
   \   0001D7   E0           MOVX      A,@DPTR
   \   0001D8   F5..         MOV       ?V0,A
   \   0001DA   A3           INC       DPTR
   \   0001DB   E0           MOVX      A,@DPTR
   \   0001DC   F5..         MOV       ?V1,A
   \   0001DE   E5..         MOV       A,?V0
   \   0001E0   C0E0         PUSH      A
   \   0001E2   8A82         MOV       DPL,R2
   \   0001E4   8B83         MOV       DPH,R3
   \   0001E6   D0E0         POP       A
   \   0001E8   F0           MOVX      @DPTR,A
   \   0001E9   8A82         MOV       DPL,R2
   \   0001EB   8B83         MOV       DPH,R3
   \   0001ED   A3           INC       DPTR
   \   0001EE   AA82         MOV       R2,DPL
   \   0001F0   AB83         MOV       R3,DPH
   2444            }
   \   0001F2   E8           MOV       A,R0
   \   0001F3   2402         ADD       A,#0x2
   \   0001F5   F8           MOV       R0,A
   \   0001F6   5001         JNC       ??ZDO_BuildSimpleDescBuf_5
   \   0001F8   09           INC       R1
   \                     ??ZDO_BuildSimpleDescBuf_5:
   \   0001F9   0C           INC       R4
   \   0001FA   809F         SJMP      ??ZDO_BuildSimpleDescBuf_3
   2445          }
   \                     ??ZDO_BuildSimpleDescBuf_4:
   \   0001FC   7F02         MOV       R7,#0x2
   \   0001FE   02....       LJMP      ?BANKED_LEAVE_XDATA
   2446          
   2447          #if ( ZG_BUILD_COORDINATOR_TYPE )
   2448          #ifdef ZDO_ENDDEVICEBIND_RESPONSE
   2449          /*********************************************************************
   2450           * @fn      ZDO_MatchEndDeviceBind()
   2451           *
   2452           * @brief
   2453           *
   2454           *   Called to match end device binding requests
   2455           *
   2456           * @param  bindReq  - binding request information
   2457           * @param  SecurityUse - Security enable/disable
   2458           *
   2459           * @return  none
   2460           */
   2461          void ZDO_MatchEndDeviceBind( ZDEndDeviceBind_t *bindReq )
   2462          {
   2463            zAddrType_t dstAddr;
   2464            uint8 sendRsp = FALSE;
   2465            uint8 status;
   2466          
   2467            // Is this the first request?
   2468            if ( matchED == NULL )
   2469            {
   2470              // Create match info structure
   2471              matchED = (ZDMatchEndDeviceBind_t *)osal_mem_alloc( sizeof ( ZDMatchEndDeviceBind_t ) );
   2472              if ( matchED )
   2473              {
   2474                // Clear the structure
   2475                osal_memset( (uint8 *)matchED, 0, sizeof ( ZDMatchEndDeviceBind_t ) );
   2476          
   2477                // Copy the first request's information
   2478                if ( !ZDO_CopyMatchInfo( &(matchED->ed1), bindReq ) )
   2479                {
   2480                  status = ZDP_NO_ENTRY;
   2481                  sendRsp = TRUE;
   2482                }
   2483              }
   2484              else
   2485              {
   2486                status = ZDP_NO_ENTRY;
   2487                sendRsp = TRUE;
   2488              }
   2489          
   2490              if ( !sendRsp )
   2491              {
   2492                // Set into the correct state
   2493                matchED->state = ZDMATCH_WAIT_REQ;
   2494          
   2495                // Setup the timeout
   2496                APS_SetEndDeviceBindTimeout( AIB_MaxBindingTime, ZDO_EndDeviceBindMatchTimeoutCB );
   2497              }
   2498            }
   2499            else
   2500            {
   2501              if(matchED->state == ZDMATCH_WAIT_REQ)//when bind is running,refuse new end-device-bind-req
   2502              {
   2503                matchED->state = ZDMATCH_SENDING_BINDS;
   2504          
   2505                // Copy the 2nd request's information
   2506                if ( !ZDO_CopyMatchInfo( &(matchED->ed2), bindReq ) )
   2507                {
   2508                  status = ZDP_NO_ENTRY;
   2509                  sendRsp = TRUE;
   2510                }
   2511          
   2512                // Make a source match for ed1
   2513                matchED->ed1numMatched = ZDO_CompareClusterLists(
   2514                matchED->ed1.numOutClusters, matchED->ed1.outClusters,
   2515                matchED->ed2.numInClusters, matchED->ed2.inClusters, ZDOBuildBuf );
   2516                if ( matchED->ed1numMatched )
   2517                {
   2518                  // Save the match list
   2519                  matchED->ed1Matched = osal_mem_alloc( (short)(matchED->ed1numMatched * sizeof ( uint16 )) );
   2520                  if ( matchED->ed1Matched )
   2521                  {
   2522                    osal_memcpy( matchED->ed1Matched, ZDOBuildBuf, (matchED->ed1numMatched * sizeof ( uint16 )) );
   2523                  }
   2524                  else
   2525                  {
   2526                    // Allocation error, stop
   2527                    status = ZDP_NO_ENTRY;
   2528                    sendRsp = TRUE;
   2529                  }
   2530                }
   2531          
   2532                // Make a source match for ed2
   2533                matchED->ed2numMatched = ZDO_CompareClusterLists(
   2534                matchED->ed2.numOutClusters, matchED->ed2.outClusters,
   2535                matchED->ed1.numInClusters, matchED->ed1.inClusters, ZDOBuildBuf );
   2536                if ( matchED->ed2numMatched )
   2537                {
   2538                  // Save the match list
   2539                  matchED->ed2Matched = osal_mem_alloc( (short)(matchED->ed2numMatched * sizeof ( uint16 )) );
   2540                  if ( matchED->ed2Matched )
   2541                  {
   2542                    osal_memcpy( matchED->ed2Matched, ZDOBuildBuf, (matchED->ed2numMatched * sizeof ( uint16 )) );
   2543                  }
   2544                  else
   2545                  {
   2546                    // Allocation error, stop
   2547                    status = ZDP_NO_ENTRY;
   2548                    sendRsp = TRUE;
   2549                  }
   2550                }
   2551          
   2552                if ( (sendRsp == FALSE) && (matchED->ed1numMatched || matchED->ed2numMatched) )
   2553                {
   2554                  // Do the first unbind/bind state
   2555                  ZDMatchSendState( ZDMATCH_REASON_START, ZDP_SUCCESS, 0 );
   2556                }
   2557                else
   2558                {
   2559                  status = ZDP_NO_MATCH;
   2560                  sendRsp = TRUE;
   2561                }
   2562              }
   2563              else
   2564              {
   2565                status = ZDP_NO_ENTRY;
   2566                dstAddr.addrMode = Addr16Bit;
   2567                dstAddr.addr.shortAddr = bindReq->srcAddr;
   2568                ZDP_EndDeviceBindRsp( bindReq->TransSeq, &dstAddr, status, bindReq->SecurityUse );
   2569                return;
   2570              }
   2571            }
   2572          
   2573            if ( sendRsp )
   2574            {
   2575              // send response to this requester
   2576              dstAddr.addrMode = Addr16Bit;
   2577              dstAddr.addr.shortAddr = bindReq->srcAddr;
   2578              ZDP_EndDeviceBindRsp( bindReq->TransSeq, &dstAddr, status, bindReq->SecurityUse );
   2579          
   2580              if ( matchED->state == ZDMATCH_SENDING_BINDS )
   2581              {
   2582                // send response to first requester
   2583                dstAddr.addrMode = Addr16Bit;
   2584                dstAddr.addr.shortAddr = matchED->ed1.srcAddr;
   2585                ZDP_EndDeviceBindRsp( matchED->ed1.TransSeq, &dstAddr, status, matchED->ed1.SecurityUse );
   2586              }
   2587          
   2588              // Process ended - release memory used
   2589              ZDO_RemoveMatchMemory();
   2590            }
   2591          }
   2592          #endif
   2593          
   2594          /*********************************************************************
   2595           * @fn      ZDO_RemoveMatchMemory()
   2596           *
   2597           * @brief   Called to clear the memory used for the end device bind.
   2598           *
   2599           * @param  none
   2600           *
   2601           * @return  none
   2602           */
   2603          static void ZDO_RemoveMatchMemory( void )
   2604          {
   2605            if ( matchED != NULL )
   2606            {
   2607              if ( matchED->ed2Matched != NULL )
   2608              {
   2609                osal_mem_free( matchED->ed2Matched );
   2610              }
   2611              if ( matchED->ed1Matched != NULL )
   2612              {
   2613                osal_mem_free( matchED->ed1Matched );
   2614              }
   2615              if ( matchED->ed1.inClusters != NULL )
   2616              {
   2617                osal_mem_free( matchED->ed1.inClusters );
   2618              }
   2619              if ( matchED->ed1.outClusters != NULL )
   2620              {
   2621                osal_mem_free( matchED->ed1.outClusters );
   2622              }
   2623              if ( matchED->ed2.inClusters != NULL )
   2624              {
   2625                osal_mem_free( matchED->ed2.inClusters );
   2626              }
   2627              if ( matchED->ed2.outClusters != NULL )
   2628              {
   2629                osal_mem_free( matchED->ed2.outClusters );
   2630              }
   2631          
   2632              osal_mem_free( matchED );
   2633              matchED = (ZDMatchEndDeviceBind_t *)NULL;
   2634            }
   2635          }
   2636          
   2637          /*********************************************************************
   2638           * @fn      ZDO_CopyMatchInfo()
   2639           *
   2640           * @brief   Called to copy memory used for the end device bind.
   2641           *
   2642           * @param  srcReq - source information
   2643           * @param  dstReq - destination location
   2644           *
   2645           * @return  TRUE if copy was successful.
   2646           */
   2647          static uint8 ZDO_CopyMatchInfo( ZDEndDeviceBind_t *destReq, ZDEndDeviceBind_t *srcReq )
   2648          {
   2649            uint8 allOK = TRUE;
   2650          
   2651            // Copy bind information into the match info structure
   2652            osal_memcpy( (uint8 *)destReq, srcReq, sizeof ( ZDEndDeviceBind_t ) );
   2653          
   2654            // Initialize the destination cluster pointers
   2655            destReq->inClusters = NULL;
   2656            destReq->outClusters = NULL;
   2657          
   2658            // Copy input cluster IDs
   2659            if ( srcReq->numInClusters )
   2660            {
   2661              destReq->inClusters = osal_mem_alloc( (short)(srcReq->numInClusters * sizeof ( uint16 )) );
   2662              if ( destReq->inClusters )
   2663              {
   2664                // Copy the clusters
   2665                osal_memcpy( (uint8*)(destReq->inClusters), (uint8 *)(srcReq->inClusters),
   2666                                (srcReq->numInClusters * sizeof ( uint16 )) );
   2667              }
   2668              else
   2669              {
   2670                allOK = FALSE;
   2671              }
   2672            }
   2673          
   2674            // Copy output cluster IDs
   2675            if ( srcReq->numOutClusters )
   2676            {
   2677              destReq->outClusters = osal_mem_alloc( (short)(srcReq->numOutClusters * sizeof ( uint16 )) );
   2678              if ( destReq->outClusters )
   2679              {
   2680                // Copy the clusters
   2681                osal_memcpy( (uint8 *)(destReq->outClusters), (uint8 *)(srcReq->outClusters),
   2682                                (srcReq->numOutClusters * sizeof ( uint16 )) );
   2683              }
   2684              else
   2685              {
   2686                allOK = FALSE;
   2687              }
   2688            }
   2689          
   2690            if ( allOK == FALSE )
   2691            {
   2692              if ( destReq->inClusters != NULL )
   2693              {
   2694                osal_mem_free( destReq->inClusters );
   2695              }
   2696              if ( destReq->outClusters != NULL )
   2697              {
   2698                osal_mem_free( destReq->outClusters );
   2699              }
   2700            }
   2701          
   2702            return ( allOK );
   2703          }
   2704          
   2705          /*********************************************************************
   2706           * @fn      ZDMatchSendState()
   2707           *
   2708           * @brief   State machine for the End device match message algorithm.
   2709           *
   2710           * @param  reason - state of algoritm
   2711           * @param  status - initial message status
   2712           * @param  TransSeq - next transaction sequence number
   2713           *
   2714           * @return  FALSE if error and we are not currently matching, TRUE
   2715           *          if success.
   2716           */
   2717          uint8 ZDMatchSendState( uint8 reason, uint8 status, uint8 TransSeq )
   2718          {
   2719            uint8 *dstIEEEAddr = NULL;
   2720            uint8 dstEP = 0xFF;
   2721            zAddrType_t dstAddr;
   2722            zAddrType_t destinationAddr;
   2723            uint16 msgType;
   2724            uint16 clusterID = 0xFFFF;
   2725            ZDEndDeviceBind_t *ed = NULL;
   2726            uint8 rspStatus = ZDP_SUCCESS;
   2727          
   2728            if ( matchED == NULL )
   2729            {
   2730              return ( FALSE );
   2731            }
   2732          
   2733            // Check sequence number
   2734            if ( reason == ZDMATCH_REASON_BIND_RSP || reason == ZDMATCH_REASON_UNBIND_RSP )
   2735            {
   2736              if ( TransSeq != matchED->transSeq )
   2737              {
   2738                return( FALSE ); // ignore the message
   2739              }
   2740            }
   2741          
   2742            // turn off timer
   2743            APS_SetEndDeviceBindTimeout( 0, ZDO_EndDeviceBindMatchTimeoutCB );
   2744          
   2745            if ( reason == ZDMATCH_REASON_TIMEOUT )
   2746            {
   2747              rspStatus = ZDP_TIMEOUT;    // The process will stop
   2748            }
   2749          
   2750            if ( reason == ZDMATCH_REASON_START || reason == ZDMATCH_REASON_BIND_RSP )
   2751            {
   2752              matchED->sending = ZDMATCH_SENDING_UNBIND;
   2753          
   2754              if ( reason == ZDMATCH_REASON_BIND_RSP && status != ZDP_SUCCESS )
   2755              {
   2756                rspStatus = status;
   2757              }
   2758            }
   2759            else if ( reason == ZDMATCH_REASON_UNBIND_RSP )
   2760            {
   2761              if ( status == ZDP_SUCCESS )
   2762              {
   2763                matchED->sending = ZDMATCH_SENDING_UNBIND;
   2764              }
   2765              else
   2766              {
   2767                matchED->sending = ZDMATCH_SENDING_BIND;
   2768              }
   2769            }
   2770          
   2771            if ( reason != ZDMATCH_REASON_START && matchED->sending == ZDMATCH_SENDING_UNBIND )
   2772            {
   2773              // Move to the next cluster ID
   2774              if ( matchED->ed1numMatched )
   2775              {
   2776                matchED->ed1numMatched--;
   2777              }
   2778              else if ( matchED->ed2numMatched )
   2779              {
   2780                matchED->ed2numMatched--;
   2781              }
   2782            }
   2783          
   2784            // What message do we send now
   2785            if ( matchED->ed1numMatched )
   2786            {
   2787              ed = &(matchED->ed1);
   2788              clusterID = matchED->ed1Matched[matchED->ed1numMatched-1];
   2789              dstIEEEAddr = matchED->ed2.ieeeAddr;
   2790              dstEP = matchED->ed2.endpoint;
   2791            }
   2792            else if ( matchED->ed2numMatched )
   2793            {
   2794              ed = &(matchED->ed2);
   2795              clusterID = matchED->ed2Matched[matchED->ed2numMatched-1];
   2796              dstIEEEAddr = matchED->ed1.ieeeAddr;
   2797              dstEP = matchED->ed1.endpoint;
   2798            }
   2799          
   2800            dstAddr.addrMode = Addr16Bit;
   2801          
   2802            // Send the next message
   2803            if ( (rspStatus == ZDP_SUCCESS) && ed )
   2804            {
   2805              // Send unbind/bind message to source
   2806              if ( matchED->sending == ZDMATCH_SENDING_UNBIND )
   2807              {
   2808                msgType = Unbind_req;
   2809              }
   2810              else
   2811              {
   2812                msgType = Bind_req;
   2813              }
   2814          
   2815              dstAddr.addr.shortAddr = ed->srcAddr;
   2816          
   2817              // Save off the transaction sequence number
   2818              matchED->transSeq = ZDP_TransID;
   2819          
   2820              destinationAddr.addrMode = Addr64Bit;
   2821              osal_cpyExtAddr( destinationAddr.addr.extAddr, dstIEEEAddr );
   2822          
   2823              ZDP_BindUnbindReq( msgType, &dstAddr, ed->ieeeAddr, ed->endpoint, clusterID,
   2824                  &destinationAddr, dstEP, ed->SecurityUse );
   2825          
   2826              // Set timeout for response
   2827              APS_SetEndDeviceBindTimeout( AIB_MaxBindingTime, ZDO_EndDeviceBindMatchTimeoutCB );
   2828            }
   2829            else
   2830            {
   2831              // Send the response messages to requesting devices
   2832              // send response to first requester
   2833              dstAddr.addr.shortAddr = matchED->ed1.srcAddr;
   2834              ZDP_EndDeviceBindRsp( matchED->ed1.TransSeq, &dstAddr, rspStatus, matchED->ed1.SecurityUse );
   2835          
   2836              // send response to second requester
   2837              if ( matchED->state == ZDMATCH_SENDING_BINDS )
   2838              {
   2839                dstAddr.addr.shortAddr = matchED->ed2.srcAddr;
   2840                ZDP_EndDeviceBindRsp( matchED->ed2.TransSeq, &dstAddr, rspStatus, matchED->ed2.SecurityUse );
   2841              }
   2842          
   2843              // Process ended - release memory used
   2844              ZDO_RemoveMatchMemory();
   2845            }
   2846          
   2847            return ( TRUE );
   2848          }
   2849          
   2850          /*********************************************************************
   2851           * @fn      ZDO_EndDeviceBindMatchTimeoutCB()
   2852           *
   2853           * @brief   End device bind timeout.
   2854           *
   2855           * @param  none
   2856           *
   2857           * @return  none
   2858           */
   2859          static void ZDO_EndDeviceBindMatchTimeoutCB( void )
   2860          {
   2861            ZDMatchSendState( ZDMATCH_REASON_TIMEOUT, ZDP_TIMEOUT, 0 );
   2862          }
   2863          #endif // ZG_BUILD_COORDINATOR_TYPE
   2864          
   2865          /*********************************************************************
   2866           * ZDO MESSAGE PARSING API FUNCTIONS
   2867           */
   2868          
   2869          #ifdef ZDO_ENDDEVICEBIND_RESPONSE
   2870          /*********************************************************************
   2871           * @fn          ZDO_ParseEndDeviceBindReq
   2872           *
   2873           * @brief       This function parses the End_Device_Bind_req message.
   2874           *
   2875           *     NOTE:  The clusters lists in bindReq are allocated in this
   2876           *            function and must be freed by that calling function.
   2877           *
   2878           * @param       inMsg  - incoming message (request)
   2879           * @param       bindReq - pointer to place to parse message to
   2880           *
   2881           * @return      none
   2882           */

   \                                 In  segment BANKED_CODE, align 1, keep-with-next
   2883          void ZDO_ParseEndDeviceBindReq( zdoIncomingMsg_t *inMsg, ZDEndDeviceBind_t *bindReq )
   \                     ZDO_ParseEndDeviceBindReq:
   2884          {
   \   000000                REQUIRE ?V0
   \   000000                REQUIRE ?V1
   \   000000                REQUIRE ?V2
   \   000000                REQUIRE ?V3
   \   000000                REQUIRE ?V4
   \   000000                REQUIRE ?V5
   \   000000   74F2         MOV       A,#-0xe
   \   000002   12....       LCALL     ?BANKED_ENTER_XDATA
   \   000005                ; Saved register size: 14
   \   000005                ; Auto size: 0
   \   000005   8A..         MOV       ?V2,R2
   \   000007   8B..         MOV       ?V3,R3
   \   000009   8C..         MOV       ?V0,R4
   \   00000B   8D..         MOV       ?V1,R5
   2885            uint8 *msg;
   2886          
   2887            // Parse the message
   2888            bindReq->TransSeq = inMsg->TransSeq;
   \   00000D   E5..         MOV       A,?V2
   \   00000F   240F         ADD       A,#0xf
   \   000011   F582         MOV       DPL,A
   \   000013   E4           CLR       A
   \   000014   35..         ADDC      A,?V3
   \   000016   F583         MOV       DPH,A
   \   000018   E0           MOVX      A,@DPTR
   \   000019   C0E0         PUSH      A
   \   00001B   85..82       MOV       DPL,?V0
   \   00001E   85..83       MOV       DPH,?V1
   \   000021   D0E0         POP       A
   \   000023   F0           MOVX      @DPTR,A
   2889            bindReq->srcAddr = inMsg->srcAddr.addr.shortAddr;
   \   000024   85..82       MOV       DPL,?V2
   \   000027   85..83       MOV       DPH,?V3
   \   00002A   A3           INC       DPTR
   \   00002B   A3           INC       DPTR
   \   00002C   E0           MOVX      A,@DPTR
   \   00002D   F8           MOV       R0,A
   \   00002E   A3           INC       DPTR
   \   00002F   E0           MOVX      A,@DPTR
   \   000030   F9           MOV       R1,A
   \   000031   85..82       MOV       DPL,?V0
   \   000034   85..83       MOV       DPH,?V1
   \   000037   A3           INC       DPTR
   \   000038   A3           INC       DPTR
   \   000039   E8           MOV       A,R0
   \   00003A   F0           MOVX      @DPTR,A
   \   00003B   A3           INC       DPTR
   \   00003C   E9           MOV       A,R1
   \   00003D   F0           MOVX      @DPTR,A
   2890            bindReq->SecurityUse = inMsg->SecurityUse;
   \   00003E   E5..         MOV       A,?V2
   \   000040   240E         ADD       A,#0xe
   \   000042   F582         MOV       DPL,A
   \   000044   E4           CLR       A
   \   000045   35..         ADDC      A,?V3
   \   000047   F583         MOV       DPH,A
   \   000049   E0           MOVX      A,@DPTR
   \   00004A   C0E0         PUSH      A
   \   00004C   85..82       MOV       DPL,?V0
   \   00004F   85..83       MOV       DPH,?V1
   \   000052   A3           INC       DPTR
   \   000053   D0E0         POP       A
   \   000055   F0           MOVX      @DPTR,A
   2891            msg = inMsg->asdu;
   \   000056   E5..         MOV       A,?V2
   \   000058   2413         ADD       A,#0x13
   \   00005A   F582         MOV       DPL,A
   \   00005C   E4           CLR       A
   \   00005D   35..         ADDC      A,?V3
   \   00005F   F583         MOV       DPH,A
   \   000061   E0           MOVX      A,@DPTR
   \   000062   F8           MOV       R0,A
   \   000063   A3           INC       DPTR
   \   000064   E0           MOVX      A,@DPTR
   \   000065   F9           MOV       R1,A
   \   000066   E8           MOV       A,R0
   \   000067   FE           MOV       R6,A
   \   000068   E9           MOV       A,R1
   \   000069   FF           MOV       R7,A
   2892          
   2893            bindReq->localCoordinator = BUILD_UINT16( msg[0], msg[1] );
   \   00006A   8E82         MOV       DPL,R6
   \   00006C   8F83         MOV       DPH,R7
   \   00006E   E0           MOVX      A,@DPTR
   \   00006F   FA           MOV       R2,A
   \   000070   7B00         MOV       R3,#0x0
   \   000072   8E82         MOV       DPL,R6
   \   000074   8F83         MOV       DPH,R7
   \   000076   A3           INC       DPTR
   \   000077   E0           MOVX      A,@DPTR
   \   000078   F8           MOV       R0,A
   \   000079   7900         MOV       R1,#0x0
   \   00007B   E4           CLR       A
   \   00007C   C8           XCH       A,R0
   \   00007D   F9           MOV       R1,A
   \   00007E   EA           MOV       A,R2
   \   00007F   28           ADD       A,R0
   \   000080   F8           MOV       R0,A
   \   000081   EB           MOV       A,R3
   \   000082   39           ADDC      A,R1
   \   000083   F9           MOV       R1,A
   \   000084   85..82       MOV       DPL,?V0
   \   000087   85..83       MOV       DPH,?V1
   \   00008A   A3           INC       DPTR
   \   00008B   A3           INC       DPTR
   \   00008C   A3           INC       DPTR
   \   00008D   A3           INC       DPTR
   \   00008E   E8           MOV       A,R0
   \   00008F   F0           MOVX      @DPTR,A
   \   000090   A3           INC       DPTR
   \   000091   E9           MOV       A,R1
   \   000092   F0           MOVX      @DPTR,A
   2894            msg += 2;
   \   000093   EE           MOV       A,R6
   \   000094   2402         ADD       A,#0x2
   \   000096   FE           MOV       R6,A
   \   000097   5001         JNC       ??ZDO_ParseEndDeviceBindReq_0
   \   000099   0F           INC       R7
   2895          
   2896            osal_cpyExtAddr( bindReq->ieeeAddr, msg );
   \                     ??ZDO_ParseEndDeviceBindReq_0:
   \   00009A                ; Setup parameters for call to function sAddrExtCpy
   \   00009A   EE           MOV       A,R6
   \   00009B   FC           MOV       R4,A
   \   00009C   EF           MOV       A,R7
   \   00009D   FD           MOV       R5,A
   \   00009E   E5..         MOV       A,?V0
   \   0000A0   2406         ADD       A,#0x6
   \   0000A2   FA           MOV       R2,A
   \   0000A3   E4           CLR       A
   \   0000A4   35..         ADDC      A,?V1
   \   0000A6   FB           MOV       R3,A
   \   0000A7   12....       LCALL     `??sAddrExtCpy::?relay`; Banked call to: sAddrExtCpy
   2897            msg += Z_EXTADDR_LEN;
   \   0000AA   EE           MOV       A,R6
   \   0000AB   2408         ADD       A,#0x8
   \   0000AD   FE           MOV       R6,A
   \   0000AE   5001         JNC       ??ZDO_ParseEndDeviceBindReq_1
   \   0000B0   0F           INC       R7
   2898          
   2899            bindReq->endpoint = *msg++;
   \                     ??ZDO_ParseEndDeviceBindReq_1:
   \   0000B1   8E82         MOV       DPL,R6
   \   0000B3   8F83         MOV       DPH,R7
   \   0000B5   E0           MOVX      A,@DPTR
   \   0000B6   C0E0         PUSH      A
   \   0000B8   E5..         MOV       A,?V0
   \   0000BA   240E         ADD       A,#0xe
   \   0000BC   F582         MOV       DPL,A
   \   0000BE   E4           CLR       A
   \   0000BF   35..         ADDC      A,?V1
   \   0000C1   F583         MOV       DPH,A
   \   0000C3   D0E0         POP       A
   \   0000C5   F0           MOVX      @DPTR,A
   \   0000C6   8E82         MOV       DPL,R6
   \   0000C8   8F83         MOV       DPH,R7
   \   0000CA   A3           INC       DPTR
   \   0000CB   AE82         MOV       R6,DPL
   \   0000CD   AF83         MOV       R7,DPH
   2900            bindReq->profileID = BUILD_UINT16( msg[0], msg[1] );
   \   0000CF   8E82         MOV       DPL,R6
   \   0000D1   8F83         MOV       DPH,R7
   \   0000D3   E0           MOVX      A,@DPTR
   \   0000D4   FA           MOV       R2,A
   \   0000D5   7B00         MOV       R3,#0x0
   \   0000D7   8E82         MOV       DPL,R6
   \   0000D9   8F83         MOV       DPH,R7
   \   0000DB   A3           INC       DPTR
   \   0000DC   E0           MOVX      A,@DPTR
   \   0000DD   F8           MOV       R0,A
   \   0000DE   7900         MOV       R1,#0x0
   \   0000E0   E4           CLR       A
   \   0000E1   C8           XCH       A,R0
   \   0000E2   F9           MOV       R1,A
   \   0000E3   EA           MOV       A,R2
   \   0000E4   28           ADD       A,R0
   \   0000E5   F8           MOV       R0,A
   \   0000E6   EB           MOV       A,R3
   \   0000E7   39           ADDC      A,R1
   \   0000E8   F9           MOV       R1,A
   \   0000E9   E5..         MOV       A,?V0
   \   0000EB   240F         ADD       A,#0xf
   \   0000ED   F582         MOV       DPL,A
   \   0000EF   E4           CLR       A
   \   0000F0   35..         ADDC      A,?V1
   \   0000F2   F583         MOV       DPH,A
   \   0000F4   E8           MOV       A,R0
   \   0000F5   F0           MOVX      @DPTR,A
   \   0000F6   A3           INC       DPTR
   \   0000F7   E9           MOV       A,R1
   \   0000F8   F0           MOVX      @DPTR,A
   2901            msg += 2;
   \   0000F9   EE           MOV       A,R6
   \   0000FA   2402         ADD       A,#0x2
   \   0000FC   FE           MOV       R6,A
   \   0000FD   5001         JNC       ??ZDO_ParseEndDeviceBindReq_2
   \   0000FF   0F           INC       R7
   2902          
   2903            bindReq->inClusters = NULL;
   \                     ??ZDO_ParseEndDeviceBindReq_2:
   \   000100   E5..         MOV       A,?V0
   \   000102   2412         ADD       A,#0x12
   \   000104   F582         MOV       DPL,A
   \   000106   E4           CLR       A
   \   000107   35..         ADDC      A,?V1
   \   000109   F583         MOV       DPH,A
   \   00010B   7400         MOV       A,#0x0
   \   00010D   F0           MOVX      @DPTR,A
   \   00010E   A3           INC       DPTR
   \   00010F   7400         MOV       A,#0x0
   \   000111   F0           MOVX      @DPTR,A
   2904            bindReq->outClusters = NULL;
   \   000112   E5..         MOV       A,?V0
   \   000114   2415         ADD       A,#0x15
   \   000116   F582         MOV       DPL,A
   \   000118   E4           CLR       A
   \   000119   35..         ADDC      A,?V1
   \   00011B   F583         MOV       DPH,A
   \   00011D   7400         MOV       A,#0x0
   \   00011F   F0           MOVX      @DPTR,A
   \   000120   A3           INC       DPTR
   \   000121   7400         MOV       A,#0x0
   \   000123   F0           MOVX      @DPTR,A
   2905          
   2906            if ((bindReq->numInClusters = *msg++) &&
   2907                (bindReq->inClusters = (uint16*)osal_mem_alloc( (bindReq->numInClusters * sizeof( uint16 )))))
   \   000124   8E82         MOV       DPL,R6
   \   000126   8F83         MOV       DPH,R7
   \   000128   E0           MOVX      A,@DPTR
   \   000129   C0E0         PUSH      A
   \   00012B   E5..         MOV       A,?V0
   \   00012D   2411         ADD       A,#0x11
   \   00012F   F582         MOV       DPL,A
   \   000131   E4           CLR       A
   \   000132   35..         ADDC      A,?V1
   \   000134   F583         MOV       DPH,A
   \   000136   D0E0         POP       A
   \   000138   F0           MOVX      @DPTR,A
   \   000139   8E82         MOV       DPL,R6
   \   00013B   8F83         MOV       DPH,R7
   \   00013D   A3           INC       DPTR
   \   00013E   AE82         MOV       R6,DPL
   \   000140   AF83         MOV       R7,DPH
   \   000142   E5..         MOV       A,?V0
   \   000144   2411         ADD       A,#0x11
   \   000146   F582         MOV       DPL,A
   \   000148   E4           CLR       A
   \   000149   35..         ADDC      A,?V1
   \   00014B   F583         MOV       DPH,A
   \   00014D   E0           MOVX      A,@DPTR
   \   00014E   6079         JZ        ??ZDO_ParseEndDeviceBindReq_3
   \   000150                ; Setup parameters for call to function osal_mem_alloc
   \   000150   E5..         MOV       A,?V0
   \   000152   2411         ADD       A,#0x11
   \   000154   F582         MOV       DPL,A
   \   000156   E4           CLR       A
   \   000157   35..         ADDC      A,?V1
   \   000159   F583         MOV       DPH,A
   \   00015B   E0           MOVX      A,@DPTR
   \   00015C   FA           MOV       R2,A
   \   00015D   7B00         MOV       R3,#0x0
   \   00015F   EA           MOV       A,R2
   \   000160   75F002       MOV       B,#0x2
   \   000163   A4           MUL       AB
   \   000164   CA           XCH       A,R2
   \   000165   A8F0         MOV       R0,B
   \   000167   75F000       MOV       B,#0x0
   \   00016A   A4           MUL       AB
   \   00016B   28           ADD       A,R0
   \   00016C   F8           MOV       R0,A
   \   00016D   75F002       MOV       B,#0x2
   \   000170   EB           MOV       A,R3
   \   000171   A4           MUL       AB
   \   000172   28           ADD       A,R0
   \   000173   FB           MOV       R3,A
   \   000174   12....       LCALL     `??osal_mem_alloc::?relay`; Banked call to: osal_mem_alloc
   \   000177   E5..         MOV       A,?V0
   \   000179   2412         ADD       A,#0x12
   \   00017B   F582         MOV       DPL,A
   \   00017D   E4           CLR       A
   \   00017E   35..         ADDC      A,?V1
   \   000180   F583         MOV       DPH,A
   \   000182   EA           MOV       A,R2
   \   000183   F0           MOVX      @DPTR,A
   \   000184   A3           INC       DPTR
   \   000185   EB           MOV       A,R3
   \   000186   F0           MOVX      @DPTR,A
   \   000187   E5..         MOV       A,?V0
   \   000189   2412         ADD       A,#0x12
   \   00018B   F582         MOV       DPL,A
   \   00018D   E4           CLR       A
   \   00018E   35..         ADDC      A,?V1
   \   000190   F583         MOV       DPH,A
   \   000192   E0           MOVX      A,@DPTR
   \   000193   F8           MOV       R0,A
   \   000194   A3           INC       DPTR
   \   000195   E0           MOVX      A,@DPTR
   \   000196   F9           MOV       R1,A
   \   000197   E8           MOV       A,R0
   \   000198   49           ORL       A,R1
   \   000199   602E         JZ        ??ZDO_ParseEndDeviceBindReq_3
   2908            {
   2909              msg = ZDO_ConvertOTAClusters( bindReq->numInClusters, msg, bindReq->inClusters );
   \   00019B                ; Setup parameters for call to function ZDO_ConvertOTAClusters
   \   00019B   E5..         MOV       A,?V0
   \   00019D   2412         ADD       A,#0x12
   \   00019F   F582         MOV       DPL,A
   \   0001A1   E4           CLR       A
   \   0001A2   35..         ADDC      A,?V1
   \   0001A4   F583         MOV       DPH,A
   \   0001A6   E0           MOVX      A,@DPTR
   \   0001A7   FC           MOV       R4,A
   \   0001A8   A3           INC       DPTR
   \   0001A9   E0           MOVX      A,@DPTR
   \   0001AA   FD           MOV       R5,A
   \   0001AB   EE           MOV       A,R6
   \   0001AC   FA           MOV       R2,A
   \   0001AD   EF           MOV       A,R7
   \   0001AE   FB           MOV       R3,A
   \   0001AF   E5..         MOV       A,?V0
   \   0001B1   2411         ADD       A,#0x11
   \   0001B3   F582         MOV       DPL,A
   \   0001B5   E4           CLR       A
   \   0001B6   35..         ADDC      A,?V1
   \   0001B8   F583         MOV       DPH,A
   \   0001BA   E0           MOVX      A,@DPTR
   \   0001BB   F9           MOV       R1,A
   \   0001BC   12....       LCALL     `??ZDO_ConvertOTAClusters::?relay`; Banked call to: ZDO_ConvertOTAClusters
   \   0001BF   8A..         MOV       ?V4,R2
   \   0001C1   8B..         MOV       ?V5,R3
   \   0001C3   AE..         MOV       R6,?V4
   \   0001C5   AF..         MOV       R7,?V5
   \   0001C7   800E         SJMP      ??ZDO_ParseEndDeviceBindReq_4
   2910            }
   2911            else
   2912            {
   2913              bindReq->numInClusters = 0;
   \                     ??ZDO_ParseEndDeviceBindReq_3:
   \   0001C9   E5..         MOV       A,?V0
   \   0001CB   2411         ADD       A,#0x11
   \   0001CD   F582         MOV       DPL,A
   \   0001CF   E4           CLR       A
   \   0001D0   35..         ADDC      A,?V1
   \   0001D2   F583         MOV       DPH,A
   \   0001D4   7400         MOV       A,#0x0
   \   0001D6   F0           MOVX      @DPTR,A
   2914            }
   2915          
   2916            if ((bindReq->numOutClusters = *msg++) &&
   2917                (bindReq->outClusters = (uint16*)osal_mem_alloc((bindReq->numOutClusters * sizeof(uint16)))))
   \                     ??ZDO_ParseEndDeviceBindReq_4:
   \   0001D7   8E82         MOV       DPL,R6
   \   0001D9   8F83         MOV       DPH,R7
   \   0001DB   E0           MOVX      A,@DPTR
   \   0001DC   C0E0         PUSH      A
   \   0001DE   E5..         MOV       A,?V0
   \   0001E0   2414         ADD       A,#0x14
   \   0001E2   F582         MOV       DPL,A
   \   0001E4   E4           CLR       A
   \   0001E5   35..         ADDC      A,?V1
   \   0001E7   F583         MOV       DPH,A
   \   0001E9   D0E0         POP       A
   \   0001EB   F0           MOVX      @DPTR,A
   \   0001EC   8E82         MOV       DPL,R6
   \   0001EE   8F83         MOV       DPH,R7
   \   0001F0   A3           INC       DPTR
   \   0001F1   AE82         MOV       R6,DPL
   \   0001F3   AF83         MOV       R7,DPH
   \   0001F5   E5..         MOV       A,?V0
   \   0001F7   2414         ADD       A,#0x14
   \   0001F9   F582         MOV       DPL,A
   \   0001FB   E4           CLR       A
   \   0001FC   35..         ADDC      A,?V1
   \   0001FE   F583         MOV       DPH,A
   \   000200   E0           MOVX      A,@DPTR
   \   000201   6079         JZ        ??ZDO_ParseEndDeviceBindReq_5
   \   000203                ; Setup parameters for call to function osal_mem_alloc
   \   000203   E5..         MOV       A,?V0
   \   000205   2414         ADD       A,#0x14
   \   000207   F582         MOV       DPL,A
   \   000209   E4           CLR       A
   \   00020A   35..         ADDC      A,?V1
   \   00020C   F583         MOV       DPH,A
   \   00020E   E0           MOVX      A,@DPTR
   \   00020F   FA           MOV       R2,A
   \   000210   7B00         MOV       R3,#0x0
   \   000212   EA           MOV       A,R2
   \   000213   75F002       MOV       B,#0x2
   \   000216   A4           MUL       AB
   \   000217   CA           XCH       A,R2
   \   000218   A8F0         MOV       R0,B
   \   00021A   75F000       MOV       B,#0x0
   \   00021D   A4           MUL       AB
   \   00021E   28           ADD       A,R0
   \   00021F   F8           MOV       R0,A
   \   000220   75F002       MOV       B,#0x2
   \   000223   EB           MOV       A,R3
   \   000224   A4           MUL       AB
   \   000225   28           ADD       A,R0
   \   000226   FB           MOV       R3,A
   \   000227   12....       LCALL     `??osal_mem_alloc::?relay`; Banked call to: osal_mem_alloc
   \   00022A   E5..         MOV       A,?V0
   \   00022C   2415         ADD       A,#0x15
   \   00022E   F582         MOV       DPL,A
   \   000230   E4           CLR       A
   \   000231   35..         ADDC      A,?V1
   \   000233   F583         MOV       DPH,A
   \   000235   EA           MOV       A,R2
   \   000236   F0           MOVX      @DPTR,A
   \   000237   A3           INC       DPTR
   \   000238   EB           MOV       A,R3
   \   000239   F0           MOVX      @DPTR,A
   \   00023A   E5..         MOV       A,?V0
   \   00023C   2415         ADD       A,#0x15
   \   00023E   F582         MOV       DPL,A
   \   000240   E4           CLR       A
   \   000241   35..         ADDC      A,?V1
   \   000243   F583         MOV       DPH,A
   \   000245   E0           MOVX      A,@DPTR
   \   000246   F8           MOV       R0,A
   \   000247   A3           INC       DPTR
   \   000248   E0           MOVX      A,@DPTR
   \   000249   F9           MOV       R1,A
   \   00024A   E8           MOV       A,R0
   \   00024B   49           ORL       A,R1
   \   00024C   602E         JZ        ??ZDO_ParseEndDeviceBindReq_5
   2918            {
   2919              msg = ZDO_ConvertOTAClusters( bindReq->numOutClusters, msg, bindReq->outClusters );
   \   00024E                ; Setup parameters for call to function ZDO_ConvertOTAClusters
   \   00024E   E5..         MOV       A,?V0
   \   000250   2415         ADD       A,#0x15
   \   000252   F582         MOV       DPL,A
   \   000254   E4           CLR       A
   \   000255   35..         ADDC      A,?V1
   \   000257   F583         MOV       DPH,A
   \   000259   E0           MOVX      A,@DPTR
   \   00025A   FC           MOV       R4,A
   \   00025B   A3           INC       DPTR
   \   00025C   E0           MOVX      A,@DPTR
   \   00025D   FD           MOV       R5,A
   \   00025E   EE           MOV       A,R6
   \   00025F   FA           MOV       R2,A
   \   000260   EF           MOV       A,R7
   \   000261   FB           MOV       R3,A
   \   000262   E5..         MOV       A,?V0
   \   000264   2414         ADD       A,#0x14
   \   000266   F582         MOV       DPL,A
   \   000268   E4           CLR       A
   \   000269   35..         ADDC      A,?V1
   \   00026B   F583         MOV       DPH,A
   \   00026D   E0           MOVX      A,@DPTR
   \   00026E   F9           MOV       R1,A
   \   00026F   12....       LCALL     `??ZDO_ConvertOTAClusters::?relay`; Banked call to: ZDO_ConvertOTAClusters
   \   000272   8A..         MOV       ?V4,R2
   \   000274   8B..         MOV       ?V5,R3
   \   000276   AE..         MOV       R6,?V4
   \   000278   AF..         MOV       R7,?V5
   \   00027A   800E         SJMP      ??ZDO_ParseEndDeviceBindReq_6
   2920            }
   2921            else
   2922            {
   2923              bindReq->numOutClusters = 0;
   \                     ??ZDO_ParseEndDeviceBindReq_5:
   \   00027C   E5..         MOV       A,?V0
   \   00027E   2414         ADD       A,#0x14
   \   000280   F582         MOV       DPL,A
   \   000282   E4           CLR       A
   \   000283   35..         ADDC      A,?V1
   \   000285   F583         MOV       DPH,A
   \   000287   7400         MOV       A,#0x0
   \   000289   F0           MOVX      @DPTR,A
   2924            }
   2925          }
   \                     ??ZDO_ParseEndDeviceBindReq_6:
   \   00028A   7F06         MOV       R7,#0x6
   \   00028C   02....       LJMP      ?BANKED_LEAVE_XDATA
   2926          #endif
   2927          
   2928          /*********************************************************************
   2929           * @fn          ZDO_ParseBindUnbindReq
   2930           *
   2931           * @brief       This function parses the Bind_req or Unbind_req message.
   2932           *
   2933           * @param       inMsg  - incoming message (request)
   2934           * @param       pReq - place to put parsed information
   2935           *
   2936           * @return      none
   2937           */

   \                                 In  segment BANKED_CODE, align 1, keep-with-next
   2938          void ZDO_ParseBindUnbindReq( zdoIncomingMsg_t *inMsg, ZDO_BindUnbindReq_t *pReq )
   \                     ZDO_ParseBindUnbindReq:
   2939          {
   \   000000                REQUIRE ?V0
   \   000000                REQUIRE ?V1
   \   000000                REQUIRE ?V2
   \   000000                REQUIRE ?V3
   \   000000   74F4         MOV       A,#-0xc
   \   000002   12....       LCALL     ?BANKED_ENTER_XDATA
   \   000005                ; Saved register size: 12
   \   000005                ; Auto size: 0
   \   000005   8A..         MOV       ?V2,R2
   \   000007   8B..         MOV       ?V3,R3
   \   000009   8C..         MOV       ?V0,R4
   \   00000B   8D..         MOV       ?V1,R5
   2940            uint8 *msg;
   2941          
   2942            msg = inMsg->asdu;
   \   00000D   E5..         MOV       A,?V2
   \   00000F   2413         ADD       A,#0x13
   \   000011   F582         MOV       DPL,A
   \   000013   E4           CLR       A
   \   000014   35..         ADDC      A,?V3
   \   000016   F583         MOV       DPH,A
   \   000018   E0           MOVX      A,@DPTR
   \   000019   F8           MOV       R0,A
   \   00001A   A3           INC       DPTR
   \   00001B   E0           MOVX      A,@DPTR
   \   00001C   F9           MOV       R1,A
   \   00001D   E8           MOV       A,R0
   \   00001E   FE           MOV       R6,A
   \   00001F   E9           MOV       A,R1
   \   000020   FF           MOV       R7,A
   2943            osal_cpyExtAddr( pReq->srcAddress, msg );
   \   000021                ; Setup parameters for call to function sAddrExtCpy
   \   000021   EE           MOV       A,R6
   \   000022   FC           MOV       R4,A
   \   000023   EF           MOV       A,R7
   \   000024   FD           MOV       R5,A
   \   000025   AA..         MOV       R2,?V0
   \   000027   AB..         MOV       R3,?V1
   \   000029   12....       LCALL     `??sAddrExtCpy::?relay`; Banked call to: sAddrExtCpy
   2944            msg += Z_EXTADDR_LEN;
   \   00002C   EE           MOV       A,R6
   \   00002D   2408         ADD       A,#0x8
   \   00002F   FE           MOV       R6,A
   \   000030   5001         JNC       ??ZDO_ParseBindUnbindReq_0
   \   000032   0F           INC       R7
   2945            pReq->srcEndpoint = *msg++;
   \                     ??ZDO_ParseBindUnbindReq_0:
   \   000033   8E82         MOV       DPL,R6
   \   000035   8F83         MOV       DPH,R7
   \   000037   E0           MOVX      A,@DPTR
   \   000038   C0E0         PUSH      A
   \   00003A   85..82       MOV       DPL,?V0
   \   00003D   85..83       MOV       DPH,?V1
   \   000040   A3           INC       DPTR
   \   000041   A3           INC       DPTR
   \   000042   A3           INC       DPTR
   \   000043   A3           INC       DPTR
   \   000044   A3           INC       DPTR
   \   000045   A3           INC       DPTR
   \   000046   A3           INC       DPTR
   \   000047   A3           INC       DPTR
   \   000048   D0E0         POP       A
   \   00004A   F0           MOVX      @DPTR,A
   \   00004B   8E82         MOV       DPL,R6
   \   00004D   8F83         MOV       DPH,R7
   \   00004F   A3           INC       DPTR
   \   000050   AE82         MOV       R6,DPL
   \   000052   AF83         MOV       R7,DPH
   2946            pReq->clusterID = BUILD_UINT16( msg[0], msg[1] );
   \   000054   8E82         MOV       DPL,R6
   \   000056   8F83         MOV       DPH,R7
   \   000058   E0           MOVX      A,@DPTR
   \   000059   FA           MOV       R2,A
   \   00005A   7B00         MOV       R3,#0x0
   \   00005C   8E82         MOV       DPL,R6
   \   00005E   8F83         MOV       DPH,R7
   \   000060   A3           INC       DPTR
   \   000061   E0           MOVX      A,@DPTR
   \   000062   F8           MOV       R0,A
   \   000063   7900         MOV       R1,#0x0
   \   000065   E4           CLR       A
   \   000066   C8           XCH       A,R0
   \   000067   F9           MOV       R1,A
   \   000068   EA           MOV       A,R2
   \   000069   28           ADD       A,R0
   \   00006A   F8           MOV       R0,A
   \   00006B   EB           MOV       A,R3
   \   00006C   39           ADDC      A,R1
   \   00006D   F9           MOV       R1,A
   \   00006E   85..82       MOV       DPL,?V0
   \   000071   85..83       MOV       DPH,?V1
   \   000074   A3           INC       DPTR
   \   000075   A3           INC       DPTR
   \   000076   A3           INC       DPTR
   \   000077   A3           INC       DPTR
   \   000078   A3           INC       DPTR
   \   000079   A3           INC       DPTR
   \   00007A   A3           INC       DPTR
   \   00007B   A3           INC       DPTR
   \   00007C   A3           INC       DPTR
   \   00007D   E8           MOV       A,R0
   \   00007E   F0           MOVX      @DPTR,A
   \   00007F   A3           INC       DPTR
   \   000080   E9           MOV       A,R1
   \   000081   F0           MOVX      @DPTR,A
   2947            msg += 2;
   \   000082   EE           MOV       A,R6
   \   000083   2402         ADD       A,#0x2
   \   000085   FE           MOV       R6,A
   \   000086   5001         JNC       ??ZDO_ParseBindUnbindReq_1
   \   000088   0F           INC       R7
   2948            pReq->dstAddress.addrMode = *msg++;
   \                     ??ZDO_ParseBindUnbindReq_1:
   \   000089   8E82         MOV       DPL,R6
   \   00008B   8F83         MOV       DPH,R7
   \   00008D   E0           MOVX      A,@DPTR
   \   00008E   C0E0         PUSH      A
   \   000090   E5..         MOV       A,?V0
   \   000092   2413         ADD       A,#0x13
   \   000094   F582         MOV       DPL,A
   \   000096   E4           CLR       A
   \   000097   35..         ADDC      A,?V1
   \   000099   F583         MOV       DPH,A
   \   00009B   D0E0         POP       A
   \   00009D   F0           MOVX      @DPTR,A
   \   00009E   8E82         MOV       DPL,R6
   \   0000A0   8F83         MOV       DPH,R7
   \   0000A2   A3           INC       DPTR
   \   0000A3   AE82         MOV       R6,DPL
   \   0000A5   AF83         MOV       R7,DPH
   2949            if ( pReq->dstAddress.addrMode == Addr64Bit )
   \   0000A7   E5..         MOV       A,?V0
   \   0000A9   2413         ADD       A,#0x13
   \   0000AB   F582         MOV       DPL,A
   \   0000AD   E4           CLR       A
   \   0000AE   35..         ADDC      A,?V1
   \   0000B0   F583         MOV       DPH,A
   \   0000B2   E0           MOVX      A,@DPTR
   \   0000B3   6403         XRL       A,#0x3
   \   0000B5   702E         JNZ       ??ZDO_ParseBindUnbindReq_2
   2950            {
   2951              osal_cpyExtAddr( pReq->dstAddress.addr.extAddr, msg );
   \   0000B7                ; Setup parameters for call to function sAddrExtCpy
   \   0000B7   EE           MOV       A,R6
   \   0000B8   FC           MOV       R4,A
   \   0000B9   EF           MOV       A,R7
   \   0000BA   FD           MOV       R5,A
   \   0000BB   E5..         MOV       A,?V0
   \   0000BD   240B         ADD       A,#0xb
   \   0000BF   FA           MOV       R2,A
   \   0000C0   E4           CLR       A
   \   0000C1   35..         ADDC      A,?V1
   \   0000C3   FB           MOV       R3,A
   \   0000C4   12....       LCALL     `??sAddrExtCpy::?relay`; Banked call to: sAddrExtCpy
   2952              msg += Z_EXTADDR_LEN;
   \   0000C7   EE           MOV       A,R6
   \   0000C8   2408         ADD       A,#0x8
   \   0000CA   FE           MOV       R6,A
   \   0000CB   5001         JNC       ??ZDO_ParseBindUnbindReq_3
   \   0000CD   0F           INC       R7
   2953              pReq->dstEndpoint = *msg;
   \                     ??ZDO_ParseBindUnbindReq_3:
   \   0000CE   8E82         MOV       DPL,R6
   \   0000D0   8F83         MOV       DPH,R7
   \   0000D2   E0           MOVX      A,@DPTR
   \   0000D3   C0E0         PUSH      A
   \   0000D5   E5..         MOV       A,?V0
   \   0000D7   2414         ADD       A,#0x14
   \   0000D9   F582         MOV       DPL,A
   \   0000DB   E4           CLR       A
   \   0000DC   35..         ADDC      A,?V1
   \   0000DE   F583         MOV       DPH,A
   \   0000E0   D0E0         POP       A
   \   0000E2   F0           MOVX      @DPTR,A
   \   0000E3   802A         SJMP      ??ZDO_ParseBindUnbindReq_4
   2954            }
   2955            else
   2956            {
   2957              // copy group address
   2958              pReq->dstAddress.addr.shortAddr = BUILD_UINT16( msg[0], msg[1] );
   \                     ??ZDO_ParseBindUnbindReq_2:
   \   0000E5   8E82         MOV       DPL,R6
   \   0000E7   8F83         MOV       DPH,R7
   \   0000E9   E0           MOVX      A,@DPTR
   \   0000EA   FA           MOV       R2,A
   \   0000EB   7B00         MOV       R3,#0x0
   \   0000ED   8E82         MOV       DPL,R6
   \   0000EF   8F83         MOV       DPH,R7
   \   0000F1   A3           INC       DPTR
   \   0000F2   E0           MOVX      A,@DPTR
   \   0000F3   F8           MOV       R0,A
   \   0000F4   7900         MOV       R1,#0x0
   \   0000F6   E4           CLR       A
   \   0000F7   C8           XCH       A,R0
   \   0000F8   F9           MOV       R1,A
   \   0000F9   EA           MOV       A,R2
   \   0000FA   28           ADD       A,R0
   \   0000FB   F8           MOV       R0,A
   \   0000FC   EB           MOV       A,R3
   \   0000FD   39           ADDC      A,R1
   \   0000FE   F9           MOV       R1,A
   \   0000FF   E5..         MOV       A,?V0
   \   000101   240B         ADD       A,#0xb
   \   000103   F582         MOV       DPL,A
   \   000105   E4           CLR       A
   \   000106   35..         ADDC      A,?V1
   \   000108   F583         MOV       DPH,A
   \   00010A   E8           MOV       A,R0
   \   00010B   F0           MOVX      @DPTR,A
   \   00010C   A3           INC       DPTR
   \   00010D   E9           MOV       A,R1
   \   00010E   F0           MOVX      @DPTR,A
   2959            }
   2960          }
   \                     ??ZDO_ParseBindUnbindReq_4:
   \   00010F   7F04         MOV       R7,#0x4
   \   000111   02....       LJMP      ?BANKED_LEAVE_XDATA
   2961          
   2962          /*********************************************************************
   2963           * @fn      ZDO_ParseAddrRsp
   2964           *
   2965           * @brief   Turns the inMsg (incoming message) into the out parsed
   2966           *          structure.
   2967           *
   2968           * @param   inMsg - incoming message
   2969           *
   2970           * @return  pointer to parsed structures.  This structure was
   2971           *          allocated using osal_mem_alloc, so it must be freed
   2972           *          by the calling function [osal_mem_free()].
   2973           */

   \                                 In  segment BANKED_CODE, align 1, keep-with-next
   2974          ZDO_NwkIEEEAddrResp_t *ZDO_ParseAddrRsp( zdoIncomingMsg_t *inMsg )
   \                     ZDO_ParseAddrRsp:
   2975          {
   \   000000                REQUIRE ?V0
   \   000000                REQUIRE ?V1
   \   000000                REQUIRE ?V2
   \   000000                REQUIRE ?V3
   \   000000                REQUIRE ?V4
   \   000000                REQUIRE ?V5
   \   000000                REQUIRE ?V6
   \   000000                REQUIRE ?V7
   \   000000   74F0         MOV       A,#-0x10
   \   000002   12....       LCALL     ?BANKED_ENTER_XDATA
   \   000005                ; Saved register size: 16
   \   000005                ; Auto size: 0
   \   000005   8A..         MOV       ?V0,R2
   \   000007   8B..         MOV       ?V1,R3
   2976            ZDO_NwkIEEEAddrResp_t *rsp;
   2977            uint8 *msg;
   2978            byte cnt = 0;
   \   000009   75..00       MOV       ?V4,#0x0
   2979          
   2980            // Calculate the number of items in the list
   2981            if ( inMsg->asduLen > (1 + Z_EXTADDR_LEN + 2) )
   \   00000C   E5..         MOV       A,?V0
   \   00000E   2410         ADD       A,#0x10
   \   000010   F582         MOV       DPL,A
   \   000012   E4           CLR       A
   \   000013   35..         ADDC      A,?V1
   \   000015   F583         MOV       DPH,A
   \   000017   E0           MOVX      A,@DPTR
   \   000018   C3           CLR       C
   \   000019   940C         SUBB      A,#0xc
   \   00001B   401E         JC        ??ZDO_ParseAddrRsp_0
   2982            {
   2983              cnt = inMsg->asdu[1 + Z_EXTADDR_LEN + 2];
   \   00001D   E5..         MOV       A,?V0
   \   00001F   2413         ADD       A,#0x13
   \   000021   F582         MOV       DPL,A
   \   000023   E4           CLR       A
   \   000024   35..         ADDC      A,?V1
   \   000026   F583         MOV       DPH,A
   \   000028   E0           MOVX      A,@DPTR
   \   000029   F8           MOV       R0,A
   \   00002A   A3           INC       DPTR
   \   00002B   E0           MOVX      A,@DPTR
   \   00002C   C8           XCH       A,R0
   \   00002D   240B         ADD       A,#0xb
   \   00002F   F582         MOV       DPL,A
   \   000031   C8           XCH       A,R0
   \   000032   3400         ADDC      A,#0x0
   \   000034   F583         MOV       DPH,A
   \   000036   E0           MOVX      A,@DPTR
   \   000037   F5..         MOV       ?V4,A
   \   000039   8003         SJMP      ??ZDO_ParseAddrRsp_1
   2984            }
   2985            else
   2986            {
   2987              cnt = 0;
   \                     ??ZDO_ParseAddrRsp_0:
   \   00003B   75..00       MOV       ?V4,#0x0
   2988            }
   2989          
   2990            // Make buffer
   2991            rsp = (ZDO_NwkIEEEAddrResp_t *)osal_mem_alloc( sizeof(ZDO_NwkIEEEAddrResp_t) + (cnt * sizeof ( uint16 )) );
   \                     ??ZDO_ParseAddrRsp_1:
   \   00003E                ; Setup parameters for call to function osal_mem_alloc
   \   00003E   E5..         MOV       A,?V4
   \   000040   F8           MOV       R0,A
   \   000041   7900         MOV       R1,#0x0
   \   000043   E8           MOV       A,R0
   \   000044   75F002       MOV       B,#0x2
   \   000047   A4           MUL       AB
   \   000048   C8           XCH       A,R0
   \   000049   AAF0         MOV       R2,B
   \   00004B   75F000       MOV       B,#0x0
   \   00004E   A4           MUL       AB
   \   00004F   2A           ADD       A,R2
   \   000050   FA           MOV       R2,A
   \   000051   75F002       MOV       B,#0x2
   \   000054   E9           MOV       A,R1
   \   000055   A4           MUL       AB
   \   000056   2A           ADD       A,R2
   \   000057   F9           MOV       R1,A
   \   000058   E8           MOV       A,R0
   \   000059   240D         ADD       A,#0xd
   \   00005B   FA           MOV       R2,A
   \   00005C   E4           CLR       A
   \   00005D   39           ADDC      A,R1
   \   00005E   FB           MOV       R3,A
   \   00005F   12....       LCALL     `??osal_mem_alloc::?relay`; Banked call to: osal_mem_alloc
   \   000062   8A..         MOV       ?V6,R2
   \   000064   8B..         MOV       ?V7,R3
   \   000066   AE..         MOV       R6,?V6
   \   000068   AF..         MOV       R7,?V7
   2992          
   2993            if ( rsp )
   \   00006A   EE           MOV       A,R6
   \   00006B   4F           ORL       A,R7
   \   00006C   7003         JNZ       $+5
   \   00006E   02....       LJMP      ??ZDO_ParseAddrRsp_2 & 0xFFFF
   2994            {
   2995              msg = inMsg->asdu;
   \   000071   E5..         MOV       A,?V0
   \   000073   2413         ADD       A,#0x13
   \   000075   F582         MOV       DPL,A
   \   000077   E4           CLR       A
   \   000078   35..         ADDC      A,?V1
   \   00007A   F583         MOV       DPH,A
   \   00007C   E0           MOVX      A,@DPTR
   \   00007D   F8           MOV       R0,A
   \   00007E   A3           INC       DPTR
   \   00007F   E0           MOVX      A,@DPTR
   \   000080   F9           MOV       R1,A
   \   000081   88..         MOV       ?V2,R0
   \   000083   89..         MOV       ?V3,R1
   2996          
   2997              rsp->status = *msg++;
   \   000085   85..82       MOV       DPL,?V2
   \   000088   85..83       MOV       DPH,?V3
   \   00008B   E0           MOVX      A,@DPTR
   \   00008C   C0E0         PUSH      A
   \   00008E   8E82         MOV       DPL,R6
   \   000090   8F83         MOV       DPH,R7
   \   000092   D0E0         POP       A
   \   000094   F0           MOVX      @DPTR,A
   \   000095   85..82       MOV       DPL,?V2
   \   000098   85..83       MOV       DPH,?V3
   \   00009B   A3           INC       DPTR
   \   00009C   8582..       MOV       ?V2,DPL
   \   00009F   8583..       MOV       ?V3,DPH
   2998              if ( rsp->status == ZDO_SUCCESS )
   \   0000A2   8E82         MOV       DPL,R6
   \   0000A4   8F83         MOV       DPH,R7
   \   0000A6   E0           MOVX      A,@DPTR
   \   0000A7   6003         JZ        $+5
   \   0000A9   02....       LJMP      ??ZDO_ParseAddrRsp_2 & 0xFFFF
   2999              {
   3000                osal_cpyExtAddr( rsp->extAddr, msg );
   \   0000AC                ; Setup parameters for call to function sAddrExtCpy
   \   0000AC   AC..         MOV       R4,?V2
   \   0000AE   AD..         MOV       R5,?V3
   \   0000B0   EE           MOV       A,R6
   \   0000B1   2403         ADD       A,#0x3
   \   0000B3   FA           MOV       R2,A
   \   0000B4   E4           CLR       A
   \   0000B5   3F           ADDC      A,R7
   \   0000B6   FB           MOV       R3,A
   \   0000B7   12....       LCALL     `??sAddrExtCpy::?relay`; Banked call to: sAddrExtCpy
   3001                msg += Z_EXTADDR_LEN;
   \   0000BA   E5..         MOV       A,?V2
   \   0000BC   2408         ADD       A,#0x8
   \   0000BE   F5..         MOV       ?V2,A
   \   0000C0   5002         JNC       ??ZDO_ParseAddrRsp_3
   \   0000C2   05..         INC       ?V3
   3002                rsp->nwkAddr = BUILD_UINT16( msg[0], msg[1] );
   \                     ??ZDO_ParseAddrRsp_3:
   \   0000C4   85..82       MOV       DPL,?V2
   \   0000C7   85..83       MOV       DPH,?V3
   \   0000CA   E0           MOVX      A,@DPTR
   \   0000CB   FA           MOV       R2,A
   \   0000CC   7B00         MOV       R3,#0x0
   \   0000CE   85..82       MOV       DPL,?V2
   \   0000D1   85..83       MOV       DPH,?V3
   \   0000D4   A3           INC       DPTR
   \   0000D5   E0           MOVX      A,@DPTR
   \   0000D6   F8           MOV       R0,A
   \   0000D7   7900         MOV       R1,#0x0
   \   0000D9   E4           CLR       A
   \   0000DA   C8           XCH       A,R0
   \   0000DB   F9           MOV       R1,A
   \   0000DC   EA           MOV       A,R2
   \   0000DD   28           ADD       A,R0
   \   0000DE   F8           MOV       R0,A
   \   0000DF   EB           MOV       A,R3
   \   0000E0   39           ADDC      A,R1
   \   0000E1   F9           MOV       R1,A
   \   0000E2   8E82         MOV       DPL,R6
   \   0000E4   8F83         MOV       DPH,R7
   \   0000E6   A3           INC       DPTR
   \   0000E7   E8           MOV       A,R0
   \   0000E8   F0           MOVX      @DPTR,A
   \   0000E9   A3           INC       DPTR
   \   0000EA   E9           MOV       A,R1
   \   0000EB   F0           MOVX      @DPTR,A
   3003          
   3004                msg += 2;
   \   0000EC   E5..         MOV       A,?V2
   \   0000EE   2402         ADD       A,#0x2
   \   0000F0   F5..         MOV       ?V2,A
   \   0000F2   5002         JNC       ??ZDO_ParseAddrRsp_4
   \   0000F4   05..         INC       ?V3
   3005                rsp->numAssocDevs = 0;
   \                     ??ZDO_ParseAddrRsp_4:
   \   0000F6   EE           MOV       A,R6
   \   0000F7   240B         ADD       A,#0xb
   \   0000F9   F582         MOV       DPL,A
   \   0000FB   E4           CLR       A
   \   0000FC   3F           ADDC      A,R7
   \   0000FD   F583         MOV       DPH,A
   \   0000FF   7400         MOV       A,#0x0
   \   000101   F0           MOVX      @DPTR,A
   3006          
   3007                // StartIndex field is only present if NumAssocDev field is non-zero.
   3008                if ( cnt > 0 )
   \   000102   E5..         MOV       A,?V4
   \   000104   7003         JNZ       $+5
   \   000106   02....       LJMP      ??ZDO_ParseAddrRsp_2 & 0xFFFF
   3009                {
   3010                  uint16 *pList = &(rsp->devList[0]);
   \   000109   EE           MOV       A,R6
   \   00010A   240D         ADD       A,#0xd
   \   00010C   F8           MOV       R0,A
   \   00010D   E4           CLR       A
   \   00010E   3F           ADDC      A,R7
   \   00010F   F9           MOV       R1,A
   3011                  byte n = cnt;
   \   000110   85....       MOV       ?V5,?V4
   3012          
   3013                  rsp->numAssocDevs = *msg++;
   \   000113   85..82       MOV       DPL,?V2
   \   000116   85..83       MOV       DPH,?V3
   \   000119   E0           MOVX      A,@DPTR
   \   00011A   C0E0         PUSH      A
   \   00011C   EE           MOV       A,R6
   \   00011D   240B         ADD       A,#0xb
   \   00011F   F582         MOV       DPL,A
   \   000121   E4           CLR       A
   \   000122   3F           ADDC      A,R7
   \   000123   F583         MOV       DPH,A
   \   000125   D0E0         POP       A
   \   000127   F0           MOVX      @DPTR,A
   \   000128   85..82       MOV       DPL,?V2
   \   00012B   85..83       MOV       DPH,?V3
   \   00012E   A3           INC       DPTR
   \   00012F   8582..       MOV       ?V2,DPL
   \   000132   8583..       MOV       ?V3,DPH
   3014                  rsp->startIndex = *msg++;
   \   000135   85..82       MOV       DPL,?V2
   \   000138   85..83       MOV       DPH,?V3
   \   00013B   E0           MOVX      A,@DPTR
   \   00013C   C0E0         PUSH      A
   \   00013E   EE           MOV       A,R6
   \   00013F   240C         ADD       A,#0xc
   \   000141   F582         MOV       DPL,A
   \   000143   E4           CLR       A
   \   000144   3F           ADDC      A,R7
   \   000145   F583         MOV       DPH,A
   \   000147   D0E0         POP       A
   \   000149   F0           MOVX      @DPTR,A
   \   00014A   85..82       MOV       DPL,?V2
   \   00014D   85..83       MOV       DPH,?V3
   \   000150   A3           INC       DPTR
   \   000151   8582..       MOV       ?V2,DPL
   \   000154   8583..       MOV       ?V3,DPH
   3015          
   3016                  while ( n != 0 )
   \                     ??ZDO_ParseAddrRsp_5:
   \   000157   E5..         MOV       A,?V5
   \   000159   603C         JZ        ??ZDO_ParseAddrRsp_2
   3017                  {
   3018                    *pList++ = BUILD_UINT16( msg[0], msg[1] );
   \   00015B   85..82       MOV       DPL,?V2
   \   00015E   85..83       MOV       DPH,?V3
   \   000161   E0           MOVX      A,@DPTR
   \   000162   FC           MOV       R4,A
   \   000163   7D00         MOV       R5,#0x0
   \   000165   85..82       MOV       DPL,?V2
   \   000168   85..83       MOV       DPH,?V3
   \   00016B   A3           INC       DPTR
   \   00016C   E0           MOVX      A,@DPTR
   \   00016D   FA           MOV       R2,A
   \   00016E   7B00         MOV       R3,#0x0
   \   000170   E4           CLR       A
   \   000171   CA           XCH       A,R2
   \   000172   FB           MOV       R3,A
   \   000173   EC           MOV       A,R4
   \   000174   2A           ADD       A,R2
   \   000175   FA           MOV       R2,A
   \   000176   ED           MOV       A,R5
   \   000177   3B           ADDC      A,R3
   \   000178   FB           MOV       R3,A
   \   000179   8882         MOV       DPL,R0
   \   00017B   8983         MOV       DPH,R1
   \   00017D   EA           MOV       A,R2
   \   00017E   F0           MOVX      @DPTR,A
   \   00017F   A3           INC       DPTR
   \   000180   EB           MOV       A,R3
   \   000181   F0           MOVX      @DPTR,A
   \   000182   E8           MOV       A,R0
   \   000183   2402         ADD       A,#0x2
   \   000185   F8           MOV       R0,A
   \   000186   5001         JNC       ??ZDO_ParseAddrRsp_6
   \   000188   09           INC       R1
   3019                    msg += sizeof( uint16 );
   \                     ??ZDO_ParseAddrRsp_6:
   \   000189   E5..         MOV       A,?V2
   \   00018B   2402         ADD       A,#0x2
   \   00018D   F5..         MOV       ?V2,A
   \   00018F   5002         JNC       ??ZDO_ParseAddrRsp_7
   \   000191   05..         INC       ?V3
   3020                    n--;
   \                     ??ZDO_ParseAddrRsp_7:
   \   000193   15..         DEC       ?V5
   \   000195   80C0         SJMP      ??ZDO_ParseAddrRsp_5
   3021                  }
   3022                }
   3023              }
   3024            }
   3025          
   3026            return ( rsp );
   \                     ??ZDO_ParseAddrRsp_2:
   \   000197   EE           MOV       A,R6
   \   000198   FA           MOV       R2,A
   \   000199   EF           MOV       A,R7
   \   00019A   FB           MOV       R3,A
   \   00019B   7F08         MOV       R7,#0x8
   \   00019D   02....       LJMP      ?BANKED_LEAVE_XDATA
   3027          }
   3028          
   3029          /*********************************************************************
   3030           * @fn          ZDO_ParseNodeDescRsp
   3031           *
   3032           * @brief       This function parses the Node_Desc_rsp message.
   3033           *
   3034           * @param       inMsg - incoming message
   3035           * @param       pNDRsp - place to parse the message into
   3036           *
   3037           * @return      none
   3038           */

   \                                 In  segment BANKED_CODE, align 1, keep-with-next
   3039          void ZDO_ParseNodeDescRsp( zdoIncomingMsg_t *inMsg, ZDO_NodeDescRsp_t *pNDRsp )
   \                     ZDO_ParseNodeDescRsp:
   3040          {
   \   000000                REQUIRE ?V0
   \   000000                REQUIRE ?V1
   \   000000   74F6         MOV       A,#-0xa
   \   000002   12....       LCALL     ?BANKED_ENTER_XDATA
   \   000005                ; Saved register size: 10
   \   000005                ; Auto size: 1
   \   000005   74FF         MOV       A,#-0x1
   \   000007   12....       LCALL     ?ALLOC_XSTACK8
   3041            uint8 *msg;
   3042          
   3043            msg = inMsg->asdu;
   \   00000A   EA           MOV       A,R2
   \   00000B   2413         ADD       A,#0x13
   \   00000D   F582         MOV       DPL,A
   \   00000F   E4           CLR       A
   \   000010   3B           ADDC      A,R3
   \   000011   F583         MOV       DPH,A
   \   000013   E0           MOVX      A,@DPTR
   \   000014   FE           MOV       R6,A
   \   000015   A3           INC       DPTR
   \   000016   E0           MOVX      A,@DPTR
   \   000017   FF           MOV       R7,A
   \   000018   EE           MOV       A,R6
   \   000019   F8           MOV       R0,A
   \   00001A   EF           MOV       A,R7
   \   00001B   F9           MOV       R1,A
   3044          
   3045            pNDRsp->status = *msg++;
   \   00001C   8882         MOV       DPL,R0
   \   00001E   8983         MOV       DPH,R1
   \   000020   E0           MOVX      A,@DPTR
   \   000021   C0E0         PUSH      A
   \   000023   8C82         MOV       DPL,R4
   \   000025   8D83         MOV       DPH,R5
   \   000027   D0E0         POP       A
   \   000029   F0           MOVX      @DPTR,A
   \   00002A   8882         MOV       DPL,R0
   \   00002C   8983         MOV       DPH,R1
   \   00002E   A3           INC       DPTR
   \   00002F   A882         MOV       R0,DPL
   \   000031   A983         MOV       R1,DPH
   3046            pNDRsp->nwkAddr = BUILD_UINT16( msg[0], msg[1] );
   \   000033   8882         MOV       DPL,R0
   \   000035   8983         MOV       DPH,R1
   \   000037   E0           MOVX      A,@DPTR
   \   000038   F5..         MOV       ?V0,A
   \   00003A   75..00       MOV       ?V1,#0x0
   \   00003D   8882         MOV       DPL,R0
   \   00003F   8983         MOV       DPH,R1
   \   000041   A3           INC       DPTR
   \   000042   E0           MOVX      A,@DPTR
   \   000043   FE           MOV       R6,A
   \   000044   7F00         MOV       R7,#0x0
   \   000046   E4           CLR       A
   \   000047   CE           XCH       A,R6
   \   000048   FF           MOV       R7,A
   \   000049   E5..         MOV       A,?V0
   \   00004B   2E           ADD       A,R6
   \   00004C   FE           MOV       R6,A
   \   00004D   E5..         MOV       A,?V1
   \   00004F   3F           ADDC      A,R7
   \   000050   FF           MOV       R7,A
   \   000051   8C82         MOV       DPL,R4
   \   000053   8D83         MOV       DPH,R5
   \   000055   A3           INC       DPTR
   \   000056   EE           MOV       A,R6
   \   000057   F0           MOVX      @DPTR,A
   \   000058   A3           INC       DPTR
   \   000059   EF           MOV       A,R7
   \   00005A   F0           MOVX      @DPTR,A
   3047          
   3048            if ( pNDRsp->status == ZDP_SUCCESS )
   \   00005B   8C82         MOV       DPL,R4
   \   00005D   8D83         MOV       DPH,R5
   \   00005F   E0           MOVX      A,@DPTR
   \   000060   6003         JZ        $+5
   \   000062   02....       LJMP      ??ZDO_ParseNodeDescRsp_0 & 0xFFFF
   3049            {
   3050              msg += 2;
   \   000065   E8           MOV       A,R0
   \   000066   2402         ADD       A,#0x2
   \   000068   F8           MOV       R0,A
   \   000069   5001         JNC       ??ZDO_ParseNodeDescRsp_1
   \   00006B   09           INC       R1
   3051              pNDRsp->nodeDesc.LogicalType = *msg & 0x07;
   \                     ??ZDO_ParseNodeDescRsp_1:
   \   00006C   8882         MOV       DPL,R0
   \   00006E   8983         MOV       DPH,R1
   \   000070   E0           MOVX      A,@DPTR
   \   000071   5407         ANL       A,#0x7
   \   000073   FE           MOV       R6,A
   \   000074   7407         MOV       A,#0x7
   \   000076   5E           ANL       A,R6
   \   000077   FE           MOV       R6,A
   \   000078   8C82         MOV       DPL,R4
   \   00007A   8D83         MOV       DPH,R5
   \   00007C   A3           INC       DPTR
   \   00007D   A3           INC       DPTR
   \   00007E   A3           INC       DPTR
   \   00007F   E0           MOVX      A,@DPTR
   \   000080   54F8         ANL       A,#0xf8
   \   000082   4E           ORL       A,R6
   \   000083   C0E0         PUSH      A
   \   000085   8C82         MOV       DPL,R4
   \   000087   8D83         MOV       DPH,R5
   \   000089   A3           INC       DPTR
   \   00008A   A3           INC       DPTR
   \   00008B   A3           INC       DPTR
   \   00008C   D0E0         POP       A
   \   00008E   F0           MOVX      @DPTR,A
   3052          
   3053              pNDRsp->nodeDesc.ComplexDescAvail = ( *msg & 0x08 ) >> 3;
   \   00008F   8882         MOV       DPL,R0
   \   000091   8983         MOV       DPH,R1
   \   000093   E0           MOVX      A,@DPTR
   \   000094   A2E3         MOV       C,0xE0 /* A   */.3
   \   000096   E4           CLR       A
   \   000097   33           RLC       A
   \   000098   FE           MOV       R6,A
   \   000099   EE           MOV       A,R6
   \   00009A   A2E0         MOV       C,0xE0 /* A   */.0
   \   00009C   E4           CLR       A
   \   00009D   33           RLC       A
   \   00009E   33           RLC       A
   \   00009F   33           RLC       A
   \   0000A0   33           RLC       A
   \   0000A1   54F8         ANL       A,#0xf8
   \   0000A3   5408         ANL       A,#0x8
   \   0000A5   FE           MOV       R6,A
   \   0000A6   8C82         MOV       DPL,R4
   \   0000A8   8D83         MOV       DPH,R5
   \   0000AA   A3           INC       DPTR
   \   0000AB   A3           INC       DPTR
   \   0000AC   A3           INC       DPTR
   \   0000AD   E0           MOVX      A,@DPTR
   \   0000AE   54F7         ANL       A,#0xf7
   \   0000B0   4E           ORL       A,R6
   \   0000B1   C0E0         PUSH      A
   \   0000B3   8C82         MOV       DPL,R4
   \   0000B5   8D83         MOV       DPH,R5
   \   0000B7   A3           INC       DPTR
   \   0000B8   A3           INC       DPTR
   \   0000B9   A3           INC       DPTR
   \   0000BA   D0E0         POP       A
   \   0000BC   F0           MOVX      @DPTR,A
   3054              pNDRsp->nodeDesc.UserDescAvail = ( *msg & 0x10 ) >> 4;
   \   0000BD   8882         MOV       DPL,R0
   \   0000BF   8983         MOV       DPH,R1
   \   0000C1   E0           MOVX      A,@DPTR
   \   0000C2   A2E4         MOV       C,0xE0 /* A   */.4
   \   0000C4   E4           CLR       A
   \   0000C5   33           RLC       A
   \   0000C6   FE           MOV       R6,A
   \   0000C7   EE           MOV       A,R6
   \   0000C8   A2E0         MOV       C,0xE0 /* A   */.0
   \   0000CA   E4           CLR       A
   \   0000CB   33           RLC       A
   \   0000CC   C4           SWAP      A
   \   0000CD   54F0         ANL       A,#0xf0
   \   0000CF   5410         ANL       A,#0x10
   \   0000D1   FE           MOV       R6,A
   \   0000D2   8C82         MOV       DPL,R4
   \   0000D4   8D83         MOV       DPH,R5
   \   0000D6   A3           INC       DPTR
   \   0000D7   A3           INC       DPTR
   \   0000D8   A3           INC       DPTR
   \   0000D9   E0           MOVX      A,@DPTR
   \   0000DA   54EF         ANL       A,#0xef
   \   0000DC   4E           ORL       A,R6
   \   0000DD   C0E0         PUSH      A
   \   0000DF   8C82         MOV       DPL,R4
   \   0000E1   8D83         MOV       DPH,R5
   \   0000E3   A3           INC       DPTR
   \   0000E4   A3           INC       DPTR
   \   0000E5   A3           INC       DPTR
   \   0000E6   D0E0         POP       A
   \   0000E8   F0           MOVX      @DPTR,A
   3055          
   3056              msg++;  // Reserved bits.
   \   0000E9   8882         MOV       DPL,R0
   \   0000EB   8983         MOV       DPH,R1
   \   0000ED   A3           INC       DPTR
   \   0000EE   A882         MOV       R0,DPL
   \   0000F0   A983         MOV       R1,DPH
   3057              pNDRsp->nodeDesc.FrequencyBand = (*msg >> 3) & 0x1f;
   \   0000F2   8882         MOV       DPL,R0
   \   0000F4   8983         MOV       DPH,R1
   \   0000F6   E0           MOVX      A,@DPTR
   \   0000F7   13           RRC       A
   \   0000F8   13           RRC       A
   \   0000F9   13           RRC       A
   \   0000FA   541F         ANL       A,#0x1f
   \   0000FC   C0E0         PUSH      A
   \   0000FE   85..82       MOV       DPL,?XSP + 0
   \   000101   85..83       MOV       DPH,?XSP + 1
   \   000104   D0E0         POP       A
   \   000106   F0           MOVX      @DPTR,A
   \   000107   85..82       MOV       DPL,?XSP + 0
   \   00010A   85..83       MOV       DPH,?XSP + 1
   \   00010D   E0           MOVX      A,@DPTR
   \   00010E   33           RLC       A
   \   00010F   33           RLC       A
   \   000110   33           RLC       A
   \   000111   54F8         ANL       A,#0xf8
   \   000113   FE           MOV       R6,A
   \   000114   8C82         MOV       DPL,R4
   \   000116   8D83         MOV       DPH,R5
   \   000118   A3           INC       DPTR
   \   000119   A3           INC       DPTR
   \   00011A   A3           INC       DPTR
   \   00011B   A3           INC       DPTR
   \   00011C   E0           MOVX      A,@DPTR
   \   00011D   5407         ANL       A,#0x7
   \   00011F   4E           ORL       A,R6
   \   000120   C0E0         PUSH      A
   \   000122   8C82         MOV       DPL,R4
   \   000124   8D83         MOV       DPH,R5
   \   000126   A3           INC       DPTR
   \   000127   A3           INC       DPTR
   \   000128   A3           INC       DPTR
   \   000129   A3           INC       DPTR
   \   00012A   D0E0         POP       A
   \   00012C   F0           MOVX      @DPTR,A
   3058              pNDRsp->nodeDesc.APSFlags = *msg++ & 0x07;
   \   00012D   8882         MOV       DPL,R0
   \   00012F   8983         MOV       DPH,R1
   \   000131   E0           MOVX      A,@DPTR
   \   000132   5407         ANL       A,#0x7
   \   000134   FE           MOV       R6,A
   \   000135   8882         MOV       DPL,R0
   \   000137   8983         MOV       DPH,R1
   \   000139   A3           INC       DPTR
   \   00013A   A882         MOV       R0,DPL
   \   00013C   A983         MOV       R1,DPH
   \   00013E   7407         MOV       A,#0x7
   \   000140   5E           ANL       A,R6
   \   000141   FE           MOV       R6,A
   \   000142   8C82         MOV       DPL,R4
   \   000144   8D83         MOV       DPH,R5
   \   000146   A3           INC       DPTR
   \   000147   A3           INC       DPTR
   \   000148   A3           INC       DPTR
   \   000149   A3           INC       DPTR
   \   00014A   E0           MOVX      A,@DPTR
   \   00014B   54F8         ANL       A,#0xf8
   \   00014D   4E           ORL       A,R6
   \   00014E   C0E0         PUSH      A
   \   000150   8C82         MOV       DPL,R4
   \   000152   8D83         MOV       DPH,R5
   \   000154   A3           INC       DPTR
   \   000155   A3           INC       DPTR
   \   000156   A3           INC       DPTR
   \   000157   A3           INC       DPTR
   \   000158   D0E0         POP       A
   \   00015A   F0           MOVX      @DPTR,A
   3059              pNDRsp->nodeDesc.CapabilityFlags = *msg++;
   \   00015B   8882         MOV       DPL,R0
   \   00015D   8983         MOV       DPH,R1
   \   00015F   E0           MOVX      A,@DPTR
   \   000160   C0E0         PUSH      A
   \   000162   8C82         MOV       DPL,R4
   \   000164   8D83         MOV       DPH,R5
   \   000166   A3           INC       DPTR
   \   000167   A3           INC       DPTR
   \   000168   A3           INC       DPTR
   \   000169   A3           INC       DPTR
   \   00016A   A3           INC       DPTR
   \   00016B   D0E0         POP       A
   \   00016D   F0           MOVX      @DPTR,A
   \   00016E   8882         MOV       DPL,R0
   \   000170   8983         MOV       DPH,R1
   \   000172   A3           INC       DPTR
   \   000173   A882         MOV       R0,DPL
   \   000175   A983         MOV       R1,DPH
   3060              pNDRsp->nodeDesc.ManufacturerCode[0] = *msg++;
   \   000177   8882         MOV       DPL,R0
   \   000179   8983         MOV       DPH,R1
   \   00017B   E0           MOVX      A,@DPTR
   \   00017C   C0E0         PUSH      A
   \   00017E   8C82         MOV       DPL,R4
   \   000180   8D83         MOV       DPH,R5
   \   000182   A3           INC       DPTR
   \   000183   A3           INC       DPTR
   \   000184   A3           INC       DPTR
   \   000185   A3           INC       DPTR
   \   000186   A3           INC       DPTR
   \   000187   A3           INC       DPTR
   \   000188   D0E0         POP       A
   \   00018A   F0           MOVX      @DPTR,A
   \   00018B   8882         MOV       DPL,R0
   \   00018D   8983         MOV       DPH,R1
   \   00018F   A3           INC       DPTR
   \   000190   A882         MOV       R0,DPL
   \   000192   A983         MOV       R1,DPH
   3061              pNDRsp->nodeDesc.ManufacturerCode[1] = *msg++;
   \   000194   8882         MOV       DPL,R0
   \   000196   8983         MOV       DPH,R1
   \   000198   E0           MOVX      A,@DPTR
   \   000199   C0E0         PUSH      A
   \   00019B   8C82         MOV       DPL,R4
   \   00019D   8D83         MOV       DPH,R5
   \   00019F   A3           INC       DPTR
   \   0001A0   A3           INC       DPTR
   \   0001A1   A3           INC       DPTR
   \   0001A2   A3           INC       DPTR
   \   0001A3   A3           INC       DPTR
   \   0001A4   A3           INC       DPTR
   \   0001A5   A3           INC       DPTR
   \   0001A6   D0E0         POP       A
   \   0001A8   F0           MOVX      @DPTR,A
   \   0001A9   8882         MOV       DPL,R0
   \   0001AB   8983         MOV       DPH,R1
   \   0001AD   A3           INC       DPTR
   \   0001AE   A882         MOV       R0,DPL
   \   0001B0   A983         MOV       R1,DPH
   3062              pNDRsp->nodeDesc.MaxBufferSize = *msg++;
   \   0001B2   8882         MOV       DPL,R0
   \   0001B4   8983         MOV       DPH,R1
   \   0001B6   E0           MOVX      A,@DPTR
   \   0001B7   C0E0         PUSH      A
   \   0001B9   8C82         MOV       DPL,R4
   \   0001BB   8D83         MOV       DPH,R5
   \   0001BD   A3           INC       DPTR
   \   0001BE   A3           INC       DPTR
   \   0001BF   A3           INC       DPTR
   \   0001C0   A3           INC       DPTR
   \   0001C1   A3           INC       DPTR
   \   0001C2   A3           INC       DPTR
   \   0001C3   A3           INC       DPTR
   \   0001C4   A3           INC       DPTR
   \   0001C5   D0E0         POP       A
   \   0001C7   F0           MOVX      @DPTR,A
   \   0001C8   8882         MOV       DPL,R0
   \   0001CA   8983         MOV       DPH,R1
   \   0001CC   A3           INC       DPTR
   \   0001CD   A882         MOV       R0,DPL
   \   0001CF   A983         MOV       R1,DPH
   3063              pNDRsp->nodeDesc.MaxInTransferSize[0] = *msg++;
   \   0001D1   8882         MOV       DPL,R0
   \   0001D3   8983         MOV       DPH,R1
   \   0001D5   E0           MOVX      A,@DPTR
   \   0001D6   C0E0         PUSH      A
   \   0001D8   8C82         MOV       DPL,R4
   \   0001DA   8D83         MOV       DPH,R5
   \   0001DC   A3           INC       DPTR
   \   0001DD   A3           INC       DPTR
   \   0001DE   A3           INC       DPTR
   \   0001DF   A3           INC       DPTR
   \   0001E0   A3           INC       DPTR
   \   0001E1   A3           INC       DPTR
   \   0001E2   A3           INC       DPTR
   \   0001E3   A3           INC       DPTR
   \   0001E4   A3           INC       DPTR
   \   0001E5   D0E0         POP       A
   \   0001E7   F0           MOVX      @DPTR,A
   \   0001E8   8882         MOV       DPL,R0
   \   0001EA   8983         MOV       DPH,R1
   \   0001EC   A3           INC       DPTR
   \   0001ED   A882         MOV       R0,DPL
   \   0001EF   A983         MOV       R1,DPH
   3064              pNDRsp->nodeDesc.MaxInTransferSize[1] = *msg++;
   \   0001F1   8882         MOV       DPL,R0
   \   0001F3   8983         MOV       DPH,R1
   \   0001F5   E0           MOVX      A,@DPTR
   \   0001F6   C0E0         PUSH      A
   \   0001F8   8C82         MOV       DPL,R4
   \   0001FA   8D83         MOV       DPH,R5
   \   0001FC   A3           INC       DPTR
   \   0001FD   A3           INC       DPTR
   \   0001FE   A3           INC       DPTR
   \   0001FF   A3           INC       DPTR
   \   000200   A3           INC       DPTR
   \   000201   A3           INC       DPTR
   \   000202   A3           INC       DPTR
   \   000203   A3           INC       DPTR
   \   000204   A3           INC       DPTR
   \   000205   A3           INC       DPTR
   \   000206   D0E0         POP       A
   \   000208   F0           MOVX      @DPTR,A
   \   000209   8882         MOV       DPL,R0
   \   00020B   8983         MOV       DPH,R1
   \   00020D   A3           INC       DPTR
   \   00020E   A882         MOV       R0,DPL
   \   000210   A983         MOV       R1,DPH
   3065              pNDRsp->nodeDesc.ServerMask = BUILD_UINT16( msg[0], msg[1] );
   \   000212   8882         MOV       DPL,R0
   \   000214   8983         MOV       DPH,R1
   \   000216   E0           MOVX      A,@DPTR
   \   000217   F5..         MOV       ?V0,A
   \   000219   75..00       MOV       ?V1,#0x0
   \   00021C   8882         MOV       DPL,R0
   \   00021E   8983         MOV       DPH,R1
   \   000220   A3           INC       DPTR
   \   000221   E0           MOVX      A,@DPTR
   \   000222   FE           MOV       R6,A
   \   000223   7F00         MOV       R7,#0x0
   \   000225   E4           CLR       A
   \   000226   CE           XCH       A,R6
   \   000227   FF           MOV       R7,A
   \   000228   E5..         MOV       A,?V0
   \   00022A   2E           ADD       A,R6
   \   00022B   FE           MOV       R6,A
   \   00022C   E5..         MOV       A,?V1
   \   00022E   3F           ADDC      A,R7
   \   00022F   FF           MOV       R7,A
   \   000230   EC           MOV       A,R4
   \   000231   240B         ADD       A,#0xb
   \   000233   F582         MOV       DPL,A
   \   000235   E4           CLR       A
   \   000236   3D           ADDC      A,R5
   \   000237   F583         MOV       DPH,A
   \   000239   EE           MOV       A,R6
   \   00023A   F0           MOVX      @DPTR,A
   \   00023B   A3           INC       DPTR
   \   00023C   EF           MOV       A,R7
   \   00023D   F0           MOVX      @DPTR,A
   3066              msg += 2;
   \   00023E   E8           MOV       A,R0
   \   00023F   2402         ADD       A,#0x2
   \   000241   F8           MOV       R0,A
   \   000242   5001         JNC       ??ZDO_ParseNodeDescRsp_2
   \   000244   09           INC       R1
   3067              pNDRsp->nodeDesc.MaxOutTransferSize[0] = *msg++;
   \                     ??ZDO_ParseNodeDescRsp_2:
   \   000245   8882         MOV       DPL,R0
   \   000247   8983         MOV       DPH,R1
   \   000249   E0           MOVX      A,@DPTR
   \   00024A   C0E0         PUSH      A
   \   00024C   EC           MOV       A,R4
   \   00024D   240D         ADD       A,#0xd
   \   00024F   F582         MOV       DPL,A
   \   000251   E4           CLR       A
   \   000252   3D           ADDC      A,R5
   \   000253   F583         MOV       DPH,A
   \   000255   D0E0         POP       A
   \   000257   F0           MOVX      @DPTR,A
   \   000258   8882         MOV       DPL,R0
   \   00025A   8983         MOV       DPH,R1
   \   00025C   A3           INC       DPTR
   \   00025D   A882         MOV       R0,DPL
   \   00025F   A983         MOV       R1,DPH
   3068              pNDRsp->nodeDesc.MaxOutTransferSize[1] = *msg++;
   \   000261   8882         MOV       DPL,R0
   \   000263   8983         MOV       DPH,R1
   \   000265   E0           MOVX      A,@DPTR
   \   000266   C0E0         PUSH      A
   \   000268   EC           MOV       A,R4
   \   000269   240E         ADD       A,#0xe
   \   00026B   F582         MOV       DPL,A
   \   00026D   E4           CLR       A
   \   00026E   3D           ADDC      A,R5
   \   00026F   F583         MOV       DPH,A
   \   000271   D0E0         POP       A
   \   000273   F0           MOVX      @DPTR,A
   \   000274   8882         MOV       DPL,R0
   \   000276   8983         MOV       DPH,R1
   \   000278   A3           INC       DPTR
   \   000279   A882         MOV       R0,DPL
   \   00027B   A983         MOV       R1,DPH
   3069              pNDRsp->nodeDesc.DescriptorCapability = *msg;
   \   00027D   8882         MOV       DPL,R0
   \   00027F   8983         MOV       DPH,R1
   \   000281   E0           MOVX      A,@DPTR
   \   000282   C0E0         PUSH      A
   \   000284   EC           MOV       A,R4
   \   000285   240F         ADD       A,#0xf
   \   000287   F582         MOV       DPL,A
   \   000289   E4           CLR       A
   \   00028A   3D           ADDC      A,R5
   \   00028B   F583         MOV       DPH,A
   \   00028D   D0E0         POP       A
   \   00028F   F0           MOVX      @DPTR,A
   3070            }
   3071          }
   \                     ??ZDO_ParseNodeDescRsp_0:
   \   000290   7401         MOV       A,#0x1
   \   000292   12....       LCALL     ?DEALLOC_XSTACK8
   \   000295   7F02         MOV       R7,#0x2
   \   000297   02....       LJMP      ?BANKED_LEAVE_XDATA
   3072          
   3073          /*********************************************************************
   3074           * @fn          ZDO_ParsePowerDescRsp
   3075           *
   3076           * @brief       This function parses the Power_Desc_rsp message.
   3077           *
   3078           * @param       inMsg  - incoming message
   3079           * @param       pNPRsp - place to parse the message into
   3080           *
   3081           * @return      none
   3082           */

   \                                 In  segment BANKED_CODE, align 1, keep-with-next
   3083          void ZDO_ParsePowerDescRsp( zdoIncomingMsg_t *inMsg, ZDO_PowerRsp_t *pNPRsp )
   \                     ZDO_ParsePowerDescRsp:
   3084          {
   \   000000                REQUIRE ?V0
   \   000000                REQUIRE ?V1
   \   000000   74F6         MOV       A,#-0xa
   \   000002   12....       LCALL     ?BANKED_ENTER_XDATA
   \   000005                ; Saved register size: 10
   \   000005                ; Auto size: 0
   \   000005   EA           MOV       A,R2
   \   000006   FE           MOV       R6,A
   \   000007   EB           MOV       A,R3
   \   000008   FF           MOV       R7,A
   3085            uint8 *msg;
   3086          
   3087            msg = inMsg->asdu;
   \   000009   EE           MOV       A,R6
   \   00000A   2413         ADD       A,#0x13
   \   00000C   F582         MOV       DPL,A
   \   00000E   E4           CLR       A
   \   00000F   3F           ADDC      A,R7
   \   000010   F583         MOV       DPH,A
   \   000012   E0           MOVX      A,@DPTR
   \   000013   F8           MOV       R0,A
   \   000014   A3           INC       DPTR
   \   000015   E0           MOVX      A,@DPTR
   \   000016   F9           MOV       R1,A
   \   000017   E8           MOV       A,R0
   \   000018   FA           MOV       R2,A
   \   000019   E9           MOV       A,R1
   \   00001A   FB           MOV       R3,A
   3088            pNPRsp->status = *msg++;
   \   00001B   8A82         MOV       DPL,R2
   \   00001D   8B83         MOV       DPH,R3
   \   00001F   E0           MOVX      A,@DPTR
   \   000020   C0E0         PUSH      A
   \   000022   8C82         MOV       DPL,R4
   \   000024   8D83         MOV       DPH,R5
   \   000026   D0E0         POP       A
   \   000028   F0           MOVX      @DPTR,A
   \   000029   8A82         MOV       DPL,R2
   \   00002B   8B83         MOV       DPH,R3
   \   00002D   A3           INC       DPTR
   \   00002E   AA82         MOV       R2,DPL
   \   000030   AB83         MOV       R3,DPH
   3089            pNPRsp->nwkAddr = BUILD_UINT16( msg[0], msg[1] );
   \   000032   8A82         MOV       DPL,R2
   \   000034   8B83         MOV       DPH,R3
   \   000036   E0           MOVX      A,@DPTR
   \   000037   F5..         MOV       ?V0,A
   \   000039   75..00       MOV       ?V1,#0x0
   \   00003C   8A82         MOV       DPL,R2
   \   00003E   8B83         MOV       DPH,R3
   \   000040   A3           INC       DPTR
   \   000041   E0           MOVX      A,@DPTR
   \   000042   F8           MOV       R0,A
   \   000043   7900         MOV       R1,#0x0
   \   000045   E4           CLR       A
   \   000046   C8           XCH       A,R0
   \   000047   F9           MOV       R1,A
   \   000048   E5..         MOV       A,?V0
   \   00004A   28           ADD       A,R0
   \   00004B   F8           MOV       R0,A
   \   00004C   E5..         MOV       A,?V1
   \   00004E   39           ADDC      A,R1
   \   00004F   F9           MOV       R1,A
   \   000050   8C82         MOV       DPL,R4
   \   000052   8D83         MOV       DPH,R5
   \   000054   A3           INC       DPTR
   \   000055   E8           MOV       A,R0
   \   000056   F0           MOVX      @DPTR,A
   \   000057   A3           INC       DPTR
   \   000058   E9           MOV       A,R1
   \   000059   F0           MOVX      @DPTR,A
   3090          
   3091            if ( pNPRsp->status == ZDP_SUCCESS )
   \   00005A   8C82         MOV       DPL,R4
   \   00005C   8D83         MOV       DPH,R5
   \   00005E   E0           MOVX      A,@DPTR
   \   00005F   6003         JZ        $+5
   \   000061   02....       LJMP      ??ZDO_ParsePowerDescRsp_0 & 0xFFFF
   3092            {
   3093              msg += 2;
   \   000064   EA           MOV       A,R2
   \   000065   2402         ADD       A,#0x2
   \   000067   FA           MOV       R2,A
   \   000068   5001         JNC       ??ZDO_ParsePowerDescRsp_1
   \   00006A   0B           INC       R3
   3094              pNPRsp->pwrDesc.AvailablePowerSources = *msg >> 4;
   \                     ??ZDO_ParsePowerDescRsp_1:
   \   00006B   8A82         MOV       DPL,R2
   \   00006D   8B83         MOV       DPH,R3
   \   00006F   E0           MOVX      A,@DPTR
   \   000070   C4           SWAP      A
   \   000071   540F         ANL       A,#0xf
   \   000073   F5..         MOV       ?V0,A
   \   000075   75..00       MOV       ?V1,#0x0
   \   000078   8C82         MOV       DPL,R4
   \   00007A   8D83         MOV       DPH,R5
   \   00007C   A3           INC       DPTR
   \   00007D   A3           INC       DPTR
   \   00007E   A3           INC       DPTR
   \   00007F   E0           MOVX      A,@DPTR
   \   000080   540F         ANL       A,#0xf
   \   000082   F0           MOVX      @DPTR,A
   \   000083   A3           INC       DPTR
   \   000084   E0           MOVX      A,@DPTR
   \   000085   54FF         ANL       A,#0xff
   \   000087   F0           MOVX      @DPTR,A
   \   000088   7404         MOV       A,#0x4
   \   00008A   78..         MOV       R0,#?V0
   \   00008C   12....       LCALL     ?S_SHL
   \   00008F   E5..         MOV       A,?V0
   \   000091   54F0         ANL       A,#0xf0
   \   000093   F8           MOV       R0,A
   \   000094   E5..         MOV       A,?V1
   \   000096   5400         ANL       A,#0x0
   \   000098   F9           MOV       R1,A
   \   000099   8C82         MOV       DPL,R4
   \   00009B   8D83         MOV       DPH,R5
   \   00009D   A3           INC       DPTR
   \   00009E   A3           INC       DPTR
   \   00009F   A3           INC       DPTR
   \   0000A0   E0           MOVX      A,@DPTR
   \   0000A1   48           ORL       A,R0
   \   0000A2   F0           MOVX      @DPTR,A
   \   0000A3   A3           INC       DPTR
   \   0000A4   E0           MOVX      A,@DPTR
   \   0000A5   49           ORL       A,R1
   \   0000A6   F0           MOVX      @DPTR,A
   3095              pNPRsp->pwrDesc.PowerMode = *msg++ & 0x0F;
   \   0000A7   8A82         MOV       DPL,R2
   \   0000A9   8B83         MOV       DPH,R3
   \   0000AB   E0           MOVX      A,@DPTR
   \   0000AC   F8           MOV       R0,A
   \   0000AD   7900         MOV       R1,#0x0
   \   0000AF   E8           MOV       A,R0
   \   0000B0   540F         ANL       A,#0xf
   \   0000B2   F8           MOV       R0,A
   \   0000B3   E9           MOV       A,R1
   \   0000B4   5400         ANL       A,#0x0
   \   0000B6   F9           MOV       R1,A
   \   0000B7   8A82         MOV       DPL,R2
   \   0000B9   8B83         MOV       DPH,R3
   \   0000BB   A3           INC       DPTR
   \   0000BC   AA82         MOV       R2,DPL
   \   0000BE   AB83         MOV       R3,DPH
   \   0000C0   8C82         MOV       DPL,R4
   \   0000C2   8D83         MOV       DPH,R5
   \   0000C4   A3           INC       DPTR
   \   0000C5   A3           INC       DPTR
   \   0000C6   A3           INC       DPTR
   \   0000C7   E0           MOVX      A,@DPTR
   \   0000C8   54F0         ANL       A,#0xf0
   \   0000CA   F0           MOVX      @DPTR,A
   \   0000CB   A3           INC       DPTR
   \   0000CC   E0           MOVX      A,@DPTR
   \   0000CD   54FF         ANL       A,#0xff
   \   0000CF   F0           MOVX      @DPTR,A
   \   0000D0   E8           MOV       A,R0
   \   0000D1   540F         ANL       A,#0xf
   \   0000D3   F8           MOV       R0,A
   \   0000D4   E9           MOV       A,R1
   \   0000D5   5400         ANL       A,#0x0
   \   0000D7   F9           MOV       R1,A
   \   0000D8   8C82         MOV       DPL,R4
   \   0000DA   8D83         MOV       DPH,R5
   \   0000DC   A3           INC       DPTR
   \   0000DD   A3           INC       DPTR
   \   0000DE   A3           INC       DPTR
   \   0000DF   E0           MOVX      A,@DPTR
   \   0000E0   48           ORL       A,R0
   \   0000E1   F0           MOVX      @DPTR,A
   \   0000E2   A3           INC       DPTR
   \   0000E3   E0           MOVX      A,@DPTR
   \   0000E4   49           ORL       A,R1
   \   0000E5   F0           MOVX      @DPTR,A
   3096              pNPRsp->pwrDesc.CurrentPowerSourceLevel = *msg >> 4;
   \   0000E6   8A82         MOV       DPL,R2
   \   0000E8   8B83         MOV       DPH,R3
   \   0000EA   E0           MOVX      A,@DPTR
   \   0000EB   C4           SWAP      A
   \   0000EC   540F         ANL       A,#0xf
   \   0000EE   F5..         MOV       ?V0,A
   \   0000F0   75..00       MOV       ?V1,#0x0
   \   0000F3   8C82         MOV       DPL,R4
   \   0000F5   8D83         MOV       DPH,R5
   \   0000F7   A3           INC       DPTR
   \   0000F8   A3           INC       DPTR
   \   0000F9   A3           INC       DPTR
   \   0000FA   E0           MOVX      A,@DPTR
   \   0000FB   54FF         ANL       A,#0xff
   \   0000FD   F0           MOVX      @DPTR,A
   \   0000FE   A3           INC       DPTR
   \   0000FF   E0           MOVX      A,@DPTR
   \   000100   540F         ANL       A,#0xf
   \   000102   F0           MOVX      @DPTR,A
   \   000103   740C         MOV       A,#0xc
   \   000105   78..         MOV       R0,#?V0
   \   000107   12....       LCALL     ?S_SHL
   \   00010A   8C82         MOV       DPL,R4
   \   00010C   8D83         MOV       DPH,R5
   \   00010E   A3           INC       DPTR
   \   00010F   A3           INC       DPTR
   \   000110   A3           INC       DPTR
   \   000111   E0           MOVX      A,@DPTR
   \   000112   45..         ORL       A,?V0
   \   000114   F0           MOVX      @DPTR,A
   \   000115   A3           INC       DPTR
   \   000116   E0           MOVX      A,@DPTR
   \   000117   45..         ORL       A,?V1
   \   000119   F0           MOVX      @DPTR,A
   3097              pNPRsp->pwrDesc.CurrentPowerSource = *msg++ & 0x0F;
   \   00011A   8A82         MOV       DPL,R2
   \   00011C   8B83         MOV       DPH,R3
   \   00011E   E0           MOVX      A,@DPTR
   \   00011F   F8           MOV       R0,A
   \   000120   7900         MOV       R1,#0x0
   \   000122   E8           MOV       A,R0
   \   000123   540F         ANL       A,#0xf
   \   000125   F8           MOV       R0,A
   \   000126   E9           MOV       A,R1
   \   000127   5400         ANL       A,#0x0
   \   000129   F9           MOV       R1,A
   \   00012A   8A82         MOV       DPL,R2
   \   00012C   8B83         MOV       DPH,R3
   \   00012E   A3           INC       DPTR
   \   00012F   AA82         MOV       R2,DPL
   \   000131   AB83         MOV       R3,DPH
   \   000133   8C82         MOV       DPL,R4
   \   000135   8D83         MOV       DPH,R5
   \   000137   A3           INC       DPTR
   \   000138   A3           INC       DPTR
   \   000139   A3           INC       DPTR
   \   00013A   E0           MOVX      A,@DPTR
   \   00013B   54FF         ANL       A,#0xff
   \   00013D   F0           MOVX      @DPTR,A
   \   00013E   A3           INC       DPTR
   \   00013F   E0           MOVX      A,@DPTR
   \   000140   54F0         ANL       A,#0xf0
   \   000142   F0           MOVX      @DPTR,A
   \   000143   E4           CLR       A
   \   000144   C8           XCH       A,R0
   \   000145   F9           MOV       R1,A
   \   000146   E8           MOV       A,R0
   \   000147   5400         ANL       A,#0x0
   \   000149   F8           MOV       R0,A
   \   00014A   E9           MOV       A,R1
   \   00014B   540F         ANL       A,#0xf
   \   00014D   F9           MOV       R1,A
   \   00014E   8C82         MOV       DPL,R4
   \   000150   8D83         MOV       DPH,R5
   \   000152   A3           INC       DPTR
   \   000153   A3           INC       DPTR
   \   000154   A3           INC       DPTR
   \   000155   E0           MOVX      A,@DPTR
   \   000156   48           ORL       A,R0
   \   000157   F0           MOVX      @DPTR,A
   \   000158   A3           INC       DPTR
   \   000159   E0           MOVX      A,@DPTR
   \   00015A   49           ORL       A,R1
   \   00015B   F0           MOVX      @DPTR,A
   3098            }
   3099          }
   \                     ??ZDO_ParsePowerDescRsp_0:
   \   00015C   7F02         MOV       R7,#0x2
   \   00015E   02....       LJMP      ?BANKED_LEAVE_XDATA
   3100          
   3101          /*********************************************************************
   3102           * @fn          ZDO_ParseSimpleDescRsp
   3103           *
   3104           * @brief       This function parse the Simple_Desc_rsp message.
   3105           *
   3106           *   NOTE: The pAppInClusterList and pAppOutClusterList fields
   3107           *         in the SimpleDescriptionFormat_t structure are allocated
   3108           *         and the calling function needs to free [osal_msg_free()]
   3109           *         these buffers.
   3110           *
   3111           * @param       inMsg  - incoming message
   3112           * @param       pSimpleDescRsp - place to parse the message into
   3113           *
   3114           * @return      none
   3115           */

   \                                 In  segment BANKED_CODE, align 1, keep-with-next
   3116          void ZDO_ParseSimpleDescRsp( zdoIncomingMsg_t *inMsg, ZDO_SimpleDescRsp_t *pSimpleDescRsp )
   \                     ZDO_ParseSimpleDescRsp:
   3117          {
   \   000000                REQUIRE ?V0
   \   000000                REQUIRE ?V1
   \   000000                REQUIRE ?V2
   \   000000                REQUIRE ?V3
   \   000000   74F4         MOV       A,#-0xc
   \   000002   12....       LCALL     ?BANKED_ENTER_XDATA
   \   000005                ; Saved register size: 12
   \   000005                ; Auto size: 0
   \   000005   8A..         MOV       ?V0,R2
   \   000007   8B..         MOV       ?V1,R3
   \   000009   8C..         MOV       ?V2,R4
   \   00000B   8D..         MOV       ?V3,R5
   3118            uint8 *msg;
   3119          
   3120            msg = inMsg->asdu;
   \   00000D   E5..         MOV       A,?V0
   \   00000F   2413         ADD       A,#0x13
   \   000011   F582         MOV       DPL,A
   \   000013   E4           CLR       A
   \   000014   35..         ADDC      A,?V1
   \   000016   F583         MOV       DPH,A
   \   000018   E0           MOVX      A,@DPTR
   \   000019   F8           MOV       R0,A
   \   00001A   A3           INC       DPTR
   \   00001B   E0           MOVX      A,@DPTR
   \   00001C   F9           MOV       R1,A
   \   00001D   E8           MOV       A,R0
   \   00001E   FE           MOV       R6,A
   \   00001F   E9           MOV       A,R1
   \   000020   FF           MOV       R7,A
   3121            pSimpleDescRsp->status = *msg++;
   \   000021   8E82         MOV       DPL,R6
   \   000023   8F83         MOV       DPH,R7
   \   000025   E0           MOVX      A,@DPTR
   \   000026   C0E0         PUSH      A
   \   000028   85..82       MOV       DPL,?V2
   \   00002B   85..83       MOV       DPH,?V3
   \   00002E   D0E0         POP       A
   \   000030   F0           MOVX      @DPTR,A
   \   000031   8E82         MOV       DPL,R6
   \   000033   8F83         MOV       DPH,R7
   \   000035   A3           INC       DPTR
   \   000036   AE82         MOV       R6,DPL
   \   000038   AF83         MOV       R7,DPH
   3122            pSimpleDescRsp->nwkAddr = BUILD_UINT16( msg[0], msg[1] );
   \   00003A   8E82         MOV       DPL,R6
   \   00003C   8F83         MOV       DPH,R7
   \   00003E   E0           MOVX      A,@DPTR
   \   00003F   FA           MOV       R2,A
   \   000040   7B00         MOV       R3,#0x0
   \   000042   8E82         MOV       DPL,R6
   \   000044   8F83         MOV       DPH,R7
   \   000046   A3           INC       DPTR
   \   000047   E0           MOVX      A,@DPTR
   \   000048   F8           MOV       R0,A
   \   000049   7900         MOV       R1,#0x0
   \   00004B   E4           CLR       A
   \   00004C   C8           XCH       A,R0
   \   00004D   F9           MOV       R1,A
   \   00004E   EA           MOV       A,R2
   \   00004F   28           ADD       A,R0
   \   000050   F8           MOV       R0,A
   \   000051   EB           MOV       A,R3
   \   000052   39           ADDC      A,R1
   \   000053   F9           MOV       R1,A
   \   000054   85..82       MOV       DPL,?V2
   \   000057   85..83       MOV       DPH,?V3
   \   00005A   A3           INC       DPTR
   \   00005B   E8           MOV       A,R0
   \   00005C   F0           MOVX      @DPTR,A
   \   00005D   A3           INC       DPTR
   \   00005E   E9           MOV       A,R1
   \   00005F   F0           MOVX      @DPTR,A
   3123            msg += sizeof ( uint16 );
   \   000060   EE           MOV       A,R6
   \   000061   2402         ADD       A,#0x2
   \   000063   FE           MOV       R6,A
   \   000064   5001         JNC       ??ZDO_ParseSimpleDescRsp_0
   \   000066   0F           INC       R7
   3124            msg++; // Skip past the length field.
   \                     ??ZDO_ParseSimpleDescRsp_0:
   \   000067   8E82         MOV       DPL,R6
   \   000069   8F83         MOV       DPH,R7
   \   00006B   A3           INC       DPTR
   \   00006C   AE82         MOV       R6,DPL
   \   00006E   AF83         MOV       R7,DPH
   3125          
   3126            if ( pSimpleDescRsp->status == ZDP_SUCCESS )
   \   000070   85..82       MOV       DPL,?V2
   \   000073   85..83       MOV       DPH,?V3
   \   000076   E0           MOVX      A,@DPTR
   \   000077   7011         JNZ       ??ZDO_ParseSimpleDescRsp_1
   3127            {
   3128              ZDO_ParseSimpleDescBuf( msg, &(pSimpleDescRsp->simpleDesc) );
   \   000079                ; Setup parameters for call to function ZDO_ParseSimpleDescBuf
   \   000079   E5..         MOV       A,?V2
   \   00007B   2403         ADD       A,#0x3
   \   00007D   FC           MOV       R4,A
   \   00007E   E4           CLR       A
   \   00007F   35..         ADDC      A,?V3
   \   000081   FD           MOV       R5,A
   \   000082   EE           MOV       A,R6
   \   000083   FA           MOV       R2,A
   \   000084   EF           MOV       A,R7
   \   000085   FB           MOV       R3,A
   \   000086   12....       LCALL     `??ZDO_ParseSimpleDescBuf::?relay`; Banked call to: ZDO_ParseSimpleDescBuf
   \   000089   E9           MOV       A,R1
   3129            }
   3130          }
   \                     ??ZDO_ParseSimpleDescRsp_1:
   \   00008A   7F04         MOV       R7,#0x4
   \   00008C   02....       LJMP      ?BANKED_LEAVE_XDATA
   3131          
   3132          /*********************************************************************
   3133           * @fn          ZDO_ParseEPListRsp
   3134           *
   3135           * @brief       This parse the Active_EP_rsp or Match_Desc_rsp message.
   3136           *
   3137           * @param       inMsg  - incoming message
   3138           *
   3139           * @return      none
   3140           */

   \                                 In  segment BANKED_CODE, align 1, keep-with-next
   3141          ZDO_ActiveEndpointRsp_t *ZDO_ParseEPListRsp( zdoIncomingMsg_t *inMsg )
   \                     ZDO_ParseEPListRsp:
   3142          {
   \   000000                REQUIRE ?V0
   \   000000                REQUIRE ?V1
   \   000000                REQUIRE ?V2
   \   000000                REQUIRE ?V3
   \   000000                REQUIRE ?V4
   \   000000                REQUIRE ?V5
   \   000000                REQUIRE ?V6
   \   000000                REQUIRE ?V7
   \   000000                REQUIRE ?V8
   \   000000   74EF         MOV       A,#-0x11
   \   000002   12....       LCALL     ?BANKED_ENTER_XDATA
   \   000005                ; Saved register size: 17
   \   000005                ; Auto size: 0
   \   000005   8A..         MOV       ?V2,R2
   \   000007   8B..         MOV       ?V3,R3
   3143            ZDO_ActiveEndpointRsp_t *pRsp;
   3144            uint8 *msg;
   3145            uint8 Status;
   3146            uint8 cnt;
   3147          
   3148            msg = inMsg->asdu;
   \   000009   E5..         MOV       A,?V2
   \   00000B   2413         ADD       A,#0x13
   \   00000D   F582         MOV       DPL,A
   \   00000F   E4           CLR       A
   \   000010   35..         ADDC      A,?V3
   \   000012   F583         MOV       DPH,A
   \   000014   E0           MOVX      A,@DPTR
   \   000015   F8           MOV       R0,A
   \   000016   A3           INC       DPTR
   \   000017   E0           MOVX      A,@DPTR
   \   000018   F9           MOV       R1,A
   \   000019   E8           MOV       A,R0
   \   00001A   FE           MOV       R6,A
   \   00001B   E9           MOV       A,R1
   \   00001C   FF           MOV       R7,A
   3149            Status = *msg++;
   \   00001D   8E82         MOV       DPL,R6
   \   00001F   8F83         MOV       DPH,R7
   \   000021   E0           MOVX      A,@DPTR
   \   000022   F5..         MOV       ?V7,A
   \   000024   8E82         MOV       DPL,R6
   \   000026   8F83         MOV       DPH,R7
   \   000028   A3           INC       DPTR
   \   000029   AE82         MOV       R6,DPL
   \   00002B   AF83         MOV       R7,DPH
   3150            cnt = msg[2];
   \   00002D   8E82         MOV       DPL,R6
   \   00002F   8F83         MOV       DPH,R7
   \   000031   A3           INC       DPTR
   \   000032   A3           INC       DPTR
   \   000033   E0           MOVX      A,@DPTR
   \   000034   F5..         MOV       ?V8,A
   3151          
   3152            pRsp = (ZDO_ActiveEndpointRsp_t *)osal_mem_alloc( sizeof(  ZDO_ActiveEndpointRsp_t ) + cnt );
   \   000036                ; Setup parameters for call to function osal_mem_alloc
   \   000036   E5..         MOV       A,?V8
   \   000038   F8           MOV       R0,A
   \   000039   7900         MOV       R1,#0x0
   \   00003B   E8           MOV       A,R0
   \   00003C   2404         ADD       A,#0x4
   \   00003E   FA           MOV       R2,A
   \   00003F   E4           CLR       A
   \   000040   39           ADDC      A,R1
   \   000041   FB           MOV       R3,A
   \   000042   12....       LCALL     `??osal_mem_alloc::?relay`; Banked call to: osal_mem_alloc
   \   000045   8A..         MOV       ?V4,R2
   \   000047   8B..         MOV       ?V5,R3
   \   000049   85....       MOV       ?V0,?V4
   \   00004C   85....       MOV       ?V1,?V5
   3153            if ( pRsp )
   \   00004F   E5..         MOV       A,?V0
   \   000051   45..         ORL       A,?V1
   \   000053   6075         JZ        ??ZDO_ParseEPListRsp_0
   3154            {
   3155              pRsp->status = Status;
   \   000055   E5..         MOV       A,?V7
   \   000057   C0E0         PUSH      A
   \   000059   85..82       MOV       DPL,?V0
   \   00005C   85..83       MOV       DPH,?V1
   \   00005F   D0E0         POP       A
   \   000061   F0           MOVX      @DPTR,A
   3156              pRsp->nwkAddr = BUILD_UINT16( msg[0], msg[1] );
   \   000062   8E82         MOV       DPL,R6
   \   000064   8F83         MOV       DPH,R7
   \   000066   E0           MOVX      A,@DPTR
   \   000067   FA           MOV       R2,A
   \   000068   7B00         MOV       R3,#0x0
   \   00006A   8E82         MOV       DPL,R6
   \   00006C   8F83         MOV       DPH,R7
   \   00006E   A3           INC       DPTR
   \   00006F   E0           MOVX      A,@DPTR
   \   000070   F8           MOV       R0,A
   \   000071   7900         MOV       R1,#0x0
   \   000073   E4           CLR       A
   \   000074   C8           XCH       A,R0
   \   000075   F9           MOV       R1,A
   \   000076   EA           MOV       A,R2
   \   000077   28           ADD       A,R0
   \   000078   F8           MOV       R0,A
   \   000079   EB           MOV       A,R3
   \   00007A   39           ADDC      A,R1
   \   00007B   F9           MOV       R1,A
   \   00007C   85..82       MOV       DPL,?V0
   \   00007F   85..83       MOV       DPH,?V1
   \   000082   A3           INC       DPTR
   \   000083   E8           MOV       A,R0
   \   000084   F0           MOVX      @DPTR,A
   \   000085   A3           INC       DPTR
   \   000086   E9           MOV       A,R1
   \   000087   F0           MOVX      @DPTR,A
   3157              msg += sizeof( uint16 );
   \   000088   EE           MOV       A,R6
   \   000089   2402         ADD       A,#0x2
   \   00008B   FE           MOV       R6,A
   \   00008C   5001         JNC       ??ZDO_ParseEPListRsp_1
   \   00008E   0F           INC       R7
   3158              pRsp->cnt = cnt;
   \                     ??ZDO_ParseEPListRsp_1:
   \   00008F   E5..         MOV       A,?V8
   \   000091   C0E0         PUSH      A
   \   000093   85..82       MOV       DPL,?V0
   \   000096   85..83       MOV       DPH,?V1
   \   000099   A3           INC       DPTR
   \   00009A   A3           INC       DPTR
   \   00009B   A3           INC       DPTR
   \   00009C   D0E0         POP       A
   \   00009E   F0           MOVX      @DPTR,A
   3159              msg++; // pass cnt
   \   00009F   8E82         MOV       DPL,R6
   \   0000A1   8F83         MOV       DPH,R7
   \   0000A3   A3           INC       DPTR
   \   0000A4   AE82         MOV       R6,DPL
   \   0000A6   AF83         MOV       R7,DPH
   3160              osal_memcpy( pRsp->epList, msg, cnt );
   \   0000A8                ; Setup parameters for call to function osal_memcpy
   \   0000A8   8E..         MOV       ?V4,R6
   \   0000AA   8F..         MOV       ?V5,R7
   \   0000AC   75..00       MOV       ?V6,#0x0
   \   0000AF   78..         MOV       R0,#?V4
   \   0000B1   12....       LCALL     ?PUSH_XSTACK_I_THREE
   \   0000B4   E5..         MOV       A,?V8
   \   0000B6   FC           MOV       R4,A
   \   0000B7   7D00         MOV       R5,#0x0
   \   0000B9   E5..         MOV       A,?V0
   \   0000BB   2404         ADD       A,#0x4
   \   0000BD   FA           MOV       R2,A
   \   0000BE   E4           CLR       A
   \   0000BF   35..         ADDC      A,?V1
   \   0000C1   FB           MOV       R3,A
   \   0000C2   12....       LCALL     `??osal_memcpy::?relay`; Banked call to: osal_memcpy
   \   0000C5   7403         MOV       A,#0x3
   \   0000C7   12....       LCALL     ?DEALLOC_XSTACK8
   3161            }
   3162          
   3163            return ( pRsp );
   \                     ??ZDO_ParseEPListRsp_0:
   \   0000CA   AA..         MOV       R2,?V0
   \   0000CC   AB..         MOV       R3,?V1
   \   0000CE   7F09         MOV       R7,#0x9
   \   0000D0   02....       LJMP      ?BANKED_LEAVE_XDATA
   3164          }
   3165          
   3166          /*********************************************************************
   3167           * @fn          ZDO_ParseServerDiscRsp
   3168           *
   3169           * @brief       Parse the Server_Discovery_rsp message.
   3170           *
   3171           * @param       inMsg - incoming message.
   3172           * @param       pRsp - place to put the parsed information.
   3173           *
   3174           * @return      none
   3175           */

   \                                 In  segment BANKED_CODE, align 1, keep-with-next
   3176          void ZDO_ParseServerDiscRsp( zdoIncomingMsg_t *inMsg, ZDO_ServerDiscRsp_t *pRsp )
   \                     ZDO_ParseServerDiscRsp:
   3177          {
   \   000000   74F7         MOV       A,#-0x9
   \   000002   12....       LCALL     ?BANKED_ENTER_XDATA
   \   000005                ; Saved register size: 9
   \   000005                ; Auto size: 0
   3178            pRsp->status = inMsg->asdu[0];
   \   000005   EA           MOV       A,R2
   \   000006   2413         ADD       A,#0x13
   \   000008   F582         MOV       DPL,A
   \   00000A   E4           CLR       A
   \   00000B   3B           ADDC      A,R3
   \   00000C   F583         MOV       DPH,A
   \   00000E   E0           MOVX      A,@DPTR
   \   00000F   F8           MOV       R0,A
   \   000010   A3           INC       DPTR
   \   000011   E0           MOVX      A,@DPTR
   \   000012   F583         MOV       DPH,A
   \   000014   8882         MOV       DPL,R0
   \   000016   E0           MOVX      A,@DPTR
   \   000017   C0E0         PUSH      A
   \   000019   8C82         MOV       DPL,R4
   \   00001B   8D83         MOV       DPH,R5
   \   00001D   D0E0         POP       A
   \   00001F   F0           MOVX      @DPTR,A
   3179            pRsp->serverMask = BUILD_UINT16( inMsg->asdu[1], inMsg->asdu[2] );
   \   000020   EA           MOV       A,R2
   \   000021   2413         ADD       A,#0x13
   \   000023   F582         MOV       DPL,A
   \   000025   E4           CLR       A
   \   000026   3B           ADDC      A,R3
   \   000027   F583         MOV       DPH,A
   \   000029   E0           MOVX      A,@DPTR
   \   00002A   F8           MOV       R0,A
   \   00002B   A3           INC       DPTR
   \   00002C   E0           MOVX      A,@DPTR
   \   00002D   F583         MOV       DPH,A
   \   00002F   8882         MOV       DPL,R0
   \   000031   A3           INC       DPTR
   \   000032   E0           MOVX      A,@DPTR
   \   000033   FE           MOV       R6,A
   \   000034   7F00         MOV       R7,#0x0
   \   000036   EA           MOV       A,R2
   \   000037   2413         ADD       A,#0x13
   \   000039   F582         MOV       DPL,A
   \   00003B   E4           CLR       A
   \   00003C   3B           ADDC      A,R3
   \   00003D   F583         MOV       DPH,A
   \   00003F   E0           MOVX      A,@DPTR
   \   000040   F8           MOV       R0,A
   \   000041   A3           INC       DPTR
   \   000042   E0           MOVX      A,@DPTR
   \   000043   F583         MOV       DPH,A
   \   000045   8882         MOV       DPL,R0
   \   000047   A3           INC       DPTR
   \   000048   A3           INC       DPTR
   \   000049   E0           MOVX      A,@DPTR
   \   00004A   F8           MOV       R0,A
   \   00004B   7900         MOV       R1,#0x0
   \   00004D   E4           CLR       A
   \   00004E   C8           XCH       A,R0
   \   00004F   F9           MOV       R1,A
   \   000050   EE           MOV       A,R6
   \   000051   28           ADD       A,R0
   \   000052   F8           MOV       R0,A
   \   000053   EF           MOV       A,R7
   \   000054   39           ADDC      A,R1
   \   000055   F9           MOV       R1,A
   \   000056   8C82         MOV       DPL,R4
   \   000058   8D83         MOV       DPH,R5
   \   00005A   A3           INC       DPTR
   \   00005B   E8           MOV       A,R0
   \   00005C   F0           MOVX      @DPTR,A
   \   00005D   A3           INC       DPTR
   \   00005E   E9           MOV       A,R1
   \   00005F   F0           MOVX      @DPTR,A
   3180          }
   \   000060   7F01         MOV       R7,#0x1
   \   000062   02....       LJMP      ?BANKED_LEAVE_XDATA
   3181          
   3182          /*********************************************************************
   3183           * @fn          ZDO_ParseMgmtLqiRsp
   3184           *
   3185           * @brief       This function parses the incoming Management
   3186           *              LQI response
   3187           *
   3188           * @param       inMsg - incoming message
   3189           *
   3190           * @return      a pointer to parsed response structure (NULL if not allocated).
   3191           *          This structure was allocated using osal_mem_alloc, so it must be freed
   3192           *          by the calling function [osal_mem_free()].
   3193           */

   \                                 In  segment BANKED_CODE, align 1, keep-with-next
   3194          ZDO_MgmtLqiRsp_t *ZDO_ParseMgmtLqiRsp( zdoIncomingMsg_t *inMsg )
   \                     ZDO_ParseMgmtLqiRsp:
   3195          {
   \   000000                REQUIRE ?V0
   \   000000                REQUIRE ?V1
   \   000000                REQUIRE ?V2
   \   000000                REQUIRE ?V3
   \   000000                REQUIRE ?V4
   \   000000                REQUIRE ?V5
   \   000000                REQUIRE ?V6
   \   000000                REQUIRE ?V7
   \   000000                REQUIRE ?V8
   \   000000                REQUIRE ?V9
   \   000000                REQUIRE ?V10
   \   000000                REQUIRE ?V11
   \   000000   74EC         MOV       A,#-0x14
   \   000002   12....       LCALL     ?BANKED_ENTER_XDATA
   \   000005                ; Saved register size: 20
   \   000005                ; Auto size: 0
   \   000005   8A..         MOV       ?V10,R2
   \   000007   8B..         MOV       ?V11,R3
   3196            ZDO_MgmtLqiRsp_t *pRsp;
   3197            uint8 status;
   3198            uint8 startIndex = 0;
   \   000009   75..00       MOV       ?V6,#0x0
   3199            uint8 neighborLqiCount = 0;
   \   00000C   75..00       MOV       ?V4,#0x0
   3200            uint8 neighborLqiEntries = 0;
   \   00000F   75..00       MOV       ?V5,#0x0
   3201            uint8 *msg;
   3202          
   3203            msg = inMsg->asdu;
   \   000012   E5..         MOV       A,?V10
   \   000014   2413         ADD       A,#0x13
   \   000016   F582         MOV       DPL,A
   \   000018   E4           CLR       A
   \   000019   35..         ADDC      A,?V11
   \   00001B   F583         MOV       DPH,A
   \   00001D   E0           MOVX      A,@DPTR
   \   00001E   F8           MOV       R0,A
   \   00001F   A3           INC       DPTR
   \   000020   E0           MOVX      A,@DPTR
   \   000021   F9           MOV       R1,A
   \   000022   E8           MOV       A,R0
   \   000023   FE           MOV       R6,A
   \   000024   E9           MOV       A,R1
   \   000025   FF           MOV       R7,A
   3204          
   3205            status = *msg++;
   \   000026   8E82         MOV       DPL,R6
   \   000028   8F83         MOV       DPH,R7
   \   00002A   E0           MOVX      A,@DPTR
   \   00002B   F5..         MOV       ?V9,A
   \   00002D   8E82         MOV       DPL,R6
   \   00002F   8F83         MOV       DPH,R7
   \   000031   A3           INC       DPTR
   \   000032   AE82         MOV       R6,DPL
   \   000034   AF83         MOV       R7,DPH
   3206            if ( status == ZSuccess )
   \   000036   E5..         MOV       A,?V9
   \   000038   7030         JNZ       ??ZDO_ParseMgmtLqiRsp_0
   3207            {
   3208              neighborLqiEntries = *msg++;
   \   00003A   8E82         MOV       DPL,R6
   \   00003C   8F83         MOV       DPH,R7
   \   00003E   E0           MOVX      A,@DPTR
   \   00003F   F5..         MOV       ?V5,A
   \   000041   8E82         MOV       DPL,R6
   \   000043   8F83         MOV       DPH,R7
   \   000045   A3           INC       DPTR
   \   000046   AE82         MOV       R6,DPL
   \   000048   AF83         MOV       R7,DPH
   3209              startIndex = *msg++;
   \   00004A   8E82         MOV       DPL,R6
   \   00004C   8F83         MOV       DPH,R7
   \   00004E   E0           MOVX      A,@DPTR
   \   00004F   F5..         MOV       ?V6,A
   \   000051   8E82         MOV       DPL,R6
   \   000053   8F83         MOV       DPH,R7
   \   000055   A3           INC       DPTR
   \   000056   AE82         MOV       R6,DPL
   \   000058   AF83         MOV       R7,DPH
   3210              neighborLqiCount = *msg++;
   \   00005A   8E82         MOV       DPL,R6
   \   00005C   8F83         MOV       DPH,R7
   \   00005E   E0           MOVX      A,@DPTR
   \   00005F   F5..         MOV       ?V4,A
   \   000061   8E82         MOV       DPL,R6
   \   000063   8F83         MOV       DPH,R7
   \   000065   A3           INC       DPTR
   \   000066   AE82         MOV       R6,DPL
   \   000068   AF83         MOV       R7,DPH
   3211            }
   3212          
   3213            // Allocate a buffer big enough to handle the list.
   3214            pRsp = (ZDO_MgmtLqiRsp_t *)osal_mem_alloc(
   3215                      sizeof( ZDO_MgmtLqiRsp_t ) + (neighborLqiCount * sizeof( ZDP_MgmtLqiItem_t )) );
   \                     ??ZDO_ParseMgmtLqiRsp_0:
   \   00006A                ; Setup parameters for call to function osal_mem_alloc
   \   00006A   E5..         MOV       A,?V4
   \   00006C   F8           MOV       R0,A
   \   00006D   7900         MOV       R1,#0x0
   \   00006F   E8           MOV       A,R0
   \   000070   75F01A       MOV       B,#0x1a
   \   000073   A4           MUL       AB
   \   000074   C8           XCH       A,R0
   \   000075   AAF0         MOV       R2,B
   \   000077   75F000       MOV       B,#0x0
   \   00007A   A4           MUL       AB
   \   00007B   2A           ADD       A,R2
   \   00007C   FA           MOV       R2,A
   \   00007D   75F01A       MOV       B,#0x1a
   \   000080   E9           MOV       A,R1
   \   000081   A4           MUL       AB
   \   000082   2A           ADD       A,R2
   \   000083   F9           MOV       R1,A
   \   000084   E8           MOV       A,R0
   \   000085   2404         ADD       A,#0x4
   \   000087   FA           MOV       R2,A
   \   000088   E4           CLR       A
   \   000089   39           ADDC      A,R1
   \   00008A   FB           MOV       R3,A
   \   00008B   12....       LCALL     `??osal_mem_alloc::?relay`; Banked call to: osal_mem_alloc
   \   00008E   8A..         MOV       ?V0,R2
   \   000090   8B..         MOV       ?V1,R3
   \   000092   85....       MOV       ?V2,?V0
   \   000095   85....       MOV       ?V3,?V1
   3216            if ( pRsp )
   \   000098   E5..         MOV       A,?V2
   \   00009A   45..         ORL       A,?V3
   \   00009C   7003         JNZ       $+5
   \   00009E   02....       LJMP      ??ZDO_ParseMgmtLqiRsp_1 & 0xFFFF
   3217            {
   3218              uint8 x;
   3219              ZDP_MgmtLqiItem_t *pList = pRsp->list;
   \   0000A1   E5..         MOV       A,?V2
   \   0000A3   2404         ADD       A,#0x4
   \   0000A5   F5..         MOV       ?V0,A
   \   0000A7   E4           CLR       A
   \   0000A8   35..         ADDC      A,?V3
   \   0000AA   F5..         MOV       ?V1,A
   3220              pRsp->status = status;
   \   0000AC   E5..         MOV       A,?V9
   \   0000AE   C0E0         PUSH      A
   \   0000B0   85..82       MOV       DPL,?V2
   \   0000B3   85..83       MOV       DPH,?V3
   \   0000B6   D0E0         POP       A
   \   0000B8   F0           MOVX      @DPTR,A
   3221              pRsp->neighborLqiEntries = neighborLqiEntries;
   \   0000B9   E5..         MOV       A,?V5
   \   0000BB   C0E0         PUSH      A
   \   0000BD   85..82       MOV       DPL,?V2
   \   0000C0   85..83       MOV       DPH,?V3
   \   0000C3   A3           INC       DPTR
   \   0000C4   D0E0         POP       A
   \   0000C6   F0           MOVX      @DPTR,A
   3222              pRsp->startIndex = startIndex;
   \   0000C7   E5..         MOV       A,?V6
   \   0000C9   C0E0         PUSH      A
   \   0000CB   85..82       MOV       DPL,?V2
   \   0000CE   85..83       MOV       DPH,?V3
   \   0000D1   A3           INC       DPTR
   \   0000D2   A3           INC       DPTR
   \   0000D3   D0E0         POP       A
   \   0000D5   F0           MOVX      @DPTR,A
   3223              pRsp->neighborLqiCount = neighborLqiCount;
   \   0000D6   E5..         MOV       A,?V4
   \   0000D8   C0E0         PUSH      A
   \   0000DA   85..82       MOV       DPL,?V2
   \   0000DD   85..83       MOV       DPH,?V3
   \   0000E0   A3           INC       DPTR
   \   0000E1   A3           INC       DPTR
   \   0000E2   A3           INC       DPTR
   \   0000E3   D0E0         POP       A
   \   0000E5   F0           MOVX      @DPTR,A
   3224          
   3225              for ( x = 0; x < neighborLqiCount; x++ )
   \   0000E6   75..00       MOV       ?V8,#0x0
   \                     ??ZDO_ParseMgmtLqiRsp_2:
   \   0000E9   E5..         MOV       A,?V8
   \   0000EB   C3           CLR       C
   \   0000EC   95..         SUBB      A,?V4
   \   0000EE   4003         JC        $+5
   \   0000F0   02....       LJMP      ??ZDO_ParseMgmtLqiRsp_1 & 0xFFFF
   3226              {
   3227                uint8 tmp;
   3228          
   3229                pList->panID = 0; // This isn't in the record, why is it in the structure?
   \   0000F3   85..82       MOV       DPL,?V0
   \   0000F6   85..83       MOV       DPH,?V1
   \   0000F9   7400         MOV       A,#0x0
   \   0000FB   F0           MOVX      @DPTR,A
   \   0000FC   A3           INC       DPTR
   \   0000FD   7400         MOV       A,#0x0
   \   0000FF   F0           MOVX      @DPTR,A
   3230                osal_cpyExtAddr(pList->extPanID, msg);   //Copy extended PAN ID
   \   000100                ; Setup parameters for call to function sAddrExtCpy
   \   000100   EE           MOV       A,R6
   \   000101   FC           MOV       R4,A
   \   000102   EF           MOV       A,R7
   \   000103   FD           MOV       R5,A
   \   000104   E5..         MOV       A,?V0
   \   000106   2402         ADD       A,#0x2
   \   000108   FA           MOV       R2,A
   \   000109   E4           CLR       A
   \   00010A   35..         ADDC      A,?V1
   \   00010C   FB           MOV       R3,A
   \   00010D   12....       LCALL     `??sAddrExtCpy::?relay`; Banked call to: sAddrExtCpy
   3231                msg += Z_EXTADDR_LEN;
   \   000110   EE           MOV       A,R6
   \   000111   2408         ADD       A,#0x8
   \   000113   FE           MOV       R6,A
   \   000114   5001         JNC       ??ZDO_ParseMgmtLqiRsp_3
   \   000116   0F           INC       R7
   3232          
   3233                osal_cpyExtAddr(pList->extAddr, msg);   //Copy extended address
   \                     ??ZDO_ParseMgmtLqiRsp_3:
   \   000117                ; Setup parameters for call to function sAddrExtCpy
   \   000117   EE           MOV       A,R6
   \   000118   FC           MOV       R4,A
   \   000119   EF           MOV       A,R7
   \   00011A   FD           MOV       R5,A
   \   00011B   E5..         MOV       A,?V0
   \   00011D   240A         ADD       A,#0xa
   \   00011F   FA           MOV       R2,A
   \   000120   E4           CLR       A
   \   000121   35..         ADDC      A,?V1
   \   000123   FB           MOV       R3,A
   \   000124   12....       LCALL     `??sAddrExtCpy::?relay`; Banked call to: sAddrExtCpy
   3234                msg += Z_EXTADDR_LEN;
   \   000127   EE           MOV       A,R6
   \   000128   2408         ADD       A,#0x8
   \   00012A   FE           MOV       R6,A
   \   00012B   5001         JNC       ??ZDO_ParseMgmtLqiRsp_4
   \   00012D   0F           INC       R7
   3235          
   3236                pList->nwkAddr = BUILD_UINT16( msg[0], msg[1] );
   \                     ??ZDO_ParseMgmtLqiRsp_4:
   \   00012E   8E82         MOV       DPL,R6
   \   000130   8F83         MOV       DPH,R7
   \   000132   E0           MOVX      A,@DPTR
   \   000133   FA           MOV       R2,A
   \   000134   7B00         MOV       R3,#0x0
   \   000136   8E82         MOV       DPL,R6
   \   000138   8F83         MOV       DPH,R7
   \   00013A   A3           INC       DPTR
   \   00013B   E0           MOVX      A,@DPTR
   \   00013C   F8           MOV       R0,A
   \   00013D   7900         MOV       R1,#0x0
   \   00013F   E4           CLR       A
   \   000140   C8           XCH       A,R0
   \   000141   F9           MOV       R1,A
   \   000142   EA           MOV       A,R2
   \   000143   28           ADD       A,R0
   \   000144   F8           MOV       R0,A
   \   000145   EB           MOV       A,R3
   \   000146   39           ADDC      A,R1
   \   000147   F9           MOV       R1,A
   \   000148   E5..         MOV       A,?V0
   \   00014A   2412         ADD       A,#0x12
   \   00014C   F582         MOV       DPL,A
   \   00014E   E4           CLR       A
   \   00014F   35..         ADDC      A,?V1
   \   000151   F583         MOV       DPH,A
   \   000153   E8           MOV       A,R0
   \   000154   F0           MOVX      @DPTR,A
   \   000155   A3           INC       DPTR
   \   000156   E9           MOV       A,R1
   \   000157   F0           MOVX      @DPTR,A
   3237                msg += 2;
   \   000158   EE           MOV       A,R6
   \   000159   2402         ADD       A,#0x2
   \   00015B   FE           MOV       R6,A
   \   00015C   5001         JNC       ??ZDO_ParseMgmtLqiRsp_5
   \   00015E   0F           INC       R7
   3238          
   3239                tmp = *msg++;
   \                     ??ZDO_ParseMgmtLqiRsp_5:
   \   00015F   8E82         MOV       DPL,R6
   \   000161   8F83         MOV       DPH,R7
   \   000163   E0           MOVX      A,@DPTR
   \   000164   F5..         MOV       ?V7,A
   \   000166   8E82         MOV       DPL,R6
   \   000168   8F83         MOV       DPH,R7
   \   00016A   A3           INC       DPTR
   \   00016B   AE82         MOV       R6,DPL
   \   00016D   AF83         MOV       R7,DPH
   3240                pList->devType = tmp & 0x03;
   \   00016F   7403         MOV       A,#0x3
   \   000171   55..         ANL       A,?V7
   \   000173   C0E0         PUSH      A
   \   000175   E5..         MOV       A,?V0
   \   000177   2414         ADD       A,#0x14
   \   000179   F582         MOV       DPL,A
   \   00017B   E4           CLR       A
   \   00017C   35..         ADDC      A,?V1
   \   00017E   F583         MOV       DPH,A
   \   000180   D0E0         POP       A
   \   000182   F0           MOVX      @DPTR,A
   3241                pList->rxOnIdle = (tmp >> 2) & 0x03;
   \   000183   E5..         MOV       A,?V7
   \   000185   13           RRC       A
   \   000186   13           RRC       A
   \   000187   543F         ANL       A,#0x3f
   \   000189   5403         ANL       A,#0x3
   \   00018B   C0E0         PUSH      A
   \   00018D   E5..         MOV       A,?V0
   \   00018F   2415         ADD       A,#0x15
   \   000191   F582         MOV       DPL,A
   \   000193   E4           CLR       A
   \   000194   35..         ADDC      A,?V1
   \   000196   F583         MOV       DPH,A
   \   000198   D0E0         POP       A
   \   00019A   F0           MOVX      @DPTR,A
   3242                pList->relation = (tmp >> 4) & 0x07;
   \   00019B   E5..         MOV       A,?V7
   \   00019D   C4           SWAP      A
   \   00019E   540F         ANL       A,#0xf
   \   0001A0   5407         ANL       A,#0x7
   \   0001A2   C0E0         PUSH      A
   \   0001A4   E5..         MOV       A,?V0
   \   0001A6   2416         ADD       A,#0x16
   \   0001A8   F582         MOV       DPL,A
   \   0001AA   E4           CLR       A
   \   0001AB   35..         ADDC      A,?V1
   \   0001AD   F583         MOV       DPH,A
   \   0001AF   D0E0         POP       A
   \   0001B1   F0           MOVX      @DPTR,A
   3243          
   3244                pList->permit = (*msg++) & 0x03;
   \   0001B2   8E82         MOV       DPL,R6
   \   0001B4   8F83         MOV       DPH,R7
   \   0001B6   E0           MOVX      A,@DPTR
   \   0001B7   5403         ANL       A,#0x3
   \   0001B9   C0E0         PUSH      A
   \   0001BB   E5..         MOV       A,?V0
   \   0001BD   2417         ADD       A,#0x17
   \   0001BF   F582         MOV       DPL,A
   \   0001C1   E4           CLR       A
   \   0001C2   35..         ADDC      A,?V1
   \   0001C4   F583         MOV       DPH,A
   \   0001C6   D0E0         POP       A
   \   0001C8   F0           MOVX      @DPTR,A
   \   0001C9   8E82         MOV       DPL,R6
   \   0001CB   8F83         MOV       DPH,R7
   \   0001CD   A3           INC       DPTR
   \   0001CE   AE82         MOV       R6,DPL
   \   0001D0   AF83         MOV       R7,DPH
   3245          
   3246                pList->depth = *msg++;
   \   0001D2   8E82         MOV       DPL,R6
   \   0001D4   8F83         MOV       DPH,R7
   \   0001D6   E0           MOVX      A,@DPTR
   \   0001D7   C0E0         PUSH      A
   \   0001D9   E5..         MOV       A,?V0
   \   0001DB   2418         ADD       A,#0x18
   \   0001DD   F582         MOV       DPL,A
   \   0001DF   E4           CLR       A
   \   0001E0   35..         ADDC      A,?V1
   \   0001E2   F583         MOV       DPH,A
   \   0001E4   D0E0         POP       A
   \   0001E6   F0           MOVX      @DPTR,A
   \   0001E7   8E82         MOV       DPL,R6
   \   0001E9   8F83         MOV       DPH,R7
   \   0001EB   A3           INC       DPTR
   \   0001EC   AE82         MOV       R6,DPL
   \   0001EE   AF83         MOV       R7,DPH
   3247          
   3248                pList->lqi = *msg++;
   \   0001F0   8E82         MOV       DPL,R6
   \   0001F2   8F83         MOV       DPH,R7
   \   0001F4   E0           MOVX      A,@DPTR
   \   0001F5   C0E0         PUSH      A
   \   0001F7   E5..         MOV       A,?V0
   \   0001F9   2419         ADD       A,#0x19
   \   0001FB   F582         MOV       DPL,A
   \   0001FD   E4           CLR       A
   \   0001FE   35..         ADDC      A,?V1
   \   000200   F583         MOV       DPH,A
   \   000202   D0E0         POP       A
   \   000204   F0           MOVX      @DPTR,A
   \   000205   8E82         MOV       DPL,R6
   \   000207   8F83         MOV       DPH,R7
   \   000209   A3           INC       DPTR
   \   00020A   AE82         MOV       R6,DPL
   \   00020C   AF83         MOV       R7,DPH
   3249                pList++;
   \   00020E   E5..         MOV       A,?V0
   \   000210   241A         ADD       A,#0x1a
   \   000212   F5..         MOV       ?V0,A
   \   000214   5002         JNC       ??ZDO_ParseMgmtLqiRsp_6
   \   000216   05..         INC       ?V1
   3250              }
   \                     ??ZDO_ParseMgmtLqiRsp_6:
   \   000218   05..         INC       ?V8
   \   00021A   02....       LJMP      ??ZDO_ParseMgmtLqiRsp_2 & 0xFFFF
   3251            }
   3252          
   3253            return ( pRsp );
   \                     ??ZDO_ParseMgmtLqiRsp_1:
   \   00021D   AA..         MOV       R2,?V2
   \   00021F   AB..         MOV       R3,?V3
   \   000221   7F0C         MOV       R7,#0xc
   \   000223   02....       LJMP      ?BANKED_LEAVE_XDATA
   3254          }
   3255          
   3256          /*********************************************************************
   3257           * @fn          ZDO_ParseMgmNwkDiscRsp
   3258           *
   3259           * @brief       This function parses the incoming Management
   3260           *              Network Discover response.
   3261           *
   3262           * @param       inMsg - incoming message
   3263           *
   3264           * @return      pointer to parsed response.  This structure was
   3265           *          allocated using osal_mem_alloc, so it must be freed
   3266           *          by the calling function [osal_mem_free()].
   3267           */

   \                                 In  segment BANKED_CODE, align 1, keep-with-next
   3268          ZDO_MgmNwkDiscRsp_t *ZDO_ParseMgmNwkDiscRsp( zdoIncomingMsg_t *inMsg )
   \                     ZDO_ParseMgmNwkDiscRsp:
   3269          {
   \   000000                REQUIRE ?V0
   \   000000                REQUIRE ?V1
   \   000000                REQUIRE ?V2
   \   000000                REQUIRE ?V3
   \   000000                REQUIRE ?V4
   \   000000                REQUIRE ?V5
   \   000000                REQUIRE ?V6
   \   000000                REQUIRE ?V7
   \   000000                REQUIRE ?V8
   \   000000                REQUIRE ?V10
   \   000000                REQUIRE ?V11
   \   000000   74EC         MOV       A,#-0x14
   \   000002   12....       LCALL     ?BANKED_ENTER_XDATA
   \   000005                ; Saved register size: 20
   \   000005                ; Auto size: 0
   \   000005   8A..         MOV       ?V10,R2
   \   000007   8B..         MOV       ?V11,R3
   3270            ZDO_MgmNwkDiscRsp_t *pRsp;
   3271            uint8 status;
   3272            uint8 networkCount = 0;
   \   000009   75..00       MOV       ?V6,#0x0
   3273            uint8 startIndex = 0;
   \   00000C   75..00       MOV       ?V5,#0x0
   3274            uint8 networkListCount = 0;
   \   00000F   75..00       MOV       ?V4,#0x0
   3275            uint8 *msg;
   3276          
   3277            msg = inMsg->asdu;
   \   000012   E5..         MOV       A,?V10
   \   000014   2413         ADD       A,#0x13
   \   000016   F582         MOV       DPL,A
   \   000018   E4           CLR       A
   \   000019   35..         ADDC      A,?V11
   \   00001B   F583         MOV       DPH,A
   \   00001D   E0           MOVX      A,@DPTR
   \   00001E   F8           MOV       R0,A
   \   00001F   A3           INC       DPTR
   \   000020   E0           MOVX      A,@DPTR
   \   000021   F9           MOV       R1,A
   \   000022   E8           MOV       A,R0
   \   000023   FE           MOV       R6,A
   \   000024   E9           MOV       A,R1
   \   000025   FF           MOV       R7,A
   3278            status = *msg++;
   \   000026   8E82         MOV       DPL,R6
   \   000028   8F83         MOV       DPH,R7
   \   00002A   E0           MOVX      A,@DPTR
   \   00002B   F5..         MOV       ?V8,A
   \   00002D   8E82         MOV       DPL,R6
   \   00002F   8F83         MOV       DPH,R7
   \   000031   A3           INC       DPTR
   \   000032   AE82         MOV       R6,DPL
   \   000034   AF83         MOV       R7,DPH
   3279          
   3280            if ( status == ZSuccess )
   \   000036   E5..         MOV       A,?V8
   \   000038   7030         JNZ       ??ZDO_ParseMgmNwkDiscRsp_0
   3281            {
   3282              networkCount = *msg++;
   \   00003A   8E82         MOV       DPL,R6
   \   00003C   8F83         MOV       DPH,R7
   \   00003E   E0           MOVX      A,@DPTR
   \   00003F   F5..         MOV       ?V6,A
   \   000041   8E82         MOV       DPL,R6
   \   000043   8F83         MOV       DPH,R7
   \   000045   A3           INC       DPTR
   \   000046   AE82         MOV       R6,DPL
   \   000048   AF83         MOV       R7,DPH
   3283              startIndex = *msg++;
   \   00004A   8E82         MOV       DPL,R6
   \   00004C   8F83         MOV       DPH,R7
   \   00004E   E0           MOVX      A,@DPTR
   \   00004F   F5..         MOV       ?V5,A
   \   000051   8E82         MOV       DPL,R6
   \   000053   8F83         MOV       DPH,R7
   \   000055   A3           INC       DPTR
   \   000056   AE82         MOV       R6,DPL
   \   000058   AF83         MOV       R7,DPH
   3284              networkListCount = *msg++;
   \   00005A   8E82         MOV       DPL,R6
   \   00005C   8F83         MOV       DPH,R7
   \   00005E   E0           MOVX      A,@DPTR
   \   00005F   F5..         MOV       ?V4,A
   \   000061   8E82         MOV       DPL,R6
   \   000063   8F83         MOV       DPH,R7
   \   000065   A3           INC       DPTR
   \   000066   AE82         MOV       R6,DPL
   \   000068   AF83         MOV       R7,DPH
   3285            }
   3286          
   3287            // Allocate a buffer big enough to handle the list.
   3288            pRsp = (ZDO_MgmNwkDiscRsp_t *)osal_mem_alloc( sizeof( ZDO_MgmNwkDiscRsp_t )
   3289                                            + (networkListCount * sizeof( mgmtNwkDiscItem_t )) );
   \                     ??ZDO_ParseMgmNwkDiscRsp_0:
   \   00006A                ; Setup parameters for call to function osal_mem_alloc
   \   00006A   E5..         MOV       A,?V4
   \   00006C   F8           MOV       R0,A
   \   00006D   7900         MOV       R1,#0x0
   \   00006F   E8           MOV       A,R0
   \   000070   75F010       MOV       B,#0x10
   \   000073   A4           MUL       AB
   \   000074   C8           XCH       A,R0
   \   000075   AAF0         MOV       R2,B
   \   000077   75F000       MOV       B,#0x0
   \   00007A   A4           MUL       AB
   \   00007B   2A           ADD       A,R2
   \   00007C   FA           MOV       R2,A
   \   00007D   75F010       MOV       B,#0x10
   \   000080   E9           MOV       A,R1
   \   000081   A4           MUL       AB
   \   000082   2A           ADD       A,R2
   \   000083   F9           MOV       R1,A
   \   000084   E8           MOV       A,R0
   \   000085   2404         ADD       A,#0x4
   \   000087   FA           MOV       R2,A
   \   000088   E4           CLR       A
   \   000089   39           ADDC      A,R1
   \   00008A   FB           MOV       R3,A
   \   00008B   12....       LCALL     `??osal_mem_alloc::?relay`; Banked call to: osal_mem_alloc
   \   00008E   8A..         MOV       ?V0,R2
   \   000090   8B..         MOV       ?V1,R3
   \   000092   85....       MOV       ?V2,?V0
   \   000095   85....       MOV       ?V3,?V1
   3290            if ( pRsp )
   \   000098   E5..         MOV       A,?V2
   \   00009A   45..         ORL       A,?V3
   \   00009C   7003         JNZ       $+5
   \   00009E   02....       LJMP      ??ZDO_ParseMgmNwkDiscRsp_1 & 0xFFFF
   3291            {
   3292              uint8 x;
   3293              mgmtNwkDiscItem_t *pList;
   3294          
   3295              pRsp->status = status;
   \   0000A1   E5..         MOV       A,?V8
   \   0000A3   C0E0         PUSH      A
   \   0000A5   85..82       MOV       DPL,?V2
   \   0000A8   85..83       MOV       DPH,?V3
   \   0000AB   D0E0         POP       A
   \   0000AD   F0           MOVX      @DPTR,A
   3296              pRsp->networkCount = networkCount;
   \   0000AE   E5..         MOV       A,?V6
   \   0000B0   C0E0         PUSH      A
   \   0000B2   85..82       MOV       DPL,?V2
   \   0000B5   85..83       MOV       DPH,?V3
   \   0000B8   A3           INC       DPTR
   \   0000B9   D0E0         POP       A
   \   0000BB   F0           MOVX      @DPTR,A
   3297              pRsp->startIndex = startIndex;
   \   0000BC   E5..         MOV       A,?V5
   \   0000BE   C0E0         PUSH      A
   \   0000C0   85..82       MOV       DPL,?V2
   \   0000C3   85..83       MOV       DPH,?V3
   \   0000C6   A3           INC       DPTR
   \   0000C7   A3           INC       DPTR
   \   0000C8   D0E0         POP       A
   \   0000CA   F0           MOVX      @DPTR,A
   3298              pRsp->networkListCount = networkListCount;
   \   0000CB   E5..         MOV       A,?V4
   \   0000CD   C0E0         PUSH      A
   \   0000CF   85..82       MOV       DPL,?V2
   \   0000D2   85..83       MOV       DPH,?V3
   \   0000D5   A3           INC       DPTR
   \   0000D6   A3           INC       DPTR
   \   0000D7   A3           INC       DPTR
   \   0000D8   D0E0         POP       A
   \   0000DA   F0           MOVX      @DPTR,A
   3299              pList = pRsp->list;
   \   0000DB   E5..         MOV       A,?V2
   \   0000DD   2404         ADD       A,#0x4
   \   0000DF   F8           MOV       R0,A
   \   0000E0   E4           CLR       A
   \   0000E1   35..         ADDC      A,?V3
   \   0000E3   F9           MOV       R1,A
   \   0000E4   88..         MOV       ?V0,R0
   \   0000E6   89..         MOV       ?V1,R1
   3300          
   3301              for ( x = 0; x < networkListCount; x++ )
   \   0000E8   75..00       MOV       ?V7,#0x0
   \                     ??ZDO_ParseMgmNwkDiscRsp_2:
   \   0000EB   E5..         MOV       A,?V7
   \   0000ED   C3           CLR       C
   \   0000EE   95..         SUBB      A,?V4
   \   0000F0   4003         JC        $+5
   \   0000F2   02....       LJMP      ??ZDO_ParseMgmNwkDiscRsp_1 & 0xFFFF
   3302              {
   3303                osal_cpyExtAddr(pList->extendedPANID, msg);   //Copy extended PAN ID
   \   0000F5                ; Setup parameters for call to function sAddrExtCpy
   \   0000F5   EE           MOV       A,R6
   \   0000F6   FC           MOV       R4,A
   \   0000F7   EF           MOV       A,R7
   \   0000F8   FD           MOV       R5,A
   \   0000F9   AA..         MOV       R2,?V0
   \   0000FB   AB..         MOV       R3,?V1
   \   0000FD   12....       LCALL     `??sAddrExtCpy::?relay`; Banked call to: sAddrExtCpy
   3304                pList->PANId = BUILD_UINT16( msg[0], msg[1] );
   \   000100   8E82         MOV       DPL,R6
   \   000102   8F83         MOV       DPH,R7
   \   000104   E0           MOVX      A,@DPTR
   \   000105   FA           MOV       R2,A
   \   000106   7B00         MOV       R3,#0x0
   \   000108   8E82         MOV       DPL,R6
   \   00010A   8F83         MOV       DPH,R7
   \   00010C   A3           INC       DPTR
   \   00010D   E0           MOVX      A,@DPTR
   \   00010E   F8           MOV       R0,A
   \   00010F   7900         MOV       R1,#0x0
   \   000111   E4           CLR       A
   \   000112   C8           XCH       A,R0
   \   000113   F9           MOV       R1,A
   \   000114   EA           MOV       A,R2
   \   000115   28           ADD       A,R0
   \   000116   F8           MOV       R0,A
   \   000117   EB           MOV       A,R3
   \   000118   39           ADDC      A,R1
   \   000119   F9           MOV       R1,A
   \   00011A   85..82       MOV       DPL,?V0
   \   00011D   85..83       MOV       DPH,?V1
   \   000120   A3           INC       DPTR
   \   000121   A3           INC       DPTR
   \   000122   A3           INC       DPTR
   \   000123   A3           INC       DPTR
   \   000124   A3           INC       DPTR
   \   000125   A3           INC       DPTR
   \   000126   A3           INC       DPTR
   \   000127   A3           INC       DPTR
   \   000128   E8           MOV       A,R0
   \   000129   F0           MOVX      @DPTR,A
   \   00012A   A3           INC       DPTR
   \   00012B   E9           MOV       A,R1
   \   00012C   F0           MOVX      @DPTR,A
   3305                msg += Z_EXTADDR_LEN;
   \   00012D   EE           MOV       A,R6
   \   00012E   2408         ADD       A,#0x8
   \   000130   FE           MOV       R6,A
   \   000131   5001         JNC       ??ZDO_ParseMgmNwkDiscRsp_3
   \   000133   0F           INC       R7
   3306          
   3307                pList->logicalChannel = *msg++;
   \                     ??ZDO_ParseMgmNwkDiscRsp_3:
   \   000134   8E82         MOV       DPL,R6
   \   000136   8F83         MOV       DPH,R7
   \   000138   E0           MOVX      A,@DPTR
   \   000139   C0E0         PUSH      A
   \   00013B   85..82       MOV       DPL,?V0
   \   00013E   85..83       MOV       DPH,?V1
   \   000141   A3           INC       DPTR
   \   000142   A3           INC       DPTR
   \   000143   A3           INC       DPTR
   \   000144   A3           INC       DPTR
   \   000145   A3           INC       DPTR
   \   000146   A3           INC       DPTR
   \   000147   A3           INC       DPTR
   \   000148   A3           INC       DPTR
   \   000149   A3           INC       DPTR
   \   00014A   A3           INC       DPTR
   \   00014B   D0E0         POP       A
   \   00014D   F0           MOVX      @DPTR,A
   \   00014E   8E82         MOV       DPL,R6
   \   000150   8F83         MOV       DPH,R7
   \   000152   A3           INC       DPTR
   \   000153   AE82         MOV       R6,DPL
   \   000155   AF83         MOV       R7,DPH
   3308                pList->stackProfile = (*msg) & 0x0F;
   \   000157   8E82         MOV       DPL,R6
   \   000159   8F83         MOV       DPH,R7
   \   00015B   E0           MOVX      A,@DPTR
   \   00015C   540F         ANL       A,#0xf
   \   00015E   C0E0         PUSH      A
   \   000160   E5..         MOV       A,?V0
   \   000162   240B         ADD       A,#0xb
   \   000164   F582         MOV       DPL,A
   \   000166   E4           CLR       A
   \   000167   35..         ADDC      A,?V1
   \   000169   F583         MOV       DPH,A
   \   00016B   D0E0         POP       A
   \   00016D   F0           MOVX      @DPTR,A
   3309                pList->version = (*msg++ >> 4) & 0x0F;
   \   00016E   8E82         MOV       DPL,R6
   \   000170   8F83         MOV       DPH,R7
   \   000172   E0           MOVX      A,@DPTR
   \   000173   C4           SWAP      A
   \   000174   540F         ANL       A,#0xf
   \   000176   C0E0         PUSH      A
   \   000178   E5..         MOV       A,?V0
   \   00017A   240C         ADD       A,#0xc
   \   00017C   F582         MOV       DPL,A
   \   00017E   E4           CLR       A
   \   00017F   35..         ADDC      A,?V1
   \   000181   F583         MOV       DPH,A
   \   000183   D0E0         POP       A
   \   000185   F0           MOVX      @DPTR,A
   \   000186   8E82         MOV       DPL,R6
   \   000188   8F83         MOV       DPH,R7
   \   00018A   A3           INC       DPTR
   \   00018B   AE82         MOV       R6,DPL
   \   00018D   AF83         MOV       R7,DPH
   3310                pList->beaconOrder = (*msg) & 0x0F;
   \   00018F   8E82         MOV       DPL,R6
   \   000191   8F83         MOV       DPH,R7
   \   000193   E0           MOVX      A,@DPTR
   \   000194   540F         ANL       A,#0xf
   \   000196   C0E0         PUSH      A
   \   000198   E5..         MOV       A,?V0
   \   00019A   240D         ADD       A,#0xd
   \   00019C   F582         MOV       DPL,A
   \   00019E   E4           CLR       A
   \   00019F   35..         ADDC      A,?V1
   \   0001A1   F583         MOV       DPH,A
   \   0001A3   D0E0         POP       A
   \   0001A5   F0           MOVX      @DPTR,A
   3311                pList->superFrameOrder = (*msg++ >> 4) & 0x0F;
   \   0001A6   8E82         MOV       DPL,R6
   \   0001A8   8F83         MOV       DPH,R7
   \   0001AA   E0           MOVX      A,@DPTR
   \   0001AB   C4           SWAP      A
   \   0001AC   540F         ANL       A,#0xf
   \   0001AE   C0E0         PUSH      A
   \   0001B0   E5..         MOV       A,?V0
   \   0001B2   240E         ADD       A,#0xe
   \   0001B4   F582         MOV       DPL,A
   \   0001B6   E4           CLR       A
   \   0001B7   35..         ADDC      A,?V1
   \   0001B9   F583         MOV       DPH,A
   \   0001BB   D0E0         POP       A
   \   0001BD   F0           MOVX      @DPTR,A
   \   0001BE   8E82         MOV       DPL,R6
   \   0001C0   8F83         MOV       DPH,R7
   \   0001C2   A3           INC       DPTR
   \   0001C3   AE82         MOV       R6,DPL
   \   0001C5   AF83         MOV       R7,DPH
   3312                pList->permitJoining = *msg++;
   \   0001C7   8E82         MOV       DPL,R6
   \   0001C9   8F83         MOV       DPH,R7
   \   0001CB   E0           MOVX      A,@DPTR
   \   0001CC   C0E0         PUSH      A
   \   0001CE   E5..         MOV       A,?V0
   \   0001D0   240F         ADD       A,#0xf
   \   0001D2   F582         MOV       DPL,A
   \   0001D4   E4           CLR       A
   \   0001D5   35..         ADDC      A,?V1
   \   0001D7   F583         MOV       DPH,A
   \   0001D9   D0E0         POP       A
   \   0001DB   F0           MOVX      @DPTR,A
   \   0001DC   8E82         MOV       DPL,R6
   \   0001DE   8F83         MOV       DPH,R7
   \   0001E0   A3           INC       DPTR
   \   0001E1   AE82         MOV       R6,DPL
   \   0001E3   AF83         MOV       R7,DPH
   3313                pList++;
   \   0001E5   E5..         MOV       A,?V0
   \   0001E7   2410         ADD       A,#0x10
   \   0001E9   F5..         MOV       ?V0,A
   \   0001EB   5002         JNC       ??ZDO_ParseMgmNwkDiscRsp_4
   \   0001ED   05..         INC       ?V1
   3314              }
   \                     ??ZDO_ParseMgmNwkDiscRsp_4:
   \   0001EF   05..         INC       ?V7
   \   0001F1   02....       LJMP      ??ZDO_ParseMgmNwkDiscRsp_2 & 0xFFFF
   3315            }
   3316          
   3317            return ( pRsp );
   \                     ??ZDO_ParseMgmNwkDiscRsp_1:
   \   0001F4   AA..         MOV       R2,?V2
   \   0001F6   AB..         MOV       R3,?V3
   \   0001F8   7F0C         MOV       R7,#0xc
   \   0001FA   02....       LJMP      ?BANKED_LEAVE_XDATA
   3318          }
   3319          
   3320          /*********************************************************************
   3321           * @fn          ZDO_ParseMgmtRtgRsp
   3322           *
   3323           * @brief       This function parses the incoming Management
   3324           *              Routing response.
   3325           *
   3326           * @param       inMsg - incoming message
   3327           *
   3328           * @return      a pointer to parsed response structure (NULL if not allocated).
   3329           *          This structure was allocated using osal_mem_alloc, so it must be freed
   3330           *          by the calling function [osal_mem_free()].
   3331           */

   \                                 In  segment BANKED_CODE, align 1, keep-with-next
   3332          ZDO_MgmtRtgRsp_t *ZDO_ParseMgmtRtgRsp( zdoIncomingMsg_t *inMsg )
   \                     ZDO_ParseMgmtRtgRsp:
   3333          {
   \   000000                REQUIRE ?V0
   \   000000                REQUIRE ?V1
   \   000000                REQUIRE ?V2
   \   000000                REQUIRE ?V3
   \   000000                REQUIRE ?V4
   \   000000                REQUIRE ?V5
   \   000000                REQUIRE ?V6
   \   000000                REQUIRE ?V7
   \   000000                REQUIRE ?V8
   \   000000                REQUIRE ?V9
   \   000000   74EE         MOV       A,#-0x12
   \   000002   12....       LCALL     ?BANKED_ENTER_XDATA
   \   000005                ; Saved register size: 18
   \   000005                ; Auto size: 0
   \   000005   8A..         MOV       ?V2,R2
   \   000007   8B..         MOV       ?V3,R3
   3334            ZDO_MgmtRtgRsp_t *pRsp;
   3335            uint8 status;
   3336            uint8 rtgCount = 0;
   \   000009   75..00       MOV       ?V4,#0x0
   3337            uint8 startIndex = 0;
   \   00000C   75..00       MOV       ?V5,#0x0
   3338            uint8 rtgListCount = 0;
   \   00000F   75..00       MOV       ?V6,#0x0
   3339            uint8 *msg;
   3340          
   3341            msg = inMsg->asdu;
   \   000012   E5..         MOV       A,?V2
   \   000014   2413         ADD       A,#0x13
   \   000016   F582         MOV       DPL,A
   \   000018   E4           CLR       A
   \   000019   35..         ADDC      A,?V3
   \   00001B   F583         MOV       DPH,A
   \   00001D   E0           MOVX      A,@DPTR
   \   00001E   F8           MOV       R0,A
   \   00001F   A3           INC       DPTR
   \   000020   E0           MOVX      A,@DPTR
   \   000021   F9           MOV       R1,A
   \   000022   E8           MOV       A,R0
   \   000023   FE           MOV       R6,A
   \   000024   E9           MOV       A,R1
   \   000025   FF           MOV       R7,A
   3342          
   3343            status = *msg++;
   \   000026   8E82         MOV       DPL,R6
   \   000028   8F83         MOV       DPH,R7
   \   00002A   E0           MOVX      A,@DPTR
   \   00002B   F5..         MOV       ?V7,A
   \   00002D   8E82         MOV       DPL,R6
   \   00002F   8F83         MOV       DPH,R7
   \   000031   A3           INC       DPTR
   \   000032   AE82         MOV       R6,DPL
   \   000034   AF83         MOV       R7,DPH
   3344            if ( status == ZSuccess )
   \   000036   E5..         MOV       A,?V7
   \   000038   7030         JNZ       ??ZDO_ParseMgmtRtgRsp_0
   3345            {
   3346              rtgCount = *msg++;
   \   00003A   8E82         MOV       DPL,R6
   \   00003C   8F83         MOV       DPH,R7
   \   00003E   E0           MOVX      A,@DPTR
   \   00003F   F5..         MOV       ?V4,A
   \   000041   8E82         MOV       DPL,R6
   \   000043   8F83         MOV       DPH,R7
   \   000045   A3           INC       DPTR
   \   000046   AE82         MOV       R6,DPL
   \   000048   AF83         MOV       R7,DPH
   3347              startIndex = *msg++;
   \   00004A   8E82         MOV       DPL,R6
   \   00004C   8F83         MOV       DPH,R7
   \   00004E   E0           MOVX      A,@DPTR
   \   00004F   F5..         MOV       ?V5,A
   \   000051   8E82         MOV       DPL,R6
   \   000053   8F83         MOV       DPH,R7
   \   000055   A3           INC       DPTR
   \   000056   AE82         MOV       R6,DPL
   \   000058   AF83         MOV       R7,DPH
   3348              rtgListCount = *msg++;
   \   00005A   8E82         MOV       DPL,R6
   \   00005C   8F83         MOV       DPH,R7
   \   00005E   E0           MOVX      A,@DPTR
   \   00005F   F5..         MOV       ?V6,A
   \   000061   8E82         MOV       DPL,R6
   \   000063   8F83         MOV       DPH,R7
   \   000065   A3           INC       DPTR
   \   000066   AE82         MOV       R6,DPL
   \   000068   AF83         MOV       R7,DPH
   3349            }
   3350          
   3351            // Allocate a buffer big enough to handle the list
   3352            pRsp = (ZDO_MgmtRtgRsp_t *)osal_mem_alloc(
   3353                    sizeof( ZDO_MgmtRtgRsp_t ) + (rtgListCount * sizeof( rtgItem_t )) );
   \                     ??ZDO_ParseMgmtRtgRsp_0:
   \   00006A                ; Setup parameters for call to function osal_mem_alloc
   \   00006A   E5..         MOV       A,?V6
   \   00006C   F8           MOV       R0,A
   \   00006D   7900         MOV       R1,#0x0
   \   00006F   E8           MOV       A,R0
   \   000070   75F007       MOV       B,#0x7
   \   000073   A4           MUL       AB
   \   000074   C8           XCH       A,R0
   \   000075   AAF0         MOV       R2,B
   \   000077   75F000       MOV       B,#0x0
   \   00007A   A4           MUL       AB
   \   00007B   2A           ADD       A,R2
   \   00007C   FA           MOV       R2,A
   \   00007D   75F007       MOV       B,#0x7
   \   000080   E9           MOV       A,R1
   \   000081   A4           MUL       AB
   \   000082   2A           ADD       A,R2
   \   000083   F9           MOV       R1,A
   \   000084   E8           MOV       A,R0
   \   000085   2404         ADD       A,#0x4
   \   000087   FA           MOV       R2,A
   \   000088   E4           CLR       A
   \   000089   39           ADDC      A,R1
   \   00008A   FB           MOV       R3,A
   \   00008B   12....       LCALL     `??osal_mem_alloc::?relay`; Banked call to: osal_mem_alloc
   \   00008E   8A..         MOV       ?V8,R2
   \   000090   8B..         MOV       ?V9,R3
   \   000092   85....       MOV       ?V0,?V8
   \   000095   85....       MOV       ?V1,?V9
   3354            if ( pRsp )
   \   000098   E5..         MOV       A,?V0
   \   00009A   45..         ORL       A,?V1
   \   00009C   7003         JNZ       $+5
   \   00009E   02....       LJMP      ??ZDO_ParseMgmtRtgRsp_1 & 0xFFFF
   3355            {
   3356              uint8 x;
   3357              rtgItem_t *pList = pRsp->list;
   \   0000A1   E5..         MOV       A,?V0
   \   0000A3   2404         ADD       A,#0x4
   \   0000A5   FA           MOV       R2,A
   \   0000A6   E4           CLR       A
   \   0000A7   35..         ADDC      A,?V1
   \   0000A9   FB           MOV       R3,A
   3358              pRsp->status = status;
   \   0000AA   E5..         MOV       A,?V7
   \   0000AC   C0E0         PUSH      A
   \   0000AE   85..82       MOV       DPL,?V0
   \   0000B1   85..83       MOV       DPH,?V1
   \   0000B4   D0E0         POP       A
   \   0000B6   F0           MOVX      @DPTR,A
   3359              pRsp->rtgCount = rtgCount;
   \   0000B7   E5..         MOV       A,?V4
   \   0000B9   C0E0         PUSH      A
   \   0000BB   85..82       MOV       DPL,?V0
   \   0000BE   85..83       MOV       DPH,?V1
   \   0000C1   A3           INC       DPTR
   \   0000C2   D0E0         POP       A
   \   0000C4   F0           MOVX      @DPTR,A
   3360              pRsp->startIndex = startIndex;
   \   0000C5   E5..         MOV       A,?V5
   \   0000C7   C0E0         PUSH      A
   \   0000C9   85..82       MOV       DPL,?V0
   \   0000CC   85..83       MOV       DPH,?V1
   \   0000CF   A3           INC       DPTR
   \   0000D0   A3           INC       DPTR
   \   0000D1   D0E0         POP       A
   \   0000D3   F0           MOVX      @DPTR,A
   3361              pRsp->rtgListCount = rtgListCount;
   \   0000D4   E5..         MOV       A,?V6
   \   0000D6   C0E0         PUSH      A
   \   0000D8   85..82       MOV       DPL,?V0
   \   0000DB   85..83       MOV       DPH,?V1
   \   0000DE   A3           INC       DPTR
   \   0000DF   A3           INC       DPTR
   \   0000E0   A3           INC       DPTR
   \   0000E1   D0E0         POP       A
   \   0000E3   F0           MOVX      @DPTR,A
   3362          
   3363              for ( x = 0; x < rtgListCount; x++ )
   \   0000E4   7800         MOV       R0,#0x0
   \                     ??ZDO_ParseMgmtRtgRsp_2:
   \   0000E6   E8           MOV       A,R0
   \   0000E7   C3           CLR       C
   \   0000E8   95..         SUBB      A,?V6
   \   0000EA   4003         JC        $+5
   \   0000EC   02....       LJMP      ??ZDO_ParseMgmtRtgRsp_1 & 0xFFFF
   3364              {
   3365                uint8 statOpt;
   3366          
   3367                pList->dstAddress = BUILD_UINT16( msg[0], msg[1] );
   \   0000EF   8E82         MOV       DPL,R6
   \   0000F1   8F83         MOV       DPH,R7
   \   0000F3   E0           MOVX      A,@DPTR
   \   0000F4   F5..         MOV       ?V8,A
   \   0000F6   75..00       MOV       ?V9,#0x0
   \   0000F9   8E82         MOV       DPL,R6
   \   0000FB   8F83         MOV       DPH,R7
   \   0000FD   A3           INC       DPTR
   \   0000FE   E0           MOVX      A,@DPTR
   \   0000FF   FC           MOV       R4,A
   \   000100   7D00         MOV       R5,#0x0
   \   000102   E4           CLR       A
   \   000103   CC           XCH       A,R4
   \   000104   FD           MOV       R5,A
   \   000105   E5..         MOV       A,?V8
   \   000107   2C           ADD       A,R4
   \   000108   FC           MOV       R4,A
   \   000109   E5..         MOV       A,?V9
   \   00010B   3D           ADDC      A,R5
   \   00010C   FD           MOV       R5,A
   \   00010D   8A82         MOV       DPL,R2
   \   00010F   8B83         MOV       DPH,R3
   \   000111   EC           MOV       A,R4
   \   000112   F0           MOVX      @DPTR,A
   \   000113   A3           INC       DPTR
   \   000114   ED           MOV       A,R5
   \   000115   F0           MOVX      @DPTR,A
   3368                msg += 2;
   \   000116   EE           MOV       A,R6
   \   000117   2402         ADD       A,#0x2
   \   000119   FE           MOV       R6,A
   \   00011A   5001         JNC       ??ZDO_ParseMgmtRtgRsp_3
   \   00011C   0F           INC       R7
   3369                statOpt = *msg++;
   \                     ??ZDO_ParseMgmtRtgRsp_3:
   \   00011D   8E82         MOV       DPL,R6
   \   00011F   8F83         MOV       DPH,R7
   \   000121   E0           MOVX      A,@DPTR
   \   000122   F9           MOV       R1,A
   \   000123   8E82         MOV       DPL,R6
   \   000125   8F83         MOV       DPH,R7
   \   000127   A3           INC       DPTR
   \   000128   AE82         MOV       R6,DPL
   \   00012A   AF83         MOV       R7,DPH
   3370                pList->status = (statOpt & 0x07);
   \   00012C   7407         MOV       A,#0x7
   \   00012E   59           ANL       A,R1
   \   00012F   C0E0         PUSH      A
   \   000131   8A82         MOV       DPL,R2
   \   000133   8B83         MOV       DPH,R3
   \   000135   A3           INC       DPTR
   \   000136   A3           INC       DPTR
   \   000137   A3           INC       DPTR
   \   000138   A3           INC       DPTR
   \   000139   A3           INC       DPTR
   \   00013A   D0E0         POP       A
   \   00013C   F0           MOVX      @DPTR,A
   3371                pList->options = ((statOpt >> 3) & 0x07);
   \   00013D   E9           MOV       A,R1
   \   00013E   13           RRC       A
   \   00013F   13           RRC       A
   \   000140   13           RRC       A
   \   000141   541F         ANL       A,#0x1f
   \   000143   5407         ANL       A,#0x7
   \   000145   C0E0         PUSH      A
   \   000147   8A82         MOV       DPL,R2
   \   000149   8B83         MOV       DPH,R3
   \   00014B   A3           INC       DPTR
   \   00014C   A3           INC       DPTR
   \   00014D   A3           INC       DPTR
   \   00014E   A3           INC       DPTR
   \   00014F   A3           INC       DPTR
   \   000150   A3           INC       DPTR
   \   000151   D0E0         POP       A
   \   000153   F0           MOVX      @DPTR,A
   3372                pList->nextHopAddress = BUILD_UINT16( msg[0], msg[1] );
   \   000154   8E82         MOV       DPL,R6
   \   000156   8F83         MOV       DPH,R7
   \   000158   E0           MOVX      A,@DPTR
   \   000159   F5..         MOV       ?V8,A
   \   00015B   75..00       MOV       ?V9,#0x0
   \   00015E   8E82         MOV       DPL,R6
   \   000160   8F83         MOV       DPH,R7
   \   000162   A3           INC       DPTR
   \   000163   E0           MOVX      A,@DPTR
   \   000164   FC           MOV       R4,A
   \   000165   7D00         MOV       R5,#0x0
   \   000167   E4           CLR       A
   \   000168   CC           XCH       A,R4
   \   000169   FD           MOV       R5,A
   \   00016A   E5..         MOV       A,?V8
   \   00016C   2C           ADD       A,R4
   \   00016D   FC           MOV       R4,A
   \   00016E   E5..         MOV       A,?V9
   \   000170   3D           ADDC      A,R5
   \   000171   FD           MOV       R5,A
   \   000172   8A82         MOV       DPL,R2
   \   000174   8B83         MOV       DPH,R3
   \   000176   A3           INC       DPTR
   \   000177   A3           INC       DPTR
   \   000178   EC           MOV       A,R4
   \   000179   F0           MOVX      @DPTR,A
   \   00017A   A3           INC       DPTR
   \   00017B   ED           MOV       A,R5
   \   00017C   F0           MOVX      @DPTR,A
   3373                msg += 2;
   \   00017D   EE           MOV       A,R6
   \   00017E   2402         ADD       A,#0x2
   \   000180   FE           MOV       R6,A
   \   000181   5001         JNC       ??ZDO_ParseMgmtRtgRsp_4
   \   000183   0F           INC       R7
   3374                pList++;
   \                     ??ZDO_ParseMgmtRtgRsp_4:
   \   000184   EA           MOV       A,R2
   \   000185   2407         ADD       A,#0x7
   \   000187   FA           MOV       R2,A
   \   000188   5001         JNC       ??ZDO_ParseMgmtRtgRsp_5
   \   00018A   0B           INC       R3
   3375              }
   \                     ??ZDO_ParseMgmtRtgRsp_5:
   \   00018B   08           INC       R0
   \   00018C   02....       LJMP      ??ZDO_ParseMgmtRtgRsp_2 & 0xFFFF
   3376            }
   3377          
   3378            return ( pRsp );
   \                     ??ZDO_ParseMgmtRtgRsp_1:
   \   00018F   AA..         MOV       R2,?V0
   \   000191   AB..         MOV       R3,?V1
   \   000193   7F0A         MOV       R7,#0xa
   \   000195   02....       LJMP      ?BANKED_LEAVE_XDATA
   3379          }
   3380          
   3381          /*********************************************************************
   3382           * @fn          ZDO_ParseMgmtBindRsp
   3383           *
   3384           * @brief       This function parses the incoming Management
   3385           *              Binding response.
   3386           *
   3387           * @param       inMsg - pointer to message to parse
   3388           *
   3389           * @return      a pointer to parsed response structure (NULL if not allocated).
   3390           *          This structure was allocated using osal_mem_alloc, so it must be freed
   3391           *          by the calling function [osal_mem_free()].
   3392           */

   \                                 In  segment BANKED_CODE, align 1, keep-with-next
   3393          ZDO_MgmtBindRsp_t *ZDO_ParseMgmtBindRsp( zdoIncomingMsg_t *inMsg )
   \                     ZDO_ParseMgmtBindRsp:
   3394          {
   \   000000                REQUIRE ?V0
   \   000000                REQUIRE ?V1
   \   000000                REQUIRE ?V2
   \   000000                REQUIRE ?V3
   \   000000                REQUIRE ?V4
   \   000000                REQUIRE ?V5
   \   000000                REQUIRE ?V6
   \   000000                REQUIRE ?V7
   \   000000                REQUIRE ?V8
   \   000000                REQUIRE ?V10
   \   000000                REQUIRE ?V11
   \   000000                REQUIRE ?V12
   \   000000                REQUIRE ?V13
   \   000000   74EA         MOV       A,#-0x16
   \   000002   12....       LCALL     ?BANKED_ENTER_XDATA
   \   000005                ; Saved register size: 22
   \   000005                ; Auto size: 0
   \   000005   8A..         MOV       ?V10,R2
   \   000007   8B..         MOV       ?V11,R3
   3395            ZDO_MgmtBindRsp_t *pRsp;
   3396            uint8 status;
   3397            uint8 bindingCount = 0;
   \   000009   75..00       MOV       ?V6,#0x0
   3398            uint8 startIndex = 0;
   \   00000C   75..00       MOV       ?V5,#0x0
   3399            uint8 bindingListCount = 0;
   \   00000F   75..00       MOV       ?V4,#0x0
   3400            uint8 *msg;
   3401          
   3402            msg = inMsg->asdu;
   \   000012   E5..         MOV       A,?V10
   \   000014   2413         ADD       A,#0x13
   \   000016   F582         MOV       DPL,A
   \   000018   E4           CLR       A
   \   000019   35..         ADDC      A,?V11
   \   00001B   F583         MOV       DPH,A
   \   00001D   E0           MOVX      A,@DPTR
   \   00001E   F8           MOV       R0,A
   \   00001F   A3           INC       DPTR
   \   000020   E0           MOVX      A,@DPTR
   \   000021   F9           MOV       R1,A
   \   000022   88..         MOV       ?V2,R0
   \   000024   89..         MOV       ?V3,R1
   3403          
   3404            status = *msg++;
   \   000026   85..82       MOV       DPL,?V2
   \   000029   85..83       MOV       DPH,?V3
   \   00002C   E0           MOVX      A,@DPTR
   \   00002D   F5..         MOV       ?V8,A
   \   00002F   85..82       MOV       DPL,?V2
   \   000032   85..83       MOV       DPH,?V3
   \   000035   A3           INC       DPTR
   \   000036   8582..       MOV       ?V2,DPL
   \   000039   8583..       MOV       ?V3,DPH
   3405            if ( status == ZSuccess )
   \   00003C   E5..         MOV       A,?V8
   \   00003E   7042         JNZ       ??ZDO_ParseMgmtBindRsp_0
   3406            {
   3407              bindingCount = *msg++;
   \   000040   85..82       MOV       DPL,?V2
   \   000043   85..83       MOV       DPH,?V3
   \   000046   E0           MOVX      A,@DPTR
   \   000047   F5..         MOV       ?V6,A
   \   000049   85..82       MOV       DPL,?V2
   \   00004C   85..83       MOV       DPH,?V3
   \   00004F   A3           INC       DPTR
   \   000050   8582..       MOV       ?V2,DPL
   \   000053   8583..       MOV       ?V3,DPH
   3408              startIndex = *msg++;
   \   000056   85..82       MOV       DPL,?V2
   \   000059   85..83       MOV       DPH,?V3
   \   00005C   E0           MOVX      A,@DPTR
   \   00005D   F5..         MOV       ?V5,A
   \   00005F   85..82       MOV       DPL,?V2
   \   000062   85..83       MOV       DPH,?V3
   \   000065   A3           INC       DPTR
   \   000066   8582..       MOV       ?V2,DPL
   \   000069   8583..       MOV       ?V3,DPH
   3409              bindingListCount = *msg++;
   \   00006C   85..82       MOV       DPL,?V2
   \   00006F   85..83       MOV       DPH,?V3
   \   000072   E0           MOVX      A,@DPTR
   \   000073   F5..         MOV       ?V4,A
   \   000075   85..82       MOV       DPL,?V2
   \   000078   85..83       MOV       DPH,?V3
   \   00007B   A3           INC       DPTR
   \   00007C   8582..       MOV       ?V2,DPL
   \   00007F   8583..       MOV       ?V3,DPH
   3410            }
   3411          
   3412            // Allocate a buffer big enough to handle the list
   3413            pRsp = (ZDO_MgmtBindRsp_t *)osal_mem_alloc(
   3414                    (sizeof ( ZDO_MgmtBindRsp_t ) + (bindingListCount * sizeof( apsBindingItem_t ))) );
   \                     ??ZDO_ParseMgmtBindRsp_0:
   \   000082                ; Setup parameters for call to function osal_mem_alloc
   \   000082   E5..         MOV       A,?V4
   \   000084   F8           MOV       R0,A
   \   000085   7900         MOV       R1,#0x0
   \   000087   E8           MOV       A,R0
   \   000088   75F015       MOV       B,#0x15
   \   00008B   A4           MUL       AB
   \   00008C   C8           XCH       A,R0
   \   00008D   AAF0         MOV       R2,B
   \   00008F   75F000       MOV       B,#0x0
   \   000092   A4           MUL       AB
   \   000093   2A           ADD       A,R2
   \   000094   FA           MOV       R2,A
   \   000095   75F015       MOV       B,#0x15
   \   000098   E9           MOV       A,R1
   \   000099   A4           MUL       AB
   \   00009A   2A           ADD       A,R2
   \   00009B   F9           MOV       R1,A
   \   00009C   E8           MOV       A,R0
   \   00009D   2404         ADD       A,#0x4
   \   00009F   FA           MOV       R2,A
   \   0000A0   E4           CLR       A
   \   0000A1   39           ADDC      A,R1
   \   0000A2   FB           MOV       R3,A
   \   0000A3   12....       LCALL     `??osal_mem_alloc::?relay`; Banked call to: osal_mem_alloc
   \   0000A6   8A..         MOV       ?V12,R2
   \   0000A8   8B..         MOV       ?V13,R3
   \   0000AA   85....       MOV       ?V0,?V12
   \   0000AD   85....       MOV       ?V1,?V13
   3415            if ( pRsp )
   \   0000B0   E5..         MOV       A,?V0
   \   0000B2   45..         ORL       A,?V1
   \   0000B4   7003         JNZ       $+5
   \   0000B6   02....       LJMP      ??ZDO_ParseMgmtBindRsp_1 & 0xFFFF
   3416            {
   3417              uint8 x;
   3418              apsBindingItem_t *pList = pRsp->list;
   \   0000B9   E5..         MOV       A,?V0
   \   0000BB   2404         ADD       A,#0x4
   \   0000BD   FE           MOV       R6,A
   \   0000BE   E4           CLR       A
   \   0000BF   35..         ADDC      A,?V1
   \   0000C1   FF           MOV       R7,A
   3419              pRsp->status = status;
   \   0000C2   E5..         MOV       A,?V8
   \   0000C4   C0E0         PUSH      A
   \   0000C6   85..82       MOV       DPL,?V0
   \   0000C9   85..83       MOV       DPH,?V1
   \   0000CC   D0E0         POP       A
   \   0000CE   F0           MOVX      @DPTR,A
   3420              pRsp->bindingCount = bindingCount;
   \   0000CF   E5..         MOV       A,?V6
   \   0000D1   C0E0         PUSH      A
   \   0000D3   85..82       MOV       DPL,?V0
   \   0000D6   85..83       MOV       DPH,?V1
   \   0000D9   A3           INC       DPTR
   \   0000DA   D0E0         POP       A
   \   0000DC   F0           MOVX      @DPTR,A
   3421              pRsp->startIndex = startIndex;
   \   0000DD   E5..         MOV       A,?V5
   \   0000DF   C0E0         PUSH      A
   \   0000E1   85..82       MOV       DPL,?V0
   \   0000E4   85..83       MOV       DPH,?V1
   \   0000E7   A3           INC       DPTR
   \   0000E8   A3           INC       DPTR
   \   0000E9   D0E0         POP       A
   \   0000EB   F0           MOVX      @DPTR,A
   3422              pRsp->bindingListCount = bindingListCount;
   \   0000EC   E5..         MOV       A,?V4
   \   0000EE   C0E0         PUSH      A
   \   0000F0   85..82       MOV       DPL,?V0
   \   0000F3   85..83       MOV       DPH,?V1
   \   0000F6   A3           INC       DPTR
   \   0000F7   A3           INC       DPTR
   \   0000F8   A3           INC       DPTR
   \   0000F9   D0E0         POP       A
   \   0000FB   F0           MOVX      @DPTR,A
   3423          
   3424              for ( x = 0; x < bindingListCount; x++ )
   \   0000FC   75..00       MOV       ?V7,#0x0
   \                     ??ZDO_ParseMgmtBindRsp_2:
   \   0000FF   E5..         MOV       A,?V7
   \   000101   C3           CLR       C
   \   000102   95..         SUBB      A,?V4
   \   000104   4003         JC        $+5
   \   000106   02....       LJMP      ??ZDO_ParseMgmtBindRsp_1 & 0xFFFF
   3425              {
   3426                osal_cpyExtAddr( pList->srcAddr, msg );
   \   000109                ; Setup parameters for call to function sAddrExtCpy
   \   000109   AC..         MOV       R4,?V2
   \   00010B   AD..         MOV       R5,?V3
   \   00010D   EE           MOV       A,R6
   \   00010E   FA           MOV       R2,A
   \   00010F   EF           MOV       A,R7
   \   000110   FB           MOV       R3,A
   \   000111   12....       LCALL     `??sAddrExtCpy::?relay`; Banked call to: sAddrExtCpy
   3427                msg += Z_EXTADDR_LEN;
   \   000114   E5..         MOV       A,?V2
   \   000116   2408         ADD       A,#0x8
   \   000118   F5..         MOV       ?V2,A
   \   00011A   5002         JNC       ??ZDO_ParseMgmtBindRsp_3
   \   00011C   05..         INC       ?V3
   3428                pList->srcEP = *msg++;
   \                     ??ZDO_ParseMgmtBindRsp_3:
   \   00011E   85..82       MOV       DPL,?V2
   \   000121   85..83       MOV       DPH,?V3
   \   000124   E0           MOVX      A,@DPTR
   \   000125   C0E0         PUSH      A
   \   000127   8E82         MOV       DPL,R6
   \   000129   8F83         MOV       DPH,R7
   \   00012B   A3           INC       DPTR
   \   00012C   A3           INC       DPTR
   \   00012D   A3           INC       DPTR
   \   00012E   A3           INC       DPTR
   \   00012F   A3           INC       DPTR
   \   000130   A3           INC       DPTR
   \   000131   A3           INC       DPTR
   \   000132   A3           INC       DPTR
   \   000133   D0E0         POP       A
   \   000135   F0           MOVX      @DPTR,A
   \   000136   85..82       MOV       DPL,?V2
   \   000139   85..83       MOV       DPH,?V3
   \   00013C   A3           INC       DPTR
   \   00013D   8582..       MOV       ?V2,DPL
   \   000140   8583..       MOV       ?V3,DPH
   3429          
   3430                // Get the Cluster ID
   3431          
   3432                pList->clusterID = BUILD_UINT16( msg[0], msg[1] );
   \   000143   85..82       MOV       DPL,?V2
   \   000146   85..83       MOV       DPH,?V3
   \   000149   E0           MOVX      A,@DPTR
   \   00014A   FA           MOV       R2,A
   \   00014B   7B00         MOV       R3,#0x0
   \   00014D   85..82       MOV       DPL,?V2
   \   000150   85..83       MOV       DPH,?V3
   \   000153   A3           INC       DPTR
   \   000154   E0           MOVX      A,@DPTR
   \   000155   F8           MOV       R0,A
   \   000156   7900         MOV       R1,#0x0
   \   000158   E4           CLR       A
   \   000159   C8           XCH       A,R0
   \   00015A   F9           MOV       R1,A
   \   00015B   EA           MOV       A,R2
   \   00015C   28           ADD       A,R0
   \   00015D   F8           MOV       R0,A
   \   00015E   EB           MOV       A,R3
   \   00015F   39           ADDC      A,R1
   \   000160   F9           MOV       R1,A
   \   000161   8E82         MOV       DPL,R6
   \   000163   8F83         MOV       DPH,R7
   \   000165   A3           INC       DPTR
   \   000166   A3           INC       DPTR
   \   000167   A3           INC       DPTR
   \   000168   A3           INC       DPTR
   \   000169   A3           INC       DPTR
   \   00016A   A3           INC       DPTR
   \   00016B   A3           INC       DPTR
   \   00016C   A3           INC       DPTR
   \   00016D   A3           INC       DPTR
   \   00016E   E8           MOV       A,R0
   \   00016F   F0           MOVX      @DPTR,A
   \   000170   A3           INC       DPTR
   \   000171   E9           MOV       A,R1
   \   000172   F0           MOVX      @DPTR,A
   3433                msg += 2;
   \   000173   E5..         MOV       A,?V2
   \   000175   2402         ADD       A,#0x2
   \   000177   F5..         MOV       ?V2,A
   \   000179   5002         JNC       ??ZDO_ParseMgmtBindRsp_4
   \   00017B   05..         INC       ?V3
   3434                pList->dstAddr.addrMode = *msg++;
   \                     ??ZDO_ParseMgmtBindRsp_4:
   \   00017D   85..82       MOV       DPL,?V2
   \   000180   85..83       MOV       DPH,?V3
   \   000183   E0           MOVX      A,@DPTR
   \   000184   C0E0         PUSH      A
   \   000186   EE           MOV       A,R6
   \   000187   2413         ADD       A,#0x13
   \   000189   F582         MOV       DPL,A
   \   00018B   E4           CLR       A
   \   00018C   3F           ADDC      A,R7
   \   00018D   F583         MOV       DPH,A
   \   00018F   D0E0         POP       A
   \   000191   F0           MOVX      @DPTR,A
   \   000192   85..82       MOV       DPL,?V2
   \   000195   85..83       MOV       DPH,?V3
   \   000198   A3           INC       DPTR
   \   000199   8582..       MOV       ?V2,DPL
   \   00019C   8583..       MOV       ?V3,DPH
   3435                if ( pList->dstAddr.addrMode == Addr64Bit )
   \   00019F   EE           MOV       A,R6
   \   0001A0   2413         ADD       A,#0x13
   \   0001A2   F582         MOV       DPL,A
   \   0001A4   E4           CLR       A
   \   0001A5   3F           ADDC      A,R7
   \   0001A6   F583         MOV       DPH,A
   \   0001A8   E0           MOVX      A,@DPTR
   \   0001A9   6403         XRL       A,#0x3
   \   0001AB   703C         JNZ       ??ZDO_ParseMgmtBindRsp_5
   3436                {
   3437                  osal_cpyExtAddr( pList->dstAddr.addr.extAddr, msg );
   \   0001AD                ; Setup parameters for call to function sAddrExtCpy
   \   0001AD   AC..         MOV       R4,?V2
   \   0001AF   AD..         MOV       R5,?V3
   \   0001B1   EE           MOV       A,R6
   \   0001B2   240B         ADD       A,#0xb
   \   0001B4   FA           MOV       R2,A
   \   0001B5   E4           CLR       A
   \   0001B6   3F           ADDC      A,R7
   \   0001B7   FB           MOV       R3,A
   \   0001B8   12....       LCALL     `??sAddrExtCpy::?relay`; Banked call to: sAddrExtCpy
   3438                  msg += Z_EXTADDR_LEN;
   \   0001BB   E5..         MOV       A,?V2
   \   0001BD   2408         ADD       A,#0x8
   \   0001BF   F5..         MOV       ?V2,A
   \   0001C1   5002         JNC       ??ZDO_ParseMgmtBindRsp_6
   \   0001C3   05..         INC       ?V3
   3439                  pList->dstEP = *msg++;
   \                     ??ZDO_ParseMgmtBindRsp_6:
   \   0001C5   85..82       MOV       DPL,?V2
   \   0001C8   85..83       MOV       DPH,?V3
   \   0001CB   E0           MOVX      A,@DPTR
   \   0001CC   C0E0         PUSH      A
   \   0001CE   EE           MOV       A,R6
   \   0001CF   2414         ADD       A,#0x14
   \   0001D1   F582         MOV       DPL,A
   \   0001D3   E4           CLR       A
   \   0001D4   3F           ADDC      A,R7
   \   0001D5   F583         MOV       DPH,A
   \   0001D7   D0E0         POP       A
   \   0001D9   F0           MOVX      @DPTR,A
   \   0001DA   85..82       MOV       DPL,?V2
   \   0001DD   85..83       MOV       DPH,?V3
   \   0001E0   A3           INC       DPTR
   \   0001E1   8582..       MOV       ?V2,DPL
   \   0001E4   8583..       MOV       ?V3,DPH
   \   0001E7   8036         SJMP      ??ZDO_ParseMgmtBindRsp_7
   3440                }
   3441                else
   3442                {
   3443                  pList->dstAddr.addr.shortAddr = BUILD_UINT16( msg[0], msg[1] );
   \                     ??ZDO_ParseMgmtBindRsp_5:
   \   0001E9   85..82       MOV       DPL,?V2
   \   0001EC   85..83       MOV       DPH,?V3
   \   0001EF   E0           MOVX      A,@DPTR
   \   0001F0   FA           MOV       R2,A
   \   0001F1   7B00         MOV       R3,#0x0
   \   0001F3   85..82       MOV       DPL,?V2
   \   0001F6   85..83       MOV       DPH,?V3
   \   0001F9   A3           INC       DPTR
   \   0001FA   E0           MOVX      A,@DPTR
   \   0001FB   F8           MOV       R0,A
   \   0001FC   7900         MOV       R1,#0x0
   \   0001FE   E4           CLR       A
   \   0001FF   C8           XCH       A,R0
   \   000200   F9           MOV       R1,A
   \   000201   EA           MOV       A,R2
   \   000202   28           ADD       A,R0
   \   000203   F8           MOV       R0,A
   \   000204   EB           MOV       A,R3
   \   000205   39           ADDC      A,R1
   \   000206   F9           MOV       R1,A
   \   000207   EE           MOV       A,R6
   \   000208   240B         ADD       A,#0xb
   \   00020A   F582         MOV       DPL,A
   \   00020C   E4           CLR       A
   \   00020D   3F           ADDC      A,R7
   \   00020E   F583         MOV       DPH,A
   \   000210   E8           MOV       A,R0
   \   000211   F0           MOVX      @DPTR,A
   \   000212   A3           INC       DPTR
   \   000213   E9           MOV       A,R1
   \   000214   F0           MOVX      @DPTR,A
   3444                  msg += 2;
   \   000215   E5..         MOV       A,?V2
   \   000217   2402         ADD       A,#0x2
   \   000219   F5..         MOV       ?V2,A
   \   00021B   5002         JNC       ??ZDO_ParseMgmtBindRsp_7
   \   00021D   05..         INC       ?V3
   3445                }
   3446          
   3447                pList++;
   \                     ??ZDO_ParseMgmtBindRsp_7:
   \   00021F   EE           MOV       A,R6
   \   000220   2415         ADD       A,#0x15
   \   000222   FE           MOV       R6,A
   \   000223   5001         JNC       ??ZDO_ParseMgmtBindRsp_8
   \   000225   0F           INC       R7
   3448              }
   \                     ??ZDO_ParseMgmtBindRsp_8:
   \   000226   05..         INC       ?V7
   \   000228   02....       LJMP      ??ZDO_ParseMgmtBindRsp_2 & 0xFFFF
   3449            }
   3450          
   3451            return ( pRsp );
   \                     ??ZDO_ParseMgmtBindRsp_1:
   \   00022B   AA..         MOV       R2,?V0
   \   00022D   AB..         MOV       R3,?V1
   \   00022F   7F0E         MOV       R7,#0xe
   \   000231   02....       LJMP      ?BANKED_LEAVE_XDATA
   3452          }
   3453          
   3454          /*********************************************************************
   3455           * @fn          ZDO_ParseUserDescRsp
   3456           *
   3457           * @brief       This function parses the incoming User
   3458           *              Descriptor Response.
   3459           *
   3460           * @param       inMsg - incoming response message
   3461           *
   3462           * @return      a pointer to parsed response structure (NULL if not allocated).
   3463           *          This structure was allocated using osal_mem_alloc, so it must be freed
   3464           *          by the calling function [osal_mem_free()].
   3465           */

   \                                 In  segment BANKED_CODE, align 1, keep-with-next
   3466          ZDO_UserDescRsp_t *ZDO_ParseUserDescRsp( zdoIncomingMsg_t *inMsg )
   \                     ZDO_ParseUserDescRsp:
   3467          {
   \   000000                REQUIRE ?V0
   \   000000                REQUIRE ?V1
   \   000000                REQUIRE ?V2
   \   000000                REQUIRE ?V3
   \   000000                REQUIRE ?V4
   \   000000                REQUIRE ?V5
   \   000000                REQUIRE ?V6
   \   000000                REQUIRE ?V7
   \   000000   74F0         MOV       A,#-0x10
   \   000002   12....       LCALL     ?BANKED_ENTER_XDATA
   \   000005                ; Saved register size: 16
   \   000005                ; Auto size: 0
   \   000005   8A..         MOV       ?V2,R2
   \   000007   8B..         MOV       ?V3,R3
   3468            ZDO_UserDescRsp_t *pRsp;
   3469            uint8 *msg;
   3470            uint8 descLen = 0;
   \   000009   75..00       MOV       ?V7,#0x0
   3471          
   3472            msg = inMsg->asdu;
   \   00000C   E5..         MOV       A,?V2
   \   00000E   2413         ADD       A,#0x13
   \   000010   F582         MOV       DPL,A
   \   000012   E4           CLR       A
   \   000013   35..         ADDC      A,?V3
   \   000015   F583         MOV       DPH,A
   \   000017   E0           MOVX      A,@DPTR
   \   000018   F8           MOV       R0,A
   \   000019   A3           INC       DPTR
   \   00001A   E0           MOVX      A,@DPTR
   \   00001B   F9           MOV       R1,A
   \   00001C   88..         MOV       ?V0,R0
   \   00001E   89..         MOV       ?V1,R1
   3473          
   3474            if ( msg[0] == ZSuccess )
   \   000020   85..82       MOV       DPL,?V0
   \   000023   85..83       MOV       DPH,?V1
   \   000026   E0           MOVX      A,@DPTR
   \   000027   700C         JNZ       ??ZDO_ParseUserDescRsp_0
   3475            {
   3476              descLen = msg[3];
   \   000029   85..82       MOV       DPL,?V0
   \   00002C   85..83       MOV       DPH,?V1
   \   00002F   A3           INC       DPTR
   \   000030   A3           INC       DPTR
   \   000031   A3           INC       DPTR
   \   000032   E0           MOVX      A,@DPTR
   \   000033   F5..         MOV       ?V7,A
   3477            }
   3478          
   3479            pRsp = (ZDO_UserDescRsp_t *)osal_mem_alloc( sizeof ( ZDO_UserDescRsp_t ) + descLen );
   \                     ??ZDO_ParseUserDescRsp_0:
   \   000035                ; Setup parameters for call to function osal_mem_alloc
   \   000035   E5..         MOV       A,?V7
   \   000037   F8           MOV       R0,A
   \   000038   7900         MOV       R1,#0x0
   \   00003A   E8           MOV       A,R0
   \   00003B   2404         ADD       A,#0x4
   \   00003D   FA           MOV       R2,A
   \   00003E   E4           CLR       A
   \   00003F   39           ADDC      A,R1
   \   000040   FB           MOV       R3,A
   \   000041   12....       LCALL     `??osal_mem_alloc::?relay`; Banked call to: osal_mem_alloc
   \   000044   8A..         MOV       ?V4,R2
   \   000046   8B..         MOV       ?V5,R3
   \   000048   AE..         MOV       R6,?V4
   \   00004A   AF..         MOV       R7,?V5
   3480            if ( pRsp )
   \   00004C   EE           MOV       A,R6
   \   00004D   4F           ORL       A,R7
   \   00004E   6073         JZ        ??ZDO_ParseUserDescRsp_1
   3481            {
   3482              pRsp->status = msg[0];
   \   000050   85..82       MOV       DPL,?V0
   \   000053   85..83       MOV       DPH,?V1
   \   000056   E0           MOVX      A,@DPTR
   \   000057   C0E0         PUSH      A
   \   000059   8E82         MOV       DPL,R6
   \   00005B   8F83         MOV       DPH,R7
   \   00005D   D0E0         POP       A
   \   00005F   F0           MOVX      @DPTR,A
   3483              pRsp->nwkAddr = BUILD_UINT16( msg[1], msg[2] );
   \   000060   85..82       MOV       DPL,?V0
   \   000063   85..83       MOV       DPH,?V1
   \   000066   A3           INC       DPTR
   \   000067   E0           MOVX      A,@DPTR
   \   000068   FA           MOV       R2,A
   \   000069   7B00         MOV       R3,#0x0
   \   00006B   85..82       MOV       DPL,?V0
   \   00006E   85..83       MOV       DPH,?V1
   \   000071   A3           INC       DPTR
   \   000072   A3           INC       DPTR
   \   000073   E0           MOVX      A,@DPTR
   \   000074   F8           MOV       R0,A
   \   000075   7900         MOV       R1,#0x0
   \   000077   E4           CLR       A
   \   000078   C8           XCH       A,R0
   \   000079   F9           MOV       R1,A
   \   00007A   EA           MOV       A,R2
   \   00007B   28           ADD       A,R0
   \   00007C   F8           MOV       R0,A
   \   00007D   EB           MOV       A,R3
   \   00007E   39           ADDC      A,R1
   \   00007F   F9           MOV       R1,A
   \   000080   8E82         MOV       DPL,R6
   \   000082   8F83         MOV       DPH,R7
   \   000084   A3           INC       DPTR
   \   000085   E8           MOV       A,R0
   \   000086   F0           MOVX      @DPTR,A
   \   000087   A3           INC       DPTR
   \   000088   E9           MOV       A,R1
   \   000089   F0           MOVX      @DPTR,A
   3484              pRsp->length = descLen;
   \   00008A   E5..         MOV       A,?V7
   \   00008C   C0E0         PUSH      A
   \   00008E   8E82         MOV       DPL,R6
   \   000090   8F83         MOV       DPH,R7
   \   000092   A3           INC       DPTR
   \   000093   A3           INC       DPTR
   \   000094   A3           INC       DPTR
   \   000095   D0E0         POP       A
   \   000097   F0           MOVX      @DPTR,A
   3485              if ( descLen )
   \   000098   E5..         MOV       A,?V7
   \   00009A   6027         JZ        ??ZDO_ParseUserDescRsp_1
   3486              {
   3487                osal_memcpy( pRsp->desc, &msg[4], descLen );
   \   00009C                ; Setup parameters for call to function osal_memcpy
   \   00009C   E5..         MOV       A,?V0
   \   00009E   2404         ADD       A,#0x4
   \   0000A0   F5..         MOV       ?V4,A
   \   0000A2   E4           CLR       A
   \   0000A3   35..         ADDC      A,?V1
   \   0000A5   F5..         MOV       ?V5,A
   \   0000A7   75..00       MOV       ?V6,#0x0
   \   0000AA   78..         MOV       R0,#?V4
   \   0000AC   12....       LCALL     ?PUSH_XSTACK_I_THREE
   \   0000AF   E5..         MOV       A,?V7
   \   0000B1   FC           MOV       R4,A
   \   0000B2   7D00         MOV       R5,#0x0
   \   0000B4   EE           MOV       A,R6
   \   0000B5   2404         ADD       A,#0x4
   \   0000B7   FA           MOV       R2,A
   \   0000B8   E4           CLR       A
   \   0000B9   3F           ADDC      A,R7
   \   0000BA   FB           MOV       R3,A
   \   0000BB   12....       LCALL     `??osal_memcpy::?relay`; Banked call to: osal_memcpy
   \   0000BE   7403         MOV       A,#0x3
   \   0000C0   12....       LCALL     ?DEALLOC_XSTACK8
   3488              }
   3489            }
   3490          
   3491            return ( pRsp );
   \                     ??ZDO_ParseUserDescRsp_1:
   \   0000C3   EE           MOV       A,R6
   \   0000C4   FA           MOV       R2,A
   \   0000C5   EF           MOV       A,R7
   \   0000C6   FB           MOV       R3,A
   \   0000C7   7F08         MOV       R7,#0x8
   \   0000C9   02....       LJMP      ?BANKED_LEAVE_XDATA
   3492          }
   3493          
   3494          /*********************************************************************
   3495           * @fn          ZDO_ParseSimpleDescBuf
   3496           *
   3497           * @brief       Parse a byte sequence representation of a Simple Descriptor.
   3498           *
   3499           * @param       buf  - pointer to a byte array representing a Simple Desc.
   3500           * @param       desc - SimpleDescriptionFormat_t *
   3501           *
   3502           *              This routine allocates storage for the cluster IDs because
   3503           *              they are 16-bit and need to be aligned to be properly processed.
   3504           *              This routine returns non-zero if an allocation fails.
   3505           *
   3506           *              NOTE: This means that the caller or user of the input structure
   3507           *                    is responsible for freeing the memory
   3508           *
   3509           * @return      0: success
   3510           *              1: failure due to malloc failure.
   3511           */

   \                                 In  segment BANKED_CODE, align 1, keep-with-next
   3512          uint8 ZDO_ParseSimpleDescBuf( uint8 *buf, SimpleDescriptionFormat_t *desc )
   \                     ZDO_ParseSimpleDescBuf:
   3513          {
   \   000000                REQUIRE ?V0
   \   000000                REQUIRE ?V1
   \   000000                REQUIRE ?V2
   \   000000                REQUIRE ?V3
   \   000000   74F4         MOV       A,#-0xc
   \   000002   12....       LCALL     ?BANKED_ENTER_XDATA
   \   000005                ; Saved register size: 12
   \   000005                ; Auto size: 0
   \   000005   EA           MOV       A,R2
   \   000006   FE           MOV       R6,A
   \   000007   EB           MOV       A,R3
   \   000008   FF           MOV       R7,A
   \   000009   8C..         MOV       ?V0,R4
   \   00000B   8D..         MOV       ?V1,R5
   3514            uint8 num, i;
   3515          
   3516            desc->EndPoint = *buf++;
   \   00000D   8E82         MOV       DPL,R6
   \   00000F   8F83         MOV       DPH,R7
   \   000011   E0           MOVX      A,@DPTR
   \   000012   C0E0         PUSH      A
   \   000014   85..82       MOV       DPL,?V0
   \   000017   85..83       MOV       DPH,?V1
   \   00001A   D0E0         POP       A
   \   00001C   F0           MOVX      @DPTR,A
   \   00001D   8E82         MOV       DPL,R6
   \   00001F   8F83         MOV       DPH,R7
   \   000021   A3           INC       DPTR
   \   000022   AE82         MOV       R6,DPL
   \   000024   AF83         MOV       R7,DPH
   3517            desc->AppProfId = BUILD_UINT16( buf[0], buf[1] );
   \   000026   8E82         MOV       DPL,R6
   \   000028   8F83         MOV       DPH,R7
   \   00002A   E0           MOVX      A,@DPTR
   \   00002B   FA           MOV       R2,A
   \   00002C   7B00         MOV       R3,#0x0
   \   00002E   8E82         MOV       DPL,R6
   \   000030   8F83         MOV       DPH,R7
   \   000032   A3           INC       DPTR
   \   000033   E0           MOVX      A,@DPTR
   \   000034   F8           MOV       R0,A
   \   000035   7900         MOV       R1,#0x0
   \   000037   E4           CLR       A
   \   000038   C8           XCH       A,R0
   \   000039   F9           MOV       R1,A
   \   00003A   EA           MOV       A,R2
   \   00003B   28           ADD       A,R0
   \   00003C   F8           MOV       R0,A
   \   00003D   EB           MOV       A,R3
   \   00003E   39           ADDC      A,R1
   \   00003F   F9           MOV       R1,A
   \   000040   85..82       MOV       DPL,?V0
   \   000043   85..83       MOV       DPH,?V1
   \   000046   A3           INC       DPTR
   \   000047   E8           MOV       A,R0
   \   000048   F0           MOVX      @DPTR,A
   \   000049   A3           INC       DPTR
   \   00004A   E9           MOV       A,R1
   \   00004B   F0           MOVX      @DPTR,A
   3518            buf += 2;
   \   00004C   EE           MOV       A,R6
   \   00004D   2402         ADD       A,#0x2
   \   00004F   FE           MOV       R6,A
   \   000050   5001         JNC       ??ZDO_ParseSimpleDescBuf_0
   \   000052   0F           INC       R7
   3519            desc->AppDeviceId = BUILD_UINT16( buf[0], buf[1] );
   \                     ??ZDO_ParseSimpleDescBuf_0:
   \   000053   8E82         MOV       DPL,R6
   \   000055   8F83         MOV       DPH,R7
   \   000057   E0           MOVX      A,@DPTR
   \   000058   FA           MOV       R2,A
   \   000059   7B00         MOV       R3,#0x0
   \   00005B   8E82         MOV       DPL,R6
   \   00005D   8F83         MOV       DPH,R7
   \   00005F   A3           INC       DPTR
   \   000060   E0           MOVX      A,@DPTR
   \   000061   F8           MOV       R0,A
   \   000062   7900         MOV       R1,#0x0
   \   000064   E4           CLR       A
   \   000065   C8           XCH       A,R0
   \   000066   F9           MOV       R1,A
   \   000067   EA           MOV       A,R2
   \   000068   28           ADD       A,R0
   \   000069   F8           MOV       R0,A
   \   00006A   EB           MOV       A,R3
   \   00006B   39           ADDC      A,R1
   \   00006C   F9           MOV       R1,A
   \   00006D   85..82       MOV       DPL,?V0
   \   000070   85..83       MOV       DPH,?V1
   \   000073   A3           INC       DPTR
   \   000074   A3           INC       DPTR
   \   000075   A3           INC       DPTR
   \   000076   E8           MOV       A,R0
   \   000077   F0           MOVX      @DPTR,A
   \   000078   A3           INC       DPTR
   \   000079   E9           MOV       A,R1
   \   00007A   F0           MOVX      @DPTR,A
   3520            buf += 2;
   \   00007B   EE           MOV       A,R6
   \   00007C   2402         ADD       A,#0x2
   \   00007E   FE           MOV       R6,A
   \   00007F   5001         JNC       ??ZDO_ParseSimpleDescBuf_1
   \   000081   0F           INC       R7
   3521            desc->AppDevVer = *buf >> 4;
   \                     ??ZDO_ParseSimpleDescBuf_1:
   \   000082   8E82         MOV       DPL,R6
   \   000084   8F83         MOV       DPH,R7
   \   000086   E0           MOVX      A,@DPTR
   \   000087   C4           SWAP      A
   \   000088   540F         ANL       A,#0xf
   \   00008A   F8           MOV       R0,A
   \   00008B   740F         MOV       A,#0xf
   \   00008D   58           ANL       A,R0
   \   00008E   F8           MOV       R0,A
   \   00008F   85..82       MOV       DPL,?V0
   \   000092   85..83       MOV       DPH,?V1
   \   000095   A3           INC       DPTR
   \   000096   A3           INC       DPTR
   \   000097   A3           INC       DPTR
   \   000098   A3           INC       DPTR
   \   000099   A3           INC       DPTR
   \   00009A   E0           MOVX      A,@DPTR
   \   00009B   54F0         ANL       A,#0xf0
   \   00009D   48           ORL       A,R0
   \   00009E   C0E0         PUSH      A
   \   0000A0   85..82       MOV       DPL,?V0
   \   0000A3   85..83       MOV       DPH,?V1
   \   0000A6   A3           INC       DPTR
   \   0000A7   A3           INC       DPTR
   \   0000A8   A3           INC       DPTR
   \   0000A9   A3           INC       DPTR
   \   0000AA   A3           INC       DPTR
   \   0000AB   D0E0         POP       A
   \   0000AD   F0           MOVX      @DPTR,A
   3522          
   3523            desc->Reserved = 0;
   \   0000AE   85..82       MOV       DPL,?V0
   \   0000B1   85..83       MOV       DPH,?V1
   \   0000B4   A3           INC       DPTR
   \   0000B5   A3           INC       DPTR
   \   0000B6   A3           INC       DPTR
   \   0000B7   A3           INC       DPTR
   \   0000B8   A3           INC       DPTR
   \   0000B9   E0           MOVX      A,@DPTR
   \   0000BA   540F         ANL       A,#0xf
   \   0000BC   F0           MOVX      @DPTR,A
   3524            buf++;
   \   0000BD   8E82         MOV       DPL,R6
   \   0000BF   8F83         MOV       DPH,R7
   \   0000C1   A3           INC       DPTR
   \   0000C2   AE82         MOV       R6,DPL
   \   0000C4   AF83         MOV       R7,DPH
   3525          
   3526            // move in input cluster list (if any). allocate aligned memory.
   3527            num = desc->AppNumInClusters = *buf++;
   \   0000C6   8E82         MOV       DPL,R6
   \   0000C8   8F83         MOV       DPH,R7
   \   0000CA   E0           MOVX      A,@DPTR
   \   0000CB   F8           MOV       R0,A
   \   0000CC   8E82         MOV       DPL,R6
   \   0000CE   8F83         MOV       DPH,R7
   \   0000D0   A3           INC       DPTR
   \   0000D1   AE82         MOV       R6,DPL
   \   0000D3   AF83         MOV       R7,DPH
   \   0000D5   E8           MOV       A,R0
   \   0000D6   C0E0         PUSH      A
   \   0000D8   85..82       MOV       DPL,?V0
   \   0000DB   85..83       MOV       DPH,?V1
   \   0000DE   A3           INC       DPTR
   \   0000DF   A3           INC       DPTR
   \   0000E0   A3           INC       DPTR
   \   0000E1   A3           INC       DPTR
   \   0000E2   A3           INC       DPTR
   \   0000E3   A3           INC       DPTR
   \   0000E4   D0E0         POP       A
   \   0000E6   F0           MOVX      @DPTR,A
   \   0000E7   88..         MOV       ?V3,R0
   3528            if ( num )
   \   0000E9   E5..         MOV       A,?V3
   \   0000EB   7003         JNZ       $+5
   \   0000ED   02....       LJMP      ??ZDO_ParseSimpleDescBuf_2 & 0xFFFF
   3529            {
   3530              if (!(desc->pAppInClusterList = (uint16 *)osal_mem_alloc(num*sizeof(uint16))))
   \   0000F0                ; Setup parameters for call to function osal_mem_alloc
   \   0000F0   E5..         MOV       A,?V3
   \   0000F2   FA           MOV       R2,A
   \   0000F3   7B00         MOV       R3,#0x0
   \   0000F5   EA           MOV       A,R2
   \   0000F6   75F002       MOV       B,#0x2
   \   0000F9   A4           MUL       AB
   \   0000FA   CA           XCH       A,R2
   \   0000FB   A8F0         MOV       R0,B
   \   0000FD   75F000       MOV       B,#0x0
   \   000100   A4           MUL       AB
   \   000101   28           ADD       A,R0
   \   000102   F8           MOV       R0,A
   \   000103   75F002       MOV       B,#0x2
   \   000106   EB           MOV       A,R3
   \   000107   A4           MUL       AB
   \   000108   28           ADD       A,R0
   \   000109   FB           MOV       R3,A
   \   00010A   12....       LCALL     `??osal_mem_alloc::?relay`; Banked call to: osal_mem_alloc
   \   00010D   85..82       MOV       DPL,?V0
   \   000110   85..83       MOV       DPH,?V1
   \   000113   A3           INC       DPTR
   \   000114   A3           INC       DPTR
   \   000115   A3           INC       DPTR
   \   000116   A3           INC       DPTR
   \   000117   A3           INC       DPTR
   \   000118   A3           INC       DPTR
   \   000119   A3           INC       DPTR
   \   00011A   EA           MOV       A,R2
   \   00011B   F0           MOVX      @DPTR,A
   \   00011C   A3           INC       DPTR
   \   00011D   EB           MOV       A,R3
   \   00011E   F0           MOVX      @DPTR,A
   \   00011F   85..82       MOV       DPL,?V0
   \   000122   85..83       MOV       DPH,?V1
   \   000125   A3           INC       DPTR
   \   000126   A3           INC       DPTR
   \   000127   A3           INC       DPTR
   \   000128   A3           INC       DPTR
   \   000129   A3           INC       DPTR
   \   00012A   A3           INC       DPTR
   \   00012B   A3           INC       DPTR
   \   00012C   E0           MOVX      A,@DPTR
   \   00012D   F8           MOV       R0,A
   \   00012E   A3           INC       DPTR
   \   00012F   E0           MOVX      A,@DPTR
   \   000130   F9           MOV       R1,A
   \   000131   E8           MOV       A,R0
   \   000132   49           ORL       A,R1
   \   000133   7005         JNZ       ??ZDO_ParseSimpleDescBuf_3
   3531              {
   3532                // malloc failed. we're done.
   3533                return 1;
   \   000135   7901         MOV       R1,#0x1
   \   000137   02....       LJMP      ??ZDO_ParseSimpleDescBuf_4 & 0xFFFF
   3534              }
   3535              for (i=0; i<num; ++i)
   \                     ??ZDO_ParseSimpleDescBuf_3:
   \   00013A   75..00       MOV       ?V2,#0x0
   \                     ??ZDO_ParseSimpleDescBuf_5:
   \   00013D   E5..         MOV       A,?V2
   \   00013F   C3           CLR       C
   \   000140   95..         SUBB      A,?V3
   \   000142   505B         JNC       ??ZDO_ParseSimpleDescBuf_2
   3536              {
   3537                desc->pAppInClusterList[i] = BUILD_UINT16( buf[0], buf[1] );
   \   000144   8E82         MOV       DPL,R6
   \   000146   8F83         MOV       DPH,R7
   \   000148   E0           MOVX      A,@DPTR
   \   000149   FA           MOV       R2,A
   \   00014A   7B00         MOV       R3,#0x0
   \   00014C   8E82         MOV       DPL,R6
   \   00014E   8F83         MOV       DPH,R7
   \   000150   A3           INC       DPTR
   \   000151   E0           MOVX      A,@DPTR
   \   000152   F8           MOV       R0,A
   \   000153   7900         MOV       R1,#0x0
   \   000155   E4           CLR       A
   \   000156   C8           XCH       A,R0
   \   000157   F9           MOV       R1,A
   \   000158   EA           MOV       A,R2
   \   000159   28           ADD       A,R0
   \   00015A   FA           MOV       R2,A
   \   00015B   EB           MOV       A,R3
   \   00015C   39           ADDC      A,R1
   \   00015D   FB           MOV       R3,A
   \   00015E   E5..         MOV       A,?V2
   \   000160   F8           MOV       R0,A
   \   000161   7900         MOV       R1,#0x0
   \   000163   E8           MOV       A,R0
   \   000164   75F002       MOV       B,#0x2
   \   000167   A4           MUL       AB
   \   000168   C8           XCH       A,R0
   \   000169   ACF0         MOV       R4,B
   \   00016B   75F000       MOV       B,#0x0
   \   00016E   A4           MUL       AB
   \   00016F   2C           ADD       A,R4
   \   000170   FC           MOV       R4,A
   \   000171   75F002       MOV       B,#0x2
   \   000174   E9           MOV       A,R1
   \   000175   A4           MUL       AB
   \   000176   2C           ADD       A,R4
   \   000177   F9           MOV       R1,A
   \   000178   85..82       MOV       DPL,?V0
   \   00017B   85..83       MOV       DPH,?V1
   \   00017E   A3           INC       DPTR
   \   00017F   A3           INC       DPTR
   \   000180   A3           INC       DPTR
   \   000181   A3           INC       DPTR
   \   000182   A3           INC       DPTR
   \   000183   A3           INC       DPTR
   \   000184   A3           INC       DPTR
   \   000185   E0           MOVX      A,@DPTR
   \   000186   28           ADD       A,R0
   \   000187   FC           MOV       R4,A
   \   000188   A3           INC       DPTR
   \   000189   E0           MOVX      A,@DPTR
   \   00018A   39           ADDC      A,R1
   \   00018B   8C82         MOV       DPL,R4
   \   00018D   F583         MOV       DPH,A
   \   00018F   EA           MOV       A,R2
   \   000190   F0           MOVX      @DPTR,A
   \   000191   A3           INC       DPTR
   \   000192   EB           MOV       A,R3
   \   000193   F0           MOVX      @DPTR,A
   3538                buf += 2;
   \   000194   EE           MOV       A,R6
   \   000195   2402         ADD       A,#0x2
   \   000197   FE           MOV       R6,A
   \   000198   5001         JNC       ??ZDO_ParseSimpleDescBuf_6
   \   00019A   0F           INC       R7
   3539              }
   \                     ??ZDO_ParseSimpleDescBuf_6:
   \   00019B   05..         INC       ?V2
   \   00019D   809E         SJMP      ??ZDO_ParseSimpleDescBuf_5
   3540            }
   3541          
   3542            // move in output cluster list (if any). allocate aligned memory.
   3543            num = desc->AppNumOutClusters = *buf++;
   \                     ??ZDO_ParseSimpleDescBuf_2:
   \   00019F   8E82         MOV       DPL,R6
   \   0001A1   8F83         MOV       DPH,R7
   \   0001A3   E0           MOVX      A,@DPTR
   \   0001A4   F8           MOV       R0,A
   \   0001A5   8E82         MOV       DPL,R6
   \   0001A7   8F83         MOV       DPH,R7
   \   0001A9   A3           INC       DPTR
   \   0001AA   AE82         MOV       R6,DPL
   \   0001AC   AF83         MOV       R7,DPH
   \   0001AE   E8           MOV       A,R0
   \   0001AF   C0E0         PUSH      A
   \   0001B1   85..82       MOV       DPL,?V0
   \   0001B4   85..83       MOV       DPH,?V1
   \   0001B7   A3           INC       DPTR
   \   0001B8   A3           INC       DPTR
   \   0001B9   A3           INC       DPTR
   \   0001BA   A3           INC       DPTR
   \   0001BB   A3           INC       DPTR
   \   0001BC   A3           INC       DPTR
   \   0001BD   A3           INC       DPTR
   \   0001BE   A3           INC       DPTR
   \   0001BF   A3           INC       DPTR
   \   0001C0   D0E0         POP       A
   \   0001C2   F0           MOVX      @DPTR,A
   \   0001C3   88..         MOV       ?V3,R0
   3544            if (num)
   \   0001C5   E5..         MOV       A,?V3
   \   0001C7   7003         JNZ       $+5
   \   0001C9   02....       LJMP      ??ZDO_ParseSimpleDescBuf_7 & 0xFFFF
   3545            {
   3546              if (!(desc->pAppOutClusterList = (uint16 *)osal_mem_alloc(num*sizeof(uint16))))
   \   0001CC                ; Setup parameters for call to function osal_mem_alloc
   \   0001CC   E5..         MOV       A,?V3
   \   0001CE   FA           MOV       R2,A
   \   0001CF   7B00         MOV       R3,#0x0
   \   0001D1   EA           MOV       A,R2
   \   0001D2   75F002       MOV       B,#0x2
   \   0001D5   A4           MUL       AB
   \   0001D6   CA           XCH       A,R2
   \   0001D7   A8F0         MOV       R0,B
   \   0001D9   75F000       MOV       B,#0x0
   \   0001DC   A4           MUL       AB
   \   0001DD   28           ADD       A,R0
   \   0001DE   F8           MOV       R0,A
   \   0001DF   75F002       MOV       B,#0x2
   \   0001E2   EB           MOV       A,R3
   \   0001E3   A4           MUL       AB
   \   0001E4   28           ADD       A,R0
   \   0001E5   FB           MOV       R3,A
   \   0001E6   12....       LCALL     `??osal_mem_alloc::?relay`; Banked call to: osal_mem_alloc
   \   0001E9   85..82       MOV       DPL,?V0
   \   0001EC   85..83       MOV       DPH,?V1
   \   0001EF   A3           INC       DPTR
   \   0001F0   A3           INC       DPTR
   \   0001F1   A3           INC       DPTR
   \   0001F2   A3           INC       DPTR
   \   0001F3   A3           INC       DPTR
   \   0001F4   A3           INC       DPTR
   \   0001F5   A3           INC       DPTR
   \   0001F6   A3           INC       DPTR
   \   0001F7   A3           INC       DPTR
   \   0001F8   A3           INC       DPTR
   \   0001F9   EA           MOV       A,R2
   \   0001FA   F0           MOVX      @DPTR,A
   \   0001FB   A3           INC       DPTR
   \   0001FC   EB           MOV       A,R3
   \   0001FD   F0           MOVX      @DPTR,A
   \   0001FE   85..82       MOV       DPL,?V0
   \   000201   85..83       MOV       DPH,?V1
   \   000204   A3           INC       DPTR
   \   000205   A3           INC       DPTR
   \   000206   A3           INC       DPTR
   \   000207   A3           INC       DPTR
   \   000208   A3           INC       DPTR
   \   000209   A3           INC       DPTR
   \   00020A   A3           INC       DPTR
   \   00020B   A3           INC       DPTR
   \   00020C   A3           INC       DPTR
   \   00020D   A3           INC       DPTR
   \   00020E   E0           MOVX      A,@DPTR
   \   00020F   F8           MOV       R0,A
   \   000210   A3           INC       DPTR
   \   000211   E0           MOVX      A,@DPTR
   \   000212   F9           MOV       R1,A
   \   000213   E8           MOV       A,R0
   \   000214   49           ORL       A,R1
   \   000215   7043         JNZ       ??ZDO_ParseSimpleDescBuf_8
   3547              {
   3548                // malloc failed. free input cluster list memory if there is any
   3549                if ( desc->pAppInClusterList != NULL )
   \   000217   85..82       MOV       DPL,?V0
   \   00021A   85..83       MOV       DPH,?V1
   \   00021D   A3           INC       DPTR
   \   00021E   A3           INC       DPTR
   \   00021F   A3           INC       DPTR
   \   000220   A3           INC       DPTR
   \   000221   A3           INC       DPTR
   \   000222   A3           INC       DPTR
   \   000223   A3           INC       DPTR
   \   000224   E0           MOVX      A,@DPTR
   \   000225   F8           MOV       R0,A
   \   000226   A3           INC       DPTR
   \   000227   E0           MOVX      A,@DPTR
   \   000228   F9           MOV       R1,A
   \   000229   E8           MOV       A,R0
   \   00022A   49           ORL       A,R1
   \   00022B   6029         JZ        ??ZDO_ParseSimpleDescBuf_9
   3550                {
   3551                  osal_mem_free(desc->pAppInClusterList);
   \   00022D                ; Setup parameters for call to function osal_mem_free
   \   00022D   85..82       MOV       DPL,?V0
   \   000230   85..83       MOV       DPH,?V1
   \   000233   A3           INC       DPTR
   \   000234   A3           INC       DPTR
   \   000235   A3           INC       DPTR
   \   000236   A3           INC       DPTR
   \   000237   A3           INC       DPTR
   \   000238   A3           INC       DPTR
   \   000239   A3           INC       DPTR
   \   00023A   E0           MOVX      A,@DPTR
   \   00023B   FA           MOV       R2,A
   \   00023C   A3           INC       DPTR
   \   00023D   E0           MOVX      A,@DPTR
   \   00023E   FB           MOV       R3,A
   \   00023F   12....       LCALL     `??osal_mem_free::?relay`; Banked call to: osal_mem_free
   3552          
   3553                  desc->pAppInClusterList = NULL;
   \   000242   85..82       MOV       DPL,?V0
   \   000245   85..83       MOV       DPH,?V1
   \   000248   A3           INC       DPTR
   \   000249   A3           INC       DPTR
   \   00024A   A3           INC       DPTR
   \   00024B   A3           INC       DPTR
   \   00024C   A3           INC       DPTR
   \   00024D   A3           INC       DPTR
   \   00024E   A3           INC       DPTR
   \   00024F   7400         MOV       A,#0x0
   \   000251   F0           MOVX      @DPTR,A
   \   000252   A3           INC       DPTR
   \   000253   7400         MOV       A,#0x0
   \   000255   F0           MOVX      @DPTR,A
   3554                }
   3555                return 1;
   \                     ??ZDO_ParseSimpleDescBuf_9:
   \   000256   7901         MOV       R1,#0x1
   \   000258   806A         SJMP      ??ZDO_ParseSimpleDescBuf_4
   3556              }
   3557              for (i=0; i<num; ++i)
   \                     ??ZDO_ParseSimpleDescBuf_8:
   \   00025A   75..00       MOV       ?V2,#0x0
   \                     ??ZDO_ParseSimpleDescBuf_10:
   \   00025D   E5..         MOV       A,?V2
   \   00025F   C3           CLR       C
   \   000260   95..         SUBB      A,?V3
   \   000262   505E         JNC       ??ZDO_ParseSimpleDescBuf_7
   3558              {
   3559                desc->pAppOutClusterList[i] = BUILD_UINT16( buf[0], buf[1] );
   \   000264   8E82         MOV       DPL,R6
   \   000266   8F83         MOV       DPH,R7
   \   000268   E0           MOVX      A,@DPTR
   \   000269   FA           MOV       R2,A
   \   00026A   7B00         MOV       R3,#0x0
   \   00026C   8E82         MOV       DPL,R6
   \   00026E   8F83         MOV       DPH,R7
   \   000270   A3           INC       DPTR
   \   000271   E0           MOVX      A,@DPTR
   \   000272   F8           MOV       R0,A
   \   000273   7900         MOV       R1,#0x0
   \   000275   E4           CLR       A
   \   000276   C8           XCH       A,R0
   \   000277   F9           MOV       R1,A
   \   000278   EA           MOV       A,R2
   \   000279   28           ADD       A,R0
   \   00027A   FA           MOV       R2,A
   \   00027B   EB           MOV       A,R3
   \   00027C   39           ADDC      A,R1
   \   00027D   FB           MOV       R3,A
   \   00027E   E5..         MOV       A,?V2
   \   000280   F8           MOV       R0,A
   \   000281   7900         MOV       R1,#0x0
   \   000283   E8           MOV       A,R0
   \   000284   75F002       MOV       B,#0x2
   \   000287   A4           MUL       AB
   \   000288   C8           XCH       A,R0
   \   000289   ACF0         MOV       R4,B
   \   00028B   75F000       MOV       B,#0x0
   \   00028E   A4           MUL       AB
   \   00028F   2C           ADD       A,R4
   \   000290   FC           MOV       R4,A
   \   000291   75F002       MOV       B,#0x2
   \   000294   E9           MOV       A,R1
   \   000295   A4           MUL       AB
   \   000296   2C           ADD       A,R4
   \   000297   F9           MOV       R1,A
   \   000298   85..82       MOV       DPL,?V0
   \   00029B   85..83       MOV       DPH,?V1
   \   00029E   A3           INC       DPTR
   \   00029F   A3           INC       DPTR
   \   0002A0   A3           INC       DPTR
   \   0002A1   A3           INC       DPTR
   \   0002A2   A3           INC       DPTR
   \   0002A3   A3           INC       DPTR
   \   0002A4   A3           INC       DPTR
   \   0002A5   A3           INC       DPTR
   \   0002A6   A3           INC       DPTR
   \   0002A7   A3           INC       DPTR
   \   0002A8   E0           MOVX      A,@DPTR
   \   0002A9   28           ADD       A,R0
   \   0002AA   FC           MOV       R4,A
   \   0002AB   A3           INC       DPTR
   \   0002AC   E0           MOVX      A,@DPTR
   \   0002AD   39           ADDC      A,R1
   \   0002AE   8C82         MOV       DPL,R4
   \   0002B0   F583         MOV       DPH,A
   \   0002B2   EA           MOV       A,R2
   \   0002B3   F0           MOVX      @DPTR,A
   \   0002B4   A3           INC       DPTR
   \   0002B5   EB           MOV       A,R3
   \   0002B6   F0           MOVX      @DPTR,A
   3560                buf += 2;
   \   0002B7   EE           MOV       A,R6
   \   0002B8   2402         ADD       A,#0x2
   \   0002BA   FE           MOV       R6,A
   \   0002BB   5001         JNC       ??ZDO_ParseSimpleDescBuf_11
   \   0002BD   0F           INC       R7
   3561              }
   \                     ??ZDO_ParseSimpleDescBuf_11:
   \   0002BE   05..         INC       ?V2
   \   0002C0   809B         SJMP      ??ZDO_ParseSimpleDescBuf_10
   3562            }
   3563            return 0;
   \                     ??ZDO_ParseSimpleDescBuf_7:
   \   0002C2   7900         MOV       R1,#0x0
   \                     ??ZDO_ParseSimpleDescBuf_4:
   \   0002C4   7F04         MOV       R7,#0x4
   \   0002C6   02....       LJMP      ?BANKED_LEAVE_XDATA
   3564          }
   3565          
   3566          /*********************************************************************
   3567           * @fn          ZDO_ParseDeviceAnnce
   3568           *
   3569           * @brief       Parse a Device Announce message.
   3570           *
   3571           * @param       inMsg - Incoming message
   3572           * @param       pAnnce - place to put the parsed information
   3573           *
   3574           * @return      none
   3575           */

   \                                 In  segment BANKED_CODE, align 1, keep-with-next
   3576          void ZDO_ParseDeviceAnnce( zdoIncomingMsg_t *inMsg, ZDO_DeviceAnnce_t *pAnnce )
   \                     ZDO_ParseDeviceAnnce:
   3577          {
   \   000000                REQUIRE ?V0
   \   000000                REQUIRE ?V1
   \   000000                REQUIRE ?V2
   \   000000                REQUIRE ?V3
   \   000000   74F4         MOV       A,#-0xc
   \   000002   12....       LCALL     ?BANKED_ENTER_XDATA
   \   000005                ; Saved register size: 12
   \   000005                ; Auto size: 0
   \   000005   8A..         MOV       ?V0,R2
   \   000007   8B..         MOV       ?V1,R3
   \   000009   8C..         MOV       ?V2,R4
   \   00000B   8D..         MOV       ?V3,R5
   3578            uint8 *msg;
   3579          
   3580            // Parse incoming message
   3581            msg = inMsg->asdu;
   \   00000D   E5..         MOV       A,?V0
   \   00000F   2413         ADD       A,#0x13
   \   000011   F582         MOV       DPL,A
   \   000013   E4           CLR       A
   \   000014   35..         ADDC      A,?V1
   \   000016   F583         MOV       DPH,A
   \   000018   E0           MOVX      A,@DPTR
   \   000019   F8           MOV       R0,A
   \   00001A   A3           INC       DPTR
   \   00001B   E0           MOVX      A,@DPTR
   \   00001C   F9           MOV       R1,A
   \   00001D   E8           MOV       A,R0
   \   00001E   FE           MOV       R6,A
   \   00001F   E9           MOV       A,R1
   \   000020   FF           MOV       R7,A
   3582            pAnnce->nwkAddr = BUILD_UINT16( msg[0], msg[1] );
   \   000021   8E82         MOV       DPL,R6
   \   000023   8F83         MOV       DPH,R7
   \   000025   E0           MOVX      A,@DPTR
   \   000026   FA           MOV       R2,A
   \   000027   7B00         MOV       R3,#0x0
   \   000029   8E82         MOV       DPL,R6
   \   00002B   8F83         MOV       DPH,R7
   \   00002D   A3           INC       DPTR
   \   00002E   E0           MOVX      A,@DPTR
   \   00002F   F8           MOV       R0,A
   \   000030   7900         MOV       R1,#0x0
   \   000032   E4           CLR       A
   \   000033   C8           XCH       A,R0
   \   000034   F9           MOV       R1,A
   \   000035   EA           MOV       A,R2
   \   000036   28           ADD       A,R0
   \   000037   F8           MOV       R0,A
   \   000038   EB           MOV       A,R3
   \   000039   39           ADDC      A,R1
   \   00003A   F9           MOV       R1,A
   \   00003B   85..82       MOV       DPL,?V2
   \   00003E   85..83       MOV       DPH,?V3
   \   000041   E8           MOV       A,R0
   \   000042   F0           MOVX      @DPTR,A
   \   000043   A3           INC       DPTR
   \   000044   E9           MOV       A,R1
   \   000045   F0           MOVX      @DPTR,A
   3583            msg += 2;
   \   000046   EE           MOV       A,R6
   \   000047   2402         ADD       A,#0x2
   \   000049   FE           MOV       R6,A
   \   00004A   5001         JNC       ??ZDO_ParseDeviceAnnce_0
   \   00004C   0F           INC       R7
   3584            osal_cpyExtAddr( pAnnce->extAddr, msg );
   \                     ??ZDO_ParseDeviceAnnce_0:
   \   00004D                ; Setup parameters for call to function sAddrExtCpy
   \   00004D   EE           MOV       A,R6
   \   00004E   FC           MOV       R4,A
   \   00004F   EF           MOV       A,R7
   \   000050   FD           MOV       R5,A
   \   000051   E5..         MOV       A,?V2
   \   000053   2402         ADD       A,#0x2
   \   000055   FA           MOV       R2,A
   \   000056   E4           CLR       A
   \   000057   35..         ADDC      A,?V3
   \   000059   FB           MOV       R3,A
   \   00005A   12....       LCALL     `??sAddrExtCpy::?relay`; Banked call to: sAddrExtCpy
   3585            msg += Z_EXTADDR_LEN;
   \   00005D   EE           MOV       A,R6
   \   00005E   2408         ADD       A,#0x8
   \   000060   FE           MOV       R6,A
   \   000061   5001         JNC       ??ZDO_ParseDeviceAnnce_1
   \   000063   0F           INC       R7
   3586            pAnnce->capabilities = *msg;
   \                     ??ZDO_ParseDeviceAnnce_1:
   \   000064   8E82         MOV       DPL,R6
   \   000066   8F83         MOV       DPH,R7
   \   000068   E0           MOVX      A,@DPTR
   \   000069   C0E0         PUSH      A
   \   00006B   85..82       MOV       DPL,?V2
   \   00006E   85..83       MOV       DPH,?V3
   \   000071   A3           INC       DPTR
   \   000072   A3           INC       DPTR
   \   000073   A3           INC       DPTR
   \   000074   A3           INC       DPTR
   \   000075   A3           INC       DPTR
   \   000076   A3           INC       DPTR
   \   000077   A3           INC       DPTR
   \   000078   A3           INC       DPTR
   \   000079   A3           INC       DPTR
   \   00007A   A3           INC       DPTR
   \   00007B   D0E0         POP       A
   \   00007D   F0           MOVX      @DPTR,A
   3587          }
   \   00007E   7F04         MOV       R7,#0x4
   \   000080   02....       LJMP      ?BANKED_LEAVE_XDATA
   3588          
   3589          /*********************************************************************
   3590           * @fn          ZDO_ParseParentAnnce
   3591           *
   3592           * @brief       Parse Parent Announce and Parent Announce Rsp messages,
   3593           *              both messages have the same payload.
   3594           *
   3595           * @param       inMsg - Incoming message
   3596           *
   3597           * @return      a pointer to parsed response structure (NULL if not allocated).
   3598           *          This structure was allocated using osal_mem_alloc, so it must be freed
   3599           *          by the calling function [osal_mem_free()].
   3600           */

   \                                 In  segment BANKED_CODE, align 1, keep-with-next
   3601          ZDO_ParentAnnce_t *ZDO_ParseParentAnnce( zdoIncomingMsg_t *inMsg )
   \                     ZDO_ParseParentAnnce:
   3602          {
   \   000000                REQUIRE ?V0
   \   000000                REQUIRE ?V1
   \   000000                REQUIRE ?V2
   \   000000                REQUIRE ?V3
   \   000000                REQUIRE ?V4
   \   000000                REQUIRE ?V5
   \   000000                REQUIRE ?V6
   \   000000                REQUIRE ?V7
   \   000000   74F0         MOV       A,#-0x10
   \   000002   12....       LCALL     ?BANKED_ENTER_XDATA
   \   000005                ; Saved register size: 16
   \   000005                ; Auto size: 0
   \   000005   8A..         MOV       ?V4,R2
   \   000007   8B..         MOV       ?V5,R3
   3603            ZDO_ParentAnnce_t *pRcvdMsg;
   3604            uint8 *msg;
   3605            uint8 numChildren;
   3606          
   3607            msg = inMsg->asdu;
   \   000009   E5..         MOV       A,?V4
   \   00000B   2413         ADD       A,#0x13
   \   00000D   F582         MOV       DPL,A
   \   00000F   E4           CLR       A
   \   000010   35..         ADDC      A,?V5
   \   000012   F583         MOV       DPH,A
   \   000014   E0           MOVX      A,@DPTR
   \   000015   F8           MOV       R0,A
   \   000016   A3           INC       DPTR
   \   000017   E0           MOVX      A,@DPTR
   \   000018   F9           MOV       R1,A
   \   000019   E8           MOV       A,R0
   \   00001A   FE           MOV       R6,A
   \   00001B   E9           MOV       A,R1
   \   00001C   FF           MOV       R7,A
   3608            if ( inMsg->clusterID == Parent_annce_rsp)
   \   00001D   E5..         MOV       A,?V4
   \   00001F   240C         ADD       A,#0xc
   \   000021   F582         MOV       DPL,A
   \   000023   E4           CLR       A
   \   000024   35..         ADDC      A,?V5
   \   000026   F583         MOV       DPH,A
   \   000028   E0           MOVX      A,@DPTR
   \   000029   641F         XRL       A,#0x1f
   \   00002B   7004         JNZ       ??ZDO_ParseParentAnnce_0
   \   00002D   A3           INC       DPTR
   \   00002E   E0           MOVX      A,@DPTR
   \   00002F   6480         XRL       A,#0x80
   \                     ??ZDO_ParseParentAnnce_0:
   \   000031   7009         JNZ       ??ZDO_ParseParentAnnce_1
   3609            {
   3610              *msg++;
   \   000033   8E82         MOV       DPL,R6
   \   000035   8F83         MOV       DPH,R7
   \   000037   A3           INC       DPTR
   \   000038   AE82         MOV       R6,DPL
   \   00003A   AF83         MOV       R7,DPH
   3611            }
   3612            numChildren = *msg++;
   \                     ??ZDO_ParseParentAnnce_1:
   \   00003C   8E82         MOV       DPL,R6
   \   00003E   8F83         MOV       DPH,R7
   \   000040   E0           MOVX      A,@DPTR
   \   000041   F5..         MOV       ?V7,A
   \   000043   8E82         MOV       DPL,R6
   \   000045   8F83         MOV       DPH,R7
   \   000047   A3           INC       DPTR
   \   000048   AE82         MOV       R6,DPL
   \   00004A   AF83         MOV       R7,DPH
   3613          
   3614            // Allocate a buffer big enough to handle the list
   3615            pRcvdMsg = (ZDO_ParentAnnce_t *)osal_mem_alloc(
   3616                       (sizeof(ZDO_ParentAnnce_t) + (numChildren * sizeof(ZDO_ChildInfo_t))));
   \   00004C                ; Setup parameters for call to function osal_mem_alloc
   \   00004C   E5..         MOV       A,?V7
   \   00004E   F8           MOV       R0,A
   \   00004F   7900         MOV       R1,#0x0
   \   000051   E8           MOV       A,R0
   \   000052   75F008       MOV       B,#0x8
   \   000055   A4           MUL       AB
   \   000056   C8           XCH       A,R0
   \   000057   AAF0         MOV       R2,B
   \   000059   75F000       MOV       B,#0x0
   \   00005C   A4           MUL       AB
   \   00005D   2A           ADD       A,R2
   \   00005E   FA           MOV       R2,A
   \   00005F   75F008       MOV       B,#0x8
   \   000062   E9           MOV       A,R1
   \   000063   A4           MUL       AB
   \   000064   2A           ADD       A,R2
   \   000065   F9           MOV       R1,A
   \   000066   E8           MOV       A,R0
   \   000067   2401         ADD       A,#0x1
   \   000069   FA           MOV       R2,A
   \   00006A   E4           CLR       A
   \   00006B   39           ADDC      A,R1
   \   00006C   FB           MOV       R3,A
   \   00006D   12....       LCALL     `??osal_mem_alloc::?relay`; Banked call to: osal_mem_alloc
   \   000070   8A..         MOV       ?V0,R2
   \   000072   8B..         MOV       ?V1,R3
   \   000074   85....       MOV       ?V2,?V0
   \   000077   85....       MOV       ?V3,?V1
   3617          
   3618            if ( pRcvdMsg )
   \   00007A   E5..         MOV       A,?V2
   \   00007C   45..         ORL       A,?V3
   \   00007E   6044         JZ        ??ZDO_ParseParentAnnce_2
   3619            {
   3620              uint8 x;
   3621              ZDO_ChildInfo_t *pList = pRcvdMsg->childInfo;
   \   000080   85..82       MOV       DPL,?V2
   \   000083   85..83       MOV       DPH,?V3
   \   000086   A3           INC       DPTR
   \   000087   8582..       MOV       ?V0,DPL
   \   00008A   8583..       MOV       ?V1,DPH
   3622          
   3623              pRcvdMsg->numOfChildren = numChildren;
   \   00008D   E5..         MOV       A,?V7
   \   00008F   C0E0         PUSH      A
   \   000091   85..82       MOV       DPL,?V2
   \   000094   85..83       MOV       DPH,?V3
   \   000097   D0E0         POP       A
   \   000099   F0           MOVX      @DPTR,A
   3624          
   3625              for ( x = 0; x < numChildren; x++ )
   \   00009A   75..00       MOV       ?V6,#0x0
   \                     ??ZDO_ParseParentAnnce_3:
   \   00009D   E5..         MOV       A,?V6
   \   00009F   C3           CLR       C
   \   0000A0   95..         SUBB      A,?V7
   \   0000A2   5020         JNC       ??ZDO_ParseParentAnnce_2
   3626              {
   3627                osal_cpyExtAddr( pList->extAddr, msg );
   \   0000A4                ; Setup parameters for call to function sAddrExtCpy
   \   0000A4   EE           MOV       A,R6
   \   0000A5   FC           MOV       R4,A
   \   0000A6   EF           MOV       A,R7
   \   0000A7   FD           MOV       R5,A
   \   0000A8   AA..         MOV       R2,?V0
   \   0000AA   AB..         MOV       R3,?V1
   \   0000AC   12....       LCALL     `??sAddrExtCpy::?relay`; Banked call to: sAddrExtCpy
   3628                msg += Z_EXTADDR_LEN;
   \   0000AF   EE           MOV       A,R6
   \   0000B0   2408         ADD       A,#0x8
   \   0000B2   FE           MOV       R6,A
   \   0000B3   5001         JNC       ??ZDO_ParseParentAnnce_4
   \   0000B5   0F           INC       R7
   3629          
   3630                pList++;
   \                     ??ZDO_ParseParentAnnce_4:
   \   0000B6   E5..         MOV       A,?V0
   \   0000B8   2408         ADD       A,#0x8
   \   0000BA   F5..         MOV       ?V0,A
   \   0000BC   5002         JNC       ??ZDO_ParseParentAnnce_5
   \   0000BE   05..         INC       ?V1
   3631              }
   \                     ??ZDO_ParseParentAnnce_5:
   \   0000C0   05..         INC       ?V6
   \   0000C2   80D9         SJMP      ??ZDO_ParseParentAnnce_3
   3632            }
   3633          
   3634            return ( pRcvdMsg );
   \                     ??ZDO_ParseParentAnnce_2:
   \   0000C4   AA..         MOV       R2,?V2
   \   0000C6   AB..         MOV       R3,?V3
   \   0000C8   7F08         MOV       R7,#0x8
   \   0000CA   02....       LJMP      ?BANKED_LEAVE_XDATA
   3635          }
   3636          
   3637          /*********************************************************************
   3638           * @fn          ZDO_ParseMgmtNwkUpdateNotify
   3639           *
   3640           * @brief       This function handles parsing of the incoming Management
   3641           *              Network Update notify.
   3642           *
   3643           * @param       inMsg - incoming message (request)
   3644           *
   3645           * @return      a pointer to parsed response structure (NULL if not allocated).
   3646           *          This structure was allocated using osal_mem_alloc, so it must be freed
   3647           *          by the calling function [osal_mem_free()].
   3648           */

   \                                 In  segment BANKED_CODE, align 1, keep-with-next
   3649          ZDO_MgmtNwkUpdateNotify_t *ZDO_ParseMgmtNwkUpdateNotify( zdoIncomingMsg_t *inMsg )
   \                     ZDO_ParseMgmtNwkUpdateNotify:
   3650          {
   \   000000                REQUIRE ?V0
   \   000000                REQUIRE ?V1
   \   000000                REQUIRE ?V2
   \   000000                REQUIRE ?V3
   \   000000                REQUIRE ?V4
   \   000000                REQUIRE ?V5
   \   000000                REQUIRE ?V6
   \   000000                REQUIRE ?V7
   \   000000                REQUIRE ?V8
   \   000000                REQUIRE ?V9
   \   000000                REQUIRE ?V10
   \   000000                REQUIRE ?V11
   \   000000                REQUIRE ?V12
   \   000000                REQUIRE ?V13
   \   000000                REQUIRE ?V14
   \   000000                REQUIRE ?V15
   \   000000   74E8         MOV       A,#-0x18
   \   000002   12....       LCALL     ?BANKED_ENTER_XDATA
   \   000005                ; Saved register size: 24
   \   000005                ; Auto size: 2
   \   000005   74FE         MOV       A,#-0x2
   \   000007   12....       LCALL     ?ALLOC_XSTACK8
   \   00000A   85..82       MOV       DPL,?XSP + 0
   \   00000D   85..83       MOV       DPH,?XSP + 1
   \   000010   EA           MOV       A,R2
   \   000011   F0           MOVX      @DPTR,A
   \   000012   A3           INC       DPTR
   \   000013   EB           MOV       A,R3
   \   000014   F0           MOVX      @DPTR,A
   3651            uint8 status;
   3652            uint32 scannedChannels = 0;
   \   000015   75..00       MOV       ?V4,#0x0
   \   000018   75..00       MOV       ?V5,#0x0
   \   00001B   75..00       MOV       ?V6,#0x0
   \   00001E   75..00       MOV       ?V7,#0x0
   3653            uint16 totalTransmissions = 0;
   \   000021   75..00       MOV       ?V14,#0x0
   \   000024   75..00       MOV       ?V15,#0x0
   3654            uint16 transmissionFailures = 0;
   \   000027   75..00       MOV       ?V12,#0x0
   \   00002A   75..00       MOV       ?V13,#0x0
   3655            uint8 listCount = 0;
   \   00002D   75..00       MOV       ?V8,#0x0
   3656            uint8 *msg = inMsg->asdu;
   \   000030   85..82       MOV       DPL,?XSP + 0
   \   000033   85..83       MOV       DPH,?XSP + 1
   \   000036   E0           MOVX      A,@DPTR
   \   000037   F8           MOV       R0,A
   \   000038   A3           INC       DPTR
   \   000039   E0           MOVX      A,@DPTR
   \   00003A   C8           XCH       A,R0
   \   00003B   2413         ADD       A,#0x13
   \   00003D   F582         MOV       DPL,A
   \   00003F   C8           XCH       A,R0
   \   000040   3400         ADDC      A,#0x0
   \   000042   F583         MOV       DPH,A
   \   000044   E0           MOVX      A,@DPTR
   \   000045   FE           MOV       R6,A
   \   000046   A3           INC       DPTR
   \   000047   E0           MOVX      A,@DPTR
   \   000048   FF           MOV       R7,A
   3657            ZDO_MgmtNwkUpdateNotify_t *pRsp;
   3658          
   3659            status = *msg++;
   \   000049   8E82         MOV       DPL,R6
   \   00004B   8F83         MOV       DPH,R7
   \   00004D   E0           MOVX      A,@DPTR
   \   00004E   F5..         MOV       ?V9,A
   \   000050   8E82         MOV       DPL,R6
   \   000052   8F83         MOV       DPH,R7
   \   000054   A3           INC       DPTR
   \   000055   AE82         MOV       R6,DPL
   \   000057   AF83         MOV       R7,DPH
   3660            if ( status == ZSuccess )
   \   000059   E5..         MOV       A,?V9
   \   00005B   707E         JNZ       ??ZDO_ParseMgmtNwkUpdateNotify_0
   3661            {
   3662              scannedChannels = osal_build_uint32( msg, 4 );
   \   00005D                ; Setup parameters for call to function osal_build_uint32
   \   00005D   7904         MOV       R1,#0x4
   \   00005F   EE           MOV       A,R6
   \   000060   FA           MOV       R2,A
   \   000061   EF           MOV       A,R7
   \   000062   FB           MOV       R3,A
   \   000063   12....       LCALL     `??osal_build_uint32::?relay`; Banked call to: osal_build_uint32
   \   000066   8A..         MOV       ?V0,R2
   \   000068   8B..         MOV       ?V1,R3
   \   00006A   8C..         MOV       ?V2,R4
   \   00006C   8D..         MOV       ?V3,R5
   \   00006E   85....       MOV       ?V4,?V0
   \   000071   85....       MOV       ?V5,?V1
   \   000074   85....       MOV       ?V6,?V2
   \   000077   85....       MOV       ?V7,?V3
   3663              msg += 4;
   \   00007A   EE           MOV       A,R6
   \   00007B   2404         ADD       A,#0x4
   \   00007D   FE           MOV       R6,A
   \   00007E   5001         JNC       ??ZDO_ParseMgmtNwkUpdateNotify_1
   \   000080   0F           INC       R7
   3664              totalTransmissions = BUILD_UINT16( msg[0], msg[1] );
   \                     ??ZDO_ParseMgmtNwkUpdateNotify_1:
   \   000081   8E82         MOV       DPL,R6
   \   000083   8F83         MOV       DPH,R7
   \   000085   E0           MOVX      A,@DPTR
   \   000086   FA           MOV       R2,A
   \   000087   7B00         MOV       R3,#0x0
   \   000089   8E82         MOV       DPL,R6
   \   00008B   8F83         MOV       DPH,R7
   \   00008D   A3           INC       DPTR
   \   00008E   E0           MOVX      A,@DPTR
   \   00008F   F8           MOV       R0,A
   \   000090   7900         MOV       R1,#0x0
   \   000092   E4           CLR       A
   \   000093   C8           XCH       A,R0
   \   000094   F9           MOV       R1,A
   \   000095   EA           MOV       A,R2
   \   000096   28           ADD       A,R0
   \   000097   F8           MOV       R0,A
   \   000098   EB           MOV       A,R3
   \   000099   39           ADDC      A,R1
   \   00009A   F9           MOV       R1,A
   \   00009B   88..         MOV       ?V14,R0
   \   00009D   89..         MOV       ?V15,R1
   3665              msg += 2;
   \   00009F   EE           MOV       A,R6
   \   0000A0   2402         ADD       A,#0x2
   \   0000A2   FE           MOV       R6,A
   \   0000A3   5001         JNC       ??ZDO_ParseMgmtNwkUpdateNotify_2
   \   0000A5   0F           INC       R7
   3666              transmissionFailures = BUILD_UINT16( msg[0], msg[1] );
   \                     ??ZDO_ParseMgmtNwkUpdateNotify_2:
   \   0000A6   8E82         MOV       DPL,R6
   \   0000A8   8F83         MOV       DPH,R7
   \   0000AA   E0           MOVX      A,@DPTR
   \   0000AB   FA           MOV       R2,A
   \   0000AC   7B00         MOV       R3,#0x0
   \   0000AE   8E82         MOV       DPL,R6
   \   0000B0   8F83         MOV       DPH,R7
   \   0000B2   A3           INC       DPTR
   \   0000B3   E0           MOVX      A,@DPTR
   \   0000B4   F8           MOV       R0,A
   \   0000B5   7900         MOV       R1,#0x0
   \   0000B7   E4           CLR       A
   \   0000B8   C8           XCH       A,R0
   \   0000B9   F9           MOV       R1,A
   \   0000BA   EA           MOV       A,R2
   \   0000BB   28           ADD       A,R0
   \   0000BC   F8           MOV       R0,A
   \   0000BD   EB           MOV       A,R3
   \   0000BE   39           ADDC      A,R1
   \   0000BF   F9           MOV       R1,A
   \   0000C0   88..         MOV       ?V12,R0
   \   0000C2   89..         MOV       ?V13,R1
   3667              msg += 2;
   \   0000C4   EE           MOV       A,R6
   \   0000C5   2402         ADD       A,#0x2
   \   0000C7   FE           MOV       R6,A
   \   0000C8   5001         JNC       ??ZDO_ParseMgmtNwkUpdateNotify_3
   \   0000CA   0F           INC       R7
   3668              listCount = *msg++;
   \                     ??ZDO_ParseMgmtNwkUpdateNotify_3:
   \   0000CB   8E82         MOV       DPL,R6
   \   0000CD   8F83         MOV       DPH,R7
   \   0000CF   E0           MOVX      A,@DPTR
   \   0000D0   F5..         MOV       ?V8,A
   \   0000D2   8E82         MOV       DPL,R6
   \   0000D4   8F83         MOV       DPH,R7
   \   0000D6   A3           INC       DPTR
   \   0000D7   AE82         MOV       R6,DPL
   \   0000D9   AF83         MOV       R7,DPH
   3669            }
   3670          
   3671            pRsp = (ZDO_MgmtNwkUpdateNotify_t *)osal_mem_alloc( sizeof ( ZDO_MgmtNwkUpdateNotify_t ) + listCount );
   \                     ??ZDO_ParseMgmtNwkUpdateNotify_0:
   \   0000DB                ; Setup parameters for call to function osal_mem_alloc
   \   0000DB   E5..         MOV       A,?V8
   \   0000DD   F8           MOV       R0,A
   \   0000DE   7900         MOV       R1,#0x0
   \   0000E0   E8           MOV       A,R0
   \   0000E1   240A         ADD       A,#0xa
   \   0000E3   FA           MOV       R2,A
   \   0000E4   E4           CLR       A
   \   0000E5   39           ADDC      A,R1
   \   0000E6   FB           MOV       R3,A
   \   0000E7   12....       LCALL     `??osal_mem_alloc::?relay`; Banked call to: osal_mem_alloc
   \   0000EA   8A..         MOV       ?V0,R2
   \   0000EC   8B..         MOV       ?V1,R3
   \   0000EE   85....       MOV       ?V10,?V0
   \   0000F1   85....       MOV       ?V11,?V1
   3672          
   3673            if ( pRsp )
   \   0000F4   E5..         MOV       A,?V10
   \   0000F6   45..         ORL       A,?V11
   \   0000F8   607B         JZ        ??ZDO_ParseMgmtNwkUpdateNotify_4
   3674            {
   3675              pRsp->status = status;
   \   0000FA   E5..         MOV       A,?V9
   \   0000FC   C0E0         PUSH      A
   \   0000FE   85..82       MOV       DPL,?V10
   \   000101   85..83       MOV       DPH,?V11
   \   000104   D0E0         POP       A
   \   000106   F0           MOVX      @DPTR,A
   3676              pRsp->scannedChannels = scannedChannels;
   \   000107   85..82       MOV       DPL,?V10
   \   00010A   85..83       MOV       DPH,?V11
   \   00010D   A3           INC       DPTR
   \   00010E   78..         MOV       R0,#?V4
   \   000110   12....       LCALL     ?L_MOV_TO_X
   3677              pRsp->totalTransmissions = totalTransmissions;
   \   000113   85..82       MOV       DPL,?V10
   \   000116   85..83       MOV       DPH,?V11
   \   000119   A3           INC       DPTR
   \   00011A   A3           INC       DPTR
   \   00011B   A3           INC       DPTR
   \   00011C   A3           INC       DPTR
   \   00011D   A3           INC       DPTR
   \   00011E   E5..         MOV       A,?V14
   \   000120   F0           MOVX      @DPTR,A
   \   000121   A3           INC       DPTR
   \   000122   E5..         MOV       A,?V15
   \   000124   F0           MOVX      @DPTR,A
   3678              pRsp->transmissionFailures = transmissionFailures;
   \   000125   85..82       MOV       DPL,?V10
   \   000128   85..83       MOV       DPH,?V11
   \   00012B   A3           INC       DPTR
   \   00012C   A3           INC       DPTR
   \   00012D   A3           INC       DPTR
   \   00012E   A3           INC       DPTR
   \   00012F   A3           INC       DPTR
   \   000130   A3           INC       DPTR
   \   000131   A3           INC       DPTR
   \   000132   E5..         MOV       A,?V12
   \   000134   F0           MOVX      @DPTR,A
   \   000135   A3           INC       DPTR
   \   000136   E5..         MOV       A,?V13
   \   000138   F0           MOVX      @DPTR,A
   3679              pRsp->listCount = listCount;
   \   000139   E5..         MOV       A,?V8
   \   00013B   C0E0         PUSH      A
   \   00013D   85..82       MOV       DPL,?V10
   \   000140   85..83       MOV       DPH,?V11
   \   000143   A3           INC       DPTR
   \   000144   A3           INC       DPTR
   \   000145   A3           INC       DPTR
   \   000146   A3           INC       DPTR
   \   000147   A3           INC       DPTR
   \   000148   A3           INC       DPTR
   \   000149   A3           INC       DPTR
   \   00014A   A3           INC       DPTR
   \   00014B   A3           INC       DPTR
   \   00014C   D0E0         POP       A
   \   00014E   F0           MOVX      @DPTR,A
   3680          
   3681              // Allocate a buffer big enough to handle the list.
   3682              if ( listCount > 0 )
   \   00014F   E5..         MOV       A,?V8
   \   000151   6022         JZ        ??ZDO_ParseMgmtNwkUpdateNotify_4
   3683              {
   3684                osal_memcpy( pRsp->energyValues, msg, listCount );
   \   000153                ; Setup parameters for call to function osal_memcpy
   \   000153   8E..         MOV       ?V0,R6
   \   000155   8F..         MOV       ?V1,R7
   \   000157   75..00       MOV       ?V2,#0x0
   \   00015A   78..         MOV       R0,#?V0
   \   00015C   12....       LCALL     ?PUSH_XSTACK_I_THREE
   \   00015F   E5..         MOV       A,?V8
   \   000161   FC           MOV       R4,A
   \   000162   7D00         MOV       R5,#0x0
   \   000164   E5..         MOV       A,?V10
   \   000166   240A         ADD       A,#0xa
   \   000168   FA           MOV       R2,A
   \   000169   E4           CLR       A
   \   00016A   35..         ADDC      A,?V11
   \   00016C   FB           MOV       R3,A
   \   00016D   12....       LCALL     `??osal_memcpy::?relay`; Banked call to: osal_memcpy
   \   000170   7403         MOV       A,#0x3
   \   000172   12....       LCALL     ?DEALLOC_XSTACK8
   3685              }
   3686            }
   3687          
   3688            return ( pRsp );
   \                     ??ZDO_ParseMgmtNwkUpdateNotify_4:
   \   000175   AA..         MOV       R2,?V10
   \   000177   AB..         MOV       R3,?V11
   \   000179   7402         MOV       A,#0x2
   \   00017B   12....       LCALL     ?DEALLOC_XSTACK8
   \   00017E   7F10         MOV       R7,#0x10
   \   000180   02....       LJMP      ?BANKED_LEAVE_XDATA
   3689          }
   3690          
   3691          /*********************************************************************
   3692           * @fn          ZDO_ParseMgmtNwkUpdateReq
   3693           *
   3694           * @brief       This function handles parsing the incoming Management
   3695           *              Network Update request and starts the request (if needed).
   3696           *
   3697           * @param       inMsg - incoming message (request)
   3698           * @param       pReq - pointer to place to parse message to
   3699           *
   3700           * @return      none
   3701           */

   \                                 In  segment BANKED_CODE, align 1, keep-with-next
   3702          void ZDO_ParseMgmtNwkUpdateReq( zdoIncomingMsg_t *inMsg, ZDO_MgmtNwkUpdateReq_t *pReq )
   \                     ZDO_ParseMgmtNwkUpdateReq:
   3703          {
   \   000000                REQUIRE ?V0
   \   000000                REQUIRE ?V1
   \   000000                REQUIRE ?V2
   \   000000                REQUIRE ?V3
   \   000000   74F4         MOV       A,#-0xc
   \   000002   12....       LCALL     ?BANKED_ENTER_XDATA
   \   000005                ; Saved register size: 12
   \   000005                ; Auto size: 0
   \   000005   8A..         MOV       ?V2,R2
   \   000007   8B..         MOV       ?V3,R3
   \   000009   8C..         MOV       ?V0,R4
   \   00000B   8D..         MOV       ?V1,R5
   3704            uint8 *msg = inMsg->asdu;
   \   00000D   E5..         MOV       A,?V2
   \   00000F   2413         ADD       A,#0x13
   \   000011   F582         MOV       DPL,A
   \   000013   E4           CLR       A
   \   000014   35..         ADDC      A,?V3
   \   000016   F583         MOV       DPH,A
   \   000018   E0           MOVX      A,@DPTR
   \   000019   FE           MOV       R6,A
   \   00001A   A3           INC       DPTR
   \   00001B   E0           MOVX      A,@DPTR
   \   00001C   FF           MOV       R7,A
   3705          
   3706            pReq->channelMask = osal_build_uint32( msg, 4 );
   \   00001D                ; Setup parameters for call to function osal_build_uint32
   \   00001D   7904         MOV       R1,#0x4
   \   00001F   EE           MOV       A,R6
   \   000020   FA           MOV       R2,A
   \   000021   EF           MOV       A,R7
   \   000022   FB           MOV       R3,A
   \   000023   12....       LCALL     `??osal_build_uint32::?relay`; Banked call to: osal_build_uint32
   \   000026   EA           MOV       A,R2
   \   000027   F8           MOV       R0,A
   \   000028   EB           MOV       A,R3
   \   000029   F9           MOV       R1,A
   \   00002A   EC           MOV       A,R4
   \   00002B   FA           MOV       R2,A
   \   00002C   ED           MOV       A,R5
   \   00002D   FB           MOV       R3,A
   \   00002E   85..82       MOV       DPL,?V0
   \   000031   85..83       MOV       DPH,?V1
   \   000034   12....       LCALL     ?XSTORE_R0123
   3707            msg += 4;
   \   000037   EE           MOV       A,R6
   \   000038   2404         ADD       A,#0x4
   \   00003A   FE           MOV       R6,A
   \   00003B   5001         JNC       ??ZDO_ParseMgmtNwkUpdateReq_0
   \   00003D   0F           INC       R7
   3708            pReq->scanDuration = *msg++;
   \                     ??ZDO_ParseMgmtNwkUpdateReq_0:
   \   00003E   8E82         MOV       DPL,R6
   \   000040   8F83         MOV       DPH,R7
   \   000042   E0           MOVX      A,@DPTR
   \   000043   C0E0         PUSH      A
   \   000045   85..82       MOV       DPL,?V0
   \   000048   85..83       MOV       DPH,?V1
   \   00004B   A3           INC       DPTR
   \   00004C   A3           INC       DPTR
   \   00004D   A3           INC       DPTR
   \   00004E   A3           INC       DPTR
   \   00004F   D0E0         POP       A
   \   000051   F0           MOVX      @DPTR,A
   \   000052   8E82         MOV       DPL,R6
   \   000054   8F83         MOV       DPH,R7
   \   000056   A3           INC       DPTR
   \   000057   AE82         MOV       R6,DPL
   \   000059   AF83         MOV       R7,DPH
   3709          
   3710            if ( pReq->scanDuration <= 0x05 )
   \   00005B   85..82       MOV       DPL,?V0
   \   00005E   85..83       MOV       DPH,?V1
   \   000061   A3           INC       DPTR
   \   000062   A3           INC       DPTR
   \   000063   A3           INC       DPTR
   \   000064   A3           INC       DPTR
   \   000065   E0           MOVX      A,@DPTR
   \   000066   C3           CLR       C
   \   000067   9406         SUBB      A,#0x6
   \   000069   5017         JNC       ??ZDO_ParseMgmtNwkUpdateReq_1
   3711            {
   3712              // Request is to scan over channelMask
   3713              pReq->scanCount = *msg;
   \   00006B   8E82         MOV       DPL,R6
   \   00006D   8F83         MOV       DPH,R7
   \   00006F   E0           MOVX      A,@DPTR
   \   000070   C0E0         PUSH      A
   \   000072   85..82       MOV       DPL,?V0
   \   000075   85..83       MOV       DPH,?V1
   \   000078   A3           INC       DPTR
   \   000079   A3           INC       DPTR
   \   00007A   A3           INC       DPTR
   \   00007B   A3           INC       DPTR
   \   00007C   A3           INC       DPTR
   \   00007D   D0E0         POP       A
   \   00007F   F0           MOVX      @DPTR,A
   \   000080   8078         SJMP      ??ZDO_ParseMgmtNwkUpdateReq_2
   3714            }
   3715            else if ( ( pReq->scanDuration == 0xFE ) || ( pReq->scanDuration == 0xFF ) )
   \                     ??ZDO_ParseMgmtNwkUpdateReq_1:
   \   000082   85..82       MOV       DPL,?V0
   \   000085   85..83       MOV       DPH,?V1
   \   000088   A3           INC       DPTR
   \   000089   A3           INC       DPTR
   \   00008A   A3           INC       DPTR
   \   00008B   A3           INC       DPTR
   \   00008C   E0           MOVX      A,@DPTR
   \   00008D   64FE         XRL       A,#0xfe
   \   00008F   600F         JZ        ??ZDO_ParseMgmtNwkUpdateReq_3
   \   000091   85..82       MOV       DPL,?V0
   \   000094   85..83       MOV       DPH,?V1
   \   000097   A3           INC       DPTR
   \   000098   A3           INC       DPTR
   \   000099   A3           INC       DPTR
   \   00009A   A3           INC       DPTR
   \   00009B   E0           MOVX      A,@DPTR
   \   00009C   64FF         XRL       A,#0xff
   \   00009E   705A         JNZ       ??ZDO_ParseMgmtNwkUpdateReq_2
   3716            {
   3717              // Request is to change Channel (0xFE) or apsChannelMask and NwkManagerAddr (0xFF)
   3718              pReq->nwkUpdateId = *msg++;
   \                     ??ZDO_ParseMgmtNwkUpdateReq_3:
   \   0000A0   8E82         MOV       DPL,R6
   \   0000A2   8F83         MOV       DPH,R7
   \   0000A4   E0           MOVX      A,@DPTR
   \   0000A5   C0E0         PUSH      A
   \   0000A7   85..82       MOV       DPL,?V0
   \   0000AA   85..83       MOV       DPH,?V1
   \   0000AD   A3           INC       DPTR
   \   0000AE   A3           INC       DPTR
   \   0000AF   A3           INC       DPTR
   \   0000B0   A3           INC       DPTR
   \   0000B1   A3           INC       DPTR
   \   0000B2   A3           INC       DPTR
   \   0000B3   D0E0         POP       A
   \   0000B5   F0           MOVX      @DPTR,A
   \   0000B6   8E82         MOV       DPL,R6
   \   0000B8   8F83         MOV       DPH,R7
   \   0000BA   A3           INC       DPTR
   \   0000BB   AE82         MOV       R6,DPL
   \   0000BD   AF83         MOV       R7,DPH
   3719          
   3720              if ( pReq->scanDuration == 0xFF )
   \   0000BF   85..82       MOV       DPL,?V0
   \   0000C2   85..83       MOV       DPH,?V1
   \   0000C5   A3           INC       DPTR
   \   0000C6   A3           INC       DPTR
   \   0000C7   A3           INC       DPTR
   \   0000C8   A3           INC       DPTR
   \   0000C9   E0           MOVX      A,@DPTR
   \   0000CA   64FF         XRL       A,#0xff
   \   0000CC   702C         JNZ       ??ZDO_ParseMgmtNwkUpdateReq_2
   3721              {
   3722                pReq->nwkManagerAddr = BUILD_UINT16( msg[0], msg[1] );
   \   0000CE   8E82         MOV       DPL,R6
   \   0000D0   8F83         MOV       DPH,R7
   \   0000D2   E0           MOVX      A,@DPTR
   \   0000D3   FA           MOV       R2,A
   \   0000D4   7B00         MOV       R3,#0x0
   \   0000D6   8E82         MOV       DPL,R6
   \   0000D8   8F83         MOV       DPH,R7
   \   0000DA   A3           INC       DPTR
   \   0000DB   E0           MOVX      A,@DPTR
   \   0000DC   F8           MOV       R0,A
   \   0000DD   7900         MOV       R1,#0x0
   \   0000DF   E4           CLR       A
   \   0000E0   C8           XCH       A,R0
   \   0000E1   F9           MOV       R1,A
   \   0000E2   EA           MOV       A,R2
   \   0000E3   28           ADD       A,R0
   \   0000E4   F8           MOV       R0,A
   \   0000E5   EB           MOV       A,R3
   \   0000E6   39           ADDC      A,R1
   \   0000E7   F9           MOV       R1,A
   \   0000E8   85..82       MOV       DPL,?V0
   \   0000EB   85..83       MOV       DPH,?V1
   \   0000EE   A3           INC       DPTR
   \   0000EF   A3           INC       DPTR
   \   0000F0   A3           INC       DPTR
   \   0000F1   A3           INC       DPTR
   \   0000F2   A3           INC       DPTR
   \   0000F3   A3           INC       DPTR
   \   0000F4   A3           INC       DPTR
   \   0000F5   E8           MOV       A,R0
   \   0000F6   F0           MOVX      @DPTR,A
   \   0000F7   A3           INC       DPTR
   \   0000F8   E9           MOV       A,R1
   \   0000F9   F0           MOVX      @DPTR,A
   3723              }
   3724            }
   3725          }
   \                     ??ZDO_ParseMgmtNwkUpdateReq_2:
   \   0000FA   7F04         MOV       R7,#0x4
   \   0000FC   02....       LJMP      ?BANKED_LEAVE_XDATA

   \                                 In  segment XDATA_ID, align 1, keep-with-next
   \                     `?<Initializer for zdpExternalStateTaskID>`:
   \   000000   FFFF         DW -1

   \                                 In  segment XDATA_ROM_C, align 1
   \                     `?<Constant "StartDevice ERR">`:
   \   000000   53746172     DB "StartDevice ERR"
   \            74446576
   \            69636520
   \            45525200

   \                                 In  segment XDATA_ROM_C, align 1
   \                     `?<Constant "MODE unknown">`:
   \   000000   4D4F4445     DB "MODE unknown"
   \            20756E6B
   \            6E6F776E
   \            00      

   \                                 In  segment XDATA_ROM_C, align 1
   \                     `?<Constant "End Device Bind">`:
   \   000000   456E6420     DB "End Device Bind"
   \            44657669
   \            63652042
   \            696E6400

   \                                 In  segment XDATA_ROM_C, align 1
   \                     `?<Constant "Success Sent">`:
   \   000000   53756363     DB "Success Sent"
   \            65737320
   \            53656E74
   \            00      

   \                                 In  segment XDATA_ROM_C, align 1
   \                     `?<Constant "Timeout">`:
   \   000000   54696D65     DB "Timeout"
   \            6F757400

   \                                 In  segment XDATA_ROM_C, align 1
   \                     `?<Constant "Match Desc Req">`:
   \   000000   4D617463     DB "Match Desc Req"
   \            68204465
   \            73632052
   \            657100  

   \                                 In  segment XDATA_ROM_C, align 1
   \                     `?<Constant "Rsp Sent">`:
   \   000000   52737020     DB "Rsp Sent"
   \            53656E74
   \            00      

   \                                 In  segment XDATA_ROM_C, align 1
   \                     `?<Constant "Rsp Non Matched">`:
   \   000000   52737020     DB "Rsp Non Matched"
   \            4E6F6E20
   \            4D617463
   \            68656400

   \                                 In  segment XDATA_ROM_C, align 1
   \                     `?<Constant "Non Matched">`:
   \   000000   4E6F6E20     DB "Non Matched"
   \            4D617463
   \            68656400

   \                                 In  segment XDATA_ROM_C, align 1
   \                     __Constant_3e8:
   \   000000   E8030000     DD 1000

   \                                 In  segment XDATA_ROM_C, align 1
   \                     __Constant_0:
   \   000000   00000000     DD 0
   3726          
   3727          /*********************************************************************
   3728          *********************************************************************/

   Maximum stack usage in bytes:

   ISTACK XSTACK Function
   ------ ------ --------
      0      0   NLME_PermitJoiningTimeout
      2      0   ZDODeviceSetup
        2      0   -> APS_ReflectorInit
        2      0   -> NLME_DeviceJoiningInit
      0     49   ZDO_AnyClusterMatches
      1     10   ZDO_BuildSimpleDescBuf
      0     45   ZDO_ConvertOTAClusters
      0      9   ZDO_EndDeviceTimeoutCB
        0      9   -> ZDO_RemoveEndDeviceBind
        0      9   -> ZDO_SendEDBindRsp
      2      0   ZDO_Init
        2      0   -> ZDODeviceSetup
        2      0   -> sAddrExtCpy
      1     16   ZDO_ParseAddrRsp
        0     16   -> osal_mem_alloc
        0     16   -> sAddrExtCpy
      1     12   ZDO_ParseBindUnbindReq
        0     12   -> sAddrExtCpy
      1     54   ZDO_ParseDeviceAnnce
        0     12   -> sAddrExtCpy
      1     20   ZDO_ParseEPListRsp
        0     17   -> osal_mem_alloc
        0     20   -> osal_memcpy
      1     14   ZDO_ParseEndDeviceBindReq
        0     14   -> ZDO_ConvertOTAClusters
        0     14   -> osal_mem_alloc
        0     14   -> sAddrExtCpy
      1     20   ZDO_ParseMgmNwkDiscRsp
        0     20   -> osal_mem_alloc
        0     20   -> sAddrExtCpy
      1     22   ZDO_ParseMgmtBindRsp
        0     22   -> osal_mem_alloc
        0     22   -> sAddrExtCpy
      1     20   ZDO_ParseMgmtLqiRsp
        0     20   -> osal_mem_alloc
        0     20   -> sAddrExtCpy
      1     29   ZDO_ParseMgmtNwkUpdateNotify
        0     26   -> osal_build_uint32
        0     26   -> osal_mem_alloc
        0     29   -> osal_memcpy
      1     12   ZDO_ParseMgmtNwkUpdateReq
        0     12   -> osal_build_uint32
      1     18   ZDO_ParseMgmtRtgRsp
        0     18   -> osal_mem_alloc
      1     11   ZDO_ParseNodeDescRsp
      1     47   ZDO_ParseParentAnnce
        0     16   -> osal_mem_alloc
        0     16   -> sAddrExtCpy
      1     10   ZDO_ParsePowerDescRsp
      1      9   ZDO_ParseServerDiscRsp
      1     24   ZDO_ParseSimpleDescBuf
        0     12   -> osal_mem_alloc
        0     12   -> osal_mem_free
      1     12   ZDO_ParseSimpleDescRsp
        0     12   -> ZDO_ParseSimpleDescBuf
      1     19   ZDO_ParseUserDescRsp
        0     16   -> osal_mem_alloc
        0     19   -> osal_memcpy
      0     21   ZDO_ProcessActiveEPReq
        0     14   -> NLME_GetShortAddr
        0     21   -> ZDP_EPRsp
        0     14   -> afEndPoints
        0     14   -> afNumEndPoints
      0     29   ZDO_ProcessBindUnbindReq
        0     25   -> APSME_BindRequest
        0     24   -> APSME_LookupNwkAddr
        0     25   -> APSME_UnBindRequest
        0     24   -> NLME_GetExtAddr
        0     24   -> ZDApp_NVUpdate
        0     24   -> ZDP_NwkAddrReq
        0     29   -> ZDP_SendData
        0     24   -> sAddrExtCmp
        0     24   -> sAddrExtCpy
      0     42   ZDO_ProcessDeviceAnnce
        0     42   -> AddrMgrEntryLookupExt
        0     42   -> AddrMgrEntryLookupNwk
        0     42   -> AddrMgrEntryUpdate
        0     42   -> AddrMgrExtAddrSet
        0     42   -> NLME_CheckNewAddrSet
        0     42   -> NLME_GetCoordExtAddr
        0     42   -> NLME_GetCoordShortAddr
        0     42   -> NLME_GetExtAddr
        0     42   -> NLME_GetShortAddr
        0     42   -> RTG_RemoveRtgEntry
        0     42   -> ZDO_ParseDeviceAnnce
        0     42   -> ZMacSetReq
        0     42   -> nwkNeighborRemove
        0     42   -> nwkNeighborRemoveAllStranded
        0     42   -> osal_memset
        0     42   -> sAddrExtCmp
      1     41   ZDO_ProcessMatchDescReq
        0     34   -> HalLcdWriteScreen
        0     34   -> NLME_IsAddressBroadcast
        0     36   -> ZDO_AnyClusterMatches
        0     34   -> ZDO_ConvertOTAClusters
        0     41   -> ZDP_EPRsp
        0     34   -> osal_mem_alloc
        0     34   -> osal_mem_free
        0     37   -> osal_memcpy
        0     34   -> osal_msg_allocate
        0     34   -> osal_msg_send
      0     27   ZDO_ProcessMgmtBindReq
        0     22   -> APSME_GetRequest
        0     27   -> ZDP_MgmtBindRsp
        0     22   -> osal_mem_alloc
        0     22   -> osal_mem_free
      1     20   ZDO_ProcessMgmtDirectJoinReq
        0     15   -> NLME_DirectJoinRequest
        0     20   -> ZDP_SendData
      0     25   ZDO_ProcessMgmtLeaveReq
        0     20   -> AddrMgrExtAddrValid
        0     20   -> NLME_GetExtAddr
        0     20   -> NLME_LeaveReq
        0     20   -> NLME_SetPollRate
        0     20   -> NLME_SetQueuedPollRate
        0     20   -> NLME_SetResponseRate
        0     25   -> ZDP_SendData
        0     20   -> bdb_setFN
        0     20   -> sAddrExtCmp
      1     64   ZDO_ProcessMgmtLqiReq
        0     59   -> AddrMgrEntryLookupNwk
        0     59   -> AssocCount
        0     59   -> AssocFindDevice
        0     59   -> NLME_GetRequest
        0     64   -> ZDP_MgmtLqiRsp
        0     59   -> osal_mem_alloc
        0     59   -> osal_mem_free
        0     59   -> osal_memset
        0     59   -> sAddrExtCpy
      1     18   ZDO_ProcessMgmtNwkDiscReq
        0     18   -> NLME_NwkDiscReq2
        0     18   -> NLME_NwkDiscTerm
        0     18   -> osal_build_uint32
      1     18   ZDO_ProcessMgmtPermitJoinReq
        0     13   -> APSME_IsDistributedSecurity
        0     13   -> NLME_PermitJoiningRequest
        0     18   -> ZDP_SendData
        0     13   -> ZDSecMgrPermitJoining
      0     24   ZDO_ProcessMgmtRtgReq
        0     19   -> NLME_GetRequest
        0     24   -> ZDP_MgmtRtgRsp
        0     19   -> osal_mem_alloc
        0     19   -> osal_mem_free
      0     18   ZDO_ProcessNodeDescReq
        0     18   -> ZDP_GenericRsp
        0     16   -> ZDP_NodeDescMsg
      0      0   ZDO_ProcessNodeDescRsp
      0     36   ZDO_ProcessParentAnnce
        0     31   -> AssocGetWithExt
        0     31   -> ZDO_ParseParentAnnce
        0     36   -> ZDP_ParentAnnce
        0     31   -> osal_mem_alloc
        0     31   -> osal_mem_free
        0     31   -> sAddrExtCpy
      0     16   ZDO_ProcessParentAnnceRsp
        0     16   -> AssocGetWithExt
        0     16   -> AssocRemove
        0     16   -> ZDO_ParseParentAnnce
        0     16   -> osal_mem_free
      0     18   ZDO_ProcessPowerDescReq
        0     18   -> ZDP_GenericRsp
        0     16   -> ZDP_PowerDescMsg
      0     16   ZDO_ProcessServerDiscReq
        0     16   -> ZDP_ServerDiscRsp
      0     15   ZDO_ProcessSimpleDescReq
        0     15   -> ZDP_SimpleDescMsg
        0     15   -> afFindSimpleDesc
        0     15   -> osal_mem_free
      0      0   ZDO_ProcessSimpleDescRsp
      0     33   ZDO_ProcessUserDescReq
        0     33   -> ZDP_GenericRsp
        0     32   -> ZDP_UserDescRsp
        0     33   -> osal_nv_read
      1     44   ZDO_ProcessUserDescSet
        0     44   -> ZDP_SendData
        0     42   -> osal_memcpy
        0     43   -> osal_nv_write
      2      9   ZDO_RemoveEndDeviceBind
        2      0   -> osal_mem_free
      1     28   ZDO_SendEDBindRsp
        0     14   -> HalLcdWriteString
        0     19   -> ZDP_SendData
      0     28   ZDO_StartDevice
        0     18   -> APSME_IsDistributedSecurity
        0     18   -> HalLcdWriteScreen
        0     18   -> NLME_JoinConfirm
        0     18   -> NLME_NetworkDiscoveryRequest
        0     28   -> NLME_NetworkFormationRequest
        0     18   -> NLME_OrphanJoinRequest
        0     18   -> ZDApp_ChangeState
        0     18   -> ZMacGetReq
        0     18   -> osal_rand
        0     22   -> osal_start_timerEx
        0     18   -> osal_stop_timerEx
      0     23   ZDO_UpdateAddrManager
        0     23   -> AddrMgrEntryUpdate
        0     23   -> AddrMgrExtAddrSet
      0     12   ZDO_UpdateNwkStatus
        0     12   -> NLME_GetExtAddr
        0     12   -> NLME_GetShortAddr
        0     12   -> zdoSendStateChangeMsg
      1     25   zdoSendStateChangeMsg
        0     13   -> osal_msg_allocate
        0     13   -> osal_msg_find
        0     13   -> osal_msg_send
        0     13   -> osal_set_event


   Segment part sizes:

   Bytes  Function/Label
   -----  --------------
      16  ?<Constant "End Device Bind">
      13  ?<Constant "MODE unknown">
      15  ?<Constant "Match Desc Req">
      12  ?<Constant "Non Matched">
      16  ?<Constant "Rsp Non Matched">
       9  ?<Constant "Rsp Sent">
      16  ?<Constant "StartDevice ERR">
      13  ?<Constant "Success Sent">
       8  ?<Constant "Timeout">
       2  ?<Initializer for zdpExternalStateTaskID>
       3  NLME_PermitJoiningTimeout
      52  ZDOBuildBuf
      17  ZDODeviceSetup
     148  ZDO_AnyClusterMatches
     513  ZDO_BuildSimpleDescBuf
     105  ZDO_ConvertOTAClusters
       2  ZDO_EDBind
      93  ZDO_EndDeviceTimeoutCB
      35  ZDO_Init
     416  ZDO_ParseAddrRsp
     276  ZDO_ParseBindUnbindReq
     131  ZDO_ParseDeviceAnnce
     211  ZDO_ParseEPListRsp
     655  ZDO_ParseEndDeviceBindReq
     509  ZDO_ParseMgmNwkDiscRsp
     564  ZDO_ParseMgmtBindRsp
     550  ZDO_ParseMgmtLqiRsp
     387  ZDO_ParseMgmtNwkUpdateNotify
     255  ZDO_ParseMgmtNwkUpdateReq
     408  ZDO_ParseMgmtRtgRsp
     666  ZDO_ParseNodeDescRsp
     205  ZDO_ParseParentAnnce
     353  ZDO_ParsePowerDescRsp
     101  ZDO_ParseServerDiscRsp
     713  ZDO_ParseSimpleDescBuf
     143  ZDO_ParseSimpleDescRsp
     204  ZDO_ParseUserDescRsp
     199  ZDO_ProcessActiveEPReq
     540  ZDO_ProcessBindUnbindReq
     456  ZDO_ProcessDeviceAnnce
    1796  ZDO_ProcessMatchDescReq
     343  ZDO_ProcessMgmtBindReq
     147  ZDO_ProcessMgmtDirectJoinReq
     302  ZDO_ProcessMgmtLeaveReq
    1116  ZDO_ProcessMgmtLqiReq
     192  ZDO_ProcessMgmtNwkDiscReq
     152  ZDO_ProcessMgmtPermitJoinReq
     372  ZDO_ProcessMgmtRtgReq
     180  ZDO_ProcessNodeDescReq
       3  ZDO_ProcessNodeDescRsp
     617  ZDO_ProcessParentAnnce
     207  ZDO_ProcessParentAnnceRsp
     180  ZDO_ProcessPowerDescReq
     139  ZDO_ProcessServerDiscReq
     239  ZDO_ProcessSimpleDescReq
       3  ZDO_ProcessSimpleDescRsp
     246  ZDO_ProcessUserDescReq
     400  ZDO_ProcessUserDescSet
     146  ZDO_RemoveEndDeviceBind
     141  ZDO_SendEDBindRsp
     388  ZDO_StartDevice
      73  ZDO_UpdateAddrManager
     138  ZDO_UpdateNwkStatus
       4  __Constant_0
       4  __Constant_3e8
       4  apsChannelMask
       2  matchED
       1  scanCnt
     131  zdoSendStateChangeMsg
       2  zdpExternalStateTaskID
     312  -- Other

 
 16 507 bytes in segment BANKED_CODE
    312 bytes in segment BANK_RELAYS
      2 bytes in segment XDATA_I
      2 bytes in segment XDATA_ID
    126 bytes in segment XDATA_ROM_C
     61 bytes in segment XDATA_Z
 
    314 bytes of CODE     memory
    118 bytes of CONST    memory (+ 8 bytes shared)
 16 507 bytes of HUGECODE memory
     63 bytes of XDATA    memory

Errors: none
Warnings: none
