///////////////////////////////////////////////////////////////////////////////
//
// IAR C/C++ Compiler V10.30.1.6000 for 8051              30/Jul/2020  16:03:43
// Copyright 2004-2018 IAR Systems AB.
// PC-locked license - IAR Embedded Workbench for 8051
//
//    Core               =  plain
//    Code model         =  banked
//    Data model         =  large
//    Calling convention =  xdata reentrant
//    Constant location  =  data_rom
//    Dptr setup         =  1,16
//                          
//    Source file        =  D:\AA\Z-Stack 3.0.2\Components\stack\zdo\ZDObject.c
//    Command line       =  
//        -f C:\Users\sunli\AppData\Local\Temp\EW1223.tmp ("D:\AA\Z-Stack
//        3.0.2\Components\stack\zdo\ZDObject.c" -D SECURE=1 -D TC_LINKKEY_JOIN
//        -D NV_INIT -D NV_RESTORE -D xPOWER_SAVING -D NWK_AUTO_POLL -D
//        xZTOOL_P1 -D xMT_TASK -D xMT_APP_FUNC -D xMT_SYS_FUNC -D xMT_ZDO_FUNC
//        -D xMT_ZDO_MGMT -D xMT_APP_CNF_FUNC -D LCD_SUPPORTED=DEBUG -D
//        MULTICAST_ENABLED=FALSE -D ZCL_READ -D ZCL_DISCOVER -D ZCL_WRITE -D
//        ZCL_BASIC -D ZCL_IDENTIFY -D ZCL_ON_OFF -D ZCL_GROUPS -D
//        BDB_TL_INITIATOR -D INTER_PAN -lC "D:\AA\Z-Stack
//        3.0.2\Projects\zstack\HomeAutomation\SampleSwitch\CC2530DB\EndDeviceEB\List"
//        -lA "D:\AA\Z-Stack
//        3.0.2\Projects\zstack\HomeAutomation\SampleSwitch\CC2530DB\EndDeviceEB\List"
//        --diag_suppress Pe001,Pa010 -o "D:\AA\Z-Stack
//        3.0.2\Projects\zstack\HomeAutomation\SampleSwitch\CC2530DB\EndDeviceEB\Obj"
//        -e --debug --core=plain --dptr=16,1 --data_model=large
//        --code_model=banked --calling_convention=xdata_reentrant
//        --place_constants=data_rom --nr_virtual_regs 16 -f "D:\AA\Z-Stack
//        3.0.2\Projects\zstack\HomeAutomation\SampleSwitch\CC2530DB\..\..\..\Tools\CC2530DB\f8wEndev.cfg"
//        (-DCPU32MHZ -DROOT=__near_func -DMAC_CFG_TX_DATA_MAX=3
//        -DMAC_CFG_TX_MAX=6 -DMAC_CFG_RX_MAX=3) -f "D:\AA\Z-Stack
//        3.0.2\Projects\zstack\HomeAutomation\SampleSwitch\CC2530DB\..\..\..\Tools\CC2530DB\f8wConfig.cfg"
//        (-DZIGBEEPRO -DSECURE=1 -DZG_SECURE_DYNAMIC=0 -DREFLECTOR
//        -DDEFAULT_CHANLIST=0x00000800 -DZDAPP_CONFIG_PAN_ID=0xFFFF
//        -DNWK_START_DELAY=100 -DEXTENDED_JOINING_RANDOM_MASK=0x007F
//        -DBEACON_REQUEST_DELAY=100 -DBEACON_REQ_DELAY_MASK=0x00FF
//        -DLINK_STATUS_JITTER_MASK=0x007F -DROUTE_EXPIRY_TIME=30
//        -DAPSC_ACK_WAIT_DURATION_POLLED=3000 -DNWK_INDIRECT_MSG_TIMEOUT=7
//        -DMAX_RREQ_ENTRIES=8 -DAPSC_MAX_FRAME_RETRIES=3
//        -DNWK_MAX_DATA_RETRIES=2 -DMAX_POLL_FAILURE_RETRIES=2 -DMAX_BCAST=9
//        -DAPS_MAX_GROUPS=16 -DMAX_RTG_ENTRIES=40 -DNWK_MAX_BINDING_ENTRIES=4
//        -DMAX_BINDING_CLUSTER_IDS=4 -DDEFAULT_KEY={0}
//        -DMAC_MAX_FRAME_SIZE=116 -DZDNWKMGR_MIN_TRANSMISSIONS=20
//        "-DCONST=const __code" -DGENERIC=__generic -DRFD_RCVC_ALWAYS_ON=FALSE
//        -DPOLL_RATE=1000 -DQUEUED_POLL_RATE=100 -DRESPONSE_POLL_RATE=100
//        -DREJOIN_POLL_RATE=440 -DREJOIN_BACKOFF=900000 -DREJOIN_SCAN=900000
//        -DENABLE_LED4_DISABLE_S1) -f "D:\AA\Z-Stack
//        3.0.2\Projects\zstack\HomeAutomation\SampleSwitch\CC2530DB\..\..\..\Tools\CC2530DB\f8wZCL.cfg"
//        -I "D:\AA\Z-Stack
//        3.0.2\Projects\zstack\HomeAutomation\SampleSwitch\CC2530DB\" -I
//        "D:\AA\Z-Stack
//        3.0.2\Projects\zstack\HomeAutomation\SampleSwitch\CC2530DB\..\Source\"
//        -I "D:\AA\Z-Stack
//        3.0.2\Projects\zstack\HomeAutomation\SampleSwitch\CC2530DB\..\..\Source\"
//        -I "D:\AA\Z-Stack
//        3.0.2\Projects\zstack\HomeAutomation\SampleSwitch\CC2530DB\..\..\..\ZMain\TI2530DB\"
//        -I "D:\AA\Z-Stack
//        3.0.2\Projects\zstack\HomeAutomation\SampleSwitch\CC2530DB\..\..\..\..\..\Components\hal\include\"
//        -I "D:\AA\Z-Stack
//        3.0.2\Projects\zstack\HomeAutomation\SampleSwitch\CC2530DB\..\..\..\..\..\Components\hal\target\CC2530EB\"
//        -I "D:\AA\Z-Stack
//        3.0.2\Projects\zstack\HomeAutomation\SampleSwitch\CC2530DB\..\..\..\..\..\Components\mac\include\"
//        -I "D:\AA\Z-Stack
//        3.0.2\Projects\zstack\HomeAutomation\SampleSwitch\CC2530DB\..\..\..\..\..\Components\mac\high_level\"
//        -I "D:\AA\Z-Stack
//        3.0.2\Projects\zstack\HomeAutomation\SampleSwitch\CC2530DB\..\..\..\..\..\Components\mac\low_level\srf04\"
//        -I "D:\AA\Z-Stack
//        3.0.2\Projects\zstack\HomeAutomation\SampleSwitch\CC2530DB\..\..\..\..\..\Components\mac\low_level\srf04\single_chip\"
//        -I "D:\AA\Z-Stack
//        3.0.2\Projects\zstack\HomeAutomation\SampleSwitch\CC2530DB\..\..\..\..\..\Components\mt\"
//        -I "D:\AA\Z-Stack
//        3.0.2\Projects\zstack\HomeAutomation\SampleSwitch\CC2530DB\..\..\..\..\..\Components\osal\include\"
//        -I "D:\AA\Z-Stack
//        3.0.2\Projects\zstack\HomeAutomation\SampleSwitch\CC2530DB\..\..\..\..\..\Components\services\saddr\"
//        -I "D:\AA\Z-Stack
//        3.0.2\Projects\zstack\HomeAutomation\SampleSwitch\CC2530DB\..\..\..\..\..\Components\services\sdata\"
//        -I "D:\AA\Z-Stack
//        3.0.2\Projects\zstack\HomeAutomation\SampleSwitch\CC2530DB\..\..\..\..\..\Components\stack\af\"
//        -I "D:\AA\Z-Stack
//        3.0.2\Projects\zstack\HomeAutomation\SampleSwitch\CC2530DB\..\..\..\..\..\Components\stack\bdb\"
//        -I "D:\AA\Z-Stack
//        3.0.2\Projects\zstack\HomeAutomation\SampleSwitch\CC2530DB\..\..\..\..\..\Components\stack\gp\"
//        -I "D:\AA\Z-Stack
//        3.0.2\Projects\zstack\HomeAutomation\SampleSwitch\CC2530DB\..\..\..\..\..\Components\stack\nwk\"
//        -I "D:\AA\Z-Stack
//        3.0.2\Projects\zstack\HomeAutomation\SampleSwitch\CC2530DB\..\..\..\..\..\Components\stack\sapi\"
//        -I "D:\AA\Z-Stack
//        3.0.2\Projects\zstack\HomeAutomation\SampleSwitch\CC2530DB\..\..\..\..\..\Components\stack\sec\"
//        -I "D:\AA\Z-Stack
//        3.0.2\Projects\zstack\HomeAutomation\SampleSwitch\CC2530DB\..\..\..\..\..\Components\stack\sys\"
//        -I "D:\AA\Z-Stack
//        3.0.2\Projects\zstack\HomeAutomation\SampleSwitch\CC2530DB\..\..\..\..\..\Components\stack\zcl\"
//        -I "D:\AA\Z-Stack
//        3.0.2\Projects\zstack\HomeAutomation\SampleSwitch\CC2530DB\..\..\..\..\..\Components\stack\zdo\"
//        -I "D:\AA\Z-Stack
//        3.0.2\Projects\zstack\HomeAutomation\SampleSwitch\CC2530DB\..\..\..\..\..\Components\zmac\"
//        -I "D:\AA\Z-Stack
//        3.0.2\Projects\zstack\HomeAutomation\SampleSwitch\CC2530DB\..\..\..\..\..\Components\zmac\f8w\"
//        -On --require_prototypes --no_cse --no_unroll --no_inline
//        --no_code_motion --no_tbaa --no_cross_call)
//    Locale             =  Chinese (Simplified)_CHN.936
//    List file          =  
//        D:\AA\Z-Stack
//        3.0.2\Projects\zstack\HomeAutomation\SampleSwitch\CC2530DB\EndDeviceEB\List\ZDObject.s51
//
///////////////////////////////////////////////////////////////////////////////

        NAME ZDObject

        RTMODEL "__SystemLibrary", "CLib"
        RTMODEL "__calling_convention", "xdata_reentrant"
        RTMODEL "__code_model", "banked"
        RTMODEL "__core", "plain"
        RTMODEL "__data_model", "large"
        RTMODEL "__dptr_size", "16"
        RTMODEL "__extended_stack", "disabled"
        RTMODEL "__location_for_constants", "data"
        RTMODEL "__number_of_dptrs", "1"
        RTMODEL "__register_banks", "*"
        RTMODEL "__rt_version", "1"

        RSEG DOVERLAY:DATA:NOROOT(0)
        RSEG IOVERLAY:IDATA:NOROOT(0)
        RSEG ISTACK:IDATA:NOROOT(0)
        RSEG PSTACK:XDATA:NOROOT(0)
        RSEG XSTACK:XDATA:NOROOT(0)

        EXTERN ?V0
        EXTERN ?V1
        EXTERN ?V2
        EXTERN ?V3
        EXTERN ?V4
        EXTERN ?V5
        EXTERN ?V6
        EXTERN ?V7
        EXTERN ?V8
        EXTERN ?V9
        EXTERN ?V10
        EXTERN ?V11
        EXTERN ?V12
        EXTERN ?V13
        EXTERN ?V14
        EXTERN ?V15
        EXTERN ?ALLOC_XSTACK8
        EXTERN ?BANKED_ENTER_XDATA
        EXTERN ?BANKED_LEAVE_XDATA
        EXTERN ?BDISPATCH
        EXTERN ?BRET
        EXTERN ?CALL_IND
        EXTERN ?DEALLOC_XSTACK8
        EXTERN ?L_MOV_TO_X
        EXTERN ?PUSH_XSTACK8_X_FOUR
        EXTERN ?PUSH_XSTACK8_X_TWO
        EXTERN ?PUSH_XSTACK_I_ONE
        EXTERN ?PUSH_XSTACK_I_THREE
        EXTERN ?PUSH_XSTACK_I_TWO
        EXTERN ?S_SHL
        EXTERN ?XLOAD_R2345
        EXTERN ?XSP
        EXTERN ?XSTACK_DISP0_8
        EXTERN ?XSTACK_DISP100_8
        EXTERN ?XSTACK_DISP101_8
        EXTERN ?XSTACK_DISP102_8
        EXTERN ?XSTORE_R0123
        EXTERN __INIT_XDATA_I
        EXTERN __INIT_XDATA_Z

        PUBLIC `??NLME_PermitJoiningTimeout::?relay`
        FUNCTION `??NLME_PermitJoiningTimeout::?relay`,0203H
        FUNCTION `??ZDODeviceSetup::?relay`,0203H
        PUBLIC `??ZDO_AnyClusterMatches::?relay`
        FUNCTION `??ZDO_AnyClusterMatches::?relay`,0203H
        PUBLIC `??ZDO_BuildSimpleDescBuf::?relay`
        FUNCTION `??ZDO_BuildSimpleDescBuf::?relay`,0203H
        PUBLIC `??ZDO_ConvertOTAClusters::?relay`
        FUNCTION `??ZDO_ConvertOTAClusters::?relay`,0203H
        PUBLIC `??ZDO_EndDeviceTimeoutCB::?relay`
        FUNCTION `??ZDO_EndDeviceTimeoutCB::?relay`,0203H
        PUBLIC `??ZDO_Init::?relay`
        FUNCTION `??ZDO_Init::?relay`,0203H
        PUBLIC `??ZDO_ParseAddrRsp::?relay`
        FUNCTION `??ZDO_ParseAddrRsp::?relay`,0203H
        PUBLIC `??ZDO_ParseBindUnbindReq::?relay`
        FUNCTION `??ZDO_ParseBindUnbindReq::?relay`,0203H
        PUBLIC `??ZDO_ParseDeviceAnnce::?relay`
        FUNCTION `??ZDO_ParseDeviceAnnce::?relay`,0203H
        PUBLIC `??ZDO_ParseEPListRsp::?relay`
        FUNCTION `??ZDO_ParseEPListRsp::?relay`,0203H
        PUBLIC `??ZDO_ParseEndDeviceBindReq::?relay`
        FUNCTION `??ZDO_ParseEndDeviceBindReq::?relay`,0203H
        PUBLIC `??ZDO_ParseMgmNwkDiscRsp::?relay`
        FUNCTION `??ZDO_ParseMgmNwkDiscRsp::?relay`,0203H
        PUBLIC `??ZDO_ParseMgmtBindRsp::?relay`
        FUNCTION `??ZDO_ParseMgmtBindRsp::?relay`,0203H
        PUBLIC `??ZDO_ParseMgmtLqiRsp::?relay`
        FUNCTION `??ZDO_ParseMgmtLqiRsp::?relay`,0203H
        PUBLIC `??ZDO_ParseMgmtNwkUpdateNotify::?relay`
        FUNCTION `??ZDO_ParseMgmtNwkUpdateNotify::?relay`,0203H
        PUBLIC `??ZDO_ParseMgmtNwkUpdateReq::?relay`
        FUNCTION `??ZDO_ParseMgmtNwkUpdateReq::?relay`,0203H
        PUBLIC `??ZDO_ParseMgmtRtgRsp::?relay`
        FUNCTION `??ZDO_ParseMgmtRtgRsp::?relay`,0203H
        PUBLIC `??ZDO_ParseNodeDescRsp::?relay`
        FUNCTION `??ZDO_ParseNodeDescRsp::?relay`,0203H
        PUBLIC `??ZDO_ParseParentAnnce::?relay`
        FUNCTION `??ZDO_ParseParentAnnce::?relay`,0203H
        PUBLIC `??ZDO_ParsePowerDescRsp::?relay`
        FUNCTION `??ZDO_ParsePowerDescRsp::?relay`,0203H
        PUBLIC `??ZDO_ParseServerDiscRsp::?relay`
        FUNCTION `??ZDO_ParseServerDiscRsp::?relay`,0203H
        PUBLIC `??ZDO_ParseSimpleDescBuf::?relay`
        FUNCTION `??ZDO_ParseSimpleDescBuf::?relay`,0203H
        PUBLIC `??ZDO_ParseSimpleDescRsp::?relay`
        FUNCTION `??ZDO_ParseSimpleDescRsp::?relay`,0203H
        PUBLIC `??ZDO_ParseUserDescRsp::?relay`
        FUNCTION `??ZDO_ParseUserDescRsp::?relay`,0203H
        PUBLIC `??ZDO_ProcessActiveEPReq::?relay`
        FUNCTION `??ZDO_ProcessActiveEPReq::?relay`,0203H
        PUBLIC `??ZDO_ProcessBindUnbindReq::?relay`
        FUNCTION `??ZDO_ProcessBindUnbindReq::?relay`,0203H
        PUBLIC `??ZDO_ProcessDeviceAnnce::?relay`
        FUNCTION `??ZDO_ProcessDeviceAnnce::?relay`,0203H
        PUBLIC `??ZDO_ProcessMatchDescReq::?relay`
        FUNCTION `??ZDO_ProcessMatchDescReq::?relay`,0203H
        PUBLIC `??ZDO_ProcessMgmtBindReq::?relay`
        FUNCTION `??ZDO_ProcessMgmtBindReq::?relay`,0203H
        PUBLIC `??ZDO_ProcessMgmtDirectJoinReq::?relay`
        FUNCTION `??ZDO_ProcessMgmtDirectJoinReq::?relay`,0203H
        PUBLIC `??ZDO_ProcessMgmtLeaveReq::?relay`
        FUNCTION `??ZDO_ProcessMgmtLeaveReq::?relay`,0203H
        PUBLIC `??ZDO_ProcessMgmtLqiReq::?relay`
        FUNCTION `??ZDO_ProcessMgmtLqiReq::?relay`,0203H
        PUBLIC `??ZDO_ProcessMgmtNwkDiscReq::?relay`
        FUNCTION `??ZDO_ProcessMgmtNwkDiscReq::?relay`,0203H
        PUBLIC `??ZDO_ProcessMgmtPermitJoinReq::?relay`
        FUNCTION `??ZDO_ProcessMgmtPermitJoinReq::?relay`,0203H
        PUBLIC `??ZDO_ProcessMgmtRtgReq::?relay`
        FUNCTION `??ZDO_ProcessMgmtRtgReq::?relay`,0203H
        PUBLIC `??ZDO_ProcessNodeDescReq::?relay`
        FUNCTION `??ZDO_ProcessNodeDescReq::?relay`,0203H
        PUBLIC `??ZDO_ProcessNodeDescRsp::?relay`
        FUNCTION `??ZDO_ProcessNodeDescRsp::?relay`,0203H
        PUBLIC `??ZDO_ProcessParentAnnce::?relay`
        FUNCTION `??ZDO_ProcessParentAnnce::?relay`,0203H
        PUBLIC `??ZDO_ProcessParentAnnceRsp::?relay`
        FUNCTION `??ZDO_ProcessParentAnnceRsp::?relay`,0203H
        PUBLIC `??ZDO_ProcessPowerDescReq::?relay`
        FUNCTION `??ZDO_ProcessPowerDescReq::?relay`,0203H
        PUBLIC `??ZDO_ProcessServerDiscReq::?relay`
        FUNCTION `??ZDO_ProcessServerDiscReq::?relay`,0203H
        PUBLIC `??ZDO_ProcessSimpleDescReq::?relay`
        FUNCTION `??ZDO_ProcessSimpleDescReq::?relay`,0203H
        PUBLIC `??ZDO_ProcessSimpleDescRsp::?relay`
        FUNCTION `??ZDO_ProcessSimpleDescRsp::?relay`,0203H
        PUBLIC `??ZDO_ProcessUserDescReq::?relay`
        FUNCTION `??ZDO_ProcessUserDescReq::?relay`,0203H
        PUBLIC `??ZDO_ProcessUserDescSet::?relay`
        FUNCTION `??ZDO_ProcessUserDescSet::?relay`,0203H
        FUNCTION `??ZDO_RemoveEndDeviceBind::?relay`,0203H
        FUNCTION `??ZDO_SendEDBindRsp::?relay`,0203H
        PUBLIC `??ZDO_StartDevice::?relay`
        FUNCTION `??ZDO_StartDevice::?relay`,0203H
        PUBLIC `??ZDO_UpdateAddrManager::?relay`
        FUNCTION `??ZDO_UpdateAddrManager::?relay`,0203H
        PUBLIC `??ZDO_UpdateNwkStatus::?relay`
        FUNCTION `??ZDO_UpdateNwkStatus::?relay`,0203H
        FUNCTION `??zdoSendStateChangeMsg::?relay`,0203H
        PUBLIC NLME_PermitJoiningTimeout
        FUNCTION NLME_PermitJoiningTimeout,0203H
        ARGFRAME XSTACK, 0, STACK
        FUNCTION ZDODeviceSetup,021203H
        ARGFRAME XSTACK, 0, STACK
        ARGFRAME IOVERLAY, 0, STATIC
        ARGFRAME DOVERLAY, 0, STATIC
        LOCFRAME ISTACK, 2, STACK
        PUBLIC ZDO_AnyClusterMatches
        FUNCTION ZDO_AnyClusterMatches,080203H
        ARGFRAME XSTACK, 36, STACK
        ARGFRAME IOVERLAY, 0, STATIC
        ARGFRAME DOVERLAY, 0, STATIC
        LOCFRAME XSTACK, 13, STACK
        PUBLIC ZDO_BuildSimpleDescBuf
        FUNCTION ZDO_BuildSimpleDescBuf,080203H
        ARGFRAME XSTACK, 0, STACK
        LOCFRAME ISTACK, 1, STACK
        LOCFRAME XSTACK, 10, STACK
        PUBLIC ZDO_ConvertOTAClusters
        FUNCTION ZDO_ConvertOTAClusters,080203H
        ARGFRAME XSTACK, 34, STACK
        ARGFRAME IOVERLAY, 0, STATIC
        ARGFRAME DOVERLAY, 0, STATIC
        LOCFRAME XSTACK, 11, STACK
        PUBLIC ZDO_EndDeviceTimeoutCB
        FUNCTION ZDO_EndDeviceTimeoutCB,021203H
        ARGFRAME XSTACK, 0, STACK
        LOCFRAME XSTACK, 9, STACK
        PUBLIC ZDO_Init
        FUNCTION ZDO_Init,021203H
        ARGFRAME XSTACK, 0, STACK
        LOCFRAME ISTACK, 2, STACK
        PUBLIC ZDO_ParseAddrRsp
        FUNCTION ZDO_ParseAddrRsp,0a1203H
        ARGFRAME XSTACK, 0, STACK
        LOCFRAME ISTACK, 1, STACK
        LOCFRAME XSTACK, 16, STACK
        PUBLIC ZDO_ParseBindUnbindReq
        FUNCTION ZDO_ParseBindUnbindReq,0a1203H
        ARGFRAME XSTACK, 0, STACK
        LOCFRAME ISTACK, 1, STACK
        LOCFRAME XSTACK, 12, STACK
        PUBLIC ZDO_ParseDeviceAnnce
        FUNCTION ZDO_ParseDeviceAnnce,0a1203H
        ARGFRAME XSTACK, 42, STACK
        ARGFRAME IOVERLAY, 0, STATIC
        ARGFRAME DOVERLAY, 0, STATIC
        LOCFRAME ISTACK, 1, STACK
        LOCFRAME XSTACK, 12, STACK
        PUBLIC ZDO_ParseEPListRsp
        FUNCTION ZDO_ParseEPListRsp,0a1203H
        ARGFRAME XSTACK, 0, STACK
        LOCFRAME ISTACK, 1, STACK
        LOCFRAME XSTACK, 20, STACK
        PUBLIC ZDO_ParseEndDeviceBindReq
        FUNCTION ZDO_ParseEndDeviceBindReq,0a1203H
        ARGFRAME XSTACK, 0, STACK
        LOCFRAME ISTACK, 1, STACK
        LOCFRAME XSTACK, 14, STACK
        PUBLIC ZDO_ParseMgmNwkDiscRsp
        FUNCTION ZDO_ParseMgmNwkDiscRsp,0a1203H
        ARGFRAME XSTACK, 0, STACK
        LOCFRAME ISTACK, 1, STACK
        LOCFRAME XSTACK, 20, STACK
        PUBLIC ZDO_ParseMgmtBindRsp
        FUNCTION ZDO_ParseMgmtBindRsp,0a1203H
        ARGFRAME XSTACK, 0, STACK
        LOCFRAME ISTACK, 1, STACK
        LOCFRAME XSTACK, 22, STACK
        PUBLIC ZDO_ParseMgmtLqiRsp
        FUNCTION ZDO_ParseMgmtLqiRsp,0a1203H
        ARGFRAME XSTACK, 0, STACK
        LOCFRAME ISTACK, 1, STACK
        LOCFRAME XSTACK, 20, STACK
        PUBLIC ZDO_ParseMgmtNwkUpdateNotify
        FUNCTION ZDO_ParseMgmtNwkUpdateNotify,0a1203H
        ARGFRAME XSTACK, 0, STACK
        LOCFRAME ISTACK, 1, STACK
        LOCFRAME XSTACK, 29, STACK
        PUBLIC ZDO_ParseMgmtNwkUpdateReq
        FUNCTION ZDO_ParseMgmtNwkUpdateReq,0a1203H
        ARGFRAME XSTACK, 0, STACK
        LOCFRAME ISTACK, 1, STACK
        LOCFRAME XSTACK, 12, STACK
        PUBLIC ZDO_ParseMgmtRtgRsp
        FUNCTION ZDO_ParseMgmtRtgRsp,0a1203H
        ARGFRAME XSTACK, 0, STACK
        LOCFRAME ISTACK, 1, STACK
        LOCFRAME XSTACK, 18, STACK
        PUBLIC ZDO_ParseNodeDescRsp
        FUNCTION ZDO_ParseNodeDescRsp,080203H
        ARGFRAME XSTACK, 0, STACK
        LOCFRAME ISTACK, 1, STACK
        LOCFRAME XSTACK, 11, STACK
        PUBLIC ZDO_ParseParentAnnce
        FUNCTION ZDO_ParseParentAnnce,0a1203H
        ARGFRAME XSTACK, 31, STACK
        ARGFRAME IOVERLAY, 0, STATIC
        ARGFRAME DOVERLAY, 0, STATIC
        LOCFRAME ISTACK, 1, STACK
        LOCFRAME XSTACK, 16, STACK
        PUBLIC ZDO_ParsePowerDescRsp
        FUNCTION ZDO_ParsePowerDescRsp,080203H
        ARGFRAME XSTACK, 0, STACK
        LOCFRAME ISTACK, 1, STACK
        LOCFRAME XSTACK, 10, STACK
        PUBLIC ZDO_ParseServerDiscRsp
        FUNCTION ZDO_ParseServerDiscRsp,0203H
        ARGFRAME XSTACK, 0, STACK
        LOCFRAME ISTACK, 1, STACK
        LOCFRAME XSTACK, 9, STACK
        PUBLIC ZDO_ParseSimpleDescBuf
        FUNCTION ZDO_ParseSimpleDescBuf,0a1203H
        ARGFRAME XSTACK, 12, STACK
        ARGFRAME IOVERLAY, 0, STATIC
        ARGFRAME DOVERLAY, 0, STATIC
        LOCFRAME ISTACK, 1, STACK
        LOCFRAME XSTACK, 12, STACK
        PUBLIC ZDO_ParseSimpleDescRsp
        FUNCTION ZDO_ParseSimpleDescRsp,0a1203H
        ARGFRAME XSTACK, 0, STACK
        LOCFRAME ISTACK, 1, STACK
        LOCFRAME XSTACK, 12, STACK
        PUBLIC ZDO_ParseUserDescRsp
        FUNCTION ZDO_ParseUserDescRsp,0a1203H
        ARGFRAME XSTACK, 0, STACK
        LOCFRAME ISTACK, 1, STACK
        LOCFRAME XSTACK, 19, STACK
        PUBLIC ZDO_ProcessActiveEPReq
        FUNCTION ZDO_ProcessActiveEPReq,0a1203H
        ARGFRAME XSTACK, 0, STACK
        LOCFRAME XSTACK, 21, STACK
        PUBLIC ZDO_ProcessBindUnbindReq
        FUNCTION ZDO_ProcessBindUnbindReq,0a1203H
        ARGFRAME XSTACK, 0, STACK
        LOCFRAME XSTACK, 29, STACK
        PUBLIC ZDO_ProcessDeviceAnnce
        FUNCTION ZDO_ProcessDeviceAnnce,0a1203H
        ARGFRAME XSTACK, 0, STACK
        LOCFRAME XSTACK, 42, STACK
        PUBLIC ZDO_ProcessMatchDescReq
        FUNCTION ZDO_ProcessMatchDescReq,0a1203H
        ARGFRAME XSTACK, 0, STACK
        LOCFRAME ISTACK, 1, STACK
        LOCFRAME XSTACK, 41, STACK
        PUBLIC ZDO_ProcessMgmtBindReq
        FUNCTION ZDO_ProcessMgmtBindReq,0a1203H
        ARGFRAME XSTACK, 0, STACK
        LOCFRAME XSTACK, 27, STACK
        PUBLIC ZDO_ProcessMgmtDirectJoinReq
        FUNCTION ZDO_ProcessMgmtDirectJoinReq,0a1203H
        ARGFRAME XSTACK, 0, STACK
        LOCFRAME ISTACK, 1, STACK
        LOCFRAME XSTACK, 20, STACK
        PUBLIC ZDO_ProcessMgmtLeaveReq
        FUNCTION ZDO_ProcessMgmtLeaveReq,0a1203H
        ARGFRAME XSTACK, 0, STACK
        LOCFRAME XSTACK, 25, STACK
        PUBLIC ZDO_ProcessMgmtLqiReq
        FUNCTION ZDO_ProcessMgmtLqiReq,0a1203H
        ARGFRAME XSTACK, 0, STACK
        LOCFRAME ISTACK, 1, STACK
        LOCFRAME XSTACK, 64, STACK
        PUBLIC ZDO_ProcessMgmtNwkDiscReq
        FUNCTION ZDO_ProcessMgmtNwkDiscReq,0a1203H
        ARGFRAME XSTACK, 0, STACK
        LOCFRAME ISTACK, 1, STACK
        LOCFRAME XSTACK, 18, STACK
        PUBLIC ZDO_ProcessMgmtPermitJoinReq
        FUNCTION ZDO_ProcessMgmtPermitJoinReq,0a1203H
        ARGFRAME XSTACK, 0, STACK
        LOCFRAME ISTACK, 1, STACK
        LOCFRAME XSTACK, 18, STACK
        PUBLIC ZDO_ProcessMgmtRtgReq
        FUNCTION ZDO_ProcessMgmtRtgReq,0a1203H
        ARGFRAME XSTACK, 0, STACK
        LOCFRAME XSTACK, 24, STACK
        PUBLIC ZDO_ProcessNodeDescReq
        FUNCTION ZDO_ProcessNodeDescReq,0a1203H
        ARGFRAME XSTACK, 0, STACK
        LOCFRAME XSTACK, 18, STACK
        PUBLIC ZDO_ProcessNodeDescRsp
        FUNCTION ZDO_ProcessNodeDescRsp,0203H
        ARGFRAME XSTACK, 0, STACK
        PUBLIC ZDO_ProcessParentAnnce
        FUNCTION ZDO_ProcessParentAnnce,0a1203H
        ARGFRAME XSTACK, 0, STACK
        LOCFRAME XSTACK, 36, STACK
        PUBLIC ZDO_ProcessParentAnnceRsp
        FUNCTION ZDO_ProcessParentAnnceRsp,0a1203H
        ARGFRAME XSTACK, 0, STACK
        LOCFRAME XSTACK, 16, STACK
        PUBLIC ZDO_ProcessPowerDescReq
        FUNCTION ZDO_ProcessPowerDescReq,0a1203H
        ARGFRAME XSTACK, 0, STACK
        LOCFRAME XSTACK, 18, STACK
        PUBLIC ZDO_ProcessServerDiscReq
        FUNCTION ZDO_ProcessServerDiscReq,0a1203H
        ARGFRAME XSTACK, 0, STACK
        LOCFRAME XSTACK, 16, STACK
        PUBLIC ZDO_ProcessSimpleDescReq
        FUNCTION ZDO_ProcessSimpleDescReq,0a1203H
        ARGFRAME XSTACK, 0, STACK
        LOCFRAME XSTACK, 15, STACK
        PUBLIC ZDO_ProcessSimpleDescRsp
        FUNCTION ZDO_ProcessSimpleDescRsp,0203H
        ARGFRAME XSTACK, 0, STACK
        PUBLIC ZDO_ProcessUserDescReq
        FUNCTION ZDO_ProcessUserDescReq,0a1203H
        ARGFRAME XSTACK, 0, STACK
        LOCFRAME XSTACK, 33, STACK
        PUBLIC ZDO_ProcessUserDescSet
        FUNCTION ZDO_ProcessUserDescSet,0a1203H
        ARGFRAME XSTACK, 0, STACK
        LOCFRAME ISTACK, 1, STACK
        LOCFRAME XSTACK, 44, STACK
        FUNCTION ZDO_RemoveEndDeviceBind,021203H
        ARGFRAME XSTACK, 9, STACK
        ARGFRAME IOVERLAY, 0, STATIC
        ARGFRAME DOVERLAY, 0, STATIC
        LOCFRAME ISTACK, 2, STACK
        FUNCTION ZDO_SendEDBindRsp,0a1203H
        ARGFRAME XSTACK, 9, STACK
        ARGFRAME IOVERLAY, 0, STATIC
        ARGFRAME DOVERLAY, 0, STATIC
        LOCFRAME ISTACK, 1, STACK
        LOCFRAME XSTACK, 19, STACK
        PUBLIC ZDO_StartDevice
        FUNCTION ZDO_StartDevice,0a1203H
        ARGFRAME XSTACK, 0, STACK
        LOCFRAME XSTACK, 28, STACK
        PUBLIC ZDO_UpdateAddrManager
        FUNCTION ZDO_UpdateAddrManager,0a1203H
        ARGFRAME XSTACK, 0, STACK
        LOCFRAME XSTACK, 23, STACK
        PUBLIC ZDO_UpdateNwkStatus
        FUNCTION ZDO_UpdateNwkStatus,0a1203H
        ARGFRAME XSTACK, 0, STACK
        LOCFRAME XSTACK, 12, STACK
        PUBWEAK __Constant_0
        PUBWEAK __Constant_3e8
        PUBLIC apsChannelMask
        PUBLIC matchED
        FUNCTION zdoSendStateChangeMsg,0a1203H
        ARGFRAME XSTACK, 12, STACK
        ARGFRAME IOVERLAY, 0, STATIC
        ARGFRAME DOVERLAY, 0, STATIC
        LOCFRAME ISTACK, 1, STACK
        LOCFRAME XSTACK, 13, STACK
        PUBLIC zdpExternalStateTaskID
        
          CFI Names cfiNames0
          CFI StackFrame CFA_SP SP IDATA
          CFI StackFrame CFA_PSP16 PSP16 XDATA
          CFI StackFrame CFA_XSP16 XSP16 XDATA
          CFI StaticOverlayFrame CFA_IOVERLAY IOVERLAY
          CFI StaticOverlayFrame CFA_DOVERLAY DOVERLAY
          CFI Resource `PSW.CY`:1, `B.BR0`:1, `B.BR1`:1, `B.BR2`:1, `B.BR3`:1
          CFI Resource `B.BR4`:1, `B.BR5`:1, `B.BR6`:1, `B.BR7`:1, `VB.BR8`:1
          CFI Resource `VB.BR9`:1, `VB.BR10`:1, `VB.BR11`:1, `VB.BR12`:1
          CFI Resource `VB.BR13`:1, `VB.BR14`:1, `VB.BR15`:1, VB:8, B:8, A:8
          CFI Resource PSW:8, DPL0:8, DPH0:8, R0:8, R1:8, R2:8, R3:8, R4:8, R5:8
          CFI Resource R6:8, R7:8, V0:8, V1:8, V2:8, V3:8, V4:8, V5:8, V6:8, V7:8
          CFI Resource V8:8, V9:8, V10:8, V11:8, V12:8, V13:8, V14:8, V15:8, SP:8
          CFI Resource PSPH:8, PSPL:8, PSP16:16, XSPH:8, XSPL:8, XSP16:16
          CFI VirtualResource ?RET:24
          CFI Resource ?BRET_EXT:8
          CFI VirtualResource ?RET_HIGH:8, ?RET_LOW:8
          CFI ResourceParts PSP16 PSPH, PSPL
          CFI ResourceParts XSP16 XSPH, XSPL
          CFI ResourceParts ?RET ?BRET_EXT, ?RET_HIGH, ?RET_LOW
          CFI EndNames cfiNames0
        
          CFI Common cfiCommon0 Using cfiNames0
          CFI CodeAlign 1
          CFI DataAlign -1
          CFI ReturnAddress ?RET CODE
          CFI CFA_DOVERLAY Used
          CFI CFA_IOVERLAY Used
          CFI CFA_SP SP+-3
          CFI CFA_PSP16 PSP16+0
          CFI CFA_XSP16 XSP16+0
          CFI `PSW.CY` SameValue
          CFI `B.BR0` SameValue
          CFI `B.BR1` SameValue
          CFI `B.BR2` SameValue
          CFI `B.BR3` SameValue
          CFI `B.BR4` SameValue
          CFI `B.BR5` SameValue
          CFI `B.BR6` SameValue
          CFI `B.BR7` SameValue
          CFI `VB.BR8` SameValue
          CFI `VB.BR9` SameValue
          CFI `VB.BR10` SameValue
          CFI `VB.BR11` SameValue
          CFI `VB.BR12` SameValue
          CFI `VB.BR13` SameValue
          CFI `VB.BR14` SameValue
          CFI `VB.BR15` SameValue
          CFI VB SameValue
          CFI B Undefined
          CFI A Undefined
          CFI PSW SameValue
          CFI DPL0 SameValue
          CFI DPH0 SameValue
          CFI R0 Undefined
          CFI R1 Undefined
          CFI R2 Undefined
          CFI R3 Undefined
          CFI R4 Undefined
          CFI R5 Undefined
          CFI R6 SameValue
          CFI R7 SameValue
          CFI V0 SameValue
          CFI V1 SameValue
          CFI V2 SameValue
          CFI V3 SameValue
          CFI V4 SameValue
          CFI V5 SameValue
          CFI V6 SameValue
          CFI V7 SameValue
          CFI V8 SameValue
          CFI V9 SameValue
          CFI V10 SameValue
          CFI V11 SameValue
          CFI V12 SameValue
          CFI V13 SameValue
          CFI V14 SameValue
          CFI V15 SameValue
          CFI PSPH Undefined
          CFI PSPL Undefined
          CFI XSPH Undefined
          CFI XSPL Undefined
          CFI ?RET Concat
          CFI ?BRET_EXT Frame(CFA_SP, 3)
          CFI ?RET_HIGH Frame(CFA_SP, 2)
          CFI ?RET_LOW Frame(CFA_SP, 1)
          CFI EndCommon cfiCommon0
        
APSME_BindRequest   SYMBOL "APSME_BindRequest"
`??APSME_BindRequest::?relay` SYMBOL "?relay", APSME_BindRequest
APSME_GetRequest    SYMBOL "APSME_GetRequest"
`??APSME_GetRequest::?relay` SYMBOL "?relay", APSME_GetRequest
APSME_IsDistributedSecurity SYMBOL "APSME_IsDistributedSecurity"
`??APSME_IsDistributedSecurity::?relay` SYMBOL "?relay", APSME_IsDistributedSecurity
APSME_LookupNwkAddr SYMBOL "APSME_LookupNwkAddr"
`??APSME_LookupNwkAddr::?relay` SYMBOL "?relay", APSME_LookupNwkAddr
APSME_UnBindRequest SYMBOL "APSME_UnBindRequest"
`??APSME_UnBindRequest::?relay` SYMBOL "?relay", APSME_UnBindRequest
APS_ReflectorInit   SYMBOL "APS_ReflectorInit"
`??APS_ReflectorInit::?relay` SYMBOL "?relay", APS_ReflectorInit
AddrMgrEntryLookupExt SYMBOL "AddrMgrEntryLookupExt"
`??AddrMgrEntryLookupExt::?relay` SYMBOL "?relay", AddrMgrEntryLookupExt
AddrMgrEntryLookupNwk SYMBOL "AddrMgrEntryLookupNwk"
`??AddrMgrEntryLookupNwk::?relay` SYMBOL "?relay", AddrMgrEntryLookupNwk
AddrMgrEntryUpdate  SYMBOL "AddrMgrEntryUpdate"
`??AddrMgrEntryUpdate::?relay` SYMBOL "?relay", AddrMgrEntryUpdate
AddrMgrExtAddrSet   SYMBOL "AddrMgrExtAddrSet"
`??AddrMgrExtAddrSet::?relay` SYMBOL "?relay", AddrMgrExtAddrSet
AddrMgrExtAddrValid SYMBOL "AddrMgrExtAddrValid"
`??AddrMgrExtAddrValid::?relay` SYMBOL "?relay", AddrMgrExtAddrValid
AssocCount          SYMBOL "AssocCount"
`??AssocCount::?relay` SYMBOL "?relay", AssocCount
AssocFindDevice     SYMBOL "AssocFindDevice"
`??AssocFindDevice::?relay` SYMBOL "?relay", AssocFindDevice
AssocGetWithExt     SYMBOL "AssocGetWithExt"
`??AssocGetWithExt::?relay` SYMBOL "?relay", AssocGetWithExt
AssocRemove         SYMBOL "AssocRemove"
`??AssocRemove::?relay` SYMBOL "?relay", AssocRemove
HalLcdWriteScreen   SYMBOL "HalLcdWriteScreen"
`??HalLcdWriteScreen::?relay` SYMBOL "?relay", HalLcdWriteScreen
HalLcdWriteString   SYMBOL "HalLcdWriteString"
`??HalLcdWriteString::?relay` SYMBOL "?relay", HalLcdWriteString
NLME_CheckNewAddrSet SYMBOL "NLME_CheckNewAddrSet"
`??NLME_CheckNewAddrSet::?relay` SYMBOL "?relay", NLME_CheckNewAddrSet
NLME_DeviceJoiningInit SYMBOL "NLME_DeviceJoiningInit"
`??NLME_DeviceJoiningInit::?relay` SYMBOL "?relay", NLME_DeviceJoiningInit
NLME_DirectJoinRequest SYMBOL "NLME_DirectJoinRequest"
`??NLME_DirectJoinRequest::?relay` SYMBOL "?relay", NLME_DirectJoinRequest
NLME_GetCoordExtAddr SYMBOL "NLME_GetCoordExtAddr"
`??NLME_GetCoordExtAddr::?relay` SYMBOL "?relay", NLME_GetCoordExtAddr
NLME_GetCoordShortAddr SYMBOL "NLME_GetCoordShortAddr"
`??NLME_GetCoordShortAddr::?relay` SYMBOL "?relay", NLME_GetCoordShortAddr
NLME_GetExtAddr     SYMBOL "NLME_GetExtAddr"
`??NLME_GetExtAddr::?relay` SYMBOL "?relay", NLME_GetExtAddr
NLME_GetRequest     SYMBOL "NLME_GetRequest"
`??NLME_GetRequest::?relay` SYMBOL "?relay", NLME_GetRequest
NLME_GetShortAddr   SYMBOL "NLME_GetShortAddr"
`??NLME_GetShortAddr::?relay` SYMBOL "?relay", NLME_GetShortAddr
NLME_IsAddressBroadcast SYMBOL "NLME_IsAddressBroadcast"
`??NLME_IsAddressBroadcast::?relay` SYMBOL "?relay", NLME_IsAddressBroadcast
NLME_JoinConfirm    SYMBOL "NLME_JoinConfirm"
`??NLME_JoinConfirm::?relay` SYMBOL "?relay", NLME_JoinConfirm
NLME_LeaveReq       SYMBOL "NLME_LeaveReq"
`??NLME_LeaveReq::?relay` SYMBOL "?relay", NLME_LeaveReq
NLME_NetworkDiscoveryRequest SYMBOL "NLME_NetworkDiscoveryRequest"
`??NLME_NetworkDiscoveryRequest::?relay` SYMBOL "?relay", NLME_NetworkDiscoveryRequest
NLME_NetworkFormationRequest SYMBOL "NLME_NetworkFormationRequest"
`??NLME_NetworkFormationRequest::?relay` SYMBOL "?relay", NLME_NetworkFormationRequest
NLME_NwkDiscReq2    SYMBOL "NLME_NwkDiscReq2"
`??NLME_NwkDiscReq2::?relay` SYMBOL "?relay", NLME_NwkDiscReq2
NLME_NwkDiscTerm    SYMBOL "NLME_NwkDiscTerm"
`??NLME_NwkDiscTerm::?relay` SYMBOL "?relay", NLME_NwkDiscTerm
NLME_OrphanJoinRequest SYMBOL "NLME_OrphanJoinRequest"
`??NLME_OrphanJoinRequest::?relay` SYMBOL "?relay", NLME_OrphanJoinRequest
NLME_PermitJoiningRequest SYMBOL "NLME_PermitJoiningRequest"
`??NLME_PermitJoiningRequest::?relay` SYMBOL "?relay", NLME_PermitJoiningRequest
NLME_SetPollRate    SYMBOL "NLME_SetPollRate"
`??NLME_SetPollRate::?relay` SYMBOL "?relay", NLME_SetPollRate
NLME_SetQueuedPollRate SYMBOL "NLME_SetQueuedPollRate"
`??NLME_SetQueuedPollRate::?relay` SYMBOL "?relay", NLME_SetQueuedPollRate
NLME_SetResponseRate SYMBOL "NLME_SetResponseRate"
`??NLME_SetResponseRate::?relay` SYMBOL "?relay", NLME_SetResponseRate
RTG_RemoveRtgEntry  SYMBOL "RTG_RemoveRtgEntry"
`??RTG_RemoveRtgEntry::?relay` SYMBOL "?relay", RTG_RemoveRtgEntry
ZDApp_ChangeState   SYMBOL "ZDApp_ChangeState"
`??ZDApp_ChangeState::?relay` SYMBOL "?relay", ZDApp_ChangeState
ZDApp_NVUpdate      SYMBOL "ZDApp_NVUpdate"
`??ZDApp_NVUpdate::?relay` SYMBOL "?relay", ZDApp_NVUpdate
ZDP_EPRsp           SYMBOL "ZDP_EPRsp"
`??ZDP_EPRsp::?relay` SYMBOL "?relay", ZDP_EPRsp
ZDP_GenericRsp      SYMBOL "ZDP_GenericRsp"
`??ZDP_GenericRsp::?relay` SYMBOL "?relay", ZDP_GenericRsp
ZDP_MgmtBindRsp     SYMBOL "ZDP_MgmtBindRsp"
`??ZDP_MgmtBindRsp::?relay` SYMBOL "?relay", ZDP_MgmtBindRsp
ZDP_MgmtLqiRsp      SYMBOL "ZDP_MgmtLqiRsp"
`??ZDP_MgmtLqiRsp::?relay` SYMBOL "?relay", ZDP_MgmtLqiRsp
ZDP_MgmtRtgRsp      SYMBOL "ZDP_MgmtRtgRsp"
`??ZDP_MgmtRtgRsp::?relay` SYMBOL "?relay", ZDP_MgmtRtgRsp
ZDP_NodeDescMsg     SYMBOL "ZDP_NodeDescMsg"
`??ZDP_NodeDescMsg::?relay` SYMBOL "?relay", ZDP_NodeDescMsg
ZDP_NwkAddrReq      SYMBOL "ZDP_NwkAddrReq"
`??ZDP_NwkAddrReq::?relay` SYMBOL "?relay", ZDP_NwkAddrReq
ZDP_ParentAnnce     SYMBOL "ZDP_ParentAnnce"
`??ZDP_ParentAnnce::?relay` SYMBOL "?relay", ZDP_ParentAnnce
ZDP_PowerDescMsg    SYMBOL "ZDP_PowerDescMsg"
`??ZDP_PowerDescMsg::?relay` SYMBOL "?relay", ZDP_PowerDescMsg
ZDP_SendData        SYMBOL "ZDP_SendData"
`??ZDP_SendData::?relay` SYMBOL "?relay", ZDP_SendData
ZDP_ServerDiscRsp   SYMBOL "ZDP_ServerDiscRsp"
`??ZDP_ServerDiscRsp::?relay` SYMBOL "?relay", ZDP_ServerDiscRsp
ZDP_SimpleDescMsg   SYMBOL "ZDP_SimpleDescMsg"
`??ZDP_SimpleDescMsg::?relay` SYMBOL "?relay", ZDP_SimpleDescMsg
ZDP_UserDescRsp     SYMBOL "ZDP_UserDescRsp"
`??ZDP_UserDescRsp::?relay` SYMBOL "?relay", ZDP_UserDescRsp
ZDSecMgrPermitJoining SYMBOL "ZDSecMgrPermitJoining"
`??ZDSecMgrPermitJoining::?relay` SYMBOL "?relay", ZDSecMgrPermitJoining
ZMacGetReq          SYMBOL "ZMacGetReq"
`??ZMacGetReq::?relay` SYMBOL "?relay", ZMacGetReq
ZMacSetReq          SYMBOL "ZMacSetReq"
`??ZMacSetReq::?relay` SYMBOL "?relay", ZMacSetReq
afEndPoints         SYMBOL "afEndPoints"
`??afEndPoints::?relay` SYMBOL "?relay", afEndPoints
afFindSimpleDesc    SYMBOL "afFindSimpleDesc"
`??afFindSimpleDesc::?relay` SYMBOL "?relay", afFindSimpleDesc
afNumEndPoints      SYMBOL "afNumEndPoints"
`??afNumEndPoints::?relay` SYMBOL "?relay", afNumEndPoints
bdb_setFN           SYMBOL "bdb_setFN"
`??bdb_setFN::?relay` SYMBOL "?relay", bdb_setFN
nwkNeighborRemove   SYMBOL "nwkNeighborRemove"
`??nwkNeighborRemove::?relay` SYMBOL "?relay", nwkNeighborRemove
nwkNeighborRemoveAllStranded SYMBOL "nwkNeighborRemoveAllStranded"
`??nwkNeighborRemoveAllStranded::?relay` SYMBOL "?relay", nwkNeighborRemoveAllStranded
osal_build_uint32   SYMBOL "osal_build_uint32"
`??osal_build_uint32::?relay` SYMBOL "?relay", osal_build_uint32
osal_mem_alloc      SYMBOL "osal_mem_alloc"
`??osal_mem_alloc::?relay` SYMBOL "?relay", osal_mem_alloc
osal_mem_free       SYMBOL "osal_mem_free"
`??osal_mem_free::?relay` SYMBOL "?relay", osal_mem_free
osal_memcpy         SYMBOL "osal_memcpy"
`??osal_memcpy::?relay` SYMBOL "?relay", osal_memcpy
osal_memset         SYMBOL "osal_memset"
`??osal_memset::?relay` SYMBOL "?relay", osal_memset
osal_msg_allocate   SYMBOL "osal_msg_allocate"
`??osal_msg_allocate::?relay` SYMBOL "?relay", osal_msg_allocate
osal_msg_find       SYMBOL "osal_msg_find"
`??osal_msg_find::?relay` SYMBOL "?relay", osal_msg_find
osal_msg_send       SYMBOL "osal_msg_send"
`??osal_msg_send::?relay` SYMBOL "?relay", osal_msg_send
osal_nv_read        SYMBOL "osal_nv_read"
`??osal_nv_read::?relay` SYMBOL "?relay", osal_nv_read
osal_nv_write       SYMBOL "osal_nv_write"
`??osal_nv_write::?relay` SYMBOL "?relay", osal_nv_write
osal_rand           SYMBOL "osal_rand"
`??osal_rand::?relay` SYMBOL "?relay", osal_rand
osal_set_event      SYMBOL "osal_set_event"
`??osal_set_event::?relay` SYMBOL "?relay", osal_set_event
osal_start_timerEx  SYMBOL "osal_start_timerEx"
`??osal_start_timerEx::?relay` SYMBOL "?relay", osal_start_timerEx
osal_stop_timerEx   SYMBOL "osal_stop_timerEx"
`??osal_stop_timerEx::?relay` SYMBOL "?relay", osal_stop_timerEx
sAddrExtCmp         SYMBOL "sAddrExtCmp"
`??sAddrExtCmp::?relay` SYMBOL "?relay", sAddrExtCmp
sAddrExtCpy         SYMBOL "sAddrExtCpy"
`??sAddrExtCpy::?relay` SYMBOL "?relay", sAddrExtCpy
NLME_PermitJoiningTimeout SYMBOL "NLME_PermitJoiningTimeout"
`??NLME_PermitJoiningTimeout::?relay` SYMBOL "?relay", NLME_PermitJoiningTimeout
ZDO_AnyClusterMatches SYMBOL "ZDO_AnyClusterMatches"
`??ZDO_AnyClusterMatches::?relay` SYMBOL "?relay", ZDO_AnyClusterMatches
ZDO_BuildSimpleDescBuf SYMBOL "ZDO_BuildSimpleDescBuf"
`??ZDO_BuildSimpleDescBuf::?relay` SYMBOL "?relay", ZDO_BuildSimpleDescBuf
ZDO_ConvertOTAClusters SYMBOL "ZDO_ConvertOTAClusters"
`??ZDO_ConvertOTAClusters::?relay` SYMBOL "?relay", ZDO_ConvertOTAClusters
ZDO_EndDeviceTimeoutCB SYMBOL "ZDO_EndDeviceTimeoutCB"
`??ZDO_EndDeviceTimeoutCB::?relay` SYMBOL "?relay", ZDO_EndDeviceTimeoutCB
ZDO_Init            SYMBOL "ZDO_Init"
`??ZDO_Init::?relay` SYMBOL "?relay", ZDO_Init
ZDO_ParseAddrRsp    SYMBOL "ZDO_ParseAddrRsp"
`??ZDO_ParseAddrRsp::?relay` SYMBOL "?relay", ZDO_ParseAddrRsp
ZDO_ParseBindUnbindReq SYMBOL "ZDO_ParseBindUnbindReq"
`??ZDO_ParseBindUnbindReq::?relay` SYMBOL "?relay", ZDO_ParseBindUnbindReq
ZDO_ParseDeviceAnnce SYMBOL "ZDO_ParseDeviceAnnce"
`??ZDO_ParseDeviceAnnce::?relay` SYMBOL "?relay", ZDO_ParseDeviceAnnce
ZDO_ParseEPListRsp  SYMBOL "ZDO_ParseEPListRsp"
`??ZDO_ParseEPListRsp::?relay` SYMBOL "?relay", ZDO_ParseEPListRsp
ZDO_ParseEndDeviceBindReq SYMBOL "ZDO_ParseEndDeviceBindReq"
`??ZDO_ParseEndDeviceBindReq::?relay` SYMBOL "?relay", ZDO_ParseEndDeviceBindReq
ZDO_ParseMgmNwkDiscRsp SYMBOL "ZDO_ParseMgmNwkDiscRsp"
`??ZDO_ParseMgmNwkDiscRsp::?relay` SYMBOL "?relay", ZDO_ParseMgmNwkDiscRsp
ZDO_ParseMgmtBindRsp SYMBOL "ZDO_ParseMgmtBindRsp"
`??ZDO_ParseMgmtBindRsp::?relay` SYMBOL "?relay", ZDO_ParseMgmtBindRsp
ZDO_ParseMgmtLqiRsp SYMBOL "ZDO_ParseMgmtLqiRsp"
`??ZDO_ParseMgmtLqiRsp::?relay` SYMBOL "?relay", ZDO_ParseMgmtLqiRsp
ZDO_ParseMgmtNwkUpdateNotify SYMBOL "ZDO_ParseMgmtNwkUpdateNotify"
`??ZDO_ParseMgmtNwkUpdateNotify::?relay` SYMBOL "?relay", ZDO_ParseMgmtNwkUpdateNotify
ZDO_ParseMgmtNwkUpdateReq SYMBOL "ZDO_ParseMgmtNwkUpdateReq"
`??ZDO_ParseMgmtNwkUpdateReq::?relay` SYMBOL "?relay", ZDO_ParseMgmtNwkUpdateReq
ZDO_ParseMgmtRtgRsp SYMBOL "ZDO_ParseMgmtRtgRsp"
`??ZDO_ParseMgmtRtgRsp::?relay` SYMBOL "?relay", ZDO_ParseMgmtRtgRsp
ZDO_ParseNodeDescRsp SYMBOL "ZDO_ParseNodeDescRsp"
`??ZDO_ParseNodeDescRsp::?relay` SYMBOL "?relay", ZDO_ParseNodeDescRsp
ZDO_ParseParentAnnce SYMBOL "ZDO_ParseParentAnnce"
`??ZDO_ParseParentAnnce::?relay` SYMBOL "?relay", ZDO_ParseParentAnnce
ZDO_ParsePowerDescRsp SYMBOL "ZDO_ParsePowerDescRsp"
`??ZDO_ParsePowerDescRsp::?relay` SYMBOL "?relay", ZDO_ParsePowerDescRsp
ZDO_ParseServerDiscRsp SYMBOL "ZDO_ParseServerDiscRsp"
`??ZDO_ParseServerDiscRsp::?relay` SYMBOL "?relay", ZDO_ParseServerDiscRsp
ZDO_ParseSimpleDescBuf SYMBOL "ZDO_ParseSimpleDescBuf"
`??ZDO_ParseSimpleDescBuf::?relay` SYMBOL "?relay", ZDO_ParseSimpleDescBuf
ZDO_ParseSimpleDescRsp SYMBOL "ZDO_ParseSimpleDescRsp"
`??ZDO_ParseSimpleDescRsp::?relay` SYMBOL "?relay", ZDO_ParseSimpleDescRsp
ZDO_ParseUserDescRsp SYMBOL "ZDO_ParseUserDescRsp"
`??ZDO_ParseUserDescRsp::?relay` SYMBOL "?relay", ZDO_ParseUserDescRsp
ZDO_ProcessActiveEPReq SYMBOL "ZDO_ProcessActiveEPReq"
`??ZDO_ProcessActiveEPReq::?relay` SYMBOL "?relay", ZDO_ProcessActiveEPReq
ZDO_ProcessBindUnbindReq SYMBOL "ZDO_ProcessBindUnbindReq"
`??ZDO_ProcessBindUnbindReq::?relay` SYMBOL "?relay", ZDO_ProcessBindUnbindReq
ZDO_ProcessDeviceAnnce SYMBOL "ZDO_ProcessDeviceAnnce"
`??ZDO_ProcessDeviceAnnce::?relay` SYMBOL "?relay", ZDO_ProcessDeviceAnnce
ZDO_ProcessMatchDescReq SYMBOL "ZDO_ProcessMatchDescReq"
`??ZDO_ProcessMatchDescReq::?relay` SYMBOL "?relay", ZDO_ProcessMatchDescReq
ZDO_ProcessMgmtBindReq SYMBOL "ZDO_ProcessMgmtBindReq"
`??ZDO_ProcessMgmtBindReq::?relay` SYMBOL "?relay", ZDO_ProcessMgmtBindReq
ZDO_ProcessMgmtDirectJoinReq SYMBOL "ZDO_ProcessMgmtDirectJoinReq"
`??ZDO_ProcessMgmtDirectJoinReq::?relay` SYMBOL "?relay", ZDO_ProcessMgmtDirectJoinReq
ZDO_ProcessMgmtLeaveReq SYMBOL "ZDO_ProcessMgmtLeaveReq"
`??ZDO_ProcessMgmtLeaveReq::?relay` SYMBOL "?relay", ZDO_ProcessMgmtLeaveReq
ZDO_ProcessMgmtLqiReq SYMBOL "ZDO_ProcessMgmtLqiReq"
`??ZDO_ProcessMgmtLqiReq::?relay` SYMBOL "?relay", ZDO_ProcessMgmtLqiReq
ZDO_ProcessMgmtNwkDiscReq SYMBOL "ZDO_ProcessMgmtNwkDiscReq"
`??ZDO_ProcessMgmtNwkDiscReq::?relay` SYMBOL "?relay", ZDO_ProcessMgmtNwkDiscReq
ZDO_ProcessMgmtPermitJoinReq SYMBOL "ZDO_ProcessMgmtPermitJoinReq"
`??ZDO_ProcessMgmtPermitJoinReq::?relay` SYMBOL "?relay", ZDO_ProcessMgmtPermitJoinReq
ZDO_ProcessMgmtRtgReq SYMBOL "ZDO_ProcessMgmtRtgReq"
`??ZDO_ProcessMgmtRtgReq::?relay` SYMBOL "?relay", ZDO_ProcessMgmtRtgReq
ZDO_ProcessNodeDescReq SYMBOL "ZDO_ProcessNodeDescReq"
`??ZDO_ProcessNodeDescReq::?relay` SYMBOL "?relay", ZDO_ProcessNodeDescReq
ZDO_ProcessNodeDescRsp SYMBOL "ZDO_ProcessNodeDescRsp"
`??ZDO_ProcessNodeDescRsp::?relay` SYMBOL "?relay", ZDO_ProcessNodeDescRsp
ZDO_ProcessParentAnnce SYMBOL "ZDO_ProcessParentAnnce"
`??ZDO_ProcessParentAnnce::?relay` SYMBOL "?relay", ZDO_ProcessParentAnnce
ZDO_ProcessParentAnnceRsp SYMBOL "ZDO_ProcessParentAnnceRsp"
`??ZDO_ProcessParentAnnceRsp::?relay` SYMBOL "?relay", ZDO_ProcessParentAnnceRsp
ZDO_ProcessPowerDescReq SYMBOL "ZDO_ProcessPowerDescReq"
`??ZDO_ProcessPowerDescReq::?relay` SYMBOL "?relay", ZDO_ProcessPowerDescReq
ZDO_ProcessServerDiscReq SYMBOL "ZDO_ProcessServerDiscReq"
`??ZDO_ProcessServerDiscReq::?relay` SYMBOL "?relay", ZDO_ProcessServerDiscReq
ZDO_ProcessSimpleDescReq SYMBOL "ZDO_ProcessSimpleDescReq"
`??ZDO_ProcessSimpleDescReq::?relay` SYMBOL "?relay", ZDO_ProcessSimpleDescReq
ZDO_ProcessSimpleDescRsp SYMBOL "ZDO_ProcessSimpleDescRsp"
`??ZDO_ProcessSimpleDescRsp::?relay` SYMBOL "?relay", ZDO_ProcessSimpleDescRsp
ZDO_ProcessUserDescReq SYMBOL "ZDO_ProcessUserDescReq"
`??ZDO_ProcessUserDescReq::?relay` SYMBOL "?relay", ZDO_ProcessUserDescReq
ZDO_ProcessUserDescSet SYMBOL "ZDO_ProcessUserDescSet"
`??ZDO_ProcessUserDescSet::?relay` SYMBOL "?relay", ZDO_ProcessUserDescSet
ZDO_StartDevice     SYMBOL "ZDO_StartDevice"
`??ZDO_StartDevice::?relay` SYMBOL "?relay", ZDO_StartDevice
ZDO_UpdateAddrManager SYMBOL "ZDO_UpdateAddrManager"
`??ZDO_UpdateAddrManager::?relay` SYMBOL "?relay", ZDO_UpdateAddrManager
ZDO_UpdateNwkStatus SYMBOL "ZDO_UpdateNwkStatus"
`??ZDO_UpdateNwkStatus::?relay` SYMBOL "?relay", ZDO_UpdateNwkStatus

        EXTERN `??APSME_BindRequest::?relay`
        FUNCTION `??APSME_BindRequest::?relay`,00H
        EXTERN `??APSME_GetRequest::?relay`
        FUNCTION `??APSME_GetRequest::?relay`,00H
        EXTERN `??APSME_IsDistributedSecurity::?relay`
        FUNCTION `??APSME_IsDistributedSecurity::?relay`,00H
        EXTERN `??APSME_LookupNwkAddr::?relay`
        FUNCTION `??APSME_LookupNwkAddr::?relay`,00H
        EXTERN `??APSME_UnBindRequest::?relay`
        FUNCTION `??APSME_UnBindRequest::?relay`,00H
        EXTERN `??APS_ReflectorInit::?relay`
        FUNCTION `??APS_ReflectorInit::?relay`,00H
        EXTERN `??AddrMgrEntryLookupExt::?relay`
        FUNCTION `??AddrMgrEntryLookupExt::?relay`,00H
        EXTERN `??AddrMgrEntryLookupNwk::?relay`
        FUNCTION `??AddrMgrEntryLookupNwk::?relay`,00H
        EXTERN `??AddrMgrEntryUpdate::?relay`
        FUNCTION `??AddrMgrEntryUpdate::?relay`,00H
        EXTERN `??AddrMgrExtAddrSet::?relay`
        FUNCTION `??AddrMgrExtAddrSet::?relay`,00H
        EXTERN `??AddrMgrExtAddrValid::?relay`
        FUNCTION `??AddrMgrExtAddrValid::?relay`,00H
        EXTERN `??AssocCount::?relay`
        FUNCTION `??AssocCount::?relay`,00H
        EXTERN `??AssocFindDevice::?relay`
        FUNCTION `??AssocFindDevice::?relay`,00H
        EXTERN `??AssocGetWithExt::?relay`
        FUNCTION `??AssocGetWithExt::?relay`,00H
        EXTERN `??AssocRemove::?relay`
        FUNCTION `??AssocRemove::?relay`,00H
        EXTERN `??HalLcdWriteScreen::?relay`
        FUNCTION `??HalLcdWriteScreen::?relay`,00H
        EXTERN `??HalLcdWriteString::?relay`
        FUNCTION `??HalLcdWriteString::?relay`,00H
        EXTERN `??NLME_CheckNewAddrSet::?relay`
        FUNCTION `??NLME_CheckNewAddrSet::?relay`,00H
        EXTERN `??NLME_DeviceJoiningInit::?relay`
        FUNCTION `??NLME_DeviceJoiningInit::?relay`,00H
        EXTERN `??NLME_DirectJoinRequest::?relay`
        FUNCTION `??NLME_DirectJoinRequest::?relay`,00H
        EXTERN `??NLME_GetCoordExtAddr::?relay`
        FUNCTION `??NLME_GetCoordExtAddr::?relay`,00H
        EXTERN `??NLME_GetCoordShortAddr::?relay`
        FUNCTION `??NLME_GetCoordShortAddr::?relay`,00H
        EXTERN `??NLME_GetExtAddr::?relay`
        FUNCTION `??NLME_GetExtAddr::?relay`,00H
        EXTERN `??NLME_GetRequest::?relay`
        FUNCTION `??NLME_GetRequest::?relay`,00H
        EXTERN `??NLME_GetShortAddr::?relay`
        FUNCTION `??NLME_GetShortAddr::?relay`,00H
        EXTERN `??NLME_IsAddressBroadcast::?relay`
        FUNCTION `??NLME_IsAddressBroadcast::?relay`,00H
        EXTERN `??NLME_JoinConfirm::?relay`
        FUNCTION `??NLME_JoinConfirm::?relay`,00H
        EXTERN `??NLME_LeaveReq::?relay`
        FUNCTION `??NLME_LeaveReq::?relay`,00H
        EXTERN `??NLME_NetworkDiscoveryRequest::?relay`
        FUNCTION `??NLME_NetworkDiscoveryRequest::?relay`,00H
        EXTERN `??NLME_NetworkFormationRequest::?relay`
        FUNCTION `??NLME_NetworkFormationRequest::?relay`,00H
        EXTERN `??NLME_NwkDiscReq2::?relay`
        FUNCTION `??NLME_NwkDiscReq2::?relay`,00H
        EXTERN `??NLME_NwkDiscTerm::?relay`
        FUNCTION `??NLME_NwkDiscTerm::?relay`,00H
        EXTERN `??NLME_OrphanJoinRequest::?relay`
        FUNCTION `??NLME_OrphanJoinRequest::?relay`,00H
        EXTERN `??NLME_PermitJoiningRequest::?relay`
        FUNCTION `??NLME_PermitJoiningRequest::?relay`,00H
        EXTERN `??NLME_SetPollRate::?relay`
        FUNCTION `??NLME_SetPollRate::?relay`,00H
        EXTERN `??NLME_SetQueuedPollRate::?relay`
        FUNCTION `??NLME_SetQueuedPollRate::?relay`,00H
        EXTERN `??NLME_SetResponseRate::?relay`
        FUNCTION `??NLME_SetResponseRate::?relay`,00H
        EXTERN `??RTG_RemoveRtgEntry::?relay`
        FUNCTION `??RTG_RemoveRtgEntry::?relay`,00H
        EXTERN `??ZDApp_ChangeState::?relay`
        FUNCTION `??ZDApp_ChangeState::?relay`,00H
        EXTERN `??ZDApp_NVUpdate::?relay`
        FUNCTION `??ZDApp_NVUpdate::?relay`,00H
        EXTERN `??ZDP_EPRsp::?relay`
        FUNCTION `??ZDP_EPRsp::?relay`,00H
        EXTERN `??ZDP_GenericRsp::?relay`
        FUNCTION `??ZDP_GenericRsp::?relay`,00H
        EXTERN `??ZDP_MgmtBindRsp::?relay`
        FUNCTION `??ZDP_MgmtBindRsp::?relay`,00H
        EXTERN `??ZDP_MgmtLqiRsp::?relay`
        FUNCTION `??ZDP_MgmtLqiRsp::?relay`,00H
        EXTERN `??ZDP_MgmtRtgRsp::?relay`
        FUNCTION `??ZDP_MgmtRtgRsp::?relay`,00H
        EXTERN `??ZDP_NodeDescMsg::?relay`
        FUNCTION `??ZDP_NodeDescMsg::?relay`,00H
        EXTERN `??ZDP_NwkAddrReq::?relay`
        FUNCTION `??ZDP_NwkAddrReq::?relay`,00H
        EXTERN `??ZDP_ParentAnnce::?relay`
        FUNCTION `??ZDP_ParentAnnce::?relay`,00H
        EXTERN `??ZDP_PowerDescMsg::?relay`
        FUNCTION `??ZDP_PowerDescMsg::?relay`,00H
        EXTERN `??ZDP_SendData::?relay`
        FUNCTION `??ZDP_SendData::?relay`,00H
        EXTERN `??ZDP_ServerDiscRsp::?relay`
        FUNCTION `??ZDP_ServerDiscRsp::?relay`,00H
        EXTERN `??ZDP_SimpleDescMsg::?relay`
        FUNCTION `??ZDP_SimpleDescMsg::?relay`,00H
        EXTERN `??ZDP_UserDescRsp::?relay`
        FUNCTION `??ZDP_UserDescRsp::?relay`,00H
        EXTERN `??ZDSecMgrPermitJoining::?relay`
        FUNCTION `??ZDSecMgrPermitJoining::?relay`,00H
        EXTERN `??ZMacGetReq::?relay`
        FUNCTION `??ZMacGetReq::?relay`,00H
        EXTERN `??ZMacSetReq::?relay`
        FUNCTION `??ZMacSetReq::?relay`,00H
        EXTERN `??afEndPoints::?relay`
        FUNCTION `??afEndPoints::?relay`,00H
        EXTERN `??afFindSimpleDesc::?relay`
        FUNCTION `??afFindSimpleDesc::?relay`,00H
        EXTERN `??afNumEndPoints::?relay`
        FUNCTION `??afNumEndPoints::?relay`,00H
        EXTERN `??bdb_setFN::?relay`
        FUNCTION `??bdb_setFN::?relay`,00H
        EXTERN `??nwkNeighborRemove::?relay`
        FUNCTION `??nwkNeighborRemove::?relay`,00H
        EXTERN `??nwkNeighborRemoveAllStranded::?relay`
        FUNCTION `??nwkNeighborRemoveAllStranded::?relay`,00H
        EXTERN `??osal_build_uint32::?relay`
        FUNCTION `??osal_build_uint32::?relay`,00H
        EXTERN `??osal_mem_alloc::?relay`
        FUNCTION `??osal_mem_alloc::?relay`,00H
        EXTERN `??osal_mem_free::?relay`
        FUNCTION `??osal_mem_free::?relay`,00H
        EXTERN `??osal_memcpy::?relay`
        FUNCTION `??osal_memcpy::?relay`,00H
        EXTERN `??osal_memset::?relay`
        FUNCTION `??osal_memset::?relay`,00H
        EXTERN `??osal_msg_allocate::?relay`
        FUNCTION `??osal_msg_allocate::?relay`,00H
        EXTERN `??osal_msg_find::?relay`
        FUNCTION `??osal_msg_find::?relay`,00H
        EXTERN `??osal_msg_send::?relay`
        FUNCTION `??osal_msg_send::?relay`,00H
        EXTERN `??osal_nv_read::?relay`
        FUNCTION `??osal_nv_read::?relay`,00H
        EXTERN `??osal_nv_write::?relay`
        FUNCTION `??osal_nv_write::?relay`,00H
        EXTERN `??osal_rand::?relay`
        FUNCTION `??osal_rand::?relay`,00H
        EXTERN `??osal_set_event::?relay`
        FUNCTION `??osal_set_event::?relay`,00H
        EXTERN `??osal_start_timerEx::?relay`
        FUNCTION `??osal_start_timerEx::?relay`,00H
        EXTERN `??osal_stop_timerEx::?relay`
        FUNCTION `??osal_stop_timerEx::?relay`,00H
        EXTERN `??sAddrExtCmp::?relay`
        FUNCTION `??sAddrExtCmp::?relay`,00H
        EXTERN `??sAddrExtCpy::?relay`
        FUNCTION `??sAddrExtCpy::?relay`,00H
        EXTERN AIB_apsUseExtendedPANID
        EXTERN APSME_BindRequest
        FUNCTION APSME_BindRequest,0202H
        ARGFRAME ISTACK, 0, STACK
        ARGFRAME PSTACK, 0, STACK
        ARGFRAME XSTACK, 25, STACK
        ARGFRAME IOVERLAY, 0, STATIC
        ARGFRAME DOVERLAY, 0, STATIC
        EXTERN APSME_GetRequest
        FUNCTION APSME_GetRequest,0202H
        ARGFRAME ISTACK, 0, STACK
        ARGFRAME PSTACK, 0, STACK
        ARGFRAME XSTACK, 22, STACK
        ARGFRAME IOVERLAY, 0, STATIC
        ARGFRAME DOVERLAY, 0, STATIC
        EXTERN APSME_IsDistributedSecurity
        FUNCTION APSME_IsDistributedSecurity,0202H
        ARGFRAME ISTACK, 0, STACK
        ARGFRAME PSTACK, 0, STACK
        ARGFRAME XSTACK, 18, STACK
        ARGFRAME IOVERLAY, 0, STATIC
        ARGFRAME DOVERLAY, 0, STATIC
        EXTERN APSME_LookupNwkAddr
        FUNCTION APSME_LookupNwkAddr,0202H
        ARGFRAME ISTACK, 0, STACK
        ARGFRAME PSTACK, 0, STACK
        ARGFRAME XSTACK, 24, STACK
        ARGFRAME IOVERLAY, 0, STATIC
        ARGFRAME DOVERLAY, 0, STATIC
        EXTERN APSME_UnBindRequest
        FUNCTION APSME_UnBindRequest,0202H
        ARGFRAME ISTACK, 0, STACK
        ARGFRAME PSTACK, 0, STACK
        ARGFRAME XSTACK, 25, STACK
        ARGFRAME IOVERLAY, 0, STATIC
        ARGFRAME DOVERLAY, 0, STATIC
        EXTERN APS_ReflectorInit
        FUNCTION APS_ReflectorInit,0202H
        ARGFRAME ISTACK, 2, STACK
        ARGFRAME PSTACK, 0, STACK
        ARGFRAME XSTACK, 0, STACK
        ARGFRAME IOVERLAY, 0, STATIC
        ARGFRAME DOVERLAY, 0, STATIC
        EXTERN AddrMgrEntryLookupExt
        FUNCTION AddrMgrEntryLookupExt,0202H
        ARGFRAME ISTACK, 0, STACK
        ARGFRAME PSTACK, 0, STACK
        ARGFRAME XSTACK, 42, STACK
        ARGFRAME IOVERLAY, 0, STATIC
        ARGFRAME DOVERLAY, 0, STATIC
        EXTERN AddrMgrEntryLookupNwk
        FUNCTION AddrMgrEntryLookupNwk,0202H
        ARGFRAME ISTACK, 0, STACK
        ARGFRAME PSTACK, 0, STACK
        ARGFRAME XSTACK, 59, STACK
        ARGFRAME IOVERLAY, 0, STATIC
        ARGFRAME DOVERLAY, 0, STATIC
        EXTERN AddrMgrEntryUpdate
        FUNCTION AddrMgrEntryUpdate,0202H
        ARGFRAME ISTACK, 0, STACK
        ARGFRAME PSTACK, 0, STACK
        ARGFRAME XSTACK, 42, STACK
        ARGFRAME IOVERLAY, 0, STATIC
        ARGFRAME DOVERLAY, 0, STATIC
        EXTERN AddrMgrExtAddrSet
        FUNCTION AddrMgrExtAddrSet,0202H
        ARGFRAME ISTACK, 0, STACK
        ARGFRAME PSTACK, 0, STACK
        ARGFRAME XSTACK, 42, STACK
        ARGFRAME IOVERLAY, 0, STATIC
        ARGFRAME DOVERLAY, 0, STATIC
        EXTERN AddrMgrExtAddrValid
        FUNCTION AddrMgrExtAddrValid,0202H
        ARGFRAME ISTACK, 0, STACK
        ARGFRAME PSTACK, 0, STACK
        ARGFRAME XSTACK, 20, STACK
        ARGFRAME IOVERLAY, 0, STATIC
        ARGFRAME DOVERLAY, 0, STATIC
        EXTERN AssocCount
        FUNCTION AssocCount,0202H
        ARGFRAME ISTACK, 0, STACK
        ARGFRAME PSTACK, 0, STACK
        ARGFRAME XSTACK, 59, STACK
        ARGFRAME IOVERLAY, 0, STATIC
        ARGFRAME DOVERLAY, 0, STATIC
        EXTERN AssocFindDevice
        FUNCTION AssocFindDevice,0202H
        ARGFRAME ISTACK, 0, STACK
        ARGFRAME PSTACK, 0, STACK
        ARGFRAME XSTACK, 59, STACK
        ARGFRAME IOVERLAY, 0, STATIC
        ARGFRAME DOVERLAY, 0, STATIC
        EXTERN AssocGetWithExt
        FUNCTION AssocGetWithExt,0202H
        ARGFRAME ISTACK, 0, STACK
        ARGFRAME PSTACK, 0, STACK
        ARGFRAME XSTACK, 31, STACK
        ARGFRAME IOVERLAY, 0, STATIC
        ARGFRAME DOVERLAY, 0, STATIC
        EXTERN AssocRemove
        FUNCTION AssocRemove,0202H
        ARGFRAME ISTACK, 0, STACK
        ARGFRAME PSTACK, 0, STACK
        ARGFRAME XSTACK, 16, STACK
        ARGFRAME IOVERLAY, 0, STATIC
        ARGFRAME DOVERLAY, 0, STATIC
        EXTERN HalLcdWriteScreen
        FUNCTION HalLcdWriteScreen,0202H
        ARGFRAME ISTACK, 0, STACK
        ARGFRAME PSTACK, 0, STACK
        ARGFRAME XSTACK, 34, STACK
        ARGFRAME IOVERLAY, 0, STATIC
        ARGFRAME DOVERLAY, 0, STATIC
        EXTERN HalLcdWriteString
        FUNCTION HalLcdWriteString,0202H
        ARGFRAME ISTACK, 0, STACK
        ARGFRAME PSTACK, 0, STACK
        ARGFRAME XSTACK, 14, STACK
        ARGFRAME IOVERLAY, 0, STATIC
        ARGFRAME DOVERLAY, 0, STATIC
        EXTERN NLME_CheckNewAddrSet
        FUNCTION NLME_CheckNewAddrSet,0202H
        ARGFRAME ISTACK, 0, STACK
        ARGFRAME PSTACK, 0, STACK
        ARGFRAME XSTACK, 42, STACK
        ARGFRAME IOVERLAY, 0, STATIC
        ARGFRAME DOVERLAY, 0, STATIC
        EXTERN NLME_DeviceJoiningInit
        FUNCTION NLME_DeviceJoiningInit,0202H
        ARGFRAME ISTACK, 2, STACK
        ARGFRAME PSTACK, 0, STACK
        ARGFRAME XSTACK, 0, STACK
        ARGFRAME IOVERLAY, 0, STATIC
        ARGFRAME DOVERLAY, 0, STATIC
        EXTERN NLME_DirectJoinRequest
        FUNCTION NLME_DirectJoinRequest,0202H
        ARGFRAME ISTACK, 0, STACK
        ARGFRAME PSTACK, 0, STACK
        ARGFRAME XSTACK, 15, STACK
        ARGFRAME IOVERLAY, 0, STATIC
        ARGFRAME DOVERLAY, 0, STATIC
        EXTERN NLME_GetCoordExtAddr
        FUNCTION NLME_GetCoordExtAddr,0202H
        ARGFRAME ISTACK, 0, STACK
        ARGFRAME PSTACK, 0, STACK
        ARGFRAME XSTACK, 42, STACK
        ARGFRAME IOVERLAY, 0, STATIC
        ARGFRAME DOVERLAY, 0, STATIC
        EXTERN NLME_GetCoordShortAddr
        FUNCTION NLME_GetCoordShortAddr,0202H
        ARGFRAME ISTACK, 0, STACK
        ARGFRAME PSTACK, 0, STACK
        ARGFRAME XSTACK, 42, STACK
        ARGFRAME IOVERLAY, 0, STATIC
        ARGFRAME DOVERLAY, 0, STATIC
        EXTERN NLME_GetExtAddr
        FUNCTION NLME_GetExtAddr,0202H
        ARGFRAME ISTACK, 0, STACK
        ARGFRAME PSTACK, 0, STACK
        ARGFRAME XSTACK, 42, STACK
        ARGFRAME IOVERLAY, 0, STATIC
        ARGFRAME DOVERLAY, 0, STATIC
        EXTERN NLME_GetRequest
        FUNCTION NLME_GetRequest,0202H
        ARGFRAME ISTACK, 0, STACK
        ARGFRAME PSTACK, 0, STACK
        ARGFRAME XSTACK, 59, STACK
        ARGFRAME IOVERLAY, 0, STATIC
        ARGFRAME DOVERLAY, 0, STATIC
        EXTERN NLME_GetShortAddr
        FUNCTION NLME_GetShortAddr,0202H
        ARGFRAME ISTACK, 0, STACK
        ARGFRAME PSTACK, 0, STACK
        ARGFRAME XSTACK, 42, STACK
        ARGFRAME IOVERLAY, 0, STATIC
        ARGFRAME DOVERLAY, 0, STATIC
        EXTERN NLME_IsAddressBroadcast
        FUNCTION NLME_IsAddressBroadcast,0202H
        ARGFRAME ISTACK, 0, STACK
        ARGFRAME PSTACK, 0, STACK
        ARGFRAME XSTACK, 34, STACK
        ARGFRAME IOVERLAY, 0, STATIC
        ARGFRAME DOVERLAY, 0, STATIC
        EXTERN NLME_JoinConfirm
        FUNCTION NLME_JoinConfirm,0202H
        ARGFRAME ISTACK, 0, STACK
        ARGFRAME PSTACK, 0, STACK
        ARGFRAME XSTACK, 18, STACK
        ARGFRAME IOVERLAY, 0, STATIC
        ARGFRAME DOVERLAY, 0, STATIC
        EXTERN NLME_LeaveReq
        FUNCTION NLME_LeaveReq,0202H
        ARGFRAME ISTACK, 0, STACK
        ARGFRAME PSTACK, 0, STACK
        ARGFRAME XSTACK, 20, STACK
        ARGFRAME IOVERLAY, 0, STATIC
        ARGFRAME DOVERLAY, 0, STATIC
        EXTERN NLME_NetworkDiscoveryRequest
        FUNCTION NLME_NetworkDiscoveryRequest,0202H
        ARGFRAME ISTACK, 0, STACK
        ARGFRAME PSTACK, 0, STACK
        ARGFRAME XSTACK, 18, STACK
        ARGFRAME IOVERLAY, 0, STATIC
        ARGFRAME DOVERLAY, 0, STATIC
        EXTERN NLME_NetworkFormationRequest
        FUNCTION NLME_NetworkFormationRequest,0202H
        ARGFRAME ISTACK, 0, STACK
        ARGFRAME PSTACK, 0, STACK
        ARGFRAME XSTACK, 28, STACK
        ARGFRAME IOVERLAY, 0, STATIC
        ARGFRAME DOVERLAY, 0, STATIC
        EXTERN NLME_NwkDiscReq2
        FUNCTION NLME_NwkDiscReq2,0202H
        ARGFRAME ISTACK, 0, STACK
        ARGFRAME PSTACK, 0, STACK
        ARGFRAME XSTACK, 18, STACK
        ARGFRAME IOVERLAY, 0, STATIC
        ARGFRAME DOVERLAY, 0, STATIC
        EXTERN NLME_NwkDiscTerm
        FUNCTION NLME_NwkDiscTerm,0202H
        ARGFRAME ISTACK, 0, STACK
        ARGFRAME PSTACK, 0, STACK
        ARGFRAME XSTACK, 18, STACK
        ARGFRAME IOVERLAY, 0, STATIC
        ARGFRAME DOVERLAY, 0, STATIC
        EXTERN NLME_OrphanJoinRequest
        FUNCTION NLME_OrphanJoinRequest,0202H
        ARGFRAME ISTACK, 0, STACK
        ARGFRAME PSTACK, 0, STACK
        ARGFRAME XSTACK, 18, STACK
        ARGFRAME IOVERLAY, 0, STATIC
        ARGFRAME DOVERLAY, 0, STATIC
        EXTERN NLME_PermitJoiningRequest
        FUNCTION NLME_PermitJoiningRequest,0202H
        ARGFRAME ISTACK, 0, STACK
        ARGFRAME PSTACK, 0, STACK
        ARGFRAME XSTACK, 13, STACK
        ARGFRAME IOVERLAY, 0, STATIC
        ARGFRAME DOVERLAY, 0, STATIC
        EXTERN NLME_SetPollRate
        FUNCTION NLME_SetPollRate,0202H
        ARGFRAME ISTACK, 0, STACK
        ARGFRAME PSTACK, 0, STACK
        ARGFRAME XSTACK, 20, STACK
        ARGFRAME IOVERLAY, 0, STATIC
        ARGFRAME DOVERLAY, 0, STATIC
        EXTERN NLME_SetQueuedPollRate
        FUNCTION NLME_SetQueuedPollRate,0202H
        ARGFRAME ISTACK, 0, STACK
        ARGFRAME PSTACK, 0, STACK
        ARGFRAME XSTACK, 20, STACK
        ARGFRAME IOVERLAY, 0, STATIC
        ARGFRAME DOVERLAY, 0, STATIC
        EXTERN NLME_SetResponseRate
        FUNCTION NLME_SetResponseRate,0202H
        ARGFRAME ISTACK, 0, STACK
        ARGFRAME PSTACK, 0, STACK
        ARGFRAME XSTACK, 20, STACK
        ARGFRAME IOVERLAY, 0, STATIC
        ARGFRAME DOVERLAY, 0, STATIC
        EXTERN NWK_TaskID
        EXTERN RTG_RemoveRtgEntry
        FUNCTION RTG_RemoveRtgEntry,0202H
        ARGFRAME ISTACK, 0, STACK
        ARGFRAME PSTACK, 0, STACK
        ARGFRAME XSTACK, 42, STACK
        ARGFRAME IOVERLAY, 0, STATIC
        ARGFRAME DOVERLAY, 0, STATIC
        EXTERN ZDAppNwkAddr
        EXTERN ZDAppTaskID
        EXTERN ZDApp_ChangeState
        FUNCTION ZDApp_ChangeState,0202H
        ARGFRAME ISTACK, 0, STACK
        ARGFRAME PSTACK, 0, STACK
        ARGFRAME XSTACK, 18, STACK
        ARGFRAME IOVERLAY, 0, STATIC
        ARGFRAME DOVERLAY, 0, STATIC
        EXTERN ZDApp_NVUpdate
        FUNCTION ZDApp_NVUpdate,0202H
        ARGFRAME ISTACK, 0, STACK
        ARGFRAME PSTACK, 0, STACK
        ARGFRAME XSTACK, 24, STACK
        ARGFRAME IOVERLAY, 0, STATIC
        ARGFRAME DOVERLAY, 0, STATIC
        EXTERN ZDO_Config_Node_Descriptor
        EXTERN ZDO_Config_Power_Descriptor
        EXTERN ZDO_UseExtendedPANID
        EXTERN ZDP_EPRsp
        FUNCTION ZDP_EPRsp,0202H
        ARGFRAME ISTACK, 0, STACK
        ARGFRAME PSTACK, 0, STACK
        ARGFRAME XSTACK, 41, STACK
        ARGFRAME IOVERLAY, 0, STATIC
        ARGFRAME DOVERLAY, 0, STATIC
        EXTERN ZDP_GenericRsp
        FUNCTION ZDP_GenericRsp,0202H
        ARGFRAME ISTACK, 0, STACK
        ARGFRAME PSTACK, 0, STACK
        ARGFRAME XSTACK, 33, STACK
        ARGFRAME IOVERLAY, 0, STATIC
        ARGFRAME DOVERLAY, 0, STATIC
        EXTERN ZDP_MgmtBindRsp
        FUNCTION ZDP_MgmtBindRsp,0202H
        ARGFRAME ISTACK, 0, STACK
        ARGFRAME PSTACK, 0, STACK
        ARGFRAME XSTACK, 27, STACK
        ARGFRAME IOVERLAY, 0, STATIC
        ARGFRAME DOVERLAY, 0, STATIC
        EXTERN ZDP_MgmtLqiRsp
        FUNCTION ZDP_MgmtLqiRsp,0202H
        ARGFRAME ISTACK, 0, STACK
        ARGFRAME PSTACK, 0, STACK
        ARGFRAME XSTACK, 64, STACK
        ARGFRAME IOVERLAY, 0, STATIC
        ARGFRAME DOVERLAY, 0, STATIC
        EXTERN ZDP_MgmtRtgRsp
        FUNCTION ZDP_MgmtRtgRsp,0202H
        ARGFRAME ISTACK, 0, STACK
        ARGFRAME PSTACK, 0, STACK
        ARGFRAME XSTACK, 24, STACK
        ARGFRAME IOVERLAY, 0, STATIC
        ARGFRAME DOVERLAY, 0, STATIC
        EXTERN ZDP_NodeDescMsg
        FUNCTION ZDP_NodeDescMsg,0202H
        ARGFRAME ISTACK, 0, STACK
        ARGFRAME PSTACK, 0, STACK
        ARGFRAME XSTACK, 16, STACK
        ARGFRAME IOVERLAY, 0, STATIC
        ARGFRAME DOVERLAY, 0, STATIC
        EXTERN ZDP_NwkAddrReq
        FUNCTION ZDP_NwkAddrReq,0202H
        ARGFRAME ISTACK, 0, STACK
        ARGFRAME PSTACK, 0, STACK
        ARGFRAME XSTACK, 24, STACK
        ARGFRAME IOVERLAY, 0, STATIC
        ARGFRAME DOVERLAY, 0, STATIC
        EXTERN ZDP_ParentAnnce
        FUNCTION ZDP_ParentAnnce,0202H
        ARGFRAME ISTACK, 0, STACK
        ARGFRAME PSTACK, 0, STACK
        ARGFRAME XSTACK, 36, STACK
        ARGFRAME IOVERLAY, 0, STATIC
        ARGFRAME DOVERLAY, 0, STATIC
        EXTERN ZDP_PowerDescMsg
        FUNCTION ZDP_PowerDescMsg,0202H
        ARGFRAME ISTACK, 0, STACK
        ARGFRAME PSTACK, 0, STACK
        ARGFRAME XSTACK, 16, STACK
        ARGFRAME IOVERLAY, 0, STATIC
        ARGFRAME DOVERLAY, 0, STATIC
        EXTERN ZDP_SendData
        FUNCTION ZDP_SendData,0202H
        ARGFRAME ISTACK, 0, STACK
        ARGFRAME PSTACK, 0, STACK
        ARGFRAME XSTACK, 44, STACK
        ARGFRAME IOVERLAY, 0, STATIC
        ARGFRAME DOVERLAY, 0, STATIC
        EXTERN ZDP_ServerDiscRsp
        FUNCTION ZDP_ServerDiscRsp,0202H
        ARGFRAME ISTACK, 0, STACK
        ARGFRAME PSTACK, 0, STACK
        ARGFRAME XSTACK, 16, STACK
        ARGFRAME IOVERLAY, 0, STATIC
        ARGFRAME DOVERLAY, 0, STATIC
        EXTERN ZDP_SimpleDescMsg
        FUNCTION ZDP_SimpleDescMsg,0202H
        ARGFRAME ISTACK, 0, STACK
        ARGFRAME PSTACK, 0, STACK
        ARGFRAME XSTACK, 15, STACK
        ARGFRAME IOVERLAY, 0, STATIC
        ARGFRAME DOVERLAY, 0, STATIC
        EXTERN ZDP_UserDescRsp
        FUNCTION ZDP_UserDescRsp,0202H
        ARGFRAME ISTACK, 0, STACK
        ARGFRAME PSTACK, 0, STACK
        ARGFRAME XSTACK, 32, STACK
        ARGFRAME IOVERLAY, 0, STATIC
        ARGFRAME DOVERLAY, 0, STATIC
        EXTERN ZDSecMgrPermitJoining
        FUNCTION ZDSecMgrPermitJoining,0202H
        ARGFRAME ISTACK, 0, STACK
        ARGFRAME PSTACK, 0, STACK
        ARGFRAME XSTACK, 13, STACK
        ARGFRAME IOVERLAY, 0, STATIC
        ARGFRAME DOVERLAY, 0, STATIC
        EXTERN ZMacGetReq
        FUNCTION ZMacGetReq,0202H
        ARGFRAME ISTACK, 0, STACK
        ARGFRAME PSTACK, 0, STACK
        ARGFRAME XSTACK, 18, STACK
        ARGFRAME IOVERLAY, 0, STATIC
        ARGFRAME DOVERLAY, 0, STATIC
        EXTERN ZMacSetReq
        FUNCTION ZMacSetReq,0202H
        ARGFRAME ISTACK, 0, STACK
        ARGFRAME PSTACK, 0, STACK
        ARGFRAME XSTACK, 42, STACK
        ARGFRAME IOVERLAY, 0, STATIC
        ARGFRAME DOVERLAY, 0, STATIC
        EXTERN _NIB
        EXTERN afEndPoints
        FUNCTION afEndPoints,0202H
        ARGFRAME ISTACK, 0, STACK
        ARGFRAME PSTACK, 0, STACK
        ARGFRAME XSTACK, 14, STACK
        ARGFRAME IOVERLAY, 0, STATIC
        ARGFRAME DOVERLAY, 0, STATIC
        EXTERN afFindSimpleDesc
        FUNCTION afFindSimpleDesc,0202H
        ARGFRAME ISTACK, 0, STACK
        ARGFRAME PSTACK, 0, STACK
        ARGFRAME XSTACK, 15, STACK
        ARGFRAME IOVERLAY, 0, STATIC
        ARGFRAME DOVERLAY, 0, STATIC
        EXTERN afNumEndPoints
        FUNCTION afNumEndPoints,0202H
        ARGFRAME ISTACK, 0, STACK
        ARGFRAME PSTACK, 0, STACK
        ARGFRAME XSTACK, 14, STACK
        ARGFRAME IOVERLAY, 0, STATIC
        ARGFRAME DOVERLAY, 0, STATIC
        EXTERN bdbAttributes
        EXTERN bdb_setFN
        FUNCTION bdb_setFN,0202H
        ARGFRAME ISTACK, 0, STACK
        ARGFRAME PSTACK, 0, STACK
        ARGFRAME XSTACK, 20, STACK
        ARGFRAME IOVERLAY, 0, STATIC
        ARGFRAME DOVERLAY, 0, STATIC
        EXTERN epList
        EXTERN nwkNeighborRemove
        FUNCTION nwkNeighborRemove,0202H
        ARGFRAME ISTACK, 0, STACK
        ARGFRAME PSTACK, 0, STACK
        ARGFRAME XSTACK, 42, STACK
        ARGFRAME IOVERLAY, 0, STATIC
        ARGFRAME DOVERLAY, 0, STATIC
        EXTERN nwkNeighborRemoveAllStranded
        FUNCTION nwkNeighborRemoveAllStranded,0202H
        ARGFRAME ISTACK, 0, STACK
        ARGFRAME PSTACK, 0, STACK
        ARGFRAME XSTACK, 42, STACK
        ARGFRAME IOVERLAY, 0, STATIC
        ARGFRAME DOVERLAY, 0, STATIC
        EXTERN osal_build_uint32
        FUNCTION osal_build_uint32,0202H
        ARGFRAME ISTACK, 0, STACK
        ARGFRAME PSTACK, 0, STACK
        ARGFRAME XSTACK, 26, STACK
        ARGFRAME IOVERLAY, 0, STATIC
        ARGFRAME DOVERLAY, 0, STATIC
        EXTERN osal_mem_alloc
        FUNCTION osal_mem_alloc,0202H
        ARGFRAME ISTACK, 0, STACK
        ARGFRAME PSTACK, 0, STACK
        ARGFRAME XSTACK, 59, STACK
        ARGFRAME IOVERLAY, 0, STATIC
        ARGFRAME DOVERLAY, 0, STATIC
        EXTERN osal_mem_free
        FUNCTION osal_mem_free,0202H
        ARGFRAME ISTACK, 2, STACK
        ARGFRAME PSTACK, 0, STACK
        ARGFRAME XSTACK, 59, STACK
        ARGFRAME IOVERLAY, 0, STATIC
        ARGFRAME DOVERLAY, 0, STATIC
        EXTERN osal_memcpy
        FUNCTION osal_memcpy,0202H
        ARGFRAME ISTACK, 0, STACK
        ARGFRAME PSTACK, 0, STACK
        ARGFRAME XSTACK, 42, STACK
        ARGFRAME IOVERLAY, 0, STATIC
        ARGFRAME DOVERLAY, 0, STATIC
        EXTERN osal_memset
        FUNCTION osal_memset,0202H
        ARGFRAME ISTACK, 0, STACK
        ARGFRAME PSTACK, 0, STACK
        ARGFRAME XSTACK, 59, STACK
        ARGFRAME IOVERLAY, 0, STATIC
        ARGFRAME DOVERLAY, 0, STATIC
        EXTERN osal_msg_allocate
        FUNCTION osal_msg_allocate,0202H
        ARGFRAME ISTACK, 0, STACK
        ARGFRAME PSTACK, 0, STACK
        ARGFRAME XSTACK, 34, STACK
        ARGFRAME IOVERLAY, 0, STATIC
        ARGFRAME DOVERLAY, 0, STATIC
        EXTERN osal_msg_find
        FUNCTION osal_msg_find,0202H
        ARGFRAME ISTACK, 0, STACK
        ARGFRAME PSTACK, 0, STACK
        ARGFRAME XSTACK, 13, STACK
        ARGFRAME IOVERLAY, 0, STATIC
        ARGFRAME DOVERLAY, 0, STATIC
        EXTERN osal_msg_send
        FUNCTION osal_msg_send,0202H
        ARGFRAME ISTACK, 0, STACK
        ARGFRAME PSTACK, 0, STACK
        ARGFRAME XSTACK, 34, STACK
        ARGFRAME IOVERLAY, 0, STATIC
        ARGFRAME DOVERLAY, 0, STATIC
        EXTERN osal_nv_read
        FUNCTION osal_nv_read,0202H
        ARGFRAME ISTACK, 0, STACK
        ARGFRAME PSTACK, 0, STACK
        ARGFRAME XSTACK, 33, STACK
        ARGFRAME IOVERLAY, 0, STATIC
        ARGFRAME DOVERLAY, 0, STATIC
        EXTERN osal_nv_write
        FUNCTION osal_nv_write,0202H
        ARGFRAME ISTACK, 0, STACK
        ARGFRAME PSTACK, 0, STACK
        ARGFRAME XSTACK, 43, STACK
        ARGFRAME IOVERLAY, 0, STATIC
        ARGFRAME DOVERLAY, 0, STATIC
        EXTERN osal_rand
        FUNCTION osal_rand,0202H
        ARGFRAME ISTACK, 0, STACK
        ARGFRAME PSTACK, 0, STACK
        ARGFRAME XSTACK, 18, STACK
        ARGFRAME IOVERLAY, 0, STATIC
        ARGFRAME DOVERLAY, 0, STATIC
        EXTERN osal_set_event
        FUNCTION osal_set_event,0202H
        ARGFRAME ISTACK, 0, STACK
        ARGFRAME PSTACK, 0, STACK
        ARGFRAME XSTACK, 13, STACK
        ARGFRAME IOVERLAY, 0, STATIC
        ARGFRAME DOVERLAY, 0, STATIC
        EXTERN osal_start_timerEx
        FUNCTION osal_start_timerEx,0202H
        ARGFRAME ISTACK, 0, STACK
        ARGFRAME PSTACK, 0, STACK
        ARGFRAME XSTACK, 22, STACK
        ARGFRAME IOVERLAY, 0, STATIC
        ARGFRAME DOVERLAY, 0, STATIC
        EXTERN osal_stop_timerEx
        FUNCTION osal_stop_timerEx,0202H
        ARGFRAME ISTACK, 0, STACK
        ARGFRAME PSTACK, 0, STACK
        ARGFRAME XSTACK, 18, STACK
        ARGFRAME IOVERLAY, 0, STATIC
        ARGFRAME DOVERLAY, 0, STATIC
        EXTERN runtimeChannel
        EXTERN sAddrExtCmp
        FUNCTION sAddrExtCmp,0202H
        ARGFRAME ISTACK, 0, STACK
        ARGFRAME PSTACK, 0, STACK
        ARGFRAME XSTACK, 42, STACK
        ARGFRAME IOVERLAY, 0, STATIC
        ARGFRAME DOVERLAY, 0, STATIC
        EXTERN sAddrExtCpy
        FUNCTION sAddrExtCpy,0202H
        ARGFRAME ISTACK, 2, STACK
        ARGFRAME PSTACK, 0, STACK
        ARGFRAME XSTACK, 59, STACK
        ARGFRAME IOVERLAY, 0, STATIC
        ARGFRAME DOVERLAY, 0, STATIC
        EXTERN zdappMgmtNwkDiscReqInProgress
        EXTERN zdappMgmtNwkDiscRspAddr
        EXTERN zdappMgmtNwkDiscRspTransSeq
        EXTERN zdappMgmtNwkDiscStartIndex
        EXTERN zgApsUseExtendedPANID
        EXTERN zgConfigPANID
        EXTERN zgDefaultRejoinScan
        EXTERN zgDeviceLogicalType

// D:\AA\Z-Stack 3.0.2\Components\stack\zdo\ZDObject.c
//    1 /**************************************************************************************************
//    2   Filename:       ZDObject.c
//    3   Revised:        $Date: 2015-10-01 15:01:50 -0700 (Thu, 01 Oct 2015) $
//    4   Revision:       $Revision: 44513 $
//    5 
//    6   Description:    This is the Zigbee Device Object.
//    7 
//    8 
//    9   Copyright 2004-2015 Texas Instruments Incorporated. All rights reserved.
//   10 
//   11   IMPORTANT: Your use of this Software is limited to those specific rights
//   12   granted under the terms of a software license agreement between the user
//   13   who downloaded the software, his/her employer (which must be your employer)
//   14   and Texas Instruments Incorporated (the "License"). You may not use this
//   15   Software unless you agree to abide by the terms of the License. The License
//   16   limits your use, and you acknowledge, that the Software may not be modified,
//   17   copied or distributed unless embedded on a Texas Instruments microcontroller
//   18   or used solely and exclusively in conjunction with a Texas Instruments radio
//   19   frequency transceiver, which is integrated into your product. Other than for
//   20   the foregoing purpose, you may not use, reproduce, copy, prepare derivative
//   21   works of, modify, distribute, perform, display or sell this Software and/or
//   22   its documentation for any purpose.
//   23 
//   24   YOU FURTHER ACKNOWLEDGE AND AGREE THAT THE SOFTWARE AND DOCUMENTATION ARE
//   25   PROVIDED "AS IS" WITHOUT WARRANTY OF ANY KIND, EITHER EXPRESS OR IMPLIED,
//   26   INCLUDING WITHOUT LIMITATION, ANY WARRANTY OF MERCHANTABILITY, TITLE,
//   27   NON-INFRINGEMENT AND FITNESS FOR A PARTICULAR PURPOSE. IN NO EVENT SHALL
//   28   TEXAS INSTRUMENTS OR ITS LICENSORS BE LIABLE OR OBLIGATED UNDER CONTRACT,
//   29   NEGLIGENCE, STRICT LIABILITY, CONTRIBUTION, BREACH OF WARRANTY, OR OTHER
//   30   LEGAL EQUITABLE THEORY ANY DIRECT OR INDIRECT DAMAGES OR EXPENSES
//   31   INCLUDING BUT NOT LIMITED TO ANY INCIDENTAL, SPECIAL, INDIRECT, PUNITIVE
//   32   OR CONSEQUENTIAL DAMAGES, LOST PROFITS OR LOST DATA, COST OF PROCUREMENT
//   33   OF SUBSTITUTE GOODS, TECHNOLOGY, SERVICES, OR ANY CLAIMS BY THIRD PARTIES
//   34   (INCLUDING BUT NOT LIMITED TO ANY DEFENSE THEREOF), OR OTHER SIMILAR COSTS.
//   35 
//   36   Should you have any questions regarding your right to use this Software,
//   37   contact Texas Instruments Incorporated at www.TI.com.
//   38 **************************************************************************************************/
//   39 
//   40 /*********************************************************************
//   41  * INCLUDES
//   42  */
//   43 #include "ZComDef.h"
//   44 #include "OSAL.h"
//   45 #include "OSAL_Nv.h"
//   46 #include "rtg.h"
//   47 #include "NLMEDE.h"
//   48 #include "nwk_globals.h"
//   49 #include "APS.h"
//   50 #include "APSMEDE.h"
//   51 #include "AssocList.h"
//   52 #include "BindingTable.h"
//   53 #include "AddrMgr.h"
//   54 #include "AF.h"
//   55 #include "ZDObject.h"
//   56 #include "ZDProfile.h"
//   57 #include "ZDConfig.h"
//   58 #include "ZDSecMgr.h"
//   59 #include "ZDApp.h"
//   60 #include "nwk_util.h"   // NLME_IsAddressBroadcast()
//   61 #include "ZGlobals.h"
//   62 #if defined MT_ZDO_CB_FUNC
//   63 #include "MT.h"
//   64 #endif
//   65 
//   66 #include "bdb.h"
//   67 
//   68 #if !defined (DISABLE_GREENPOWER_BASIC_PROXY) && (ZG_BUILD_RTR_TYPE)
//   69 #include "gp_common.h"
//   70 #endif
//   71  
//   72 #if defined( LCD_SUPPORTED )
//   73   #include "OnBoard.h"
//   74 #endif
//   75 
//   76 /* HAL */
//   77 #include "hal_lcd.h"
//   78 
//   79 /*********************************************************************
//   80  * MACROS
//   81  */
//   82 
//   83 /*********************************************************************
//   84  * CONSTANTS
//   85  */
//   86 // NLME Stub Implementations
//   87 #define ZDO_ProcessMgmtPermitJoinTimeout NLME_PermitJoiningTimeout
//   88 
//   89 /*********************************************************************
//   90  * TYPEDEFS
//   91  */
//   92 #if defined ( REFLECTOR )
//   93 typedef struct
//   94 {
//   95   byte SrcTransSeq;
//   96   zAddrType_t SrcAddr;
//   97   uint16 LocalCoordinator;
//   98   byte epIntf;
//   99   uint16 ProfileID;
//  100   byte numInClusters;
//  101   uint16 *inClusters;
//  102   byte numOutClusters;
//  103   uint16 *outClusters;
//  104   byte SecurityUse;
//  105   byte status;
//  106 } ZDO_EDBind_t;
//  107 #endif // defined ( REFLECTOR )
//  108 
//  109 enum
//  110 {
//  111   ZDMATCH_INIT,           // Initialized
//  112   ZDMATCH_WAIT_REQ,       // Received first request, waiting for second
//  113   ZDMATCH_SENDING_BINDS   // Received both requests, sending unbind/binds
//  114 };
//  115 
//  116 enum
//  117 {
//  118   ZDMATCH_SENDING_NOT,
//  119   ZDMATCH_SENDING_UNBIND,
//  120   ZDMATCH_SENDING_BIND
//  121 };
//  122 
//  123 /*********************************************************************
//  124  * GLOBAL VARIABLES
//  125  */
//  126 
//  127 /*********************************************************************
//  128  * EXTERNAL VARIABLES
//  129  */
//  130 
//  131 extern bool  requestNewTrustCenterLinkKey;   
//  132    
//  133 /*********************************************************************
//  134  * EXTERNAL FUNCTIONS
//  135  */
//  136 
//  137 /*********************************************************************
//  138  * LOCAL VARIABLES
//  139  */

        RSEG XDATA_Z:XDATA:NOROOT(0)
        DATA8
//  140 static uint16 ZDOBuildBuf[26];  // temp area to build data without allocation
ZDOBuildBuf:
        DS 52
        REQUIRE __INIT_XDATA_Z
//  141 
//  142 #if defined ( REFLECTOR )

        RSEG XDATA_Z:XDATA:NOROOT(0)
        DATA16
//  143 static ZDO_EDBind_t *ZDO_EDBind;     // Null when not used
ZDO_EDBind:
        DS 2
        REQUIRE __INIT_XDATA_Z
//  144 #endif
//  145 
//  146 #if defined ( MANAGED_SCAN )
//  147   uint32 managedScanNextChannel = 0;
//  148   uint32 managedScanChannelMask = 0;
//  149   uint8  managedScanTimesPerChannel = 0;
//  150 #endif
//  151 

        RSEG XDATA_Z:XDATA:NOROOT(0)
        DATA16
//  152 ZDMatchEndDeviceBind_t *matchED = (ZDMatchEndDeviceBind_t *)NULL;
matchED:
        DS 2
        REQUIRE __INIT_XDATA_Z
//  153 

        RSEG XDATA_Z:XDATA:NOROOT(0)
        DATA32
//  154 uint32 apsChannelMask = 0;
apsChannelMask:
        DS 4
        REQUIRE __INIT_XDATA_Z
//  155 

        RSEG XDATA_I:XDATA:NOROOT(0)
//  156 int16 zdpExternalStateTaskID = -1;
zdpExternalStateTaskID:
        DATA16
        DS 2
        REQUIRE `?<Initializer for zdpExternalStateTaskID>`
        REQUIRE __INIT_XDATA_I
//  157 
//  158 /*********************************************************************
//  159  * LOCAL FUNCTIONS
//  160  */
//  161 static void ZDODeviceSetup( void );
//  162 #if defined ( MANAGED_SCAN )
//  163   static void ZDOManagedScan_Next( void );
//  164 #endif
//  165 #if defined ( REFLECTOR )
//  166   static void ZDO_RemoveEndDeviceBind( void );
//  167   static void ZDO_SendEDBindRsp( byte TransSeq, zAddrType_t *dstAddr, byte Status, byte secUse );
//  168 #endif
//  169 #if ( ZG_BUILD_COORDINATOR_TYPE )
//  170   static byte ZDO_CompareClusterLists( byte numList1, uint16 *list1,
//  171                                        byte numList2, uint16 *list2, uint16 *pMatches );
//  172   static void ZDO_RemoveMatchMemory( void );
//  173   static uint8 ZDO_CopyMatchInfo( ZDEndDeviceBind_t *destReq, ZDEndDeviceBind_t *srcReq );
//  174   static void ZDO_EndDeviceBindMatchTimeoutCB( void );
//  175 #endif
//  176 uint8 *ZDO_ConvertOTAClusters( uint8 cnt, uint8 *inBuf, uint16 *outList );
//  177 static void zdoSendStateChangeMsg(uint8 state, uint8 taskId);
//  178 
//  179 /*********************************************************************
//  180  * @fn          ZDO_Init
//  181  *
//  182  * @brief       ZDObject and ZDProfile initialization.
//  183  *
//  184  * @param       none
//  185  *
//  186  * @return      none
//  187  */

        RSEG BANKED_CODE:HUGECODE:NOROOT(0)
//  188 void ZDO_Init( void )
ZDO_Init:
          CFI Block cfiBlock0 Using cfiCommon0
          CFI Function ZDO_Init
        CODE
//  189 {
        FUNCALL ZDO_Init, sAddrExtCpy
        LOCFRAME ISTACK, 2, STACK
        LOCFRAME PSTACK, 0, STACK
        LOCFRAME XSTACK, 0, STACK
        LOCFRAME IOVERLAY, 0, STATIC
        LOCFRAME DOVERLAY, 0, STATIC
        ARGFRAME ISTACK, 2, STACK
        ARGFRAME PSTACK, 0, STACK
        ARGFRAME XSTACK, 0, STACK
        ARGFRAME IOVERLAY, 0, STATIC
        ARGFRAME DOVERLAY, 0, STATIC
        FUNCALL ZDO_Init, ZDODeviceSetup
        LOCFRAME ISTACK, 2, STACK
        LOCFRAME PSTACK, 0, STACK
        LOCFRAME XSTACK, 0, STACK
        LOCFRAME IOVERLAY, 0, STATIC
        LOCFRAME DOVERLAY, 0, STATIC
        ARGFRAME ISTACK, 2, STACK
        ARGFRAME PSTACK, 0, STACK
        ARGFRAME XSTACK, 0, STACK
        ARGFRAME IOVERLAY, 0, STATIC
        ARGFRAME DOVERLAY, 0, STATIC
        PUSH      DPL
          CFI DPL0 Frame(CFA_SP, 4)
          CFI CFA_SP SP+-4
        PUSH      DPH
          CFI DPH0 Frame(CFA_SP, 5)
          CFI CFA_SP SP+-5
        ; Saved register size: 2
        ; Auto size: 0
//  190   // Initialize ZD items
//  191   #if defined ( REFLECTOR )
//  192   ZDO_EDBind = NULL;
        MOV       DPTR,#ZDO_EDBind
        MOV       A,#0x0
        MOVX      @DPTR,A
        INC       DPTR
        MOV       A,#0x0
        MOVX      @DPTR,A
//  193   #endif
//  194 
//  195   // Initialize default ZDO_UseExtendedPANID to the APS one.
//  196   osal_cpyExtAddr( ZDO_UseExtendedPANID, AIB_apsUseExtendedPANID );
        ; Setup parameters for call to function sAddrExtCpy
        MOV       R4,#AIB_apsUseExtendedPANID & 0xff
        MOV       R5,#(AIB_apsUseExtendedPANID >> 8) & 0xff
        MOV       R2,#ZDO_UseExtendedPANID & 0xff
        MOV       R3,#(ZDO_UseExtendedPANID >> 8) & 0xff
        LCALL     `??sAddrExtCpy::?relay`; Banked call to: sAddrExtCpy
//  197 
//  198   // Setup the device - type of device to create.
//  199   ZDODeviceSetup();
        ; Setup parameters for call to function ZDODeviceSetup
        LCALL     `??ZDODeviceSetup::?relay`; Banked call to: ZDODeviceSetup
//  200 }
        POP       DPH
          CFI DPH0 SameValue
          CFI CFA_SP SP+-4
        POP       DPL
          CFI DPL0 SameValue
          CFI CFA_SP SP+-3
        LJMP      ?BRET
          CFI EndBlock cfiBlock0
//  201 
//  202 #if defined ( MANAGED_SCAN )
//  203 /*********************************************************************
//  204  * @fn      ZDOManagedScan_Next()
//  205  *
//  206  * @brief   Setup a managed scan.
//  207  *
//  208  * @param   none
//  209  *
//  210  * @return  none
//  211  */
//  212 static void ZDOManagedScan_Next( void )
//  213 {
//  214   // Is it the first time
//  215   if ( managedScanNextChannel == 0 && managedScanTimesPerChannel == 0 )
//  216   {
//  217     // Setup the defaults
//  218     managedScanNextChannel  = 1;
//  219 
//  220     while( managedScanNextChannel && (runtimeChannel & managedScanNextChannel) == 0 )
//  221       managedScanNextChannel <<= 1;
//  222 
//  223     managedScanChannelMask = managedScanNextChannel;
//  224     managedScanTimesPerChannel = MANAGEDSCAN_TIMES_PRE_CHANNEL;
//  225   }
//  226   else
//  227   {
//  228     // Do we need to go to the next channel
//  229     if ( managedScanTimesPerChannel == 0 )
//  230     {
//  231       // Find next active channel
//  232       managedScanChannelMask  = managedScanNextChannel;
//  233       managedScanTimesPerChannel = MANAGEDSCAN_TIMES_PRE_CHANNEL;
//  234     }
//  235     else
//  236     {
//  237       managedScanTimesPerChannel--;
//  238 
//  239       if ( managedScanTimesPerChannel == 0 )
//  240       {
//  241         managedScanNextChannel  <<= 1;
//  242         while( managedScanNextChannel && (runtimeChannel & managedScanNextChannel) == 0 )
//  243           managedScanNextChannel <<= 1;
//  244 
//  245         if ( managedScanNextChannel == 0 )
//  246           zdoDiscCounter  = NUM_DISC_ATTEMPTS + 1; // Stop
//  247       }
//  248     }
//  249   }
//  250 }
//  251 #endif // MANAGED_SCAN
//  252 
//  253 /*********************************************************************
//  254  * @fn      ZDODeviceSetup()
//  255  *
//  256  * @brief   Call set functions depending on the type of device compiled.
//  257  *
//  258  * @param   none
//  259  *
//  260  * @return  none
//  261  */

        RSEG BANKED_CODE:HUGECODE:NOROOT(0)
//  262 static void ZDODeviceSetup( void )
ZDODeviceSetup:
          CFI Block cfiBlock1 Using cfiCommon0
          CFI Function ZDODeviceSetup
        CODE
//  263 {
        FUNCALL ZDODeviceSetup, APS_ReflectorInit
        LOCFRAME ISTACK, 2, STACK
        LOCFRAME PSTACK, 0, STACK
        LOCFRAME XSTACK, 0, STACK
        LOCFRAME IOVERLAY, 0, STATIC
        LOCFRAME DOVERLAY, 0, STATIC
        ARGFRAME ISTACK, 2, STACK
        ARGFRAME PSTACK, 0, STACK
        ARGFRAME XSTACK, 0, STACK
        ARGFRAME IOVERLAY, 0, STATIC
        ARGFRAME DOVERLAY, 0, STATIC
        FUNCALL ZDODeviceSetup, NLME_DeviceJoiningInit
        LOCFRAME ISTACK, 2, STACK
        LOCFRAME PSTACK, 0, STACK
        LOCFRAME XSTACK, 0, STACK
        LOCFRAME IOVERLAY, 0, STATIC
        LOCFRAME DOVERLAY, 0, STATIC
        ARGFRAME ISTACK, 2, STACK
        ARGFRAME PSTACK, 0, STACK
        ARGFRAME XSTACK, 0, STACK
        ARGFRAME IOVERLAY, 0, STATIC
        ARGFRAME DOVERLAY, 0, STATIC
        PUSH      DPL
          CFI DPL0 Frame(CFA_SP, 4)
          CFI CFA_SP SP+-4
        PUSH      DPH
          CFI DPH0 Frame(CFA_SP, 5)
          CFI CFA_SP SP+-5
        ; Saved register size: 2
        ; Auto size: 0
//  264   if ( ZG_BUILD_COORDINATOR_TYPE )
//  265   {
//  266     NLME_CoordinatorInit();
//  267   }
//  268 
//  269 #if defined ( REFLECTOR )
//  270   APS_ReflectorInit();
        ; Setup parameters for call to function APS_ReflectorInit
        LCALL     `??APS_ReflectorInit::?relay`; Banked call to: APS_ReflectorInit
//  271 #endif
//  272 
//  273   if ( ZG_BUILD_JOINING_TYPE )
//  274   {
//  275     NLME_DeviceJoiningInit();
        ; Setup parameters for call to function NLME_DeviceJoiningInit
        LCALL     `??NLME_DeviceJoiningInit::?relay`; Banked call to: NLME_DeviceJoiningInit
//  276   }
//  277 }
        POP       DPH
          CFI DPH0 SameValue
          CFI CFA_SP SP+-4
        POP       DPL
          CFI DPL0 SameValue
          CFI CFA_SP SP+-3
        LJMP      ?BRET
          CFI EndBlock cfiBlock1
//  278 
//  279 
//  280 
//  281 
//  282 /*********************************************************************
//  283  * @fn          ZDO_StartDevice
//  284  *
//  285  * @brief       This function starts a device in a network. Added distributed network for router devices
//  286  *
//  287  * @param       logicalType     - Device type to start
//  288  *              startMode       - indicates mode of device startup
//  289  *              beaconOrder     - indicates time betwen beacons
//  290  *              superframeOrder - indicates length of active superframe
//  291  *              distributed     - indicates if the network will be formed
//  292  *
//  293  * @return      none
//  294  */

        RSEG BANKED_CODE:HUGECODE:NOROOT(0)
//  295 void ZDO_StartDevice( byte logicalType, devStartModes_t startMode, byte beaconOrder, byte superframeOrder )
ZDO_StartDevice:
          CFI Block cfiBlock2 Using cfiCommon0
          CFI Function ZDO_StartDevice
        CODE
//  296 {
        FUNCALL ZDO_StartDevice, APSME_IsDistributedSecurity
        LOCFRAME ISTACK, 0, STACK
        LOCFRAME PSTACK, 0, STACK
        LOCFRAME XSTACK, 18, STACK
        LOCFRAME IOVERLAY, 0, STATIC
        LOCFRAME DOVERLAY, 0, STATIC
        ARGFRAME ISTACK, 0, STACK
        ARGFRAME PSTACK, 0, STACK
        ARGFRAME XSTACK, 18, STACK
        ARGFRAME IOVERLAY, 0, STATIC
        ARGFRAME DOVERLAY, 0, STATIC
        FUNCALL ZDO_StartDevice, osal_rand
        LOCFRAME ISTACK, 0, STACK
        LOCFRAME PSTACK, 0, STACK
        LOCFRAME XSTACK, 18, STACK
        LOCFRAME IOVERLAY, 0, STATIC
        LOCFRAME DOVERLAY, 0, STATIC
        ARGFRAME ISTACK, 0, STACK
        ARGFRAME PSTACK, 0, STACK
        ARGFRAME XSTACK, 18, STACK
        ARGFRAME IOVERLAY, 0, STATIC
        ARGFRAME DOVERLAY, 0, STATIC
        FUNCALL ZDO_StartDevice, NLME_NetworkFormationRequest
        LOCFRAME ISTACK, 0, STACK
        LOCFRAME PSTACK, 0, STACK
        LOCFRAME XSTACK, 28, STACK
        LOCFRAME IOVERLAY, 0, STATIC
        LOCFRAME DOVERLAY, 0, STATIC
        ARGFRAME ISTACK, 0, STACK
        ARGFRAME PSTACK, 0, STACK
        ARGFRAME XSTACK, 28, STACK
        ARGFRAME IOVERLAY, 0, STATIC
        ARGFRAME DOVERLAY, 0, STATIC
        FUNCALL ZDO_StartDevice, ZDApp_ChangeState
        LOCFRAME ISTACK, 0, STACK
        LOCFRAME PSTACK, 0, STACK
        LOCFRAME XSTACK, 18, STACK
        LOCFRAME IOVERLAY, 0, STATIC
        LOCFRAME DOVERLAY, 0, STATIC
        ARGFRAME ISTACK, 0, STACK
        ARGFRAME PSTACK, 0, STACK
        ARGFRAME XSTACK, 18, STACK
        ARGFRAME IOVERLAY, 0, STATIC
        ARGFRAME DOVERLAY, 0, STATIC
        FUNCALL ZDO_StartDevice, NLME_NetworkDiscoveryRequest
        LOCFRAME ISTACK, 0, STACK
        LOCFRAME PSTACK, 0, STACK
        LOCFRAME XSTACK, 18, STACK
        LOCFRAME IOVERLAY, 0, STATIC
        LOCFRAME DOVERLAY, 0, STATIC
        ARGFRAME ISTACK, 0, STACK
        ARGFRAME PSTACK, 0, STACK
        ARGFRAME XSTACK, 18, STACK
        ARGFRAME IOVERLAY, 0, STATIC
        ARGFRAME DOVERLAY, 0, STATIC
        FUNCALL ZDO_StartDevice, ZDApp_ChangeState
        LOCFRAME ISTACK, 0, STACK
        LOCFRAME PSTACK, 0, STACK
        LOCFRAME XSTACK, 18, STACK
        LOCFRAME IOVERLAY, 0, STATIC
        LOCFRAME DOVERLAY, 0, STATIC
        ARGFRAME ISTACK, 0, STACK
        ARGFRAME PSTACK, 0, STACK
        ARGFRAME XSTACK, 18, STACK
        ARGFRAME IOVERLAY, 0, STATIC
        ARGFRAME DOVERLAY, 0, STATIC
        FUNCALL ZDO_StartDevice, osal_stop_timerEx
        LOCFRAME ISTACK, 0, STACK
        LOCFRAME PSTACK, 0, STACK
        LOCFRAME XSTACK, 18, STACK
        LOCFRAME IOVERLAY, 0, STATIC
        LOCFRAME DOVERLAY, 0, STATIC
        ARGFRAME ISTACK, 0, STACK
        ARGFRAME PSTACK, 0, STACK
        ARGFRAME XSTACK, 18, STACK
        ARGFRAME IOVERLAY, 0, STATIC
        ARGFRAME DOVERLAY, 0, STATIC
        FUNCALL ZDO_StartDevice, ZMacGetReq
        LOCFRAME ISTACK, 0, STACK
        LOCFRAME PSTACK, 0, STACK
        LOCFRAME XSTACK, 18, STACK
        LOCFRAME IOVERLAY, 0, STATIC
        LOCFRAME DOVERLAY, 0, STATIC
        ARGFRAME ISTACK, 0, STACK
        ARGFRAME PSTACK, 0, STACK
        ARGFRAME XSTACK, 18, STACK
        ARGFRAME IOVERLAY, 0, STATIC
        ARGFRAME DOVERLAY, 0, STATIC
        FUNCALL ZDO_StartDevice, NLME_JoinConfirm
        LOCFRAME ISTACK, 0, STACK
        LOCFRAME PSTACK, 0, STACK
        LOCFRAME XSTACK, 18, STACK
        LOCFRAME IOVERLAY, 0, STATIC
        LOCFRAME DOVERLAY, 0, STATIC
        ARGFRAME ISTACK, 0, STACK
        ARGFRAME PSTACK, 0, STACK
        ARGFRAME XSTACK, 18, STACK
        ARGFRAME IOVERLAY, 0, STATIC
        ARGFRAME DOVERLAY, 0, STATIC
        FUNCALL ZDO_StartDevice, ZDApp_ChangeState
        LOCFRAME ISTACK, 0, STACK
        LOCFRAME PSTACK, 0, STACK
        LOCFRAME XSTACK, 18, STACK
        LOCFRAME IOVERLAY, 0, STATIC
        LOCFRAME DOVERLAY, 0, STATIC
        ARGFRAME ISTACK, 0, STACK
        ARGFRAME PSTACK, 0, STACK
        ARGFRAME XSTACK, 18, STACK
        ARGFRAME IOVERLAY, 0, STATIC
        ARGFRAME DOVERLAY, 0, STATIC
        FUNCALL ZDO_StartDevice, osal_start_timerEx
        LOCFRAME ISTACK, 0, STACK
        LOCFRAME PSTACK, 0, STACK
        LOCFRAME XSTACK, 22, STACK
        LOCFRAME IOVERLAY, 0, STATIC
        LOCFRAME DOVERLAY, 0, STATIC
        ARGFRAME ISTACK, 0, STACK
        ARGFRAME PSTACK, 0, STACK
        ARGFRAME XSTACK, 22, STACK
        ARGFRAME IOVERLAY, 0, STATIC
        ARGFRAME DOVERLAY, 0, STATIC
        FUNCALL ZDO_StartDevice, NLME_OrphanJoinRequest
        LOCFRAME ISTACK, 0, STACK
        LOCFRAME PSTACK, 0, STACK
        LOCFRAME XSTACK, 18, STACK
        LOCFRAME IOVERLAY, 0, STATIC
        LOCFRAME DOVERLAY, 0, STATIC
        ARGFRAME ISTACK, 0, STACK
        ARGFRAME PSTACK, 0, STACK
        ARGFRAME XSTACK, 18, STACK
        ARGFRAME IOVERLAY, 0, STATIC
        ARGFRAME DOVERLAY, 0, STATIC
        FUNCALL ZDO_StartDevice, HalLcdWriteScreen
        LOCFRAME ISTACK, 0, STACK
        LOCFRAME PSTACK, 0, STACK
        LOCFRAME XSTACK, 18, STACK
        LOCFRAME IOVERLAY, 0, STATIC
        LOCFRAME DOVERLAY, 0, STATIC
        ARGFRAME ISTACK, 0, STACK
        ARGFRAME PSTACK, 0, STACK
        ARGFRAME XSTACK, 18, STACK
        ARGFRAME IOVERLAY, 0, STATIC
        ARGFRAME DOVERLAY, 0, STATIC
        FUNCALL ZDO_StartDevice, osal_start_timerEx
        LOCFRAME ISTACK, 0, STACK
        LOCFRAME PSTACK, 0, STACK
        LOCFRAME XSTACK, 22, STACK
        LOCFRAME IOVERLAY, 0, STATIC
        LOCFRAME DOVERLAY, 0, STATIC
        ARGFRAME ISTACK, 0, STACK
        ARGFRAME PSTACK, 0, STACK
        ARGFRAME XSTACK, 22, STACK
        ARGFRAME IOVERLAY, 0, STATIC
        ARGFRAME DOVERLAY, 0, STATIC
        REQUIRE ?V0
        REQUIRE ?V1
        REQUIRE ?V2
        REQUIRE ?V3
        REQUIRE ?V4
        REQUIRE ?V5
        REQUIRE ?V6
        REQUIRE ?V7
        MOV       A,#-0x10
        LCALL     ?BANKED_ENTER_XDATA
          CFI DPH0 load(1, XDATA, add(CFA_XSP16, literal(-1)))
          CFI DPL0 load(1, XDATA, add(CFA_XSP16, literal(-2)))
          CFI ?BRET_EXT load(1, XDATA, add(CFA_XSP16, literal(-3)))
          CFI ?RET_HIGH load(1, XDATA, add(CFA_XSP16, literal(-4)))
          CFI ?RET_LOW load(1, XDATA, add(CFA_XSP16, literal(-5)))
          CFI R7 load(1, XDATA, add(CFA_XSP16, literal(-6)))
          CFI V7 load(1, XDATA, add(CFA_XSP16, literal(-7)))
          CFI V6 load(1, XDATA, add(CFA_XSP16, literal(-8)))
          CFI V5 load(1, XDATA, add(CFA_XSP16, literal(-9)))
          CFI V4 load(1, XDATA, add(CFA_XSP16, literal(-10)))
          CFI V3 load(1, XDATA, add(CFA_XSP16, literal(-11)))
          CFI V2 load(1, XDATA, add(CFA_XSP16, literal(-12)))
          CFI V1 load(1, XDATA, add(CFA_XSP16, literal(-13)))
          CFI V0 load(1, XDATA, add(CFA_XSP16, literal(-14)))
          CFI VB load(1, XDATA, add(CFA_XSP16, literal(-15)))
          CFI R6 load(1, XDATA, add(CFA_XSP16, literal(-16)))
          CFI CFA_SP SP+0
          CFI CFA_XSP16 add(XSP16, 16)
        ; Saved register size: 16
        ; Auto size: 2
        MOV       A,#-0x2
        LCALL     ?ALLOC_XSTACK8
          CFI CFA_XSP16 add(XSP16, 18)
        MOV       A,R1
        MOV       R7,A
        MOV       ?V0,R2
        MOV       ?V2,R3
        MOV       ?V1,R4
//  297   ZStatus_t ret;
//  298 #if defined ( ZIGBEE_FREQ_AGILITY )
//  299   static uint8 discRetries = 0;
//  300 #endif
//  301 #if defined ( ZIGBEE_COMMISSIONING )
//  302   static uint8 scanCnt = 0;
//  303 #endif
//  304 
//  305   ret = ZUnsupportedMode;
        MOV       R6,#0x12
//  306 
//  307   if ( ZG_BUILD_COORDINATOR_TYPE && logicalType == NODETYPE_COORDINATOR )
//  308   {
//  309     if ( startMode == MODE_HARD )
//  310     {
//  311       ZDApp_ChangeState( DEV_COORD_STARTING );
//  312       ret = NLME_NetworkFormationRequest( zgConfigPANID, zgApsUseExtendedPANID, runtimeChannel,
//  313                                           zgDefaultStartingScanDuration, beaconOrder,
//  314                                           superframeOrder, false, false, 0 );
//  315     }
//  316     else if ( startMode == MODE_RESUME )
//  317     {
//  318       // Just start the coordinator
//  319       ZDApp_ChangeState( DEV_COORD_STARTING );
//  320       ret = NLME_StartRouterRequest( beaconOrder, beaconOrder, false );
//  321     }
//  322     else
//  323     {
//  324 #if defined( LCD_SUPPORTED )
//  325       HalLcdWriteScreen( "StartDevice ERR", "MODE unknown" );
//  326 #endif
//  327     }
//  328   }
//  329 
//  330   if ( ZG_BUILD_JOINING_TYPE && (logicalType == NODETYPE_ROUTER || logicalType == NODETYPE_DEVICE) )
        MOV       A,#0x1
        XRL       A,R7
        JZ        ??ZDO_StartDevice_0
        MOV       A,#0x2
        XRL       A,R7
        JZ        $+5
        LJMP      ??ZDO_StartDevice_1 & 0xFFFF
//  331   {
//  332     if ( (startMode == MODE_JOIN) || (startMode == MODE_REJOIN) )
??ZDO_StartDevice_0:
        MOV       A,?V0
        JZ        ??ZDO_StartDevice_2
        MOV       A,#0x3
        XRL       A,?V0
        JZ        $+5
        LJMP      ??ZDO_StartDevice_3 & 0xFFFF
//  333     {
//  334       if(APSME_IsDistributedSecurity() && (startMode != MODE_REJOIN))
??ZDO_StartDevice_2:
        ; Setup parameters for call to function APSME_IsDistributedSecurity
        LCALL     `??APSME_IsDistributedSecurity::?relay`; Banked call to: APSME_IsDistributedSecurity
        MOV       A,R1
        JZ        ??ZDO_StartDevice_4
        MOV       A,#0x3
        XRL       A,?V0
        JZ        ??ZDO_StartDevice_4
//  335       {
//  336               ret = NLME_NetworkFormationRequest( zgConfigPANID, zgApsUseExtendedPANID, runtimeChannel,
//  337                                           zgDefaultStartingScanDuration, beaconOrder,
//  338                                           superframeOrder, false, true, osal_rand() );
        ; Setup parameters for call to function osal_rand
        LCALL     `??osal_rand::?relay`; Banked call to: osal_rand
        MOV       ?V6,R2
        MOV       ?V7,R3
        MOV       ?V4,?V6
        MOV       ?V5,?V7
        ; Setup parameters for call to function NLME_NetworkFormationRequest
        MOV       R0,#?V4
        LCALL     ?PUSH_XSTACK_I_TWO
          CFI CFA_XSP16 add(XSP16, 20)
        MOV       ?V3,#0x1
        MOV       R0,#?V3
        LCALL     ?PUSH_XSTACK_I_ONE
          CFI CFA_XSP16 add(XSP16, 21)
        MOV       ?V3,#0x0
        MOV       R0,#?V3
        LCALL     ?PUSH_XSTACK_I_ONE
          CFI CFA_XSP16 add(XSP16, 22)
        MOV       A,?V1
        MOV       ?V3,A
        MOV       R0,#?V3
        LCALL     ?PUSH_XSTACK_I_ONE
          CFI CFA_XSP16 add(XSP16, 23)
        MOV       A,?V2
        MOV       ?V3,A
        MOV       R0,#?V3
        LCALL     ?PUSH_XSTACK_I_ONE
          CFI CFA_XSP16 add(XSP16, 24)
        MOV       DPTR,#runtimeChannel
        LCALL     ?PUSH_XSTACK8_X_FOUR
          CFI CFA_XSP16 add(XSP16, 28)
        MOV       DPTR,#bdbAttributes + 13
        MOVX      A,@DPTR
        MOV       R1,A
        MOV       R4,#zgApsUseExtendedPANID & 0xff
        MOV       R5,#(zgApsUseExtendedPANID >> 8) & 0xff
        MOV       DPTR,#zgConfigPANID
        MOVX      A,@DPTR
        MOV       R2,A
        INC       DPTR
        MOVX      A,@DPTR
        MOV       R3,A
        LCALL     `??NLME_NetworkFormationRequest::?relay`; Banked call to: NLME_NetworkFormationRequest
        MOV       A,#0xa
        LCALL     ?DEALLOC_XSTACK8
          CFI CFA_XSP16 add(XSP16, 18)
        MOV       A,R1
        MOV       R6,A
        LJMP      ??ZDO_StartDevice_1 & 0xFFFF
//  339         
//  340       }
//  341       else
//  342       {
//  343         ZDApp_ChangeState( DEV_NWK_DISC );
??ZDO_StartDevice_4:
        ; Setup parameters for call to function ZDApp_ChangeState
        MOV       R1,#0x2
        LCALL     `??ZDApp_ChangeState::?relay`; Banked call to: ZDApp_ChangeState
//  344 
//  345       #if defined( MANAGED_SCAN )
//  346         ZDOManagedScan_Next();
//  347         ret = NLME_NetworkDiscoveryRequest( managedScanChannelMask, BEACON_ORDER_15_MSEC );
//  348       #else
//  349         ret = NLME_NetworkDiscoveryRequest( runtimeChannel, zgDefaultStartingScanDuration );
        ; Setup parameters for call to function NLME_NetworkDiscoveryRequest
        MOV       DPTR,#bdbAttributes + 13
        MOVX      A,@DPTR
        MOV       R1,A
        MOV       DPTR,#runtimeChannel
        LCALL     ?XLOAD_R2345
        LCALL     `??NLME_NetworkDiscoveryRequest::?relay`; Banked call to: NLME_NetworkDiscoveryRequest
        MOV       A,R1
        MOV       R6,A
//  350         #if defined ( ZIGBEE_FREQ_AGILITY )
//  351         if ( !( ZDO_Config_Node_Descriptor.CapabilityFlags & CAPINFO_RCVR_ON_IDLE ) &&
//  352             ( ret == ZSuccess ) && ( ++discRetries == 4 ) )
//  353         {
//  354           // For devices with RxOnWhenIdle equals to FALSE, any network channel
//  355           // change will not be recieved. On these devices or routers that have
//  356           // lost the network, an active scan shall be conducted on the Default
//  357           // Channel list using the extended PANID to find the network. If the
//  358           // extended PANID isn't found using the Default Channel list, an scan
//  359           // should be completed using all channels.
//  360           runtimeChannel = MAX_CHANNELS_24GHZ;
//  361         }
//  362         #endif // ZIGBEE_FREQ_AGILITY
//  363         #if defined ( ZIGBEE_COMMISSIONING )
//  364         if (startMode == MODE_REJOIN && scanCnt++ >= 5 )
        MOV       A,#0x3
        XRL       A,?V0
        JZ        $+5
        LJMP      ??ZDO_StartDevice_1 & 0xFFFF
        MOV       DPTR,#??scanCnt
        MOVX      A,@DPTR
        MOV       R0,A
        MOV       A,#0x1
        ADD       A,R0
        MOV       DPTR,#??scanCnt
        MOVX      @DPTR,A
        MOV       A,R0
        CLR       C
        SUBB      A,#0x5
        JNC       $+5
        LJMP      ??ZDO_StartDevice_1 & 0xFFFF
//  365         {
//  366           // When ApsUseExtendedPanID is commissioned to a non zero value via
//  367           // application specific means, the device shall conduct an active scan
//  368           // on the Default Channel list and join the PAN with the same
//  369           // ExtendedPanID. If the PAN is not found, an scan should be completed
//  370           // on all channels.
//  371           // When devices rejoin the network and the PAN is not found from
//  372           runtimeChannel = MAX_CHANNELS_24GHZ;
        MOV       DPTR,#runtimeChannel
        MOV       A,#0x0
        MOVX      @DPTR,A
        INC       DPTR
        MOV       A,#-0x8
        MOVX      @DPTR,A
        INC       DPTR
        MOV       A,#-0x1
        MOVX      @DPTR,A
        INC       DPTR
        MOV       A,#0x7
        MOVX      @DPTR,A
        LJMP      ??ZDO_StartDevice_1 & 0xFFFF
//  373         }
//  374         #endif // ZIGBEE_COMMISSIONING
//  375       #endif
//  376       }
//  377     }
//  378     else if ( startMode == MODE_RESUME )
??ZDO_StartDevice_3:
        MOV       A,#0x1
        XRL       A,?V0
        JNZ       ??ZDO_StartDevice_5
//  379     {
//  380       if ( logicalType == NODETYPE_ROUTER )
        MOV       A,#0x1
        XRL       A,R7
        JNZ       ??ZDO_StartDevice_6
//  381       {
//  382         uint16 panID;
//  383         
//  384         ZDApp_ChangeState( DEV_NWK_ORPHAN );
        ; Setup parameters for call to function ZDApp_ChangeState
        MOV       R1,#0xa
        LCALL     `??ZDApp_ChangeState::?relay`; Banked call to: ZDApp_ChangeState
//  385         
//  386         // Stop the rejoin timeout
//  387         osal_stop_timerEx( NWK_TaskID, NWK_REJOIN_TIMEOUT_EVT );
        ; Setup parameters for call to function osal_stop_timerEx
        MOV       R2,#0x0
        MOV       R3,#0x4
        MOV       DPTR,#NWK_TaskID
        MOVX      A,@DPTR
        MOV       R1,A
        LCALL     `??osal_stop_timerEx::?relay`; Banked call to: osal_stop_timerEx
        MOV       A,R1
//  388         ZMacGetReq( ZMacPanId, (uint8 *)&( panID ) );
        ; Setup parameters for call to function ZMacGetReq
        MOV       R2,?XSP + 0
        MOV       R3,?XSP + 1
        MOV       R1,#0x50
        LCALL     `??ZMacGetReq::?relay`; Banked call to: ZMacGetReq
        MOV       A,R1
//  389         
//  390         _NIB.nwkPanId = panID;
        MOV       DPL,?XSP + 0
        MOV       DPH,?XSP + 1
        MOVX      A,@DPTR
        MOV       R0,A
        INC       DPTR
        MOVX      A,@DPTR
        MOV       R1,A
        MOV       DPTR,#_NIB + 33
        MOV       A,R0
        MOVX      @DPTR,A
        INC       DPTR
        MOV       A,R1
        MOVX      @DPTR,A
//  391         NLME_JoinConfirm(  _NIB.nwkPanId, ZSuccess );
        ; Setup parameters for call to function NLME_JoinConfirm
        MOV       R1,#0x0
        MOV       DPTR,#_NIB + 33
        MOVX      A,@DPTR
        MOV       R2,A
        INC       DPTR
        MOVX      A,@DPTR
        MOV       R3,A
        LCALL     `??NLME_JoinConfirm::?relay`; Banked call to: NLME_JoinConfirm
//  392 
//  393         ret = ZSuccess;
        MOV       R6,#0x0
        SJMP      ??ZDO_StartDevice_1
//  394       }
//  395       else
//  396       {
//  397         ZDApp_ChangeState( DEV_NWK_ORPHAN );
??ZDO_StartDevice_6:
        ; Setup parameters for call to function ZDApp_ChangeState
        MOV       R1,#0xa
        LCALL     `??ZDApp_ChangeState::?relay`; Banked call to: ZDApp_ChangeState
//  398         //set timer for scan and rejoin
//  399         osal_start_timerEx( ZDAppTaskID, ZDO_REJOIN_BACKOFF, zgDefaultRejoinScan );
        ; Setup parameters for call to function osal_start_timerEx
        MOV       DPTR,#zgDefaultRejoinScan
        LCALL     ?PUSH_XSTACK8_X_FOUR
          CFI CFA_XSP16 add(XSP16, 22)
        MOV       R2,#0x0
        MOV       R3,#0x20
        MOV       DPTR,#ZDAppTaskID
        MOVX      A,@DPTR
        MOV       R1,A
        LCALL     `??osal_start_timerEx::?relay`; Banked call to: osal_start_timerEx
        MOV       A,#0x4
        LCALL     ?DEALLOC_XSTACK8
          CFI CFA_XSP16 add(XSP16, 18)
        MOV       A,R1
//  400         ret = NLME_OrphanJoinRequest( runtimeChannel,
//  401                                       zgDefaultStartingScanDuration );
        ; Setup parameters for call to function NLME_OrphanJoinRequest
        MOV       DPTR,#bdbAttributes + 13
        MOVX      A,@DPTR
        MOV       R1,A
        MOV       DPTR,#runtimeChannel
        LCALL     ?XLOAD_R2345
        LCALL     `??NLME_OrphanJoinRequest::?relay`; Banked call to: NLME_OrphanJoinRequest
        MOV       A,R1
        MOV       R6,A
        SJMP      ??ZDO_StartDevice_1
//  402       }
//  403     }
//  404     else
//  405     {
//  406 #if defined( LCD_SUPPORTED )
//  407       HalLcdWriteScreen( "StartDevice ERR", "MODE unknown" );
??ZDO_StartDevice_5:
        ; Setup parameters for call to function HalLcdWriteScreen
        MOV       R4,#`?<Constant "MODE unknown">` & 0xff
        MOV       R5,#(`?<Constant "MODE unknown">` >> 8) & 0xff
        MOV       R2,#`?<Constant "StartDevice ERR">` & 0xff
        MOV       R3,#(`?<Constant "StartDevice ERR">` >> 8) & 0xff
        LCALL     `??HalLcdWriteScreen::?relay`; Banked call to: HalLcdWriteScreen
//  408 #endif
//  409     }
//  410   }
//  411 
//  412   if ( ret != ZSuccess )
??ZDO_StartDevice_1:
        MOV       A,R6
        JZ        ??ZDO_StartDevice_7
//  413   {
//  414     osal_start_timerEx(ZDAppTaskID, ZDO_NETWORK_INIT, NWK_RETRY_DELAY );
        ; Setup parameters for call to function osal_start_timerEx
        MOV       DPTR,#__Constant_3e8
        LCALL     ?PUSH_XSTACK8_X_FOUR
          CFI CFA_XSP16 add(XSP16, 22)
        MOV       R2,#0x1
        MOV       R3,#0x0
        MOV       DPTR,#ZDAppTaskID
        MOVX      A,@DPTR
        MOV       R1,A
        LCALL     `??osal_start_timerEx::?relay`; Banked call to: osal_start_timerEx
        MOV       A,#0x4
        LCALL     ?DEALLOC_XSTACK8
          CFI CFA_XSP16 add(XSP16, 18)
        MOV       A,R1
//  415   }
//  416 }
??ZDO_StartDevice_7:
        MOV       A,#0x2
        LCALL     ?DEALLOC_XSTACK8
          CFI CFA_XSP16 add(XSP16, 16)
        MOV       R7,#0x8
        LJMP      ?BANKED_LEAVE_XDATA
          CFI EndBlock cfiBlock2

        RSEG XDATA_Z:XDATA:NOROOT(0)
        DATA8
??scanCnt:
        DS 1
        REQUIRE __INIT_XDATA_Z
//  417 
//  418 /**************************************************************************************************
//  419  * @fn          zdoSendStateChangeMsg
//  420  *
//  421  * @brief       Helper function for ZDO_UpdateNwkStatus.
//  422  *
//  423  * input parameters
//  424  *
//  425  * @param       taskId - The OSAL task identifier to which to send the ZDO_STATE_CHANGE_EVT.
//  426  * @param       state - The current device state.
//  427  *
//  428  * output parameters
//  429  *
//  430  * None.
//  431  *
//  432  * @return      None.
//  433  **************************************************************************************************
//  434  */

        RSEG BANKED_CODE:HUGECODE:NOROOT(0)
//  435 static void zdoSendStateChangeMsg(uint8 state, uint8 taskId)
zdoSendStateChangeMsg:
          CFI Block cfiBlock3 Using cfiCommon0
          CFI Function zdoSendStateChangeMsg
        CODE
//  436 {
        FUNCALL zdoSendStateChangeMsg, osal_msg_find
        LOCFRAME ISTACK, 0, STACK
        LOCFRAME PSTACK, 0, STACK
        LOCFRAME XSTACK, 13, STACK
        LOCFRAME IOVERLAY, 0, STATIC
        LOCFRAME DOVERLAY, 0, STATIC
        ARGFRAME ISTACK, 0, STACK
        ARGFRAME PSTACK, 0, STACK
        ARGFRAME XSTACK, 13, STACK
        ARGFRAME IOVERLAY, 0, STATIC
        ARGFRAME DOVERLAY, 0, STATIC
        FUNCALL zdoSendStateChangeMsg, osal_msg_allocate
        LOCFRAME ISTACK, 0, STACK
        LOCFRAME PSTACK, 0, STACK
        LOCFRAME XSTACK, 13, STACK
        LOCFRAME IOVERLAY, 0, STATIC
        LOCFRAME DOVERLAY, 0, STATIC
        ARGFRAME ISTACK, 0, STACK
        ARGFRAME PSTACK, 0, STACK
        ARGFRAME XSTACK, 13, STACK
        ARGFRAME IOVERLAY, 0, STATIC
        ARGFRAME DOVERLAY, 0, STATIC
        FUNCALL zdoSendStateChangeMsg, osal_set_event
        LOCFRAME ISTACK, 0, STACK
        LOCFRAME PSTACK, 0, STACK
        LOCFRAME XSTACK, 13, STACK
        LOCFRAME IOVERLAY, 0, STATIC
        LOCFRAME DOVERLAY, 0, STATIC
        ARGFRAME ISTACK, 0, STACK
        ARGFRAME PSTACK, 0, STACK
        ARGFRAME XSTACK, 13, STACK
        ARGFRAME IOVERLAY, 0, STATIC
        ARGFRAME DOVERLAY, 0, STATIC
        FUNCALL zdoSendStateChangeMsg, osal_msg_send
        LOCFRAME ISTACK, 0, STACK
        LOCFRAME PSTACK, 0, STACK
        LOCFRAME XSTACK, 13, STACK
        LOCFRAME IOVERLAY, 0, STATIC
        LOCFRAME DOVERLAY, 0, STATIC
        ARGFRAME ISTACK, 0, STACK
        ARGFRAME PSTACK, 0, STACK
        ARGFRAME XSTACK, 13, STACK
        ARGFRAME IOVERLAY, 0, STATIC
        ARGFRAME DOVERLAY, 0, STATIC
        REQUIRE ?V0
        REQUIRE ?V1
        REQUIRE ?V2
        REQUIRE ?V3
        MOV       A,#-0xc
        LCALL     ?BANKED_ENTER_XDATA
          CFI DPH0 load(1, XDATA, add(CFA_XSP16, literal(-1)))
          CFI DPL0 load(1, XDATA, add(CFA_XSP16, literal(-2)))
          CFI ?BRET_EXT load(1, XDATA, add(CFA_XSP16, literal(-3)))
          CFI ?RET_HIGH load(1, XDATA, add(CFA_XSP16, literal(-4)))
          CFI ?RET_LOW load(1, XDATA, add(CFA_XSP16, literal(-5)))
          CFI R7 load(1, XDATA, add(CFA_XSP16, literal(-6)))
          CFI V3 load(1, XDATA, add(CFA_XSP16, literal(-7)))
          CFI V2 load(1, XDATA, add(CFA_XSP16, literal(-8)))
          CFI V1 load(1, XDATA, add(CFA_XSP16, literal(-9)))
          CFI V0 load(1, XDATA, add(CFA_XSP16, literal(-10)))
          CFI VB load(1, XDATA, add(CFA_XSP16, literal(-11)))
          CFI R6 load(1, XDATA, add(CFA_XSP16, literal(-12)))
          CFI CFA_SP SP+0
          CFI CFA_XSP16 add(XSP16, 12)
        ; Saved register size: 12
        ; Auto size: 1
        MOV       A,#-0x1
        LCALL     ?ALLOC_XSTACK8
          CFI CFA_XSP16 add(XSP16, 13)
        MOV       ?V1,R1
        MOV       ?V0,R2
//  437   osal_event_hdr_t *pMsg = (osal_event_hdr_t *)osal_msg_find(taskId, ZDO_STATE_CHANGE);
        ; Setup parameters for call to function osal_msg_find
        MOV       R2,#-0x2f
        MOV       R1,?V0
        LCALL     `??osal_msg_find::?relay`; Banked call to: osal_msg_find
        MOV       ?V2,R2
        MOV       ?V3,R3
        MOV       R6,?V2
        MOV       R7,?V3
//  438 
//  439   if (NULL == pMsg)
        MOV       A,R6
        ORL       A,R7
        JNZ       ??zdoSendStateChangeMsg_0
//  440   {
//  441     if (NULL == (pMsg = (osal_event_hdr_t *)osal_msg_allocate(sizeof(osal_event_hdr_t))))
        ; Setup parameters for call to function osal_msg_allocate
        MOV       R2,#0x2
        MOV       R3,#0x0
        LCALL     `??osal_msg_allocate::?relay`; Banked call to: osal_msg_allocate
        MOV       ?V2,R2
        MOV       ?V3,R3
        MOV       R6,?V2
        MOV       R7,?V3
        MOV       A,R6
        ORL       A,R7
        JNZ       ??zdoSendStateChangeMsg_1
//  442     {
//  443       // Upon failure to notify any EndPoint of the state change, re-set the ZDO event to
//  444       // try again later when more Heap may be available.
//  445       osal_set_event(ZDAppTaskID, ZDO_STATE_CHANGE_EVT);
        ; Setup parameters for call to function osal_set_event
        MOV       R2,#0x10
        MOV       R3,#0x0
        MOV       DPTR,#ZDAppTaskID
        MOVX      A,@DPTR
        MOV       R1,A
        LCALL     `??osal_set_event::?relay`; Banked call to: osal_set_event
        MOV       A,R1
        SJMP      ??zdoSendStateChangeMsg_2
//  446     }
//  447     else
//  448     {
//  449       pMsg->event = ZDO_STATE_CHANGE;
??zdoSendStateChangeMsg_1:
        MOV       DPL,R6
        MOV       DPH,R7
        MOV       A,#-0x2f
        MOVX      @DPTR,A
//  450       pMsg->status = state;
        MOV       A,?V1
        PUSH      A
          CFI CFA_SP SP+-1
        MOV       DPL,R6
        MOV       DPH,R7
        INC       DPTR
        POP       A
          CFI CFA_SP SP+0
        MOVX      @DPTR,A
//  451 
//  452       (void)osal_msg_send(taskId, (uint8 *)pMsg);
        ; Setup parameters for call to function osal_msg_send
        MOV       A,R6
        MOV       R2,A
        MOV       A,R7
        MOV       R3,A
        MOV       R1,?V0
        LCALL     `??osal_msg_send::?relay`; Banked call to: osal_msg_send
        MOV       A,R1
        PUSH      A
          CFI CFA_SP SP+-1
        MOV       DPL,?XSP + 0
        MOV       DPH,?XSP + 1
        POP       A
          CFI CFA_SP SP+0
        MOVX      @DPTR,A
        SJMP      ??zdoSendStateChangeMsg_2
//  453     }
//  454   }
//  455   else
//  456   {
//  457     // Modify in place the status of an existing ZDO_STATE_CHANGE message to the EndPoint.
//  458     pMsg->status = state;
??zdoSendStateChangeMsg_0:
        MOV       A,?V1
        PUSH      A
          CFI CFA_SP SP+-1
        MOV       DPL,R6
        MOV       DPH,R7
        INC       DPTR
        POP       A
          CFI CFA_SP SP+0
        MOVX      @DPTR,A
//  459   }
//  460 }
??zdoSendStateChangeMsg_2:
        MOV       A,#0x1
        LCALL     ?DEALLOC_XSTACK8
          CFI CFA_XSP16 add(XSP16, 12)
        MOV       R7,#0x4
        LJMP      ?BANKED_LEAVE_XDATA
          CFI EndBlock cfiBlock3
//  461 
//  462 /**************************************************************************************************
//  463  * @fn          ZDO_UpdateNwkStatus
//  464  *
//  465  * @brief       This function sends a ZDO_STATE_CHANGE message to the task of every EndPoint
//  466  *              registered with AF (except, of course, the ZDO_EP). Even if a single task has more
//  467  *              than one registered EndPoint, it will only receive one notification per state
//  468  *              change. Although the device may go through a sequence of state changes, the
//  469  *              Application task may only receive notification of the final, steady-state state
//  470  *              because it has the lowest priority and never even runs to receive the intermediate
//  471  *              state change notifications.
//  472  *
//  473  * input parameters
//  474  *
//  475  * @param       state - The current device state.
//  476  *
//  477  * output parameters
//  478  *
//  479  * None.
//  480  *
//  481  * @return      None.
//  482  **************************************************************************************************
//  483  */

        RSEG BANKED_CODE:HUGECODE:NOROOT(0)
//  484 void ZDO_UpdateNwkStatus(devStates_t state)
ZDO_UpdateNwkStatus:
          CFI Block cfiBlock4 Using cfiCommon0
          CFI Function ZDO_UpdateNwkStatus
        CODE
//  485 {
        FUNCALL ZDO_UpdateNwkStatus, zdoSendStateChangeMsg
        LOCFRAME ISTACK, 0, STACK
        LOCFRAME PSTACK, 0, STACK
        LOCFRAME XSTACK, 12, STACK
        LOCFRAME IOVERLAY, 0, STATIC
        LOCFRAME DOVERLAY, 0, STATIC
        ARGFRAME ISTACK, 0, STACK
        ARGFRAME PSTACK, 0, STACK
        ARGFRAME XSTACK, 12, STACK
        ARGFRAME IOVERLAY, 0, STATIC
        ARGFRAME DOVERLAY, 0, STATIC
        FUNCALL ZDO_UpdateNwkStatus, zdoSendStateChangeMsg
        LOCFRAME ISTACK, 0, STACK
        LOCFRAME PSTACK, 0, STACK
        LOCFRAME XSTACK, 12, STACK
        LOCFRAME IOVERLAY, 0, STATIC
        LOCFRAME DOVERLAY, 0, STATIC
        ARGFRAME ISTACK, 0, STACK
        ARGFRAME PSTACK, 0, STACK
        ARGFRAME XSTACK, 12, STACK
        ARGFRAME IOVERLAY, 0, STATIC
        ARGFRAME DOVERLAY, 0, STATIC
        FUNCALL ZDO_UpdateNwkStatus, NLME_GetShortAddr
        LOCFRAME ISTACK, 0, STACK
        LOCFRAME PSTACK, 0, STACK
        LOCFRAME XSTACK, 12, STACK
        LOCFRAME IOVERLAY, 0, STATIC
        LOCFRAME DOVERLAY, 0, STATIC
        ARGFRAME ISTACK, 0, STACK
        ARGFRAME PSTACK, 0, STACK
        ARGFRAME XSTACK, 12, STACK
        ARGFRAME IOVERLAY, 0, STATIC
        ARGFRAME DOVERLAY, 0, STATIC
        FUNCALL ZDO_UpdateNwkStatus, NLME_GetExtAddr
        LOCFRAME ISTACK, 0, STACK
        LOCFRAME PSTACK, 0, STACK
        LOCFRAME XSTACK, 12, STACK
        LOCFRAME IOVERLAY, 0, STATIC
        LOCFRAME DOVERLAY, 0, STATIC
        ARGFRAME ISTACK, 0, STACK
        ARGFRAME PSTACK, 0, STACK
        ARGFRAME XSTACK, 12, STACK
        ARGFRAME IOVERLAY, 0, STATIC
        ARGFRAME DOVERLAY, 0, STATIC
        REQUIRE ?V0
        REQUIRE ?V2
        REQUIRE ?V3
        MOV       A,#-0xc
        LCALL     ?BANKED_ENTER_XDATA
          CFI DPH0 load(1, XDATA, add(CFA_XSP16, literal(-1)))
          CFI DPL0 load(1, XDATA, add(CFA_XSP16, literal(-2)))
          CFI ?BRET_EXT load(1, XDATA, add(CFA_XSP16, literal(-3)))
          CFI ?RET_HIGH load(1, XDATA, add(CFA_XSP16, literal(-4)))
          CFI ?RET_LOW load(1, XDATA, add(CFA_XSP16, literal(-5)))
          CFI R7 load(1, XDATA, add(CFA_XSP16, literal(-6)))
          CFI V3 load(1, XDATA, add(CFA_XSP16, literal(-7)))
          CFI V2 load(1, XDATA, add(CFA_XSP16, literal(-8)))
          CFI V1 load(1, XDATA, add(CFA_XSP16, literal(-9)))
          CFI V0 load(1, XDATA, add(CFA_XSP16, literal(-10)))
          CFI VB load(1, XDATA, add(CFA_XSP16, literal(-11)))
          CFI R6 load(1, XDATA, add(CFA_XSP16, literal(-12)))
          CFI CFA_SP SP+0
          CFI CFA_XSP16 add(XSP16, 12)
        ; Saved register size: 12
        ; Auto size: 0
        MOV       ?V0,R1
//  486   epList_t *pItem = epList;
        MOV       DPTR,#epList
        MOVX      A,@DPTR
        MOV       R6,A
        INC       DPTR
        MOVX      A,@DPTR
        MOV       R7,A
//  487 
//  488 #if defined MT_ZDO_CB_FUNC
//  489   if ( zdpExternalStateTaskID == -1 )
//  490   {
//  491     zdpExternalStateTaskID = MT_TaskID;
//  492   }
//  493 #endif
//  494 
//  495   while (pItem != NULL)
??ZDO_UpdateNwkStatus_0:
        MOV       A,R6
        ORL       A,R7
        JZ        ??ZDO_UpdateNwkStatus_1
//  496   {
//  497     if (pItem->epDesc->endPoint != ZDO_EP)
        MOV       DPL,R6
        MOV       DPH,R7
        INC       DPTR
        INC       DPTR
        MOVX      A,@DPTR
        MOV       R0,A
        INC       DPTR
        MOVX      A,@DPTR
        MOV       DPH,A
        MOV       DPL,R0
        MOVX      A,@DPTR
        JZ        ??ZDO_UpdateNwkStatus_2
//  498     {
//  499       zdoSendStateChangeMsg(state, *(pItem->epDesc->task_id));
        ; Setup parameters for call to function zdoSendStateChangeMsg
        MOV       DPL,R6
        MOV       DPH,R7
        INC       DPTR
        INC       DPTR
        MOVX      A,@DPTR
        MOV       R0,A
        INC       DPTR
        MOVX      A,@DPTR
        MOV       DPH,A
        MOV       DPL,R0
        INC       DPTR
        INC       DPTR
        MOVX      A,@DPTR
        MOV       R0,A
        INC       DPTR
        MOVX      A,@DPTR
        MOV       DPH,A
        MOV       DPL,R0
        MOVX      A,@DPTR
        MOV       R2,A
        MOV       R1,?V0
        LCALL     `??zdoSendStateChangeMsg::?relay`; Banked call to: zdoSendStateChangeMsg
//  500     }
//  501 
//  502     pItem = pItem->nextDesc;
??ZDO_UpdateNwkStatus_2:
        MOV       DPL,R6
        MOV       DPH,R7
        MOVX      A,@DPTR
        MOV       R0,A
        INC       DPTR
        MOVX      A,@DPTR
        MOV       R1,A
        MOV       A,R0
        MOV       R6,A
        MOV       A,R1
        MOV       R7,A
        SJMP      ??ZDO_UpdateNwkStatus_0
//  503   }
//  504 
//  505   if ( zdpExternalStateTaskID != -1 )
??ZDO_UpdateNwkStatus_1:
        MOV       DPTR,#zdpExternalStateTaskID
        MOVX      A,@DPTR
        XRL       A,#0xff
        JNZ       ??ZDO_UpdateNwkStatus_3
        INC       DPTR
        MOVX      A,@DPTR
        XRL       A,#0xff
??ZDO_UpdateNwkStatus_3:
        JZ        ??ZDO_UpdateNwkStatus_4
//  506   {
//  507     zdoSendStateChangeMsg( state, zdpExternalStateTaskID );
        ; Setup parameters for call to function zdoSendStateChangeMsg
        MOV       DPTR,#zdpExternalStateTaskID
        MOVX      A,@DPTR
        MOV       R2,A
        INC       DPTR
        MOVX      A,@DPTR
        MOV       R3,A
        MOV       R1,?V0
        LCALL     `??zdoSendStateChangeMsg::?relay`; Banked call to: zdoSendStateChangeMsg
//  508   }
//  509 
//  510   ZDAppNwkAddr.addr.shortAddr = NLME_GetShortAddr();
??ZDO_UpdateNwkStatus_4:
        ; Setup parameters for call to function NLME_GetShortAddr
        LCALL     `??NLME_GetShortAddr::?relay`; Banked call to: NLME_GetShortAddr
        MOV       DPTR,#ZDAppNwkAddr
        MOV       A,R2
        MOVX      @DPTR,A
        INC       DPTR
        MOV       A,R3
        MOVX      @DPTR,A
//  511   (void)NLME_GetExtAddr();  // Load the saveExtAddr pointer.
        ; Setup parameters for call to function NLME_GetExtAddr
        LCALL     `??NLME_GetExtAddr::?relay`; Banked call to: NLME_GetExtAddr
        MOV       ?V2,R2
        MOV       ?V3,R3
        MOV       DPL,?V2
        MOV       DPH,?V3
//  512 }
        MOV       R7,#0x4
        LJMP      ?BANKED_LEAVE_XDATA
          CFI EndBlock cfiBlock4
//  513 
//  514 #if defined ( REFLECTOR )
//  515 /*********************************************************************
//  516  * @fn          ZDO_RemoveEndDeviceBind
//  517  *
//  518  * @brief       Remove the end device bind
//  519  *
//  520  * @param  none
//  521  *
//  522  * @return      none
//  523  */

        RSEG BANKED_CODE:HUGECODE:NOROOT(0)
//  524 static void ZDO_RemoveEndDeviceBind( void )
ZDO_RemoveEndDeviceBind:
          CFI Block cfiBlock5 Using cfiCommon0
          CFI Function ZDO_RemoveEndDeviceBind
        CODE
//  525 {
        FUNCALL ZDO_RemoveEndDeviceBind, osal_mem_free
        LOCFRAME ISTACK, 2, STACK
        LOCFRAME PSTACK, 0, STACK
        LOCFRAME XSTACK, 0, STACK
        LOCFRAME IOVERLAY, 0, STATIC
        LOCFRAME DOVERLAY, 0, STATIC
        ARGFRAME ISTACK, 2, STACK
        ARGFRAME PSTACK, 0, STACK
        ARGFRAME XSTACK, 0, STACK
        ARGFRAME IOVERLAY, 0, STATIC
        ARGFRAME DOVERLAY, 0, STATIC
        FUNCALL ZDO_RemoveEndDeviceBind, osal_mem_free
        LOCFRAME ISTACK, 2, STACK
        LOCFRAME PSTACK, 0, STACK
        LOCFRAME XSTACK, 0, STACK
        LOCFRAME IOVERLAY, 0, STATIC
        LOCFRAME DOVERLAY, 0, STATIC
        ARGFRAME ISTACK, 2, STACK
        ARGFRAME PSTACK, 0, STACK
        ARGFRAME XSTACK, 0, STACK
        ARGFRAME IOVERLAY, 0, STATIC
        ARGFRAME DOVERLAY, 0, STATIC
        FUNCALL ZDO_RemoveEndDeviceBind, osal_mem_free
        LOCFRAME ISTACK, 2, STACK
        LOCFRAME PSTACK, 0, STACK
        LOCFRAME XSTACK, 0, STACK
        LOCFRAME IOVERLAY, 0, STATIC
        LOCFRAME DOVERLAY, 0, STATIC
        ARGFRAME ISTACK, 2, STACK
        ARGFRAME PSTACK, 0, STACK
        ARGFRAME XSTACK, 0, STACK
        ARGFRAME IOVERLAY, 0, STATIC
        ARGFRAME DOVERLAY, 0, STATIC
        PUSH      DPL
          CFI DPL0 Frame(CFA_SP, 4)
          CFI CFA_SP SP+-4
        PUSH      DPH
          CFI DPH0 Frame(CFA_SP, 5)
          CFI CFA_SP SP+-5
        ; Saved register size: 2
        ; Auto size: 0
//  526   if ( ZDO_EDBind != NULL )
        MOV       DPTR,#ZDO_EDBind
        MOVX      A,@DPTR
        MOV       R0,A
        INC       DPTR
        MOVX      A,@DPTR
        MOV       R1,A
        MOV       A,R0
        ORL       A,R1
        JZ        ??ZDO_RemoveEndDeviceBind_0
//  527   {
//  528     // Free the RAM
//  529     if ( ZDO_EDBind->inClusters != NULL )
        MOV       DPTR,#ZDO_EDBind
        MOVX      A,@DPTR
        MOV       R0,A
        INC       DPTR
        MOVX      A,@DPTR
        XCH       A,R0
        ADD       A,#0x10
        MOV       DPL,A
        XCH       A,R0
        ADDC      A,#0x0
        MOV       DPH,A
        MOVX      A,@DPTR
        MOV       R0,A
        INC       DPTR
        MOVX      A,@DPTR
        MOV       R1,A
        MOV       A,R0
        ORL       A,R1
        JZ        ??ZDO_RemoveEndDeviceBind_1
//  530     {
//  531       osal_mem_free( ZDO_EDBind->inClusters );
        ; Setup parameters for call to function osal_mem_free
        MOV       DPTR,#ZDO_EDBind
        MOVX      A,@DPTR
        MOV       R0,A
        INC       DPTR
        MOVX      A,@DPTR
        XCH       A,R0
        ADD       A,#0x10
        MOV       DPL,A
        XCH       A,R0
        ADDC      A,#0x0
        MOV       DPH,A
        MOVX      A,@DPTR
        MOV       R2,A
        INC       DPTR
        MOVX      A,@DPTR
        MOV       R3,A
        LCALL     `??osal_mem_free::?relay`; Banked call to: osal_mem_free
//  532     }
//  533     if ( ZDO_EDBind->outClusters != NULL )
??ZDO_RemoveEndDeviceBind_1:
        MOV       DPTR,#ZDO_EDBind
        MOVX      A,@DPTR
        MOV       R0,A
        INC       DPTR
        MOVX      A,@DPTR
        XCH       A,R0
        ADD       A,#0x13
        MOV       DPL,A
        XCH       A,R0
        ADDC      A,#0x0
        MOV       DPH,A
        MOVX      A,@DPTR
        MOV       R0,A
        INC       DPTR
        MOVX      A,@DPTR
        MOV       R1,A
        MOV       A,R0
        ORL       A,R1
        JZ        ??ZDO_RemoveEndDeviceBind_2
//  534     {
//  535       osal_mem_free( ZDO_EDBind->outClusters );
        ; Setup parameters for call to function osal_mem_free
        MOV       DPTR,#ZDO_EDBind
        MOVX      A,@DPTR
        MOV       R0,A
        INC       DPTR
        MOVX      A,@DPTR
        XCH       A,R0
        ADD       A,#0x13
        MOV       DPL,A
        XCH       A,R0
        ADDC      A,#0x0
        MOV       DPH,A
        MOVX      A,@DPTR
        MOV       R2,A
        INC       DPTR
        MOVX      A,@DPTR
        MOV       R3,A
        LCALL     `??osal_mem_free::?relay`; Banked call to: osal_mem_free
//  536     }
//  537     osal_mem_free( ZDO_EDBind );
??ZDO_RemoveEndDeviceBind_2:
        ; Setup parameters for call to function osal_mem_free
        MOV       DPTR,#ZDO_EDBind
        MOVX      A,@DPTR
        MOV       R2,A
        INC       DPTR
        MOVX      A,@DPTR
        MOV       R3,A
        LCALL     `??osal_mem_free::?relay`; Banked call to: osal_mem_free
//  538     ZDO_EDBind = NULL;
        MOV       DPTR,#ZDO_EDBind
        MOV       A,#0x0
        MOVX      @DPTR,A
        INC       DPTR
        MOV       A,#0x0
        MOVX      @DPTR,A
//  539   }
//  540 }
??ZDO_RemoveEndDeviceBind_0:
        POP       DPH
          CFI DPH0 SameValue
          CFI CFA_SP SP+-4
        POP       DPL
          CFI DPL0 SameValue
          CFI CFA_SP SP+-3
        LJMP      ?BRET
          CFI EndBlock cfiBlock5
//  541 #endif // REFLECTOR
//  542 
//  543 #if defined ( REFLECTOR )
//  544 /*********************************************************************
//  545  * @fn          ZDO_SendEDBindRsp
//  546  *
//  547  * @brief       Send the end device bind response
//  548  *
//  549  * @param  none
//  550  *
//  551  * @return      none
//  552  */

        RSEG BANKED_CODE:HUGECODE:NOROOT(0)
//  553 static void ZDO_SendEDBindRsp( byte TransSeq, zAddrType_t *dstAddr, byte Status, byte secUse )
ZDO_SendEDBindRsp:
          CFI Block cfiBlock6 Using cfiCommon0
          CFI Function ZDO_SendEDBindRsp
        CODE
//  554 {
        FUNCALL ZDO_SendEDBindRsp, ZDP_SendData
        LOCFRAME ISTACK, 0, STACK
        LOCFRAME PSTACK, 0, STACK
        LOCFRAME XSTACK, 19, STACK
        LOCFRAME IOVERLAY, 0, STATIC
        LOCFRAME DOVERLAY, 0, STATIC
        ARGFRAME ISTACK, 0, STACK
        ARGFRAME PSTACK, 0, STACK
        ARGFRAME XSTACK, 19, STACK
        ARGFRAME IOVERLAY, 0, STATIC
        ARGFRAME DOVERLAY, 0, STATIC
        FUNCALL ZDO_SendEDBindRsp, HalLcdWriteString
        LOCFRAME ISTACK, 0, STACK
        LOCFRAME PSTACK, 0, STACK
        LOCFRAME XSTACK, 14, STACK
        LOCFRAME IOVERLAY, 0, STATIC
        LOCFRAME DOVERLAY, 0, STATIC
        ARGFRAME ISTACK, 0, STACK
        ARGFRAME PSTACK, 0, STACK
        ARGFRAME XSTACK, 14, STACK
        ARGFRAME IOVERLAY, 0, STATIC
        ARGFRAME DOVERLAY, 0, STATIC
        FUNCALL ZDO_SendEDBindRsp, HalLcdWriteString
        LOCFRAME ISTACK, 0, STACK
        LOCFRAME PSTACK, 0, STACK
        LOCFRAME XSTACK, 14, STACK
        LOCFRAME IOVERLAY, 0, STATIC
        LOCFRAME DOVERLAY, 0, STATIC
        ARGFRAME ISTACK, 0, STACK
        ARGFRAME PSTACK, 0, STACK
        ARGFRAME XSTACK, 14, STACK
        ARGFRAME IOVERLAY, 0, STATIC
        ARGFRAME DOVERLAY, 0, STATIC
        FUNCALL ZDO_SendEDBindRsp, HalLcdWriteString
        LOCFRAME ISTACK, 0, STACK
        LOCFRAME PSTACK, 0, STACK
        LOCFRAME XSTACK, 14, STACK
        LOCFRAME IOVERLAY, 0, STATIC
        LOCFRAME DOVERLAY, 0, STATIC
        ARGFRAME ISTACK, 0, STACK
        ARGFRAME PSTACK, 0, STACK
        ARGFRAME XSTACK, 14, STACK
        ARGFRAME IOVERLAY, 0, STATIC
        ARGFRAME DOVERLAY, 0, STATIC
        REQUIRE ?V0
        REQUIRE ?V1
        REQUIRE ?V2
        REQUIRE ?V3
        MOV       A,#-0xc
        LCALL     ?BANKED_ENTER_XDATA
          CFI DPH0 load(1, XDATA, add(CFA_XSP16, literal(-1)))
          CFI DPL0 load(1, XDATA, add(CFA_XSP16, literal(-2)))
          CFI ?BRET_EXT load(1, XDATA, add(CFA_XSP16, literal(-3)))
          CFI ?RET_HIGH load(1, XDATA, add(CFA_XSP16, literal(-4)))
          CFI ?RET_LOW load(1, XDATA, add(CFA_XSP16, literal(-5)))
          CFI R7 load(1, XDATA, add(CFA_XSP16, literal(-6)))
          CFI V3 load(1, XDATA, add(CFA_XSP16, literal(-7)))
          CFI V2 load(1, XDATA, add(CFA_XSP16, literal(-8)))
          CFI V1 load(1, XDATA, add(CFA_XSP16, literal(-9)))
          CFI V0 load(1, XDATA, add(CFA_XSP16, literal(-10)))
          CFI VB load(1, XDATA, add(CFA_XSP16, literal(-11)))
          CFI R6 load(1, XDATA, add(CFA_XSP16, literal(-12)))
          CFI CFA_SP SP+0
          CFI CFA_XSP16 add(XSP16, 12)
        ; Saved register size: 12
        ; Auto size: 2
        MOV       A,#-0x2
        LCALL     ?ALLOC_XSTACK8
          CFI CFA_XSP16 add(XSP16, 14)
        MOV       A,R1
        PUSH      A
          CFI CFA_SP SP+-1
        MOV       A,#0x1
        LCALL     ?XSTACK_DISP0_8
        POP       A
          CFI CFA_SP SP+0
        MOVX      @DPTR,A
        MOV       A,R4
        PUSH      A
          CFI CFA_SP SP+-1
        MOV       DPL,?XSP + 0
        MOV       DPH,?XSP + 1
        POP       A
          CFI CFA_SP SP+0
        MOVX      @DPTR,A
        MOV       A,R2
        MOV       R6,A
        MOV       A,R3
        MOV       R7,A
        MOV       ?V0,R5
//  555   ZDP_EndDeviceBindRsp( TransSeq, dstAddr, Status, secUse );
        ; Setup parameters for call to function ZDP_SendData
        MOV       A,?V0
        MOV       ?V1,A
        MOV       R0,#?V1
        LCALL     ?PUSH_XSTACK_I_ONE
          CFI CFA_XSP16 add(XSP16, 15)
        MOV       A,#0x1
        LCALL     ?XSTACK_DISP100_8
        MOV       ?V2,R0
        MOV       ?V3,R1
        MOV       R0,#?V2
        LCALL     ?PUSH_XSTACK_I_TWO
          CFI CFA_XSP16 add(XSP16, 17)
        MOV       ?V2,#0x20
        MOV       ?V3,#-0x80
        MOV       R0,#?V2
        LCALL     ?PUSH_XSTACK_I_TWO
          CFI CFA_XSP16 add(XSP16, 19)
        MOV       R1,#0x1
        MOV       A,R6
        MOV       R4,A
        MOV       A,R7
        MOV       R5,A
        MOV       A,#0x6
        LCALL     ?XSTACK_DISP101_8
        LCALL     `??ZDP_SendData::?relay`; Banked call to: ZDP_SendData
        MOV       A,#0x5
        LCALL     ?DEALLOC_XSTACK8
          CFI CFA_XSP16 add(XSP16, 14)
        MOV       A,R1
//  556 
//  557 #if defined( LCD_SUPPORTED )
//  558   HalLcdWriteString( "End Device Bind", HAL_LCD_LINE_1 );
        ; Setup parameters for call to function HalLcdWriteString
        MOV       R1,#0x1
        MOV       R2,#`?<Constant "End Device Bind">` & 0xff
        MOV       R3,#(`?<Constant "End Device Bind">` >> 8) & 0xff
        LCALL     `??HalLcdWriteString::?relay`; Banked call to: HalLcdWriteString
//  559   if ( Status == ZDP_SUCCESS )
        MOV       DPL,?XSP + 0
        MOV       DPH,?XSP + 1
        MOVX      A,@DPTR
        JNZ       ??ZDO_SendEDBindRsp_0
//  560   {
//  561     HalLcdWriteString( "Success Sent", HAL_LCD_LINE_2 );
        ; Setup parameters for call to function HalLcdWriteString
        MOV       R1,#0x2
        MOV       R2,#`?<Constant "Success Sent">` & 0xff
        MOV       R3,#(`?<Constant "Success Sent">` >> 8) & 0xff
        LCALL     `??HalLcdWriteString::?relay`; Banked call to: HalLcdWriteString
        SJMP      ??ZDO_SendEDBindRsp_1
//  562   }
//  563   else
//  564   {
//  565     HalLcdWriteString( "Timeout", HAL_LCD_LINE_2 );
??ZDO_SendEDBindRsp_0:
        ; Setup parameters for call to function HalLcdWriteString
        MOV       R1,#0x2
        MOV       R2,#`?<Constant "Timeout">` & 0xff
        MOV       R3,#(`?<Constant "Timeout">` >> 8) & 0xff
        LCALL     `??HalLcdWriteString::?relay`; Banked call to: HalLcdWriteString
//  566   }
//  567 #endif
//  568 
//  569 }
??ZDO_SendEDBindRsp_1:
        MOV       A,#0x2
        LCALL     ?DEALLOC_XSTACK8
          CFI CFA_XSP16 add(XSP16, 12)
        MOV       R7,#0x4
        LJMP      ?BANKED_LEAVE_XDATA
          CFI EndBlock cfiBlock6
//  570 #endif // REFLECTOR
//  571 
//  572 #if ( ZG_BUILD_COORDINATOR_TYPE )
//  573 /*********************************************************************
//  574  * @fn          ZDO_CompareClusterLists
//  575  *
//  576  * @brief       Compare one list to another list
//  577  *
//  578  * @param       numList1 - number of items in list 1
//  579  * @param       list1 - first list of cluster IDs
//  580  * @param       numList2 - number of items in list 2
//  581  * @param       list2 - second list of cluster IDs
//  582  * @param       pMatches - buffer to put matches
//  583  *
//  584  * @return      number of matches
//  585  */
//  586 static byte ZDO_CompareClusterLists( byte numList1, uint16 *list1,
//  587                           byte numList2, uint16 *list2, uint16 *pMatches )
//  588 {
//  589   byte x, y;
//  590   uint16 z;
//  591   byte numMatches = 0;
//  592 
//  593   // Check the first in against the seconds out
//  594   for ( x = 0; x < numList1; x++ )
//  595   {
//  596     for ( y = 0; y < numList2; y++ )
//  597     {
//  598       z = list2[y];
//  599       if ( list1[x] == z )
//  600       {
//  601         pMatches[numMatches++] = z;
//  602       }
//  603     }
//  604   }
//  605 
//  606   return ( numMatches );
//  607 }
//  608 #endif // ZG_BUILD_COORDINATOR_TYPE
//  609 
//  610 /*********************************************************************
//  611  * Utility functions
//  612  */
//  613 
//  614 /*********************************************************************
//  615  * @fn          ZDO_CompareByteLists
//  616  *
//  617  * @brief       Compares two lists for matches.
//  618  *
//  619  * @param       ACnt  - number of entries in list A
//  620  * @param       AList  - List A
//  621  * @param       BCnt  - number of entries in list B
//  622  * @param       BList  - List B
//  623  *
//  624  * @return      true if a match is found
//  625  */

        RSEG BANKED_CODE:HUGECODE:NOROOT(0)
//  626 byte ZDO_AnyClusterMatches( byte ACnt, uint16 *AList, byte BCnt, uint16 *BList )
ZDO_AnyClusterMatches:
          CFI Block cfiBlock7 Using cfiCommon0
          CFI Function ZDO_AnyClusterMatches
        CODE
//  627 {
        REQUIRE ?V0
        REQUIRE ?V1
        REQUIRE ?V2
        REQUIRE ?V3
        REQUIRE ?V4
        MOV       A,#-0xd
        LCALL     ?BANKED_ENTER_XDATA
          CFI DPH0 load(1, XDATA, add(CFA_XSP16, literal(-1)))
          CFI DPL0 load(1, XDATA, add(CFA_XSP16, literal(-2)))
          CFI ?BRET_EXT load(1, XDATA, add(CFA_XSP16, literal(-3)))
          CFI ?RET_HIGH load(1, XDATA, add(CFA_XSP16, literal(-4)))
          CFI ?RET_LOW load(1, XDATA, add(CFA_XSP16, literal(-5)))
          CFI R7 load(1, XDATA, add(CFA_XSP16, literal(-6)))
          CFI V4 load(1, XDATA, add(CFA_XSP16, literal(-7)))
          CFI V3 load(1, XDATA, add(CFA_XSP16, literal(-8)))
          CFI V2 load(1, XDATA, add(CFA_XSP16, literal(-9)))
          CFI V1 load(1, XDATA, add(CFA_XSP16, literal(-10)))
          CFI V0 load(1, XDATA, add(CFA_XSP16, literal(-11)))
          CFI VB load(1, XDATA, add(CFA_XSP16, literal(-12)))
          CFI R6 load(1, XDATA, add(CFA_XSP16, literal(-13)))
          CFI CFA_SP SP+0
          CFI CFA_XSP16 add(XSP16, 13)
        ; Saved register size: 13
        ; Auto size: 0
        MOV       ?V4,R1
        MOV       ?V2,R4
        MOV       A,#0xd
        LCALL     ?XSTACK_DISP0_8
        MOVX      A,@DPTR
        MOV       R0,A
        INC       DPTR
        MOVX      A,@DPTR
        MOV       R1,A
        MOV       A,R0
        MOV       R4,A
        MOV       A,R1
        MOV       R5,A
//  628   byte x, y;
//  629 
//  630   for ( x = 0; x < ACnt; x++ )
        MOV       ?V1,#0x0
??ZDO_AnyClusterMatches_0:
        MOV       A,?V1
        CLR       C
        SUBB      A,?V4
        JNC       ??ZDO_AnyClusterMatches_1
//  631   {
//  632     for ( y = 0; y < BCnt; y++ )
        MOV       ?V0,#0x0
??ZDO_AnyClusterMatches_2:
        MOV       A,?V0
        CLR       C
        SUBB      A,?V2
        JNC       ??ZDO_AnyClusterMatches_3
//  633     {
//  634       if ( AList[x] == BList[y] )
        MOV       A,?V1
        MOV       R0,A
        MOV       R1,#0x0
        MOV       A,R0
        MOV       B,#0x2
        MUL       AB
        XCH       A,R0
        MOV       R6,B
        MOV       B,#0x0
        MUL       AB
        ADD       A,R6
        MOV       R6,A
        MOV       B,#0x2
        MOV       A,R1
        MUL       AB
        ADD       A,R6
        MOV       R1,A
        MOV       A,R2
        ADD       A,R0
        MOV       DPL,A
        MOV       A,R3
        ADDC      A,R1
        MOV       DPH,A
        MOVX      A,@DPTR
        MOV       R0,A
        INC       DPTR
        MOVX      A,@DPTR
        MOV       R1,A
        MOV       A,?V0
        MOV       R6,A
        MOV       R7,#0x0
        MOV       A,R6
        MOV       B,#0x2
        MUL       AB
        XCH       A,R6
        MOV       ?V3,B
        MOV       B,#0x0
        MUL       AB
        ADD       A,?V3
        MOV       ?V3,A
        MOV       B,#0x2
        MOV       A,R7
        MUL       AB
        ADD       A,?V3
        MOV       R7,A
        MOV       A,R4
        ADD       A,R6
        MOV       DPL,A
        MOV       A,R5
        ADDC      A,R7
        MOV       DPH,A
        MOVX      A,@DPTR
        XRL       A,R0
        JNZ       ??ZDO_AnyClusterMatches_4
        INC       DPTR
        MOVX      A,@DPTR
        XRL       A,R1
??ZDO_AnyClusterMatches_4:
        JNZ       ??ZDO_AnyClusterMatches_5
//  635       {
//  636         return true;
        MOV       R1,#0x1
        SJMP      ??ZDO_AnyClusterMatches_6
//  637       }
//  638     }
??ZDO_AnyClusterMatches_5:
        INC       ?V0
        SJMP      ??ZDO_AnyClusterMatches_2
//  639   }
??ZDO_AnyClusterMatches_3:
        INC       ?V1
        SJMP      ??ZDO_AnyClusterMatches_0
//  640 
//  641   return false;
??ZDO_AnyClusterMatches_1:
        MOV       R1,#0x0
??ZDO_AnyClusterMatches_6:
        MOV       R7,#0x5
        LJMP      ?BANKED_LEAVE_XDATA
//  642 }
          CFI EndBlock cfiBlock7
//  643 
//  644 /*********************************************************************
//  645  * Callback functions from ZDProfile
//  646  */
//  647 
//  648 
//  649 /*********************************************************************
//  650  * @fn          ZDO_ProcessNodeDescRsp
//  651  *
//  652  * @brief       This function processes the Node_Desc_rsp and request
//  653  *              Update the TC Link key if the TC supports it.
//  654  *
//  655  * @param       inMsg - incoming message
//  656  *
//  657  * @return      none
//  658  */

        RSEG BANKED_CODE:HUGECODE:NOROOT(0)
//  659 void ZDO_ProcessNodeDescRsp ( zdoIncomingMsg_t *inMsg )
ZDO_ProcessNodeDescRsp:
          CFI Block cfiBlock8 Using cfiCommon0
          CFI Function ZDO_ProcessNodeDescRsp
        CODE
//  660 {
        ; Saved register size: 0
        ; Auto size: 0
//  661 }
        LJMP      ?BRET
          CFI EndBlock cfiBlock8
//  662 
//  663 
//  664 
//  665 /*********************************************************************
//  666  * @fn          ZDO_ProcessNodeDescReq
//  667  *
//  668  * @brief       This function processes and responds to the
//  669  *              Node_Desc_req message.
//  670  *
//  671  * @param       inMsg - incoming message
//  672  *
//  673  * @return      none
//  674  */

        RSEG BANKED_CODE:HUGECODE:NOROOT(0)
//  675 void ZDO_ProcessNodeDescReq( zdoIncomingMsg_t *inMsg )
ZDO_ProcessNodeDescReq:
          CFI Block cfiBlock9 Using cfiCommon0
          CFI Function ZDO_ProcessNodeDescReq
        CODE
//  676 {
        FUNCALL ZDO_ProcessNodeDescReq, ZDP_NodeDescMsg
        LOCFRAME ISTACK, 0, STACK
        LOCFRAME PSTACK, 0, STACK
        LOCFRAME XSTACK, 16, STACK
        LOCFRAME IOVERLAY, 0, STATIC
        LOCFRAME DOVERLAY, 0, STATIC
        ARGFRAME ISTACK, 0, STACK
        ARGFRAME PSTACK, 0, STACK
        ARGFRAME XSTACK, 16, STACK
        ARGFRAME IOVERLAY, 0, STATIC
        ARGFRAME DOVERLAY, 0, STATIC
        FUNCALL ZDO_ProcessNodeDescReq, ZDP_GenericRsp
        LOCFRAME ISTACK, 0, STACK
        LOCFRAME PSTACK, 0, STACK
        LOCFRAME XSTACK, 18, STACK
        LOCFRAME IOVERLAY, 0, STATIC
        LOCFRAME DOVERLAY, 0, STATIC
        ARGFRAME ISTACK, 0, STACK
        ARGFRAME PSTACK, 0, STACK
        ARGFRAME XSTACK, 18, STACK
        ARGFRAME IOVERLAY, 0, STATIC
        ARGFRAME DOVERLAY, 0, STATIC
        REQUIRE ?V0
        REQUIRE ?V1
        REQUIRE ?V2
        REQUIRE ?V3
        REQUIRE ?V4
        REQUIRE ?V5
        MOV       A,#-0xe
        LCALL     ?BANKED_ENTER_XDATA
          CFI DPH0 load(1, XDATA, add(CFA_XSP16, literal(-1)))
          CFI DPL0 load(1, XDATA, add(CFA_XSP16, literal(-2)))
          CFI ?BRET_EXT load(1, XDATA, add(CFA_XSP16, literal(-3)))
          CFI ?RET_HIGH load(1, XDATA, add(CFA_XSP16, literal(-4)))
          CFI ?RET_LOW load(1, XDATA, add(CFA_XSP16, literal(-5)))
          CFI R7 load(1, XDATA, add(CFA_XSP16, literal(-6)))
          CFI V5 load(1, XDATA, add(CFA_XSP16, literal(-7)))
          CFI V4 load(1, XDATA, add(CFA_XSP16, literal(-8)))
          CFI V3 load(1, XDATA, add(CFA_XSP16, literal(-9)))
          CFI V2 load(1, XDATA, add(CFA_XSP16, literal(-10)))
          CFI V1 load(1, XDATA, add(CFA_XSP16, literal(-11)))
          CFI V0 load(1, XDATA, add(CFA_XSP16, literal(-12)))
          CFI VB load(1, XDATA, add(CFA_XSP16, literal(-13)))
          CFI R6 load(1, XDATA, add(CFA_XSP16, literal(-14)))
          CFI CFA_SP SP+0
          CFI CFA_XSP16 add(XSP16, 14)
        ; Saved register size: 14
        ; Auto size: 0
        MOV       A,R2
        MOV       R6,A
        MOV       A,R3
        MOV       R7,A
//  677   uint16 aoi = BUILD_UINT16( inMsg->asdu[0], inMsg->asdu[1] );
        MOV       A,R6
        ADD       A,#0x13
        MOV       DPL,A
        CLR       A
        ADDC      A,R7
        MOV       DPH,A
        MOVX      A,@DPTR
        MOV       R0,A
        INC       DPTR
        MOVX      A,@DPTR
        MOV       DPH,A
        MOV       DPL,R0
        MOVX      A,@DPTR
        MOV       R2,A
        MOV       R3,#0x0
        MOV       A,R6
        ADD       A,#0x13
        MOV       DPL,A
        CLR       A
        ADDC      A,R7
        MOV       DPH,A
        MOVX      A,@DPTR
        MOV       R0,A
        INC       DPTR
        MOVX      A,@DPTR
        MOV       DPH,A
        MOV       DPL,R0
        INC       DPTR
        MOVX      A,@DPTR
        MOV       R0,A
        MOV       R1,#0x0
        CLR       A
        XCH       A,R0
        MOV       R1,A
        MOV       A,R2
        ADD       A,R0
        MOV       ?V0,A
        MOV       A,R3
        ADDC      A,R1
        MOV       ?V1,A
//  678   NodeDescriptorFormat_t *desc = NULL;
        MOV       ?V2,#0x0
        MOV       ?V3,#0x0
//  679 
//  680   if ( aoi == ZDAppNwkAddr.addr.shortAddr )
        MOV       DPTR,#ZDAppNwkAddr
        MOVX      A,@DPTR
        XRL       A,?V0
        JNZ       ??ZDO_ProcessNodeDescReq_0
        INC       DPTR
        MOVX      A,@DPTR
        XRL       A,?V1
??ZDO_ProcessNodeDescReq_0:
        JNZ       ??ZDO_ProcessNodeDescReq_1
//  681   {
//  682     desc = &ZDO_Config_Node_Descriptor;
        MOV       ?V2,#ZDO_Config_Node_Descriptor & 0xff
        MOV       ?V3,#(ZDO_Config_Node_Descriptor >> 8) & 0xff
//  683   }
//  684 
//  685   if ( desc != NULL )
??ZDO_ProcessNodeDescReq_1:
        MOV       A,?V2
        ORL       A,?V3
        JZ        ??ZDO_ProcessNodeDescReq_2
//  686   {
//  687     ZDP_NodeDescMsg( inMsg, aoi, desc );
        ; Setup parameters for call to function ZDP_NodeDescMsg
        MOV       R0,#?V2
        LCALL     ?PUSH_XSTACK_I_TWO
          CFI CFA_XSP16 add(XSP16, 16)
        MOV       R4,?V0
        MOV       R5,?V1
        MOV       A,R6
        MOV       R2,A
        MOV       A,R7
        MOV       R3,A
        LCALL     `??ZDP_NodeDescMsg::?relay`; Banked call to: ZDP_NodeDescMsg
        MOV       A,#0x2
        LCALL     ?DEALLOC_XSTACK8
          CFI CFA_XSP16 add(XSP16, 14)
        MOV       A,R1
        SJMP      ??ZDO_ProcessNodeDescReq_3
//  688   }
//  689   else
//  690   {
//  691     ZDP_GenericRsp( inMsg->TransSeq, &(inMsg->srcAddr),
//  692               ZDP_INVALID_REQTYPE, aoi, Node_Desc_rsp, inMsg->SecurityUse );
??ZDO_ProcessNodeDescReq_2:
        ; Setup parameters for call to function ZDP_GenericRsp
        MOV       ?V4,#0x2
        MOV       ?V5,#-0x80
        MOV       R0,#?V4
        LCALL     ?PUSH_XSTACK_I_TWO
          CFI CFA_XSP16 add(XSP16, 16)
        MOV       R0,#?V0
        LCALL     ?PUSH_XSTACK_I_TWO
          CFI CFA_XSP16 add(XSP16, 18)
        MOV       A,R6
        ADD       A,#0xe
        MOV       DPL,A
        CLR       A
        ADDC      A,R7
        MOV       DPH,A
        MOVX      A,@DPTR
        MOV       R5,A
        MOV       R4,#-0x80
        MOV       A,R6
        ADD       A,#0x2
        MOV       R2,A
        CLR       A
        ADDC      A,R7
        MOV       R3,A
        MOV       A,R6
        ADD       A,#0xf
        MOV       DPL,A
        CLR       A
        ADDC      A,R7
        MOV       DPH,A
        MOVX      A,@DPTR
        MOV       R1,A
        LCALL     `??ZDP_GenericRsp::?relay`; Banked call to: ZDP_GenericRsp
        MOV       A,#0x4
        LCALL     ?DEALLOC_XSTACK8
          CFI CFA_XSP16 add(XSP16, 14)
        MOV       A,R1
//  693   }
//  694 }
??ZDO_ProcessNodeDescReq_3:
        MOV       R7,#0x6
        LJMP      ?BANKED_LEAVE_XDATA
          CFI EndBlock cfiBlock9
//  695 
//  696 /*********************************************************************
//  697  * @fn          ZDO_ProcessPowerDescReq
//  698  *
//  699  * @brief       This function processes and responds to the
//  700  *              Node_Power_req message.
//  701  *
//  702  * @param       inMsg  - incoming request
//  703  *
//  704  * @return      none
//  705  */

        RSEG BANKED_CODE:HUGECODE:NOROOT(0)
//  706 void ZDO_ProcessPowerDescReq( zdoIncomingMsg_t *inMsg )
ZDO_ProcessPowerDescReq:
          CFI Block cfiBlock10 Using cfiCommon0
          CFI Function ZDO_ProcessPowerDescReq
        CODE
//  707 {
        FUNCALL ZDO_ProcessPowerDescReq, ZDP_PowerDescMsg
        LOCFRAME ISTACK, 0, STACK
        LOCFRAME PSTACK, 0, STACK
        LOCFRAME XSTACK, 16, STACK
        LOCFRAME IOVERLAY, 0, STATIC
        LOCFRAME DOVERLAY, 0, STATIC
        ARGFRAME ISTACK, 0, STACK
        ARGFRAME PSTACK, 0, STACK
        ARGFRAME XSTACK, 16, STACK
        ARGFRAME IOVERLAY, 0, STATIC
        ARGFRAME DOVERLAY, 0, STATIC
        FUNCALL ZDO_ProcessPowerDescReq, ZDP_GenericRsp
        LOCFRAME ISTACK, 0, STACK
        LOCFRAME PSTACK, 0, STACK
        LOCFRAME XSTACK, 18, STACK
        LOCFRAME IOVERLAY, 0, STATIC
        LOCFRAME DOVERLAY, 0, STATIC
        ARGFRAME ISTACK, 0, STACK
        ARGFRAME PSTACK, 0, STACK
        ARGFRAME XSTACK, 18, STACK
        ARGFRAME IOVERLAY, 0, STATIC
        ARGFRAME DOVERLAY, 0, STATIC
        REQUIRE ?V0
        REQUIRE ?V1
        REQUIRE ?V2
        REQUIRE ?V3
        REQUIRE ?V4
        REQUIRE ?V5
        MOV       A,#-0xe
        LCALL     ?BANKED_ENTER_XDATA
          CFI DPH0 load(1, XDATA, add(CFA_XSP16, literal(-1)))
          CFI DPL0 load(1, XDATA, add(CFA_XSP16, literal(-2)))
          CFI ?BRET_EXT load(1, XDATA, add(CFA_XSP16, literal(-3)))
          CFI ?RET_HIGH load(1, XDATA, add(CFA_XSP16, literal(-4)))
          CFI ?RET_LOW load(1, XDATA, add(CFA_XSP16, literal(-5)))
          CFI R7 load(1, XDATA, add(CFA_XSP16, literal(-6)))
          CFI V5 load(1, XDATA, add(CFA_XSP16, literal(-7)))
          CFI V4 load(1, XDATA, add(CFA_XSP16, literal(-8)))
          CFI V3 load(1, XDATA, add(CFA_XSP16, literal(-9)))
          CFI V2 load(1, XDATA, add(CFA_XSP16, literal(-10)))
          CFI V1 load(1, XDATA, add(CFA_XSP16, literal(-11)))
          CFI V0 load(1, XDATA, add(CFA_XSP16, literal(-12)))
          CFI VB load(1, XDATA, add(CFA_XSP16, literal(-13)))
          CFI R6 load(1, XDATA, add(CFA_XSP16, literal(-14)))
          CFI CFA_SP SP+0
          CFI CFA_XSP16 add(XSP16, 14)
        ; Saved register size: 14
        ; Auto size: 0
        MOV       A,R2
        MOV       R6,A
        MOV       A,R3
        MOV       R7,A
//  708   uint16 aoi = BUILD_UINT16( inMsg->asdu[0], inMsg->asdu[1] );
        MOV       A,R6
        ADD       A,#0x13
        MOV       DPL,A
        CLR       A
        ADDC      A,R7
        MOV       DPH,A
        MOVX      A,@DPTR
        MOV       R0,A
        INC       DPTR
        MOVX      A,@DPTR
        MOV       DPH,A
        MOV       DPL,R0
        MOVX      A,@DPTR
        MOV       R2,A
        MOV       R3,#0x0
        MOV       A,R6
        ADD       A,#0x13
        MOV       DPL,A
        CLR       A
        ADDC      A,R7
        MOV       DPH,A
        MOVX      A,@DPTR
        MOV       R0,A
        INC       DPTR
        MOVX      A,@DPTR
        MOV       DPH,A
        MOV       DPL,R0
        INC       DPTR
        MOVX      A,@DPTR
        MOV       R0,A
        MOV       R1,#0x0
        CLR       A
        XCH       A,R0
        MOV       R1,A
        MOV       A,R2
        ADD       A,R0
        MOV       ?V0,A
        MOV       A,R3
        ADDC      A,R1
        MOV       ?V1,A
//  709   NodePowerDescriptorFormat_t *desc = NULL;
        MOV       ?V2,#0x0
        MOV       ?V3,#0x0
//  710 
//  711   if ( aoi == ZDAppNwkAddr.addr.shortAddr )
        MOV       DPTR,#ZDAppNwkAddr
        MOVX      A,@DPTR
        XRL       A,?V0
        JNZ       ??ZDO_ProcessPowerDescReq_0
        INC       DPTR
        MOVX      A,@DPTR
        XRL       A,?V1
??ZDO_ProcessPowerDescReq_0:
        JNZ       ??ZDO_ProcessPowerDescReq_1
//  712   {
//  713     desc = &ZDO_Config_Power_Descriptor;
        MOV       ?V2,#ZDO_Config_Power_Descriptor & 0xff
        MOV       ?V3,#(ZDO_Config_Power_Descriptor >> 8) & 0xff
//  714   }
//  715 
//  716   if ( desc != NULL )
??ZDO_ProcessPowerDescReq_1:
        MOV       A,?V2
        ORL       A,?V3
        JZ        ??ZDO_ProcessPowerDescReq_2
//  717   {
//  718     ZDP_PowerDescMsg( inMsg, aoi, desc );
        ; Setup parameters for call to function ZDP_PowerDescMsg
        MOV       R0,#?V2
        LCALL     ?PUSH_XSTACK_I_TWO
          CFI CFA_XSP16 add(XSP16, 16)
        MOV       R4,?V0
        MOV       R5,?V1
        MOV       A,R6
        MOV       R2,A
        MOV       A,R7
        MOV       R3,A
        LCALL     `??ZDP_PowerDescMsg::?relay`; Banked call to: ZDP_PowerDescMsg
        MOV       A,#0x2
        LCALL     ?DEALLOC_XSTACK8
          CFI CFA_XSP16 add(XSP16, 14)
        MOV       A,R1
        SJMP      ??ZDO_ProcessPowerDescReq_3
//  719   }
//  720   else
//  721   {
//  722     ZDP_GenericRsp( inMsg->TransSeq, &(inMsg->srcAddr),
//  723               ZDP_INVALID_REQTYPE, aoi, Power_Desc_rsp, inMsg->SecurityUse );
??ZDO_ProcessPowerDescReq_2:
        ; Setup parameters for call to function ZDP_GenericRsp
        MOV       ?V4,#0x3
        MOV       ?V5,#-0x80
        MOV       R0,#?V4
        LCALL     ?PUSH_XSTACK_I_TWO
          CFI CFA_XSP16 add(XSP16, 16)
        MOV       R0,#?V0
        LCALL     ?PUSH_XSTACK_I_TWO
          CFI CFA_XSP16 add(XSP16, 18)
        MOV       A,R6
        ADD       A,#0xe
        MOV       DPL,A
        CLR       A
        ADDC      A,R7
        MOV       DPH,A
        MOVX      A,@DPTR
        MOV       R5,A
        MOV       R4,#-0x80
        MOV       A,R6
        ADD       A,#0x2
        MOV       R2,A
        CLR       A
        ADDC      A,R7
        MOV       R3,A
        MOV       A,R6
        ADD       A,#0xf
        MOV       DPL,A
        CLR       A
        ADDC      A,R7
        MOV       DPH,A
        MOVX      A,@DPTR
        MOV       R1,A
        LCALL     `??ZDP_GenericRsp::?relay`; Banked call to: ZDP_GenericRsp
        MOV       A,#0x4
        LCALL     ?DEALLOC_XSTACK8
          CFI CFA_XSP16 add(XSP16, 14)
        MOV       A,R1
//  724   }
//  725 }
??ZDO_ProcessPowerDescReq_3:
        MOV       R7,#0x6
        LJMP      ?BANKED_LEAVE_XDATA
          CFI EndBlock cfiBlock10
//  726 
//  727 /*********************************************************************
//  728  * @fn          ZDO_ProcessSimpleDescReq
//  729  *
//  730  * @brief       This function processes and responds to the
//  731  *              Simple_Desc_req message.
//  732  *
//  733  * @param       inMsg - incoming message (request)
//  734  *
//  735  * @return      none
//  736  */

        RSEG BANKED_CODE:HUGECODE:NOROOT(0)
//  737 void ZDO_ProcessSimpleDescReq( zdoIncomingMsg_t *inMsg )
ZDO_ProcessSimpleDescReq:
          CFI Block cfiBlock11 Using cfiCommon0
          CFI Function ZDO_ProcessSimpleDescReq
        CODE
//  738 {
        FUNCALL ZDO_ProcessSimpleDescReq, afFindSimpleDesc
        LOCFRAME ISTACK, 0, STACK
        LOCFRAME PSTACK, 0, STACK
        LOCFRAME XSTACK, 15, STACK
        LOCFRAME IOVERLAY, 0, STATIC
        LOCFRAME DOVERLAY, 0, STATIC
        ARGFRAME ISTACK, 0, STACK
        ARGFRAME PSTACK, 0, STACK
        ARGFRAME XSTACK, 15, STACK
        ARGFRAME IOVERLAY, 0, STATIC
        ARGFRAME DOVERLAY, 0, STATIC
        FUNCALL ZDO_ProcessSimpleDescReq, ZDP_SimpleDescMsg
        LOCFRAME ISTACK, 0, STACK
        LOCFRAME PSTACK, 0, STACK
        LOCFRAME XSTACK, 15, STACK
        LOCFRAME IOVERLAY, 0, STATIC
        LOCFRAME DOVERLAY, 0, STATIC
        ARGFRAME ISTACK, 0, STACK
        ARGFRAME PSTACK, 0, STACK
        ARGFRAME XSTACK, 15, STACK
        ARGFRAME IOVERLAY, 0, STATIC
        ARGFRAME DOVERLAY, 0, STATIC
        FUNCALL ZDO_ProcessSimpleDescReq, osal_mem_free
        LOCFRAME ISTACK, 0, STACK
        LOCFRAME PSTACK, 0, STACK
        LOCFRAME XSTACK, 15, STACK
        LOCFRAME IOVERLAY, 0, STATIC
        LOCFRAME DOVERLAY, 0, STATIC
        ARGFRAME ISTACK, 0, STACK
        ARGFRAME PSTACK, 0, STACK
        ARGFRAME XSTACK, 15, STACK
        ARGFRAME IOVERLAY, 0, STATIC
        ARGFRAME DOVERLAY, 0, STATIC
        REQUIRE ?V0
        REQUIRE ?V1
        REQUIRE ?V2
        REQUIRE ?V3
        REQUIRE ?V4
        MOV       A,#-0xd
        LCALL     ?BANKED_ENTER_XDATA
          CFI DPH0 load(1, XDATA, add(CFA_XSP16, literal(-1)))
          CFI DPL0 load(1, XDATA, add(CFA_XSP16, literal(-2)))
          CFI ?BRET_EXT load(1, XDATA, add(CFA_XSP16, literal(-3)))
          CFI ?RET_HIGH load(1, XDATA, add(CFA_XSP16, literal(-4)))
          CFI ?RET_LOW load(1, XDATA, add(CFA_XSP16, literal(-5)))
          CFI R7 load(1, XDATA, add(CFA_XSP16, literal(-6)))
          CFI V4 load(1, XDATA, add(CFA_XSP16, literal(-7)))
          CFI V3 load(1, XDATA, add(CFA_XSP16, literal(-8)))
          CFI V2 load(1, XDATA, add(CFA_XSP16, literal(-9)))
          CFI V1 load(1, XDATA, add(CFA_XSP16, literal(-10)))
          CFI V0 load(1, XDATA, add(CFA_XSP16, literal(-11)))
          CFI VB load(1, XDATA, add(CFA_XSP16, literal(-12)))
          CFI R6 load(1, XDATA, add(CFA_XSP16, literal(-13)))
          CFI CFA_SP SP+0
          CFI CFA_XSP16 add(XSP16, 13)
        ; Saved register size: 13
        ; Auto size: 2
        MOV       A,#-0x2
        LCALL     ?ALLOC_XSTACK8
          CFI CFA_XSP16 add(XSP16, 15)
        MOV       ?V0,R2
        MOV       ?V1,R3
//  739   SimpleDescriptionFormat_t *sDesc = NULL;
        MOV       DPL,?XSP + 0
        MOV       DPH,?XSP + 1
        MOV       A,#0x0
        MOVX      @DPTR,A
        INC       DPTR
        MOV       A,#0x0
        MOVX      @DPTR,A
//  740   uint16 aoi = BUILD_UINT16( inMsg->asdu[0], inMsg->asdu[1] );
        MOV       A,?V0
        ADD       A,#0x13
        MOV       DPL,A
        CLR       A
        ADDC      A,?V1
        MOV       DPH,A
        MOVX      A,@DPTR
        MOV       R0,A
        INC       DPTR
        MOVX      A,@DPTR
        MOV       DPH,A
        MOV       DPL,R0
        MOVX      A,@DPTR
        MOV       R2,A
        MOV       R3,#0x0
        MOV       A,?V0
        ADD       A,#0x13
        MOV       DPL,A
        CLR       A
        ADDC      A,?V1
        MOV       DPH,A
        MOVX      A,@DPTR
        MOV       R0,A
        INC       DPTR
        MOVX      A,@DPTR
        MOV       DPH,A
        MOV       DPL,R0
        INC       DPTR
        MOVX      A,@DPTR
        MOV       R0,A
        MOV       R1,#0x0
        CLR       A
        XCH       A,R0
        MOV       R1,A
        MOV       A,R2
        ADD       A,R0
        MOV       R6,A
        MOV       A,R3
        ADDC      A,R1
        MOV       R7,A
//  741   byte endPoint = inMsg->asdu[2];
        MOV       A,?V0
        ADD       A,#0x13
        MOV       DPL,A
        CLR       A
        ADDC      A,?V1
        MOV       DPH,A
        MOVX      A,@DPTR
        MOV       R0,A
        INC       DPTR
        MOVX      A,@DPTR
        MOV       DPH,A
        MOV       DPL,R0
        INC       DPTR
        INC       DPTR
        MOVX      A,@DPTR
        MOV       ?V4,A
//  742   byte free = false;
        MOV       ?V3,#0x0
//  743   byte stat = ZDP_SUCCESS;
        MOV       ?V2,#0x0
//  744 
//  745   if ( (endPoint == ZDO_EP) || (endPoint > MAX_ENDPOINTS) )
        MOV       A,?V4
        JZ        ??ZDO_ProcessSimpleDescReq_0
        MOV       A,#-0x1
        XRL       A,?V4
        JNZ       ??ZDO_ProcessSimpleDescReq_1
//  746   {
//  747     stat = ZDP_INVALID_EP;
??ZDO_ProcessSimpleDescReq_0:
        MOV       ?V2,#-0x7e
        SJMP      ??ZDO_ProcessSimpleDescReq_2
//  748   }
//  749   else if ( aoi == ZDAppNwkAddr.addr.shortAddr )
??ZDO_ProcessSimpleDescReq_1:
        MOV       DPTR,#ZDAppNwkAddr
        MOVX      A,@DPTR
        XRL       A,R6
        JNZ       ??ZDO_ProcessSimpleDescReq_3
        INC       DPTR
        MOVX      A,@DPTR
        XRL       A,R7
??ZDO_ProcessSimpleDescReq_3:
        JNZ       ??ZDO_ProcessSimpleDescReq_4
//  750   {
//  751     free = afFindSimpleDesc( &sDesc, endPoint );
        ; Setup parameters for call to function afFindSimpleDesc
        MOV       R1,?V4
        MOV       R2,?XSP + 0
        MOV       R3,?XSP + 1
        LCALL     `??afFindSimpleDesc::?relay`; Banked call to: afFindSimpleDesc
        MOV       A,R1
        MOV       ?V3,A
//  752     if ( sDesc == NULL )
        MOV       DPL,?XSP + 0
        MOV       DPH,?XSP + 1
        MOVX      A,@DPTR
        MOV       R0,A
        INC       DPTR
        MOVX      A,@DPTR
        MOV       R1,A
        MOV       A,R0
        ORL       A,R1
        JNZ       ??ZDO_ProcessSimpleDescReq_2
//  753     {
//  754       stat = ZDP_NOT_ACTIVE;
        MOV       ?V2,#-0x7d
        SJMP      ??ZDO_ProcessSimpleDescReq_2
//  755     }
//  756   }
//  757   else
//  758   {
//  759     if ( ZSTACK_ROUTER_BUILD )
//  760     {
//  761       //If child found, then no descriptor
//  762       if(AssocIsChild(aoi))
//  763       {
//  764         stat = ZDP_NO_DESCRIPTOR;
//  765       }
//  766       //Otherwise no device found
//  767       else
//  768       {
//  769         stat = ZDP_DEVICE_NOT_FOUND;
//  770       }
//  771     }
//  772     else if ( ZSTACK_END_DEVICE_BUILD )
//  773     {
//  774       stat = ZDP_INVALID_REQTYPE;
??ZDO_ProcessSimpleDescReq_4:
        MOV       ?V2,#-0x80
//  775     }
//  776   }
//  777 
//  778   ZDP_SimpleDescMsg( inMsg, stat, sDesc );
??ZDO_ProcessSimpleDescReq_2:
        ; Setup parameters for call to function ZDP_SimpleDescMsg
        MOV       DPL,?XSP + 0
        MOV       DPH,?XSP + 1
        MOVX      A,@DPTR
        MOV       R4,A
        INC       DPTR
        MOVX      A,@DPTR
        MOV       R5,A
        MOV       R1,?V2
        MOV       R2,?V0
        MOV       R3,?V1
        LCALL     `??ZDP_SimpleDescMsg::?relay`; Banked call to: ZDP_SimpleDescMsg
        MOV       A,R1
//  779 
//  780   if ( free && sDesc )
        MOV       A,?V3
        JZ        ??ZDO_ProcessSimpleDescReq_5
        MOV       DPL,?XSP + 0
        MOV       DPH,?XSP + 1
        MOVX      A,@DPTR
        MOV       R0,A
        INC       DPTR
        MOVX      A,@DPTR
        MOV       R1,A
        MOV       A,R0
        ORL       A,R1
        JZ        ??ZDO_ProcessSimpleDescReq_5
//  781   {
//  782     osal_mem_free( sDesc );
        ; Setup parameters for call to function osal_mem_free
        MOV       DPL,?XSP + 0
        MOV       DPH,?XSP + 1
        MOVX      A,@DPTR
        MOV       R2,A
        INC       DPTR
        MOVX      A,@DPTR
        MOV       R3,A
        LCALL     `??osal_mem_free::?relay`; Banked call to: osal_mem_free
//  783   }
//  784 }
??ZDO_ProcessSimpleDescReq_5:
        MOV       A,#0x2
        LCALL     ?DEALLOC_XSTACK8
          CFI CFA_XSP16 add(XSP16, 13)
        MOV       R7,#0x5
        LJMP      ?BANKED_LEAVE_XDATA
          CFI EndBlock cfiBlock11
//  785 
//  786 /*********************************************************************
//  787  * @fn          ZDO_ProcessSimpleDescRsp
//  788  *
//  789  * @brief       This function processes and responds to the
//  790  *              Simple_Desc_rsp message.
//  791  *
//  792  * @param       inMsg - incoming message (request)
//  793  *
//  794  * @return      none
//  795  */

        RSEG BANKED_CODE:HUGECODE:NOROOT(0)
//  796 void ZDO_ProcessSimpleDescRsp( zdoIncomingMsg_t *inMsg )
ZDO_ProcessSimpleDescRsp:
          CFI Block cfiBlock12 Using cfiCommon0
          CFI Function ZDO_ProcessSimpleDescRsp
        CODE
//  797 {
        ; Saved register size: 0
        ; Auto size: 0
//  798 
//  799 }
        LJMP      ?BRET
          CFI EndBlock cfiBlock12
//  800 
//  801 /*********************************************************************
//  802  * @fn          ZDO_ProcessActiveEPReq
//  803  *
//  804  * @brief       This function processes and responds to the
//  805  *              Active_EP_req message.
//  806  *
//  807  * @param       inMsg  - incoming message (request)
//  808  *
//  809  * @return      none
//  810  */

        RSEG BANKED_CODE:HUGECODE:NOROOT(0)
//  811 void ZDO_ProcessActiveEPReq( zdoIncomingMsg_t *inMsg )
ZDO_ProcessActiveEPReq:
          CFI Block cfiBlock13 Using cfiCommon0
          CFI Function ZDO_ProcessActiveEPReq
        CODE
//  812 {
        FUNCALL ZDO_ProcessActiveEPReq, NLME_GetShortAddr
        LOCFRAME ISTACK, 0, STACK
        LOCFRAME PSTACK, 0, STACK
        LOCFRAME XSTACK, 14, STACK
        LOCFRAME IOVERLAY, 0, STATIC
        LOCFRAME DOVERLAY, 0, STATIC
        ARGFRAME ISTACK, 0, STACK
        ARGFRAME PSTACK, 0, STACK
        ARGFRAME XSTACK, 14, STACK
        ARGFRAME IOVERLAY, 0, STATIC
        ARGFRAME DOVERLAY, 0, STATIC
        FUNCALL ZDO_ProcessActiveEPReq, afNumEndPoints
        LOCFRAME ISTACK, 0, STACK
        LOCFRAME PSTACK, 0, STACK
        LOCFRAME XSTACK, 14, STACK
        LOCFRAME IOVERLAY, 0, STATIC
        LOCFRAME DOVERLAY, 0, STATIC
        ARGFRAME ISTACK, 0, STACK
        ARGFRAME PSTACK, 0, STACK
        ARGFRAME XSTACK, 14, STACK
        ARGFRAME IOVERLAY, 0, STATIC
        ARGFRAME DOVERLAY, 0, STATIC
        FUNCALL ZDO_ProcessActiveEPReq, afEndPoints
        LOCFRAME ISTACK, 0, STACK
        LOCFRAME PSTACK, 0, STACK
        LOCFRAME XSTACK, 14, STACK
        LOCFRAME IOVERLAY, 0, STATIC
        LOCFRAME DOVERLAY, 0, STATIC
        ARGFRAME ISTACK, 0, STACK
        ARGFRAME PSTACK, 0, STACK
        ARGFRAME XSTACK, 14, STACK
        ARGFRAME IOVERLAY, 0, STATIC
        ARGFRAME DOVERLAY, 0, STATIC
        FUNCALL ZDO_ProcessActiveEPReq, ZDP_EPRsp
        LOCFRAME ISTACK, 0, STACK
        LOCFRAME PSTACK, 0, STACK
        LOCFRAME XSTACK, 21, STACK
        LOCFRAME IOVERLAY, 0, STATIC
        LOCFRAME DOVERLAY, 0, STATIC
        ARGFRAME ISTACK, 0, STACK
        ARGFRAME PSTACK, 0, STACK
        ARGFRAME XSTACK, 21, STACK
        ARGFRAME IOVERLAY, 0, STATIC
        ARGFRAME DOVERLAY, 0, STATIC
        REQUIRE ?V0
        REQUIRE ?V1
        REQUIRE ?V2
        REQUIRE ?V3
        REQUIRE ?V4
        REQUIRE ?V5
        MOV       A,#-0xe
        LCALL     ?BANKED_ENTER_XDATA
          CFI DPH0 load(1, XDATA, add(CFA_XSP16, literal(-1)))
          CFI DPL0 load(1, XDATA, add(CFA_XSP16, literal(-2)))
          CFI ?BRET_EXT load(1, XDATA, add(CFA_XSP16, literal(-3)))
          CFI ?RET_HIGH load(1, XDATA, add(CFA_XSP16, literal(-4)))
          CFI ?RET_LOW load(1, XDATA, add(CFA_XSP16, literal(-5)))
          CFI R7 load(1, XDATA, add(CFA_XSP16, literal(-6)))
          CFI V5 load(1, XDATA, add(CFA_XSP16, literal(-7)))
          CFI V4 load(1, XDATA, add(CFA_XSP16, literal(-8)))
          CFI V3 load(1, XDATA, add(CFA_XSP16, literal(-9)))
          CFI V2 load(1, XDATA, add(CFA_XSP16, literal(-10)))
          CFI V1 load(1, XDATA, add(CFA_XSP16, literal(-11)))
          CFI V0 load(1, XDATA, add(CFA_XSP16, literal(-12)))
          CFI VB load(1, XDATA, add(CFA_XSP16, literal(-13)))
          CFI R6 load(1, XDATA, add(CFA_XSP16, literal(-14)))
          CFI CFA_SP SP+0
          CFI CFA_XSP16 add(XSP16, 14)
        ; Saved register size: 14
        ; Auto size: 0
        MOV       A,R2
        MOV       R6,A
        MOV       A,R3
        MOV       R7,A
//  813   byte cnt = 0;
        MOV       ?V0,#0x0
//  814   uint16 aoi;
//  815   byte stat = ZDP_SUCCESS;
        MOV       ?V1,#0x0
//  816 
//  817   aoi = BUILD_UINT16( inMsg->asdu[0], inMsg->asdu[1] );
        MOV       A,R6
        ADD       A,#0x13
        MOV       DPL,A
        CLR       A
        ADDC      A,R7
        MOV       DPH,A
        MOVX      A,@DPTR
        MOV       R0,A
        INC       DPTR
        MOVX      A,@DPTR
        MOV       DPH,A
        MOV       DPL,R0
        MOVX      A,@DPTR
        MOV       R2,A
        MOV       R3,#0x0
        MOV       A,R6
        ADD       A,#0x13
        MOV       DPL,A
        CLR       A
        ADDC      A,R7
        MOV       DPH,A
        MOVX      A,@DPTR
        MOV       R0,A
        INC       DPTR
        MOVX      A,@DPTR
        MOV       DPH,A
        MOV       DPL,R0
        INC       DPTR
        MOVX      A,@DPTR
        MOV       R0,A
        MOV       R1,#0x0
        CLR       A
        XCH       A,R0
        MOV       R1,A
        MOV       A,R2
        ADD       A,R0
        MOV       R0,A
        MOV       A,R3
        ADDC      A,R1
        MOV       R1,A
        MOV       ?V2,R0
        MOV       ?V3,R1
//  818 
//  819   if ( aoi == NLME_GetShortAddr() )
        ; Setup parameters for call to function NLME_GetShortAddr
        LCALL     `??NLME_GetShortAddr::?relay`; Banked call to: NLME_GetShortAddr
        MOV       ?V4,R2
        MOV       ?V5,R3
        MOV       A,?V4
        XRL       A,?V2
        JNZ       ??ZDO_ProcessActiveEPReq_0
        MOV       A,?V5
        XRL       A,?V3
??ZDO_ProcessActiveEPReq_0:
        JNZ       ??ZDO_ProcessActiveEPReq_1
//  820   {
//  821     cnt = afNumEndPoints() - 1;  // -1 for ZDO endpoint descriptor
        ; Setup parameters for call to function afNumEndPoints
        LCALL     `??afNumEndPoints::?relay`; Banked call to: afNumEndPoints
        MOV       A,R1
        ADD       A,#-0x1
        MOV       ?V0,A
//  822     afEndPoints( (uint8 *)ZDOBuildBuf, true );
        ; Setup parameters for call to function afEndPoints
        MOV       R1,#0x1
        MOV       R2,#ZDOBuildBuf & 0xff
        MOV       R3,#(ZDOBuildBuf >> 8) & 0xff
        LCALL     `??afEndPoints::?relay`; Banked call to: afEndPoints
        SJMP      ??ZDO_ProcessActiveEPReq_2
//  823   }
//  824   else
//  825   {
//  826     if(ZG_BUILD_ENDDEVICE_TYPE)
//  827     {
//  828       stat = ZDP_INVALID_REQTYPE;
??ZDO_ProcessActiveEPReq_1:
        MOV       ?V1,#-0x80
//  829     }
//  830     else
//  831     {
//  832       stat = ZDP_DEVICE_NOT_FOUND;
//  833     }
//  834   }
//  835 
//  836   ZDP_ActiveEPRsp( inMsg->TransSeq, &(inMsg->srcAddr), stat,
//  837                   aoi, cnt, (uint8 *)ZDOBuildBuf, inMsg->SecurityUse );
??ZDO_ProcessActiveEPReq_2:
        ; Setup parameters for call to function ZDP_EPRsp
        MOV       A,R6
        ADD       A,#0xe
        MOV       DPL,A
        CLR       A
        ADDC      A,R7
        MOV       DPH,A
        MOVX      A,@DPTR
        MOV       ?V4,A
        MOV       R0,#?V4
        LCALL     ?PUSH_XSTACK_I_ONE
          CFI CFA_XSP16 add(XSP16, 15)
        MOV       ?V4,#ZDOBuildBuf & 0xff
        MOV       ?V5,#(ZDOBuildBuf >> 8) & 0xff
        MOV       R0,#?V4
        LCALL     ?PUSH_XSTACK_I_TWO
          CFI CFA_XSP16 add(XSP16, 17)
        MOV       A,?V0
        MOV       ?V4,A
        MOV       R0,#?V4
        LCALL     ?PUSH_XSTACK_I_ONE
          CFI CFA_XSP16 add(XSP16, 18)
        MOV       R0,#?V2
        LCALL     ?PUSH_XSTACK_I_TWO
          CFI CFA_XSP16 add(XSP16, 20)
        MOV       A,?V1
        MOV       ?V4,A
        MOV       R0,#?V4
        LCALL     ?PUSH_XSTACK_I_ONE
          CFI CFA_XSP16 add(XSP16, 21)
        MOV       A,R6
        ADD       A,#0x2
        MOV       R4,A
        CLR       A
        ADDC      A,R7
        MOV       R5,A
        MOV       A,R6
        ADD       A,#0xf
        MOV       DPL,A
        CLR       A
        ADDC      A,R7
        MOV       DPH,A
        MOVX      A,@DPTR
        MOV       R1,A
        MOV       R2,#0x5
        MOV       R3,#-0x80
        LCALL     `??ZDP_EPRsp::?relay`; Banked call to: ZDP_EPRsp
        MOV       A,#0x7
        LCALL     ?DEALLOC_XSTACK8
          CFI CFA_XSP16 add(XSP16, 14)
        MOV       A,R1
//  838 }
        MOV       R7,#0x6
        LJMP      ?BANKED_LEAVE_XDATA
          CFI EndBlock cfiBlock13
//  839 
//  840 /*********************************************************************
//  841  * @fn          ZDO_ConvertOTAClusters
//  842  *
//  843  * @brief       This function will convert the over-the-air cluster list
//  844  *              format to an internal format.
//  845  *
//  846  * @param       inMsg  - incoming message (request)
//  847  *
//  848  * @return      pointer to incremented inBuf
//  849  */

        RSEG BANKED_CODE:HUGECODE:NOROOT(0)
//  850 uint8 *ZDO_ConvertOTAClusters( uint8 cnt, uint8 *inBuf, uint16 *outList )
ZDO_ConvertOTAClusters:
          CFI Block cfiBlock14 Using cfiCommon0
          CFI Function ZDO_ConvertOTAClusters
        CODE
//  851 {
        REQUIRE ?V0
        REQUIRE ?V1
        REQUIRE ?V2
        MOV       A,#-0xb
        LCALL     ?BANKED_ENTER_XDATA
          CFI DPH0 load(1, XDATA, add(CFA_XSP16, literal(-1)))
          CFI DPL0 load(1, XDATA, add(CFA_XSP16, literal(-2)))
          CFI ?BRET_EXT load(1, XDATA, add(CFA_XSP16, literal(-3)))
          CFI ?RET_HIGH load(1, XDATA, add(CFA_XSP16, literal(-4)))
          CFI ?RET_LOW load(1, XDATA, add(CFA_XSP16, literal(-5)))
          CFI R7 load(1, XDATA, add(CFA_XSP16, literal(-6)))
          CFI V2 load(1, XDATA, add(CFA_XSP16, literal(-7)))
          CFI V1 load(1, XDATA, add(CFA_XSP16, literal(-8)))
          CFI V0 load(1, XDATA, add(CFA_XSP16, literal(-9)))
          CFI VB load(1, XDATA, add(CFA_XSP16, literal(-10)))
          CFI R6 load(1, XDATA, add(CFA_XSP16, literal(-11)))
          CFI CFA_SP SP+0
          CFI CFA_XSP16 add(XSP16, 11)
        ; Saved register size: 11
        ; Auto size: 0
        MOV       A,R1
        MOV       R7,A
//  852   uint8 x;
//  853 
//  854   for ( x = 0; x < cnt; x++ )
        MOV       R6,#0x0
??ZDO_ConvertOTAClusters_0:
        MOV       A,R6
        CLR       C
        SUBB      A,R7
        JNC       ??ZDO_ConvertOTAClusters_1
//  855   {
//  856     // convert ota format to internal
//  857     outList[x] = BUILD_UINT16( inBuf[0], inBuf[1] );
        MOV       DPL,R2
        MOV       DPH,R3
        MOVX      A,@DPTR
        MOV       ?V0,A
        MOV       ?V1,#0x0
        MOV       DPL,R2
        MOV       DPH,R3
        INC       DPTR
        MOVX      A,@DPTR
        MOV       R0,A
        MOV       R1,#0x0
        CLR       A
        XCH       A,R0
        MOV       R1,A
        MOV       A,?V0
        ADD       A,R0
        MOV       ?V0,A
        MOV       A,?V1
        ADDC      A,R1
        MOV       ?V1,A
        MOV       A,R6
        MOV       R0,A
        MOV       R1,#0x0
        MOV       A,R0
        MOV       B,#0x2
        MUL       AB
        XCH       A,R0
        MOV       ?V2,B
        MOV       B,#0x0
        MUL       AB
        ADD       A,?V2
        MOV       ?V2,A
        MOV       B,#0x2
        MOV       A,R1
        MUL       AB
        ADD       A,?V2
        MOV       R1,A
        MOV       A,R4
        ADD       A,R0
        MOV       DPL,A
        MOV       A,R5
        ADDC      A,R1
        MOV       DPH,A
        MOV       A,?V0
        MOVX      @DPTR,A
        INC       DPTR
        MOV       A,?V1
        MOVX      @DPTR,A
//  858     inBuf += sizeof( uint16 );
        MOV       A,R2
        ADD       A,#0x2
        MOV       R2,A
        JNC       ??ZDO_ConvertOTAClusters_2
        INC       R3
//  859   }
??ZDO_ConvertOTAClusters_2:
        INC       R6
        SJMP      ??ZDO_ConvertOTAClusters_0
//  860   return ( inBuf );
??ZDO_ConvertOTAClusters_1:
        MOV       R7,#0x3
        LJMP      ?BANKED_LEAVE_XDATA
//  861 }
          CFI EndBlock cfiBlock14
//  862 
//  863 /*********************************************************************
//  864  * @fn          ZDO_ProcessMatchDescReq
//  865  *
//  866  * @brief       This function processes and responds to the
//  867  *              Match_Desc_req message.
//  868  *
//  869  * @param       inMsg  - incoming message (request)
//  870  *
//  871  * @return      none
//  872  */

        RSEG BANKED_CODE:HUGECODE:NOROOT(0)
//  873 void ZDO_ProcessMatchDescReq( zdoIncomingMsg_t *inMsg )
ZDO_ProcessMatchDescReq:
          CFI Block cfiBlock15 Using cfiCommon0
          CFI Function ZDO_ProcessMatchDescReq
        CODE
//  874 {
        FUNCALL ZDO_ProcessMatchDescReq, NLME_IsAddressBroadcast
        LOCFRAME ISTACK, 0, STACK
        LOCFRAME PSTACK, 0, STACK
        LOCFRAME XSTACK, 34, STACK
        LOCFRAME IOVERLAY, 0, STATIC
        LOCFRAME DOVERLAY, 0, STATIC
        ARGFRAME ISTACK, 0, STACK
        ARGFRAME PSTACK, 0, STACK
        ARGFRAME XSTACK, 34, STACK
        ARGFRAME IOVERLAY, 0, STATIC
        ARGFRAME DOVERLAY, 0, STATIC
        FUNCALL ZDO_ProcessMatchDescReq, ZDP_EPRsp
        LOCFRAME ISTACK, 0, STACK
        LOCFRAME PSTACK, 0, STACK
        LOCFRAME XSTACK, 41, STACK
        LOCFRAME IOVERLAY, 0, STATIC
        LOCFRAME DOVERLAY, 0, STATIC
        ARGFRAME ISTACK, 0, STACK
        ARGFRAME PSTACK, 0, STACK
        ARGFRAME XSTACK, 41, STACK
        ARGFRAME IOVERLAY, 0, STATIC
        ARGFRAME DOVERLAY, 0, STATIC
        FUNCALL ZDO_ProcessMatchDescReq, NLME_IsAddressBroadcast
        LOCFRAME ISTACK, 0, STACK
        LOCFRAME PSTACK, 0, STACK
        LOCFRAME XSTACK, 34, STACK
        LOCFRAME IOVERLAY, 0, STATIC
        LOCFRAME DOVERLAY, 0, STATIC
        ARGFRAME ISTACK, 0, STACK
        ARGFRAME PSTACK, 0, STACK
        ARGFRAME XSTACK, 34, STACK
        ARGFRAME IOVERLAY, 0, STATIC
        ARGFRAME DOVERLAY, 0, STATIC
        FUNCALL ZDO_ProcessMatchDescReq, ZDP_EPRsp
        LOCFRAME ISTACK, 0, STACK
        LOCFRAME PSTACK, 0, STACK
        LOCFRAME XSTACK, 41, STACK
        LOCFRAME IOVERLAY, 0, STATIC
        LOCFRAME DOVERLAY, 0, STATIC
        ARGFRAME ISTACK, 0, STACK
        ARGFRAME PSTACK, 0, STACK
        ARGFRAME XSTACK, 41, STACK
        ARGFRAME IOVERLAY, 0, STATIC
        ARGFRAME DOVERLAY, 0, STATIC
        FUNCALL ZDO_ProcessMatchDescReq, osal_mem_alloc
        LOCFRAME ISTACK, 0, STACK
        LOCFRAME PSTACK, 0, STACK
        LOCFRAME XSTACK, 34, STACK
        LOCFRAME IOVERLAY, 0, STATIC
        LOCFRAME DOVERLAY, 0, STATIC
        ARGFRAME ISTACK, 0, STACK
        ARGFRAME PSTACK, 0, STACK
        ARGFRAME XSTACK, 34, STACK
        ARGFRAME IOVERLAY, 0, STATIC
        ARGFRAME DOVERLAY, 0, STATIC
        FUNCALL ZDO_ProcessMatchDescReq, ZDO_ConvertOTAClusters
        LOCFRAME ISTACK, 0, STACK
        LOCFRAME PSTACK, 0, STACK
        LOCFRAME XSTACK, 34, STACK
        LOCFRAME IOVERLAY, 0, STATIC
        LOCFRAME DOVERLAY, 0, STATIC
        ARGFRAME ISTACK, 0, STACK
        ARGFRAME PSTACK, 0, STACK
        ARGFRAME XSTACK, 34, STACK
        ARGFRAME IOVERLAY, 0, STATIC
        ARGFRAME DOVERLAY, 0, STATIC
        FUNCALL ZDO_ProcessMatchDescReq, osal_mem_alloc
        LOCFRAME ISTACK, 0, STACK
        LOCFRAME PSTACK, 0, STACK
        LOCFRAME XSTACK, 34, STACK
        LOCFRAME IOVERLAY, 0, STATIC
        LOCFRAME DOVERLAY, 0, STATIC
        ARGFRAME ISTACK, 0, STACK
        ARGFRAME PSTACK, 0, STACK
        ARGFRAME XSTACK, 34, STACK
        ARGFRAME IOVERLAY, 0, STATIC
        ARGFRAME DOVERLAY, 0, STATIC
        FUNCALL ZDO_ProcessMatchDescReq, ZDO_ConvertOTAClusters
        LOCFRAME ISTACK, 0, STACK
        LOCFRAME PSTACK, 0, STACK
        LOCFRAME XSTACK, 34, STACK
        LOCFRAME IOVERLAY, 0, STATIC
        LOCFRAME DOVERLAY, 0, STATIC
        ARGFRAME ISTACK, 0, STACK
        ARGFRAME PSTACK, 0, STACK
        ARGFRAME XSTACK, 34, STACK
        ARGFRAME IOVERLAY, 0, STATIC
        ARGFRAME DOVERLAY, 0, STATIC
        FUNCALL ZDO_ProcessMatchDescReq, ZDO_AnyClusterMatches
        LOCFRAME ISTACK, 0, STACK
        LOCFRAME PSTACK, 0, STACK
        LOCFRAME XSTACK, 36, STACK
        LOCFRAME IOVERLAY, 0, STATIC
        LOCFRAME DOVERLAY, 0, STATIC
        ARGFRAME ISTACK, 0, STACK
        ARGFRAME PSTACK, 0, STACK
        ARGFRAME XSTACK, 36, STACK
        ARGFRAME IOVERLAY, 0, STATIC
        ARGFRAME DOVERLAY, 0, STATIC
        FUNCALL ZDO_ProcessMatchDescReq, ZDO_AnyClusterMatches
        LOCFRAME ISTACK, 0, STACK
        LOCFRAME PSTACK, 0, STACK
        LOCFRAME XSTACK, 36, STACK
        LOCFRAME IOVERLAY, 0, STATIC
        LOCFRAME DOVERLAY, 0, STATIC
        ARGFRAME ISTACK, 0, STACK
        ARGFRAME PSTACK, 0, STACK
        ARGFRAME XSTACK, 36, STACK
        ARGFRAME IOVERLAY, 0, STATIC
        ARGFRAME DOVERLAY, 0, STATIC
        FUNCALL ZDO_ProcessMatchDescReq, osal_msg_allocate
        LOCFRAME ISTACK, 0, STACK
        LOCFRAME PSTACK, 0, STACK
        LOCFRAME XSTACK, 34, STACK
        LOCFRAME IOVERLAY, 0, STATIC
        LOCFRAME DOVERLAY, 0, STATIC
        ARGFRAME ISTACK, 0, STACK
        ARGFRAME PSTACK, 0, STACK
        ARGFRAME XSTACK, 34, STACK
        ARGFRAME IOVERLAY, 0, STATIC
        ARGFRAME DOVERLAY, 0, STATIC
        FUNCALL ZDO_ProcessMatchDescReq, osal_memcpy
        LOCFRAME ISTACK, 0, STACK
        LOCFRAME PSTACK, 0, STACK
        LOCFRAME XSTACK, 37, STACK
        LOCFRAME IOVERLAY, 0, STATIC
        LOCFRAME DOVERLAY, 0, STATIC
        ARGFRAME ISTACK, 0, STACK
        ARGFRAME PSTACK, 0, STACK
        ARGFRAME XSTACK, 37, STACK
        ARGFRAME IOVERLAY, 0, STATIC
        ARGFRAME DOVERLAY, 0, STATIC
        FUNCALL ZDO_ProcessMatchDescReq, osal_memcpy
        LOCFRAME ISTACK, 0, STACK
        LOCFRAME PSTACK, 0, STACK
        LOCFRAME XSTACK, 37, STACK
        LOCFRAME IOVERLAY, 0, STATIC
        LOCFRAME DOVERLAY, 0, STATIC
        ARGFRAME ISTACK, 0, STACK
        ARGFRAME PSTACK, 0, STACK
        ARGFRAME XSTACK, 37, STACK
        ARGFRAME IOVERLAY, 0, STATIC
        ARGFRAME DOVERLAY, 0, STATIC
        FUNCALL ZDO_ProcessMatchDescReq, osal_msg_send
        LOCFRAME ISTACK, 0, STACK
        LOCFRAME PSTACK, 0, STACK
        LOCFRAME XSTACK, 34, STACK
        LOCFRAME IOVERLAY, 0, STATIC
        LOCFRAME DOVERLAY, 0, STATIC
        ARGFRAME ISTACK, 0, STACK
        ARGFRAME PSTACK, 0, STACK
        ARGFRAME XSTACK, 34, STACK
        ARGFRAME IOVERLAY, 0, STATIC
        ARGFRAME DOVERLAY, 0, STATIC
        FUNCALL ZDO_ProcessMatchDescReq, osal_mem_free
        LOCFRAME ISTACK, 0, STACK
        LOCFRAME PSTACK, 0, STACK
        LOCFRAME XSTACK, 34, STACK
        LOCFRAME IOVERLAY, 0, STATIC
        LOCFRAME DOVERLAY, 0, STATIC
        ARGFRAME ISTACK, 0, STACK
        ARGFRAME PSTACK, 0, STACK
        ARGFRAME XSTACK, 34, STACK
        ARGFRAME IOVERLAY, 0, STATIC
        ARGFRAME DOVERLAY, 0, STATIC
        FUNCALL ZDO_ProcessMatchDescReq, ZDP_EPRsp
        LOCFRAME ISTACK, 0, STACK
        LOCFRAME PSTACK, 0, STACK
        LOCFRAME XSTACK, 41, STACK
        LOCFRAME IOVERLAY, 0, STATIC
        LOCFRAME DOVERLAY, 0, STATIC
        ARGFRAME ISTACK, 0, STACK
        ARGFRAME PSTACK, 0, STACK
        ARGFRAME XSTACK, 41, STACK
        ARGFRAME IOVERLAY, 0, STATIC
        ARGFRAME DOVERLAY, 0, STATIC
        FUNCALL ZDO_ProcessMatchDescReq, HalLcdWriteScreen
        LOCFRAME ISTACK, 0, STACK
        LOCFRAME PSTACK, 0, STACK
        LOCFRAME XSTACK, 34, STACK
        LOCFRAME IOVERLAY, 0, STATIC
        LOCFRAME DOVERLAY, 0, STATIC
        ARGFRAME ISTACK, 0, STACK
        ARGFRAME PSTACK, 0, STACK
        ARGFRAME XSTACK, 34, STACK
        ARGFRAME IOVERLAY, 0, STATIC
        ARGFRAME DOVERLAY, 0, STATIC
        FUNCALL ZDO_ProcessMatchDescReq, ZDP_EPRsp
        LOCFRAME ISTACK, 0, STACK
        LOCFRAME PSTACK, 0, STACK
        LOCFRAME XSTACK, 41, STACK
        LOCFRAME IOVERLAY, 0, STATIC
        LOCFRAME DOVERLAY, 0, STATIC
        ARGFRAME ISTACK, 0, STACK
        ARGFRAME PSTACK, 0, STACK
        ARGFRAME XSTACK, 41, STACK
        ARGFRAME IOVERLAY, 0, STATIC
        ARGFRAME DOVERLAY, 0, STATIC
        FUNCALL ZDO_ProcessMatchDescReq, HalLcdWriteScreen
        LOCFRAME ISTACK, 0, STACK
        LOCFRAME PSTACK, 0, STACK
        LOCFRAME XSTACK, 34, STACK
        LOCFRAME IOVERLAY, 0, STATIC
        LOCFRAME DOVERLAY, 0, STATIC
        ARGFRAME ISTACK, 0, STACK
        ARGFRAME PSTACK, 0, STACK
        ARGFRAME XSTACK, 34, STACK
        ARGFRAME IOVERLAY, 0, STATIC
        ARGFRAME DOVERLAY, 0, STATIC
        FUNCALL ZDO_ProcessMatchDescReq, HalLcdWriteScreen
        LOCFRAME ISTACK, 0, STACK
        LOCFRAME PSTACK, 0, STACK
        LOCFRAME XSTACK, 34, STACK
        LOCFRAME IOVERLAY, 0, STATIC
        LOCFRAME DOVERLAY, 0, STATIC
        ARGFRAME ISTACK, 0, STACK
        ARGFRAME PSTACK, 0, STACK
        ARGFRAME XSTACK, 34, STACK
        ARGFRAME IOVERLAY, 0, STATIC
        ARGFRAME DOVERLAY, 0, STATIC
        FUNCALL ZDO_ProcessMatchDescReq, osal_mem_free
        LOCFRAME ISTACK, 0, STACK
        LOCFRAME PSTACK, 0, STACK
        LOCFRAME XSTACK, 34, STACK
        LOCFRAME IOVERLAY, 0, STATIC
        LOCFRAME DOVERLAY, 0, STATIC
        ARGFRAME ISTACK, 0, STACK
        ARGFRAME PSTACK, 0, STACK
        ARGFRAME XSTACK, 34, STACK
        ARGFRAME IOVERLAY, 0, STATIC
        ARGFRAME DOVERLAY, 0, STATIC
        FUNCALL ZDO_ProcessMatchDescReq, osal_mem_free
        LOCFRAME ISTACK, 0, STACK
        LOCFRAME PSTACK, 0, STACK
        LOCFRAME XSTACK, 34, STACK
        LOCFRAME IOVERLAY, 0, STATIC
        LOCFRAME DOVERLAY, 0, STATIC
        ARGFRAME ISTACK, 0, STACK
        ARGFRAME PSTACK, 0, STACK
        ARGFRAME XSTACK, 34, STACK
        ARGFRAME IOVERLAY, 0, STATIC
        ARGFRAME DOVERLAY, 0, STATIC
        REQUIRE ?V0
        REQUIRE ?V1
        REQUIRE ?V2
        REQUIRE ?V3
        REQUIRE ?V4
        REQUIRE ?V5
        REQUIRE ?V6
        REQUIRE ?V7
        REQUIRE ?V8
        REQUIRE ?V9
        REQUIRE ?V10
        REQUIRE ?V11
        REQUIRE ?V12
        REQUIRE ?V13
        REQUIRE ?V14
        REQUIRE ?V15
        MOV       A,#-0x18
        LCALL     ?BANKED_ENTER_XDATA
          CFI DPH0 load(1, XDATA, add(CFA_XSP16, literal(-1)))
          CFI DPL0 load(1, XDATA, add(CFA_XSP16, literal(-2)))
          CFI ?BRET_EXT load(1, XDATA, add(CFA_XSP16, literal(-3)))
          CFI ?RET_HIGH load(1, XDATA, add(CFA_XSP16, literal(-4)))
          CFI ?RET_LOW load(1, XDATA, add(CFA_XSP16, literal(-5)))
          CFI R7 load(1, XDATA, add(CFA_XSP16, literal(-6)))
          CFI V15 load(1, XDATA, add(CFA_XSP16, literal(-7)))
          CFI V14 load(1, XDATA, add(CFA_XSP16, literal(-8)))
          CFI V13 load(1, XDATA, add(CFA_XSP16, literal(-9)))
          CFI V12 load(1, XDATA, add(CFA_XSP16, literal(-10)))
          CFI V11 load(1, XDATA, add(CFA_XSP16, literal(-11)))
          CFI V10 load(1, XDATA, add(CFA_XSP16, literal(-12)))
          CFI V9 load(1, XDATA, add(CFA_XSP16, literal(-13)))
          CFI V8 load(1, XDATA, add(CFA_XSP16, literal(-14)))
          CFI V7 load(1, XDATA, add(CFA_XSP16, literal(-15)))
          CFI V6 load(1, XDATA, add(CFA_XSP16, literal(-16)))
          CFI V5 load(1, XDATA, add(CFA_XSP16, literal(-17)))
          CFI V4 load(1, XDATA, add(CFA_XSP16, literal(-18)))
          CFI V3 load(1, XDATA, add(CFA_XSP16, literal(-19)))
          CFI V2 load(1, XDATA, add(CFA_XSP16, literal(-20)))
          CFI V1 load(1, XDATA, add(CFA_XSP16, literal(-21)))
          CFI V0 load(1, XDATA, add(CFA_XSP16, literal(-22)))
          CFI VB load(1, XDATA, add(CFA_XSP16, literal(-23)))
          CFI R6 load(1, XDATA, add(CFA_XSP16, literal(-24)))
          CFI CFA_SP SP+0
          CFI CFA_XSP16 add(XSP16, 24)
        ; Saved register size: 24
        ; Auto size: 10
        MOV       A,#-0xa
        LCALL     ?ALLOC_XSTACK8
          CFI CFA_XSP16 add(XSP16, 34)
        MOV       ?V10,R2
        MOV       ?V11,R3
//  875   uint8 epCnt = 0;
        MOV       DPL,?XSP + 0
        MOV       DPH,?XSP + 1
        MOV       A,#0x0
        MOVX      @DPTR,A
//  876   uint8 numInClusters;
//  877   uint16 *inClusters = NULL;
        MOV       A,#0x3
        LCALL     ?XSTACK_DISP0_8
        MOV       A,#0x0
        MOVX      @DPTR,A
        INC       DPTR
        MOV       A,#0x0
        MOVX      @DPTR,A
//  878   uint8 numOutClusters;
//  879   uint16 *outClusters = NULL;
        MOV       A,#0x1
        LCALL     ?XSTACK_DISP0_8
        MOV       A,#0x0
        MOVX      @DPTR,A
        INC       DPTR
        MOV       A,#0x0
        MOVX      @DPTR,A
//  880   epList_t *epDesc;
//  881   SimpleDescriptionFormat_t *sDesc = NULL;
        MOV       ?V12,#0x0
        MOV       ?V13,#0x0
//  882   uint8 allocated;
//  883   uint8 *msg;
//  884   uint16 aoi;
//  885   uint16 profileID;
//  886 
//  887   // Parse the incoming message
//  888   msg = inMsg->asdu;
        MOV       A,?V10
        ADD       A,#0x13
        MOV       DPL,A
        CLR       A
        ADDC      A,?V11
        MOV       DPH,A
        MOVX      A,@DPTR
        MOV       R0,A
        INC       DPTR
        MOVX      A,@DPTR
        MOV       R1,A
        MOV       ?V2,R0
        MOV       ?V3,R1
//  889   aoi = BUILD_UINT16( msg[0], msg[1] );
        MOV       DPL,?V2
        MOV       DPH,?V3
        MOVX      A,@DPTR
        MOV       R2,A
        MOV       R3,#0x0
        MOV       DPL,?V2
        MOV       DPH,?V3
        INC       DPTR
        MOVX      A,@DPTR
        MOV       R0,A
        MOV       R1,#0x0
        CLR       A
        XCH       A,R0
        MOV       R1,A
        MOV       A,R2
        ADD       A,R0
        MOV       R0,A
        MOV       A,R3
        ADDC      A,R1
        MOV       R1,A
        MOV       A,R0
        MOV       R6,A
        MOV       A,R1
        MOV       R7,A
//  890   profileID = BUILD_UINT16( msg[2], msg[3] );
        MOV       DPL,?V2
        MOV       DPH,?V3
        INC       DPTR
        INC       DPTR
        MOVX      A,@DPTR
        MOV       R2,A
        MOV       R3,#0x0
        MOV       DPL,?V2
        MOV       DPH,?V3
        INC       DPTR
        INC       DPTR
        INC       DPTR
        MOVX      A,@DPTR
        MOV       R0,A
        MOV       R1,#0x0
        CLR       A
        XCH       A,R0
        MOV       R1,A
        MOV       A,R2
        ADD       A,R0
        MOV       R0,A
        MOV       A,R3
        ADDC      A,R1
        MOV       R1,A
        MOV       A,#0x6
        LCALL     ?XSTACK_DISP0_8
        MOV       A,R0
        MOVX      @DPTR,A
        INC       DPTR
        MOV       A,R1
        MOVX      @DPTR,A
//  891   msg += 4;
        MOV       A,?V2
        ADD       A,#0x4
        MOV       ?V2,A
        JNC       ??ZDO_ProcessMatchDescReq_0
        INC       ?V3
//  892 
//  893   if ( ADDR_BCAST_NOT_ME == NLME_IsAddressBroadcast(aoi) )
??ZDO_ProcessMatchDescReq_0:
        ; Setup parameters for call to function NLME_IsAddressBroadcast
        MOV       A,R6
        MOV       R2,A
        MOV       A,R7
        MOV       R3,A
        LCALL     `??NLME_IsAddressBroadcast::?relay`; Banked call to: NLME_IsAddressBroadcast
        MOV       A,R1
        XRL       A,#0x1
        JNZ       ??ZDO_ProcessMatchDescReq_1
//  894   {
//  895     ZDP_MatchDescRsp( inMsg->TransSeq, &(inMsg->srcAddr), ZDP_INVALID_REQTYPE,
//  896                           aoi, 0, NULL, inMsg->SecurityUse );
        ; Setup parameters for call to function ZDP_EPRsp
        MOV       A,?V10
        ADD       A,#0xe
        MOV       DPL,A
        CLR       A
        ADDC      A,?V11
        MOV       DPH,A
        MOVX      A,@DPTR
        MOV       ?V0,A
        MOV       R0,#?V0
        LCALL     ?PUSH_XSTACK_I_ONE
          CFI CFA_XSP16 add(XSP16, 35)
        CLR       A
        MOV       ?V0,A
        MOV       ?V1,A
        MOV       R0,#?V0
        LCALL     ?PUSH_XSTACK_I_TWO
          CFI CFA_XSP16 add(XSP16, 37)
        MOV       ?V0,#0x0
        MOV       R0,#?V0
        LCALL     ?PUSH_XSTACK_I_ONE
          CFI CFA_XSP16 add(XSP16, 38)
        MOV       ?V0,R6
        MOV       ?V1,R7
        MOV       R0,#?V0
        LCALL     ?PUSH_XSTACK_I_TWO
          CFI CFA_XSP16 add(XSP16, 40)
        MOV       ?V0,#-0x80
        MOV       R0,#?V0
        LCALL     ?PUSH_XSTACK_I_ONE
          CFI CFA_XSP16 add(XSP16, 41)
        MOV       A,?V10
        ADD       A,#0x2
        MOV       R4,A
        CLR       A
        ADDC      A,?V11
        MOV       R5,A
        MOV       A,?V10
        ADD       A,#0xf
        MOV       DPL,A
        CLR       A
        ADDC      A,?V11
        MOV       DPH,A
        MOVX      A,@DPTR
        MOV       R1,A
        MOV       R2,#0x6
        MOV       R3,#-0x80
        LCALL     `??ZDP_EPRsp::?relay`; Banked call to: ZDP_EPRsp
        MOV       A,#0x7
        LCALL     ?DEALLOC_XSTACK8
          CFI CFA_XSP16 add(XSP16, 34)
        MOV       A,R1
//  897     return;
        LJMP      ??ZDO_ProcessMatchDescReq_2 & 0xFFFF
//  898   }
//  899   else if ( (ADDR_NOT_BCAST == NLME_IsAddressBroadcast(aoi)) && (aoi != ZDAppNwkAddr.addr.shortAddr) )
??ZDO_ProcessMatchDescReq_1:
        ; Setup parameters for call to function NLME_IsAddressBroadcast
        MOV       A,R6
        MOV       R2,A
        MOV       A,R7
        MOV       R3,A
        LCALL     `??NLME_IsAddressBroadcast::?relay`; Banked call to: NLME_IsAddressBroadcast
        MOV       A,R1
        JNZ       ??ZDO_ProcessMatchDescReq_3
        MOV       DPTR,#ZDAppNwkAddr
        MOVX      A,@DPTR
        XRL       A,R6
        JNZ       ??ZDO_ProcessMatchDescReq_4
        INC       DPTR
        MOVX      A,@DPTR
        XRL       A,R7
??ZDO_ProcessMatchDescReq_4:
        JZ        ??ZDO_ProcessMatchDescReq_3
//  900   {
//  901 #if (ZG_BUILD_ENDDEVICE_TYPE)
//  902     if(ZG_DEVICE_ENDDEVICE_TYPE)
//  903     {    
//  904     ZDP_MatchDescRsp( inMsg->TransSeq, &(inMsg->srcAddr), ZDP_INVALID_REQTYPE,
//  905                              aoi, 0, NULL, inMsg->SecurityUse );
        ; Setup parameters for call to function ZDP_EPRsp
        MOV       A,?V10
        ADD       A,#0xe
        MOV       DPL,A
        CLR       A
        ADDC      A,?V11
        MOV       DPH,A
        MOVX      A,@DPTR
        MOV       ?V0,A
        MOV       R0,#?V0
        LCALL     ?PUSH_XSTACK_I_ONE
          CFI CFA_XSP16 add(XSP16, 35)
        CLR       A
        MOV       ?V0,A
        MOV       ?V1,A
        MOV       R0,#?V0
        LCALL     ?PUSH_XSTACK_I_TWO
          CFI CFA_XSP16 add(XSP16, 37)
        MOV       ?V0,#0x0
        MOV       R0,#?V0
        LCALL     ?PUSH_XSTACK_I_ONE
          CFI CFA_XSP16 add(XSP16, 38)
        MOV       ?V0,R6
        MOV       ?V1,R7
        MOV       R0,#?V0
        LCALL     ?PUSH_XSTACK_I_TWO
          CFI CFA_XSP16 add(XSP16, 40)
        MOV       ?V0,#-0x80
        MOV       R0,#?V0
        LCALL     ?PUSH_XSTACK_I_ONE
          CFI CFA_XSP16 add(XSP16, 41)
        MOV       A,?V10
        ADD       A,#0x2
        MOV       R4,A
        CLR       A
        ADDC      A,?V11
        MOV       R5,A
        MOV       A,?V10
        ADD       A,#0xf
        MOV       DPL,A
        CLR       A
        ADDC      A,?V11
        MOV       DPH,A
        MOVX      A,@DPTR
        MOV       R1,A
        MOV       R2,#0x6
        MOV       R3,#-0x80
        LCALL     `??ZDP_EPRsp::?relay`; Banked call to: ZDP_EPRsp
        MOV       A,#0x7
        LCALL     ?DEALLOC_XSTACK8
          CFI CFA_XSP16 add(XSP16, 34)
        MOV       A,R1
//  906     }
//  907 #else 
//  908     if (ZG_DEVICE_RTR_TYPE)
//  909     {
//  910     ZDP_MatchDescRsp( inMsg->TransSeq, &(inMsg->srcAddr), ZDP_DEVICE_NOT_FOUND,
//  911                              aoi, 0, NULL, inMsg->SecurityUse );
//  912     }
//  913 #endif
//  914     return;
        LJMP      ??ZDO_ProcessMatchDescReq_2 & 0xFFFF
//  915   }
//  916 
//  917   if ((numInClusters = *msg++) &&
//  918       (inClusters = (uint16*)osal_mem_alloc( numInClusters * sizeof( uint16 ) )))
??ZDO_ProcessMatchDescReq_3:
        MOV       DPL,?V2
        MOV       DPH,?V3
        MOVX      A,@DPTR
        MOV       ?V7,A
        MOV       DPL,?V2
        MOV       DPH,?V3
        INC       DPTR
        MOV       ?V2,DPL
        MOV       ?V3,DPH
        MOV       A,?V7
        JZ        ??ZDO_ProcessMatchDescReq_5
        ; Setup parameters for call to function osal_mem_alloc
        MOV       A,?V7
        MOV       R2,A
        MOV       R3,#0x0
        MOV       A,R2
        MOV       B,#0x2
        MUL       AB
        XCH       A,R2
        MOV       R0,B
        MOV       B,#0x0
        MUL       AB
        ADD       A,R0
        MOV       R0,A
        MOV       B,#0x2
        MOV       A,R3
        MUL       AB
        ADD       A,R0
        MOV       R3,A
        LCALL     `??osal_mem_alloc::?relay`; Banked call to: osal_mem_alloc
        MOV       A,#0x3
        LCALL     ?XSTACK_DISP0_8
        MOV       A,R2
        MOVX      @DPTR,A
        INC       DPTR
        MOV       A,R3
        MOVX      @DPTR,A
        MOV       A,#0x3
        LCALL     ?XSTACK_DISP0_8
        MOVX      A,@DPTR
        MOV       R0,A
        INC       DPTR
        MOVX      A,@DPTR
        MOV       R1,A
        MOV       A,R0
        ORL       A,R1
        JZ        ??ZDO_ProcessMatchDescReq_5
//  919   {
//  920     msg = ZDO_ConvertOTAClusters( numInClusters, msg, inClusters );
        ; Setup parameters for call to function ZDO_ConvertOTAClusters
        MOV       A,#0x3
        LCALL     ?XSTACK_DISP0_8
        MOVX      A,@DPTR
        MOV       R4,A
        INC       DPTR
        MOVX      A,@DPTR
        MOV       R5,A
        MOV       R2,?V2
        MOV       R3,?V3
        MOV       R1,?V7
        LCALL     `??ZDO_ConvertOTAClusters::?relay`; Banked call to: ZDO_ConvertOTAClusters
        MOV       ?V0,R2
        MOV       ?V1,R3
        MOV       ?V2,?V0
        MOV       ?V3,?V1
        SJMP      ??ZDO_ProcessMatchDescReq_6
//  921   }
//  922   else
//  923   {
//  924     numInClusters = 0;
??ZDO_ProcessMatchDescReq_5:
        MOV       ?V7,#0x0
//  925   }
//  926 
//  927   if ((numOutClusters = *msg++) &&
//  928       (outClusters = (uint16 *)osal_mem_alloc( numOutClusters * sizeof( uint16 ) )))
??ZDO_ProcessMatchDescReq_6:
        MOV       DPL,?V2
        MOV       DPH,?V3
        MOVX      A,@DPTR
        MOV       ?V8,A
        MOV       DPL,?V2
        MOV       DPH,?V3
        INC       DPTR
        MOV       ?V2,DPL
        MOV       ?V3,DPH
        MOV       A,?V8
        JZ        ??ZDO_ProcessMatchDescReq_7
        ; Setup parameters for call to function osal_mem_alloc
        MOV       A,?V8
        MOV       R2,A
        MOV       R3,#0x0
        MOV       A,R2
        MOV       B,#0x2
        MUL       AB
        XCH       A,R2
        MOV       R0,B
        MOV       B,#0x0
        MUL       AB
        ADD       A,R0
        MOV       R0,A
        MOV       B,#0x2
        MOV       A,R3
        MUL       AB
        ADD       A,R0
        MOV       R3,A
        LCALL     `??osal_mem_alloc::?relay`; Banked call to: osal_mem_alloc
        MOV       A,#0x1
        LCALL     ?XSTACK_DISP0_8
        MOV       A,R2
        MOVX      @DPTR,A
        INC       DPTR
        MOV       A,R3
        MOVX      @DPTR,A
        MOV       A,#0x1
        LCALL     ?XSTACK_DISP0_8
        MOVX      A,@DPTR
        MOV       R0,A
        INC       DPTR
        MOVX      A,@DPTR
        MOV       R1,A
        MOV       A,R0
        ORL       A,R1
        JZ        ??ZDO_ProcessMatchDescReq_7
//  929   {
//  930     msg = ZDO_ConvertOTAClusters( numOutClusters, msg, outClusters );
        ; Setup parameters for call to function ZDO_ConvertOTAClusters
        MOV       A,#0x1
        LCALL     ?XSTACK_DISP0_8
        MOVX      A,@DPTR
        MOV       R4,A
        INC       DPTR
        MOVX      A,@DPTR
        MOV       R5,A
        MOV       R2,?V2
        MOV       R3,?V3
        MOV       R1,?V8
        LCALL     `??ZDO_ConvertOTAClusters::?relay`; Banked call to: ZDO_ConvertOTAClusters
        MOV       ?V0,R2
        MOV       ?V1,R3
        MOV       ?V2,?V0
        MOV       ?V3,?V1
        SJMP      ??ZDO_ProcessMatchDescReq_8
//  931   }
//  932   else
//  933   {
//  934     numOutClusters = 0;
??ZDO_ProcessMatchDescReq_7:
        MOV       ?V8,#0x0
//  935   }
//  936 
//  937   // First count the number of endpoints that match.
//  938   epDesc = epList;
??ZDO_ProcessMatchDescReq_8:
        MOV       DPTR,#epList
        MOVX      A,@DPTR
        MOV       R0,A
        INC       DPTR
        MOVX      A,@DPTR
        MOV       R1,A
        MOV       ?V14,R0
        MOV       ?V15,R1
//  939   while ( epDesc )
??ZDO_ProcessMatchDescReq_9:
        MOV       A,?V14
        ORL       A,?V15
        JNZ       $+5
        LJMP      ??ZDO_ProcessMatchDescReq_10 & 0xFFFF
//  940   {
//  941     // Don't search endpoint 0 and check if response is allowed
//  942     if ( epDesc->epDesc->endPoint != ZDO_EP && (epDesc->flags&eEP_AllowMatch) )
        MOV       DPL,?V14
        MOV       DPH,?V15
        INC       DPTR
        INC       DPTR
        MOVX      A,@DPTR
        MOV       R0,A
        INC       DPTR
        MOVX      A,@DPTR
        MOV       DPH,A
        MOV       DPL,R0
        MOVX      A,@DPTR
        JNZ       $+5
        LJMP      ??ZDO_ProcessMatchDescReq_11 & 0xFFFF
        MOV       DPL,?V14
        MOV       DPH,?V15
        INC       DPTR
        INC       DPTR
        INC       DPTR
        INC       DPTR
        INC       DPTR
        INC       DPTR
        INC       DPTR
        INC       DPTR
        MOVX      A,@DPTR
        MOV       C,0xE0 /* A   */.0
        JC        $+5
        LJMP      ??ZDO_ProcessMatchDescReq_11 & 0xFFFF
//  943     {
//  944       if ( epDesc->pfnDescCB )
        MOV       DPL,?V14
        MOV       DPH,?V15
        INC       DPTR
        INC       DPTR
        INC       DPTR
        INC       DPTR
        MOVX      A,@DPTR
        MOV       R0,A
        INC       DPTR
        MOVX      A,@DPTR
        MOV       R1,A
        MOV       A,R0
        ORL       A,R1
        JZ        ??ZDO_ProcessMatchDescReq_12
//  945       {
//  946         sDesc = (SimpleDescriptionFormat_t *)epDesc->pfnDescCB( AF_DESCRIPTOR_SIMPLE, epDesc->epDesc->endPoint );
        ; Setup parameters for indirect call
        MOV       DPL,?V14
        MOV       DPH,?V15
        INC       DPTR
        INC       DPTR
        MOVX      A,@DPTR
        MOV       R0,A
        INC       DPTR
        MOVX      A,@DPTR
        MOV       DPH,A
        MOV       DPL,R0
        MOVX      A,@DPTR
        MOV       R2,A
        MOV       R1,#0x1
        MOV       DPL,?V14
        MOV       DPH,?V15
        INC       DPTR
        INC       DPTR
        INC       DPTR
        INC       DPTR
        MOVX      A,@DPTR
        MOV       R0,A
        INC       DPTR
        MOVX      A,@DPTR
        MOV       DPH,A
        MOV       DPL,R0
        LCALL     ?CALL_IND
        MOV       ?V0,R2
        MOV       ?V1,R3
        MOV       ?V12,?V0
        MOV       ?V13,?V1
//  947         allocated = TRUE;
        MOV       A,#0x5
        LCALL     ?XSTACK_DISP0_8
        MOV       A,#0x1
        MOVX      @DPTR,A
        SJMP      ??ZDO_ProcessMatchDescReq_13
//  948       }
//  949       else
//  950       {
//  951         sDesc = epDesc->epDesc->simpleDesc;
??ZDO_ProcessMatchDescReq_12:
        MOV       DPL,?V14
        MOV       DPH,?V15
        INC       DPTR
        INC       DPTR
        MOVX      A,@DPTR
        MOV       R0,A
        INC       DPTR
        MOVX      A,@DPTR
        MOV       DPH,A
        MOV       DPL,R0
        INC       DPTR
        INC       DPTR
        INC       DPTR
        INC       DPTR
        MOVX      A,@DPTR
        MOV       R0,A
        INC       DPTR
        MOVX      A,@DPTR
        MOV       R1,A
        MOV       ?V12,R0
        MOV       ?V13,R1
//  952         allocated = FALSE;
        MOV       A,#0x5
        LCALL     ?XSTACK_DISP0_8
        MOV       A,#0x0
        MOVX      @DPTR,A
//  953       }
//  954 
//  955       // Allow specific ProfileId or Wildcard ProfileID
//  956       if ( sDesc && ( ( sDesc->AppProfId == profileID ) || ( profileID == ZDO_WILDCARD_PROFILE_ID ) ) )
??ZDO_ProcessMatchDescReq_13:
        MOV       A,?V12
        ORL       A,?V13
        JNZ       $+5
        LJMP      ??ZDO_ProcessMatchDescReq_14 & 0xFFFF
        MOV       DPL,?V12
        MOV       DPH,?V13
        INC       DPTR
        MOVX      A,@DPTR
        MOV       R0,A
        INC       DPTR
        MOVX      A,@DPTR
        MOV       R1,A
        MOV       A,#0x6
        LCALL     ?XSTACK_DISP0_8
        MOVX      A,@DPTR
        XRL       A,R0
        JNZ       ??ZDO_ProcessMatchDescReq_15
        INC       DPTR
        MOVX      A,@DPTR
        XRL       A,R1
??ZDO_ProcessMatchDescReq_15:
        JZ        ??ZDO_ProcessMatchDescReq_16
        MOV       A,#0x6
        LCALL     ?XSTACK_DISP0_8
        MOVX      A,@DPTR
        XRL       A,#0xff
        JNZ       ??ZDO_ProcessMatchDescReq_17
        INC       DPTR
        MOVX      A,@DPTR
        XRL       A,#0xff
??ZDO_ProcessMatchDescReq_17:
        JZ        $+5
        LJMP      ??ZDO_ProcessMatchDescReq_14 & 0xFFFF
//  957       {
//  958         uint8 *uint8Buf = (uint8 *)ZDOBuildBuf;
??ZDO_ProcessMatchDescReq_16:
        MOV       A,#0x8
        LCALL     ?XSTACK_DISP0_8
        MOV       A,#ZDOBuildBuf & 0xff
        MOVX      @DPTR,A
        INC       DPTR
        MOV       A,#(ZDOBuildBuf >> 8) & 0xff
        MOVX      @DPTR,A
//  959 
//  960         // Are there matching input clusters?
//  961         if ((ZDO_AnyClusterMatches( numInClusters, inClusters,
//  962                    sDesc->AppNumInClusters, sDesc->pAppInClusterList )) ||
//  963             // Are there matching output clusters?
//  964             (ZDO_AnyClusterMatches( numOutClusters, outClusters,
//  965                    sDesc->AppNumOutClusters, sDesc->pAppOutClusterList )))
        ; Setup parameters for call to function ZDO_AnyClusterMatches
        MOV       DPL,?V12
        MOV       DPH,?V13
        INC       DPTR
        INC       DPTR
        INC       DPTR
        INC       DPTR
        INC       DPTR
        INC       DPTR
        INC       DPTR
        LCALL     ?PUSH_XSTACK8_X_TWO
          CFI CFA_XSP16 add(XSP16, 36)
        MOV       DPL,?V12
        MOV       DPH,?V13
        INC       DPTR
        INC       DPTR
        INC       DPTR
        INC       DPTR
        INC       DPTR
        INC       DPTR
        MOVX      A,@DPTR
        MOV       R4,A
        MOV       A,#0x5
        LCALL     ?XSTACK_DISP0_8
        MOVX      A,@DPTR
        MOV       R2,A
        INC       DPTR
        MOVX      A,@DPTR
        MOV       R3,A
        MOV       R1,?V7
        LCALL     `??ZDO_AnyClusterMatches::?relay`; Banked call to: ZDO_AnyClusterMatches
        MOV       A,#0x2
        LCALL     ?DEALLOC_XSTACK8
          CFI CFA_XSP16 add(XSP16, 34)
        MOV       A,R1
        JNZ       ??ZDO_ProcessMatchDescReq_18
        ; Setup parameters for call to function ZDO_AnyClusterMatches
        MOV       DPL,?V12
        MOV       DPH,?V13
        INC       DPTR
        INC       DPTR
        INC       DPTR
        INC       DPTR
        INC       DPTR
        INC       DPTR
        INC       DPTR
        INC       DPTR
        INC       DPTR
        INC       DPTR
        LCALL     ?PUSH_XSTACK8_X_TWO
          CFI CFA_XSP16 add(XSP16, 36)
        MOV       DPL,?V12
        MOV       DPH,?V13
        INC       DPTR
        INC       DPTR
        INC       DPTR
        INC       DPTR
        INC       DPTR
        INC       DPTR
        INC       DPTR
        INC       DPTR
        INC       DPTR
        MOVX      A,@DPTR
        MOV       R4,A
        MOV       A,#0x3
        LCALL     ?XSTACK_DISP0_8
        MOVX      A,@DPTR
        MOV       R2,A
        INC       DPTR
        MOVX      A,@DPTR
        MOV       R3,A
        MOV       R1,?V8
        LCALL     `??ZDO_AnyClusterMatches::?relay`; Banked call to: ZDO_AnyClusterMatches
        MOV       A,#0x2
        LCALL     ?DEALLOC_XSTACK8
          CFI CFA_XSP16 add(XSP16, 34)
        MOV       A,R1
        JNZ       $+5
        LJMP      ??ZDO_ProcessMatchDescReq_14 & 0xFFFF
//  966         {
//  967           // Notify the endpoint of the match.
//  968           uint8 bufLen = sizeof( ZDO_MatchDescRspSent_t ) + (numOutClusters + numInClusters) * sizeof(uint16);
??ZDO_ProcessMatchDescReq_18:
        MOV       B,#0x2
        MOV       A,?V8
        MOV       R2,A
        MOV       R3,#0x0
        MOV       A,?V7
        MOV       R0,A
        MOV       R1,#0x0
        MOV       A,R2
        ADD       A,R0
        MOV       R0,A
        MOV       A,R3
        ADDC      A,R1
        MOV       R1,A
        MOV       A,R0
        MUL       AB
        ADD       A,#0xa
        MOV       ?V9,A
//  969           ZDO_MatchDescRspSent_t *pRspSent = (ZDO_MatchDescRspSent_t *) osal_msg_allocate( bufLen );
        ; Setup parameters for call to function osal_msg_allocate
        MOV       A,?V9
        MOV       R2,A
        MOV       R3,#0x0
        LCALL     `??osal_msg_allocate::?relay`; Banked call to: osal_msg_allocate
        MOV       ?V4,R2
        MOV       ?V5,R3
        MOV       ?V0,?V4
        MOV       ?V1,?V5
//  970 
//  971           if (pRspSent)
        MOV       A,?V0
        ORL       A,?V1
        JNZ       $+5
        LJMP      ??ZDO_ProcessMatchDescReq_19 & 0xFFFF
//  972           {
//  973             pRspSent->hdr.event = ZDO_MATCH_DESC_RSP_SENT;
        MOV       DPL,?V0
        MOV       DPH,?V1
        MOV       A,#-0x2e
        MOVX      @DPTR,A
//  974             pRspSent->nwkAddr = inMsg->srcAddr.addr.shortAddr;
        MOV       DPL,?V10
        MOV       DPH,?V11
        INC       DPTR
        INC       DPTR
        MOVX      A,@DPTR
        MOV       R0,A
        INC       DPTR
        MOVX      A,@DPTR
        MOV       R1,A
        MOV       DPL,?V0
        MOV       DPH,?V1
        INC       DPTR
        INC       DPTR
        MOV       A,R0
        MOVX      @DPTR,A
        INC       DPTR
        MOV       A,R1
        MOVX      @DPTR,A
//  975             pRspSent->numInClusters = numInClusters;
        MOV       A,?V7
        PUSH      A
          CFI CFA_SP SP+-1
        MOV       DPL,?V0
        MOV       DPH,?V1
        INC       DPTR
        INC       DPTR
        INC       DPTR
        INC       DPTR
        POP       A
          CFI CFA_SP SP+0
        MOVX      @DPTR,A
//  976             pRspSent->numOutClusters = numOutClusters;
        MOV       A,?V8
        PUSH      A
          CFI CFA_SP SP+-1
        MOV       DPL,?V0
        MOV       DPH,?V1
        INC       DPTR
        INC       DPTR
        INC       DPTR
        INC       DPTR
        INC       DPTR
        INC       DPTR
        INC       DPTR
        POP       A
          CFI CFA_SP SP+0
        MOVX      @DPTR,A
//  977 
//  978             if (numInClusters)
        MOV       A,?V7
        JZ        ??ZDO_ProcessMatchDescReq_20
//  979             {
//  980               pRspSent->pInClusters = (uint16*) (pRspSent + 1);
        MOV       A,?V0
        ADD       A,#0xa
        MOV       R0,A
        CLR       A
        ADDC      A,?V1
        MOV       R1,A
        MOV       DPL,?V0
        MOV       DPH,?V1
        INC       DPTR
        INC       DPTR
        INC       DPTR
        INC       DPTR
        INC       DPTR
        MOV       A,R0
        MOVX      @DPTR,A
        INC       DPTR
        MOV       A,R1
        MOVX      @DPTR,A
//  981               osal_memcpy(pRspSent->pInClusters, inClusters, numInClusters * sizeof(uint16));
        ; Setup parameters for call to function osal_memcpy
        MOV       A,#0x3
        LCALL     ?XSTACK_DISP0_8
        MOVX      A,@DPTR
        MOV       ?V4,A
        INC       DPTR
        MOVX      A,@DPTR
        MOV       ?V5,A
        MOV       ?V6,#0x0
        MOV       R0,#?V4
        LCALL     ?PUSH_XSTACK_I_THREE
          CFI CFA_XSP16 add(XSP16, 37)
        MOV       A,?V7
        MOV       R4,A
        MOV       R5,#0x0
        MOV       A,R4
        MOV       B,#0x2
        MUL       AB
        XCH       A,R4
        MOV       R0,B
        MOV       B,#0x0
        MUL       AB
        ADD       A,R0
        MOV       R0,A
        MOV       B,#0x2
        MOV       A,R5
        MUL       AB
        ADD       A,R0
        MOV       R5,A
        MOV       DPL,?V0
        MOV       DPH,?V1
        INC       DPTR
        INC       DPTR
        INC       DPTR
        INC       DPTR
        INC       DPTR
        MOVX      A,@DPTR
        MOV       R2,A
        INC       DPTR
        MOVX      A,@DPTR
        MOV       R3,A
        LCALL     `??osal_memcpy::?relay`; Banked call to: osal_memcpy
        MOV       A,#0x3
        LCALL     ?DEALLOC_XSTACK8
          CFI CFA_XSP16 add(XSP16, 34)
        SJMP      ??ZDO_ProcessMatchDescReq_21
//  982             }
//  983             else
//  984             {
//  985               pRspSent->pInClusters = NULL;
??ZDO_ProcessMatchDescReq_20:
        MOV       DPL,?V0
        MOV       DPH,?V1
        INC       DPTR
        INC       DPTR
        INC       DPTR
        INC       DPTR
        INC       DPTR
        MOV       A,#0x0
        MOVX      @DPTR,A
        INC       DPTR
        MOV       A,#0x0
        MOVX      @DPTR,A
//  986             }
//  987 
//  988             if (numOutClusters)
??ZDO_ProcessMatchDescReq_21:
        MOV       A,?V8
        JNZ       $+5
        LJMP      ??ZDO_ProcessMatchDescReq_22 & 0xFFFF
//  989             {
//  990               pRspSent->pOutClusters = (uint16*)(pRspSent + 1) + numInClusters;
        MOV       A,?V7
        MOV       R0,A
        MOV       R1,#0x0
        MOV       A,R0
        MOV       B,#0x2
        MUL       AB
        XCH       A,R0
        MOV       R2,B
        MOV       B,#0x0
        MUL       AB
        ADD       A,R2
        MOV       R2,A
        MOV       B,#0x2
        MOV       A,R1
        MUL       AB
        ADD       A,R2
        MOV       R1,A
        MOV       A,?V0
        ADD       A,R0
        MOV       R0,A
        MOV       A,?V1
        ADDC      A,R1
        MOV       R1,A
        MOV       A,R0
        ADD       A,#0xa
        MOV       R0,A
        JNC       ??ZDO_ProcessMatchDescReq_23
        INC       R1
??ZDO_ProcessMatchDescReq_23:
        MOV       DPL,?V0
        MOV       DPH,?V1
        INC       DPTR
        INC       DPTR
        INC       DPTR
        INC       DPTR
        INC       DPTR
        INC       DPTR
        INC       DPTR
        INC       DPTR
        MOV       A,R0
        MOVX      @DPTR,A
        INC       DPTR
        MOV       A,R1
        MOVX      @DPTR,A
//  991               osal_memcpy(pRspSent->pOutClusters, outClusters, numOutClusters * sizeof(uint16));
        ; Setup parameters for call to function osal_memcpy
        MOV       A,#0x1
        LCALL     ?XSTACK_DISP0_8
        MOVX      A,@DPTR
        MOV       ?V4,A
        INC       DPTR
        MOVX      A,@DPTR
        MOV       ?V5,A
        MOV       ?V6,#0x0
        MOV       R0,#?V4
        LCALL     ?PUSH_XSTACK_I_THREE
          CFI CFA_XSP16 add(XSP16, 37)
        MOV       A,?V8
        MOV       R4,A
        MOV       R5,#0x0
        MOV       A,R4
        MOV       B,#0x2
        MUL       AB
        XCH       A,R4
        MOV       R0,B
        MOV       B,#0x0
        MUL       AB
        ADD       A,R0
        MOV       R0,A
        MOV       B,#0x2
        MOV       A,R5
        MUL       AB
        ADD       A,R0
        MOV       R5,A
        MOV       DPL,?V0
        MOV       DPH,?V1
        INC       DPTR
        INC       DPTR
        INC       DPTR
        INC       DPTR
        INC       DPTR
        INC       DPTR
        INC       DPTR
        INC       DPTR
        MOVX      A,@DPTR
        MOV       R2,A
        INC       DPTR
        MOVX      A,@DPTR
        MOV       R3,A
        LCALL     `??osal_memcpy::?relay`; Banked call to: osal_memcpy
        MOV       A,#0x3
        LCALL     ?DEALLOC_XSTACK8
          CFI CFA_XSP16 add(XSP16, 34)
        SJMP      ??ZDO_ProcessMatchDescReq_24
//  992             }
//  993             else
//  994             {
//  995               pRspSent->pOutClusters = NULL;
??ZDO_ProcessMatchDescReq_22:
        MOV       DPL,?V0
        MOV       DPH,?V1
        INC       DPTR
        INC       DPTR
        INC       DPTR
        INC       DPTR
        INC       DPTR
        INC       DPTR
        INC       DPTR
        INC       DPTR
        MOV       A,#0x0
        MOVX      @DPTR,A
        INC       DPTR
        MOV       A,#0x0
        MOVX      @DPTR,A
//  996             }
//  997 
//  998             osal_msg_send( *epDesc->epDesc->task_id, (uint8 *)pRspSent );
??ZDO_ProcessMatchDescReq_24:
        ; Setup parameters for call to function osal_msg_send
        MOV       R2,?V0
        MOV       R3,?V1
        MOV       DPL,?V14
        MOV       DPH,?V15
        INC       DPTR
        INC       DPTR
        MOVX      A,@DPTR
        MOV       R0,A
        INC       DPTR
        MOVX      A,@DPTR
        MOV       DPH,A
        MOV       DPL,R0
        INC       DPTR
        INC       DPTR
        MOVX      A,@DPTR
        MOV       R0,A
        INC       DPTR
        MOVX      A,@DPTR
        MOV       DPH,A
        MOV       DPL,R0
        MOVX      A,@DPTR
        MOV       R1,A
        LCALL     `??osal_msg_send::?relay`; Banked call to: osal_msg_send
        MOV       A,R1
//  999           }
// 1000 
// 1001           uint8Buf[epCnt++] = sDesc->EndPoint;
??ZDO_ProcessMatchDescReq_19:
        MOV       DPL,?V12
        MOV       DPH,?V13
        MOVX      A,@DPTR
        PUSH      A
          CFI CFA_SP SP+-1
        MOV       DPL,?XSP + 0
        MOV       DPH,?XSP + 1
        MOVX      A,@DPTR
        MOV       R0,A
        MOV       R1,#0x0
        MOV       A,#0x8
        LCALL     ?XSTACK_DISP0_8
        MOVX      A,@DPTR
        ADD       A,R0
        MOV       R2,A
        INC       DPTR
        MOVX      A,@DPTR
        ADDC      A,R1
        MOV       DPL,R2
        MOV       DPH,A
        POP       A
          CFI CFA_SP SP+0
        MOVX      @DPTR,A
        MOV       DPL,?XSP + 0
        MOV       DPH,?XSP + 1
        MOVX      A,@DPTR
        ADD       A,#0x1
        MOVX      @DPTR,A
// 1002         }
// 1003       }
// 1004 
// 1005       if ( allocated )
??ZDO_ProcessMatchDescReq_14:
        MOV       A,#0x5
        LCALL     ?XSTACK_DISP0_8
        MOVX      A,@DPTR
        JZ        ??ZDO_ProcessMatchDescReq_11
// 1006       {
// 1007         osal_mem_free( sDesc );
        ; Setup parameters for call to function osal_mem_free
        MOV       R2,?V12
        MOV       R3,?V13
        LCALL     `??osal_mem_free::?relay`; Banked call to: osal_mem_free
// 1008       }
// 1009     }
// 1010     epDesc = epDesc->nextDesc;
??ZDO_ProcessMatchDescReq_11:
        MOV       DPL,?V14
        MOV       DPH,?V15
        MOVX      A,@DPTR
        MOV       ?V14,A
        INC       DPTR
        MOVX      A,@DPTR
        MOV       ?V15,A
        LJMP      ??ZDO_ProcessMatchDescReq_9 & 0xFFFF
// 1011   }
// 1012 
// 1013   if ( epCnt )
??ZDO_ProcessMatchDescReq_10:
        MOV       DPL,?XSP + 0
        MOV       DPH,?XSP + 1
        MOVX      A,@DPTR
        JZ        ??ZDO_ProcessMatchDescReq_25
// 1014   {
// 1015     // Send the message if at least one match found.
// 1016     if ( ZSuccess == ZDP_MatchDescRsp( inMsg->TransSeq, &(inMsg->srcAddr), ZDP_SUCCESS,
// 1017               ZDAppNwkAddr.addr.shortAddr, epCnt, (uint8 *)ZDOBuildBuf, inMsg->SecurityUse ) )
        ; Setup parameters for call to function ZDP_EPRsp
        MOV       A,?V10
        ADD       A,#0xe
        MOV       DPL,A
        CLR       A
        ADDC      A,?V11
        MOV       DPH,A
        MOVX      A,@DPTR
        MOV       ?V0,A
        MOV       R0,#?V0
        LCALL     ?PUSH_XSTACK_I_ONE
          CFI CFA_XSP16 add(XSP16, 35)
        MOV       ?V0,#ZDOBuildBuf & 0xff
        MOV       ?V1,#(ZDOBuildBuf >> 8) & 0xff
        MOV       R0,#?V0
        LCALL     ?PUSH_XSTACK_I_TWO
          CFI CFA_XSP16 add(XSP16, 37)
        MOV       A,#0x3
        LCALL     ?XSTACK_DISP0_8
        MOVX      A,@DPTR
        MOV       ?V0,A
        MOV       R0,#?V0
        LCALL     ?PUSH_XSTACK_I_ONE
          CFI CFA_XSP16 add(XSP16, 38)
        MOV       DPTR,#ZDAppNwkAddr
        LCALL     ?PUSH_XSTACK8_X_TWO
          CFI CFA_XSP16 add(XSP16, 40)
        MOV       ?V0,#0x0
        MOV       R0,#?V0
        LCALL     ?PUSH_XSTACK_I_ONE
          CFI CFA_XSP16 add(XSP16, 41)
        MOV       A,?V10
        ADD       A,#0x2
        MOV       R4,A
        CLR       A
        ADDC      A,?V11
        MOV       R5,A
        MOV       A,?V10
        ADD       A,#0xf
        MOV       DPL,A
        CLR       A
        ADDC      A,?V11
        MOV       DPH,A
        MOVX      A,@DPTR
        MOV       R1,A
        MOV       R2,#0x6
        MOV       R3,#-0x80
        LCALL     `??ZDP_EPRsp::?relay`; Banked call to: ZDP_EPRsp
        MOV       A,#0x7
        LCALL     ?DEALLOC_XSTACK8
          CFI CFA_XSP16 add(XSP16, 34)
        MOV       A,R1
        JZ        $+5
        LJMP      ??ZDO_ProcessMatchDescReq_26 & 0xFFFF
// 1018     {
// 1019 #if defined( LCD_SUPPORTED )
// 1020       HalLcdWriteScreen( "Match Desc Req", "Rsp Sent" );
        ; Setup parameters for call to function HalLcdWriteScreen
        MOV       R4,#`?<Constant "Rsp Sent">` & 0xff
        MOV       R5,#(`?<Constant "Rsp Sent">` >> 8) & 0xff
        MOV       R2,#`?<Constant "Match Desc Req">` & 0xff
        MOV       R3,#(`?<Constant "Match Desc Req">` >> 8) & 0xff
        LCALL     `??HalLcdWriteScreen::?relay`; Banked call to: HalLcdWriteScreen
        SJMP      ??ZDO_ProcessMatchDescReq_26
// 1021 #endif
// 1022     }
// 1023   }
// 1024   else
// 1025   {
// 1026     if (!inMsg->wasBroadcast)
??ZDO_ProcessMatchDescReq_25:
        MOV       A,?V10
        ADD       A,#0xb
        MOV       DPL,A
        CLR       A
        ADDC      A,?V11
        MOV       DPH,A
        MOVX      A,@DPTR
        JNZ       ??ZDO_ProcessMatchDescReq_27
// 1027     {
// 1028       // send response message with match length = 0
// 1029       ZDP_MatchDescRsp( inMsg->TransSeq, &(inMsg->srcAddr), ZDP_SUCCESS,
// 1030                         ZDAppNwkAddr.addr.shortAddr, 0, (uint8 *)ZDOBuildBuf, inMsg->SecurityUse );
        ; Setup parameters for call to function ZDP_EPRsp
        MOV       A,?V10
        ADD       A,#0xe
        MOV       DPL,A
        CLR       A
        ADDC      A,?V11
        MOV       DPH,A
        MOVX      A,@DPTR
        MOV       ?V0,A
        MOV       R0,#?V0
        LCALL     ?PUSH_XSTACK_I_ONE
          CFI CFA_XSP16 add(XSP16, 35)
        MOV       ?V0,#ZDOBuildBuf & 0xff
        MOV       ?V1,#(ZDOBuildBuf >> 8) & 0xff
        MOV       R0,#?V0
        LCALL     ?PUSH_XSTACK_I_TWO
          CFI CFA_XSP16 add(XSP16, 37)
        MOV       ?V0,#0x0
        MOV       R0,#?V0
        LCALL     ?PUSH_XSTACK_I_ONE
          CFI CFA_XSP16 add(XSP16, 38)
        MOV       DPTR,#ZDAppNwkAddr
        LCALL     ?PUSH_XSTACK8_X_TWO
          CFI CFA_XSP16 add(XSP16, 40)
        MOV       ?V0,#0x0
        MOV       R0,#?V0
        LCALL     ?PUSH_XSTACK_I_ONE
          CFI CFA_XSP16 add(XSP16, 41)
        MOV       A,?V10
        ADD       A,#0x2
        MOV       R4,A
        CLR       A
        ADDC      A,?V11
        MOV       R5,A
        MOV       A,?V10
        ADD       A,#0xf
        MOV       DPL,A
        CLR       A
        ADDC      A,?V11
        MOV       DPH,A
        MOVX      A,@DPTR
        MOV       R1,A
        MOV       R2,#0x6
        MOV       R3,#-0x80
        LCALL     `??ZDP_EPRsp::?relay`; Banked call to: ZDP_EPRsp
        MOV       A,#0x7
        LCALL     ?DEALLOC_XSTACK8
          CFI CFA_XSP16 add(XSP16, 34)
        MOV       A,R1
// 1031 #if defined( LCD_SUPPORTED )
// 1032       HalLcdWriteScreen( "Match Desc Req", "Rsp Non Matched" );
        ; Setup parameters for call to function HalLcdWriteScreen
        MOV       R4,#`?<Constant "Rsp Non Matched">` & 0xff
        MOV       R5,#(`?<Constant "Rsp Non Matched">` >> 8) & 0xff
        MOV       R2,#`?<Constant "Match Desc Req">` & 0xff
        MOV       R3,#(`?<Constant "Match Desc Req">` >> 8) & 0xff
        LCALL     `??HalLcdWriteScreen::?relay`; Banked call to: HalLcdWriteScreen
        SJMP      ??ZDO_ProcessMatchDescReq_26
// 1033 #endif
// 1034     }
// 1035     else
// 1036     {
// 1037       // no response mesage for broadcast message
// 1038 #if defined( LCD_SUPPORTED )
// 1039       HalLcdWriteScreen( "Match Desc Req", "Non Matched" );
??ZDO_ProcessMatchDescReq_27:
        ; Setup parameters for call to function HalLcdWriteScreen
        MOV       R4,#`?<Constant "Non Matched">` & 0xff
        MOV       R5,#(`?<Constant "Non Matched">` >> 8) & 0xff
        MOV       R2,#`?<Constant "Match Desc Req">` & 0xff
        MOV       R3,#(`?<Constant "Match Desc Req">` >> 8) & 0xff
        LCALL     `??HalLcdWriteScreen::?relay`; Banked call to: HalLcdWriteScreen
// 1040 #endif
// 1041     }
// 1042   }
// 1043 
// 1044   if ( inClusters != NULL )
??ZDO_ProcessMatchDescReq_26:
        MOV       A,#0x3
        LCALL     ?XSTACK_DISP0_8
        MOVX      A,@DPTR
        MOV       R0,A
        INC       DPTR
        MOVX      A,@DPTR
        MOV       R1,A
        MOV       A,R0
        ORL       A,R1
        JZ        ??ZDO_ProcessMatchDescReq_28
// 1045   {
// 1046     osal_mem_free( inClusters );
        ; Setup parameters for call to function osal_mem_free
        MOV       A,#0x3
        LCALL     ?XSTACK_DISP0_8
        MOVX      A,@DPTR
        MOV       R2,A
        INC       DPTR
        MOVX      A,@DPTR
        MOV       R3,A
        LCALL     `??osal_mem_free::?relay`; Banked call to: osal_mem_free
// 1047   }
// 1048 
// 1049   if ( outClusters != NULL )
??ZDO_ProcessMatchDescReq_28:
        MOV       A,#0x1
        LCALL     ?XSTACK_DISP0_8
        MOVX      A,@DPTR
        MOV       R0,A
        INC       DPTR
        MOVX      A,@DPTR
        MOV       R1,A
        MOV       A,R0
        ORL       A,R1
        JZ        ??ZDO_ProcessMatchDescReq_2
// 1050   {
// 1051     osal_mem_free( outClusters );
        ; Setup parameters for call to function osal_mem_free
        MOV       A,#0x1
        LCALL     ?XSTACK_DISP0_8
        MOVX      A,@DPTR
        MOV       R2,A
        INC       DPTR
        MOVX      A,@DPTR
        MOV       R3,A
        LCALL     `??osal_mem_free::?relay`; Banked call to: osal_mem_free
// 1052   }
// 1053 }
??ZDO_ProcessMatchDescReq_2:
        MOV       A,#0xa
        LCALL     ?DEALLOC_XSTACK8
          CFI CFA_XSP16 add(XSP16, 24)
        MOV       R7,#0x10
        LJMP      ?BANKED_LEAVE_XDATA
          CFI EndBlock cfiBlock15
// 1054 
// 1055 #if defined ( REFLECTOR )
// 1056 /*********************************************************************
// 1057  * @fn      ZDO_ProcessBindUnbindReq()
// 1058  *
// 1059  * @brief   Called to process a Bind or Unbind Request message.
// 1060  *
// 1061  * @param   inMsg  - incoming message (request)
// 1062  * @param   pReq - place to put parsed information
// 1063  *
// 1064  * @return  none
// 1065  */

        RSEG BANKED_CODE:HUGECODE:NOROOT(0)
// 1066 void ZDO_ProcessBindUnbindReq( zdoIncomingMsg_t *inMsg, ZDO_BindUnbindReq_t *pReq )
ZDO_ProcessBindUnbindReq:
          CFI Block cfiBlock16 Using cfiCommon0
          CFI Function ZDO_ProcessBindUnbindReq
        CODE
// 1067 {
        FUNCALL ZDO_ProcessBindUnbindReq, sAddrExtCpy
        LOCFRAME ISTACK, 0, STACK
        LOCFRAME PSTACK, 0, STACK
        LOCFRAME XSTACK, 24, STACK
        LOCFRAME IOVERLAY, 0, STATIC
        LOCFRAME DOVERLAY, 0, STATIC
        ARGFRAME ISTACK, 0, STACK
        ARGFRAME PSTACK, 0, STACK
        ARGFRAME XSTACK, 24, STACK
        ARGFRAME IOVERLAY, 0, STATIC
        ARGFRAME DOVERLAY, 0, STATIC
        FUNCALL ZDO_ProcessBindUnbindReq, NLME_GetExtAddr
        LOCFRAME ISTACK, 0, STACK
        LOCFRAME PSTACK, 0, STACK
        LOCFRAME XSTACK, 24, STACK
        LOCFRAME IOVERLAY, 0, STATIC
        LOCFRAME DOVERLAY, 0, STATIC
        ARGFRAME ISTACK, 0, STACK
        ARGFRAME PSTACK, 0, STACK
        ARGFRAME XSTACK, 24, STACK
        ARGFRAME IOVERLAY, 0, STATIC
        ARGFRAME DOVERLAY, 0, STATIC
        FUNCALL ZDO_ProcessBindUnbindReq, sAddrExtCmp
        LOCFRAME ISTACK, 0, STACK
        LOCFRAME PSTACK, 0, STACK
        LOCFRAME XSTACK, 24, STACK
        LOCFRAME IOVERLAY, 0, STATIC
        LOCFRAME DOVERLAY, 0, STATIC
        ARGFRAME ISTACK, 0, STACK
        ARGFRAME PSTACK, 0, STACK
        ARGFRAME XSTACK, 24, STACK
        ARGFRAME IOVERLAY, 0, STATIC
        ARGFRAME DOVERLAY, 0, STATIC
        FUNCALL ZDO_ProcessBindUnbindReq, APSME_BindRequest
        LOCFRAME ISTACK, 0, STACK
        LOCFRAME PSTACK, 0, STACK
        LOCFRAME XSTACK, 25, STACK
        LOCFRAME IOVERLAY, 0, STATIC
        LOCFRAME DOVERLAY, 0, STATIC
        ARGFRAME ISTACK, 0, STACK
        ARGFRAME PSTACK, 0, STACK
        ARGFRAME XSTACK, 25, STACK
        ARGFRAME IOVERLAY, 0, STATIC
        ARGFRAME DOVERLAY, 0, STATIC
        FUNCALL ZDO_ProcessBindUnbindReq, ZDApp_NVUpdate
        LOCFRAME ISTACK, 0, STACK
        LOCFRAME PSTACK, 0, STACK
        LOCFRAME XSTACK, 24, STACK
        LOCFRAME IOVERLAY, 0, STATIC
        LOCFRAME DOVERLAY, 0, STATIC
        ARGFRAME ISTACK, 0, STACK
        ARGFRAME PSTACK, 0, STACK
        ARGFRAME XSTACK, 24, STACK
        ARGFRAME IOVERLAY, 0, STATIC
        ARGFRAME DOVERLAY, 0, STATIC
        FUNCALL ZDO_ProcessBindUnbindReq, APSME_LookupNwkAddr
        LOCFRAME ISTACK, 0, STACK
        LOCFRAME PSTACK, 0, STACK
        LOCFRAME XSTACK, 24, STACK
        LOCFRAME IOVERLAY, 0, STATIC
        LOCFRAME DOVERLAY, 0, STATIC
        ARGFRAME ISTACK, 0, STACK
        ARGFRAME PSTACK, 0, STACK
        ARGFRAME XSTACK, 24, STACK
        ARGFRAME IOVERLAY, 0, STATIC
        ARGFRAME DOVERLAY, 0, STATIC
        FUNCALL ZDO_ProcessBindUnbindReq, ZDP_NwkAddrReq
        LOCFRAME ISTACK, 0, STACK
        LOCFRAME PSTACK, 0, STACK
        LOCFRAME XSTACK, 24, STACK
        LOCFRAME IOVERLAY, 0, STATIC
        LOCFRAME DOVERLAY, 0, STATIC
        ARGFRAME ISTACK, 0, STACK
        ARGFRAME PSTACK, 0, STACK
        ARGFRAME XSTACK, 24, STACK
        ARGFRAME IOVERLAY, 0, STATIC
        ARGFRAME DOVERLAY, 0, STATIC
        FUNCALL ZDO_ProcessBindUnbindReq, APSME_UnBindRequest
        LOCFRAME ISTACK, 0, STACK
        LOCFRAME PSTACK, 0, STACK
        LOCFRAME XSTACK, 25, STACK
        LOCFRAME IOVERLAY, 0, STATIC
        LOCFRAME DOVERLAY, 0, STATIC
        ARGFRAME ISTACK, 0, STACK
        ARGFRAME PSTACK, 0, STACK
        ARGFRAME XSTACK, 25, STACK
        ARGFRAME IOVERLAY, 0, STATIC
        ARGFRAME DOVERLAY, 0, STATIC
        FUNCALL ZDO_ProcessBindUnbindReq, ZDApp_NVUpdate
        LOCFRAME ISTACK, 0, STACK
        LOCFRAME PSTACK, 0, STACK
        LOCFRAME XSTACK, 24, STACK
        LOCFRAME IOVERLAY, 0, STATIC
        LOCFRAME DOVERLAY, 0, STATIC
        ARGFRAME ISTACK, 0, STACK
        ARGFRAME PSTACK, 0, STACK
        ARGFRAME XSTACK, 24, STACK
        ARGFRAME IOVERLAY, 0, STATIC
        ARGFRAME DOVERLAY, 0, STATIC
        FUNCALL ZDO_ProcessBindUnbindReq, ZDP_SendData
        LOCFRAME ISTACK, 0, STACK
        LOCFRAME PSTACK, 0, STACK
        LOCFRAME XSTACK, 29, STACK
        LOCFRAME IOVERLAY, 0, STATIC
        LOCFRAME DOVERLAY, 0, STATIC
        ARGFRAME ISTACK, 0, STACK
        ARGFRAME PSTACK, 0, STACK
        ARGFRAME XSTACK, 29, STACK
        ARGFRAME IOVERLAY, 0, STATIC
        ARGFRAME DOVERLAY, 0, STATIC
        REQUIRE ?V0
        REQUIRE ?V1
        REQUIRE ?V2
        REQUIRE ?V3
        MOV       A,#-0xc
        LCALL     ?BANKED_ENTER_XDATA
          CFI DPH0 load(1, XDATA, add(CFA_XSP16, literal(-1)))
          CFI DPL0 load(1, XDATA, add(CFA_XSP16, literal(-2)))
          CFI ?BRET_EXT load(1, XDATA, add(CFA_XSP16, literal(-3)))
          CFI ?RET_HIGH load(1, XDATA, add(CFA_XSP16, literal(-4)))
          CFI ?RET_LOW load(1, XDATA, add(CFA_XSP16, literal(-5)))
          CFI R7 load(1, XDATA, add(CFA_XSP16, literal(-6)))
          CFI V3 load(1, XDATA, add(CFA_XSP16, literal(-7)))
          CFI V2 load(1, XDATA, add(CFA_XSP16, literal(-8)))
          CFI V1 load(1, XDATA, add(CFA_XSP16, literal(-9)))
          CFI V0 load(1, XDATA, add(CFA_XSP16, literal(-10)))
          CFI VB load(1, XDATA, add(CFA_XSP16, literal(-11)))
          CFI R6 load(1, XDATA, add(CFA_XSP16, literal(-12)))
          CFI CFA_SP SP+0
          CFI CFA_XSP16 add(XSP16, 12)
        ; Saved register size: 12
        ; Auto size: 12
        MOV       A,#-0xc
        LCALL     ?ALLOC_XSTACK8
          CFI CFA_XSP16 add(XSP16, 24)
        MOV       ?V0,R2
        MOV       ?V1,R3
        MOV       A,R4
        MOV       R6,A
        MOV       A,R5
        MOV       R7,A
// 1068   zAddrType_t SourceAddr;       // Binding Source addres
// 1069   byte bindStat;
// 1070 
// 1071   SourceAddr.addrMode = Addr64Bit;
        MOV       A,#0xb
        LCALL     ?XSTACK_DISP0_8
        MOV       A,#0x3
        MOVX      @DPTR,A
// 1072   osal_cpyExtAddr( SourceAddr.addr.extAddr, pReq->srcAddress );
        ; Setup parameters for call to function sAddrExtCpy
        MOV       A,R6
        MOV       R4,A
        MOV       A,R7
        MOV       R5,A
        MOV       A,#0x3
        LCALL     ?XSTACK_DISP101_8
        LCALL     `??sAddrExtCpy::?relay`; Banked call to: sAddrExtCpy
// 1073 
// 1074   // If the local device is not the primary binding cache
// 1075   // check the src address of the bind request.
// 1076   // If it is not the local device's extended address
// 1077   // discard the request.
// 1078   if ( !osal_ExtAddrEqual( SourceAddr.addr.extAddr, NLME_GetExtAddr()) ||
// 1079         (pReq->dstAddress.addrMode != Addr64Bit &&
// 1080          pReq->dstAddress.addrMode != AddrGroup) )
        ; Setup parameters for call to function NLME_GetExtAddr
        LCALL     `??NLME_GetExtAddr::?relay`; Banked call to: NLME_GetExtAddr
        MOV       ?V2,R2
        MOV       ?V3,R3
        MOV       R4,?V2
        MOV       R5,?V3
        ; Setup parameters for call to function sAddrExtCmp
        MOV       A,#0x3
        LCALL     ?XSTACK_DISP101_8
        LCALL     `??sAddrExtCmp::?relay`; Banked call to: sAddrExtCmp
        MOV       A,R1
        JZ        ??ZDO_ProcessBindUnbindReq_0
        MOV       A,R6
        ADD       A,#0x13
        MOV       DPL,A
        CLR       A
        ADDC      A,R7
        MOV       DPH,A
        MOVX      A,@DPTR
        XRL       A,#0x3
        JZ        ??ZDO_ProcessBindUnbindReq_1
        MOV       A,R6
        ADD       A,#0x13
        MOV       DPL,A
        CLR       A
        ADDC      A,R7
        MOV       DPH,A
        MOVX      A,@DPTR
        XRL       A,#0x1
        JZ        ??ZDO_ProcessBindUnbindReq_1
// 1081   {
// 1082     bindStat = ZDP_NOT_SUPPORTED;
??ZDO_ProcessBindUnbindReq_0:
        MOV       DPL,?XSP + 0
        MOV       DPH,?XSP + 1
        MOV       A,#-0x7c
        MOVX      @DPTR,A
        LJMP      ??ZDO_ProcessBindUnbindReq_2 & 0xFFFF
// 1083   }
// 1084   else
// 1085   {
// 1086     // Check source & destination endpoints
// 1087     if ( (pReq->srcEndpoint == 0 || pReq->srcEndpoint > MAX_ENDPOINTS)
// 1088         || (( pReq->dstAddress.addrMode == Addr64Bit ) &&
// 1089             (pReq->dstEndpoint == 0 || pReq->dstEndpoint > MAX_ENDPOINTS)) )
??ZDO_ProcessBindUnbindReq_1:
        MOV       DPL,R6
        MOV       DPH,R7
        INC       DPTR
        INC       DPTR
        INC       DPTR
        INC       DPTR
        INC       DPTR
        INC       DPTR
        INC       DPTR
        INC       DPTR
        MOVX      A,@DPTR
        JZ        ??ZDO_ProcessBindUnbindReq_3
        MOV       DPL,R6
        MOV       DPH,R7
        INC       DPTR
        INC       DPTR
        INC       DPTR
        INC       DPTR
        INC       DPTR
        INC       DPTR
        INC       DPTR
        INC       DPTR
        MOVX      A,@DPTR
        XRL       A,#0xff
        JZ        ??ZDO_ProcessBindUnbindReq_3
        MOV       A,R6
        ADD       A,#0x13
        MOV       DPL,A
        CLR       A
        ADDC      A,R7
        MOV       DPH,A
        MOVX      A,@DPTR
        XRL       A,#0x3
        JNZ       ??ZDO_ProcessBindUnbindReq_4
        MOV       A,R6
        ADD       A,#0x14
        MOV       DPL,A
        CLR       A
        ADDC      A,R7
        MOV       DPH,A
        MOVX      A,@DPTR
        JZ        ??ZDO_ProcessBindUnbindReq_3
        MOV       A,R6
        ADD       A,#0x14
        MOV       DPL,A
        CLR       A
        ADDC      A,R7
        MOV       DPH,A
        MOVX      A,@DPTR
        XRL       A,#0xff
        JNZ       ??ZDO_ProcessBindUnbindReq_4
// 1090     {
// 1091       bindStat = ZDP_INVALID_EP;
??ZDO_ProcessBindUnbindReq_3:
        MOV       DPL,?XSP + 0
        MOV       DPH,?XSP + 1
        MOV       A,#-0x7e
        MOVX      @DPTR,A
        LJMP      ??ZDO_ProcessBindUnbindReq_2 & 0xFFFF
// 1092     }
// 1093     else
// 1094     {
// 1095       if ( inMsg->clusterID == Bind_req )
??ZDO_ProcessBindUnbindReq_4:
        MOV       A,?V0
        ADD       A,#0xc
        MOV       DPL,A
        CLR       A
        ADDC      A,?V1
        MOV       DPH,A
        MOVX      A,@DPTR
        XRL       A,#0x21
        JNZ       ??ZDO_ProcessBindUnbindReq_5
        INC       DPTR
        MOVX      A,@DPTR
        XRL       A,#0x0
??ZDO_ProcessBindUnbindReq_5:
        JZ        $+5
        LJMP      ??ZDO_ProcessBindUnbindReq_6 & 0xFFFF
// 1096       {
// 1097         // Assume the table is full
// 1098         bindStat = ZDP_TABLE_FULL;
        MOV       DPL,?XSP + 0
        MOV       DPH,?XSP + 1
        MOV       A,#-0x74
        MOVX      @DPTR,A
// 1099 
// 1100 #if defined( APP_TP ) || defined( APP_TP2 )
// 1101         // For ZigBee Conformance Testing
// 1102         if ( bindNumOfEntries() < gNWK_MAX_BINDING_ENTRIES )
// 1103 #endif
// 1104         {
// 1105 #if defined ( ZDP_BIND_VALIDATION )
// 1106           uint16 nwkAddr;
// 1107 
// 1108           // Verifies that a valid NWK address exists for the device
// 1109           // before creating a Binding entry. If NWK address does not
// 1110           // exist the request is sent out and the BindReq is saved, to
// 1111           // create the Bind Entry once the NwkAddrRsp is received
// 1112           if ( ( pReq->dstAddress.addrMode == Addr64Bit ) &&
// 1113                ( APSME_LookupNwkAddr( pReq->dstAddress.addr.extAddr, &nwkAddr ) == FALSE ) )
// 1114           {
// 1115             // find an empty bind slot in the pending Bind Req list
// 1116             ZDO_PendingBindReq_t *pPendingBind;
// 1117 
// 1118             if ( ( pPendingBind = ZDApp_GetEmptyPendingBindReq() ) != NULL )
// 1119             {
// 1120               // copy the received request into the empty slot and all required info
// 1121               osal_memcpy( &(pPendingBind->bindReq), pReq, sizeof( ZDO_BindUnbindReq_t ) );
// 1122 
// 1123               pPendingBind->srcAddr = inMsg->srcAddr;
// 1124               pPendingBind->securityUse = inMsg->SecurityUse;
// 1125               pPendingBind->transSeq = inMsg->TransSeq;
// 1126               pPendingBind->age = MAX_TIME_ADDR_REQ;
// 1127 
// 1128               // create an entry in Address Manager
// 1129               ( void )bindAddrIndexGet( &(pReq->dstAddress) );
// 1130 
// 1131               ZDP_NwkAddrReq( pReq->dstAddress.addr.extAddr, ZDP_ADDR_REQTYPE_SINGLE, 0, 0 );
// 1132 
// 1133               osal_start_timerEx( ZDAppTaskID, ZDO_PENDING_BIND_REQ_EVT,
// 1134                                   AGE_OUT_PEND_BIND_REQ_DELAY );
// 1135               return;
// 1136             }
// 1137           }
// 1138           // Add Bind entry
// 1139           else if ( APSME_BindRequest( pReq->srcEndpoint, pReq->clusterID,
// 1140                                        &(pReq->dstAddress), pReq->dstEndpoint ) == ZSuccess )
// 1141           {
// 1142             // valid entry
// 1143             bindStat = ZDP_SUCCESS;
// 1144 
// 1145             // Notify to save info into NV
// 1146             ZDApp_NVUpdate();
// 1147           }
// 1148 #else // ZDP_BIND_VALIDATION  is not Defined
// 1149           // Create binding entry first independently of existance of  valid NWK addres
// 1150           // if NWK address does not exist a request is sent out
// 1151           if ( APSME_BindRequest( pReq->srcEndpoint, pReq->clusterID,
// 1152                          &(pReq->dstAddress), pReq->dstEndpoint ) == ZSuccess )
        ; Setup parameters for call to function APSME_BindRequest
        MOV       A,R6
        ADD       A,#0x14
        MOV       DPL,A
        CLR       A
        ADDC      A,R7
        MOV       DPH,A
        MOVX      A,@DPTR
        MOV       ?V2,A
        MOV       R0,#?V2
        LCALL     ?PUSH_XSTACK_I_ONE
          CFI CFA_XSP16 add(XSP16, 25)
        MOV       A,R6
        ADD       A,#0xb
        MOV       R4,A
        CLR       A
        ADDC      A,R7
        MOV       R5,A
        MOV       DPL,R6
        MOV       DPH,R7
        INC       DPTR
        INC       DPTR
        INC       DPTR
        INC       DPTR
        INC       DPTR
        INC       DPTR
        INC       DPTR
        INC       DPTR
        INC       DPTR
        MOVX      A,@DPTR
        MOV       R2,A
        INC       DPTR
        MOVX      A,@DPTR
        MOV       R3,A
        MOV       DPL,R6
        MOV       DPH,R7
        INC       DPTR
        INC       DPTR
        INC       DPTR
        INC       DPTR
        INC       DPTR
        INC       DPTR
        INC       DPTR
        INC       DPTR
        MOVX      A,@DPTR
        MOV       R1,A
        LCALL     `??APSME_BindRequest::?relay`; Banked call to: APSME_BindRequest
        MOV       A,#0x1
        LCALL     ?DEALLOC_XSTACK8
          CFI CFA_XSP16 add(XSP16, 24)
        MOV       A,R1
        JZ        $+5
        LJMP      ??ZDO_ProcessBindUnbindReq_2 & 0xFFFF
// 1153           {
// 1154             uint16 nwkAddr;
// 1155 
// 1156             // valid entry
// 1157             bindStat = ZDP_SUCCESS;
        MOV       DPL,?XSP + 0
        MOV       DPH,?XSP + 1
        MOV       A,#0x0
        MOVX      @DPTR,A
// 1158 
// 1159             // Notify to save info into NV
// 1160             ZDApp_NVUpdate();
        ; Setup parameters for call to function ZDApp_NVUpdate
        LCALL     `??ZDApp_NVUpdate::?relay`; Banked call to: ZDApp_NVUpdate
// 1161 
// 1162             // Check for the destination address
// 1163             if ( pReq->dstAddress.addrMode == Addr64Bit )
        MOV       A,R6
        ADD       A,#0x13
        MOV       DPL,A
        CLR       A
        ADDC      A,R7
        MOV       DPH,A
        MOVX      A,@DPTR
        XRL       A,#0x3
        JNZ       ??ZDO_ProcessBindUnbindReq_2
// 1164             {
// 1165               if ( APSME_LookupNwkAddr( pReq->dstAddress.addr.extAddr, &nwkAddr ) == FALSE )
        ; Setup parameters for call to function APSME_LookupNwkAddr
        MOV       A,#0x1
        LCALL     ?XSTACK_DISP102_8
        MOV       A,R6
        ADD       A,#0xb
        MOV       R2,A
        CLR       A
        ADDC      A,R7
        MOV       R3,A
        LCALL     `??APSME_LookupNwkAddr::?relay`; Banked call to: APSME_LookupNwkAddr
        MOV       A,R1
        JNZ       ??ZDO_ProcessBindUnbindReq_2
// 1166               {
// 1167                 ZDP_NwkAddrReq( pReq->dstAddress.addr.extAddr, ZDP_ADDR_REQTYPE_SINGLE, 0, 0 );
        ; Setup parameters for call to function ZDP_NwkAddrReq
        MOV       R5,#0x0
        MOV       R4,#0x0
        MOV       R1,#0x0
        MOV       A,R6
        ADD       A,#0xb
        MOV       R2,A
        CLR       A
        ADDC      A,R7
        MOV       R3,A
        LCALL     `??ZDP_NwkAddrReq::?relay`; Banked call to: ZDP_NwkAddrReq
        MOV       A,R1
        SJMP      ??ZDO_ProcessBindUnbindReq_2
// 1168               }
// 1169             }
// 1170           }
// 1171 #endif
// 1172         }
// 1173       }
// 1174       else // Unbind_req
// 1175       {
// 1176         if ( APSME_UnBindRequest( pReq->srcEndpoint, pReq->clusterID,
// 1177                        &(pReq->dstAddress), pReq->dstEndpoint ) == ZSuccess )
??ZDO_ProcessBindUnbindReq_6:
        ; Setup parameters for call to function APSME_UnBindRequest
        MOV       A,R6
        ADD       A,#0x14
        MOV       DPL,A
        CLR       A
        ADDC      A,R7
        MOV       DPH,A
        MOVX      A,@DPTR
        MOV       ?V2,A
        MOV       R0,#?V2
        LCALL     ?PUSH_XSTACK_I_ONE
          CFI CFA_XSP16 add(XSP16, 25)
        MOV       A,R6
        ADD       A,#0xb
        MOV       R4,A
        CLR       A
        ADDC      A,R7
        MOV       R5,A
        MOV       DPL,R6
        MOV       DPH,R7
        INC       DPTR
        INC       DPTR
        INC       DPTR
        INC       DPTR
        INC       DPTR
        INC       DPTR
        INC       DPTR
        INC       DPTR
        INC       DPTR
        MOVX      A,@DPTR
        MOV       R2,A
        INC       DPTR
        MOVX      A,@DPTR
        MOV       R3,A
        MOV       DPL,R6
        MOV       DPH,R7
        INC       DPTR
        INC       DPTR
        INC       DPTR
        INC       DPTR
        INC       DPTR
        INC       DPTR
        INC       DPTR
        INC       DPTR
        MOVX      A,@DPTR
        MOV       R1,A
        LCALL     `??APSME_UnBindRequest::?relay`; Banked call to: APSME_UnBindRequest
        MOV       A,#0x1
        LCALL     ?DEALLOC_XSTACK8
          CFI CFA_XSP16 add(XSP16, 24)
        MOV       A,R1
        JNZ       ??ZDO_ProcessBindUnbindReq_7
// 1178         {
// 1179           bindStat = ZDP_SUCCESS;
        MOV       DPL,?XSP + 0
        MOV       DPH,?XSP + 1
        MOV       A,#0x0
        MOVX      @DPTR,A
// 1180 
// 1181           // Notify to save info into NV
// 1182           ZDApp_NVUpdate();
        ; Setup parameters for call to function ZDApp_NVUpdate
        LCALL     `??ZDApp_NVUpdate::?relay`; Banked call to: ZDApp_NVUpdate
        SJMP      ??ZDO_ProcessBindUnbindReq_2
// 1183         }
// 1184         else
// 1185           bindStat = ZDP_NO_ENTRY;
??ZDO_ProcessBindUnbindReq_7:
        MOV       DPL,?XSP + 0
        MOV       DPH,?XSP + 1
        MOV       A,#-0x78
        MOVX      @DPTR,A
// 1186       }
// 1187     }
// 1188   }
// 1189 
// 1190   // Send back a response message
// 1191   ZDP_SendData( &(inMsg->TransSeq), &(inMsg->srcAddr),
// 1192                (inMsg->clusterID | ZDO_RESPONSE_BIT), 1, &bindStat,
// 1193                inMsg->SecurityUse );
??ZDO_ProcessBindUnbindReq_2:
        ; Setup parameters for call to function ZDP_SendData
        MOV       A,?V0
        ADD       A,#0xe
        MOV       DPL,A
        CLR       A
        ADDC      A,?V1
        MOV       DPH,A
        MOVX      A,@DPTR
        MOV       ?V2,A
        MOV       R0,#?V2
        LCALL     ?PUSH_XSTACK_I_ONE
          CFI CFA_XSP16 add(XSP16, 25)
        MOV       A,#0x1
        LCALL     ?XSTACK_DISP100_8
        MOV       ?V2,R0
        MOV       ?V3,R1
        MOV       R0,#?V2
        LCALL     ?PUSH_XSTACK_I_TWO
          CFI CFA_XSP16 add(XSP16, 27)
        MOV       A,?V0
        ADD       A,#0xc
        MOV       DPL,A
        CLR       A
        ADDC      A,?V1
        MOV       DPH,A
        MOVX      A,@DPTR
        ORL       A,#0x0
        MOV       ?V2,A
        INC       DPTR
        MOVX      A,@DPTR
        ORL       A,#0x80
        MOV       ?V3,A
        MOV       R0,#?V2
        LCALL     ?PUSH_XSTACK_I_TWO
          CFI CFA_XSP16 add(XSP16, 29)
        MOV       R1,#0x1
        MOV       A,?V0
        ADD       A,#0x2
        MOV       R4,A
        CLR       A
        ADDC      A,?V1
        MOV       R5,A
        MOV       A,?V0
        ADD       A,#0xf
        MOV       R2,A
        CLR       A
        ADDC      A,?V1
        MOV       R3,A
        LCALL     `??ZDP_SendData::?relay`; Banked call to: ZDP_SendData
        MOV       A,#0x5
        LCALL     ?DEALLOC_XSTACK8
          CFI CFA_XSP16 add(XSP16, 24)
        MOV       A,R1
// 1194 }
        MOV       A,#0xc
        LCALL     ?DEALLOC_XSTACK8
          CFI CFA_XSP16 add(XSP16, 12)
        MOV       R7,#0x4
        LJMP      ?BANKED_LEAVE_XDATA
          CFI EndBlock cfiBlock16
// 1195 #endif // REFLECTOR
// 1196 
// 1197 /*********************************************************************
// 1198  * @fn      ZDO_UpdateAddrManager
// 1199  *
// 1200  * @brief   Update the Address Manager.
// 1201  *
// 1202  * @param   nwkAddr - network address
// 1203  * @param   extAddr - extended address
// 1204  *
// 1205  * @return  none
// 1206  */

        RSEG BANKED_CODE:HUGECODE:NOROOT(0)
// 1207 void ZDO_UpdateAddrManager( uint16 nwkAddr, uint8 *extAddr )
ZDO_UpdateAddrManager:
          CFI Block cfiBlock17 Using cfiCommon0
          CFI Function ZDO_UpdateAddrManager
        CODE
// 1208 {
        FUNCALL ZDO_UpdateAddrManager, AddrMgrExtAddrSet
        LOCFRAME ISTACK, 0, STACK
        LOCFRAME PSTACK, 0, STACK
        LOCFRAME XSTACK, 23, STACK
        LOCFRAME IOVERLAY, 0, STATIC
        LOCFRAME DOVERLAY, 0, STATIC
        ARGFRAME ISTACK, 0, STACK
        ARGFRAME PSTACK, 0, STACK
        ARGFRAME XSTACK, 23, STACK
        ARGFRAME IOVERLAY, 0, STATIC
        ARGFRAME DOVERLAY, 0, STATIC
        FUNCALL ZDO_UpdateAddrManager, AddrMgrEntryUpdate
        LOCFRAME ISTACK, 0, STACK
        LOCFRAME PSTACK, 0, STACK
        LOCFRAME XSTACK, 23, STACK
        LOCFRAME IOVERLAY, 0, STATIC
        LOCFRAME DOVERLAY, 0, STATIC
        ARGFRAME ISTACK, 0, STACK
        ARGFRAME PSTACK, 0, STACK
        ARGFRAME XSTACK, 23, STACK
        ARGFRAME IOVERLAY, 0, STATIC
        ARGFRAME DOVERLAY, 0, STATIC
        REQUIRE ?V0
        REQUIRE ?V1
        MOV       A,#-0xa
        LCALL     ?BANKED_ENTER_XDATA
          CFI DPH0 load(1, XDATA, add(CFA_XSP16, literal(-1)))
          CFI DPL0 load(1, XDATA, add(CFA_XSP16, literal(-2)))
          CFI ?BRET_EXT load(1, XDATA, add(CFA_XSP16, literal(-3)))
          CFI ?RET_HIGH load(1, XDATA, add(CFA_XSP16, literal(-4)))
          CFI ?RET_LOW load(1, XDATA, add(CFA_XSP16, literal(-5)))
          CFI R7 load(1, XDATA, add(CFA_XSP16, literal(-6)))
          CFI V1 load(1, XDATA, add(CFA_XSP16, literal(-7)))
          CFI V0 load(1, XDATA, add(CFA_XSP16, literal(-8)))
          CFI VB load(1, XDATA, add(CFA_XSP16, literal(-9)))
          CFI R6 load(1, XDATA, add(CFA_XSP16, literal(-10)))
          CFI CFA_SP SP+0
          CFI CFA_XSP16 add(XSP16, 10)
        ; Saved register size: 10
        ; Auto size: 13
        MOV       A,#-0xd
        LCALL     ?ALLOC_XSTACK8
          CFI CFA_XSP16 add(XSP16, 23)
        MOV       ?V0,R2
        MOV       ?V1,R3
        MOV       A,R4
        MOV       R6,A
        MOV       A,R5
        MOV       R7,A
// 1209   AddrMgrEntry_t addrEntry;
// 1210 
// 1211   // Update the address manager
// 1212   addrEntry.user = ADDRMGR_USER_DEFAULT;
        MOV       DPL,?XSP + 0
        MOV       DPH,?XSP + 1
        MOV       A,#0x0
        MOVX      @DPTR,A
// 1213   addrEntry.nwkAddr = nwkAddr;
        MOV       A,#0x1
        LCALL     ?XSTACK_DISP0_8
        MOV       A,?V0
        MOVX      @DPTR,A
        INC       DPTR
        MOV       A,?V1
        MOVX      @DPTR,A
// 1214   AddrMgrExtAddrSet( addrEntry.extAddr, extAddr );
        ; Setup parameters for call to function AddrMgrExtAddrSet
        MOV       A,R6
        MOV       R4,A
        MOV       A,R7
        MOV       R5,A
        MOV       A,#0x3
        LCALL     ?XSTACK_DISP0_8
        MOV       R2,DPL
        MOV       R3,DPH
        LCALL     `??AddrMgrExtAddrSet::?relay`; Banked call to: AddrMgrExtAddrSet
// 1215   AddrMgrEntryUpdate( &addrEntry );
        ; Setup parameters for call to function AddrMgrEntryUpdate
        MOV       R2,?XSP + 0
        MOV       R3,?XSP + 1
        LCALL     `??AddrMgrEntryUpdate::?relay`; Banked call to: AddrMgrEntryUpdate
        MOV       A,R1
// 1216 }
        MOV       A,#0xd
        LCALL     ?DEALLOC_XSTACK8
          CFI CFA_XSP16 add(XSP16, 10)
        MOV       R7,#0x2
        LJMP      ?BANKED_LEAVE_XDATA
          CFI EndBlock cfiBlock17
// 1217 
// 1218 /*********************************************************************
// 1219  * @fn      ZDO_ProcessServerDiscReq
// 1220  *
// 1221  * @brief   Process the Server_Discovery_req message.
// 1222  *
// 1223  * @param   inMsg  - incoming message (request)
// 1224  *
// 1225  * @return  none
// 1226  */

        RSEG BANKED_CODE:HUGECODE:NOROOT(0)
// 1227 void ZDO_ProcessServerDiscReq( zdoIncomingMsg_t *inMsg )
ZDO_ProcessServerDiscReq:
          CFI Block cfiBlock18 Using cfiCommon0
          CFI Function ZDO_ProcessServerDiscReq
        CODE
// 1228 {
        FUNCALL ZDO_ProcessServerDiscReq, ZDP_ServerDiscRsp
        LOCFRAME ISTACK, 0, STACK
        LOCFRAME PSTACK, 0, STACK
        LOCFRAME XSTACK, 16, STACK
        LOCFRAME IOVERLAY, 0, STATIC
        LOCFRAME DOVERLAY, 0, STATIC
        ARGFRAME ISTACK, 0, STACK
        ARGFRAME PSTACK, 0, STACK
        ARGFRAME XSTACK, 16, STACK
        ARGFRAME IOVERLAY, 0, STATIC
        ARGFRAME DOVERLAY, 0, STATIC
        REQUIRE ?V0
        REQUIRE ?V1
        REQUIRE ?V2
        REQUIRE ?V3
        MOV       A,#-0xc
        LCALL     ?BANKED_ENTER_XDATA
          CFI DPH0 load(1, XDATA, add(CFA_XSP16, literal(-1)))
          CFI DPL0 load(1, XDATA, add(CFA_XSP16, literal(-2)))
          CFI ?BRET_EXT load(1, XDATA, add(CFA_XSP16, literal(-3)))
          CFI ?RET_HIGH load(1, XDATA, add(CFA_XSP16, literal(-4)))
          CFI ?RET_LOW load(1, XDATA, add(CFA_XSP16, literal(-5)))
          CFI R7 load(1, XDATA, add(CFA_XSP16, literal(-6)))
          CFI V3 load(1, XDATA, add(CFA_XSP16, literal(-7)))
          CFI V2 load(1, XDATA, add(CFA_XSP16, literal(-8)))
          CFI V1 load(1, XDATA, add(CFA_XSP16, literal(-9)))
          CFI V0 load(1, XDATA, add(CFA_XSP16, literal(-10)))
          CFI VB load(1, XDATA, add(CFA_XSP16, literal(-11)))
          CFI R6 load(1, XDATA, add(CFA_XSP16, literal(-12)))
          CFI CFA_SP SP+0
          CFI CFA_XSP16 add(XSP16, 12)
        ; Saved register size: 12
        ; Auto size: 0
        MOV       A,R2
        MOV       R6,A
        MOV       A,R3
        MOV       R7,A
// 1229   uint16 serverMask = BUILD_UINT16( inMsg->asdu[0], inMsg->asdu[1] );
        MOV       A,R6
        ADD       A,#0x13
        MOV       DPL,A
        CLR       A
        ADDC      A,R7
        MOV       DPH,A
        MOVX      A,@DPTR
        MOV       R0,A
        INC       DPTR
        MOVX      A,@DPTR
        MOV       DPH,A
        MOV       DPL,R0
        MOVX      A,@DPTR
        MOV       R2,A
        MOV       R3,#0x0
        MOV       A,R6
        ADD       A,#0x13
        MOV       DPL,A
        CLR       A
        ADDC      A,R7
        MOV       DPH,A
        MOVX      A,@DPTR
        MOV       R0,A
        INC       DPTR
        MOVX      A,@DPTR
        MOV       DPH,A
        MOV       DPL,R0
        INC       DPTR
        MOVX      A,@DPTR
        MOV       R0,A
        MOV       R1,#0x0
        CLR       A
        XCH       A,R0
        MOV       R1,A
        MOV       A,R2
        ADD       A,R0
        MOV       ?V0,A
        MOV       A,R3
        ADDC      A,R1
        MOV       ?V1,A
// 1230   uint16 matchMask = serverMask & ZDO_Config_Node_Descriptor.ServerMask;
        MOV       DPTR,#ZDO_Config_Node_Descriptor + 8
        MOVX      A,@DPTR
        ANL       A,?V0
        MOV       ?V2,A
        INC       DPTR
        MOVX      A,@DPTR
        ANL       A,?V1
        MOV       ?V3,A
// 1231 
// 1232   if ( matchMask )
        MOV       A,?V2
        ORL       A,?V3
        JZ        ??ZDO_ProcessServerDiscReq_0
// 1233   {
// 1234     ZDP_ServerDiscRsp( inMsg->TransSeq, &(inMsg->srcAddr), ZSUCCESS,
// 1235                 ZDAppNwkAddr.addr.shortAddr, matchMask, inMsg->SecurityUse );
        ; Setup parameters for call to function ZDP_ServerDiscRsp
        MOV       R0,#?V2
        LCALL     ?PUSH_XSTACK_I_TWO
          CFI CFA_XSP16 add(XSP16, 14)
        MOV       DPTR,#ZDAppNwkAddr
        LCALL     ?PUSH_XSTACK8_X_TWO
          CFI CFA_XSP16 add(XSP16, 16)
        MOV       A,R6
        ADD       A,#0xe
        MOV       DPL,A
        CLR       A
        ADDC      A,R7
        MOV       DPH,A
        MOVX      A,@DPTR
        MOV       R5,A
        MOV       R4,#0x0
        MOV       A,R6
        ADD       A,#0x2
        MOV       R2,A
        CLR       A
        ADDC      A,R7
        MOV       R3,A
        MOV       A,R6
        ADD       A,#0xf
        MOV       DPL,A
        CLR       A
        ADDC      A,R7
        MOV       DPH,A
        MOVX      A,@DPTR
        MOV       R1,A
        LCALL     `??ZDP_ServerDiscRsp::?relay`; Banked call to: ZDP_ServerDiscRsp
        MOV       A,#0x4
        LCALL     ?DEALLOC_XSTACK8
          CFI CFA_XSP16 add(XSP16, 12)
        MOV       A,R1
// 1236   }
// 1237 }
??ZDO_ProcessServerDiscReq_0:
        MOV       R7,#0x4
        LJMP      ?BANKED_LEAVE_XDATA
          CFI EndBlock cfiBlock18
// 1238 
// 1239 /*********************************************************************
// 1240  * Call Back Functions from APS  - API
// 1241  */
// 1242 
// 1243 /*********************************************************************
// 1244  * @fn          ZDO_EndDeviceTimeoutCB
// 1245  *
// 1246  * @brief       This function handles the binding timer for the End
// 1247  *              Device Bind command.
// 1248  *
// 1249  * @param       none
// 1250  *
// 1251  * @return      none
// 1252  */

        RSEG BANKED_CODE:HUGECODE:NOROOT(0)
// 1253 void ZDO_EndDeviceTimeoutCB( void )
ZDO_EndDeviceTimeoutCB:
          CFI Block cfiBlock19 Using cfiCommon0
          CFI Function ZDO_EndDeviceTimeoutCB
        CODE
// 1254 {
        FUNCALL ZDO_EndDeviceTimeoutCB, ZDO_SendEDBindRsp
        LOCFRAME ISTACK, 0, STACK
        LOCFRAME PSTACK, 0, STACK
        LOCFRAME XSTACK, 9, STACK
        LOCFRAME IOVERLAY, 0, STATIC
        LOCFRAME DOVERLAY, 0, STATIC
        ARGFRAME ISTACK, 0, STACK
        ARGFRAME PSTACK, 0, STACK
        ARGFRAME XSTACK, 9, STACK
        ARGFRAME IOVERLAY, 0, STATIC
        ARGFRAME DOVERLAY, 0, STATIC
        FUNCALL ZDO_EndDeviceTimeoutCB, ZDO_RemoveEndDeviceBind
        LOCFRAME ISTACK, 0, STACK
        LOCFRAME PSTACK, 0, STACK
        LOCFRAME XSTACK, 9, STACK
        LOCFRAME IOVERLAY, 0, STATIC
        LOCFRAME DOVERLAY, 0, STATIC
        ARGFRAME ISTACK, 0, STACK
        ARGFRAME PSTACK, 0, STACK
        ARGFRAME XSTACK, 9, STACK
        ARGFRAME IOVERLAY, 0, STATIC
        ARGFRAME DOVERLAY, 0, STATIC
        MOV       A,#-0x9
        LCALL     ?BANKED_ENTER_XDATA
          CFI DPH0 load(1, XDATA, add(CFA_XSP16, literal(-1)))
          CFI DPL0 load(1, XDATA, add(CFA_XSP16, literal(-2)))
          CFI ?BRET_EXT load(1, XDATA, add(CFA_XSP16, literal(-3)))
          CFI ?RET_HIGH load(1, XDATA, add(CFA_XSP16, literal(-4)))
          CFI ?RET_LOW load(1, XDATA, add(CFA_XSP16, literal(-5)))
          CFI R7 load(1, XDATA, add(CFA_XSP16, literal(-6)))
          CFI V0 load(1, XDATA, add(CFA_XSP16, literal(-7)))
          CFI VB load(1, XDATA, add(CFA_XSP16, literal(-8)))
          CFI R6 load(1, XDATA, add(CFA_XSP16, literal(-9)))
          CFI CFA_SP SP+0
          CFI CFA_XSP16 add(XSP16, 9)
        ; Saved register size: 9
        ; Auto size: 0
// 1255 #if defined ( REFLECTOR )
// 1256   byte stat;
// 1257   if ( ZDO_EDBind )
        MOV       DPTR,#ZDO_EDBind
        MOVX      A,@DPTR
        MOV       R0,A
        INC       DPTR
        MOVX      A,@DPTR
        MOV       R1,A
        MOV       A,R0
        ORL       A,R1
        JZ        ??ZDO_EndDeviceTimeoutCB_0
// 1258   {
// 1259     stat = ZDO_EDBind->status;
        MOV       DPTR,#ZDO_EDBind
        MOVX      A,@DPTR
        MOV       R0,A
        INC       DPTR
        MOVX      A,@DPTR
        XCH       A,R0
        ADD       A,#0x16
        MOV       DPL,A
        XCH       A,R0
        ADDC      A,#0x0
        MOV       DPH,A
        MOVX      A,@DPTR
        MOV       R6,A
// 1260 
// 1261     // Send the response message to the first sent
// 1262     ZDO_SendEDBindRsp( ZDO_EDBind->SrcTransSeq, &(ZDO_EDBind->SrcAddr),
// 1263                         stat, ZDO_EDBind->SecurityUse );
        ; Setup parameters for call to function ZDO_SendEDBindRsp
        MOV       DPTR,#ZDO_EDBind
        MOVX      A,@DPTR
        MOV       R0,A
        INC       DPTR
        MOVX      A,@DPTR
        XCH       A,R0
        ADD       A,#0x15
        MOV       DPL,A
        XCH       A,R0
        ADDC      A,#0x0
        MOV       DPH,A
        MOVX      A,@DPTR
        MOV       R5,A
        MOV       A,R6
        MOV       R4,A
        MOV       DPTR,#ZDO_EDBind
        MOVX      A,@DPTR
        ADD       A,#0x1
        MOV       R2,A
        INC       DPTR
        MOVX      A,@DPTR
        ADDC      A,#0x0
        MOV       R3,A
        MOV       DPTR,#ZDO_EDBind
        MOVX      A,@DPTR
        MOV       R0,A
        INC       DPTR
        MOVX      A,@DPTR
        MOV       DPH,A
        MOV       DPL,R0
        MOVX      A,@DPTR
        MOV       R1,A
        LCALL     `??ZDO_SendEDBindRsp::?relay`; Banked call to: ZDO_SendEDBindRsp
// 1264 
// 1265     ZDO_RemoveEndDeviceBind();
        ; Setup parameters for call to function ZDO_RemoveEndDeviceBind
        LCALL     `??ZDO_RemoveEndDeviceBind::?relay`; Banked call to: ZDO_RemoveEndDeviceBind
// 1266   }
// 1267 #endif  // REFLECTOR
// 1268 }
??ZDO_EndDeviceTimeoutCB_0:
        MOV       R7,#0x1
        LJMP      ?BANKED_LEAVE_XDATA
          CFI EndBlock cfiBlock19
// 1269 
// 1270 /*********************************************************************
// 1271  * Optional Management Messages
// 1272  */
// 1273 
// 1274 /*********************************************************************
// 1275  * @fn          ZDO_ProcessMgmtLqiReq
// 1276  *
// 1277  * @brief       This function handles parsing the incoming Management
// 1278  *              LQI request and generate the response.
// 1279  *
// 1280  *   Note:      This function will limit the number of items returned
// 1281  *              to ZDO_MAX_LQI_ITEMS items.
// 1282  *
// 1283  * @param       inMsg - incoming message (request)
// 1284  *
// 1285  * @return      none
// 1286  */

        RSEG BANKED_CODE:HUGECODE:NOROOT(0)
// 1287 void ZDO_ProcessMgmtLqiReq( zdoIncomingMsg_t *inMsg )
ZDO_ProcessMgmtLqiReq:
          CFI Block cfiBlock20 Using cfiCommon0
          CFI Function ZDO_ProcessMgmtLqiReq
        CODE
// 1288 {
        FUNCALL ZDO_ProcessMgmtLqiReq, NLME_GetRequest
        LOCFRAME ISTACK, 0, STACK
        LOCFRAME PSTACK, 0, STACK
        LOCFRAME XSTACK, 59, STACK
        LOCFRAME IOVERLAY, 0, STATIC
        LOCFRAME DOVERLAY, 0, STATIC
        ARGFRAME ISTACK, 0, STACK
        ARGFRAME PSTACK, 0, STACK
        ARGFRAME XSTACK, 59, STACK
        ARGFRAME IOVERLAY, 0, STATIC
        ARGFRAME DOVERLAY, 0, STATIC
        FUNCALL ZDO_ProcessMgmtLqiReq, AssocCount
        LOCFRAME ISTACK, 0, STACK
        LOCFRAME PSTACK, 0, STACK
        LOCFRAME XSTACK, 59, STACK
        LOCFRAME IOVERLAY, 0, STATIC
        LOCFRAME DOVERLAY, 0, STATIC
        ARGFRAME ISTACK, 0, STACK
        ARGFRAME PSTACK, 0, STACK
        ARGFRAME XSTACK, 59, STACK
        ARGFRAME IOVERLAY, 0, STATIC
        ARGFRAME DOVERLAY, 0, STATIC
        FUNCALL ZDO_ProcessMgmtLqiReq, osal_mem_alloc
        LOCFRAME ISTACK, 0, STACK
        LOCFRAME PSTACK, 0, STACK
        LOCFRAME XSTACK, 59, STACK
        LOCFRAME IOVERLAY, 0, STATIC
        LOCFRAME DOVERLAY, 0, STATIC
        ARGFRAME ISTACK, 0, STACK
        ARGFRAME PSTACK, 0, STACK
        ARGFRAME XSTACK, 59, STACK
        ARGFRAME IOVERLAY, 0, STATIC
        ARGFRAME DOVERLAY, 0, STATIC
        FUNCALL ZDO_ProcessMgmtLqiReq, AssocFindDevice
        LOCFRAME ISTACK, 0, STACK
        LOCFRAME PSTACK, 0, STACK
        LOCFRAME XSTACK, 59, STACK
        LOCFRAME IOVERLAY, 0, STATIC
        LOCFRAME DOVERLAY, 0, STATIC
        ARGFRAME ISTACK, 0, STACK
        ARGFRAME PSTACK, 0, STACK
        ARGFRAME XSTACK, 59, STACK
        ARGFRAME IOVERLAY, 0, STATIC
        ARGFRAME DOVERLAY, 0, STATIC
        FUNCALL ZDO_ProcessMgmtLqiReq, sAddrExtCpy
        LOCFRAME ISTACK, 0, STACK
        LOCFRAME PSTACK, 0, STACK
        LOCFRAME XSTACK, 59, STACK
        LOCFRAME IOVERLAY, 0, STATIC
        LOCFRAME DOVERLAY, 0, STATIC
        ARGFRAME ISTACK, 0, STACK
        ARGFRAME PSTACK, 0, STACK
        ARGFRAME XSTACK, 59, STACK
        ARGFRAME IOVERLAY, 0, STATIC
        ARGFRAME DOVERLAY, 0, STATIC
        FUNCALL ZDO_ProcessMgmtLqiReq, AddrMgrEntryLookupNwk
        LOCFRAME ISTACK, 0, STACK
        LOCFRAME PSTACK, 0, STACK
        LOCFRAME XSTACK, 59, STACK
        LOCFRAME IOVERLAY, 0, STATIC
        LOCFRAME DOVERLAY, 0, STATIC
        ARGFRAME ISTACK, 0, STACK
        ARGFRAME PSTACK, 0, STACK
        ARGFRAME XSTACK, 59, STACK
        ARGFRAME IOVERLAY, 0, STATIC
        ARGFRAME DOVERLAY, 0, STATIC
        FUNCALL ZDO_ProcessMgmtLqiReq, sAddrExtCpy
        LOCFRAME ISTACK, 0, STACK
        LOCFRAME PSTACK, 0, STACK
        LOCFRAME XSTACK, 59, STACK
        LOCFRAME IOVERLAY, 0, STATIC
        LOCFRAME DOVERLAY, 0, STATIC
        ARGFRAME ISTACK, 0, STACK
        ARGFRAME PSTACK, 0, STACK
        ARGFRAME XSTACK, 59, STACK
        ARGFRAME IOVERLAY, 0, STATIC
        ARGFRAME DOVERLAY, 0, STATIC
        FUNCALL ZDO_ProcessMgmtLqiReq, osal_memset
        LOCFRAME ISTACK, 0, STACK
        LOCFRAME PSTACK, 0, STACK
        LOCFRAME XSTACK, 59, STACK
        LOCFRAME IOVERLAY, 0, STATIC
        LOCFRAME DOVERLAY, 0, STATIC
        ARGFRAME ISTACK, 0, STACK
        ARGFRAME PSTACK, 0, STACK
        ARGFRAME XSTACK, 59, STACK
        ARGFRAME IOVERLAY, 0, STATIC
        ARGFRAME DOVERLAY, 0, STATIC
        FUNCALL ZDO_ProcessMgmtLqiReq, NLME_GetRequest
        LOCFRAME ISTACK, 0, STACK
        LOCFRAME PSTACK, 0, STACK
        LOCFRAME XSTACK, 59, STACK
        LOCFRAME IOVERLAY, 0, STATIC
        LOCFRAME DOVERLAY, 0, STATIC
        ARGFRAME ISTACK, 0, STACK
        ARGFRAME PSTACK, 0, STACK
        ARGFRAME XSTACK, 59, STACK
        ARGFRAME IOVERLAY, 0, STATIC
        ARGFRAME DOVERLAY, 0, STATIC
        FUNCALL ZDO_ProcessMgmtLqiReq, sAddrExtCpy
        LOCFRAME ISTACK, 0, STACK
        LOCFRAME PSTACK, 0, STACK
        LOCFRAME XSTACK, 59, STACK
        LOCFRAME IOVERLAY, 0, STATIC
        LOCFRAME DOVERLAY, 0, STATIC
        ARGFRAME ISTACK, 0, STACK
        ARGFRAME PSTACK, 0, STACK
        ARGFRAME XSTACK, 59, STACK
        ARGFRAME IOVERLAY, 0, STATIC
        ARGFRAME DOVERLAY, 0, STATIC
        FUNCALL ZDO_ProcessMgmtLqiReq, sAddrExtCpy
        LOCFRAME ISTACK, 0, STACK
        LOCFRAME PSTACK, 0, STACK
        LOCFRAME XSTACK, 59, STACK
        LOCFRAME IOVERLAY, 0, STATIC
        LOCFRAME DOVERLAY, 0, STATIC
        ARGFRAME ISTACK, 0, STACK
        ARGFRAME PSTACK, 0, STACK
        ARGFRAME XSTACK, 59, STACK
        ARGFRAME IOVERLAY, 0, STATIC
        ARGFRAME DOVERLAY, 0, STATIC
        FUNCALL ZDO_ProcessMgmtLqiReq, ZDP_MgmtLqiRsp
        LOCFRAME ISTACK, 0, STACK
        LOCFRAME PSTACK, 0, STACK
        LOCFRAME XSTACK, 64, STACK
        LOCFRAME IOVERLAY, 0, STATIC
        LOCFRAME DOVERLAY, 0, STATIC
        ARGFRAME ISTACK, 0, STACK
        ARGFRAME PSTACK, 0, STACK
        ARGFRAME XSTACK, 64, STACK
        ARGFRAME IOVERLAY, 0, STATIC
        ARGFRAME DOVERLAY, 0, STATIC
        FUNCALL ZDO_ProcessMgmtLqiReq, osal_mem_free
        LOCFRAME ISTACK, 0, STACK
        LOCFRAME PSTACK, 0, STACK
        LOCFRAME XSTACK, 59, STACK
        LOCFRAME IOVERLAY, 0, STATIC
        LOCFRAME DOVERLAY, 0, STATIC
        ARGFRAME ISTACK, 0, STACK
        ARGFRAME PSTACK, 0, STACK
        ARGFRAME XSTACK, 59, STACK
        ARGFRAME IOVERLAY, 0, STATIC
        ARGFRAME DOVERLAY, 0, STATIC
        REQUIRE ?V0
        REQUIRE ?V1
        REQUIRE ?V2
        REQUIRE ?V3
        REQUIRE ?V4
        REQUIRE ?V5
        REQUIRE ?V6
        REQUIRE ?V7
        REQUIRE ?V8
        REQUIRE ?V9
        REQUIRE ?V10
        REQUIRE ?V11
        REQUIRE ?V12
        REQUIRE ?V13
        MOV       A,#-0x16
        LCALL     ?BANKED_ENTER_XDATA
          CFI DPH0 load(1, XDATA, add(CFA_XSP16, literal(-1)))
          CFI DPL0 load(1, XDATA, add(CFA_XSP16, literal(-2)))
          CFI ?BRET_EXT load(1, XDATA, add(CFA_XSP16, literal(-3)))
          CFI ?RET_HIGH load(1, XDATA, add(CFA_XSP16, literal(-4)))
          CFI ?RET_LOW load(1, XDATA, add(CFA_XSP16, literal(-5)))
          CFI R7 load(1, XDATA, add(CFA_XSP16, literal(-6)))
          CFI V13 load(1, XDATA, add(CFA_XSP16, literal(-7)))
          CFI V12 load(1, XDATA, add(CFA_XSP16, literal(-8)))
          CFI V11 load(1, XDATA, add(CFA_XSP16, literal(-9)))
          CFI V10 load(1, XDATA, add(CFA_XSP16, literal(-10)))
          CFI V9 load(1, XDATA, add(CFA_XSP16, literal(-11)))
          CFI V8 load(1, XDATA, add(CFA_XSP16, literal(-12)))
          CFI V7 load(1, XDATA, add(CFA_XSP16, literal(-13)))
          CFI V6 load(1, XDATA, add(CFA_XSP16, literal(-14)))
          CFI V5 load(1, XDATA, add(CFA_XSP16, literal(-15)))
          CFI V4 load(1, XDATA, add(CFA_XSP16, literal(-16)))
          CFI V3 load(1, XDATA, add(CFA_XSP16, literal(-17)))
          CFI V2 load(1, XDATA, add(CFA_XSP16, literal(-18)))
          CFI V1 load(1, XDATA, add(CFA_XSP16, literal(-19)))
          CFI V0 load(1, XDATA, add(CFA_XSP16, literal(-20)))
          CFI VB load(1, XDATA, add(CFA_XSP16, literal(-21)))
          CFI R6 load(1, XDATA, add(CFA_XSP16, literal(-22)))
          CFI CFA_SP SP+0
          CFI CFA_XSP16 add(XSP16, 22)
        ; Saved register size: 22
        ; Auto size: 37
        MOV       A,#-0x25
        LCALL     ?ALLOC_XSTACK8
          CFI CFA_XSP16 add(XSP16, 59)
        MOV       ?V12,R2
        MOV       ?V13,R3
// 1289   byte x;
// 1290   byte index;
// 1291   byte numItems;
// 1292   byte maxItems;
// 1293   ZDP_MgmtLqiItem_t* table = NULL;
        MOV       ?V10,#0x0
        MOV       ?V11,#0x0
// 1294   ZDP_MgmtLqiItem_t* item;
// 1295   neighborEntry_t    entry;
// 1296   byte aItems = 0;
        MOV       ?V2,#0x0
// 1297   associated_devices_t *aDevice;
// 1298   AddrMgrEntry_t  nwkEntry;
// 1299   uint8 StartIndex = inMsg->asdu[0];
        MOV       A,?V12
        ADD       A,#0x13
        MOV       DPL,A
        CLR       A
        ADDC      A,?V13
        MOV       DPH,A
        MOVX      A,@DPTR
        MOV       R0,A
        INC       DPTR
        MOVX      A,@DPTR
        MOV       DPH,A
        MOV       DPL,R0
        MOVX      A,@DPTR
        MOV       ?V3,A
// 1300 
// 1301   // Get the number of neighbor items
// 1302   NLME_GetRequest( nwkNumNeighborTableEntries, 0, &maxItems );
        ; Setup parameters for call to function NLME_GetRequest
        MOV       R4,?XSP + 0
        MOV       R5,?XSP + 1
        MOV       R2,#0x0
        MOV       R3,#0x0
        MOV       R1,#-0x64
        LCALL     `??NLME_GetRequest::?relay`; Banked call to: NLME_GetRequest
        MOV       A,R1
// 1303 
// 1304   //Routing devices uses assoc table, end devices don't
// 1305   if ( ZG_DEVICE_RTR_TYPE )
        MOV       DPTR,#zgDeviceLogicalType
        MOVX      A,@DPTR
        JZ        ??ZDO_ProcessMgmtLqiReq_0
        MOV       DPTR,#zgDeviceLogicalType
        MOVX      A,@DPTR
        XRL       A,#0x1
        JNZ       ??ZDO_ProcessMgmtLqiReq_1
// 1306   {
// 1307     // Get the number of associated items
// 1308     aItems = (uint8)AssocCount( PARENT, CHILD_FFD_RX_IDLE );
??ZDO_ProcessMgmtLqiReq_0:
        ; Setup parameters for call to function AssocCount
        MOV       R2,#0x4
        MOV       R1,#0x0
        LCALL     `??AssocCount::?relay`; Banked call to: AssocCount
        MOV       A,R2
        MOV       ?V2,A
// 1309     // Total number of items
// 1310     maxItems += aItems;
        MOV       DPL,?XSP + 0
        MOV       DPH,?XSP + 1
        MOVX      A,@DPTR
        ADD       A,?V2
        MOVX      @DPTR,A
        SJMP      ??ZDO_ProcessMgmtLqiReq_2
// 1311   }
// 1312   else
// 1313   {
// 1314     maxItems = 1;
??ZDO_ProcessMgmtLqiReq_1:
        MOV       DPL,?XSP + 0
        MOV       DPH,?XSP + 1
        MOV       A,#0x1
        MOVX      @DPTR,A
// 1315   }
// 1316 
// 1317   // Start with the supplied index
// 1318   if ( maxItems > StartIndex )
??ZDO_ProcessMgmtLqiReq_2:
        MOV       DPL,?XSP + 0
        MOV       DPH,?XSP + 1
        MOVX      A,@DPTR
        MOV       R0,A
        MOV       A,?V3
        CLR       C
        SUBB      A,R0
        JC        $+5
        LJMP      ??ZDO_ProcessMgmtLqiReq_3 & 0xFFFF
// 1319   {
// 1320     numItems = maxItems - StartIndex;
        MOV       DPL,?XSP + 0
        MOV       DPH,?XSP + 1
        MOVX      A,@DPTR
        CLR       C
        SUBB      A,?V3
        MOV       ?V1,A
// 1321 
// 1322     // limit the size of the list
// 1323     if ( numItems > ZDO_MAX_LQI_ITEMS )
        MOV       A,?V1
        CLR       C
        SUBB      A,#0x4
        JC        ??ZDO_ProcessMgmtLqiReq_4
// 1324     {
// 1325       numItems = ZDO_MAX_LQI_ITEMS;
        MOV       ?V1,#0x3
// 1326     }
// 1327     
// 1328     // Allocate the memory to build the table
// 1329     table = (ZDP_MgmtLqiItem_t*)osal_mem_alloc( (short)
// 1330               ( numItems * sizeof( ZDP_MgmtLqiItem_t ) ) );
??ZDO_ProcessMgmtLqiReq_4:
        ; Setup parameters for call to function osal_mem_alloc
        MOV       A,?V1
        MOV       R2,A
        MOV       R3,#0x0
        MOV       A,R2
        MOV       B,#0x1a
        MUL       AB
        XCH       A,R2
        MOV       R0,B
        MOV       B,#0x0
        MUL       AB
        ADD       A,R0
        MOV       R0,A
        MOV       B,#0x1a
        MOV       A,R3
        MUL       AB
        ADD       A,R0
        MOV       R3,A
        LCALL     `??osal_mem_alloc::?relay`; Banked call to: osal_mem_alloc
        MOV       ?V8,R2
        MOV       ?V9,R3
        MOV       ?V10,?V8
        MOV       ?V11,?V9
// 1331 
// 1332     if ( table != NULL )
        MOV       A,?V10
        ORL       A,?V11
        JNZ       $+5
        LJMP      ??ZDO_ProcessMgmtLqiReq_5 & 0xFFFF
// 1333     {
// 1334       x = 0;
        MOV       ?V4,#0x0
// 1335       item = table;
        MOV       R6,?V10
        MOV       R7,?V11
// 1336       index = StartIndex;
        MOV       ?V0,?V3
// 1337 
// 1338       // Loop through associated items and build list
// 1339       for ( ; x < numItems; x++ )
??ZDO_ProcessMgmtLqiReq_6:
        MOV       A,?V4
        CLR       C
        SUBB      A,?V1
        JC        $+5
        LJMP      ??ZDO_ProcessMgmtLqiReq_7 & 0xFFFF
// 1340       {
// 1341         if ( index < aItems )
        MOV       A,?V0
        CLR       C
        SUBB      A,?V2
        JC        $+5
        LJMP      ??ZDO_ProcessMgmtLqiReq_8 & 0xFFFF
// 1342         {
// 1343           // get next associated device
// 1344           aDevice = AssocFindDevice( index++ );
        ; Setup parameters for call to function AssocFindDevice
        MOV       A,?V0
        MOV       R2,A
        MOV       R3,#0x0
        LCALL     `??AssocFindDevice::?relay`; Banked call to: AssocFindDevice
        MOV       ?V8,R2
        MOV       ?V9,R3
        MOV       ?V6,?V8
        MOV       ?V7,?V9
        INC       ?V0
// 1345 
// 1346           // set basic fields
// 1347           item->panID   = _NIB.nwkPanId;
        MOV       DPTR,#_NIB + 33
        MOVX      A,@DPTR
        MOV       R0,A
        INC       DPTR
        MOVX      A,@DPTR
        MOV       R1,A
        MOV       DPL,R6
        MOV       DPH,R7
        MOV       A,R0
        MOVX      @DPTR,A
        INC       DPTR
        MOV       A,R1
        MOVX      @DPTR,A
// 1348           osal_cpyExtAddr( item->extPanID, _NIB.extendedPANID );
        ; Setup parameters for call to function sAddrExtCpy
        MOV       R4,#(_NIB + 53) & 0xff
        MOV       R5,#((_NIB + 53) >> 8) & 0xff
        MOV       A,R6
        ADD       A,#0x2
        MOV       R2,A
        CLR       A
        ADDC      A,R7
        MOV       R3,A
        LCALL     `??sAddrExtCpy::?relay`; Banked call to: sAddrExtCpy
// 1349           item->nwkAddr = aDevice->shortAddr;
        MOV       DPL,?V6
        MOV       DPH,?V7
        MOVX      A,@DPTR
        MOV       R0,A
        INC       DPTR
        MOVX      A,@DPTR
        MOV       R1,A
        MOV       A,R6
        ADD       A,#0x12
        MOV       DPL,A
        CLR       A
        ADDC      A,R7
        MOV       DPH,A
        MOV       A,R0
        MOVX      @DPTR,A
        INC       DPTR
        MOV       A,R1
        MOVX      @DPTR,A
// 1350           item->permit  = ZDP_MGMT_BOOL_UNKNOWN;
        MOV       A,R6
        ADD       A,#0x17
        MOV       DPL,A
        CLR       A
        ADDC      A,R7
        MOV       DPH,A
        MOV       A,#0x2
        MOVX      @DPTR,A
// 1351           item->depth   = 0xFF;
        MOV       A,R6
        ADD       A,#0x18
        MOV       DPL,A
        CLR       A
        ADDC      A,R7
        MOV       DPH,A
        MOV       A,#-0x1
        MOVX      @DPTR,A
// 1352           item->lqi     = aDevice->linkInfo.rxLqi;
        MOV       DPL,?V6
        MOV       DPH,?V7
        INC       DPTR
        INC       DPTR
        INC       DPTR
        INC       DPTR
        INC       DPTR
        INC       DPTR
        INC       DPTR
        INC       DPTR
        INC       DPTR
        INC       DPTR
        MOVX      A,@DPTR
        PUSH      A
          CFI CFA_SP SP+-1
        MOV       A,R6
        ADD       A,#0x19
        MOV       DPL,A
        CLR       A
        ADDC      A,R7
        MOV       DPH,A
        POP       A
          CFI CFA_SP SP+0
        MOVX      @DPTR,A
// 1353 
// 1354           // set extented address
// 1355           nwkEntry.user    = ADDRMGR_USER_DEFAULT;
        MOV       A,#0x1
        LCALL     ?XSTACK_DISP0_8
        MOV       A,#0x0
        MOVX      @DPTR,A
// 1356           nwkEntry.nwkAddr = aDevice->shortAddr;
        MOV       DPL,?V6
        MOV       DPH,?V7
        MOVX      A,@DPTR
        MOV       R0,A
        INC       DPTR
        MOVX      A,@DPTR
        MOV       R1,A
        MOV       A,#0x2
        LCALL     ?XSTACK_DISP0_8
        MOV       A,R0
        MOVX      @DPTR,A
        INC       DPTR
        MOV       A,R1
        MOVX      @DPTR,A
// 1357 
// 1358           if ( AddrMgrEntryLookupNwk( &nwkEntry ) == TRUE )
        ; Setup parameters for call to function AddrMgrEntryLookupNwk
        MOV       A,#0x1
        LCALL     ?XSTACK_DISP101_8
        LCALL     `??AddrMgrEntryLookupNwk::?relay`; Banked call to: AddrMgrEntryLookupNwk
        MOV       A,R1
        XRL       A,#0x1
        JNZ       ??ZDO_ProcessMgmtLqiReq_9
// 1359           {
// 1360             osal_cpyExtAddr( item->extAddr, nwkEntry.extAddr );
        ; Setup parameters for call to function sAddrExtCpy
        MOV       A,#0x4
        LCALL     ?XSTACK_DISP0_8
        MOV       R4,DPL
        MOV       R5,DPH
        MOV       A,R6
        ADD       A,#0xa
        MOV       R2,A
        CLR       A
        ADDC      A,R7
        MOV       R3,A
        LCALL     `??sAddrExtCpy::?relay`; Banked call to: sAddrExtCpy
        SJMP      ??ZDO_ProcessMgmtLqiReq_10
// 1361           }
// 1362           else
// 1363           {
// 1364             osal_memset( item->extAddr, 0xFF, Z_EXTADDR_LEN );
??ZDO_ProcessMgmtLqiReq_9:
        ; Setup parameters for call to function osal_memset
        MOV       R4,#0x8
        MOV       R5,#0x0
        MOV       R1,#-0x1
        MOV       A,R6
        ADD       A,#0xa
        MOV       R2,A
        CLR       A
        ADDC      A,R7
        MOV       R3,A
        LCALL     `??osal_memset::?relay`; Banked call to: osal_memset
// 1365           }
// 1366 
// 1367           // use association info to set other fields
// 1368           if ( aDevice->nodeRelation == PARENT )
??ZDO_ProcessMgmtLqiReq_10:
        MOV       DPL,?V6
        MOV       DPH,?V7
        INC       DPTR
        INC       DPTR
        INC       DPTR
        INC       DPTR
        MOVX      A,@DPTR
        JNZ       ??ZDO_ProcessMgmtLqiReq_11
// 1369           {
// 1370             if (  aDevice->shortAddr == 0 )
        MOV       DPL,?V6
        MOV       DPH,?V7
        MOVX      A,@DPTR
        MOV       R0,A
        INC       DPTR
        MOVX      A,@DPTR
        MOV       R1,A
        MOV       A,R0
        ORL       A,R1
        JNZ       ??ZDO_ProcessMgmtLqiReq_12
// 1371             {
// 1372               item->devType = ZDP_MGMT_DT_COORD;
        MOV       A,R6
        ADD       A,#0x14
        MOV       DPL,A
        CLR       A
        ADDC      A,R7
        MOV       DPH,A
        MOV       A,#0x0
        MOVX      @DPTR,A
// 1373               item->depth = 0;
        MOV       A,R6
        ADD       A,#0x18
        MOV       DPL,A
        CLR       A
        ADDC      A,R7
        MOV       DPH,A
        MOV       A,#0x0
        MOVX      @DPTR,A
        SJMP      ??ZDO_ProcessMgmtLqiReq_13
// 1374             }
// 1375             else
// 1376             {
// 1377               item->devType = ZDP_MGMT_DT_ROUTER;
??ZDO_ProcessMgmtLqiReq_12:
        MOV       A,R6
        ADD       A,#0x14
        MOV       DPL,A
        CLR       A
        ADDC      A,R7
        MOV       DPH,A
        MOV       A,#0x1
        MOVX      @DPTR,A
// 1378               item->depth = _NIB.nodeDepth - 1;
        MOV       DPTR,#_NIB + 52
        MOVX      A,@DPTR
        ADD       A,#-0x1
        PUSH      A
          CFI CFA_SP SP+-1
        MOV       A,R6
        ADD       A,#0x18
        MOV       DPL,A
        CLR       A
        ADDC      A,R7
        MOV       DPH,A
        POP       A
          CFI CFA_SP SP+0
        MOVX      @DPTR,A
// 1379             }
// 1380 
// 1381             item->rxOnIdle = ZDP_MGMT_BOOL_UNKNOWN;
??ZDO_ProcessMgmtLqiReq_13:
        MOV       A,R6
        ADD       A,#0x15
        MOV       DPL,A
        CLR       A
        ADDC      A,R7
        MOV       DPH,A
        MOV       A,#0x2
        MOVX      @DPTR,A
// 1382             item->relation = ZDP_MGMT_REL_PARENT;
        MOV       A,R6
        ADD       A,#0x16
        MOV       DPL,A
        CLR       A
        ADDC      A,R7
        MOV       DPH,A
        MOV       A,#0x0
        MOVX      @DPTR,A
        LJMP      ??ZDO_ProcessMgmtLqiReq_14 & 0xFFFF
// 1383           }
// 1384           else
// 1385           {
// 1386             // If not parent, then it's a child
// 1387             item->depth = _NIB.nodeDepth + 1;
??ZDO_ProcessMgmtLqiReq_11:
        MOV       DPTR,#_NIB + 52
        MOVX      A,@DPTR
        ADD       A,#0x1
        PUSH      A
          CFI CFA_SP SP+-1
        MOV       A,R6
        ADD       A,#0x18
        MOV       DPL,A
        CLR       A
        ADDC      A,R7
        MOV       DPH,A
        POP       A
          CFI CFA_SP SP+0
        MOVX      @DPTR,A
// 1388 
// 1389             if ( aDevice->nodeRelation < CHILD_FFD )
        MOV       DPL,?V6
        MOV       DPH,?V7
        INC       DPTR
        INC       DPTR
        INC       DPTR
        INC       DPTR
        MOVX      A,@DPTR
        CLR       C
        SUBB      A,#0x3
        JNC       ??ZDO_ProcessMgmtLqiReq_15
// 1390             {
// 1391               item->devType = ZDP_MGMT_DT_ENDDEV;
        MOV       A,R6
        ADD       A,#0x14
        MOV       DPL,A
        CLR       A
        ADDC      A,R7
        MOV       DPH,A
        MOV       A,#0x2
        MOVX      @DPTR,A
// 1392 
// 1393               if ( aDevice->nodeRelation == CHILD_RFD )
        MOV       DPL,?V6
        MOV       DPH,?V7
        INC       DPTR
        INC       DPTR
        INC       DPTR
        INC       DPTR
        MOVX      A,@DPTR
        XRL       A,#0x1
        JNZ       ??ZDO_ProcessMgmtLqiReq_16
// 1394               {
// 1395                 item->rxOnIdle = FALSE;
        MOV       A,R6
        ADD       A,#0x15
        MOV       DPL,A
        CLR       A
        ADDC      A,R7
        MOV       DPH,A
        MOV       A,#0x0
        MOVX      @DPTR,A
        SJMP      ??ZDO_ProcessMgmtLqiReq_17
// 1396               }
// 1397               else
// 1398               {
// 1399                 item->rxOnIdle = TRUE;
??ZDO_ProcessMgmtLqiReq_16:
        MOV       A,R6
        ADD       A,#0x15
        MOV       DPL,A
        CLR       A
        ADDC      A,R7
        MOV       DPH,A
        MOV       A,#0x1
        MOVX      @DPTR,A
        SJMP      ??ZDO_ProcessMgmtLqiReq_17
// 1400               }
// 1401             }
// 1402             else
// 1403             {
// 1404               item->devType = ZDP_MGMT_DT_ROUTER;
??ZDO_ProcessMgmtLqiReq_15:
        MOV       A,R6
        ADD       A,#0x14
        MOV       DPL,A
        CLR       A
        ADDC      A,R7
        MOV       DPH,A
        MOV       A,#0x1
        MOVX      @DPTR,A
// 1405 
// 1406               if ( aDevice->nodeRelation == CHILD_FFD )
        MOV       DPL,?V6
        MOV       DPH,?V7
        INC       DPTR
        INC       DPTR
        INC       DPTR
        INC       DPTR
        MOVX      A,@DPTR
        XRL       A,#0x3
        JNZ       ??ZDO_ProcessMgmtLqiReq_18
// 1407               {
// 1408                 item->rxOnIdle = FALSE;
        MOV       A,R6
        ADD       A,#0x15
        MOV       DPL,A
        CLR       A
        ADDC      A,R7
        MOV       DPH,A
        MOV       A,#0x0
        MOVX      @DPTR,A
        SJMP      ??ZDO_ProcessMgmtLqiReq_17
// 1409               }
// 1410               else
// 1411               {
// 1412                 item->rxOnIdle = TRUE;
??ZDO_ProcessMgmtLqiReq_18:
        MOV       A,R6
        ADD       A,#0x15
        MOV       DPL,A
        CLR       A
        ADDC      A,R7
        MOV       DPH,A
        MOV       A,#0x1
        MOVX      @DPTR,A
// 1413               }
// 1414             }
// 1415 
// 1416             item->relation = ZDP_MGMT_REL_CHILD;
??ZDO_ProcessMgmtLqiReq_17:
        MOV       A,R6
        ADD       A,#0x16
        MOV       DPL,A
        CLR       A
        ADDC      A,R7
        MOV       DPH,A
        MOV       A,#0x1
        MOVX      @DPTR,A
// 1417           }
// 1418 
// 1419           item++;
??ZDO_ProcessMgmtLqiReq_14:
        MOV       A,R6
        ADD       A,#0x1a
        MOV       R6,A
        JNC       ??ZDO_ProcessMgmtLqiReq_19
        INC       R7
// 1420         }
??ZDO_ProcessMgmtLqiReq_19:
        INC       ?V4
        LJMP      ??ZDO_ProcessMgmtLqiReq_6 & 0xFFFF
// 1421         else
// 1422         {
// 1423           if ( StartIndex <= aItems )
??ZDO_ProcessMgmtLqiReq_8:
        MOV       A,?V2
        CLR       C
        SUBB      A,?V3
        JC        ??ZDO_ProcessMgmtLqiReq_20
// 1424             // Start with 1st neighbor
// 1425             index = 0;
        MOV       ?V0,#0x0
        SJMP      ??ZDO_ProcessMgmtLqiReq_7
// 1426           else
// 1427             // Start with >1st neighbor
// 1428             index = StartIndex - aItems;
??ZDO_ProcessMgmtLqiReq_20:
        MOV       A,?V3
        CLR       C
        SUBB      A,?V2
        MOV       ?V0,A
// 1429           break;
// 1430         }
// 1431       }
// 1432 
// 1433       // Loop through neighbor items and finish list
// 1434       for ( ; x < numItems; x++ )
??ZDO_ProcessMgmtLqiReq_7:
        MOV       A,?V4
        CLR       C
        SUBB      A,?V1
        JC        $+5
        LJMP      ??ZDO_ProcessMgmtLqiReq_5 & 0xFFFF
// 1435       {
// 1436         // Add next neighbor table item
// 1437         NLME_GetRequest( nwkNeighborTable, index++, &entry );
        ; Setup parameters for call to function NLME_GetRequest
        MOV       A,#0xe
        LCALL     ?XSTACK_DISP102_8
        MOV       A,?V0
        MOV       R2,A
        MOV       R3,#0x0
        MOV       R1,#-0x79
        LCALL     `??NLME_GetRequest::?relay`; Banked call to: NLME_GetRequest
        MOV       A,R1
        INC       ?V0
// 1438 
// 1439         // set ZDP_MgmtLqiItem_t fields
// 1440         item->panID    = entry.panId;
        MOV       A,#0x18
        LCALL     ?XSTACK_DISP0_8
        MOVX      A,@DPTR
        MOV       R0,A
        INC       DPTR
        MOVX      A,@DPTR
        MOV       R1,A
        MOV       DPL,R6
        MOV       DPH,R7
        MOV       A,R0
        MOVX      @DPTR,A
        INC       DPTR
        MOV       A,R1
        MOVX      @DPTR,A
// 1441         osal_cpyExtAddr( item->extPanID, _NIB.extendedPANID );
        ; Setup parameters for call to function sAddrExtCpy
        MOV       R4,#(_NIB + 53) & 0xff
        MOV       R5,#((_NIB + 53) >> 8) & 0xff
        MOV       A,R6
        ADD       A,#0x2
        MOV       R2,A
        CLR       A
        ADDC      A,R7
        MOV       R3,A
        LCALL     `??sAddrExtCpy::?relay`; Banked call to: sAddrExtCpy
// 1442         osal_cpyExtAddr( item->extAddr, entry.neighborExtAddr);
        ; Setup parameters for call to function sAddrExtCpy
        MOV       A,#0x10
        LCALL     ?XSTACK_DISP0_8
        MOV       R4,DPL
        MOV       R5,DPH
        MOV       A,R6
        ADD       A,#0xa
        MOV       R2,A
        CLR       A
        ADDC      A,R7
        MOV       R3,A
        LCALL     `??sAddrExtCpy::?relay`; Banked call to: sAddrExtCpy
// 1443         item->nwkAddr  = entry.neighborAddress;
        MOV       A,#0xe
        LCALL     ?XSTACK_DISP0_8
        MOVX      A,@DPTR
        MOV       R0,A
        INC       DPTR
        MOVX      A,@DPTR
        MOV       R1,A
        MOV       A,R6
        ADD       A,#0x12
        MOV       DPL,A
        CLR       A
        ADDC      A,R7
        MOV       DPH,A
        MOV       A,R0
        MOVX      @DPTR,A
        INC       DPTR
        MOV       A,R1
        MOVX      @DPTR,A
// 1444 
// 1445         if ( ZG_DEVICE_RTR_TYPE )
        MOV       DPTR,#zgDeviceLogicalType
        MOVX      A,@DPTR
        JZ        ??ZDO_ProcessMgmtLqiReq_21
        MOV       DPTR,#zgDeviceLogicalType
        MOVX      A,@DPTR
        XRL       A,#0x1
        JNZ       ??ZDO_ProcessMgmtLqiReq_22
// 1446         {
// 1447           item->rxOnIdle = ZDP_MGMT_BOOL_UNKNOWN;
??ZDO_ProcessMgmtLqiReq_21:
        MOV       A,R6
        ADD       A,#0x15
        MOV       DPL,A
        CLR       A
        ADDC      A,R7
        MOV       DPH,A
        MOV       A,#0x2
        MOVX      @DPTR,A
// 1448           item->relation = ZDP_MGMT_REL_UNKNOWN;
        MOV       A,R6
        ADD       A,#0x16
        MOV       DPL,A
        CLR       A
        ADDC      A,R7
        MOV       DPH,A
        MOV       A,#0x3
        MOVX      @DPTR,A
// 1449           item->depth    = 0xFF;
        MOV       A,R6
        ADD       A,#0x18
        MOV       DPL,A
        CLR       A
        ADDC      A,R7
        MOV       DPH,A
        MOV       A,#-0x1
        MOVX      @DPTR,A
        SJMP      ??ZDO_ProcessMgmtLqiReq_23
// 1450         }
// 1451         else
// 1452         {
// 1453           //end devices knows this for sure
// 1454           item->rxOnIdle = ZDP_MGMT_BOOL_RECEIVER_ON;
??ZDO_ProcessMgmtLqiReq_22:
        MOV       A,R6
        ADD       A,#0x15
        MOV       DPL,A
        CLR       A
        ADDC      A,R7
        MOV       DPH,A
        MOV       A,#0x0
        MOVX      @DPTR,A
// 1455           item->relation = ZDP_MGMT_REL_PARENT;
        MOV       A,R6
        ADD       A,#0x16
        MOV       DPL,A
        CLR       A
        ADDC      A,R7
        MOV       DPH,A
        MOV       A,#0x0
        MOVX      @DPTR,A
// 1456           item->depth = _NIB.nodeDepth - 1;
        MOV       DPTR,#_NIB + 52
        MOVX      A,@DPTR
        ADD       A,#-0x1
        PUSH      A
          CFI CFA_SP SP+-1
        MOV       A,R6
        ADD       A,#0x18
        MOV       DPL,A
        CLR       A
        ADDC      A,R7
        MOV       DPH,A
        POP       A
          CFI CFA_SP SP+0
        MOVX      @DPTR,A
// 1457         }
// 1458         item->permit   = ZDP_MGMT_BOOL_UNKNOWN;
??ZDO_ProcessMgmtLqiReq_23:
        MOV       A,R6
        ADD       A,#0x17
        MOV       DPL,A
        CLR       A
        ADDC      A,R7
        MOV       DPH,A
        MOV       A,#0x2
        MOVX      @DPTR,A
// 1459         item->lqi      = entry.linkInfo.rxLqi;
        MOV       A,#0x1d
        LCALL     ?XSTACK_DISP0_8
        MOVX      A,@DPTR
        PUSH      A
          CFI CFA_SP SP+-1
        MOV       A,R6
        ADD       A,#0x19
        MOV       DPL,A
        CLR       A
        ADDC      A,R7
        MOV       DPH,A
        POP       A
          CFI CFA_SP SP+0
        MOVX      @DPTR,A
// 1460 
// 1461         if ( item->nwkAddr == 0 )
        MOV       A,R6
        ADD       A,#0x12
        MOV       DPL,A
        CLR       A
        ADDC      A,R7
        MOV       DPH,A
        MOVX      A,@DPTR
        MOV       R0,A
        INC       DPTR
        MOVX      A,@DPTR
        MOV       R1,A
        MOV       A,R0
        ORL       A,R1
        JNZ       ??ZDO_ProcessMgmtLqiReq_24
// 1462         {
// 1463           item->devType = ZDP_MGMT_DT_COORD;
        MOV       A,R6
        ADD       A,#0x14
        MOV       DPL,A
        CLR       A
        ADDC      A,R7
        MOV       DPH,A
        MOV       A,#0x0
        MOVX      @DPTR,A
        SJMP      ??ZDO_ProcessMgmtLqiReq_25
// 1464         }
// 1465         else
// 1466         {
// 1467           item->devType = ZDP_MGMT_DT_ROUTER;
??ZDO_ProcessMgmtLqiReq_24:
        MOV       A,R6
        ADD       A,#0x14
        MOV       DPL,A
        CLR       A
        ADDC      A,R7
        MOV       DPH,A
        MOV       A,#0x1
        MOVX      @DPTR,A
// 1468         }
// 1469 
// 1470         item++;
??ZDO_ProcessMgmtLqiReq_25:
        MOV       A,R6
        ADD       A,#0x1a
        MOV       R6,A
        JNC       ??ZDO_ProcessMgmtLqiReq_26
        INC       R7
// 1471       }
??ZDO_ProcessMgmtLqiReq_26:
        INC       ?V4
        LJMP      ??ZDO_ProcessMgmtLqiReq_7 & 0xFFFF
// 1472     }
// 1473   }
// 1474   else
// 1475   {
// 1476     numItems = 0;
??ZDO_ProcessMgmtLqiReq_3:
        MOV       ?V1,#0x0
// 1477   }
// 1478 
// 1479   // Send response
// 1480   ZDP_MgmtLqiRsp( inMsg->TransSeq, &(inMsg->srcAddr), ZSuccess, maxItems,
// 1481                   StartIndex, numItems, table, false );
??ZDO_ProcessMgmtLqiReq_5:
        ; Setup parameters for call to function ZDP_MgmtLqiRsp
        MOV       ?V5,#0x0
        MOV       R0,#?V5
        LCALL     ?PUSH_XSTACK_I_ONE
          CFI CFA_XSP16 add(XSP16, 60)
        MOV       R0,#?V10
        LCALL     ?PUSH_XSTACK_I_TWO
          CFI CFA_XSP16 add(XSP16, 62)
        MOV       A,?V1
        MOV       ?V5,A
        MOV       R0,#?V5
        LCALL     ?PUSH_XSTACK_I_ONE
          CFI CFA_XSP16 add(XSP16, 63)
        MOV       A,?V3
        MOV       ?V5,A
        MOV       R0,#?V5
        LCALL     ?PUSH_XSTACK_I_ONE
          CFI CFA_XSP16 add(XSP16, 64)
        MOV       A,#0x5
        LCALL     ?XSTACK_DISP0_8
        MOVX      A,@DPTR
        MOV       R5,A
        MOV       R4,#0x0
        MOV       A,?V12
        ADD       A,#0x2
        MOV       R2,A
        CLR       A
        ADDC      A,?V13
        MOV       R3,A
        MOV       A,?V12
        ADD       A,#0xf
        MOV       DPL,A
        CLR       A
        ADDC      A,?V13
        MOV       DPH,A
        MOVX      A,@DPTR
        MOV       R1,A
        LCALL     `??ZDP_MgmtLqiRsp::?relay`; Banked call to: ZDP_MgmtLqiRsp
        MOV       A,#0x5
        LCALL     ?DEALLOC_XSTACK8
          CFI CFA_XSP16 add(XSP16, 59)
        MOV       A,R1
// 1482 
// 1483   if ( table )
        MOV       A,?V10
        ORL       A,?V11
        JZ        ??ZDO_ProcessMgmtLqiReq_27
// 1484   {
// 1485     osal_mem_free( table );
        ; Setup parameters for call to function osal_mem_free
        MOV       R2,?V10
        MOV       R3,?V11
        LCALL     `??osal_mem_free::?relay`; Banked call to: osal_mem_free
// 1486   }
// 1487 }
??ZDO_ProcessMgmtLqiReq_27:
        MOV       A,#0x25
        LCALL     ?DEALLOC_XSTACK8
          CFI CFA_XSP16 add(XSP16, 22)
        MOV       R7,#0xe
        LJMP      ?BANKED_LEAVE_XDATA
          CFI EndBlock cfiBlock20
// 1488 
// 1489 /*********************************************************************
// 1490  * @fn          ZDO_ProcessMgmtNwkDiscReq
// 1491  *
// 1492  * @brief       This function handles parsing the incoming Management
// 1493  *              Network Discover request and starts the request.
// 1494  *
// 1495  * @param       inMsg - incoming message (request)
// 1496  *
// 1497  * @return      none
// 1498  */

        RSEG BANKED_CODE:HUGECODE:NOROOT(0)
// 1499 void ZDO_ProcessMgmtNwkDiscReq( zdoIncomingMsg_t *inMsg )
ZDO_ProcessMgmtNwkDiscReq:
          CFI Block cfiBlock21 Using cfiCommon0
          CFI Function ZDO_ProcessMgmtNwkDiscReq
        CODE
// 1500 {
        FUNCALL ZDO_ProcessMgmtNwkDiscReq, osal_build_uint32
        LOCFRAME ISTACK, 0, STACK
        LOCFRAME PSTACK, 0, STACK
        LOCFRAME XSTACK, 18, STACK
        LOCFRAME IOVERLAY, 0, STATIC
        LOCFRAME DOVERLAY, 0, STATIC
        ARGFRAME ISTACK, 0, STACK
        ARGFRAME PSTACK, 0, STACK
        ARGFRAME XSTACK, 18, STACK
        ARGFRAME IOVERLAY, 0, STATIC
        ARGFRAME DOVERLAY, 0, STATIC
        FUNCALL ZDO_ProcessMgmtNwkDiscReq, NLME_NwkDiscReq2
        LOCFRAME ISTACK, 0, STACK
        LOCFRAME PSTACK, 0, STACK
        LOCFRAME XSTACK, 18, STACK
        LOCFRAME IOVERLAY, 0, STATIC
        LOCFRAME DOVERLAY, 0, STATIC
        ARGFRAME ISTACK, 0, STACK
        ARGFRAME PSTACK, 0, STACK
        ARGFRAME XSTACK, 18, STACK
        ARGFRAME IOVERLAY, 0, STATIC
        ARGFRAME DOVERLAY, 0, STATIC
        FUNCALL ZDO_ProcessMgmtNwkDiscReq, NLME_NwkDiscTerm
        LOCFRAME ISTACK, 0, STACK
        LOCFRAME PSTACK, 0, STACK
        LOCFRAME XSTACK, 18, STACK
        LOCFRAME IOVERLAY, 0, STATIC
        LOCFRAME DOVERLAY, 0, STATIC
        ARGFRAME ISTACK, 0, STACK
        ARGFRAME PSTACK, 0, STACK
        ARGFRAME XSTACK, 18, STACK
        ARGFRAME IOVERLAY, 0, STATIC
        ARGFRAME DOVERLAY, 0, STATIC
        REQUIRE ?V0
        REQUIRE ?V1
        REQUIRE ?V2
        MOV       A,#-0xb
        LCALL     ?BANKED_ENTER_XDATA
          CFI DPH0 load(1, XDATA, add(CFA_XSP16, literal(-1)))
          CFI DPL0 load(1, XDATA, add(CFA_XSP16, literal(-2)))
          CFI ?BRET_EXT load(1, XDATA, add(CFA_XSP16, literal(-3)))
          CFI ?RET_HIGH load(1, XDATA, add(CFA_XSP16, literal(-4)))
          CFI ?RET_LOW load(1, XDATA, add(CFA_XSP16, literal(-5)))
          CFI R7 load(1, XDATA, add(CFA_XSP16, literal(-6)))
          CFI V2 load(1, XDATA, add(CFA_XSP16, literal(-7)))
          CFI V1 load(1, XDATA, add(CFA_XSP16, literal(-8)))
          CFI V0 load(1, XDATA, add(CFA_XSP16, literal(-9)))
          CFI VB load(1, XDATA, add(CFA_XSP16, literal(-10)))
          CFI R6 load(1, XDATA, add(CFA_XSP16, literal(-11)))
          CFI CFA_SP SP+0
          CFI CFA_XSP16 add(XSP16, 11)
        ; Saved register size: 11
        ; Auto size: 7
        MOV       A,#-0x7
        LCALL     ?ALLOC_XSTACK8
          CFI CFA_XSP16 add(XSP16, 18)
        MOV       ?V0,R2
        MOV       ?V1,R3
// 1501   NLME_ScanFields_t scan;
// 1502   uint8             index;
// 1503   uint8             *msg;
// 1504 
// 1505   msg = inMsg->asdu;
        MOV       A,?V0
        ADD       A,#0x13
        MOV       DPL,A
        CLR       A
        ADDC      A,?V1
        MOV       DPH,A
        MOVX      A,@DPTR
        MOV       R0,A
        INC       DPTR
        MOVX      A,@DPTR
        MOV       R1,A
        MOV       A,R0
        MOV       R6,A
        MOV       A,R1
        MOV       R7,A
// 1506   scan.channels = osal_build_uint32( msg, 4 );
        ; Setup parameters for call to function osal_build_uint32
        MOV       R1,#0x4
        MOV       A,R6
        MOV       R2,A
        MOV       A,R7
        MOV       R3,A
        LCALL     `??osal_build_uint32::?relay`; Banked call to: osal_build_uint32
        MOV       A,R2
        MOV       R0,A
        MOV       A,R3
        MOV       R1,A
        MOV       A,R4
        MOV       R2,A
        MOV       A,R5
        MOV       R3,A
        MOV       DPL,?XSP + 0
        MOV       DPH,?XSP + 1
        LCALL     ?XSTORE_R0123
// 1507   msg += 4;
        MOV       A,R6
        ADD       A,#0x4
        MOV       R6,A
        JNC       ??ZDO_ProcessMgmtNwkDiscReq_0
        INC       R7
// 1508   scan.duration = *msg++;
??ZDO_ProcessMgmtNwkDiscReq_0:
        MOV       DPL,R6
        MOV       DPH,R7
        MOVX      A,@DPTR
        PUSH      A
          CFI CFA_SP SP+-1
        MOV       A,#0x4
        LCALL     ?XSTACK_DISP0_8
        POP       A
          CFI CFA_SP SP+0
        MOVX      @DPTR,A
        MOV       DPL,R6
        MOV       DPH,R7
        INC       DPTR
        MOV       R6,DPL
        MOV       R7,DPH
// 1509   index         = *msg;
        MOV       DPL,R6
        MOV       DPH,R7
        MOVX      A,@DPTR
        MOV       ?V2,A
// 1510   scan.scanType = ZMAC_ACTIVE_SCAN;
        MOV       A,#0x5
        LCALL     ?XSTACK_DISP0_8
        MOV       A,#0x1
        MOVX      @DPTR,A
// 1511   scan.scanApp  = NLME_DISC_SCAN;
        MOV       A,#0x6
        LCALL     ?XSTACK_DISP0_8
        MOV       A,#0x1
        MOVX      @DPTR,A
// 1512 
// 1513   // Save off the information to be used for the response
// 1514   zdappMgmtNwkDiscReqInProgress          = true;
        MOV       DPTR,#zdappMgmtNwkDiscReqInProgress
        MOV       A,#0x1
        MOVX      @DPTR,A
// 1515   zdappMgmtNwkDiscRspAddr.addrMode       = Addr16Bit;
        MOV       DPTR,#zdappMgmtNwkDiscRspAddr + 8
        MOV       A,#0x2
        MOVX      @DPTR,A
// 1516   zdappMgmtNwkDiscRspAddr.addr.shortAddr = inMsg->srcAddr.addr.shortAddr;
        MOV       DPL,?V0
        MOV       DPH,?V1
        INC       DPTR
        INC       DPTR
        MOVX      A,@DPTR
        MOV       R0,A
        INC       DPTR
        MOVX      A,@DPTR
        MOV       R1,A
        MOV       DPTR,#zdappMgmtNwkDiscRspAddr
        MOV       A,R0
        MOVX      @DPTR,A
        INC       DPTR
        MOV       A,R1
        MOVX      @DPTR,A
// 1517   zdappMgmtNwkDiscStartIndex             = index;
        MOV       A,?V2
        MOV       DPTR,#zdappMgmtNwkDiscStartIndex
        MOVX      @DPTR,A
// 1518   zdappMgmtNwkDiscRspTransSeq            = inMsg->TransSeq;
        MOV       A,?V0
        ADD       A,#0xf
        MOV       DPL,A
        CLR       A
        ADDC      A,?V1
        MOV       DPH,A
        MOVX      A,@DPTR
        MOV       DPTR,#zdappMgmtNwkDiscRspTransSeq
        MOVX      @DPTR,A
// 1519 
// 1520   if ( NLME_NwkDiscReq2( &scan ) != ZSuccess )
        ; Setup parameters for call to function NLME_NwkDiscReq2
        MOV       R2,?XSP + 0
        MOV       R3,?XSP + 1
        LCALL     `??NLME_NwkDiscReq2::?relay`; Banked call to: NLME_NwkDiscReq2
        MOV       A,R1
        JZ        ??ZDO_ProcessMgmtNwkDiscReq_1
// 1521   {
// 1522     NLME_NwkDiscTerm();
        ; Setup parameters for call to function NLME_NwkDiscTerm
        LCALL     `??NLME_NwkDiscTerm::?relay`; Banked call to: NLME_NwkDiscTerm
// 1523 
// 1524     // zdappMgmtNwkDiscReqInProgress will be reset in the confirm callback
// 1525   }
// 1526 }
??ZDO_ProcessMgmtNwkDiscReq_1:
        MOV       A,#0x7
        LCALL     ?DEALLOC_XSTACK8
          CFI CFA_XSP16 add(XSP16, 11)
        MOV       R7,#0x3
        LJMP      ?BANKED_LEAVE_XDATA
          CFI EndBlock cfiBlock21
// 1527 
// 1528 #if defined ( ZDO_MGMT_NWKDISC_RESPONSE )
// 1529 /*********************************************************************
// 1530  * @fn          ZDO_FinishProcessingMgmtNwkDiscReq
// 1531  *
// 1532  * @brief       This function finishes the processing of the Management
// 1533  *              Network Discover Request and generates the response.
// 1534  *
// 1535  *   Note:      This function will limit the number of items returned
// 1536  *              to ZDO_MAX_NWKDISC_ITEMS items.
// 1537  *
// 1538  * @param       ResultCountSrcAddr - source of the request
// 1539  * @param       msg - pointer to incoming message
// 1540  * @param       SecurityUse -
// 1541  *
// 1542  * @return      none
// 1543  */
// 1544 void ZDO_FinishProcessingMgmtNwkDiscReq( void )
// 1545 {
// 1546   byte count, i, ResultCount = 0;
// 1547   networkDesc_t *newDesc = NULL, *pList, *NetworkList;
// 1548 
// 1549   NetworkList = nwk_getNwkDescList();
// 1550 
// 1551   // Count the number of nwk descriptors in the list
// 1552   pList = nwk_getNwkDescList();
// 1553   while (pList)
// 1554   {
// 1555     ResultCount++;
// 1556     pList = pList->nextDesc;
// 1557   }
// 1558 
// 1559   if ( ZSTACK_ROUTER_BUILD )
// 1560   {
// 1561     // Look for my PanID.
// 1562     pList = nwk_getNwkDescList();
// 1563     while ( pList )
// 1564     {
// 1565       if ( pList->panId == _NIB.nwkPanId )
// 1566       {
// 1567         break;
// 1568       }
// 1569 
// 1570 
// 1571       if ( !pList->nextDesc )
// 1572       {
// 1573         break;
// 1574       }
// 1575       pList = pList->nextDesc;
// 1576     }
// 1577 
// 1578 
// 1579     // If my Pan not present (query to a star network ZC or an isolated ZR?),
// 1580     // prepend it.
// 1581     if ( !pList || (pList->panId != _NIB.nwkPanId) )
// 1582     {
// 1583       newDesc = (networkDesc_t *)osal_mem_alloc( sizeof( networkDesc_t ) );
// 1584       if ( newDesc )
// 1585       {
// 1586         byte pJoin;
// 1587 
// 1588         newDesc->panId = _NIB.nwkPanId;
// 1589         newDesc->logicalChannel = _NIB.nwkLogicalChannel;
// 1590         newDesc->version = NLME_GetProtocolVersion();
// 1591         newDesc->stackProfile = zgStackProfile;
// 1592 
// 1593         //Extended PanID
// 1594         osal_cpyExtAddr( newDesc->extendedPANID, _NIB.extendedPANID);
// 1595 
// 1596         ZMacGetReq( ZMacAssociationPermit, &pJoin );
// 1597         newDesc->chosenRouter = ((pJoin) ? ZDAppNwkAddr.addr.shortAddr :
// 1598                                            INVALID_NODE_ADDR);
// 1599 
// 1600         newDesc->nextDesc = NetworkList;
// 1601         NetworkList = newDesc;
// 1602         ResultCount++;
// 1603       }
// 1604     }
// 1605   }
// 1606 
// 1607   // Calc the count and apply a max count.
// 1608   if ( zdappMgmtNwkDiscStartIndex > ResultCount )
// 1609   {
// 1610     count = 0;
// 1611   }
// 1612   else
// 1613   {
// 1614     count = ResultCount - zdappMgmtNwkDiscStartIndex;
// 1615     if ( count > ZDO_MAX_NWKDISC_ITEMS )
// 1616     {
// 1617       count = ZDO_MAX_NWKDISC_ITEMS;
// 1618     }
// 1619 
// 1620     // Move the list pointer up to the start index.
// 1621     for ( i = 0; i < zdappMgmtNwkDiscStartIndex; i++ )
// 1622     {
// 1623       NetworkList = NetworkList->nextDesc;
// 1624     }
// 1625   }
// 1626 
// 1627   ZDP_MgmtNwkDiscRsp( zdappMgmtNwkDiscRspTransSeq,
// 1628                      &zdappMgmtNwkDiscRspAddr, ZSuccess, ResultCount,
// 1629                       zdappMgmtNwkDiscStartIndex,
// 1630                       count,
// 1631                       NetworkList,
// 1632                       false );
// 1633 
// 1634   if ( ZSTACK_ROUTER_BUILD )
// 1635   {
// 1636     if ( newDesc != NULL )
// 1637     {
// 1638       osal_mem_free( newDesc );
// 1639     }
// 1640   }
// 1641 
// 1642   NLME_NwkDiscTerm();
// 1643 }
// 1644 #endif
// 1645 
// 1646 /*********************************************************************
// 1647  * @fn          ZDO_ProcessMgmtRtgReq
// 1648  *
// 1649  * @brief       This function finishes the processing of the Management
// 1650  *              Routing Request and generates the response.
// 1651  *
// 1652  *   Note:      This function will limit the number of items returned
// 1653  *              to ZDO_MAX_RTG_ITEMS items.
// 1654  *
// 1655  * @param       inMsg - incoming message (request)
// 1656  *
// 1657  * @return      none
// 1658  */

        RSEG BANKED_CODE:HUGECODE:NOROOT(0)
// 1659 void ZDO_ProcessMgmtRtgReq( zdoIncomingMsg_t *inMsg )
ZDO_ProcessMgmtRtgReq:
          CFI Block cfiBlock22 Using cfiCommon0
          CFI Function ZDO_ProcessMgmtRtgReq
        CODE
// 1660 {
        FUNCALL ZDO_ProcessMgmtRtgReq, NLME_GetRequest
        LOCFRAME ISTACK, 0, STACK
        LOCFRAME PSTACK, 0, STACK
        LOCFRAME XSTACK, 19, STACK
        LOCFRAME IOVERLAY, 0, STATIC
        LOCFRAME DOVERLAY, 0, STATIC
        ARGFRAME ISTACK, 0, STACK
        ARGFRAME PSTACK, 0, STACK
        ARGFRAME XSTACK, 19, STACK
        ARGFRAME IOVERLAY, 0, STATIC
        ARGFRAME DOVERLAY, 0, STATIC
        FUNCALL ZDO_ProcessMgmtRtgReq, osal_mem_alloc
        LOCFRAME ISTACK, 0, STACK
        LOCFRAME PSTACK, 0, STACK
        LOCFRAME XSTACK, 19, STACK
        LOCFRAME IOVERLAY, 0, STATIC
        LOCFRAME DOVERLAY, 0, STATIC
        ARGFRAME ISTACK, 0, STACK
        ARGFRAME PSTACK, 0, STACK
        ARGFRAME XSTACK, 19, STACK
        ARGFRAME IOVERLAY, 0, STATIC
        ARGFRAME DOVERLAY, 0, STATIC
        FUNCALL ZDO_ProcessMgmtRtgReq, NLME_GetRequest
        LOCFRAME ISTACK, 0, STACK
        LOCFRAME PSTACK, 0, STACK
        LOCFRAME XSTACK, 19, STACK
        LOCFRAME IOVERLAY, 0, STATIC
        LOCFRAME DOVERLAY, 0, STATIC
        ARGFRAME ISTACK, 0, STACK
        ARGFRAME PSTACK, 0, STACK
        ARGFRAME XSTACK, 19, STACK
        ARGFRAME IOVERLAY, 0, STATIC
        ARGFRAME DOVERLAY, 0, STATIC
        FUNCALL ZDO_ProcessMgmtRtgReq, ZDP_MgmtRtgRsp
        LOCFRAME ISTACK, 0, STACK
        LOCFRAME PSTACK, 0, STACK
        LOCFRAME XSTACK, 24, STACK
        LOCFRAME IOVERLAY, 0, STATIC
        LOCFRAME DOVERLAY, 0, STATIC
        ARGFRAME ISTACK, 0, STACK
        ARGFRAME PSTACK, 0, STACK
        ARGFRAME XSTACK, 24, STACK
        ARGFRAME IOVERLAY, 0, STATIC
        ARGFRAME DOVERLAY, 0, STATIC
        FUNCALL ZDO_ProcessMgmtRtgReq, osal_mem_free
        LOCFRAME ISTACK, 0, STACK
        LOCFRAME PSTACK, 0, STACK
        LOCFRAME XSTACK, 19, STACK
        LOCFRAME IOVERLAY, 0, STATIC
        LOCFRAME DOVERLAY, 0, STATIC
        ARGFRAME ISTACK, 0, STACK
        ARGFRAME PSTACK, 0, STACK
        ARGFRAME XSTACK, 19, STACK
        ARGFRAME IOVERLAY, 0, STATIC
        ARGFRAME DOVERLAY, 0, STATIC
        REQUIRE ?V0
        REQUIRE ?V1
        REQUIRE ?V2
        REQUIRE ?V3
        REQUIRE ?V4
        REQUIRE ?V5
        REQUIRE ?V6
        REQUIRE ?V7
        REQUIRE ?V8
        REQUIRE ?V9
        MOV       A,#-0x12
        LCALL     ?BANKED_ENTER_XDATA
          CFI DPH0 load(1, XDATA, add(CFA_XSP16, literal(-1)))
          CFI DPL0 load(1, XDATA, add(CFA_XSP16, literal(-2)))
          CFI ?BRET_EXT load(1, XDATA, add(CFA_XSP16, literal(-3)))
          CFI ?RET_HIGH load(1, XDATA, add(CFA_XSP16, literal(-4)))
          CFI ?RET_LOW load(1, XDATA, add(CFA_XSP16, literal(-5)))
          CFI R7 load(1, XDATA, add(CFA_XSP16, literal(-6)))
          CFI V9 load(1, XDATA, add(CFA_XSP16, literal(-7)))
          CFI V8 load(1, XDATA, add(CFA_XSP16, literal(-8)))
          CFI V7 load(1, XDATA, add(CFA_XSP16, literal(-9)))
          CFI V6 load(1, XDATA, add(CFA_XSP16, literal(-10)))
          CFI V5 load(1, XDATA, add(CFA_XSP16, literal(-11)))
          CFI V4 load(1, XDATA, add(CFA_XSP16, literal(-12)))
          CFI V3 load(1, XDATA, add(CFA_XSP16, literal(-13)))
          CFI V2 load(1, XDATA, add(CFA_XSP16, literal(-14)))
          CFI V1 load(1, XDATA, add(CFA_XSP16, literal(-15)))
          CFI V0 load(1, XDATA, add(CFA_XSP16, literal(-16)))
          CFI VB load(1, XDATA, add(CFA_XSP16, literal(-17)))
          CFI R6 load(1, XDATA, add(CFA_XSP16, literal(-18)))
          CFI CFA_SP SP+0
          CFI CFA_XSP16 add(XSP16, 18)
        ; Saved register size: 18
        ; Auto size: 1
        MOV       A,#-0x1
        LCALL     ?ALLOC_XSTACK8
          CFI CFA_XSP16 add(XSP16, 19)
        MOV       ?V4,R2
        MOV       ?V5,R3
// 1661   byte x;
// 1662   byte maxNumItems;
// 1663   byte numItems = 0;
        MOV       R6,#0x0
// 1664   uint8 *pBuf = NULL;
        MOV       ?V6,#0x0
        MOV       ?V7,#0x0
// 1665   rtgItem_t *pList;
// 1666   uint8 StartIndex = inMsg->asdu[0];
        MOV       A,?V4
        ADD       A,#0x13
        MOV       DPL,A
        CLR       A
        ADDC      A,?V5
        MOV       DPH,A
        MOVX      A,@DPTR
        MOV       R0,A
        INC       DPTR
        MOVX      A,@DPTR
        MOV       DPH,A
        MOV       DPL,R0
        MOVX      A,@DPTR
        MOV       R7,A
// 1667 
// 1668   // Get the number of table items
// 1669   NLME_GetRequest( nwkNumRoutingTableEntries, 0, &maxNumItems );
        ; Setup parameters for call to function NLME_GetRequest
        MOV       R4,?XSP + 0
        MOV       R5,?XSP + 1
        MOV       R2,#0x0
        MOV       R3,#0x0
        MOV       R1,#-0x63
        LCALL     `??NLME_GetRequest::?relay`; Banked call to: NLME_GetRequest
        MOV       A,R1
// 1670 
// 1671   if ( maxNumItems > StartIndex )
        MOV       DPL,?XSP + 0
        MOV       DPH,?XSP + 1
        MOVX      A,@DPTR
        MOV       R0,A
        MOV       A,R7
        CLR       C
        SUBB      A,R0
        JC        $+5
        LJMP      ??ZDO_ProcessMgmtRtgReq_0 & 0xFFFF
// 1672   {
// 1673     numItems = maxNumItems - StartIndex;    // Start at the passed in index
        MOV       DPL,?XSP + 0
        MOV       DPH,?XSP + 1
        MOVX      A,@DPTR
        CLR       C
        SUBB      A,R7
        MOV       R6,A
// 1674 
// 1675     // limit the size of the list
// 1676     if ( numItems > ZDO_MAX_RTG_ITEMS )
        MOV       A,R6
        CLR       C
        SUBB      A,#0xb
        JC        ??ZDO_ProcessMgmtRtgReq_1
// 1677     {
// 1678       numItems = ZDO_MAX_RTG_ITEMS;
        MOV       R6,#0xa
// 1679     }
// 1680 
// 1681     // Allocate the memory to build the table
// 1682     pBuf = osal_mem_alloc( (short)(sizeof( rtgItem_t ) * numItems) );
??ZDO_ProcessMgmtRtgReq_1:
        ; Setup parameters for call to function osal_mem_alloc
        MOV       A,R6
        MOV       R2,A
        MOV       R3,#0x0
        MOV       A,R2
        MOV       B,#0x7
        MUL       AB
        XCH       A,R2
        MOV       R0,B
        MOV       B,#0x0
        MUL       AB
        ADD       A,R0
        MOV       R0,A
        MOV       B,#0x7
        MOV       A,R3
        MUL       AB
        ADD       A,R0
        MOV       R3,A
        LCALL     `??osal_mem_alloc::?relay`; Banked call to: osal_mem_alloc
        MOV       ?V8,R2
        MOV       ?V9,R3
        MOV       ?V6,?V8
        MOV       ?V7,?V9
// 1683 
// 1684     if ( pBuf != NULL )
        MOV       A,?V6
        ORL       A,?V7
        JNZ       $+5
        LJMP      ??ZDO_ProcessMgmtRtgReq_2 & 0xFFFF
// 1685     {
// 1686       // Convert buffer to list
// 1687       pList = (rtgItem_t *)pBuf;
        MOV       ?V0,?V6
        MOV       ?V1,?V7
// 1688 
// 1689       // Loop through items and build list
// 1690       for ( x = 0; x < numItems; x++ )
        MOV       ?V2,#0x0
??ZDO_ProcessMgmtRtgReq_3:
        MOV       A,?V2
        CLR       C
        SUBB      A,R6
        JNC       ??ZDO_ProcessMgmtRtgReq_0
// 1691       {
// 1692         NLME_GetRequest( nwkRoutingTable, (uint16)(x + StartIndex), (void*)pList );
        ; Setup parameters for call to function NLME_GetRequest
        MOV       R4,?V0
        MOV       R5,?V1
        MOV       A,?V2
        MOV       R2,A
        MOV       R3,#0x0
        MOV       A,R7
        MOV       R0,A
        MOV       R1,#0x0
        MOV       A,R2
        ADD       A,R0
        MOV       R2,A
        MOV       A,R3
        ADDC      A,R1
        MOV       R3,A
        MOV       R1,#-0x75
        LCALL     `??NLME_GetRequest::?relay`; Banked call to: NLME_GetRequest
        MOV       A,R1
// 1693 
// 1694         // Remap the status to the RoutingTableList Record Format defined in the ZigBee spec
// 1695         switch( pList->status )
        MOV       DPL,?V0
        MOV       DPH,?V1
        INC       DPTR
        INC       DPTR
        INC       DPTR
        INC       DPTR
        INC       DPTR
        MOVX      A,@DPTR
        DEC       A
        JZ        ??ZDO_ProcessMgmtRtgReq_4
        DEC       A
        JZ        ??ZDO_ProcessMgmtRtgReq_5
        DEC       A
        JZ        ??ZDO_ProcessMgmtRtgReq_6
        SJMP      ??ZDO_ProcessMgmtRtgReq_7
// 1696         {
// 1697           case RT_ACTIVE:
// 1698             pList->status = ZDO_MGMT_RTG_ENTRY_ACTIVE;
??ZDO_ProcessMgmtRtgReq_4:
        MOV       DPL,?V0
        MOV       DPH,?V1
        INC       DPTR
        INC       DPTR
        INC       DPTR
        INC       DPTR
        INC       DPTR
        MOV       A,#0x0
        MOVX      @DPTR,A
// 1699             break;
        SJMP      ??ZDO_ProcessMgmtRtgReq_8
// 1700 
// 1701           case RT_DISC:
// 1702             pList->status = ZDO_MGMT_RTG_ENTRY_DISCOVERY_UNDERWAY;
??ZDO_ProcessMgmtRtgReq_5:
        MOV       DPL,?V0
        MOV       DPH,?V1
        INC       DPTR
        INC       DPTR
        INC       DPTR
        INC       DPTR
        INC       DPTR
        MOV       A,#0x1
        MOVX      @DPTR,A
// 1703             break;
        SJMP      ??ZDO_ProcessMgmtRtgReq_8
// 1704 
// 1705           case RT_LINK_FAIL:
// 1706             pList->status = ZDO_MGMT_RTG_ENTRY_DISCOVERY_FAILED;
??ZDO_ProcessMgmtRtgReq_6:
        MOV       DPL,?V0
        MOV       DPH,?V1
        INC       DPTR
        INC       DPTR
        INC       DPTR
        INC       DPTR
        INC       DPTR
        MOV       A,#0x2
        MOVX      @DPTR,A
// 1707             break;
        SJMP      ??ZDO_ProcessMgmtRtgReq_8
// 1708 
// 1709           case RT_INIT:
// 1710           case RT_REPAIR:
// 1711           default:
// 1712             pList->status = ZDO_MGMT_RTG_ENTRY_INACTIVE;
??ZDO_ProcessMgmtRtgReq_7:
        MOV       DPL,?V0
        MOV       DPH,?V1
        INC       DPTR
        INC       DPTR
        INC       DPTR
        INC       DPTR
        INC       DPTR
        MOV       A,#0x3
        MOVX      @DPTR,A
// 1713             break;
// 1714         }
// 1715 
// 1716         // Increment pointer to next record
// 1717         pList++;
??ZDO_ProcessMgmtRtgReq_8:
        MOV       A,?V0
        ADD       A,#0x7
        MOV       ?V0,A
        JNC       ??ZDO_ProcessMgmtRtgReq_9
        INC       ?V1
// 1718       }
??ZDO_ProcessMgmtRtgReq_9:
        INC       ?V2
        LJMP      ??ZDO_ProcessMgmtRtgReq_3 & 0xFFFF
// 1719     }
// 1720     else
// 1721     {
// 1722       numItems = 0;
??ZDO_ProcessMgmtRtgReq_2:
        MOV       R6,#0x0
// 1723     }
// 1724   }
// 1725 
// 1726   // Send response
// 1727   ZDP_MgmtRtgRsp( inMsg->TransSeq, &(inMsg->srcAddr), ZSuccess, maxNumItems, StartIndex, numItems,
// 1728                         (rtgItem_t *)pBuf, false );
??ZDO_ProcessMgmtRtgReq_0:
        ; Setup parameters for call to function ZDP_MgmtRtgRsp
        MOV       ?V3,#0x0
        MOV       R0,#?V3
        LCALL     ?PUSH_XSTACK_I_ONE
          CFI CFA_XSP16 add(XSP16, 20)
        MOV       R0,#?V6
        LCALL     ?PUSH_XSTACK_I_TWO
          CFI CFA_XSP16 add(XSP16, 22)
        MOV       A,R6
        MOV       ?V3,A
        MOV       R0,#?V3
        LCALL     ?PUSH_XSTACK_I_ONE
          CFI CFA_XSP16 add(XSP16, 23)
        MOV       A,R7
        MOV       ?V3,A
        MOV       R0,#?V3
        LCALL     ?PUSH_XSTACK_I_ONE
          CFI CFA_XSP16 add(XSP16, 24)
        MOV       A,#0x5
        LCALL     ?XSTACK_DISP0_8
        MOVX      A,@DPTR
        MOV       R5,A
        MOV       R4,#0x0
        MOV       A,?V4
        ADD       A,#0x2
        MOV       R2,A
        CLR       A
        ADDC      A,?V5
        MOV       R3,A
        MOV       A,?V4
        ADD       A,#0xf
        MOV       DPL,A
        CLR       A
        ADDC      A,?V5
        MOV       DPH,A
        MOVX      A,@DPTR
        MOV       R1,A
        LCALL     `??ZDP_MgmtRtgRsp::?relay`; Banked call to: ZDP_MgmtRtgRsp
        MOV       A,#0x5
        LCALL     ?DEALLOC_XSTACK8
          CFI CFA_XSP16 add(XSP16, 19)
        MOV       A,R1
// 1729 
// 1730   if ( pBuf != NULL )
        MOV       A,?V6
        ORL       A,?V7
        JZ        ??ZDO_ProcessMgmtRtgReq_10
// 1731   {
// 1732     osal_mem_free( pBuf );
        ; Setup parameters for call to function osal_mem_free
        MOV       R2,?V6
        MOV       R3,?V7
        LCALL     `??osal_mem_free::?relay`; Banked call to: osal_mem_free
// 1733   }
// 1734 }
??ZDO_ProcessMgmtRtgReq_10:
        MOV       A,#0x1
        LCALL     ?DEALLOC_XSTACK8
          CFI CFA_XSP16 add(XSP16, 18)
        MOV       R7,#0xa
        LJMP      ?BANKED_LEAVE_XDATA
          CFI EndBlock cfiBlock22
// 1735 
// 1736 /*********************************************************************
// 1737  * @fn          ZDO_ProcessMgmtBindReq
// 1738  *
// 1739  * @brief       This function finishes the processing of the Management
// 1740  *              Bind Request and generates the response.
// 1741  *
// 1742  *   Note:      This function will limit the number of items returned
// 1743  *              to ZDO_MAX_BIND_ITEMS items.
// 1744  *
// 1745  * @param       inMsg - incoming message (request)
// 1746  *
// 1747  * @return      none
// 1748  */

        RSEG BANKED_CODE:HUGECODE:NOROOT(0)
// 1749 void ZDO_ProcessMgmtBindReq( zdoIncomingMsg_t *inMsg )
ZDO_ProcessMgmtBindReq:
          CFI Block cfiBlock23 Using cfiCommon0
          CFI Function ZDO_ProcessMgmtBindReq
        CODE
// 1750 {
        FUNCALL ZDO_ProcessMgmtBindReq, APSME_GetRequest
        LOCFRAME ISTACK, 0, STACK
        LOCFRAME PSTACK, 0, STACK
        LOCFRAME XSTACK, 22, STACK
        LOCFRAME IOVERLAY, 0, STATIC
        LOCFRAME DOVERLAY, 0, STATIC
        ARGFRAME ISTACK, 0, STACK
        ARGFRAME PSTACK, 0, STACK
        ARGFRAME XSTACK, 22, STACK
        ARGFRAME IOVERLAY, 0, STATIC
        ARGFRAME DOVERLAY, 0, STATIC
        FUNCALL ZDO_ProcessMgmtBindReq, osal_mem_alloc
        LOCFRAME ISTACK, 0, STACK
        LOCFRAME PSTACK, 0, STACK
        LOCFRAME XSTACK, 22, STACK
        LOCFRAME IOVERLAY, 0, STATIC
        LOCFRAME DOVERLAY, 0, STATIC
        ARGFRAME ISTACK, 0, STACK
        ARGFRAME PSTACK, 0, STACK
        ARGFRAME XSTACK, 22, STACK
        ARGFRAME IOVERLAY, 0, STATIC
        ARGFRAME DOVERLAY, 0, STATIC
        FUNCALL ZDO_ProcessMgmtBindReq, APSME_GetRequest
        LOCFRAME ISTACK, 0, STACK
        LOCFRAME PSTACK, 0, STACK
        LOCFRAME XSTACK, 22, STACK
        LOCFRAME IOVERLAY, 0, STATIC
        LOCFRAME DOVERLAY, 0, STATIC
        ARGFRAME ISTACK, 0, STACK
        ARGFRAME PSTACK, 0, STACK
        ARGFRAME XSTACK, 22, STACK
        ARGFRAME IOVERLAY, 0, STATIC
        ARGFRAME DOVERLAY, 0, STATIC
        FUNCALL ZDO_ProcessMgmtBindReq, ZDP_MgmtBindRsp
        LOCFRAME ISTACK, 0, STACK
        LOCFRAME PSTACK, 0, STACK
        LOCFRAME XSTACK, 27, STACK
        LOCFRAME IOVERLAY, 0, STATIC
        LOCFRAME DOVERLAY, 0, STATIC
        ARGFRAME ISTACK, 0, STACK
        ARGFRAME PSTACK, 0, STACK
        ARGFRAME XSTACK, 27, STACK
        ARGFRAME IOVERLAY, 0, STATIC
        ARGFRAME DOVERLAY, 0, STATIC
        FUNCALL ZDO_ProcessMgmtBindReq, osal_mem_free
        LOCFRAME ISTACK, 0, STACK
        LOCFRAME PSTACK, 0, STACK
        LOCFRAME XSTACK, 22, STACK
        LOCFRAME IOVERLAY, 0, STATIC
        LOCFRAME DOVERLAY, 0, STATIC
        ARGFRAME ISTACK, 0, STACK
        ARGFRAME PSTACK, 0, STACK
        ARGFRAME XSTACK, 22, STACK
        ARGFRAME IOVERLAY, 0, STATIC
        ARGFRAME DOVERLAY, 0, STATIC
        REQUIRE ?V0
        REQUIRE ?V1
        REQUIRE ?V2
        REQUIRE ?V3
        REQUIRE ?V4
        REQUIRE ?V5
        REQUIRE ?V6
        REQUIRE ?V7
        REQUIRE ?V8
        REQUIRE ?V9
        REQUIRE ?V10
        REQUIRE ?V11
        MOV       A,#-0x14
        LCALL     ?BANKED_ENTER_XDATA
          CFI DPH0 load(1, XDATA, add(CFA_XSP16, literal(-1)))
          CFI DPL0 load(1, XDATA, add(CFA_XSP16, literal(-2)))
          CFI ?BRET_EXT load(1, XDATA, add(CFA_XSP16, literal(-3)))
          CFI ?RET_HIGH load(1, XDATA, add(CFA_XSP16, literal(-4)))
          CFI ?RET_LOW load(1, XDATA, add(CFA_XSP16, literal(-5)))
          CFI R7 load(1, XDATA, add(CFA_XSP16, literal(-6)))
          CFI V11 load(1, XDATA, add(CFA_XSP16, literal(-7)))
          CFI V10 load(1, XDATA, add(CFA_XSP16, literal(-8)))
          CFI V9 load(1, XDATA, add(CFA_XSP16, literal(-9)))
          CFI V8 load(1, XDATA, add(CFA_XSP16, literal(-10)))
          CFI V7 load(1, XDATA, add(CFA_XSP16, literal(-11)))
          CFI V6 load(1, XDATA, add(CFA_XSP16, literal(-12)))
          CFI V5 load(1, XDATA, add(CFA_XSP16, literal(-13)))
          CFI V4 load(1, XDATA, add(CFA_XSP16, literal(-14)))
          CFI V3 load(1, XDATA, add(CFA_XSP16, literal(-15)))
          CFI V2 load(1, XDATA, add(CFA_XSP16, literal(-16)))
          CFI V1 load(1, XDATA, add(CFA_XSP16, literal(-17)))
          CFI V0 load(1, XDATA, add(CFA_XSP16, literal(-18)))
          CFI VB load(1, XDATA, add(CFA_XSP16, literal(-19)))
          CFI R6 load(1, XDATA, add(CFA_XSP16, literal(-20)))
          CFI CFA_SP SP+0
          CFI CFA_XSP16 add(XSP16, 20)
        ; Saved register size: 20
        ; Auto size: 2
        MOV       A,#-0x2
        LCALL     ?ALLOC_XSTACK8
          CFI CFA_XSP16 add(XSP16, 22)
        MOV       ?V6,R2
        MOV       ?V7,R3
// 1751 #if defined ( REFLECTOR )
// 1752   byte x;
// 1753   uint16 maxNumItems;
// 1754   uint16 numItems;
// 1755   uint8 *pBuf = NULL;
        MOV       ?V8,#0x0
        MOV       ?V9,#0x0
// 1756   apsBindingItem_t *pList;
// 1757   uint8 StartIndex = inMsg->asdu[0];
        MOV       A,?V6
        ADD       A,#0x13
        MOV       DPL,A
        CLR       A
        ADDC      A,?V7
        MOV       DPH,A
        MOVX      A,@DPTR
        MOV       R0,A
        INC       DPTR
        MOVX      A,@DPTR
        MOV       DPH,A
        MOV       DPL,R0
        MOVX      A,@DPTR
        MOV       ?V1,A
// 1758   uint8 status;
// 1759 
// 1760   // Get the number of table items
// 1761   APSME_GetRequest( apsNumBindingTableEntries, 0, (byte*)(&maxNumItems) );
        ; Setup parameters for call to function APSME_GetRequest
        MOV       R4,?XSP + 0
        MOV       R5,?XSP + 1
        MOV       R2,#0x0
        MOV       R3,#0x0
        MOV       R1,#-0x5d
        LCALL     `??APSME_GetRequest::?relay`; Banked call to: APSME_GetRequest
        MOV       A,R1
// 1762 
// 1763   if ( maxNumItems > StartIndex )
        MOV       A,?V1
        MOV       R2,A
        MOV       R3,#0x0
        MOV       DPL,?XSP + 0
        MOV       DPH,?XSP + 1
        MOVX      A,@DPTR
        MOV       R0,A
        INC       DPTR
        MOVX      A,@DPTR
        MOV       R1,A
        CLR       C
        MOV       A,R2
        SUBB      A,R0
        MOV       A,R3
        SUBB      A,R1
        JNC       ??ZDO_ProcessMgmtBindReq_0
// 1764   {
// 1765     numItems = maxNumItems - StartIndex;    // Start at the passed in index
        MOV       DPL,?XSP + 0
        MOV       DPH,?XSP + 1
        MOV       A,?V1
        MOV       R0,A
        MOV       R1,#0x0
        MOVX      A,@DPTR
        CLR       C
        SUBB      A,R0
        MOV       R0,A
        INC       DPTR
        MOVX      A,@DPTR
        SUBB      A,R1
        MOV       R1,A
        MOV       A,R0
        MOV       R6,A
        MOV       A,R1
        MOV       R7,A
        SJMP      ??ZDO_ProcessMgmtBindReq_1
// 1766   }
// 1767   else
// 1768   {
// 1769     numItems = 0;
??ZDO_ProcessMgmtBindReq_0:
        MOV       R6,#0x0
        MOV       R7,#0x0
// 1770   }
// 1771 
// 1772   // limit the size of the list
// 1773   if ( numItems > ZDO_MAX_BIND_ITEMS )
??ZDO_ProcessMgmtBindReq_1:
        CLR       C
        MOV       A,R6
        SUBB      A,#0x4
        MOV       A,R7
        SUBB      A,#0x0
        JC        ??ZDO_ProcessMgmtBindReq_2
// 1774   {
// 1775     numItems = ZDO_MAX_BIND_ITEMS;
        MOV       R6,#0x3
        MOV       R7,#0x0
// 1776   }
// 1777 
// 1778   // Allocate the memory to build the table
// 1779   if ( numItems )
??ZDO_ProcessMgmtBindReq_2:
        MOV       A,R6
        ORL       A,R7
        JZ        ??ZDO_ProcessMgmtBindReq_3
// 1780   {
// 1781     pBuf = osal_mem_alloc( sizeof( apsBindingItem_t ) * numItems );
        ; Setup parameters for call to function osal_mem_alloc
        MOV       A,R6
        MOV       R2,A
        MOV       A,R7
        MOV       R3,A
        MOV       A,R2
        MOV       B,#0x15
        MUL       AB
        XCH       A,R2
        MOV       R0,B
        MOV       B,#0x0
        MUL       AB
        ADD       A,R0
        MOV       R0,A
        MOV       B,#0x15
        MOV       A,R3
        MUL       AB
        ADD       A,R0
        MOV       R3,A
        LCALL     `??osal_mem_alloc::?relay`; Banked call to: osal_mem_alloc
        MOV       ?V10,R2
        MOV       ?V11,R3
        MOV       ?V8,?V10
        MOV       ?V9,?V11
// 1782     
// 1783     if(pBuf != NULL)
        MOV       A,?V8
        ORL       A,?V9
        JZ        ??ZDO_ProcessMgmtBindReq_4
// 1784     {
// 1785     
// 1786       status = ZSuccess;
        MOV       ?V0,#0x0
// 1787 
// 1788       // Convert buffer to list
// 1789       pList = (apsBindingItem_t *)pBuf;
        MOV       ?V4,?V8
        MOV       ?V5,?V9
// 1790 
// 1791       // Loop through items and build list
// 1792       for ( x = 0; x < numItems; x++ )
        MOV       ?V2,#0x0
??ZDO_ProcessMgmtBindReq_5:
        MOV       A,?V2
        MOV       R0,A
        MOV       R1,#0x0
        CLR       C
        MOV       A,R0
        SUBB      A,R6
        MOV       A,R1
        SUBB      A,R7
        JNC       ??ZDO_ProcessMgmtBindReq_6
// 1793       {
// 1794         APSME_GetRequest( apsBindingTable, (x + StartIndex), (void*)pList );
        ; Setup parameters for call to function APSME_GetRequest
        MOV       R4,?V4
        MOV       R5,?V5
        MOV       A,?V2
        MOV       R2,A
        MOV       R3,#0x0
        MOV       A,?V1
        MOV       R0,A
        MOV       R1,#0x0
        MOV       A,R2
        ADD       A,R0
        MOV       R2,A
        MOV       A,R3
        ADDC      A,R1
        MOV       R3,A
        MOV       R1,#-0x5e
        LCALL     `??APSME_GetRequest::?relay`; Banked call to: APSME_GetRequest
        MOV       A,R1
// 1795         pList++;
        MOV       A,?V4
        ADD       A,#0x15
        MOV       ?V4,A
        JNC       ??ZDO_ProcessMgmtBindReq_7
        INC       ?V5
// 1796       }
??ZDO_ProcessMgmtBindReq_7:
        INC       ?V2
        SJMP      ??ZDO_ProcessMgmtBindReq_5
// 1797     }
// 1798     else
// 1799     {
// 1800       //No memory to allocate response, respond unsupported attribute
// 1801       status = ZApsUnsupportedAttrib;
??ZDO_ProcessMgmtBindReq_4:
        MOV       ?V0,#-0x4b
// 1802       numItems = 0;
        MOV       R6,#0x0
        MOV       R7,#0x0
        SJMP      ??ZDO_ProcessMgmtBindReq_6
// 1803     }
// 1804   }
// 1805   else
// 1806   {
// 1807     status = ZSuccess;
??ZDO_ProcessMgmtBindReq_3:
        MOV       ?V0,#0x0
// 1808   }
// 1809 
// 1810   // Send response
// 1811   ZDP_MgmtBindRsp( inMsg->TransSeq, &(inMsg->srcAddr), status, (byte)maxNumItems, StartIndex,
// 1812                    (byte)numItems, (apsBindingItem_t *)pBuf, false );
??ZDO_ProcessMgmtBindReq_6:
        ; Setup parameters for call to function ZDP_MgmtBindRsp
        MOV       ?V3,#0x0
        MOV       R0,#?V3
        LCALL     ?PUSH_XSTACK_I_ONE
          CFI CFA_XSP16 add(XSP16, 23)
        MOV       R0,#?V8
        LCALL     ?PUSH_XSTACK_I_TWO
          CFI CFA_XSP16 add(XSP16, 25)
        MOV       A,R6
        MOV       ?V3,A
        MOV       R0,#?V3
        LCALL     ?PUSH_XSTACK_I_ONE
          CFI CFA_XSP16 add(XSP16, 26)
        MOV       A,?V1
        MOV       ?V3,A
        MOV       R0,#?V3
        LCALL     ?PUSH_XSTACK_I_ONE
          CFI CFA_XSP16 add(XSP16, 27)
        MOV       A,#0x5
        LCALL     ?XSTACK_DISP0_8
        MOVX      A,@DPTR
        MOV       R0,A
        INC       DPTR
        MOVX      A,@DPTR
        MOV       R1,A
        MOV       A,R0
        MOV       R5,A
        MOV       R4,?V0
        MOV       A,?V6
        ADD       A,#0x2
        MOV       R2,A
        CLR       A
        ADDC      A,?V7
        MOV       R3,A
        MOV       A,?V6
        ADD       A,#0xf
        MOV       DPL,A
        CLR       A
        ADDC      A,?V7
        MOV       DPH,A
        MOVX      A,@DPTR
        MOV       R1,A
        LCALL     `??ZDP_MgmtBindRsp::?relay`; Banked call to: ZDP_MgmtBindRsp
        MOV       A,#0x5
        LCALL     ?DEALLOC_XSTACK8
          CFI CFA_XSP16 add(XSP16, 22)
        MOV       A,R1
// 1813 
// 1814   if ( pBuf )
        MOV       A,?V8
        ORL       A,?V9
        JZ        ??ZDO_ProcessMgmtBindReq_8
// 1815   {
// 1816     osal_mem_free( pBuf );
        ; Setup parameters for call to function osal_mem_free
        MOV       R2,?V8
        MOV       R3,?V9
        LCALL     `??osal_mem_free::?relay`; Banked call to: osal_mem_free
// 1817   }
// 1818 #else
// 1819   (void)inMsg;
// 1820 #endif
// 1821 }
??ZDO_ProcessMgmtBindReq_8:
        MOV       A,#0x2
        LCALL     ?DEALLOC_XSTACK8
          CFI CFA_XSP16 add(XSP16, 20)
        MOV       R7,#0xc
        LJMP      ?BANKED_LEAVE_XDATA
          CFI EndBlock cfiBlock23
// 1822 
// 1823 /*********************************************************************
// 1824  * @fn          ZDO_ProcessMgmtDirectJoinReq
// 1825  *
// 1826  * @brief       This function finishes the processing of the Management
// 1827  *              Direct Join Request and generates the response.
// 1828  *
// 1829  * @param       inMsg - incoming message (request)
// 1830  *
// 1831  * @return      none
// 1832  */

        RSEG BANKED_CODE:HUGECODE:NOROOT(0)
// 1833 void ZDO_ProcessMgmtDirectJoinReq( zdoIncomingMsg_t *inMsg )
ZDO_ProcessMgmtDirectJoinReq:
          CFI Block cfiBlock24 Using cfiCommon0
          CFI Function ZDO_ProcessMgmtDirectJoinReq
        CODE
// 1834 {
        FUNCALL ZDO_ProcessMgmtDirectJoinReq, NLME_DirectJoinRequest
        LOCFRAME ISTACK, 0, STACK
        LOCFRAME PSTACK, 0, STACK
        LOCFRAME XSTACK, 15, STACK
        LOCFRAME IOVERLAY, 0, STATIC
        LOCFRAME DOVERLAY, 0, STATIC
        ARGFRAME ISTACK, 0, STACK
        ARGFRAME PSTACK, 0, STACK
        ARGFRAME XSTACK, 15, STACK
        ARGFRAME IOVERLAY, 0, STATIC
        ARGFRAME DOVERLAY, 0, STATIC
        FUNCALL ZDO_ProcessMgmtDirectJoinReq, ZDP_SendData
        LOCFRAME ISTACK, 0, STACK
        LOCFRAME PSTACK, 0, STACK
        LOCFRAME XSTACK, 20, STACK
        LOCFRAME IOVERLAY, 0, STATIC
        LOCFRAME DOVERLAY, 0, STATIC
        ARGFRAME ISTACK, 0, STACK
        ARGFRAME PSTACK, 0, STACK
        ARGFRAME XSTACK, 20, STACK
        ARGFRAME IOVERLAY, 0, STATIC
        ARGFRAME DOVERLAY, 0, STATIC
        REQUIRE ?V0
        REQUIRE ?V1
        REQUIRE ?V2
        REQUIRE ?V3
        REQUIRE ?V4
        REQUIRE ?V5
        MOV       A,#-0xe
        LCALL     ?BANKED_ENTER_XDATA
          CFI DPH0 load(1, XDATA, add(CFA_XSP16, literal(-1)))
          CFI DPL0 load(1, XDATA, add(CFA_XSP16, literal(-2)))
          CFI ?BRET_EXT load(1, XDATA, add(CFA_XSP16, literal(-3)))
          CFI ?RET_HIGH load(1, XDATA, add(CFA_XSP16, literal(-4)))
          CFI ?RET_LOW load(1, XDATA, add(CFA_XSP16, literal(-5)))
          CFI R7 load(1, XDATA, add(CFA_XSP16, literal(-6)))
          CFI V5 load(1, XDATA, add(CFA_XSP16, literal(-7)))
          CFI V4 load(1, XDATA, add(CFA_XSP16, literal(-8)))
          CFI V3 load(1, XDATA, add(CFA_XSP16, literal(-9)))
          CFI V2 load(1, XDATA, add(CFA_XSP16, literal(-10)))
          CFI V1 load(1, XDATA, add(CFA_XSP16, literal(-11)))
          CFI V0 load(1, XDATA, add(CFA_XSP16, literal(-12)))
          CFI VB load(1, XDATA, add(CFA_XSP16, literal(-13)))
          CFI R6 load(1, XDATA, add(CFA_XSP16, literal(-14)))
          CFI CFA_SP SP+0
          CFI CFA_XSP16 add(XSP16, 14)
        ; Saved register size: 14
        ; Auto size: 1
        MOV       A,#-0x1
        LCALL     ?ALLOC_XSTACK8
          CFI CFA_XSP16 add(XSP16, 15)
        MOV       A,R2
        MOV       R6,A
        MOV       A,R3
        MOV       R7,A
// 1835   uint8 *deviceAddr;
// 1836   uint8 capInfo;
// 1837   uint8 stat;
// 1838 
// 1839   // Parse the message
// 1840   deviceAddr = inMsg->asdu;
        MOV       A,R6
        ADD       A,#0x13
        MOV       DPL,A
        CLR       A
        ADDC      A,R7
        MOV       DPH,A
        MOVX      A,@DPTR
        MOV       R0,A
        INC       DPTR
        MOVX      A,@DPTR
        MOV       R1,A
        MOV       ?V0,R0
        MOV       ?V1,R1
// 1841   capInfo = inMsg->asdu[Z_EXTADDR_LEN];
        MOV       A,R6
        ADD       A,#0x13
        MOV       DPL,A
        CLR       A
        ADDC      A,R7
        MOV       DPH,A
        MOVX      A,@DPTR
        MOV       R0,A
        INC       DPTR
        MOVX      A,@DPTR
        XCH       A,R0
        ADD       A,#0x8
        MOV       DPL,A
        XCH       A,R0
        ADDC      A,#0x0
        MOV       DPH,A
        MOVX      A,@DPTR
        MOV       ?V2,A
// 1842 
// 1843   stat = (byte) NLME_DirectJoinRequest( deviceAddr, capInfo );
        ; Setup parameters for call to function NLME_DirectJoinRequest
        MOV       R1,?V2
        MOV       R2,?V0
        MOV       R3,?V1
        LCALL     `??NLME_DirectJoinRequest::?relay`; Banked call to: NLME_DirectJoinRequest
        MOV       A,R1
        PUSH      A
          CFI CFA_SP SP+-1
        MOV       DPL,?XSP + 0
        MOV       DPH,?XSP + 1
        POP       A
          CFI CFA_SP SP+0
        MOVX      @DPTR,A
// 1844 
// 1845   ZDP_MgmtDirectJoinRsp( inMsg->TransSeq, &(inMsg->srcAddr), stat, false );
        ; Setup parameters for call to function ZDP_SendData
        MOV       ?V3,#0x0
        MOV       R0,#?V3
        LCALL     ?PUSH_XSTACK_I_ONE
          CFI CFA_XSP16 add(XSP16, 16)
        MOV       A,#0x1
        LCALL     ?XSTACK_DISP100_8
        MOV       ?V4,R0
        MOV       ?V5,R1
        MOV       R0,#?V4
        LCALL     ?PUSH_XSTACK_I_TWO
          CFI CFA_XSP16 add(XSP16, 18)
        MOV       ?V4,#0x35
        MOV       ?V5,#-0x80
        MOV       R0,#?V4
        LCALL     ?PUSH_XSTACK_I_TWO
          CFI CFA_XSP16 add(XSP16, 20)
        MOV       R1,#0x1
        MOV       A,R6
        ADD       A,#0x2
        MOV       R4,A
        CLR       A
        ADDC      A,R7
        MOV       R5,A
        MOV       A,R6
        ADD       A,#0xf
        MOV       R2,A
        CLR       A
        ADDC      A,R7
        MOV       R3,A
        LCALL     `??ZDP_SendData::?relay`; Banked call to: ZDP_SendData
        MOV       A,#0x5
        LCALL     ?DEALLOC_XSTACK8
          CFI CFA_XSP16 add(XSP16, 15)
        MOV       A,R1
// 1846 }
        MOV       A,#0x1
        LCALL     ?DEALLOC_XSTACK8
          CFI CFA_XSP16 add(XSP16, 14)
        MOV       R7,#0x6
        LJMP      ?BANKED_LEAVE_XDATA
          CFI EndBlock cfiBlock24
// 1847 
// 1848 /*********************************************************************
// 1849  * @fn          ZDO_ProcessMgmtLeaveReq
// 1850  *
// 1851  * @brief       This function processes a Management Leave Request
// 1852  *              and generates the response.
// 1853  *
// 1854  * @param       inMsg - incoming message (request)
// 1855  *
// 1856  * @return      none
// 1857  */

        RSEG BANKED_CODE:HUGECODE:NOROOT(0)
// 1858 void ZDO_ProcessMgmtLeaveReq( zdoIncomingMsg_t *inMsg )
ZDO_ProcessMgmtLeaveReq:
          CFI Block cfiBlock25 Using cfiCommon0
          CFI Function ZDO_ProcessMgmtLeaveReq
        CODE
// 1859 {
        FUNCALL ZDO_ProcessMgmtLeaveReq, AddrMgrExtAddrValid
        LOCFRAME ISTACK, 0, STACK
        LOCFRAME PSTACK, 0, STACK
        LOCFRAME XSTACK, 20, STACK
        LOCFRAME IOVERLAY, 0, STATIC
        LOCFRAME DOVERLAY, 0, STATIC
        ARGFRAME ISTACK, 0, STACK
        ARGFRAME PSTACK, 0, STACK
        ARGFRAME XSTACK, 20, STACK
        ARGFRAME IOVERLAY, 0, STATIC
        ARGFRAME DOVERLAY, 0, STATIC
        FUNCALL ZDO_ProcessMgmtLeaveReq, NLME_GetExtAddr
        LOCFRAME ISTACK, 0, STACK
        LOCFRAME PSTACK, 0, STACK
        LOCFRAME XSTACK, 20, STACK
        LOCFRAME IOVERLAY, 0, STATIC
        LOCFRAME DOVERLAY, 0, STATIC
        ARGFRAME ISTACK, 0, STACK
        ARGFRAME PSTACK, 0, STACK
        ARGFRAME XSTACK, 20, STACK
        ARGFRAME IOVERLAY, 0, STATIC
        ARGFRAME DOVERLAY, 0, STATIC
        FUNCALL ZDO_ProcessMgmtLeaveReq, sAddrExtCmp
        LOCFRAME ISTACK, 0, STACK
        LOCFRAME PSTACK, 0, STACK
        LOCFRAME XSTACK, 20, STACK
        LOCFRAME IOVERLAY, 0, STATIC
        LOCFRAME DOVERLAY, 0, STATIC
        ARGFRAME ISTACK, 0, STACK
        ARGFRAME PSTACK, 0, STACK
        ARGFRAME XSTACK, 20, STACK
        ARGFRAME IOVERLAY, 0, STATIC
        ARGFRAME DOVERLAY, 0, STATIC
        FUNCALL ZDO_ProcessMgmtLeaveReq, ZDP_SendData
        LOCFRAME ISTACK, 0, STACK
        LOCFRAME PSTACK, 0, STACK
        LOCFRAME XSTACK, 25, STACK
        LOCFRAME IOVERLAY, 0, STATIC
        LOCFRAME DOVERLAY, 0, STATIC
        ARGFRAME ISTACK, 0, STACK
        ARGFRAME PSTACK, 0, STACK
        ARGFRAME XSTACK, 25, STACK
        ARGFRAME IOVERLAY, 0, STATIC
        ARGFRAME DOVERLAY, 0, STATIC
        FUNCALL ZDO_ProcessMgmtLeaveReq, NLME_SetPollRate
        LOCFRAME ISTACK, 0, STACK
        LOCFRAME PSTACK, 0, STACK
        LOCFRAME XSTACK, 20, STACK
        LOCFRAME IOVERLAY, 0, STATIC
        LOCFRAME DOVERLAY, 0, STATIC
        ARGFRAME ISTACK, 0, STACK
        ARGFRAME PSTACK, 0, STACK
        ARGFRAME XSTACK, 20, STACK
        ARGFRAME IOVERLAY, 0, STATIC
        ARGFRAME DOVERLAY, 0, STATIC
        FUNCALL ZDO_ProcessMgmtLeaveReq, NLME_SetResponseRate
        LOCFRAME ISTACK, 0, STACK
        LOCFRAME PSTACK, 0, STACK
        LOCFRAME XSTACK, 20, STACK
        LOCFRAME IOVERLAY, 0, STATIC
        LOCFRAME DOVERLAY, 0, STATIC
        ARGFRAME ISTACK, 0, STACK
        ARGFRAME PSTACK, 0, STACK
        ARGFRAME XSTACK, 20, STACK
        ARGFRAME IOVERLAY, 0, STATIC
        ARGFRAME DOVERLAY, 0, STATIC
        FUNCALL ZDO_ProcessMgmtLeaveReq, NLME_SetQueuedPollRate
        LOCFRAME ISTACK, 0, STACK
        LOCFRAME PSTACK, 0, STACK
        LOCFRAME XSTACK, 20, STACK
        LOCFRAME IOVERLAY, 0, STATIC
        LOCFRAME DOVERLAY, 0, STATIC
        ARGFRAME ISTACK, 0, STACK
        ARGFRAME PSTACK, 0, STACK
        ARGFRAME XSTACK, 20, STACK
        ARGFRAME IOVERLAY, 0, STATIC
        ARGFRAME DOVERLAY, 0, STATIC
        FUNCALL ZDO_ProcessMgmtLeaveReq, NLME_LeaveReq
        LOCFRAME ISTACK, 0, STACK
        LOCFRAME PSTACK, 0, STACK
        LOCFRAME XSTACK, 20, STACK
        LOCFRAME IOVERLAY, 0, STATIC
        LOCFRAME DOVERLAY, 0, STATIC
        ARGFRAME ISTACK, 0, STACK
        ARGFRAME PSTACK, 0, STACK
        ARGFRAME XSTACK, 20, STACK
        ARGFRAME IOVERLAY, 0, STATIC
        ARGFRAME DOVERLAY, 0, STATIC
        FUNCALL ZDO_ProcessMgmtLeaveReq, bdb_setFN
        LOCFRAME ISTACK, 0, STACK
        LOCFRAME PSTACK, 0, STACK
        LOCFRAME XSTACK, 20, STACK
        LOCFRAME IOVERLAY, 0, STATIC
        LOCFRAME DOVERLAY, 0, STATIC
        ARGFRAME ISTACK, 0, STACK
        ARGFRAME PSTACK, 0, STACK
        ARGFRAME XSTACK, 20, STACK
        ARGFRAME IOVERLAY, 0, STATIC
        ARGFRAME DOVERLAY, 0, STATIC
        REQUIRE ?V0
        REQUIRE ?V1
        REQUIRE ?V2
        REQUIRE ?V3
        REQUIRE ?V4
        REQUIRE ?V5
        MOV       A,#-0xe
        LCALL     ?BANKED_ENTER_XDATA
          CFI DPH0 load(1, XDATA, add(CFA_XSP16, literal(-1)))
          CFI DPL0 load(1, XDATA, add(CFA_XSP16, literal(-2)))
          CFI ?BRET_EXT load(1, XDATA, add(CFA_XSP16, literal(-3)))
          CFI ?RET_HIGH load(1, XDATA, add(CFA_XSP16, literal(-4)))
          CFI ?RET_LOW load(1, XDATA, add(CFA_XSP16, literal(-5)))
          CFI R7 load(1, XDATA, add(CFA_XSP16, literal(-6)))
          CFI V5 load(1, XDATA, add(CFA_XSP16, literal(-7)))
          CFI V4 load(1, XDATA, add(CFA_XSP16, literal(-8)))
          CFI V3 load(1, XDATA, add(CFA_XSP16, literal(-9)))
          CFI V2 load(1, XDATA, add(CFA_XSP16, literal(-10)))
          CFI V1 load(1, XDATA, add(CFA_XSP16, literal(-11)))
          CFI V0 load(1, XDATA, add(CFA_XSP16, literal(-12)))
          CFI VB load(1, XDATA, add(CFA_XSP16, literal(-13)))
          CFI R6 load(1, XDATA, add(CFA_XSP16, literal(-14)))
          CFI CFA_SP SP+0
          CFI CFA_XSP16 add(XSP16, 14)
        ; Saved register size: 14
        ; Auto size: 6
        MOV       A,#-0x6
        LCALL     ?ALLOC_XSTACK8
          CFI CFA_XSP16 add(XSP16, 20)
        MOV       ?V0,R2
        MOV       ?V1,R3
// 1860   NLME_LeaveReq_t req;
// 1861   ZStatus_t       status;
// 1862   uint8           option;
// 1863   uint8 *msg = inMsg->asdu;
        MOV       A,?V0
        ADD       A,#0x13
        MOV       DPL,A
        CLR       A
        ADDC      A,?V1
        MOV       DPH,A
        MOVX      A,@DPTR
        MOV       R6,A
        INC       DPTR
        MOVX      A,@DPTR
        MOV       R7,A
// 1864   
// 1865   if ( ( AddrMgrExtAddrValid( msg ) == FALSE                 ) ||
// 1866        ( osal_ExtAddrEqual( msg, NLME_GetExtAddr() ) == TRUE )    )
        ; Setup parameters for call to function AddrMgrExtAddrValid
        MOV       A,R6
        MOV       R2,A
        MOV       A,R7
        MOV       R3,A
        LCALL     `??AddrMgrExtAddrValid::?relay`; Banked call to: AddrMgrExtAddrValid
        MOV       A,R1
        JZ        ??ZDO_ProcessMgmtLeaveReq_0
        ; Setup parameters for call to function NLME_GetExtAddr
        LCALL     `??NLME_GetExtAddr::?relay`; Banked call to: NLME_GetExtAddr
        MOV       ?V4,R2
        MOV       ?V5,R3
        MOV       R4,?V4
        MOV       R5,?V5
        ; Setup parameters for call to function sAddrExtCmp
        MOV       A,R6
        MOV       R2,A
        MOV       A,R7
        MOV       R3,A
        LCALL     `??sAddrExtCmp::?relay`; Banked call to: sAddrExtCmp
        MOV       A,R1
        XRL       A,#0x1
        JNZ       ??ZDO_ProcessMgmtLeaveReq_1
// 1867   {
// 1868     if ( ( ZG_BUILD_COORDINATOR_TYPE ) && ( ZG_DEVICE_COORDINATOR_TYPE ) )
// 1869     {
// 1870       // Coordinator shall drop the leave request for itself
// 1871       // section 3.6.1.10.3.1 R21
// 1872       return;
// 1873     }
// 1874     else
// 1875     {
// 1876       // Remove this device
// 1877       req.extAddr = NULL;
??ZDO_ProcessMgmtLeaveReq_0:
        MOV       A,#0x1
        LCALL     ?XSTACK_DISP0_8
        MOV       A,#0x0
        MOVX      @DPTR,A
        INC       DPTR
        MOV       A,#0x0
        MOVX      @DPTR,A
        SJMP      ??ZDO_ProcessMgmtLeaveReq_2
// 1878     }
// 1879   }
// 1880   else
// 1881   {
// 1882     // Remove child device
// 1883     req.extAddr = msg;
??ZDO_ProcessMgmtLeaveReq_1:
        MOV       A,#0x1
        LCALL     ?XSTACK_DISP0_8
        MOV       A,R6
        MOVX      @DPTR,A
        INC       DPTR
        MOV       A,R7
        MOVX      @DPTR,A
// 1884   }
// 1885   if ( ( ZG_BUILD_ENDDEVICE_TYPE ) && ( ZG_DEVICE_ENDDEVICE_TYPE ) )
// 1886   {
// 1887     //Only the parent device can request to leave, otherwise silently discard the frame
// 1888     if(inMsg->srcAddr.addr.shortAddr != _NIB.nwkCoordAddress)
??ZDO_ProcessMgmtLeaveReq_2:
        MOV       DPL,?V0
        MOV       DPH,?V1
        INC       DPTR
        INC       DPTR
        MOVX      A,@DPTR
        MOV       R0,A
        INC       DPTR
        MOVX      A,@DPTR
        MOV       R1,A
        MOV       DPTR,#_NIB + 23
        MOVX      A,@DPTR
        XRL       A,R0
        JNZ       ??ZDO_ProcessMgmtLeaveReq_3
        INC       DPTR
        MOVX      A,@DPTR
        XRL       A,R1
??ZDO_ProcessMgmtLeaveReq_3:
        JZ        $+5
        LJMP      ??ZDO_ProcessMgmtLeaveReq_4 & 0xFFFF
// 1889     {
// 1890       return;
// 1891     }
// 1892   }
// 1893 
// 1894   option = msg[Z_EXTADDR_LEN];
        MOV       DPL,R6
        MOV       DPH,R7
        INC       DPTR
        INC       DPTR
        INC       DPTR
        INC       DPTR
        INC       DPTR
        INC       DPTR
        INC       DPTR
        INC       DPTR
        MOVX      A,@DPTR
        MOV       ?V2,A
// 1895   if ( option & ZDP_MGMT_LEAVE_REQ_RC )
        MOV       A,?V2
        MOV       C,0xE0 /* A   */.6
        JNC       ??ZDO_ProcessMgmtLeaveReq_5
// 1896   {
// 1897     req.removeChildren = TRUE;
        MOV       A,#0x3
        LCALL     ?XSTACK_DISP0_8
        MOV       A,#0x1
        MOVX      @DPTR,A
// 1898   }
// 1899 
// 1900   if ( option & ZDP_MGMT_LEAVE_REQ_REJOIN )
??ZDO_ProcessMgmtLeaveReq_5:
        MOV       A,?V2
        MOV       C,0xE0 /* A   */.7
        JNC       ??ZDO_ProcessMgmtLeaveReq_6
// 1901   {
// 1902      req.rejoin = TRUE;
        MOV       A,#0x4
        LCALL     ?XSTACK_DISP0_8
        MOV       A,#0x1
        MOVX      @DPTR,A
// 1903   }
// 1904 
// 1905   req.silent = FALSE;
??ZDO_ProcessMgmtLeaveReq_6:
        MOV       A,#0x5
        LCALL     ?XSTACK_DISP0_8
        MOV       A,#0x0
        MOVX      @DPTR,A
// 1906   
// 1907   //According to R21 spec sec2.4.3.3.5.2 Mgmt leave rsp must contain the status response from the nwk leave processing. 
// 1908   //Latest discussion in Zigbee indicates that mgmt leave rsp due to an OTA command must have status=success (9/12/16)
// 1909   status = ZSuccess;
        MOV       DPL,?XSP + 0
        MOV       DPH,?XSP + 1
        MOV       A,#0x0
        MOVX      @DPTR,A
// 1910   
// 1911   ZDP_MgmtLeaveRsp( inMsg->TransSeq, &(inMsg->srcAddr), status, FALSE );
        ; Setup parameters for call to function ZDP_SendData
        MOV       ?V3,#0x0
        MOV       R0,#?V3
        LCALL     ?PUSH_XSTACK_I_ONE
          CFI CFA_XSP16 add(XSP16, 21)
        MOV       A,#0x1
        LCALL     ?XSTACK_DISP100_8
        MOV       ?V4,R0
        MOV       ?V5,R1
        MOV       R0,#?V4
        LCALL     ?PUSH_XSTACK_I_TWO
          CFI CFA_XSP16 add(XSP16, 23)
        MOV       ?V4,#0x34
        MOV       ?V5,#-0x80
        MOV       R0,#?V4
        LCALL     ?PUSH_XSTACK_I_TWO
          CFI CFA_XSP16 add(XSP16, 25)
        MOV       R1,#0x1
        MOV       A,?V0
        ADD       A,#0x2
        MOV       R4,A
        CLR       A
        ADDC      A,?V1
        MOV       R5,A
        MOV       A,?V0
        ADD       A,#0xf
        MOV       R2,A
        CLR       A
        ADDC      A,?V1
        MOV       R3,A
        LCALL     `??ZDP_SendData::?relay`; Banked call to: ZDP_SendData
        MOV       A,#0x5
        LCALL     ?DEALLOC_XSTACK8
          CFI CFA_XSP16 add(XSP16, 20)
        MOV       A,R1
// 1912   
// 1913   if ( ZG_BUILD_ENDDEVICE_TYPE )
// 1914   {
// 1915     // Stop polling and get ready to reset
// 1916     NLME_SetPollRate( 0 );
        ; Setup parameters for call to function NLME_SetPollRate
        MOV       DPTR,#__Constant_0
        LCALL     ?XLOAD_R2345
        LCALL     `??NLME_SetPollRate::?relay`; Banked call to: NLME_SetPollRate
// 1917     NLME_SetResponseRate(0);
        ; Setup parameters for call to function NLME_SetResponseRate
        MOV       R2,#0x0
        MOV       R3,#0x0
        LCALL     `??NLME_SetResponseRate::?relay`; Banked call to: NLME_SetResponseRate
// 1918     NLME_SetQueuedPollRate(0);
        ; Setup parameters for call to function NLME_SetQueuedPollRate
        MOV       R2,#0x0
        MOV       R3,#0x0
        LCALL     `??NLME_SetQueuedPollRate::?relay`; Banked call to: NLME_SetQueuedPollRate
// 1919   }
// 1920   
// 1921   NLME_LeaveReq(&req);
        ; Setup parameters for call to function NLME_LeaveReq
        MOV       A,#0x1
        LCALL     ?XSTACK_DISP101_8
        LCALL     `??NLME_LeaveReq::?relay`; Banked call to: NLME_LeaveReq
        MOV       A,R1
// 1922   
// 1923   if (! (option & ZDP_MGMT_LEAVE_REQ_REJOIN) )
        MOV       A,?V2
        MOV       C,0xE0 /* A   */.7
        JC        ??ZDO_ProcessMgmtLeaveReq_4
// 1924   {
// 1925     if(req.extAddr == NULL)
        MOV       A,#0x1
        LCALL     ?XSTACK_DISP0_8
        MOVX      A,@DPTR
        MOV       R0,A
        INC       DPTR
        MOVX      A,@DPTR
        MOV       R1,A
        MOV       A,R0
        ORL       A,R1
        JNZ       ??ZDO_ProcessMgmtLeaveReq_4
// 1926     {
// 1927       bdb_setFN();
        ; Setup parameters for call to function bdb_setFN
        LCALL     `??bdb_setFN::?relay`; Banked call to: bdb_setFN
// 1928     }
// 1929   }
// 1930 }
??ZDO_ProcessMgmtLeaveReq_4:
        MOV       A,#0x6
        LCALL     ?DEALLOC_XSTACK8
          CFI CFA_XSP16 add(XSP16, 14)
        MOV       R7,#0x6
        LJMP      ?BANKED_LEAVE_XDATA
          CFI EndBlock cfiBlock25
// 1931 
// 1932 
// 1933 /*********************************************************************
// 1934  * @fn          ZDO_ProcessMgmtPermitJoinReq
// 1935  *
// 1936  * @brief       This function processes a Management Permit Join Request
// 1937  *              and generates the response.
// 1938  *
// 1939  * @param       inMsg - incoming message (request)
// 1940  *
// 1941  * @return      none
// 1942  */

        RSEG BANKED_CODE:HUGECODE:NOROOT(0)
// 1943 void ZDO_ProcessMgmtPermitJoinReq( zdoIncomingMsg_t *inMsg )
ZDO_ProcessMgmtPermitJoinReq:
          CFI Block cfiBlock26 Using cfiCommon0
          CFI Function ZDO_ProcessMgmtPermitJoinReq
        CODE
// 1944 {
        FUNCALL ZDO_ProcessMgmtPermitJoinReq, NLME_PermitJoiningRequest
        LOCFRAME ISTACK, 0, STACK
        LOCFRAME PSTACK, 0, STACK
        LOCFRAME XSTACK, 13, STACK
        LOCFRAME IOVERLAY, 0, STATIC
        LOCFRAME DOVERLAY, 0, STATIC
        ARGFRAME ISTACK, 0, STACK
        ARGFRAME PSTACK, 0, STACK
        ARGFRAME XSTACK, 13, STACK
        ARGFRAME IOVERLAY, 0, STATIC
        ARGFRAME DOVERLAY, 0, STATIC
        FUNCALL ZDO_ProcessMgmtPermitJoinReq, APSME_IsDistributedSecurity
        LOCFRAME ISTACK, 0, STACK
        LOCFRAME PSTACK, 0, STACK
        LOCFRAME XSTACK, 13, STACK
        LOCFRAME IOVERLAY, 0, STATIC
        LOCFRAME DOVERLAY, 0, STATIC
        ARGFRAME ISTACK, 0, STACK
        ARGFRAME PSTACK, 0, STACK
        ARGFRAME XSTACK, 13, STACK
        ARGFRAME IOVERLAY, 0, STATIC
        ARGFRAME DOVERLAY, 0, STATIC
        FUNCALL ZDO_ProcessMgmtPermitJoinReq, ZDSecMgrPermitJoining
        LOCFRAME ISTACK, 0, STACK
        LOCFRAME PSTACK, 0, STACK
        LOCFRAME XSTACK, 13, STACK
        LOCFRAME IOVERLAY, 0, STATIC
        LOCFRAME DOVERLAY, 0, STATIC
        ARGFRAME ISTACK, 0, STACK
        ARGFRAME PSTACK, 0, STACK
        ARGFRAME XSTACK, 13, STACK
        ARGFRAME IOVERLAY, 0, STATIC
        ARGFRAME DOVERLAY, 0, STATIC
        FUNCALL ZDO_ProcessMgmtPermitJoinReq, ZDP_SendData
        LOCFRAME ISTACK, 0, STACK
        LOCFRAME PSTACK, 0, STACK
        LOCFRAME XSTACK, 18, STACK
        LOCFRAME IOVERLAY, 0, STATIC
        LOCFRAME DOVERLAY, 0, STATIC
        ARGFRAME ISTACK, 0, STACK
        ARGFRAME PSTACK, 0, STACK
        ARGFRAME XSTACK, 18, STACK
        ARGFRAME IOVERLAY, 0, STATIC
        ARGFRAME DOVERLAY, 0, STATIC
        REQUIRE ?V0
        REQUIRE ?V1
        REQUIRE ?V2
        REQUIRE ?V3
        MOV       A,#-0xc
        LCALL     ?BANKED_ENTER_XDATA
          CFI DPH0 load(1, XDATA, add(CFA_XSP16, literal(-1)))
          CFI DPL0 load(1, XDATA, add(CFA_XSP16, literal(-2)))
          CFI ?BRET_EXT load(1, XDATA, add(CFA_XSP16, literal(-3)))
          CFI ?RET_HIGH load(1, XDATA, add(CFA_XSP16, literal(-4)))
          CFI ?RET_LOW load(1, XDATA, add(CFA_XSP16, literal(-5)))
          CFI R7 load(1, XDATA, add(CFA_XSP16, literal(-6)))
          CFI V3 load(1, XDATA, add(CFA_XSP16, literal(-7)))
          CFI V2 load(1, XDATA, add(CFA_XSP16, literal(-8)))
          CFI V1 load(1, XDATA, add(CFA_XSP16, literal(-9)))
          CFI V0 load(1, XDATA, add(CFA_XSP16, literal(-10)))
          CFI VB load(1, XDATA, add(CFA_XSP16, literal(-11)))
          CFI R6 load(1, XDATA, add(CFA_XSP16, literal(-12)))
          CFI CFA_SP SP+0
          CFI CFA_XSP16 add(XSP16, 12)
        ; Saved register size: 12
        ; Auto size: 1
        MOV       A,#-0x1
        LCALL     ?ALLOC_XSTACK8
          CFI CFA_XSP16 add(XSP16, 13)
        MOV       A,R2
        MOV       R6,A
        MOV       A,R3
        MOV       R7,A
// 1945   uint8 stat;
// 1946   uint8 duration;
// 1947 #if (ZG_BUILD_COORDINATOR_TYPE)
// 1948   if(ZG_DEVICE_COORDINATOR_TYPE)
// 1949   {
// 1950     //If zgAllowRemoteTCPolicyChange is set to FALSE, the request from other 
// 1951     //devices cannot affect the  Trust Center policies
// 1952     if((zgAllowRemoteTCPolicyChange == 0) && (inMsg->srcAddr.addr.shortAddr!= 0x0000))
// 1953     {
// 1954       return;
// 1955     }
// 1956   }
// 1957 #endif
// 1958   
// 1959   duration = inMsg->asdu[ZDP_MGMT_PERMIT_JOIN_REQ_DURATION];
        MOV       A,R6
        ADD       A,#0x13
        MOV       DPL,A
        CLR       A
        ADDC      A,R7
        MOV       DPH,A
        MOVX      A,@DPTR
        MOV       R0,A
        INC       DPTR
        MOVX      A,@DPTR
        MOV       DPH,A
        MOV       DPL,R0
        MOVX      A,@DPTR
        MOV       ?V0,A
// 1960   // Per R21 Spec this field is not longer relevant 2.4.3.3.7.2 (Mgmt_Permit_Joining_req Effect on Receipt)
// 1961   //tcsig    = inMsg->asdu[ZDP_MGMT_PERMIT_JOIN_REQ_TC_SIG];
// 1962 
// 1963   // Per R21 Spec this duration cannot last forever 2.4.3.3.7.2 (Mgmt_Permit_Joining_req Effect on Receipt)
// 1964   if(duration == 0xFF)
        MOV       A,#-0x1
        XRL       A,?V0
        JNZ       ??ZDO_ProcessMgmtPermitJoinReq_0
// 1965   {
// 1966     duration = 0xFE;
        MOV       ?V0,#-0x2
// 1967   }
// 1968   
// 1969   // Set the network layer permit join duration
// 1970   stat = (byte) NLME_PermitJoiningRequest( duration );
??ZDO_ProcessMgmtPermitJoinReq_0:
        ; Setup parameters for call to function NLME_PermitJoiningRequest
        MOV       R1,?V0
        LCALL     `??NLME_PermitJoiningRequest::?relay`; Banked call to: NLME_PermitJoiningRequest
        MOV       A,R1
        PUSH      A
          CFI CFA_SP SP+-1
        MOV       DPL,?XSP + 0
        MOV       DPH,?XSP + 1
        POP       A
          CFI CFA_SP SP+0
        MOVX      @DPTR,A
// 1971 
// 1972   //Handle the permit joining if running a distributed network
// 1973   if(APSME_IsDistributedSecurity())
        ; Setup parameters for call to function APSME_IsDistributedSecurity
        LCALL     `??APSME_IsDistributedSecurity::?relay`; Banked call to: APSME_IsDistributedSecurity
        MOV       A,R1
        JZ        ??ZDO_ProcessMgmtPermitJoinReq_1
// 1974   {
// 1975     ZDSecMgrPermitJoining( duration );
        ; Setup parameters for call to function ZDSecMgrPermitJoining
        MOV       R1,?V0
        LCALL     `??ZDSecMgrPermitJoining::?relay`; Banked call to: ZDSecMgrPermitJoining
        MOV       A,R1
// 1976   }
// 1977   
// 1978   // Handle the Trust Center Significance
// 1979   if ( ZG_SECURE_ENABLED && ZG_BUILD_COORDINATOR_TYPE && ZG_DEVICE_COORDINATOR_TYPE )
// 1980   {
// 1981     ZDSecMgrPermitJoining( duration );
// 1982   }
// 1983 
// 1984   // Send a response if unicast
// 1985   if ( !inMsg->wasBroadcast )
??ZDO_ProcessMgmtPermitJoinReq_1:
        MOV       A,R6
        ADD       A,#0xb
        MOV       DPL,A
        CLR       A
        ADDC      A,R7
        MOV       DPH,A
        MOVX      A,@DPTR
        JNZ       ??ZDO_ProcessMgmtPermitJoinReq_2
// 1986   {
// 1987     ZDP_MgmtPermitJoinRsp( inMsg->TransSeq, &(inMsg->srcAddr), stat, false );
        ; Setup parameters for call to function ZDP_SendData
        MOV       ?V1,#0x0
        MOV       R0,#?V1
        LCALL     ?PUSH_XSTACK_I_ONE
          CFI CFA_XSP16 add(XSP16, 14)
        MOV       A,#0x1
        LCALL     ?XSTACK_DISP100_8
        MOV       ?V2,R0
        MOV       ?V3,R1
        MOV       R0,#?V2
        LCALL     ?PUSH_XSTACK_I_TWO
          CFI CFA_XSP16 add(XSP16, 16)
        MOV       ?V2,#0x36
        MOV       ?V3,#-0x80
        MOV       R0,#?V2
        LCALL     ?PUSH_XSTACK_I_TWO
          CFI CFA_XSP16 add(XSP16, 18)
        MOV       R1,#0x1
        MOV       A,R6
        ADD       A,#0x2
        MOV       R4,A
        CLR       A
        ADDC      A,R7
        MOV       R5,A
        MOV       A,R6
        ADD       A,#0xf
        MOV       R2,A
        CLR       A
        ADDC      A,R7
        MOV       R3,A
        LCALL     `??ZDP_SendData::?relay`; Banked call to: ZDP_SendData
        MOV       A,#0x5
        LCALL     ?DEALLOC_XSTACK8
          CFI CFA_XSP16 add(XSP16, 13)
        MOV       A,R1
// 1988   }
// 1989 }
??ZDO_ProcessMgmtPermitJoinReq_2:
        MOV       A,#0x1
        LCALL     ?DEALLOC_XSTACK8
          CFI CFA_XSP16 add(XSP16, 12)
        MOV       R7,#0x4
        LJMP      ?BANKED_LEAVE_XDATA
          CFI EndBlock cfiBlock26
// 1990 
// 1991 /*
// 1992  * This function stub allows the next higher layer to be notified of
// 1993  * a permit joining timeout.
// 1994  */
// 1995 /*********************************************************************
// 1996  * @fn          ZDO_ProcessMgmtPermitJoinTimeout
// 1997  *
// 1998  * @brief       This function stub allows the next higher layer to be
// 1999  *              notified of a permit joining timeout. Currently, this
// 2000  *              directly bypasses the APS layer.
// 2001  *
// 2002  * @param       none
// 2003  *
// 2004  * @return      none
// 2005  */

        RSEG BANKED_CODE:HUGECODE:NOROOT(0)
// 2006 void ZDO_ProcessMgmtPermitJoinTimeout( void )
NLME_PermitJoiningTimeout:
          CFI Block cfiBlock27 Using cfiCommon0
          CFI Function NLME_PermitJoiningTimeout
        CODE
// 2007 {
        ; Saved register size: 0
        ; Auto size: 0
// 2008   #if defined( ZDO_MGMT_PERMIT_JOIN_RESPONSE )
// 2009   // Currently, only the ZDSecMgr needs to be notified
// 2010   if ( ZG_SECURE_ENABLED && ZG_BUILD_COORDINATOR_TYPE && ZG_DEVICE_COORDINATOR_TYPE )
// 2011   {
// 2012     ZDSecMgrPermitJoiningTimeout();
// 2013   }
// 2014   #endif
// 2015 }
        LJMP      ?BRET
          CFI EndBlock cfiBlock27
// 2016 
// 2017 /*********************************************************************
// 2018  * @fn          ZDO_ProcessUserDescReq
// 2019  *
// 2020  * @brief       This function finishes the processing of the User
// 2021  *              Descriptor Request and generates the response.
// 2022  *
// 2023  * @param       inMsg - incoming message (request)
// 2024  *
// 2025  * @return      none
// 2026  */

        RSEG BANKED_CODE:HUGECODE:NOROOT(0)
// 2027 void ZDO_ProcessUserDescReq( zdoIncomingMsg_t *inMsg )
ZDO_ProcessUserDescReq:
          CFI Block cfiBlock28 Using cfiCommon0
          CFI Function ZDO_ProcessUserDescReq
        CODE
// 2028 {
        FUNCALL ZDO_ProcessUserDescReq, osal_nv_read
        LOCFRAME ISTACK, 0, STACK
        LOCFRAME PSTACK, 0, STACK
        LOCFRAME XSTACK, 33, STACK
        LOCFRAME IOVERLAY, 0, STATIC
        LOCFRAME DOVERLAY, 0, STATIC
        ARGFRAME ISTACK, 0, STACK
        ARGFRAME PSTACK, 0, STACK
        ARGFRAME XSTACK, 33, STACK
        ARGFRAME IOVERLAY, 0, STATIC
        ARGFRAME DOVERLAY, 0, STATIC
        FUNCALL ZDO_ProcessUserDescReq, ZDP_UserDescRsp
        LOCFRAME ISTACK, 0, STACK
        LOCFRAME PSTACK, 0, STACK
        LOCFRAME XSTACK, 32, STACK
        LOCFRAME IOVERLAY, 0, STATIC
        LOCFRAME DOVERLAY, 0, STATIC
        ARGFRAME ISTACK, 0, STACK
        ARGFRAME PSTACK, 0, STACK
        ARGFRAME XSTACK, 32, STACK
        ARGFRAME IOVERLAY, 0, STATIC
        ARGFRAME DOVERLAY, 0, STATIC
        FUNCALL ZDO_ProcessUserDescReq, ZDP_GenericRsp
        LOCFRAME ISTACK, 0, STACK
        LOCFRAME PSTACK, 0, STACK
        LOCFRAME XSTACK, 33, STACK
        LOCFRAME IOVERLAY, 0, STATIC
        LOCFRAME DOVERLAY, 0, STATIC
        ARGFRAME ISTACK, 0, STACK
        ARGFRAME PSTACK, 0, STACK
        ARGFRAME XSTACK, 33, STACK
        ARGFRAME IOVERLAY, 0, STATIC
        ARGFRAME DOVERLAY, 0, STATIC
        REQUIRE ?V0
        REQUIRE ?V1
        REQUIRE ?V2
        REQUIRE ?V3
        MOV       A,#-0xc
        LCALL     ?BANKED_ENTER_XDATA
          CFI DPH0 load(1, XDATA, add(CFA_XSP16, literal(-1)))
          CFI DPL0 load(1, XDATA, add(CFA_XSP16, literal(-2)))
          CFI ?BRET_EXT load(1, XDATA, add(CFA_XSP16, literal(-3)))
          CFI ?RET_HIGH load(1, XDATA, add(CFA_XSP16, literal(-4)))
          CFI ?RET_LOW load(1, XDATA, add(CFA_XSP16, literal(-5)))
          CFI R7 load(1, XDATA, add(CFA_XSP16, literal(-6)))
          CFI V3 load(1, XDATA, add(CFA_XSP16, literal(-7)))
          CFI V2 load(1, XDATA, add(CFA_XSP16, literal(-8)))
          CFI V1 load(1, XDATA, add(CFA_XSP16, literal(-9)))
          CFI V0 load(1, XDATA, add(CFA_XSP16, literal(-10)))
          CFI VB load(1, XDATA, add(CFA_XSP16, literal(-11)))
          CFI R6 load(1, XDATA, add(CFA_XSP16, literal(-12)))
          CFI CFA_SP SP+0
          CFI CFA_XSP16 add(XSP16, 12)
        ; Saved register size: 12
        ; Auto size: 17
        MOV       A,#-0x11
        LCALL     ?ALLOC_XSTACK8
          CFI CFA_XSP16 add(XSP16, 29)
        MOV       A,R2
        MOV       R6,A
        MOV       A,R3
        MOV       R7,A
// 2029   uint16 aoi = BUILD_UINT16( inMsg->asdu[0], inMsg->asdu[1] );
        MOV       A,R6
        ADD       A,#0x13
        MOV       DPL,A
        CLR       A
        ADDC      A,R7
        MOV       DPH,A
        MOVX      A,@DPTR
        MOV       R0,A
        INC       DPTR
        MOVX      A,@DPTR
        MOV       DPH,A
        MOV       DPL,R0
        MOVX      A,@DPTR
        MOV       R2,A
        MOV       R3,#0x0
        MOV       A,R6
        ADD       A,#0x13
        MOV       DPL,A
        CLR       A
        ADDC      A,R7
        MOV       DPH,A
        MOVX      A,@DPTR
        MOV       R0,A
        INC       DPTR
        MOVX      A,@DPTR
        MOV       DPH,A
        MOV       DPL,R0
        INC       DPTR
        MOVX      A,@DPTR
        MOV       R0,A
        MOV       R1,#0x0
        CLR       A
        XCH       A,R0
        MOV       R1,A
        MOV       A,R2
        ADD       A,R0
        MOV       ?V0,A
        MOV       A,R3
        ADDC      A,R1
        MOV       ?V1,A
// 2030   UserDescriptorFormat_t userDesc;
// 2031 
// 2032   if ( (aoi == ZDAppNwkAddr.addr.shortAddr) && (ZSUCCESS == osal_nv_read(
// 2033              ZCD_NV_USERDESC, 0, sizeof(UserDescriptorFormat_t), &userDesc )) )
        MOV       DPTR,#ZDAppNwkAddr
        MOVX      A,@DPTR
        XRL       A,?V0
        JNZ       ??ZDO_ProcessUserDescReq_0
        INC       DPTR
        MOVX      A,@DPTR
        XRL       A,?V1
??ZDO_ProcessUserDescReq_0:
        JNZ       ??ZDO_ProcessUserDescReq_1
        ; Setup parameters for call to function osal_nv_read
        MOV       R0,?XSP + 0
        MOV       R1,?XSP + 1
        MOV       ?V2,R0
        MOV       ?V3,R1
        MOV       R0,#?V2
        LCALL     ?PUSH_XSTACK_I_TWO
          CFI CFA_XSP16 add(XSP16, 31)
        MOV       ?V2,#0x11
        MOV       ?V3,#0x0
        MOV       R0,#?V2
        LCALL     ?PUSH_XSTACK_I_TWO
          CFI CFA_XSP16 add(XSP16, 33)
        MOV       R4,#0x0
        MOV       R5,#0x0
        MOV       R2,#-0x7f
        MOV       R3,#0x0
        LCALL     `??osal_nv_read::?relay`; Banked call to: osal_nv_read
        MOV       A,#0x4
        LCALL     ?DEALLOC_XSTACK8
          CFI CFA_XSP16 add(XSP16, 29)
        MOV       A,R1
        JNZ       ??ZDO_ProcessUserDescReq_1
// 2034   {
// 2035     ZDP_UserDescRsp( inMsg->TransSeq, &(inMsg->srcAddr), aoi, &userDesc, false );
        ; Setup parameters for call to function ZDP_UserDescRsp
        MOV       ?V2,#0x0
        MOV       R0,#?V2
        LCALL     ?PUSH_XSTACK_I_ONE
          CFI CFA_XSP16 add(XSP16, 30)
        MOV       A,#0x1
        LCALL     ?XSTACK_DISP100_8
        MOV       ?V2,R0
        MOV       ?V3,R1
        MOV       R0,#?V2
        LCALL     ?PUSH_XSTACK_I_TWO
          CFI CFA_XSP16 add(XSP16, 32)
        MOV       R4,?V0
        MOV       R5,?V1
        MOV       A,R6
        ADD       A,#0x2
        MOV       R2,A
        CLR       A
        ADDC      A,R7
        MOV       R3,A
        MOV       A,R6
        ADD       A,#0xf
        MOV       DPL,A
        CLR       A
        ADDC      A,R7
        MOV       DPH,A
        MOVX      A,@DPTR
        MOV       R1,A
        LCALL     `??ZDP_UserDescRsp::?relay`; Banked call to: ZDP_UserDescRsp
        MOV       A,#0x3
        LCALL     ?DEALLOC_XSTACK8
          CFI CFA_XSP16 add(XSP16, 29)
        MOV       A,R1
        SJMP      ??ZDO_ProcessUserDescReq_2
// 2036   }
// 2037   else
// 2038   {
// 2039     ZDP_GenericRsp(inMsg->TransSeq, &(inMsg->srcAddr),
// 2040            ZDP_NOT_SUPPORTED, aoi, User_Desc_rsp, inMsg->SecurityUse );
??ZDO_ProcessUserDescReq_1:
        ; Setup parameters for call to function ZDP_GenericRsp
        MOV       ?V2,#0x11
        MOV       ?V3,#-0x80
        MOV       R0,#?V2
        LCALL     ?PUSH_XSTACK_I_TWO
          CFI CFA_XSP16 add(XSP16, 31)
        MOV       R0,#?V0
        LCALL     ?PUSH_XSTACK_I_TWO
          CFI CFA_XSP16 add(XSP16, 33)
        MOV       A,R6
        ADD       A,#0xe
        MOV       DPL,A
        CLR       A
        ADDC      A,R7
        MOV       DPH,A
        MOVX      A,@DPTR
        MOV       R5,A
        MOV       R4,#-0x7c
        MOV       A,R6
        ADD       A,#0x2
        MOV       R2,A
        CLR       A
        ADDC      A,R7
        MOV       R3,A
        MOV       A,R6
        ADD       A,#0xf
        MOV       DPL,A
        CLR       A
        ADDC      A,R7
        MOV       DPH,A
        MOVX      A,@DPTR
        MOV       R1,A
        LCALL     `??ZDP_GenericRsp::?relay`; Banked call to: ZDP_GenericRsp
        MOV       A,#0x4
        LCALL     ?DEALLOC_XSTACK8
          CFI CFA_XSP16 add(XSP16, 29)
        MOV       A,R1
// 2041   }
// 2042 }
??ZDO_ProcessUserDescReq_2:
        MOV       A,#0x11
        LCALL     ?DEALLOC_XSTACK8
          CFI CFA_XSP16 add(XSP16, 12)
        MOV       R7,#0x4
        LJMP      ?BANKED_LEAVE_XDATA
          CFI EndBlock cfiBlock28
// 2043 
// 2044 /*********************************************************************
// 2045  * @fn          ZDO_ProcessUserDescSet
// 2046  *
// 2047  * @brief       This function finishes the processing of the User
// 2048  *              Descriptor Set and generates the response.
// 2049  *
// 2050  * @param       inMsg - incoming message (request)
// 2051  *
// 2052  * @return      none
// 2053  */

        RSEG BANKED_CODE:HUGECODE:NOROOT(0)
// 2054 void ZDO_ProcessUserDescSet( zdoIncomingMsg_t *inMsg )
ZDO_ProcessUserDescSet:
          CFI Block cfiBlock29 Using cfiCommon0
          CFI Function ZDO_ProcessUserDescSet
        CODE
// 2055 {
        FUNCALL ZDO_ProcessUserDescSet, osal_memcpy
        LOCFRAME ISTACK, 0, STACK
        LOCFRAME PSTACK, 0, STACK
        LOCFRAME XSTACK, 42, STACK
        LOCFRAME IOVERLAY, 0, STATIC
        LOCFRAME DOVERLAY, 0, STATIC
        ARGFRAME ISTACK, 0, STACK
        ARGFRAME PSTACK, 0, STACK
        ARGFRAME XSTACK, 42, STACK
        ARGFRAME IOVERLAY, 0, STATIC
        ARGFRAME DOVERLAY, 0, STATIC
        FUNCALL ZDO_ProcessUserDescSet, osal_nv_write
        LOCFRAME ISTACK, 0, STACK
        LOCFRAME PSTACK, 0, STACK
        LOCFRAME XSTACK, 43, STACK
        LOCFRAME IOVERLAY, 0, STATIC
        LOCFRAME DOVERLAY, 0, STATIC
        ARGFRAME ISTACK, 0, STACK
        ARGFRAME PSTACK, 0, STACK
        ARGFRAME XSTACK, 43, STACK
        ARGFRAME IOVERLAY, 0, STATIC
        ARGFRAME DOVERLAY, 0, STATIC
        FUNCALL ZDO_ProcessUserDescSet, ZDP_SendData
        LOCFRAME ISTACK, 0, STACK
        LOCFRAME PSTACK, 0, STACK
        LOCFRAME XSTACK, 44, STACK
        LOCFRAME IOVERLAY, 0, STATIC
        LOCFRAME DOVERLAY, 0, STATIC
        ARGFRAME ISTACK, 0, STACK
        ARGFRAME PSTACK, 0, STACK
        ARGFRAME XSTACK, 44, STACK
        ARGFRAME IOVERLAY, 0, STATIC
        ARGFRAME DOVERLAY, 0, STATIC
        REQUIRE ?V0
        REQUIRE ?V1
        REQUIRE ?V2
        REQUIRE ?V3
        REQUIRE ?V4
        REQUIRE ?V5
        REQUIRE ?V6
        REQUIRE ?V8
        REQUIRE ?V9
        MOV       A,#-0x12
        LCALL     ?BANKED_ENTER_XDATA
          CFI DPH0 load(1, XDATA, add(CFA_XSP16, literal(-1)))
          CFI DPL0 load(1, XDATA, add(CFA_XSP16, literal(-2)))
          CFI ?BRET_EXT load(1, XDATA, add(CFA_XSP16, literal(-3)))
          CFI ?RET_HIGH load(1, XDATA, add(CFA_XSP16, literal(-4)))
          CFI ?RET_LOW load(1, XDATA, add(CFA_XSP16, literal(-5)))
          CFI R7 load(1, XDATA, add(CFA_XSP16, literal(-6)))
          CFI V9 load(1, XDATA, add(CFA_XSP16, literal(-7)))
          CFI V8 load(1, XDATA, add(CFA_XSP16, literal(-8)))
          CFI V7 load(1, XDATA, add(CFA_XSP16, literal(-9)))
          CFI V6 load(1, XDATA, add(CFA_XSP16, literal(-10)))
          CFI V5 load(1, XDATA, add(CFA_XSP16, literal(-11)))
          CFI V4 load(1, XDATA, add(CFA_XSP16, literal(-12)))
          CFI V3 load(1, XDATA, add(CFA_XSP16, literal(-13)))
          CFI V2 load(1, XDATA, add(CFA_XSP16, literal(-14)))
          CFI V1 load(1, XDATA, add(CFA_XSP16, literal(-15)))
          CFI V0 load(1, XDATA, add(CFA_XSP16, literal(-16)))
          CFI VB load(1, XDATA, add(CFA_XSP16, literal(-17)))
          CFI R6 load(1, XDATA, add(CFA_XSP16, literal(-18)))
          CFI CFA_SP SP+0
          CFI CFA_XSP16 add(XSP16, 18)
        ; Saved register size: 18
        ; Auto size: 21
        MOV       A,#-0x15
        LCALL     ?ALLOC_XSTACK8
          CFI CFA_XSP16 add(XSP16, 39)
        MOV       ?V8,R2
        MOV       ?V9,R3
// 2056   uint8 *msg;
// 2057   uint16 aoi;
// 2058   UserDescriptorFormat_t userDesc;
// 2059   uint8 outMsg[3];
// 2060   uint8 status;
// 2061 
// 2062   msg = inMsg->asdu;
        MOV       A,?V8
        ADD       A,#0x13
        MOV       DPL,A
        CLR       A
        ADDC      A,?V9
        MOV       DPH,A
        MOVX      A,@DPTR
        MOV       R0,A
        INC       DPTR
        MOVX      A,@DPTR
        MOV       R1,A
        MOV       ?V0,R0
        MOV       ?V1,R1
// 2063   aoi = BUILD_UINT16( msg[0], msg[1] );
        MOV       DPL,?V0
        MOV       DPH,?V1
        MOVX      A,@DPTR
        MOV       R2,A
        MOV       R3,#0x0
        MOV       DPL,?V0
        MOV       DPH,?V1
        INC       DPTR
        MOVX      A,@DPTR
        MOV       R0,A
        MOV       R1,#0x0
        CLR       A
        XCH       A,R0
        MOV       R1,A
        MOV       A,R2
        ADD       A,R0
        MOV       R0,A
        MOV       A,R3
        ADDC      A,R1
        MOV       R1,A
        MOV       A,R0
        MOV       R6,A
        MOV       A,R1
        MOV       R7,A
// 2064 
// 2065   if ( aoi == ZDAppNwkAddr.addr.shortAddr )
        MOV       DPTR,#ZDAppNwkAddr
        MOVX      A,@DPTR
        XRL       A,R6
        JNZ       ??ZDO_ProcessUserDescSet_0
        INC       DPTR
        MOVX      A,@DPTR
        XRL       A,R7
??ZDO_ProcessUserDescSet_0:
        JZ        $+5
        LJMP      ??ZDO_ProcessUserDescSet_1 & 0xFFFF
// 2066   {
// 2067     userDesc.len = (msg[2] < AF_MAX_USER_DESCRIPTOR_LEN) ? msg[2] : AF_MAX_USER_DESCRIPTOR_LEN;
        MOV       DPL,?V0
        MOV       DPH,?V1
        INC       DPTR
        INC       DPTR
        MOVX      A,@DPTR
        CLR       C
        SUBB      A,#0x10
        JNC       ??ZDO_ProcessUserDescSet_2
        MOV       DPL,?V0
        MOV       DPH,?V1
        INC       DPTR
        INC       DPTR
        MOVX      A,@DPTR
        PUSH      A
          CFI CFA_SP SP+-1
        MOV       DPL,?XSP + 0
        MOV       DPH,?XSP + 1
        POP       A
          CFI CFA_SP SP+0
        MOVX      @DPTR,A
        SJMP      ??ZDO_ProcessUserDescSet_3
??ZDO_ProcessUserDescSet_2:
        MOV       DPL,?XSP + 0
        MOV       DPH,?XSP + 1
        MOV       A,#0x10
        MOVX      @DPTR,A
??ZDO_ProcessUserDescSet_3:
        MOV       DPL,?XSP + 0
        MOV       DPH,?XSP + 1
        MOVX      A,@DPTR
        PUSH      A
          CFI CFA_SP SP+-1
        MOV       A,#0x4
        LCALL     ?XSTACK_DISP0_8
        POP       A
          CFI CFA_SP SP+0
        MOVX      @DPTR,A
// 2068     msg ++;  // increment one for the length field
        MOV       DPL,?V0
        MOV       DPH,?V1
        INC       DPTR
        MOV       ?V0,DPL
        MOV       ?V1,DPH
// 2069 
// 2070     osal_memcpy( userDesc.desc, &msg[2], userDesc.len );
        ; Setup parameters for call to function osal_memcpy
        MOV       DPL,?V0
        MOV       DPH,?V1
        INC       DPTR
        INC       DPTR
        MOV       R1,DPL
        MOV       R2,DPH
        MOV       R3,#0x0
        MOV       ?V4,R1
        MOV       ?V5,R2
        MOV       ?V6,R3
        MOV       R0,#?V4
        LCALL     ?PUSH_XSTACK_I_THREE
          CFI CFA_XSP16 add(XSP16, 42)
        MOV       A,#0x7
        LCALL     ?XSTACK_DISP0_8
        MOVX      A,@DPTR
        MOV       R4,A
        MOV       R5,#0x0
        MOV       A,#0x8
        LCALL     ?XSTACK_DISP0_8
        MOV       R2,DPL
        MOV       R3,DPH
        LCALL     `??osal_memcpy::?relay`; Banked call to: osal_memcpy
        MOV       A,#0x3
        LCALL     ?DEALLOC_XSTACK8
          CFI CFA_XSP16 add(XSP16, 39)
// 2071     osal_nv_write( ZCD_NV_USERDESC, 0, sizeof(UserDescriptorFormat_t), &userDesc );
        ; Setup parameters for call to function osal_nv_write
        MOV       A,#0x4
        LCALL     ?XSTACK_DISP100_8
        MOV       ?V4,R0
        MOV       ?V5,R1
        MOV       R0,#?V4
        LCALL     ?PUSH_XSTACK_I_TWO
          CFI CFA_XSP16 add(XSP16, 41)
        MOV       ?V4,#0x11
        MOV       ?V5,#0x0
        MOV       R0,#?V4
        LCALL     ?PUSH_XSTACK_I_TWO
          CFI CFA_XSP16 add(XSP16, 43)
        MOV       R4,#0x0
        MOV       R5,#0x0
        MOV       R2,#-0x7f
        MOV       R3,#0x0
        LCALL     `??osal_nv_write::?relay`; Banked call to: osal_nv_write
        MOV       A,#0x4
        LCALL     ?DEALLOC_XSTACK8
          CFI CFA_XSP16 add(XSP16, 39)
        MOV       A,R1
// 2072     if ( userDesc.len != 0 )
        MOV       A,#0x4
        LCALL     ?XSTACK_DISP0_8
        MOVX      A,@DPTR
        JZ        ??ZDO_ProcessUserDescSet_4
// 2073     {
// 2074       ZDO_Config_Node_Descriptor.UserDescAvail = TRUE;
        MOV       DPTR,#ZDO_Config_Node_Descriptor
        MOVX      A,@DPTR
        SETB      0xE0 /* A   */.4
        MOVX      @DPTR,A
        SJMP      ??ZDO_ProcessUserDescSet_5
// 2075     }
// 2076     else
// 2077     {
// 2078       ZDO_Config_Node_Descriptor.UserDescAvail = FALSE;
??ZDO_ProcessUserDescSet_4:
        MOV       DPTR,#ZDO_Config_Node_Descriptor
        MOVX      A,@DPTR
        CLR       0xE0 /* A   */.4
        MOVX      @DPTR,A
// 2079     }
// 2080 
// 2081     status = ZDP_SUCCESS;
??ZDO_ProcessUserDescSet_5:
        MOV       ?V2,#0x0
        SJMP      ??ZDO_ProcessUserDescSet_6
// 2082   }
// 2083   else
// 2084   {
// 2085     status =  ZDP_NOT_SUPPORTED;
??ZDO_ProcessUserDescSet_1:
        MOV       ?V2,#-0x7c
// 2086   }
// 2087 
// 2088   outMsg[0] = status;
??ZDO_ProcessUserDescSet_6:
        MOV       A,?V2
        PUSH      A
          CFI CFA_SP SP+-1
        MOV       A,#0x1
        LCALL     ?XSTACK_DISP0_8
        POP       A
          CFI CFA_SP SP+0
        MOVX      @DPTR,A
// 2089   outMsg[1] = LO_UINT16( aoi );
        MOV       A,R6
        PUSH      A
          CFI CFA_SP SP+-1
        MOV       A,#0x2
        LCALL     ?XSTACK_DISP0_8
        POP       A
          CFI CFA_SP SP+0
        MOVX      @DPTR,A
// 2090   outMsg[2] = LO_UINT16( aoi );
        MOV       A,R6
        PUSH      A
          CFI CFA_SP SP+-1
        MOV       A,#0x3
        LCALL     ?XSTACK_DISP0_8
        POP       A
          CFI CFA_SP SP+0
        MOVX      @DPTR,A
// 2091 
// 2092   ZDP_SendData( &(inMsg->TransSeq), &(inMsg->srcAddr), User_Desc_conf, 3, outMsg,
// 2093                inMsg->SecurityUse );
        ; Setup parameters for call to function ZDP_SendData
        MOV       A,?V8
        ADD       A,#0xe
        MOV       DPL,A
        CLR       A
        ADDC      A,?V9
        MOV       DPH,A
        MOVX      A,@DPTR
        MOV       ?V3,A
        MOV       R0,#?V3
        LCALL     ?PUSH_XSTACK_I_ONE
          CFI CFA_XSP16 add(XSP16, 40)
        MOV       A,#0x2
        LCALL     ?XSTACK_DISP100_8
        MOV       ?V4,R0
        MOV       ?V5,R1
        MOV       R0,#?V4
        LCALL     ?PUSH_XSTACK_I_TWO
          CFI CFA_XSP16 add(XSP16, 42)
        MOV       ?V4,#0x14
        MOV       ?V5,#-0x80
        MOV       R0,#?V4
        LCALL     ?PUSH_XSTACK_I_TWO
          CFI CFA_XSP16 add(XSP16, 44)
        MOV       R1,#0x3
        MOV       A,?V8
        ADD       A,#0x2
        MOV       R4,A
        CLR       A
        ADDC      A,?V9
        MOV       R5,A
        MOV       A,?V8
        ADD       A,#0xf
        MOV       R2,A
        CLR       A
        ADDC      A,?V9
        MOV       R3,A
        LCALL     `??ZDP_SendData::?relay`; Banked call to: ZDP_SendData
        MOV       A,#0x5
        LCALL     ?DEALLOC_XSTACK8
          CFI CFA_XSP16 add(XSP16, 39)
        MOV       A,R1
// 2094 }
        MOV       A,#0x15
        LCALL     ?DEALLOC_XSTACK8
          CFI CFA_XSP16 add(XSP16, 18)
        MOV       R7,#0xa
        LJMP      ?BANKED_LEAVE_XDATA
          CFI EndBlock cfiBlock29
// 2095 
// 2096 /*********************************************************************
// 2097  * @fn          ZDO_ProcessDeviceAnnce
// 2098  *
// 2099  * @brief       This function processes a device annouce message.
// 2100  *
// 2101  * @param       inMsg - incoming message
// 2102  *
// 2103  * @return      none
// 2104  */

        RSEG BANKED_CODE:HUGECODE:NOROOT(0)
// 2105 void ZDO_ProcessDeviceAnnce( zdoIncomingMsg_t *inMsg )
ZDO_ProcessDeviceAnnce:
          CFI Block cfiBlock30 Using cfiCommon0
          CFI Function ZDO_ProcessDeviceAnnce
        CODE
// 2106 {
        FUNCALL ZDO_ProcessDeviceAnnce, ZDO_ParseDeviceAnnce
        LOCFRAME ISTACK, 0, STACK
        LOCFRAME PSTACK, 0, STACK
        LOCFRAME XSTACK, 42, STACK
        LOCFRAME IOVERLAY, 0, STATIC
        LOCFRAME DOVERLAY, 0, STATIC
        ARGFRAME ISTACK, 0, STACK
        ARGFRAME PSTACK, 0, STACK
        ARGFRAME XSTACK, 42, STACK
        ARGFRAME IOVERLAY, 0, STATIC
        ARGFRAME DOVERLAY, 0, STATIC
        FUNCALL ZDO_ProcessDeviceAnnce, NLME_GetExtAddr
        LOCFRAME ISTACK, 0, STACK
        LOCFRAME PSTACK, 0, STACK
        LOCFRAME XSTACK, 42, STACK
        LOCFRAME IOVERLAY, 0, STATIC
        LOCFRAME DOVERLAY, 0, STATIC
        ARGFRAME ISTACK, 0, STACK
        ARGFRAME PSTACK, 0, STACK
        ARGFRAME XSTACK, 42, STACK
        ARGFRAME IOVERLAY, 0, STATIC
        ARGFRAME DOVERLAY, 0, STATIC
        FUNCALL ZDO_ProcessDeviceAnnce, sAddrExtCmp
        LOCFRAME ISTACK, 0, STACK
        LOCFRAME PSTACK, 0, STACK
        LOCFRAME XSTACK, 42, STACK
        LOCFRAME IOVERLAY, 0, STATIC
        LOCFRAME DOVERLAY, 0, STATIC
        ARGFRAME ISTACK, 0, STACK
        ARGFRAME PSTACK, 0, STACK
        ARGFRAME XSTACK, 42, STACK
        ARGFRAME IOVERLAY, 0, STATIC
        ARGFRAME DOVERLAY, 0, STATIC
        FUNCALL ZDO_ProcessDeviceAnnce, NLME_GetShortAddr
        LOCFRAME ISTACK, 0, STACK
        LOCFRAME PSTACK, 0, STACK
        LOCFRAME XSTACK, 42, STACK
        LOCFRAME IOVERLAY, 0, STATIC
        LOCFRAME DOVERLAY, 0, STATIC
        ARGFRAME ISTACK, 0, STACK
        ARGFRAME PSTACK, 0, STACK
        ARGFRAME XSTACK, 42, STACK
        ARGFRAME IOVERLAY, 0, STATIC
        ARGFRAME DOVERLAY, 0, STATIC
        FUNCALL ZDO_ProcessDeviceAnnce, nwkNeighborRemoveAllStranded
        LOCFRAME ISTACK, 0, STACK
        LOCFRAME PSTACK, 0, STACK
        LOCFRAME XSTACK, 42, STACK
        LOCFRAME IOVERLAY, 0, STATIC
        LOCFRAME DOVERLAY, 0, STATIC
        ARGFRAME ISTACK, 0, STACK
        ARGFRAME PSTACK, 0, STACK
        ARGFRAME XSTACK, 42, STACK
        ARGFRAME IOVERLAY, 0, STATIC
        ARGFRAME DOVERLAY, 0, STATIC
        FUNCALL ZDO_ProcessDeviceAnnce, NLME_CheckNewAddrSet
        LOCFRAME ISTACK, 0, STACK
        LOCFRAME PSTACK, 0, STACK
        LOCFRAME XSTACK, 42, STACK
        LOCFRAME IOVERLAY, 0, STATIC
        LOCFRAME DOVERLAY, 0, STATIC
        ARGFRAME ISTACK, 0, STACK
        ARGFRAME PSTACK, 0, STACK
        ARGFRAME XSTACK, 42, STACK
        ARGFRAME IOVERLAY, 0, STATIC
        ARGFRAME DOVERLAY, 0, STATIC
        FUNCALL ZDO_ProcessDeviceAnnce, NLME_GetCoordExtAddr
        LOCFRAME ISTACK, 0, STACK
        LOCFRAME PSTACK, 0, STACK
        LOCFRAME XSTACK, 42, STACK
        LOCFRAME IOVERLAY, 0, STATIC
        LOCFRAME DOVERLAY, 0, STATIC
        ARGFRAME ISTACK, 0, STACK
        ARGFRAME PSTACK, 0, STACK
        ARGFRAME XSTACK, 42, STACK
        ARGFRAME IOVERLAY, 0, STATIC
        ARGFRAME DOVERLAY, 0, STATIC
        FUNCALL ZDO_ProcessDeviceAnnce, sAddrExtCmp
        LOCFRAME ISTACK, 0, STACK
        LOCFRAME PSTACK, 0, STACK
        LOCFRAME XSTACK, 42, STACK
        LOCFRAME IOVERLAY, 0, STATIC
        LOCFRAME DOVERLAY, 0, STATIC
        ARGFRAME ISTACK, 0, STACK
        ARGFRAME PSTACK, 0, STACK
        ARGFRAME XSTACK, 42, STACK
        ARGFRAME IOVERLAY, 0, STATIC
        ARGFRAME DOVERLAY, 0, STATIC
        FUNCALL ZDO_ProcessDeviceAnnce, NLME_GetCoordShortAddr
        LOCFRAME ISTACK, 0, STACK
        LOCFRAME PSTACK, 0, STACK
        LOCFRAME XSTACK, 42, STACK
        LOCFRAME IOVERLAY, 0, STATIC
        LOCFRAME DOVERLAY, 0, STATIC
        ARGFRAME ISTACK, 0, STACK
        ARGFRAME PSTACK, 0, STACK
        ARGFRAME XSTACK, 42, STACK
        ARGFRAME IOVERLAY, 0, STATIC
        ARGFRAME DOVERLAY, 0, STATIC
        FUNCALL ZDO_ProcessDeviceAnnce, ZMacSetReq
        LOCFRAME ISTACK, 0, STACK
        LOCFRAME PSTACK, 0, STACK
        LOCFRAME XSTACK, 42, STACK
        LOCFRAME IOVERLAY, 0, STATIC
        LOCFRAME DOVERLAY, 0, STATIC
        ARGFRAME ISTACK, 0, STACK
        ARGFRAME PSTACK, 0, STACK
        ARGFRAME XSTACK, 42, STACK
        ARGFRAME IOVERLAY, 0, STATIC
        ARGFRAME DOVERLAY, 0, STATIC
        FUNCALL ZDO_ProcessDeviceAnnce, RTG_RemoveRtgEntry
        LOCFRAME ISTACK, 0, STACK
        LOCFRAME PSTACK, 0, STACK
        LOCFRAME XSTACK, 42, STACK
        LOCFRAME IOVERLAY, 0, STATIC
        LOCFRAME DOVERLAY, 0, STATIC
        ARGFRAME ISTACK, 0, STACK
        ARGFRAME PSTACK, 0, STACK
        ARGFRAME XSTACK, 42, STACK
        ARGFRAME IOVERLAY, 0, STATIC
        ARGFRAME DOVERLAY, 0, STATIC
        FUNCALL ZDO_ProcessDeviceAnnce, nwkNeighborRemove
        LOCFRAME ISTACK, 0, STACK
        LOCFRAME PSTACK, 0, STACK
        LOCFRAME XSTACK, 42, STACK
        LOCFRAME IOVERLAY, 0, STATIC
        LOCFRAME DOVERLAY, 0, STATIC
        ARGFRAME ISTACK, 0, STACK
        ARGFRAME PSTACK, 0, STACK
        ARGFRAME XSTACK, 42, STACK
        ARGFRAME IOVERLAY, 0, STATIC
        ARGFRAME DOVERLAY, 0, STATIC
        FUNCALL ZDO_ProcessDeviceAnnce, AddrMgrEntryLookupNwk
        LOCFRAME ISTACK, 0, STACK
        LOCFRAME PSTACK, 0, STACK
        LOCFRAME XSTACK, 42, STACK
        LOCFRAME IOVERLAY, 0, STATIC
        LOCFRAME DOVERLAY, 0, STATIC
        ARGFRAME ISTACK, 0, STACK
        ARGFRAME PSTACK, 0, STACK
        ARGFRAME XSTACK, 42, STACK
        ARGFRAME IOVERLAY, 0, STATIC
        ARGFRAME DOVERLAY, 0, STATIC
        FUNCALL ZDO_ProcessDeviceAnnce, osal_memset
        LOCFRAME ISTACK, 0, STACK
        LOCFRAME PSTACK, 0, STACK
        LOCFRAME XSTACK, 42, STACK
        LOCFRAME IOVERLAY, 0, STATIC
        LOCFRAME DOVERLAY, 0, STATIC
        ARGFRAME ISTACK, 0, STACK
        ARGFRAME PSTACK, 0, STACK
        ARGFRAME XSTACK, 42, STACK
        ARGFRAME IOVERLAY, 0, STATIC
        ARGFRAME DOVERLAY, 0, STATIC
        FUNCALL ZDO_ProcessDeviceAnnce, sAddrExtCmp
        LOCFRAME ISTACK, 0, STACK
        LOCFRAME PSTACK, 0, STACK
        LOCFRAME XSTACK, 42, STACK
        LOCFRAME IOVERLAY, 0, STATIC
        LOCFRAME DOVERLAY, 0, STATIC
        ARGFRAME ISTACK, 0, STACK
        ARGFRAME PSTACK, 0, STACK
        ARGFRAME XSTACK, 42, STACK
        ARGFRAME IOVERLAY, 0, STATIC
        ARGFRAME DOVERLAY, 0, STATIC
        FUNCALL ZDO_ProcessDeviceAnnce, AddrMgrExtAddrSet
        LOCFRAME ISTACK, 0, STACK
        LOCFRAME PSTACK, 0, STACK
        LOCFRAME XSTACK, 42, STACK
        LOCFRAME IOVERLAY, 0, STATIC
        LOCFRAME DOVERLAY, 0, STATIC
        ARGFRAME ISTACK, 0, STACK
        ARGFRAME PSTACK, 0, STACK
        ARGFRAME XSTACK, 42, STACK
        ARGFRAME IOVERLAY, 0, STATIC
        ARGFRAME DOVERLAY, 0, STATIC
        FUNCALL ZDO_ProcessDeviceAnnce, AddrMgrEntryUpdate
        LOCFRAME ISTACK, 0, STACK
        LOCFRAME PSTACK, 0, STACK
        LOCFRAME XSTACK, 42, STACK
        LOCFRAME IOVERLAY, 0, STATIC
        LOCFRAME DOVERLAY, 0, STATIC
        ARGFRAME ISTACK, 0, STACK
        ARGFRAME PSTACK, 0, STACK
        ARGFRAME XSTACK, 42, STACK
        ARGFRAME IOVERLAY, 0, STATIC
        ARGFRAME DOVERLAY, 0, STATIC
        FUNCALL ZDO_ProcessDeviceAnnce, AddrMgrExtAddrSet
        LOCFRAME ISTACK, 0, STACK
        LOCFRAME PSTACK, 0, STACK
        LOCFRAME XSTACK, 42, STACK
        LOCFRAME IOVERLAY, 0, STATIC
        LOCFRAME DOVERLAY, 0, STATIC
        ARGFRAME ISTACK, 0, STACK
        ARGFRAME PSTACK, 0, STACK
        ARGFRAME XSTACK, 42, STACK
        ARGFRAME IOVERLAY, 0, STATIC
        ARGFRAME DOVERLAY, 0, STATIC
        FUNCALL ZDO_ProcessDeviceAnnce, AddrMgrEntryLookupExt
        LOCFRAME ISTACK, 0, STACK
        LOCFRAME PSTACK, 0, STACK
        LOCFRAME XSTACK, 42, STACK
        LOCFRAME IOVERLAY, 0, STATIC
        LOCFRAME DOVERLAY, 0, STATIC
        ARGFRAME ISTACK, 0, STACK
        ARGFRAME PSTACK, 0, STACK
        ARGFRAME XSTACK, 42, STACK
        ARGFRAME IOVERLAY, 0, STATIC
        ARGFRAME DOVERLAY, 0, STATIC
        FUNCALL ZDO_ProcessDeviceAnnce, AddrMgrEntryUpdate
        LOCFRAME ISTACK, 0, STACK
        LOCFRAME PSTACK, 0, STACK
        LOCFRAME XSTACK, 42, STACK
        LOCFRAME IOVERLAY, 0, STATIC
        LOCFRAME DOVERLAY, 0, STATIC
        ARGFRAME ISTACK, 0, STACK
        ARGFRAME PSTACK, 0, STACK
        ARGFRAME XSTACK, 42, STACK
        ARGFRAME IOVERLAY, 0, STATIC
        ARGFRAME DOVERLAY, 0, STATIC
        REQUIRE ?V0
        REQUIRE ?V1
        MOV       A,#-0xa
        LCALL     ?BANKED_ENTER_XDATA
          CFI DPH0 load(1, XDATA, add(CFA_XSP16, literal(-1)))
          CFI DPL0 load(1, XDATA, add(CFA_XSP16, literal(-2)))
          CFI ?BRET_EXT load(1, XDATA, add(CFA_XSP16, literal(-3)))
          CFI ?RET_HIGH load(1, XDATA, add(CFA_XSP16, literal(-4)))
          CFI ?RET_LOW load(1, XDATA, add(CFA_XSP16, literal(-5)))
          CFI R7 load(1, XDATA, add(CFA_XSP16, literal(-6)))
          CFI V1 load(1, XDATA, add(CFA_XSP16, literal(-7)))
          CFI V0 load(1, XDATA, add(CFA_XSP16, literal(-8)))
          CFI VB load(1, XDATA, add(CFA_XSP16, literal(-9)))
          CFI R6 load(1, XDATA, add(CFA_XSP16, literal(-10)))
          CFI CFA_SP SP+0
          CFI CFA_XSP16 add(XSP16, 10)
        ; Saved register size: 10
        ; Auto size: 32
        MOV       A,#-0x20
        LCALL     ?ALLOC_XSTACK8
          CFI CFA_XSP16 add(XSP16, 42)
        MOV       A,R2
        MOV       R6,A
        MOV       A,R3
        MOV       R7,A
// 2107   ZDO_DeviceAnnce_t Annce;
// 2108   AddrMgrEntry_t addrEntry;
// 2109   uint8 parentExt[Z_EXTADDR_LEN];
// 2110 #if !defined (DISABLE_GREENPOWER_BASIC_PROXY) && (ZG_BUILD_RTR_TYPE)
// 2111   uint8 invalidIEEE[Z_EXTADDR_LEN] = {0xFF, 0xFF, 0xFF, 0xFF, 0xFF, 0xFF, 0xFF, 0xFF};
// 2112 #endif
// 2113 
// 2114   if ( (_NIB.nwkState != NWK_ROUTER) && (_NIB.nwkState != NWK_ENDDEVICE) )
        MOV       DPTR,#_NIB + 35
        MOVX      A,@DPTR
        XRL       A,#0x8
        JZ        ??ZDO_ProcessDeviceAnnce_0
        MOV       DPTR,#_NIB + 35
        MOVX      A,@DPTR
        XRL       A,#0x4
        JZ        $+5
        LJMP      ??ZDO_ProcessDeviceAnnce_1 & 0xFFFF
// 2115   {
// 2116     // we arent stable, ignore the message
// 2117     return;
// 2118   }
// 2119   
// 2120   // Parse incoming message
// 2121   ZDO_ParseDeviceAnnce( inMsg, &Annce );
??ZDO_ProcessDeviceAnnce_0:
        ; Setup parameters for call to function ZDO_ParseDeviceAnnce
        MOV       R4,?XSP + 0
        MOV       R5,?XSP + 1
        MOV       A,R6
        MOV       R2,A
        MOV       A,R7
        MOV       R3,A
        LCALL     `??ZDO_ParseDeviceAnnce::?relay`; Banked call to: ZDO_ParseDeviceAnnce
// 2122 
// 2123   if ( ZSTACK_END_DEVICE_BUILD )
// 2124   {
// 2125     // Make sure the message didn't come from myself - end device only
// 2126     if ( osal_ExtAddrEqual( NLME_GetExtAddr(), Annce.extAddr ) && Annce.nwkAddr == NLME_GetShortAddr() )
        ; Setup parameters for call to function NLME_GetExtAddr
        LCALL     `??NLME_GetExtAddr::?relay`; Banked call to: NLME_GetExtAddr
        MOV       ?V0,R2
        MOV       ?V1,R3
        MOV       R2,?V0
        MOV       R3,?V1
        ; Setup parameters for call to function sAddrExtCmp
        MOV       A,#0x2
        LCALL     ?XSTACK_DISP0_8
        MOV       R4,DPL
        MOV       R5,DPH
        LCALL     `??sAddrExtCmp::?relay`; Banked call to: sAddrExtCmp
        MOV       A,R1
        JZ        ??ZDO_ProcessDeviceAnnce_2
        ; Setup parameters for call to function NLME_GetShortAddr
        LCALL     `??NLME_GetShortAddr::?relay`; Banked call to: NLME_GetShortAddr
        MOV       ?V0,R2
        MOV       ?V1,R3
        MOV       R0,?V0
        MOV       R1,?V1
        MOV       DPL,?XSP + 0
        MOV       DPH,?XSP + 1
        MOVX      A,@DPTR
        XRL       A,R0
        JNZ       ??ZDO_ProcessDeviceAnnce_3
        INC       DPTR
        MOVX      A,@DPTR
        XRL       A,R1
??ZDO_ProcessDeviceAnnce_3:
        JNZ       $+5
        LJMP      ??ZDO_ProcessDeviceAnnce_1 & 0xFFFF
// 2127     {
// 2128       return;
// 2129     }
// 2130   }
// 2131 
// 2132 #if defined ( ZIGBEEPRO )
// 2133   // Clean up the neighbor table
// 2134   nwkNeighborRemoveAllStranded();
??ZDO_ProcessDeviceAnnce_2:
        ; Setup parameters for call to function nwkNeighborRemoveAllStranded
        LCALL     `??nwkNeighborRemoveAllStranded::?relay`; Banked call to: nwkNeighborRemoveAllStranded
// 2135 
// 2136   // If address conflict is detected, no need to update the address manager
// 2137   if ( NLME_CheckNewAddrSet( Annce.nwkAddr, Annce.extAddr )== ZFailure )
        ; Setup parameters for call to function NLME_CheckNewAddrSet
        MOV       A,#0x2
        LCALL     ?XSTACK_DISP0_8
        MOV       R4,DPL
        MOV       R5,DPH
        MOV       DPL,?XSP + 0
        MOV       DPH,?XSP + 1
        MOVX      A,@DPTR
        MOV       R2,A
        INC       DPTR
        MOVX      A,@DPTR
        MOV       R3,A
        LCALL     `??NLME_CheckNewAddrSet::?relay`; Banked call to: NLME_CheckNewAddrSet
        MOV       A,R1
        XRL       A,#0x1
        JNZ       $+5
        LJMP      ??ZDO_ProcessDeviceAnnce_1 & 0xFFFF
// 2138   {
// 2139     return;
// 2140   }
// 2141 
// 2142   // Check for parent's address
// 2143   NLME_GetCoordExtAddr( parentExt );
        ; Setup parameters for call to function NLME_GetCoordExtAddr
        MOV       A,#0x18
        LCALL     ?XSTACK_DISP101_8
        LCALL     `??NLME_GetCoordExtAddr::?relay`; Banked call to: NLME_GetCoordExtAddr
// 2144   if ( osal_ExtAddrEqual( parentExt, Annce.extAddr ) )
        ; Setup parameters for call to function sAddrExtCmp
        MOV       A,#0x2
        LCALL     ?XSTACK_DISP0_8
        MOV       R4,DPL
        MOV       R5,DPH
        MOV       A,#0x18
        LCALL     ?XSTACK_DISP101_8
        LCALL     `??sAddrExtCmp::?relay`; Banked call to: sAddrExtCmp
        MOV       A,R1
        JZ        ??ZDO_ProcessDeviceAnnce_4
// 2145   {
// 2146     if ( Annce.nwkAddr != NLME_GetCoordShortAddr() )
        ; Setup parameters for call to function NLME_GetCoordShortAddr
        LCALL     `??NLME_GetCoordShortAddr::?relay`; Banked call to: NLME_GetCoordShortAddr
        MOV       ?V0,R2
        MOV       ?V1,R3
        MOV       R0,?V0
        MOV       R1,?V1
        MOV       DPL,?XSP + 0
        MOV       DPH,?XSP + 1
        MOVX      A,@DPTR
        XRL       A,R0
        JNZ       ??ZDO_ProcessDeviceAnnce_5
        INC       DPTR
        MOVX      A,@DPTR
        XRL       A,R1
??ZDO_ProcessDeviceAnnce_5:
        JZ        ??ZDO_ProcessDeviceAnnce_4
// 2147     {
// 2148       // Set the Parent's MAC's new short address
// 2149       _NIB.nwkCoordAddress = Annce.nwkAddr;
        MOV       DPL,?XSP + 0
        MOV       DPH,?XSP + 1
        MOVX      A,@DPTR
        MOV       R0,A
        INC       DPTR
        MOVX      A,@DPTR
        MOV       R1,A
        MOV       DPTR,#_NIB + 23
        MOV       A,R0
        MOVX      @DPTR,A
        INC       DPTR
        MOV       A,R1
        MOVX      @DPTR,A
// 2150       ZMacSetReq( ZMacCoordShortAddress, (byte*)&(_NIB.nwkCoordAddress) );
        ; Setup parameters for call to function ZMacSetReq
        MOV       R2,#(_NIB + 23) & 0xff
        MOV       R3,#((_NIB + 23) >> 8) & 0xff
        MOV       R1,#0x4b
        LCALL     `??ZMacSetReq::?relay`; Banked call to: ZMacSetReq
        MOV       A,R1
// 2151     }
// 2152   }
// 2153 
// 2154   if ( ZSTACK_ROUTER_BUILD )
// 2155   {
// 2156     // If the device annce comes from a end device child that has moved
// 2157     // to another parent, remove it from associated device list
// 2158 
// 2159     // If the dev annce is coming from other device's children,
// 2160     // (The dev annce from its own children shall be unicast to itself,
// 2161     // So check the mac destination address)
// 2162     // Remove it from the associated device list. If it is not
// 2163     // a child, no action will be taken in AssocRemove() anyway.
// 2164     if ( inMsg->macDestAddr != NLME_GetShortAddr() )
// 2165     {
// 2166       associated_devices_t *dev_ptr;
// 2167 
// 2168       // If it's an end device child
// 2169       dev_ptr = AssocGetWithExt( Annce.extAddr );
// 2170       if ( dev_ptr )
// 2171       {
// 2172         if ( dev_ptr->nodeRelation == CHILD_RFD ||
// 2173              dev_ptr->nodeRelation == CHILD_RFD_RX_IDLE )
// 2174         {
// 2175           AssocRemove( Annce.extAddr );
// 2176         }
// 2177       }
// 2178 
// 2179       // Remove the address from the SrcMatch table,
// 2180       // just in case the device was aged out by Child Management Table process
// 2181       if ( ( pNwkNotMyChildListDelete != NULL ) &&
// 2182            ( zgChildAgingEnable == TRUE ) )
// 2183       {
// 2184         pNwkNotMyChildListDelete( Annce.nwkAddr );
// 2185       }
// 2186     }
// 2187   }
// 2188 
// 2189   // Assume that the device has moved, remove existing routing entries
// 2190   RTG_RemoveRtgEntry( Annce.nwkAddr, 0 );
??ZDO_ProcessDeviceAnnce_4:
        ; Setup parameters for call to function RTG_RemoveRtgEntry
        MOV       R1,#0x0
        MOV       DPL,?XSP + 0
        MOV       DPH,?XSP + 1
        MOVX      A,@DPTR
        MOV       R2,A
        INC       DPTR
        MOVX      A,@DPTR
        MOV       R3,A
        LCALL     `??RTG_RemoveRtgEntry::?relay`; Banked call to: RTG_RemoveRtgEntry
        MOV       A,R1
// 2191 
// 2192   // Remove entry from neighborTable
// 2193   nwkNeighborRemove( Annce.nwkAddr, _NIB.nwkPanId );
        ; Setup parameters for call to function nwkNeighborRemove
        MOV       DPTR,#_NIB + 33
        MOVX      A,@DPTR
        MOV       R4,A
        INC       DPTR
        MOVX      A,@DPTR
        MOV       R5,A
        MOV       DPL,?XSP + 0
        MOV       DPH,?XSP + 1
        MOVX      A,@DPTR
        MOV       R2,A
        INC       DPTR
        MOVX      A,@DPTR
        MOV       R3,A
        LCALL     `??nwkNeighborRemove::?relay`; Banked call to: nwkNeighborRemove
// 2194 
// 2195 #endif // ZIGBEEPRO
// 2196 
// 2197   // Fill in the extended address in address manager if we don't have it already.
// 2198   addrEntry.user = ADDRMGR_USER_DEFAULT;
        MOV       A,#0xb
        LCALL     ?XSTACK_DISP0_8
        MOV       A,#0x0
        MOVX      @DPTR,A
// 2199   addrEntry.nwkAddr = Annce.nwkAddr;
        MOV       DPL,?XSP + 0
        MOV       DPH,?XSP + 1
        MOVX      A,@DPTR
        MOV       R0,A
        INC       DPTR
        MOVX      A,@DPTR
        MOV       R1,A
        MOV       A,#0xc
        LCALL     ?XSTACK_DISP0_8
        MOV       A,R0
        MOVX      @DPTR,A
        INC       DPTR
        MOV       A,R1
        MOVX      @DPTR,A
// 2200   if ( AddrMgrEntryLookupNwk( &addrEntry ) )
        ; Setup parameters for call to function AddrMgrEntryLookupNwk
        MOV       A,#0xb
        LCALL     ?XSTACK_DISP101_8
        LCALL     `??AddrMgrEntryLookupNwk::?relay`; Banked call to: AddrMgrEntryLookupNwk
        MOV       A,R1
        JZ        ??ZDO_ProcessDeviceAnnce_6
// 2201   {
// 2202     osal_memset( parentExt, 0, Z_EXTADDR_LEN );
        ; Setup parameters for call to function osal_memset
        MOV       R4,#0x8
        MOV       R5,#0x0
        MOV       R1,#0x0
        MOV       A,#0x18
        LCALL     ?XSTACK_DISP101_8
        LCALL     `??osal_memset::?relay`; Banked call to: osal_memset
// 2203     if ( osal_ExtAddrEqual( parentExt, addrEntry.extAddr ) )
        ; Setup parameters for call to function sAddrExtCmp
        MOV       A,#0xe
        LCALL     ?XSTACK_DISP0_8
        MOV       R4,DPL
        MOV       R5,DPH
        MOV       A,#0x18
        LCALL     ?XSTACK_DISP101_8
        LCALL     `??sAddrExtCmp::?relay`; Banked call to: sAddrExtCmp
        MOV       A,R1
        JZ        ??ZDO_ProcessDeviceAnnce_6
// 2204     {
// 2205       AddrMgrExtAddrSet( addrEntry.extAddr, Annce.extAddr );
        ; Setup parameters for call to function AddrMgrExtAddrSet
        MOV       A,#0x2
        LCALL     ?XSTACK_DISP0_8
        MOV       R4,DPL
        MOV       R5,DPH
        MOV       A,#0xe
        LCALL     ?XSTACK_DISP0_8
        MOV       R2,DPL
        MOV       R3,DPH
        LCALL     `??AddrMgrExtAddrSet::?relay`; Banked call to: AddrMgrExtAddrSet
// 2206       AddrMgrEntryUpdate( &addrEntry );
        ; Setup parameters for call to function AddrMgrEntryUpdate
        MOV       A,#0xb
        LCALL     ?XSTACK_DISP101_8
        LCALL     `??AddrMgrEntryUpdate::?relay`; Banked call to: AddrMgrEntryUpdate
        MOV       A,R1
// 2207     }
// 2208   }
// 2209 
// 2210   // Update the short address in address manager if it's been changed
// 2211   AddrMgrExtAddrSet( addrEntry.extAddr, Annce.extAddr );
??ZDO_ProcessDeviceAnnce_6:
        ; Setup parameters for call to function AddrMgrExtAddrSet
        MOV       A,#0x2
        LCALL     ?XSTACK_DISP0_8
        MOV       R4,DPL
        MOV       R5,DPH
        MOV       A,#0xe
        LCALL     ?XSTACK_DISP0_8
        MOV       R2,DPL
        MOV       R3,DPH
        LCALL     `??AddrMgrExtAddrSet::?relay`; Banked call to: AddrMgrExtAddrSet
// 2212   if ( AddrMgrEntryLookupExt( &addrEntry ) )
        ; Setup parameters for call to function AddrMgrEntryLookupExt
        MOV       A,#0xb
        LCALL     ?XSTACK_DISP101_8
        LCALL     `??AddrMgrEntryLookupExt::?relay`; Banked call to: AddrMgrEntryLookupExt
        MOV       A,R1
        JZ        ??ZDO_ProcessDeviceAnnce_1
// 2213   {
// 2214     if ( addrEntry.nwkAddr != Annce.nwkAddr )
        MOV       A,#0xc
        LCALL     ?XSTACK_DISP0_8
        MOVX      A,@DPTR
        MOV       R0,A
        INC       DPTR
        MOVX      A,@DPTR
        MOV       R1,A
        MOV       DPL,?XSP + 0
        MOV       DPH,?XSP + 1
        MOVX      A,@DPTR
        XRL       A,R0
        JNZ       ??ZDO_ProcessDeviceAnnce_7
        INC       DPTR
        MOVX      A,@DPTR
        XRL       A,R1
??ZDO_ProcessDeviceAnnce_7:
        JZ        ??ZDO_ProcessDeviceAnnce_1
// 2215     {
// 2216       addrEntry.nwkAddr = Annce.nwkAddr;
        MOV       DPL,?XSP + 0
        MOV       DPH,?XSP + 1
        MOVX      A,@DPTR
        MOV       R0,A
        INC       DPTR
        MOVX      A,@DPTR
        MOV       R1,A
        MOV       A,#0xc
        LCALL     ?XSTACK_DISP0_8
        MOV       A,R0
        MOVX      @DPTR,A
        INC       DPTR
        MOV       A,R1
        MOVX      @DPTR,A
// 2217       AddrMgrEntryUpdate( &addrEntry );
        ; Setup parameters for call to function AddrMgrEntryUpdate
        MOV       A,#0xb
        LCALL     ?XSTACK_DISP101_8
        LCALL     `??AddrMgrEntryUpdate::?relay`; Banked call to: AddrMgrEntryUpdate
        MOV       A,R1
// 2218     }
// 2219   }
// 2220 
// 2221 #if !defined (DISABLE_GREENPOWER_BASIC_PROXY) && (ZG_BUILD_RTR_TYPE)
// 2222   if(ZG_DEVICE_RTR_TYPE)
// 2223   {
// 2224     uint32 timeout;
// 2225     uint8 invalidAddr;
// 2226     uint8 sameAnnce;
// 2227     
// 2228     timeout = osal_get_timeoutEx( gp_TaskID, GP_PROXY_ALIAS_CONFLICT_TIMEOUT );
// 2229     invalidAddr = osal_memcmp( Annce.extAddr, invalidIEEE, Z_EXTADDR_LEN );
// 2230     sameAnnce = osal_memcmp( &Annce, &GP_aliasConflictAnnce, sizeof( ZDO_DeviceAnnce_t ) );
// 2231         
// 2232     // Check GP proxy table to update the entry if necesary
// 2233     if( timeout && ( invalidAddr && sameAnnce ) )
// 2234     {
// 2235       osal_stop_timerEx( gp_TaskID, GP_PROXY_ALIAS_CONFLICT_TIMEOUT );
// 2236     }
// 2237     else if(GP_CheckAnnouncedDeviceGCB != NULL)
// 2238     {
// 2239       GP_CheckAnnouncedDeviceGCB( Annce.extAddr, Annce.nwkAddr );       
// 2240     }
// 2241   }
// 2242 #endif
// 2243 }
??ZDO_ProcessDeviceAnnce_1:
        MOV       A,#0x20
        LCALL     ?DEALLOC_XSTACK8
          CFI CFA_XSP16 add(XSP16, 10)
        MOV       R7,#0x2
        LJMP      ?BANKED_LEAVE_XDATA
          CFI EndBlock cfiBlock30
// 2244 
// 2245 /*********************************************************************
// 2246  * @fn          ZDO_ProcessParentAnnce
// 2247  *
// 2248  * @brief       This function processes a Parent annouce message.
// 2249  *
// 2250  * @param       inMsg - incoming message
// 2251  *
// 2252  * @return      none
// 2253  */

        RSEG BANKED_CODE:HUGECODE:NOROOT(0)
// 2254 void ZDO_ProcessParentAnnce( zdoIncomingMsg_t *inMsg )
ZDO_ProcessParentAnnce:
          CFI Block cfiBlock31 Using cfiCommon0
          CFI Function ZDO_ProcessParentAnnce
        CODE
// 2255 {
        FUNCALL ZDO_ProcessParentAnnce, ZDO_ParseParentAnnce
        LOCFRAME ISTACK, 0, STACK
        LOCFRAME PSTACK, 0, STACK
        LOCFRAME XSTACK, 31, STACK
        LOCFRAME IOVERLAY, 0, STATIC
        LOCFRAME DOVERLAY, 0, STATIC
        ARGFRAME ISTACK, 0, STACK
        ARGFRAME PSTACK, 0, STACK
        ARGFRAME XSTACK, 31, STACK
        ARGFRAME IOVERLAY, 0, STATIC
        ARGFRAME DOVERLAY, 0, STATIC
        FUNCALL ZDO_ProcessParentAnnce, AssocGetWithExt
        LOCFRAME ISTACK, 0, STACK
        LOCFRAME PSTACK, 0, STACK
        LOCFRAME XSTACK, 31, STACK
        LOCFRAME IOVERLAY, 0, STATIC
        LOCFRAME DOVERLAY, 0, STATIC
        ARGFRAME ISTACK, 0, STACK
        ARGFRAME PSTACK, 0, STACK
        ARGFRAME XSTACK, 31, STACK
        ARGFRAME IOVERLAY, 0, STATIC
        ARGFRAME DOVERLAY, 0, STATIC
        FUNCALL ZDO_ProcessParentAnnce, osal_mem_alloc
        LOCFRAME ISTACK, 0, STACK
        LOCFRAME PSTACK, 0, STACK
        LOCFRAME XSTACK, 31, STACK
        LOCFRAME IOVERLAY, 0, STATIC
        LOCFRAME DOVERLAY, 0, STATIC
        ARGFRAME ISTACK, 0, STACK
        ARGFRAME PSTACK, 0, STACK
        ARGFRAME XSTACK, 31, STACK
        ARGFRAME IOVERLAY, 0, STATIC
        ARGFRAME DOVERLAY, 0, STATIC
        FUNCALL ZDO_ProcessParentAnnce, sAddrExtCpy
        LOCFRAME ISTACK, 0, STACK
        LOCFRAME PSTACK, 0, STACK
        LOCFRAME XSTACK, 31, STACK
        LOCFRAME IOVERLAY, 0, STATIC
        LOCFRAME DOVERLAY, 0, STATIC
        ARGFRAME ISTACK, 0, STACK
        ARGFRAME PSTACK, 0, STACK
        ARGFRAME XSTACK, 31, STACK
        ARGFRAME IOVERLAY, 0, STATIC
        ARGFRAME DOVERLAY, 0, STATIC
        FUNCALL ZDO_ProcessParentAnnce, osal_mem_alloc
        LOCFRAME ISTACK, 0, STACK
        LOCFRAME PSTACK, 0, STACK
        LOCFRAME XSTACK, 31, STACK
        LOCFRAME IOVERLAY, 0, STATIC
        LOCFRAME DOVERLAY, 0, STATIC
        ARGFRAME ISTACK, 0, STACK
        ARGFRAME PSTACK, 0, STACK
        ARGFRAME XSTACK, 31, STACK
        ARGFRAME IOVERLAY, 0, STATIC
        ARGFRAME DOVERLAY, 0, STATIC
        FUNCALL ZDO_ProcessParentAnnce, sAddrExtCpy
        LOCFRAME ISTACK, 0, STACK
        LOCFRAME PSTACK, 0, STACK
        LOCFRAME XSTACK, 31, STACK
        LOCFRAME IOVERLAY, 0, STATIC
        LOCFRAME DOVERLAY, 0, STATIC
        ARGFRAME ISTACK, 0, STACK
        ARGFRAME PSTACK, 0, STACK
        ARGFRAME XSTACK, 31, STACK
        ARGFRAME IOVERLAY, 0, STATIC
        ARGFRAME DOVERLAY, 0, STATIC
        FUNCALL ZDO_ProcessParentAnnce, osal_mem_free
        LOCFRAME ISTACK, 0, STACK
        LOCFRAME PSTACK, 0, STACK
        LOCFRAME XSTACK, 31, STACK
        LOCFRAME IOVERLAY, 0, STATIC
        LOCFRAME DOVERLAY, 0, STATIC
        ARGFRAME ISTACK, 0, STACK
        ARGFRAME PSTACK, 0, STACK
        ARGFRAME XSTACK, 31, STACK
        ARGFRAME IOVERLAY, 0, STATIC
        ARGFRAME DOVERLAY, 0, STATIC
        FUNCALL ZDO_ProcessParentAnnce, ZDP_ParentAnnce
        LOCFRAME ISTACK, 0, STACK
        LOCFRAME PSTACK, 0, STACK
        LOCFRAME XSTACK, 36, STACK
        LOCFRAME IOVERLAY, 0, STATIC
        LOCFRAME DOVERLAY, 0, STATIC
        ARGFRAME ISTACK, 0, STACK
        ARGFRAME PSTACK, 0, STACK
        ARGFRAME XSTACK, 36, STACK
        ARGFRAME IOVERLAY, 0, STATIC
        ARGFRAME DOVERLAY, 0, STATIC
        FUNCALL ZDO_ProcessParentAnnce, osal_mem_free
        LOCFRAME ISTACK, 0, STACK
        LOCFRAME PSTACK, 0, STACK
        LOCFRAME XSTACK, 31, STACK
        LOCFRAME IOVERLAY, 0, STATIC
        LOCFRAME DOVERLAY, 0, STATIC
        ARGFRAME ISTACK, 0, STACK
        ARGFRAME PSTACK, 0, STACK
        ARGFRAME XSTACK, 31, STACK
        ARGFRAME IOVERLAY, 0, STATIC
        ARGFRAME DOVERLAY, 0, STATIC
        FUNCALL ZDO_ProcessParentAnnce, osal_mem_free
        LOCFRAME ISTACK, 0, STACK
        LOCFRAME PSTACK, 0, STACK
        LOCFRAME XSTACK, 31, STACK
        LOCFRAME IOVERLAY, 0, STATIC
        LOCFRAME DOVERLAY, 0, STATIC
        ARGFRAME ISTACK, 0, STACK
        ARGFRAME PSTACK, 0, STACK
        ARGFRAME XSTACK, 31, STACK
        ARGFRAME IOVERLAY, 0, STATIC
        ARGFRAME DOVERLAY, 0, STATIC
        FUNCALL ZDO_ProcessParentAnnce, osal_mem_free
        LOCFRAME ISTACK, 0, STACK
        LOCFRAME PSTACK, 0, STACK
        LOCFRAME XSTACK, 31, STACK
        LOCFRAME IOVERLAY, 0, STATIC
        LOCFRAME DOVERLAY, 0, STATIC
        ARGFRAME ISTACK, 0, STACK
        ARGFRAME PSTACK, 0, STACK
        ARGFRAME XSTACK, 31, STACK
        ARGFRAME IOVERLAY, 0, STATIC
        ARGFRAME DOVERLAY, 0, STATIC
        REQUIRE ?V0
        REQUIRE ?V1
        REQUIRE ?V2
        REQUIRE ?V3
        REQUIRE ?V4
        REQUIRE ?V5
        REQUIRE ?V6
        REQUIRE ?V7
        REQUIRE ?V8
        REQUIRE ?V9
        REQUIRE ?V10
        REQUIRE ?V11
        REQUIRE ?V12
        REQUIRE ?V13
        MOV       A,#-0x16
        LCALL     ?BANKED_ENTER_XDATA
          CFI DPH0 load(1, XDATA, add(CFA_XSP16, literal(-1)))
          CFI DPL0 load(1, XDATA, add(CFA_XSP16, literal(-2)))
          CFI ?BRET_EXT load(1, XDATA, add(CFA_XSP16, literal(-3)))
          CFI ?RET_HIGH load(1, XDATA, add(CFA_XSP16, literal(-4)))
          CFI ?RET_LOW load(1, XDATA, add(CFA_XSP16, literal(-5)))
          CFI R7 load(1, XDATA, add(CFA_XSP16, literal(-6)))
          CFI V13 load(1, XDATA, add(CFA_XSP16, literal(-7)))
          CFI V12 load(1, XDATA, add(CFA_XSP16, literal(-8)))
          CFI V11 load(1, XDATA, add(CFA_XSP16, literal(-9)))
          CFI V10 load(1, XDATA, add(CFA_XSP16, literal(-10)))
          CFI V9 load(1, XDATA, add(CFA_XSP16, literal(-11)))
          CFI V8 load(1, XDATA, add(CFA_XSP16, literal(-12)))
          CFI V7 load(1, XDATA, add(CFA_XSP16, literal(-13)))
          CFI V6 load(1, XDATA, add(CFA_XSP16, literal(-14)))
          CFI V5 load(1, XDATA, add(CFA_XSP16, literal(-15)))
          CFI V4 load(1, XDATA, add(CFA_XSP16, literal(-16)))
          CFI V3 load(1, XDATA, add(CFA_XSP16, literal(-17)))
          CFI V2 load(1, XDATA, add(CFA_XSP16, literal(-18)))
          CFI V1 load(1, XDATA, add(CFA_XSP16, literal(-19)))
          CFI V0 load(1, XDATA, add(CFA_XSP16, literal(-20)))
          CFI VB load(1, XDATA, add(CFA_XSP16, literal(-21)))
          CFI R6 load(1, XDATA, add(CFA_XSP16, literal(-22)))
          CFI CFA_SP SP+0
          CFI CFA_XSP16 add(XSP16, 22)
        ; Saved register size: 22
        ; Auto size: 9
        MOV       A,#-0x9
        LCALL     ?ALLOC_XSTACK8
          CFI CFA_XSP16 add(XSP16, 31)
        MOV       ?V12,R2
        MOV       ?V13,R3
// 2256   ZDO_ParentAnnce_t *parentAnnce;
// 2257   uint8 x;
// 2258   uint8 childCount = 0;
        MOV       ?V5,#0x0
// 2259 
// 2260   ZDO_ChildInfoList_t *listHead = NULL;
        MOV       ?V0,#0x0
        MOV       ?V1,#0x0
// 2261   ZDO_ChildInfoList_t *listTail;
// 2262   ZDO_ChildInfoList_t *newNode;
// 2263 
// 2264   // Parse incoming message, memory is allocated by the parse function,
// 2265   // it should be free after processing the message
// 2266   parentAnnce = ZDO_ParseParentAnnce( inMsg );
        ; Setup parameters for call to function ZDO_ParseParentAnnce
        MOV       R2,?V12
        MOV       R3,?V13
        LCALL     `??ZDO_ParseParentAnnce::?relay`; Banked call to: ZDO_ParseParentAnnce
        MOV       ?V2,R2
        MOV       ?V3,R3
        MOV       ?V6,?V2
        MOV       ?V7,?V3
// 2267 
// 2268   if ( parentAnnce != NULL )
        MOV       A,?V6
        ORL       A,?V7
        JNZ       $+5
        LJMP      ??ZDO_ProcessParentAnnce_0 & 0xFFFF
// 2269   {
// 2270     for ( x = 0; x < parentAnnce->numOfChildren; x++ )
        MOV       ?V4,#0x0
??ZDO_ProcessParentAnnce_1:
        MOV       DPL,?V6
        MOV       DPH,?V7
        MOVX      A,@DPTR
        MOV       R0,A
        MOV       A,?V4
        CLR       C
        SUBB      A,R0
        JC        $+5
        LJMP      ??ZDO_ProcessParentAnnce_2 & 0xFFFF
// 2271     {
// 2272       associated_devices_t *dev_ptr;
// 2273 
// 2274       // If it's an End Device child
// 2275       dev_ptr = AssocGetWithExt( parentAnnce->childInfo[x].extAddr );
        ; Setup parameters for call to function AssocGetWithExt
        MOV       A,?V4
        MOV       R0,A
        MOV       R1,#0x0
        MOV       A,R0
        MOV       B,#0x8
        MUL       AB
        XCH       A,R0
        MOV       R2,B
        MOV       B,#0x0
        MUL       AB
        ADD       A,R2
        MOV       R2,A
        MOV       B,#0x8
        MOV       A,R1
        MUL       AB
        ADD       A,R2
        MOV       R1,A
        MOV       A,?V6
        ADD       A,R0
        MOV       DPL,A
        MOV       A,?V7
        ADDC      A,R1
        MOV       DPH,A
        INC       DPTR
        MOV       R2,DPL
        MOV       R3,DPH
        LCALL     `??AssocGetWithExt::?relay`; Banked call to: AssocGetWithExt
        MOV       ?V10,R2
        MOV       ?V11,R3
        MOV       ?V2,?V10
        MOV       ?V3,?V11
// 2276 
// 2277       if ( dev_ptr )
        MOV       A,?V2
        ORL       A,?V3
        JNZ       $+5
        LJMP      ??ZDO_ProcessParentAnnce_3 & 0xFFFF
// 2278       {
// 2279         if ( dev_ptr->nodeRelation == CHILD_RFD ||
// 2280              dev_ptr->nodeRelation == CHILD_RFD_RX_IDLE )
        MOV       DPL,?V2
        MOV       DPH,?V3
        INC       DPTR
        INC       DPTR
        INC       DPTR
        INC       DPTR
        MOVX      A,@DPTR
        XRL       A,#0x1
        JZ        ??ZDO_ProcessParentAnnce_4
        MOV       DPL,?V2
        MOV       DPH,?V3
        INC       DPTR
        INC       DPTR
        INC       DPTR
        INC       DPTR
        MOVX      A,@DPTR
        XRL       A,#0x2
        JZ        $+5
        LJMP      ??ZDO_ProcessParentAnnce_3 & 0xFFFF
// 2281         {
// 2282           if ( dev_ptr->keepaliveRcv == TRUE )
??ZDO_ProcessParentAnnce_4:
        MOV       A,?V2
        ADD       A,#0x1b
        MOV       DPL,A
        CLR       A
        ADDC      A,?V3
        MOV       DPH,A
        MOVX      A,@DPTR
        XRL       A,#0x1
        JZ        $+5
        LJMP      ??ZDO_ProcessParentAnnce_3 & 0xFFFF
// 2283           {
// 2284             // Add one element to the list
// 2285             newNode = (ZDO_ChildInfoList_t *)osal_mem_alloc( sizeof(ZDO_ChildInfoList_t) );
        ; Setup parameters for call to function osal_mem_alloc
        MOV       R2,#0xa
        MOV       R3,#0x0
        LCALL     `??osal_mem_alloc::?relay`; Banked call to: osal_mem_alloc
        MOV       ?V10,R2
        MOV       ?V11,R3
        MOV       ?V8,?V10
        MOV       ?V9,?V11
// 2286 
// 2287             osal_cpyExtAddr( newNode->child.extAddr, parentAnnce->childInfo[x].extAddr );
        ; Setup parameters for call to function sAddrExtCpy
        MOV       A,?V4
        MOV       R0,A
        MOV       R1,#0x0
        MOV       A,R0
        MOV       B,#0x8
        MUL       AB
        XCH       A,R0
        MOV       R2,B
        MOV       B,#0x0
        MUL       AB
        ADD       A,R2
        MOV       R2,A
        MOV       B,#0x8
        MOV       A,R1
        MUL       AB
        ADD       A,R2
        MOV       R1,A
        MOV       A,?V6
        ADD       A,R0
        MOV       DPL,A
        MOV       A,?V7
        ADDC      A,R1
        MOV       DPH,A
        INC       DPTR
        MOV       R4,DPL
        MOV       R5,DPH
        MOV       R2,?V8
        MOV       R3,?V9
        LCALL     `??sAddrExtCpy::?relay`; Banked call to: sAddrExtCpy
// 2288 
// 2289             newNode->next = NULL;
        MOV       DPL,?V8
        MOV       DPH,?V9
        INC       DPTR
        INC       DPTR
        INC       DPTR
        INC       DPTR
        INC       DPTR
        INC       DPTR
        INC       DPTR
        INC       DPTR
        MOV       A,#0x0
        MOVX      @DPTR,A
        INC       DPTR
        MOV       A,#0x0
        MOVX      @DPTR,A
// 2290 
// 2291             if ( listHead == NULL )
        MOV       A,?V0
        ORL       A,?V1
        JNZ       ??ZDO_ProcessParentAnnce_5
// 2292             {
// 2293               // Initialize the head of the list
// 2294               listHead = listTail = newNode;
        MOV       R6,?V8
        MOV       R7,?V9
        MOV       ?V0,R6
        MOV       ?V1,R7
        SJMP      ??ZDO_ProcessParentAnnce_6
// 2295             }
// 2296             else
// 2297             {
// 2298               // Add new element to the end
// 2299               listTail->next = newNode;
??ZDO_ProcessParentAnnce_5:
        MOV       DPL,R6
        MOV       DPH,R7
        INC       DPTR
        INC       DPTR
        INC       DPTR
        INC       DPTR
        INC       DPTR
        INC       DPTR
        INC       DPTR
        INC       DPTR
        MOV       A,?V8
        MOVX      @DPTR,A
        INC       DPTR
        MOV       A,?V9
        MOVX      @DPTR,A
// 2300 
// 2301               listTail = listTail->next;
        MOV       DPL,R6
        MOV       DPH,R7
        INC       DPTR
        INC       DPTR
        INC       DPTR
        INC       DPTR
        INC       DPTR
        INC       DPTR
        INC       DPTR
        INC       DPTR
        MOVX      A,@DPTR
        MOV       R6,A
        INC       DPTR
        MOVX      A,@DPTR
        MOV       R7,A
// 2302             }
// 2303 
// 2304             childCount++;
??ZDO_ProcessParentAnnce_6:
        INC       ?V5
// 2305           }
// 2306         }
// 2307       }
// 2308     }
??ZDO_ProcessParentAnnce_3:
        INC       ?V4
        LJMP      ??ZDO_ProcessParentAnnce_1 & 0xFFFF
// 2309 
// 2310     // If the device has children that match some in the received list,
// 2311     // it should send a unicast Parent_Annce_rsp message.
// 2312     if ( childCount > 0 )
??ZDO_ProcessParentAnnce_2:
        MOV       A,?V5
        JNZ       $+5
        LJMP      ??ZDO_ProcessParentAnnce_7 & 0xFFFF
// 2313     {
// 2314       ZDO_ChildInfo_t *childInfo;
// 2315       zAddrType_t dstAddr;
// 2316 
// 2317       dstAddr.addrMode = (afAddrMode_t)Addr16Bit;
        MOV       A,#0x8
        LCALL     ?XSTACK_DISP0_8
        MOV       A,#0x2
        MOVX      @DPTR,A
// 2318       dstAddr.addr.shortAddr = inMsg->srcAddr.addr.shortAddr;
        MOV       DPL,?V12
        MOV       DPH,?V13
        INC       DPTR
        INC       DPTR
        MOVX      A,@DPTR
        MOV       R0,A
        INC       DPTR
        MOVX      A,@DPTR
        MOV       R1,A
        MOV       DPL,?XSP + 0
        MOV       DPH,?XSP + 1
        MOV       A,R0
        MOVX      @DPTR,A
        INC       DPTR
        MOV       A,R1
        MOVX      @DPTR,A
// 2319 
// 2320       x = 0;
        MOV       ?V4,#0x0
// 2321 
// 2322       childInfo = (ZDO_ChildInfo_t *)osal_mem_alloc( childCount * sizeof(ZDO_ChildInfo_t) );
        ; Setup parameters for call to function osal_mem_alloc
        MOV       A,?V5
        MOV       R2,A
        MOV       R3,#0x0
        MOV       A,R2
        MOV       B,#0x8
        MUL       AB
        XCH       A,R2
        MOV       R0,B
        MOV       B,#0x0
        MUL       AB
        ADD       A,R0
        MOV       R0,A
        MOV       B,#0x8
        MOV       A,R3
        MUL       AB
        ADD       A,R0
        MOV       R3,A
        LCALL     `??osal_mem_alloc::?relay`; Banked call to: osal_mem_alloc
        MOV       ?V10,R2
        MOV       ?V11,R3
        MOV       ?V2,?V10
        MOV       ?V3,?V11
// 2323 
// 2324       if ( childInfo != NULL )
        MOV       A,?V2
        ORL       A,?V3
        JNZ       $+5
        LJMP      ??ZDO_ProcessParentAnnce_8 & 0xFFFF
// 2325       {
// 2326         // Copy the content of the link list into this buffer
// 2327         while ( listHead != NULL )
??ZDO_ProcessParentAnnce_9:
        MOV       A,?V0
        ORL       A,?V1
        JZ        ??ZDO_ProcessParentAnnce_10
// 2328         {
// 2329           listTail = listHead;
        MOV       R6,?V0
        MOV       R7,?V1
// 2330 
// 2331           osal_cpyExtAddr( childInfo[x].extAddr,  listHead->child.extAddr );
        ; Setup parameters for call to function sAddrExtCpy
        MOV       R4,?V0
        MOV       R5,?V1
        MOV       A,?V4
        MOV       R0,A
        MOV       R1,#0x0
        MOV       A,R0
        MOV       B,#0x8
        MUL       AB
        XCH       A,R0
        MOV       R2,B
        MOV       B,#0x0
        MUL       AB
        ADD       A,R2
        MOV       R2,A
        MOV       B,#0x8
        MOV       A,R1
        MUL       AB
        ADD       A,R2
        MOV       R1,A
        MOV       A,?V2
        ADD       A,R0
        MOV       R2,A
        MOV       A,?V3
        ADDC      A,R1
        MOV       R3,A
        LCALL     `??sAddrExtCpy::?relay`; Banked call to: sAddrExtCpy
// 2332 
// 2333           x++;
        INC       ?V4
// 2334 
// 2335           listHead = listTail->next;
        MOV       DPL,R6
        MOV       DPH,R7
        INC       DPTR
        INC       DPTR
        INC       DPTR
        INC       DPTR
        INC       DPTR
        INC       DPTR
        INC       DPTR
        INC       DPTR
        MOVX      A,@DPTR
        MOV       R0,A
        INC       DPTR
        MOVX      A,@DPTR
        MOV       R1,A
        MOV       ?V0,R0
        MOV       ?V1,R1
// 2336 
// 2337           // Free this element of the link list
// 2338           osal_mem_free( listTail );
        ; Setup parameters for call to function osal_mem_free
        MOV       A,R6
        MOV       R2,A
        MOV       A,R7
        MOV       R3,A
        LCALL     `??osal_mem_free::?relay`; Banked call to: osal_mem_free
        SJMP      ??ZDO_ProcessParentAnnce_9
// 2339         }
// 2340 
// 2341         ZDP_ParentAnnceRsp( (inMsg->TransSeq), dstAddr, childCount,
// 2342                             ((uint8 *)childInfo), 0 );
??ZDO_ProcessParentAnnce_10:
        ; Setup parameters for call to function ZDP_ParentAnnce
        MOV       ?V10,#0x0
        MOV       R0,#?V10
        LCALL     ?PUSH_XSTACK_I_ONE
          CFI CFA_XSP16 add(XSP16, 32)
        MOV       ?V10,#0x1f
        MOV       ?V11,#-0x80
        MOV       R0,#?V10
        LCALL     ?PUSH_XSTACK_I_TWO
          CFI CFA_XSP16 add(XSP16, 34)
        MOV       R0,#?V2
        LCALL     ?PUSH_XSTACK_I_TWO
          CFI CFA_XSP16 add(XSP16, 36)
        MOV       R1,?V5
        MOV       A,#0x5
        LCALL     ?XSTACK_DISP102_8
        MOV       A,?V12
        ADD       A,#0xf
        MOV       R2,A
        CLR       A
        ADDC      A,?V13
        MOV       R3,A
        LCALL     `??ZDP_ParentAnnce::?relay`; Banked call to: ZDP_ParentAnnce
        MOV       A,#0x5
        LCALL     ?DEALLOC_XSTACK8
          CFI CFA_XSP16 add(XSP16, 31)
        MOV       A,R1
// 2343         
// 2344         
// 2345         osal_mem_free(childInfo);
        ; Setup parameters for call to function osal_mem_free
        MOV       R2,?V2
        MOV       R3,?V3
        LCALL     `??osal_mem_free::?relay`; Banked call to: osal_mem_free
        SJMP      ??ZDO_ProcessParentAnnce_7
// 2346       }
// 2347       else
// 2348       {
// 2349         while(listHead != NULL)
??ZDO_ProcessParentAnnce_8:
        MOV       A,?V0
        ORL       A,?V1
        JZ        ??ZDO_ProcessParentAnnce_7
// 2350         {
// 2351           listTail = listHead;
        MOV       R6,?V0
        MOV       R7,?V1
// 2352           listHead = listTail->next;
        MOV       DPL,R6
        MOV       DPH,R7
        INC       DPTR
        INC       DPTR
        INC       DPTR
        INC       DPTR
        INC       DPTR
        INC       DPTR
        INC       DPTR
        INC       DPTR
        MOVX      A,@DPTR
        MOV       R0,A
        INC       DPTR
        MOVX      A,@DPTR
        MOV       R1,A
        MOV       ?V0,R0
        MOV       ?V1,R1
// 2353 
// 2354           // Free this element of the link list
// 2355           osal_mem_free( listTail );
        ; Setup parameters for call to function osal_mem_free
        MOV       A,R6
        MOV       R2,A
        MOV       A,R7
        MOV       R3,A
        LCALL     `??osal_mem_free::?relay`; Banked call to: osal_mem_free
        SJMP      ??ZDO_ProcessParentAnnce_8
// 2356         }  
// 2357       }
// 2358     }
// 2359     
// 2360     // Free memory allocated by parsing function
// 2361     osal_mem_free( parentAnnce );
??ZDO_ProcessParentAnnce_7:
        ; Setup parameters for call to function osal_mem_free
        MOV       R2,?V6
        MOV       R3,?V7
        LCALL     `??osal_mem_free::?relay`; Banked call to: osal_mem_free
// 2362   }
// 2363 }
??ZDO_ProcessParentAnnce_0:
        MOV       A,#0x9
        LCALL     ?DEALLOC_XSTACK8
          CFI CFA_XSP16 add(XSP16, 22)
        MOV       R7,#0xe
        LJMP      ?BANKED_LEAVE_XDATA
          CFI EndBlock cfiBlock31
// 2364 
// 2365 /*********************************************************************
// 2366  * @fn          ZDO_ProcessParentAnnceRsp
// 2367  *
// 2368  * @brief       This function processes a Parent annouce response message.
// 2369  *
// 2370  * @param       inMsg - incoming message
// 2371  *
// 2372  * @return      none
// 2373  */

        RSEG BANKED_CODE:HUGECODE:NOROOT(0)
// 2374 void ZDO_ProcessParentAnnceRsp( zdoIncomingMsg_t *inMsg )
ZDO_ProcessParentAnnceRsp:
          CFI Block cfiBlock32 Using cfiCommon0
          CFI Function ZDO_ProcessParentAnnceRsp
        CODE
// 2375 {
        FUNCALL ZDO_ProcessParentAnnceRsp, ZDO_ParseParentAnnce
        LOCFRAME ISTACK, 0, STACK
        LOCFRAME PSTACK, 0, STACK
        LOCFRAME XSTACK, 16, STACK
        LOCFRAME IOVERLAY, 0, STATIC
        LOCFRAME DOVERLAY, 0, STATIC
        ARGFRAME ISTACK, 0, STACK
        ARGFRAME PSTACK, 0, STACK
        ARGFRAME XSTACK, 16, STACK
        ARGFRAME IOVERLAY, 0, STATIC
        ARGFRAME DOVERLAY, 0, STATIC
        FUNCALL ZDO_ProcessParentAnnceRsp, AssocGetWithExt
        LOCFRAME ISTACK, 0, STACK
        LOCFRAME PSTACK, 0, STACK
        LOCFRAME XSTACK, 16, STACK
        LOCFRAME IOVERLAY, 0, STATIC
        LOCFRAME DOVERLAY, 0, STATIC
        ARGFRAME ISTACK, 0, STACK
        ARGFRAME PSTACK, 0, STACK
        ARGFRAME XSTACK, 16, STACK
        ARGFRAME IOVERLAY, 0, STATIC
        ARGFRAME DOVERLAY, 0, STATIC
        FUNCALL ZDO_ProcessParentAnnceRsp, AssocRemove
        LOCFRAME ISTACK, 0, STACK
        LOCFRAME PSTACK, 0, STACK
        LOCFRAME XSTACK, 16, STACK
        LOCFRAME IOVERLAY, 0, STATIC
        LOCFRAME DOVERLAY, 0, STATIC
        ARGFRAME ISTACK, 0, STACK
        ARGFRAME PSTACK, 0, STACK
        ARGFRAME XSTACK, 16, STACK
        ARGFRAME IOVERLAY, 0, STATIC
        ARGFRAME DOVERLAY, 0, STATIC
        FUNCALL ZDO_ProcessParentAnnceRsp, osal_mem_free
        LOCFRAME ISTACK, 0, STACK
        LOCFRAME PSTACK, 0, STACK
        LOCFRAME XSTACK, 16, STACK
        LOCFRAME IOVERLAY, 0, STATIC
        LOCFRAME DOVERLAY, 0, STATIC
        ARGFRAME ISTACK, 0, STACK
        ARGFRAME PSTACK, 0, STACK
        ARGFRAME XSTACK, 16, STACK
        ARGFRAME IOVERLAY, 0, STATIC
        ARGFRAME DOVERLAY, 0, STATIC
        REQUIRE ?V0
        REQUIRE ?V1
        REQUIRE ?V2
        REQUIRE ?V4
        REQUIRE ?V5
        REQUIRE ?V6
        REQUIRE ?V7
        MOV       A,#-0x10
        LCALL     ?BANKED_ENTER_XDATA
          CFI DPH0 load(1, XDATA, add(CFA_XSP16, literal(-1)))
          CFI DPL0 load(1, XDATA, add(CFA_XSP16, literal(-2)))
          CFI ?BRET_EXT load(1, XDATA, add(CFA_XSP16, literal(-3)))
          CFI ?RET_HIGH load(1, XDATA, add(CFA_XSP16, literal(-4)))
          CFI ?RET_LOW load(1, XDATA, add(CFA_XSP16, literal(-5)))
          CFI R7 load(1, XDATA, add(CFA_XSP16, literal(-6)))
          CFI V7 load(1, XDATA, add(CFA_XSP16, literal(-7)))
          CFI V6 load(1, XDATA, add(CFA_XSP16, literal(-8)))
          CFI V5 load(1, XDATA, add(CFA_XSP16, literal(-9)))
          CFI V4 load(1, XDATA, add(CFA_XSP16, literal(-10)))
          CFI V3 load(1, XDATA, add(CFA_XSP16, literal(-11)))
          CFI V2 load(1, XDATA, add(CFA_XSP16, literal(-12)))
          CFI V1 load(1, XDATA, add(CFA_XSP16, literal(-13)))
          CFI V0 load(1, XDATA, add(CFA_XSP16, literal(-14)))
          CFI VB load(1, XDATA, add(CFA_XSP16, literal(-15)))
          CFI R6 load(1, XDATA, add(CFA_XSP16, literal(-16)))
          CFI CFA_SP SP+0
          CFI CFA_XSP16 add(XSP16, 16)
        ; Saved register size: 16
        ; Auto size: 0
        MOV       A,R2
        MOV       R6,A
        MOV       A,R3
        MOV       R7,A
// 2376   ZDO_ParentAnnce_t *parentAnnce;
// 2377   uint8 x;
// 2378 
// 2379   // Parse incoming message, memory is allocated by the parse function,
// 2380   // it should be free after processing the message
// 2381   parentAnnce = ZDO_ParseParentAnnce( inMsg );
        ; Setup parameters for call to function ZDO_ParseParentAnnce
        MOV       A,R6
        MOV       R2,A
        MOV       A,R7
        MOV       R3,A
        LCALL     `??ZDO_ParseParentAnnce::?relay`; Banked call to: ZDO_ParseParentAnnce
        MOV       ?V4,R2
        MOV       ?V5,R3
        MOV       ?V0,?V4
        MOV       ?V1,?V5
// 2382 
// 2383   if ( parentAnnce != NULL )
        MOV       A,?V0
        ORL       A,?V1
        JNZ       $+5
        LJMP      ??ZDO_ProcessParentAnnceRsp_0 & 0xFFFF
// 2384   {
// 2385     for ( x = 0; x < parentAnnce->numOfChildren; x++ )
        MOV       ?V2,#0x0
??ZDO_ProcessParentAnnceRsp_1:
        MOV       DPL,?V0
        MOV       DPH,?V1
        MOVX      A,@DPTR
        MOV       R0,A
        MOV       A,?V2
        CLR       C
        SUBB      A,R0
        JC        $+5
        LJMP      ??ZDO_ProcessParentAnnceRsp_2 & 0xFFFF
// 2386     {
// 2387       associated_devices_t *dev_ptr;
// 2388 
// 2389       // If it's an End Device child
// 2390       dev_ptr = AssocGetWithExt( parentAnnce->childInfo[x].extAddr );
        ; Setup parameters for call to function AssocGetWithExt
        MOV       A,?V2
        MOV       R0,A
        MOV       R1,#0x0
        MOV       A,R0
        MOV       B,#0x8
        MUL       AB
        XCH       A,R0
        MOV       R2,B
        MOV       B,#0x0
        MUL       AB
        ADD       A,R2
        MOV       R2,A
        MOV       B,#0x8
        MOV       A,R1
        MUL       AB
        ADD       A,R2
        MOV       R1,A
        MOV       A,?V0
        ADD       A,R0
        MOV       DPL,A
        MOV       A,?V1
        ADDC      A,R1
        MOV       DPH,A
        INC       DPTR
        MOV       R2,DPL
        MOV       R3,DPH
        LCALL     `??AssocGetWithExt::?relay`; Banked call to: AssocGetWithExt
        MOV       ?V6,R2
        MOV       ?V7,R3
        MOV       ?V4,?V6
        MOV       ?V5,?V7
// 2391 
// 2392       if ( dev_ptr )
        MOV       A,?V4
        ORL       A,?V5
        JZ        ??ZDO_ProcessParentAnnceRsp_3
// 2393       {
// 2394         if ( dev_ptr->nodeRelation == CHILD_RFD ||
// 2395              dev_ptr->nodeRelation == CHILD_RFD_RX_IDLE )
        MOV       DPL,?V4
        MOV       DPH,?V5
        INC       DPTR
        INC       DPTR
        INC       DPTR
        INC       DPTR
        MOVX      A,@DPTR
        XRL       A,#0x1
        JZ        ??ZDO_ProcessParentAnnceRsp_4
        MOV       DPL,?V4
        MOV       DPH,?V5
        INC       DPTR
        INC       DPTR
        INC       DPTR
        INC       DPTR
        MOVX      A,@DPTR
        XRL       A,#0x2
        JNZ       ??ZDO_ProcessParentAnnceRsp_3
// 2396         {
// 2397           AssocRemove( parentAnnce->childInfo[x].extAddr );
??ZDO_ProcessParentAnnceRsp_4:
        ; Setup parameters for call to function AssocRemove
        MOV       A,?V2
        MOV       R0,A
        MOV       R1,#0x0
        MOV       A,R0
        MOV       B,#0x8
        MUL       AB
        XCH       A,R0
        MOV       R2,B
        MOV       B,#0x0
        MUL       AB
        ADD       A,R2
        MOV       R2,A
        MOV       B,#0x8
        MOV       A,R1
        MUL       AB
        ADD       A,R2
        MOV       R1,A
        MOV       A,?V0
        ADD       A,R0
        MOV       DPL,A
        MOV       A,?V1
        ADDC      A,R1
        MOV       DPH,A
        INC       DPTR
        MOV       R2,DPL
        MOV       R3,DPH
        LCALL     `??AssocRemove::?relay`; Banked call to: AssocRemove
        MOV       A,R1
// 2398         }
// 2399       }
// 2400     }
??ZDO_ProcessParentAnnceRsp_3:
        INC       ?V2
        LJMP      ??ZDO_ProcessParentAnnceRsp_1 & 0xFFFF
// 2401 
// 2402     // Free memory allocated by parsing function
// 2403     osal_mem_free( parentAnnce );
??ZDO_ProcessParentAnnceRsp_2:
        ; Setup parameters for call to function osal_mem_free
        MOV       R2,?V0
        MOV       R3,?V1
        LCALL     `??osal_mem_free::?relay`; Banked call to: osal_mem_free
// 2404   }
// 2405 }
??ZDO_ProcessParentAnnceRsp_0:
        MOV       R7,#0x8
        LJMP      ?BANKED_LEAVE_XDATA
          CFI EndBlock cfiBlock32
// 2406 
// 2407 /*********************************************************************
// 2408  * @fn          ZDO_BuildSimpleDescBuf
// 2409  *
// 2410  * @brief       Build a byte sequence representation of a Simple Descriptor.
// 2411  *
// 2412  * @param       buf  - pointer to a byte array big enough for data.
// 2413  * @param       desc - SimpleDescriptionFormat_t *
// 2414  *
// 2415  * @return      none
// 2416  */

        RSEG BANKED_CODE:HUGECODE:NOROOT(0)
// 2417 void ZDO_BuildSimpleDescBuf( uint8 *buf, SimpleDescriptionFormat_t *desc )
ZDO_BuildSimpleDescBuf:
          CFI Block cfiBlock33 Using cfiCommon0
          CFI Function ZDO_BuildSimpleDescBuf
        CODE
// 2418 {
        REQUIRE ?V0
        REQUIRE ?V1
        MOV       A,#-0xa
        LCALL     ?BANKED_ENTER_XDATA
          CFI DPH0 load(1, XDATA, add(CFA_XSP16, literal(-1)))
          CFI DPL0 load(1, XDATA, add(CFA_XSP16, literal(-2)))
          CFI ?BRET_EXT load(1, XDATA, add(CFA_XSP16, literal(-3)))
          CFI ?RET_HIGH load(1, XDATA, add(CFA_XSP16, literal(-4)))
          CFI ?RET_LOW load(1, XDATA, add(CFA_XSP16, literal(-5)))
          CFI R7 load(1, XDATA, add(CFA_XSP16, literal(-6)))
          CFI V1 load(1, XDATA, add(CFA_XSP16, literal(-7)))
          CFI V0 load(1, XDATA, add(CFA_XSP16, literal(-8)))
          CFI VB load(1, XDATA, add(CFA_XSP16, literal(-9)))
          CFI R6 load(1, XDATA, add(CFA_XSP16, literal(-10)))
          CFI CFA_SP SP+0
          CFI CFA_XSP16 add(XSP16, 10)
        ; Saved register size: 10
        ; Auto size: 0
        MOV       A,R4
        MOV       R6,A
        MOV       A,R5
        MOV       R7,A
// 2419   byte cnt;
// 2420   uint16 *ptr;
// 2421 
// 2422   *buf++ = desc->EndPoint;
        MOV       DPL,R6
        MOV       DPH,R7
        MOVX      A,@DPTR
        PUSH      A
          CFI CFA_SP SP+-1
        MOV       DPL,R2
        MOV       DPH,R3
        POP       A
          CFI CFA_SP SP+0
        MOVX      @DPTR,A
        MOV       DPL,R2
        MOV       DPH,R3
        INC       DPTR
        MOV       R2,DPL
        MOV       R3,DPH
// 2423   *buf++ = HI_UINT16( desc->AppProfId );
        MOV       DPL,R6
        MOV       DPH,R7
        INC       DPTR
        MOVX      A,@DPTR
        MOV       ?V0,A
        INC       DPTR
        MOVX      A,@DPTR
        MOV       ?V1,A
        CLR       A
        XCH       A,?V1
        MOV       ?V0,A
        MOV       A,?V0
        PUSH      A
          CFI CFA_SP SP+-1
        MOV       DPL,R2
        MOV       DPH,R3
        POP       A
          CFI CFA_SP SP+0
        MOVX      @DPTR,A
        MOV       DPL,R2
        MOV       DPH,R3
        INC       DPTR
        MOV       R2,DPL
        MOV       R3,DPH
// 2424   *buf++ = LO_UINT16( desc->AppProfId );
        MOV       DPL,R6
        MOV       DPH,R7
        INC       DPTR
        MOVX      A,@DPTR
        MOV       ?V0,A
        INC       DPTR
        MOVX      A,@DPTR
        MOV       ?V1,A
        MOV       A,?V0
        PUSH      A
          CFI CFA_SP SP+-1
        MOV       DPL,R2
        MOV       DPH,R3
        POP       A
          CFI CFA_SP SP+0
        MOVX      @DPTR,A
        MOV       DPL,R2
        MOV       DPH,R3
        INC       DPTR
        MOV       R2,DPL
        MOV       R3,DPH
// 2425   *buf++ = HI_UINT16( desc->AppDeviceId );
        MOV       DPL,R6
        MOV       DPH,R7
        INC       DPTR
        INC       DPTR
        INC       DPTR
        MOVX      A,@DPTR
        MOV       ?V0,A
        INC       DPTR
        MOVX      A,@DPTR
        MOV       ?V1,A
        CLR       A
        XCH       A,?V1
        MOV       ?V0,A
        MOV       A,?V0
        PUSH      A
          CFI CFA_SP SP+-1
        MOV       DPL,R2
        MOV       DPH,R3
        POP       A
          CFI CFA_SP SP+0
        MOVX      @DPTR,A
        MOV       DPL,R2
        MOV       DPH,R3
        INC       DPTR
        MOV       R2,DPL
        MOV       R3,DPH
// 2426   *buf++ = LO_UINT16( desc->AppDeviceId );
        MOV       DPL,R6
        MOV       DPH,R7
        INC       DPTR
        INC       DPTR
        INC       DPTR
        MOVX      A,@DPTR
        MOV       ?V0,A
        INC       DPTR
        MOVX      A,@DPTR
        MOV       ?V1,A
        MOV       A,?V0
        PUSH      A
          CFI CFA_SP SP+-1
        MOV       DPL,R2
        MOV       DPH,R3
        POP       A
          CFI CFA_SP SP+0
        MOVX      @DPTR,A
        MOV       DPL,R2
        MOV       DPH,R3
        INC       DPTR
        MOV       R2,DPL
        MOV       R3,DPH
// 2427 
// 2428   *buf++ = (byte)(desc->AppDevVer << 4);
        MOV       DPL,R6
        MOV       DPH,R7
        INC       DPTR
        INC       DPTR
        INC       DPTR
        INC       DPTR
        INC       DPTR
        MOVX      A,@DPTR
        SWAP      A
        ANL       A,#0xf0
        PUSH      A
          CFI CFA_SP SP+-1
        MOV       DPL,R2
        MOV       DPH,R3
        POP       A
          CFI CFA_SP SP+0
        MOVX      @DPTR,A
        MOV       DPL,R2
        MOV       DPH,R3
        INC       DPTR
        MOV       R2,DPL
        MOV       R3,DPH
// 2429 
// 2430   *buf++ = desc->AppNumInClusters;
        MOV       DPL,R6
        MOV       DPH,R7
        INC       DPTR
        INC       DPTR
        INC       DPTR
        INC       DPTR
        INC       DPTR
        INC       DPTR
        MOVX      A,@DPTR
        PUSH      A
          CFI CFA_SP SP+-1
        MOV       DPL,R2
        MOV       DPH,R3
        POP       A
          CFI CFA_SP SP+0
        MOVX      @DPTR,A
        MOV       DPL,R2
        MOV       DPH,R3
        INC       DPTR
        MOV       R2,DPL
        MOV       R3,DPH
// 2431   ptr = desc->pAppInClusterList;
        MOV       DPL,R6
        MOV       DPH,R7
        INC       DPTR
        INC       DPTR
        INC       DPTR
        INC       DPTR
        INC       DPTR
        INC       DPTR
        INC       DPTR
        MOVX      A,@DPTR
        MOV       ?V0,A
        INC       DPTR
        MOVX      A,@DPTR
        MOV       ?V1,A
        MOV       R0,?V0
        MOV       R1,?V1
// 2432   for ( cnt = 0; cnt < desc->AppNumInClusters; ptr++, cnt++ )
        MOV       R4,#0x0
??ZDO_BuildSimpleDescBuf_0:
        MOV       DPL,R6
        MOV       DPH,R7
        INC       DPTR
        INC       DPTR
        INC       DPTR
        INC       DPTR
        INC       DPTR
        INC       DPTR
        MOVX      A,@DPTR
        MOV       R5,A
        MOV       A,R4
        CLR       C
        SUBB      A,R5
        JNC       ??ZDO_BuildSimpleDescBuf_1
// 2433   {
// 2434     *buf++ = HI_UINT16( *ptr );
        MOV       DPL,R0
        MOV       DPH,R1
        MOVX      A,@DPTR
        MOV       ?V0,A
        INC       DPTR
        MOVX      A,@DPTR
        MOV       ?V1,A
        CLR       A
        XCH       A,?V1
        MOV       ?V0,A
        MOV       A,?V0
        PUSH      A
          CFI CFA_SP SP+-1
        MOV       DPL,R2
        MOV       DPH,R3
        POP       A
          CFI CFA_SP SP+0
        MOVX      @DPTR,A
        MOV       DPL,R2
        MOV       DPH,R3
        INC       DPTR
        MOV       R2,DPL
        MOV       R3,DPH
// 2435     *buf++ = LO_UINT16( *ptr );
        MOV       DPL,R0
        MOV       DPH,R1
        MOVX      A,@DPTR
        MOV       ?V0,A
        INC       DPTR
        MOVX      A,@DPTR
        MOV       ?V1,A
        MOV       A,?V0
        PUSH      A
          CFI CFA_SP SP+-1
        MOV       DPL,R2
        MOV       DPH,R3
        POP       A
          CFI CFA_SP SP+0
        MOVX      @DPTR,A
        MOV       DPL,R2
        MOV       DPH,R3
        INC       DPTR
        MOV       R2,DPL
        MOV       R3,DPH
// 2436   }
        MOV       A,R0
        ADD       A,#0x2
        MOV       R0,A
        JNC       ??ZDO_BuildSimpleDescBuf_2
        INC       R1
??ZDO_BuildSimpleDescBuf_2:
        INC       R4
        SJMP      ??ZDO_BuildSimpleDescBuf_0
// 2437 
// 2438   *buf++ = desc->AppNumOutClusters;
??ZDO_BuildSimpleDescBuf_1:
        MOV       DPL,R6
        MOV       DPH,R7
        INC       DPTR
        INC       DPTR
        INC       DPTR
        INC       DPTR
        INC       DPTR
        INC       DPTR
        INC       DPTR
        INC       DPTR
        INC       DPTR
        MOVX      A,@DPTR
        PUSH      A
          CFI CFA_SP SP+-1
        MOV       DPL,R2
        MOV       DPH,R3
        POP       A
          CFI CFA_SP SP+0
        MOVX      @DPTR,A
        MOV       DPL,R2
        MOV       DPH,R3
        INC       DPTR
        MOV       R2,DPL
        MOV       R3,DPH
// 2439   ptr = desc->pAppOutClusterList;
        MOV       DPL,R6
        MOV       DPH,R7
        INC       DPTR
        INC       DPTR
        INC       DPTR
        INC       DPTR
        INC       DPTR
        INC       DPTR
        INC       DPTR
        INC       DPTR
        INC       DPTR
        INC       DPTR
        MOVX      A,@DPTR
        MOV       ?V0,A
        INC       DPTR
        MOVX      A,@DPTR
        MOV       ?V1,A
        MOV       R0,?V0
        MOV       R1,?V1
// 2440   for ( cnt = 0; cnt < desc->AppNumOutClusters; ptr++, cnt++ )
        MOV       R4,#0x0
??ZDO_BuildSimpleDescBuf_3:
        MOV       DPL,R6
        MOV       DPH,R7
        INC       DPTR
        INC       DPTR
        INC       DPTR
        INC       DPTR
        INC       DPTR
        INC       DPTR
        INC       DPTR
        INC       DPTR
        INC       DPTR
        MOVX      A,@DPTR
        MOV       R5,A
        MOV       A,R4
        CLR       C
        SUBB      A,R5
        JNC       ??ZDO_BuildSimpleDescBuf_4
// 2441   {
// 2442     *buf++ = HI_UINT16( *ptr );
        MOV       DPL,R0
        MOV       DPH,R1
        MOVX      A,@DPTR
        MOV       ?V0,A
        INC       DPTR
        MOVX      A,@DPTR
        MOV       ?V1,A
        CLR       A
        XCH       A,?V1
        MOV       ?V0,A
        MOV       A,?V0
        PUSH      A
          CFI CFA_SP SP+-1
        MOV       DPL,R2
        MOV       DPH,R3
        POP       A
          CFI CFA_SP SP+0
        MOVX      @DPTR,A
        MOV       DPL,R2
        MOV       DPH,R3
        INC       DPTR
        MOV       R2,DPL
        MOV       R3,DPH
// 2443     *buf++ = LO_UINT16( *ptr );
        MOV       DPL,R0
        MOV       DPH,R1
        MOVX      A,@DPTR
        MOV       ?V0,A
        INC       DPTR
        MOVX      A,@DPTR
        MOV       ?V1,A
        MOV       A,?V0
        PUSH      A
          CFI CFA_SP SP+-1
        MOV       DPL,R2
        MOV       DPH,R3
        POP       A
          CFI CFA_SP SP+0
        MOVX      @DPTR,A
        MOV       DPL,R2
        MOV       DPH,R3
        INC       DPTR
        MOV       R2,DPL
        MOV       R3,DPH
// 2444   }
        MOV       A,R0
        ADD       A,#0x2
        MOV       R0,A
        JNC       ??ZDO_BuildSimpleDescBuf_5
        INC       R1
??ZDO_BuildSimpleDescBuf_5:
        INC       R4
        SJMP      ??ZDO_BuildSimpleDescBuf_3
// 2445 }
??ZDO_BuildSimpleDescBuf_4:
        MOV       R7,#0x2
        LJMP      ?BANKED_LEAVE_XDATA
          CFI EndBlock cfiBlock33
// 2446 
// 2447 #if ( ZG_BUILD_COORDINATOR_TYPE )
// 2448 #ifdef ZDO_ENDDEVICEBIND_RESPONSE
// 2449 /*********************************************************************
// 2450  * @fn      ZDO_MatchEndDeviceBind()
// 2451  *
// 2452  * @brief
// 2453  *
// 2454  *   Called to match end device binding requests
// 2455  *
// 2456  * @param  bindReq  - binding request information
// 2457  * @param  SecurityUse - Security enable/disable
// 2458  *
// 2459  * @return  none
// 2460  */
// 2461 void ZDO_MatchEndDeviceBind( ZDEndDeviceBind_t *bindReq )
// 2462 {
// 2463   zAddrType_t dstAddr;
// 2464   uint8 sendRsp = FALSE;
// 2465   uint8 status;
// 2466 
// 2467   // Is this the first request?
// 2468   if ( matchED == NULL )
// 2469   {
// 2470     // Create match info structure
// 2471     matchED = (ZDMatchEndDeviceBind_t *)osal_mem_alloc( sizeof ( ZDMatchEndDeviceBind_t ) );
// 2472     if ( matchED )
// 2473     {
// 2474       // Clear the structure
// 2475       osal_memset( (uint8 *)matchED, 0, sizeof ( ZDMatchEndDeviceBind_t ) );
// 2476 
// 2477       // Copy the first request's information
// 2478       if ( !ZDO_CopyMatchInfo( &(matchED->ed1), bindReq ) )
// 2479       {
// 2480         status = ZDP_NO_ENTRY;
// 2481         sendRsp = TRUE;
// 2482       }
// 2483     }
// 2484     else
// 2485     {
// 2486       status = ZDP_NO_ENTRY;
// 2487       sendRsp = TRUE;
// 2488     }
// 2489 
// 2490     if ( !sendRsp )
// 2491     {
// 2492       // Set into the correct state
// 2493       matchED->state = ZDMATCH_WAIT_REQ;
// 2494 
// 2495       // Setup the timeout
// 2496       APS_SetEndDeviceBindTimeout( AIB_MaxBindingTime, ZDO_EndDeviceBindMatchTimeoutCB );
// 2497     }
// 2498   }
// 2499   else
// 2500   {
// 2501     if(matchED->state == ZDMATCH_WAIT_REQ)//when bind is running,refuse new end-device-bind-req
// 2502     {
// 2503       matchED->state = ZDMATCH_SENDING_BINDS;
// 2504 
// 2505       // Copy the 2nd request's information
// 2506       if ( !ZDO_CopyMatchInfo( &(matchED->ed2), bindReq ) )
// 2507       {
// 2508         status = ZDP_NO_ENTRY;
// 2509         sendRsp = TRUE;
// 2510       }
// 2511 
// 2512       // Make a source match for ed1
// 2513       matchED->ed1numMatched = ZDO_CompareClusterLists(
// 2514       matchED->ed1.numOutClusters, matchED->ed1.outClusters,
// 2515       matchED->ed2.numInClusters, matchED->ed2.inClusters, ZDOBuildBuf );
// 2516       if ( matchED->ed1numMatched )
// 2517       {
// 2518         // Save the match list
// 2519         matchED->ed1Matched = osal_mem_alloc( (short)(matchED->ed1numMatched * sizeof ( uint16 )) );
// 2520         if ( matchED->ed1Matched )
// 2521         {
// 2522           osal_memcpy( matchED->ed1Matched, ZDOBuildBuf, (matchED->ed1numMatched * sizeof ( uint16 )) );
// 2523         }
// 2524         else
// 2525         {
// 2526           // Allocation error, stop
// 2527           status = ZDP_NO_ENTRY;
// 2528           sendRsp = TRUE;
// 2529         }
// 2530       }
// 2531 
// 2532       // Make a source match for ed2
// 2533       matchED->ed2numMatched = ZDO_CompareClusterLists(
// 2534       matchED->ed2.numOutClusters, matchED->ed2.outClusters,
// 2535       matchED->ed1.numInClusters, matchED->ed1.inClusters, ZDOBuildBuf );
// 2536       if ( matchED->ed2numMatched )
// 2537       {
// 2538         // Save the match list
// 2539         matchED->ed2Matched = osal_mem_alloc( (short)(matchED->ed2numMatched * sizeof ( uint16 )) );
// 2540         if ( matchED->ed2Matched )
// 2541         {
// 2542           osal_memcpy( matchED->ed2Matched, ZDOBuildBuf, (matchED->ed2numMatched * sizeof ( uint16 )) );
// 2543         }
// 2544         else
// 2545         {
// 2546           // Allocation error, stop
// 2547           status = ZDP_NO_ENTRY;
// 2548           sendRsp = TRUE;
// 2549         }
// 2550       }
// 2551 
// 2552       if ( (sendRsp == FALSE) && (matchED->ed1numMatched || matchED->ed2numMatched) )
// 2553       {
// 2554         // Do the first unbind/bind state
// 2555         ZDMatchSendState( ZDMATCH_REASON_START, ZDP_SUCCESS, 0 );
// 2556       }
// 2557       else
// 2558       {
// 2559         status = ZDP_NO_MATCH;
// 2560         sendRsp = TRUE;
// 2561       }
// 2562     }
// 2563     else
// 2564     {
// 2565       status = ZDP_NO_ENTRY;
// 2566       dstAddr.addrMode = Addr16Bit;
// 2567       dstAddr.addr.shortAddr = bindReq->srcAddr;
// 2568       ZDP_EndDeviceBindRsp( bindReq->TransSeq, &dstAddr, status, bindReq->SecurityUse );
// 2569       return;
// 2570     }
// 2571   }
// 2572 
// 2573   if ( sendRsp )
// 2574   {
// 2575     // send response to this requester
// 2576     dstAddr.addrMode = Addr16Bit;
// 2577     dstAddr.addr.shortAddr = bindReq->srcAddr;
// 2578     ZDP_EndDeviceBindRsp( bindReq->TransSeq, &dstAddr, status, bindReq->SecurityUse );
// 2579 
// 2580     if ( matchED->state == ZDMATCH_SENDING_BINDS )
// 2581     {
// 2582       // send response to first requester
// 2583       dstAddr.addrMode = Addr16Bit;
// 2584       dstAddr.addr.shortAddr = matchED->ed1.srcAddr;
// 2585       ZDP_EndDeviceBindRsp( matchED->ed1.TransSeq, &dstAddr, status, matchED->ed1.SecurityUse );
// 2586     }
// 2587 
// 2588     // Process ended - release memory used
// 2589     ZDO_RemoveMatchMemory();
// 2590   }
// 2591 }
// 2592 #endif
// 2593 
// 2594 /*********************************************************************
// 2595  * @fn      ZDO_RemoveMatchMemory()
// 2596  *
// 2597  * @brief   Called to clear the memory used for the end device bind.
// 2598  *
// 2599  * @param  none
// 2600  *
// 2601  * @return  none
// 2602  */
// 2603 static void ZDO_RemoveMatchMemory( void )
// 2604 {
// 2605   if ( matchED != NULL )
// 2606   {
// 2607     if ( matchED->ed2Matched != NULL )
// 2608     {
// 2609       osal_mem_free( matchED->ed2Matched );
// 2610     }
// 2611     if ( matchED->ed1Matched != NULL )
// 2612     {
// 2613       osal_mem_free( matchED->ed1Matched );
// 2614     }
// 2615     if ( matchED->ed1.inClusters != NULL )
// 2616     {
// 2617       osal_mem_free( matchED->ed1.inClusters );
// 2618     }
// 2619     if ( matchED->ed1.outClusters != NULL )
// 2620     {
// 2621       osal_mem_free( matchED->ed1.outClusters );
// 2622     }
// 2623     if ( matchED->ed2.inClusters != NULL )
// 2624     {
// 2625       osal_mem_free( matchED->ed2.inClusters );
// 2626     }
// 2627     if ( matchED->ed2.outClusters != NULL )
// 2628     {
// 2629       osal_mem_free( matchED->ed2.outClusters );
// 2630     }
// 2631 
// 2632     osal_mem_free( matchED );
// 2633     matchED = (ZDMatchEndDeviceBind_t *)NULL;
// 2634   }
// 2635 }
// 2636 
// 2637 /*********************************************************************
// 2638  * @fn      ZDO_CopyMatchInfo()
// 2639  *
// 2640  * @brief   Called to copy memory used for the end device bind.
// 2641  *
// 2642  * @param  srcReq - source information
// 2643  * @param  dstReq - destination location
// 2644  *
// 2645  * @return  TRUE if copy was successful.
// 2646  */
// 2647 static uint8 ZDO_CopyMatchInfo( ZDEndDeviceBind_t *destReq, ZDEndDeviceBind_t *srcReq )
// 2648 {
// 2649   uint8 allOK = TRUE;
// 2650 
// 2651   // Copy bind information into the match info structure
// 2652   osal_memcpy( (uint8 *)destReq, srcReq, sizeof ( ZDEndDeviceBind_t ) );
// 2653 
// 2654   // Initialize the destination cluster pointers
// 2655   destReq->inClusters = NULL;
// 2656   destReq->outClusters = NULL;
// 2657 
// 2658   // Copy input cluster IDs
// 2659   if ( srcReq->numInClusters )
// 2660   {
// 2661     destReq->inClusters = osal_mem_alloc( (short)(srcReq->numInClusters * sizeof ( uint16 )) );
// 2662     if ( destReq->inClusters )
// 2663     {
// 2664       // Copy the clusters
// 2665       osal_memcpy( (uint8*)(destReq->inClusters), (uint8 *)(srcReq->inClusters),
// 2666                       (srcReq->numInClusters * sizeof ( uint16 )) );
// 2667     }
// 2668     else
// 2669     {
// 2670       allOK = FALSE;
// 2671     }
// 2672   }
// 2673 
// 2674   // Copy output cluster IDs
// 2675   if ( srcReq->numOutClusters )
// 2676   {
// 2677     destReq->outClusters = osal_mem_alloc( (short)(srcReq->numOutClusters * sizeof ( uint16 )) );
// 2678     if ( destReq->outClusters )
// 2679     {
// 2680       // Copy the clusters
// 2681       osal_memcpy( (uint8 *)(destReq->outClusters), (uint8 *)(srcReq->outClusters),
// 2682                       (srcReq->numOutClusters * sizeof ( uint16 )) );
// 2683     }
// 2684     else
// 2685     {
// 2686       allOK = FALSE;
// 2687     }
// 2688   }
// 2689 
// 2690   if ( allOK == FALSE )
// 2691   {
// 2692     if ( destReq->inClusters != NULL )
// 2693     {
// 2694       osal_mem_free( destReq->inClusters );
// 2695     }
// 2696     if ( destReq->outClusters != NULL )
// 2697     {
// 2698       osal_mem_free( destReq->outClusters );
// 2699     }
// 2700   }
// 2701 
// 2702   return ( allOK );
// 2703 }
// 2704 
// 2705 /*********************************************************************
// 2706  * @fn      ZDMatchSendState()
// 2707  *
// 2708  * @brief   State machine for the End device match message algorithm.
// 2709  *
// 2710  * @param  reason - state of algoritm
// 2711  * @param  status - initial message status
// 2712  * @param  TransSeq - next transaction sequence number
// 2713  *
// 2714  * @return  FALSE if error and we are not currently matching, TRUE
// 2715  *          if success.
// 2716  */
// 2717 uint8 ZDMatchSendState( uint8 reason, uint8 status, uint8 TransSeq )
// 2718 {
// 2719   uint8 *dstIEEEAddr = NULL;
// 2720   uint8 dstEP = 0xFF;
// 2721   zAddrType_t dstAddr;
// 2722   zAddrType_t destinationAddr;
// 2723   uint16 msgType;
// 2724   uint16 clusterID = 0xFFFF;
// 2725   ZDEndDeviceBind_t *ed = NULL;
// 2726   uint8 rspStatus = ZDP_SUCCESS;
// 2727 
// 2728   if ( matchED == NULL )
// 2729   {
// 2730     return ( FALSE );
// 2731   }
// 2732 
// 2733   // Check sequence number
// 2734   if ( reason == ZDMATCH_REASON_BIND_RSP || reason == ZDMATCH_REASON_UNBIND_RSP )
// 2735   {
// 2736     if ( TransSeq != matchED->transSeq )
// 2737     {
// 2738       return( FALSE ); // ignore the message
// 2739     }
// 2740   }
// 2741 
// 2742   // turn off timer
// 2743   APS_SetEndDeviceBindTimeout( 0, ZDO_EndDeviceBindMatchTimeoutCB );
// 2744 
// 2745   if ( reason == ZDMATCH_REASON_TIMEOUT )
// 2746   {
// 2747     rspStatus = ZDP_TIMEOUT;    // The process will stop
// 2748   }
// 2749 
// 2750   if ( reason == ZDMATCH_REASON_START || reason == ZDMATCH_REASON_BIND_RSP )
// 2751   {
// 2752     matchED->sending = ZDMATCH_SENDING_UNBIND;
// 2753 
// 2754     if ( reason == ZDMATCH_REASON_BIND_RSP && status != ZDP_SUCCESS )
// 2755     {
// 2756       rspStatus = status;
// 2757     }
// 2758   }
// 2759   else if ( reason == ZDMATCH_REASON_UNBIND_RSP )
// 2760   {
// 2761     if ( status == ZDP_SUCCESS )
// 2762     {
// 2763       matchED->sending = ZDMATCH_SENDING_UNBIND;
// 2764     }
// 2765     else
// 2766     {
// 2767       matchED->sending = ZDMATCH_SENDING_BIND;
// 2768     }
// 2769   }
// 2770 
// 2771   if ( reason != ZDMATCH_REASON_START && matchED->sending == ZDMATCH_SENDING_UNBIND )
// 2772   {
// 2773     // Move to the next cluster ID
// 2774     if ( matchED->ed1numMatched )
// 2775     {
// 2776       matchED->ed1numMatched--;
// 2777     }
// 2778     else if ( matchED->ed2numMatched )
// 2779     {
// 2780       matchED->ed2numMatched--;
// 2781     }
// 2782   }
// 2783 
// 2784   // What message do we send now
// 2785   if ( matchED->ed1numMatched )
// 2786   {
// 2787     ed = &(matchED->ed1);
// 2788     clusterID = matchED->ed1Matched[matchED->ed1numMatched-1];
// 2789     dstIEEEAddr = matchED->ed2.ieeeAddr;
// 2790     dstEP = matchED->ed2.endpoint;
// 2791   }
// 2792   else if ( matchED->ed2numMatched )
// 2793   {
// 2794     ed = &(matchED->ed2);
// 2795     clusterID = matchED->ed2Matched[matchED->ed2numMatched-1];
// 2796     dstIEEEAddr = matchED->ed1.ieeeAddr;
// 2797     dstEP = matchED->ed1.endpoint;
// 2798   }
// 2799 
// 2800   dstAddr.addrMode = Addr16Bit;
// 2801 
// 2802   // Send the next message
// 2803   if ( (rspStatus == ZDP_SUCCESS) && ed )
// 2804   {
// 2805     // Send unbind/bind message to source
// 2806     if ( matchED->sending == ZDMATCH_SENDING_UNBIND )
// 2807     {
// 2808       msgType = Unbind_req;
// 2809     }
// 2810     else
// 2811     {
// 2812       msgType = Bind_req;
// 2813     }
// 2814 
// 2815     dstAddr.addr.shortAddr = ed->srcAddr;
// 2816 
// 2817     // Save off the transaction sequence number
// 2818     matchED->transSeq = ZDP_TransID;
// 2819 
// 2820     destinationAddr.addrMode = Addr64Bit;
// 2821     osal_cpyExtAddr( destinationAddr.addr.extAddr, dstIEEEAddr );
// 2822 
// 2823     ZDP_BindUnbindReq( msgType, &dstAddr, ed->ieeeAddr, ed->endpoint, clusterID,
// 2824         &destinationAddr, dstEP, ed->SecurityUse );
// 2825 
// 2826     // Set timeout for response
// 2827     APS_SetEndDeviceBindTimeout( AIB_MaxBindingTime, ZDO_EndDeviceBindMatchTimeoutCB );
// 2828   }
// 2829   else
// 2830   {
// 2831     // Send the response messages to requesting devices
// 2832     // send response to first requester
// 2833     dstAddr.addr.shortAddr = matchED->ed1.srcAddr;
// 2834     ZDP_EndDeviceBindRsp( matchED->ed1.TransSeq, &dstAddr, rspStatus, matchED->ed1.SecurityUse );
// 2835 
// 2836     // send response to second requester
// 2837     if ( matchED->state == ZDMATCH_SENDING_BINDS )
// 2838     {
// 2839       dstAddr.addr.shortAddr = matchED->ed2.srcAddr;
// 2840       ZDP_EndDeviceBindRsp( matchED->ed2.TransSeq, &dstAddr, rspStatus, matchED->ed2.SecurityUse );
// 2841     }
// 2842 
// 2843     // Process ended - release memory used
// 2844     ZDO_RemoveMatchMemory();
// 2845   }
// 2846 
// 2847   return ( TRUE );
// 2848 }
// 2849 
// 2850 /*********************************************************************
// 2851  * @fn      ZDO_EndDeviceBindMatchTimeoutCB()
// 2852  *
// 2853  * @brief   End device bind timeout.
// 2854  *
// 2855  * @param  none
// 2856  *
// 2857  * @return  none
// 2858  */
// 2859 static void ZDO_EndDeviceBindMatchTimeoutCB( void )
// 2860 {
// 2861   ZDMatchSendState( ZDMATCH_REASON_TIMEOUT, ZDP_TIMEOUT, 0 );
// 2862 }
// 2863 #endif // ZG_BUILD_COORDINATOR_TYPE
// 2864 
// 2865 /*********************************************************************
// 2866  * ZDO MESSAGE PARSING API FUNCTIONS
// 2867  */
// 2868 
// 2869 #ifdef ZDO_ENDDEVICEBIND_RESPONSE
// 2870 /*********************************************************************
// 2871  * @fn          ZDO_ParseEndDeviceBindReq
// 2872  *
// 2873  * @brief       This function parses the End_Device_Bind_req message.
// 2874  *
// 2875  *     NOTE:  The clusters lists in bindReq are allocated in this
// 2876  *            function and must be freed by that calling function.
// 2877  *
// 2878  * @param       inMsg  - incoming message (request)
// 2879  * @param       bindReq - pointer to place to parse message to
// 2880  *
// 2881  * @return      none
// 2882  */

        RSEG BANKED_CODE:HUGECODE:NOROOT(0)
// 2883 void ZDO_ParseEndDeviceBindReq( zdoIncomingMsg_t *inMsg, ZDEndDeviceBind_t *bindReq )
ZDO_ParseEndDeviceBindReq:
          CFI Block cfiBlock34 Using cfiCommon0
          CFI Function ZDO_ParseEndDeviceBindReq
        CODE
// 2884 {
        FUNCALL ZDO_ParseEndDeviceBindReq, sAddrExtCpy
        LOCFRAME ISTACK, 0, STACK
        LOCFRAME PSTACK, 0, STACK
        LOCFRAME XSTACK, 14, STACK
        LOCFRAME IOVERLAY, 0, STATIC
        LOCFRAME DOVERLAY, 0, STATIC
        ARGFRAME ISTACK, 0, STACK
        ARGFRAME PSTACK, 0, STACK
        ARGFRAME XSTACK, 14, STACK
        ARGFRAME IOVERLAY, 0, STATIC
        ARGFRAME DOVERLAY, 0, STATIC
        FUNCALL ZDO_ParseEndDeviceBindReq, osal_mem_alloc
        LOCFRAME ISTACK, 0, STACK
        LOCFRAME PSTACK, 0, STACK
        LOCFRAME XSTACK, 14, STACK
        LOCFRAME IOVERLAY, 0, STATIC
        LOCFRAME DOVERLAY, 0, STATIC
        ARGFRAME ISTACK, 0, STACK
        ARGFRAME PSTACK, 0, STACK
        ARGFRAME XSTACK, 14, STACK
        ARGFRAME IOVERLAY, 0, STATIC
        ARGFRAME DOVERLAY, 0, STATIC
        FUNCALL ZDO_ParseEndDeviceBindReq, ZDO_ConvertOTAClusters
        LOCFRAME ISTACK, 0, STACK
        LOCFRAME PSTACK, 0, STACK
        LOCFRAME XSTACK, 14, STACK
        LOCFRAME IOVERLAY, 0, STATIC
        LOCFRAME DOVERLAY, 0, STATIC
        ARGFRAME ISTACK, 0, STACK
        ARGFRAME PSTACK, 0, STACK
        ARGFRAME XSTACK, 14, STACK
        ARGFRAME IOVERLAY, 0, STATIC
        ARGFRAME DOVERLAY, 0, STATIC
        FUNCALL ZDO_ParseEndDeviceBindReq, osal_mem_alloc
        LOCFRAME ISTACK, 0, STACK
        LOCFRAME PSTACK, 0, STACK
        LOCFRAME XSTACK, 14, STACK
        LOCFRAME IOVERLAY, 0, STATIC
        LOCFRAME DOVERLAY, 0, STATIC
        ARGFRAME ISTACK, 0, STACK
        ARGFRAME PSTACK, 0, STACK
        ARGFRAME XSTACK, 14, STACK
        ARGFRAME IOVERLAY, 0, STATIC
        ARGFRAME DOVERLAY, 0, STATIC
        FUNCALL ZDO_ParseEndDeviceBindReq, ZDO_ConvertOTAClusters
        LOCFRAME ISTACK, 0, STACK
        LOCFRAME PSTACK, 0, STACK
        LOCFRAME XSTACK, 14, STACK
        LOCFRAME IOVERLAY, 0, STATIC
        LOCFRAME DOVERLAY, 0, STATIC
        ARGFRAME ISTACK, 0, STACK
        ARGFRAME PSTACK, 0, STACK
        ARGFRAME XSTACK, 14, STACK
        ARGFRAME IOVERLAY, 0, STATIC
        ARGFRAME DOVERLAY, 0, STATIC
        REQUIRE ?V0
        REQUIRE ?V1
        REQUIRE ?V2
        REQUIRE ?V3
        REQUIRE ?V4
        REQUIRE ?V5
        MOV       A,#-0xe
        LCALL     ?BANKED_ENTER_XDATA
          CFI DPH0 load(1, XDATA, add(CFA_XSP16, literal(-1)))
          CFI DPL0 load(1, XDATA, add(CFA_XSP16, literal(-2)))
          CFI ?BRET_EXT load(1, XDATA, add(CFA_XSP16, literal(-3)))
          CFI ?RET_HIGH load(1, XDATA, add(CFA_XSP16, literal(-4)))
          CFI ?RET_LOW load(1, XDATA, add(CFA_XSP16, literal(-5)))
          CFI R7 load(1, XDATA, add(CFA_XSP16, literal(-6)))
          CFI V5 load(1, XDATA, add(CFA_XSP16, literal(-7)))
          CFI V4 load(1, XDATA, add(CFA_XSP16, literal(-8)))
          CFI V3 load(1, XDATA, add(CFA_XSP16, literal(-9)))
          CFI V2 load(1, XDATA, add(CFA_XSP16, literal(-10)))
          CFI V1 load(1, XDATA, add(CFA_XSP16, literal(-11)))
          CFI V0 load(1, XDATA, add(CFA_XSP16, literal(-12)))
          CFI VB load(1, XDATA, add(CFA_XSP16, literal(-13)))
          CFI R6 load(1, XDATA, add(CFA_XSP16, literal(-14)))
          CFI CFA_SP SP+0
          CFI CFA_XSP16 add(XSP16, 14)
        ; Saved register size: 14
        ; Auto size: 0
        MOV       ?V2,R2
        MOV       ?V3,R3
        MOV       ?V0,R4
        MOV       ?V1,R5
// 2885   uint8 *msg;
// 2886 
// 2887   // Parse the message
// 2888   bindReq->TransSeq = inMsg->TransSeq;
        MOV       A,?V2
        ADD       A,#0xf
        MOV       DPL,A
        CLR       A
        ADDC      A,?V3
        MOV       DPH,A
        MOVX      A,@DPTR
        PUSH      A
          CFI CFA_SP SP+-1
        MOV       DPL,?V0
        MOV       DPH,?V1
        POP       A
          CFI CFA_SP SP+0
        MOVX      @DPTR,A
// 2889   bindReq->srcAddr = inMsg->srcAddr.addr.shortAddr;
        MOV       DPL,?V2
        MOV       DPH,?V3
        INC       DPTR
        INC       DPTR
        MOVX      A,@DPTR
        MOV       R0,A
        INC       DPTR
        MOVX      A,@DPTR
        MOV       R1,A
        MOV       DPL,?V0
        MOV       DPH,?V1
        INC       DPTR
        INC       DPTR
        MOV       A,R0
        MOVX      @DPTR,A
        INC       DPTR
        MOV       A,R1
        MOVX      @DPTR,A
// 2890   bindReq->SecurityUse = inMsg->SecurityUse;
        MOV       A,?V2
        ADD       A,#0xe
        MOV       DPL,A
        CLR       A
        ADDC      A,?V3
        MOV       DPH,A
        MOVX      A,@DPTR
        PUSH      A
          CFI CFA_SP SP+-1
        MOV       DPL,?V0
        MOV       DPH,?V1
        INC       DPTR
        POP       A
          CFI CFA_SP SP+0
        MOVX      @DPTR,A
// 2891   msg = inMsg->asdu;
        MOV       A,?V2
        ADD       A,#0x13
        MOV       DPL,A
        CLR       A
        ADDC      A,?V3
        MOV       DPH,A
        MOVX      A,@DPTR
        MOV       R0,A
        INC       DPTR
        MOVX      A,@DPTR
        MOV       R1,A
        MOV       A,R0
        MOV       R6,A
        MOV       A,R1
        MOV       R7,A
// 2892 
// 2893   bindReq->localCoordinator = BUILD_UINT16( msg[0], msg[1] );
        MOV       DPL,R6
        MOV       DPH,R7
        MOVX      A,@DPTR
        MOV       R2,A
        MOV       R3,#0x0
        MOV       DPL,R6
        MOV       DPH,R7
        INC       DPTR
        MOVX      A,@DPTR
        MOV       R0,A
        MOV       R1,#0x0
        CLR       A
        XCH       A,R0
        MOV       R1,A
        MOV       A,R2
        ADD       A,R0
        MOV       R0,A
        MOV       A,R3
        ADDC      A,R1
        MOV       R1,A
        MOV       DPL,?V0
        MOV       DPH,?V1
        INC       DPTR
        INC       DPTR
        INC       DPTR
        INC       DPTR
        MOV       A,R0
        MOVX      @DPTR,A
        INC       DPTR
        MOV       A,R1
        MOVX      @DPTR,A
// 2894   msg += 2;
        MOV       A,R6
        ADD       A,#0x2
        MOV       R6,A
        JNC       ??ZDO_ParseEndDeviceBindReq_0
        INC       R7
// 2895 
// 2896   osal_cpyExtAddr( bindReq->ieeeAddr, msg );
??ZDO_ParseEndDeviceBindReq_0:
        ; Setup parameters for call to function sAddrExtCpy
        MOV       A,R6
        MOV       R4,A
        MOV       A,R7
        MOV       R5,A
        MOV       A,?V0
        ADD       A,#0x6
        MOV       R2,A
        CLR       A
        ADDC      A,?V1
        MOV       R3,A
        LCALL     `??sAddrExtCpy::?relay`; Banked call to: sAddrExtCpy
// 2897   msg += Z_EXTADDR_LEN;
        MOV       A,R6
        ADD       A,#0x8
        MOV       R6,A
        JNC       ??ZDO_ParseEndDeviceBindReq_1
        INC       R7
// 2898 
// 2899   bindReq->endpoint = *msg++;
??ZDO_ParseEndDeviceBindReq_1:
        MOV       DPL,R6
        MOV       DPH,R7
        MOVX      A,@DPTR
        PUSH      A
          CFI CFA_SP SP+-1
        MOV       A,?V0
        ADD       A,#0xe
        MOV       DPL,A
        CLR       A
        ADDC      A,?V1
        MOV       DPH,A
        POP       A
          CFI CFA_SP SP+0
        MOVX      @DPTR,A
        MOV       DPL,R6
        MOV       DPH,R7
        INC       DPTR
        MOV       R6,DPL
        MOV       R7,DPH
// 2900   bindReq->profileID = BUILD_UINT16( msg[0], msg[1] );
        MOV       DPL,R6
        MOV       DPH,R7
        MOVX      A,@DPTR
        MOV       R2,A
        MOV       R3,#0x0
        MOV       DPL,R6
        MOV       DPH,R7
        INC       DPTR
        MOVX      A,@DPTR
        MOV       R0,A
        MOV       R1,#0x0
        CLR       A
        XCH       A,R0
        MOV       R1,A
        MOV       A,R2
        ADD       A,R0
        MOV       R0,A
        MOV       A,R3
        ADDC      A,R1
        MOV       R1,A
        MOV       A,?V0
        ADD       A,#0xf
        MOV       DPL,A
        CLR       A
        ADDC      A,?V1
        MOV       DPH,A
        MOV       A,R0
        MOVX      @DPTR,A
        INC       DPTR
        MOV       A,R1
        MOVX      @DPTR,A
// 2901   msg += 2;
        MOV       A,R6
        ADD       A,#0x2
        MOV       R6,A
        JNC       ??ZDO_ParseEndDeviceBindReq_2
        INC       R7
// 2902 
// 2903   bindReq->inClusters = NULL;
??ZDO_ParseEndDeviceBindReq_2:
        MOV       A,?V0
        ADD       A,#0x12
        MOV       DPL,A
        CLR       A
        ADDC      A,?V1
        MOV       DPH,A
        MOV       A,#0x0
        MOVX      @DPTR,A
        INC       DPTR
        MOV       A,#0x0
        MOVX      @DPTR,A
// 2904   bindReq->outClusters = NULL;
        MOV       A,?V0
        ADD       A,#0x15
        MOV       DPL,A
        CLR       A
        ADDC      A,?V1
        MOV       DPH,A
        MOV       A,#0x0
        MOVX      @DPTR,A
        INC       DPTR
        MOV       A,#0x0
        MOVX      @DPTR,A
// 2905 
// 2906   if ((bindReq->numInClusters = *msg++) &&
// 2907       (bindReq->inClusters = (uint16*)osal_mem_alloc( (bindReq->numInClusters * sizeof( uint16 )))))
        MOV       DPL,R6
        MOV       DPH,R7
        MOVX      A,@DPTR
        PUSH      A
          CFI CFA_SP SP+-1
        MOV       A,?V0
        ADD       A,#0x11
        MOV       DPL,A
        CLR       A
        ADDC      A,?V1
        MOV       DPH,A
        POP       A
          CFI CFA_SP SP+0
        MOVX      @DPTR,A
        MOV       DPL,R6
        MOV       DPH,R7
        INC       DPTR
        MOV       R6,DPL
        MOV       R7,DPH
        MOV       A,?V0
        ADD       A,#0x11
        MOV       DPL,A
        CLR       A
        ADDC      A,?V1
        MOV       DPH,A
        MOVX      A,@DPTR
        JZ        ??ZDO_ParseEndDeviceBindReq_3
        ; Setup parameters for call to function osal_mem_alloc
        MOV       A,?V0
        ADD       A,#0x11
        MOV       DPL,A
        CLR       A
        ADDC      A,?V1
        MOV       DPH,A
        MOVX      A,@DPTR
        MOV       R2,A
        MOV       R3,#0x0
        MOV       A,R2
        MOV       B,#0x2
        MUL       AB
        XCH       A,R2
        MOV       R0,B
        MOV       B,#0x0
        MUL       AB
        ADD       A,R0
        MOV       R0,A
        MOV       B,#0x2
        MOV       A,R3
        MUL       AB
        ADD       A,R0
        MOV       R3,A
        LCALL     `??osal_mem_alloc::?relay`; Banked call to: osal_mem_alloc
        MOV       A,?V0
        ADD       A,#0x12
        MOV       DPL,A
        CLR       A
        ADDC      A,?V1
        MOV       DPH,A
        MOV       A,R2
        MOVX      @DPTR,A
        INC       DPTR
        MOV       A,R3
        MOVX      @DPTR,A
        MOV       A,?V0
        ADD       A,#0x12
        MOV       DPL,A
        CLR       A
        ADDC      A,?V1
        MOV       DPH,A
        MOVX      A,@DPTR
        MOV       R0,A
        INC       DPTR
        MOVX      A,@DPTR
        MOV       R1,A
        MOV       A,R0
        ORL       A,R1
        JZ        ??ZDO_ParseEndDeviceBindReq_3
// 2908   {
// 2909     msg = ZDO_ConvertOTAClusters( bindReq->numInClusters, msg, bindReq->inClusters );
        ; Setup parameters for call to function ZDO_ConvertOTAClusters
        MOV       A,?V0
        ADD       A,#0x12
        MOV       DPL,A
        CLR       A
        ADDC      A,?V1
        MOV       DPH,A
        MOVX      A,@DPTR
        MOV       R4,A
        INC       DPTR
        MOVX      A,@DPTR
        MOV       R5,A
        MOV       A,R6
        MOV       R2,A
        MOV       A,R7
        MOV       R3,A
        MOV       A,?V0
        ADD       A,#0x11
        MOV       DPL,A
        CLR       A
        ADDC      A,?V1
        MOV       DPH,A
        MOVX      A,@DPTR
        MOV       R1,A
        LCALL     `??ZDO_ConvertOTAClusters::?relay`; Banked call to: ZDO_ConvertOTAClusters
        MOV       ?V4,R2
        MOV       ?V5,R3
        MOV       R6,?V4
        MOV       R7,?V5
        SJMP      ??ZDO_ParseEndDeviceBindReq_4
// 2910   }
// 2911   else
// 2912   {
// 2913     bindReq->numInClusters = 0;
??ZDO_ParseEndDeviceBindReq_3:
        MOV       A,?V0
        ADD       A,#0x11
        MOV       DPL,A
        CLR       A
        ADDC      A,?V1
        MOV       DPH,A
        MOV       A,#0x0
        MOVX      @DPTR,A
// 2914   }
// 2915 
// 2916   if ((bindReq->numOutClusters = *msg++) &&
// 2917       (bindReq->outClusters = (uint16*)osal_mem_alloc((bindReq->numOutClusters * sizeof(uint16)))))
??ZDO_ParseEndDeviceBindReq_4:
        MOV       DPL,R6
        MOV       DPH,R7
        MOVX      A,@DPTR
        PUSH      A
          CFI CFA_SP SP+-1
        MOV       A,?V0
        ADD       A,#0x14
        MOV       DPL,A
        CLR       A
        ADDC      A,?V1
        MOV       DPH,A
        POP       A
          CFI CFA_SP SP+0
        MOVX      @DPTR,A
        MOV       DPL,R6
        MOV       DPH,R7
        INC       DPTR
        MOV       R6,DPL
        MOV       R7,DPH
        MOV       A,?V0
        ADD       A,#0x14
        MOV       DPL,A
        CLR       A
        ADDC      A,?V1
        MOV       DPH,A
        MOVX      A,@DPTR
        JZ        ??ZDO_ParseEndDeviceBindReq_5
        ; Setup parameters for call to function osal_mem_alloc
        MOV       A,?V0
        ADD       A,#0x14
        MOV       DPL,A
        CLR       A
        ADDC      A,?V1
        MOV       DPH,A
        MOVX      A,@DPTR
        MOV       R2,A
        MOV       R3,#0x0
        MOV       A,R2
        MOV       B,#0x2
        MUL       AB
        XCH       A,R2
        MOV       R0,B
        MOV       B,#0x0
        MUL       AB
        ADD       A,R0
        MOV       R0,A
        MOV       B,#0x2
        MOV       A,R3
        MUL       AB
        ADD       A,R0
        MOV       R3,A
        LCALL     `??osal_mem_alloc::?relay`; Banked call to: osal_mem_alloc
        MOV       A,?V0
        ADD       A,#0x15
        MOV       DPL,A
        CLR       A
        ADDC      A,?V1
        MOV       DPH,A
        MOV       A,R2
        MOVX      @DPTR,A
        INC       DPTR
        MOV       A,R3
        MOVX      @DPTR,A
        MOV       A,?V0
        ADD       A,#0x15
        MOV       DPL,A
        CLR       A
        ADDC      A,?V1
        MOV       DPH,A
        MOVX      A,@DPTR
        MOV       R0,A
        INC       DPTR
        MOVX      A,@DPTR
        MOV       R1,A
        MOV       A,R0
        ORL       A,R1
        JZ        ??ZDO_ParseEndDeviceBindReq_5
// 2918   {
// 2919     msg = ZDO_ConvertOTAClusters( bindReq->numOutClusters, msg, bindReq->outClusters );
        ; Setup parameters for call to function ZDO_ConvertOTAClusters
        MOV       A,?V0
        ADD       A,#0x15
        MOV       DPL,A
        CLR       A
        ADDC      A,?V1
        MOV       DPH,A
        MOVX      A,@DPTR
        MOV       R4,A
        INC       DPTR
        MOVX      A,@DPTR
        MOV       R5,A
        MOV       A,R6
        MOV       R2,A
        MOV       A,R7
        MOV       R3,A
        MOV       A,?V0
        ADD       A,#0x14
        MOV       DPL,A
        CLR       A
        ADDC      A,?V1
        MOV       DPH,A
        MOVX      A,@DPTR
        MOV       R1,A
        LCALL     `??ZDO_ConvertOTAClusters::?relay`; Banked call to: ZDO_ConvertOTAClusters
        MOV       ?V4,R2
        MOV       ?V5,R3
        MOV       R6,?V4
        MOV       R7,?V5
        SJMP      ??ZDO_ParseEndDeviceBindReq_6
// 2920   }
// 2921   else
// 2922   {
// 2923     bindReq->numOutClusters = 0;
??ZDO_ParseEndDeviceBindReq_5:
        MOV       A,?V0
        ADD       A,#0x14
        MOV       DPL,A
        CLR       A
        ADDC      A,?V1
        MOV       DPH,A
        MOV       A,#0x0
        MOVX      @DPTR,A
// 2924   }
// 2925 }
??ZDO_ParseEndDeviceBindReq_6:
        MOV       R7,#0x6
        LJMP      ?BANKED_LEAVE_XDATA
          CFI EndBlock cfiBlock34
// 2926 #endif
// 2927 
// 2928 /*********************************************************************
// 2929  * @fn          ZDO_ParseBindUnbindReq
// 2930  *
// 2931  * @brief       This function parses the Bind_req or Unbind_req message.
// 2932  *
// 2933  * @param       inMsg  - incoming message (request)
// 2934  * @param       pReq - place to put parsed information
// 2935  *
// 2936  * @return      none
// 2937  */

        RSEG BANKED_CODE:HUGECODE:NOROOT(0)
// 2938 void ZDO_ParseBindUnbindReq( zdoIncomingMsg_t *inMsg, ZDO_BindUnbindReq_t *pReq )
ZDO_ParseBindUnbindReq:
          CFI Block cfiBlock35 Using cfiCommon0
          CFI Function ZDO_ParseBindUnbindReq
        CODE
// 2939 {
        FUNCALL ZDO_ParseBindUnbindReq, sAddrExtCpy
        LOCFRAME ISTACK, 0, STACK
        LOCFRAME PSTACK, 0, STACK
        LOCFRAME XSTACK, 12, STACK
        LOCFRAME IOVERLAY, 0, STATIC
        LOCFRAME DOVERLAY, 0, STATIC
        ARGFRAME ISTACK, 0, STACK
        ARGFRAME PSTACK, 0, STACK
        ARGFRAME XSTACK, 12, STACK
        ARGFRAME IOVERLAY, 0, STATIC
        ARGFRAME DOVERLAY, 0, STATIC
        FUNCALL ZDO_ParseBindUnbindReq, sAddrExtCpy
        LOCFRAME ISTACK, 0, STACK
        LOCFRAME PSTACK, 0, STACK
        LOCFRAME XSTACK, 12, STACK
        LOCFRAME IOVERLAY, 0, STATIC
        LOCFRAME DOVERLAY, 0, STATIC
        ARGFRAME ISTACK, 0, STACK
        ARGFRAME PSTACK, 0, STACK
        ARGFRAME XSTACK, 12, STACK
        ARGFRAME IOVERLAY, 0, STATIC
        ARGFRAME DOVERLAY, 0, STATIC
        REQUIRE ?V0
        REQUIRE ?V1
        REQUIRE ?V2
        REQUIRE ?V3
        MOV       A,#-0xc
        LCALL     ?BANKED_ENTER_XDATA
          CFI DPH0 load(1, XDATA, add(CFA_XSP16, literal(-1)))
          CFI DPL0 load(1, XDATA, add(CFA_XSP16, literal(-2)))
          CFI ?BRET_EXT load(1, XDATA, add(CFA_XSP16, literal(-3)))
          CFI ?RET_HIGH load(1, XDATA, add(CFA_XSP16, literal(-4)))
          CFI ?RET_LOW load(1, XDATA, add(CFA_XSP16, literal(-5)))
          CFI R7 load(1, XDATA, add(CFA_XSP16, literal(-6)))
          CFI V3 load(1, XDATA, add(CFA_XSP16, literal(-7)))
          CFI V2 load(1, XDATA, add(CFA_XSP16, literal(-8)))
          CFI V1 load(1, XDATA, add(CFA_XSP16, literal(-9)))
          CFI V0 load(1, XDATA, add(CFA_XSP16, literal(-10)))
          CFI VB load(1, XDATA, add(CFA_XSP16, literal(-11)))
          CFI R6 load(1, XDATA, add(CFA_XSP16, literal(-12)))
          CFI CFA_SP SP+0
          CFI CFA_XSP16 add(XSP16, 12)
        ; Saved register size: 12
        ; Auto size: 0
        MOV       ?V2,R2
        MOV       ?V3,R3
        MOV       ?V0,R4
        MOV       ?V1,R5
// 2940   uint8 *msg;
// 2941 
// 2942   msg = inMsg->asdu;
        MOV       A,?V2
        ADD       A,#0x13
        MOV       DPL,A
        CLR       A
        ADDC      A,?V3
        MOV       DPH,A
        MOVX      A,@DPTR
        MOV       R0,A
        INC       DPTR
        MOVX      A,@DPTR
        MOV       R1,A
        MOV       A,R0
        MOV       R6,A
        MOV       A,R1
        MOV       R7,A
// 2943   osal_cpyExtAddr( pReq->srcAddress, msg );
        ; Setup parameters for call to function sAddrExtCpy
        MOV       A,R6
        MOV       R4,A
        MOV       A,R7
        MOV       R5,A
        MOV       R2,?V0
        MOV       R3,?V1
        LCALL     `??sAddrExtCpy::?relay`; Banked call to: sAddrExtCpy
// 2944   msg += Z_EXTADDR_LEN;
        MOV       A,R6
        ADD       A,#0x8
        MOV       R6,A
        JNC       ??ZDO_ParseBindUnbindReq_0
        INC       R7
// 2945   pReq->srcEndpoint = *msg++;
??ZDO_ParseBindUnbindReq_0:
        MOV       DPL,R6
        MOV       DPH,R7
        MOVX      A,@DPTR
        PUSH      A
          CFI CFA_SP SP+-1
        MOV       DPL,?V0
        MOV       DPH,?V1
        INC       DPTR
        INC       DPTR
        INC       DPTR
        INC       DPTR
        INC       DPTR
        INC       DPTR
        INC       DPTR
        INC       DPTR
        POP       A
          CFI CFA_SP SP+0
        MOVX      @DPTR,A
        MOV       DPL,R6
        MOV       DPH,R7
        INC       DPTR
        MOV       R6,DPL
        MOV       R7,DPH
// 2946   pReq->clusterID = BUILD_UINT16( msg[0], msg[1] );
        MOV       DPL,R6
        MOV       DPH,R7
        MOVX      A,@DPTR
        MOV       R2,A
        MOV       R3,#0x0
        MOV       DPL,R6
        MOV       DPH,R7
        INC       DPTR
        MOVX      A,@DPTR
        MOV       R0,A
        MOV       R1,#0x0
        CLR       A
        XCH       A,R0
        MOV       R1,A
        MOV       A,R2
        ADD       A,R0
        MOV       R0,A
        MOV       A,R3
        ADDC      A,R1
        MOV       R1,A
        MOV       DPL,?V0
        MOV       DPH,?V1
        INC       DPTR
        INC       DPTR
        INC       DPTR
        INC       DPTR
        INC       DPTR
        INC       DPTR
        INC       DPTR
        INC       DPTR
        INC       DPTR
        MOV       A,R0
        MOVX      @DPTR,A
        INC       DPTR
        MOV       A,R1
        MOVX      @DPTR,A
// 2947   msg += 2;
        MOV       A,R6
        ADD       A,#0x2
        MOV       R6,A
        JNC       ??ZDO_ParseBindUnbindReq_1
        INC       R7
// 2948   pReq->dstAddress.addrMode = *msg++;
??ZDO_ParseBindUnbindReq_1:
        MOV       DPL,R6
        MOV       DPH,R7
        MOVX      A,@DPTR
        PUSH      A
          CFI CFA_SP SP+-1
        MOV       A,?V0
        ADD       A,#0x13
        MOV       DPL,A
        CLR       A
        ADDC      A,?V1
        MOV       DPH,A
        POP       A
          CFI CFA_SP SP+0
        MOVX      @DPTR,A
        MOV       DPL,R6
        MOV       DPH,R7
        INC       DPTR
        MOV       R6,DPL
        MOV       R7,DPH
// 2949   if ( pReq->dstAddress.addrMode == Addr64Bit )
        MOV       A,?V0
        ADD       A,#0x13
        MOV       DPL,A
        CLR       A
        ADDC      A,?V1
        MOV       DPH,A
        MOVX      A,@DPTR
        XRL       A,#0x3
        JNZ       ??ZDO_ParseBindUnbindReq_2
// 2950   {
// 2951     osal_cpyExtAddr( pReq->dstAddress.addr.extAddr, msg );
        ; Setup parameters for call to function sAddrExtCpy
        MOV       A,R6
        MOV       R4,A
        MOV       A,R7
        MOV       R5,A
        MOV       A,?V0
        ADD       A,#0xb
        MOV       R2,A
        CLR       A
        ADDC      A,?V1
        MOV       R3,A
        LCALL     `??sAddrExtCpy::?relay`; Banked call to: sAddrExtCpy
// 2952     msg += Z_EXTADDR_LEN;
        MOV       A,R6
        ADD       A,#0x8
        MOV       R6,A
        JNC       ??ZDO_ParseBindUnbindReq_3
        INC       R7
// 2953     pReq->dstEndpoint = *msg;
??ZDO_ParseBindUnbindReq_3:
        MOV       DPL,R6
        MOV       DPH,R7
        MOVX      A,@DPTR
        PUSH      A
          CFI CFA_SP SP+-1
        MOV       A,?V0
        ADD       A,#0x14
        MOV       DPL,A
        CLR       A
        ADDC      A,?V1
        MOV       DPH,A
        POP       A
          CFI CFA_SP SP+0
        MOVX      @DPTR,A
        SJMP      ??ZDO_ParseBindUnbindReq_4
// 2954   }
// 2955   else
// 2956   {
// 2957     // copy group address
// 2958     pReq->dstAddress.addr.shortAddr = BUILD_UINT16( msg[0], msg[1] );
??ZDO_ParseBindUnbindReq_2:
        MOV       DPL,R6
        MOV       DPH,R7
        MOVX      A,@DPTR
        MOV       R2,A
        MOV       R3,#0x0
        MOV       DPL,R6
        MOV       DPH,R7
        INC       DPTR
        MOVX      A,@DPTR
        MOV       R0,A
        MOV       R1,#0x0
        CLR       A
        XCH       A,R0
        MOV       R1,A
        MOV       A,R2
        ADD       A,R0
        MOV       R0,A
        MOV       A,R3
        ADDC      A,R1
        MOV       R1,A
        MOV       A,?V0
        ADD       A,#0xb
        MOV       DPL,A
        CLR       A
        ADDC      A,?V1
        MOV       DPH,A
        MOV       A,R0
        MOVX      @DPTR,A
        INC       DPTR
        MOV       A,R1
        MOVX      @DPTR,A
// 2959   }
// 2960 }
??ZDO_ParseBindUnbindReq_4:
        MOV       R7,#0x4
        LJMP      ?BANKED_LEAVE_XDATA
          CFI EndBlock cfiBlock35
// 2961 
// 2962 /*********************************************************************
// 2963  * @fn      ZDO_ParseAddrRsp
// 2964  *
// 2965  * @brief   Turns the inMsg (incoming message) into the out parsed
// 2966  *          structure.
// 2967  *
// 2968  * @param   inMsg - incoming message
// 2969  *
// 2970  * @return  pointer to parsed structures.  This structure was
// 2971  *          allocated using osal_mem_alloc, so it must be freed
// 2972  *          by the calling function [osal_mem_free()].
// 2973  */

        RSEG BANKED_CODE:HUGECODE:NOROOT(0)
// 2974 ZDO_NwkIEEEAddrResp_t *ZDO_ParseAddrRsp( zdoIncomingMsg_t *inMsg )
ZDO_ParseAddrRsp:
          CFI Block cfiBlock36 Using cfiCommon0
          CFI Function ZDO_ParseAddrRsp
        CODE
// 2975 {
        FUNCALL ZDO_ParseAddrRsp, osal_mem_alloc
        LOCFRAME ISTACK, 0, STACK
        LOCFRAME PSTACK, 0, STACK
        LOCFRAME XSTACK, 16, STACK
        LOCFRAME IOVERLAY, 0, STATIC
        LOCFRAME DOVERLAY, 0, STATIC
        ARGFRAME ISTACK, 0, STACK
        ARGFRAME PSTACK, 0, STACK
        ARGFRAME XSTACK, 16, STACK
        ARGFRAME IOVERLAY, 0, STATIC
        ARGFRAME DOVERLAY, 0, STATIC
        FUNCALL ZDO_ParseAddrRsp, sAddrExtCpy
        LOCFRAME ISTACK, 0, STACK
        LOCFRAME PSTACK, 0, STACK
        LOCFRAME XSTACK, 16, STACK
        LOCFRAME IOVERLAY, 0, STATIC
        LOCFRAME DOVERLAY, 0, STATIC
        ARGFRAME ISTACK, 0, STACK
        ARGFRAME PSTACK, 0, STACK
        ARGFRAME XSTACK, 16, STACK
        ARGFRAME IOVERLAY, 0, STATIC
        ARGFRAME DOVERLAY, 0, STATIC
        REQUIRE ?V0
        REQUIRE ?V1
        REQUIRE ?V2
        REQUIRE ?V3
        REQUIRE ?V4
        REQUIRE ?V5
        REQUIRE ?V6
        REQUIRE ?V7
        MOV       A,#-0x10
        LCALL     ?BANKED_ENTER_XDATA
          CFI DPH0 load(1, XDATA, add(CFA_XSP16, literal(-1)))
          CFI DPL0 load(1, XDATA, add(CFA_XSP16, literal(-2)))
          CFI ?BRET_EXT load(1, XDATA, add(CFA_XSP16, literal(-3)))
          CFI ?RET_HIGH load(1, XDATA, add(CFA_XSP16, literal(-4)))
          CFI ?RET_LOW load(1, XDATA, add(CFA_XSP16, literal(-5)))
          CFI R7 load(1, XDATA, add(CFA_XSP16, literal(-6)))
          CFI V7 load(1, XDATA, add(CFA_XSP16, literal(-7)))
          CFI V6 load(1, XDATA, add(CFA_XSP16, literal(-8)))
          CFI V5 load(1, XDATA, add(CFA_XSP16, literal(-9)))
          CFI V4 load(1, XDATA, add(CFA_XSP16, literal(-10)))
          CFI V3 load(1, XDATA, add(CFA_XSP16, literal(-11)))
          CFI V2 load(1, XDATA, add(CFA_XSP16, literal(-12)))
          CFI V1 load(1, XDATA, add(CFA_XSP16, literal(-13)))
          CFI V0 load(1, XDATA, add(CFA_XSP16, literal(-14)))
          CFI VB load(1, XDATA, add(CFA_XSP16, literal(-15)))
          CFI R6 load(1, XDATA, add(CFA_XSP16, literal(-16)))
          CFI CFA_SP SP+0
          CFI CFA_XSP16 add(XSP16, 16)
        ; Saved register size: 16
        ; Auto size: 0
        MOV       ?V0,R2
        MOV       ?V1,R3
// 2976   ZDO_NwkIEEEAddrResp_t *rsp;
// 2977   uint8 *msg;
// 2978   byte cnt = 0;
        MOV       ?V4,#0x0
// 2979 
// 2980   // Calculate the number of items in the list
// 2981   if ( inMsg->asduLen > (1 + Z_EXTADDR_LEN + 2) )
        MOV       A,?V0
        ADD       A,#0x10
        MOV       DPL,A
        CLR       A
        ADDC      A,?V1
        MOV       DPH,A
        MOVX      A,@DPTR
        CLR       C
        SUBB      A,#0xc
        JC        ??ZDO_ParseAddrRsp_0
// 2982   {
// 2983     cnt = inMsg->asdu[1 + Z_EXTADDR_LEN + 2];
        MOV       A,?V0
        ADD       A,#0x13
        MOV       DPL,A
        CLR       A
        ADDC      A,?V1
        MOV       DPH,A
        MOVX      A,@DPTR
        MOV       R0,A
        INC       DPTR
        MOVX      A,@DPTR
        XCH       A,R0
        ADD       A,#0xb
        MOV       DPL,A
        XCH       A,R0
        ADDC      A,#0x0
        MOV       DPH,A
        MOVX      A,@DPTR
        MOV       ?V4,A
        SJMP      ??ZDO_ParseAddrRsp_1
// 2984   }
// 2985   else
// 2986   {
// 2987     cnt = 0;
??ZDO_ParseAddrRsp_0:
        MOV       ?V4,#0x0
// 2988   }
// 2989 
// 2990   // Make buffer
// 2991   rsp = (ZDO_NwkIEEEAddrResp_t *)osal_mem_alloc( sizeof(ZDO_NwkIEEEAddrResp_t) + (cnt * sizeof ( uint16 )) );
??ZDO_ParseAddrRsp_1:
        ; Setup parameters for call to function osal_mem_alloc
        MOV       A,?V4
        MOV       R0,A
        MOV       R1,#0x0
        MOV       A,R0
        MOV       B,#0x2
        MUL       AB
        XCH       A,R0
        MOV       R2,B
        MOV       B,#0x0
        MUL       AB
        ADD       A,R2
        MOV       R2,A
        MOV       B,#0x2
        MOV       A,R1
        MUL       AB
        ADD       A,R2
        MOV       R1,A
        MOV       A,R0
        ADD       A,#0xd
        MOV       R2,A
        CLR       A
        ADDC      A,R1
        MOV       R3,A
        LCALL     `??osal_mem_alloc::?relay`; Banked call to: osal_mem_alloc
        MOV       ?V6,R2
        MOV       ?V7,R3
        MOV       R6,?V6
        MOV       R7,?V7
// 2992 
// 2993   if ( rsp )
        MOV       A,R6
        ORL       A,R7
        JNZ       $+5
        LJMP      ??ZDO_ParseAddrRsp_2 & 0xFFFF
// 2994   {
// 2995     msg = inMsg->asdu;
        MOV       A,?V0
        ADD       A,#0x13
        MOV       DPL,A
        CLR       A
        ADDC      A,?V1
        MOV       DPH,A
        MOVX      A,@DPTR
        MOV       R0,A
        INC       DPTR
        MOVX      A,@DPTR
        MOV       R1,A
        MOV       ?V2,R0
        MOV       ?V3,R1
// 2996 
// 2997     rsp->status = *msg++;
        MOV       DPL,?V2
        MOV       DPH,?V3
        MOVX      A,@DPTR
        PUSH      A
          CFI CFA_SP SP+-1
        MOV       DPL,R6
        MOV       DPH,R7
        POP       A
          CFI CFA_SP SP+0
        MOVX      @DPTR,A
        MOV       DPL,?V2
        MOV       DPH,?V3
        INC       DPTR
        MOV       ?V2,DPL
        MOV       ?V3,DPH
// 2998     if ( rsp->status == ZDO_SUCCESS )
        MOV       DPL,R6
        MOV       DPH,R7
        MOVX      A,@DPTR
        JZ        $+5
        LJMP      ??ZDO_ParseAddrRsp_2 & 0xFFFF
// 2999     {
// 3000       osal_cpyExtAddr( rsp->extAddr, msg );
        ; Setup parameters for call to function sAddrExtCpy
        MOV       R4,?V2
        MOV       R5,?V3
        MOV       A,R6
        ADD       A,#0x3
        MOV       R2,A
        CLR       A
        ADDC      A,R7
        MOV       R3,A
        LCALL     `??sAddrExtCpy::?relay`; Banked call to: sAddrExtCpy
// 3001       msg += Z_EXTADDR_LEN;
        MOV       A,?V2
        ADD       A,#0x8
        MOV       ?V2,A
        JNC       ??ZDO_ParseAddrRsp_3
        INC       ?V3
// 3002       rsp->nwkAddr = BUILD_UINT16( msg[0], msg[1] );
??ZDO_ParseAddrRsp_3:
        MOV       DPL,?V2
        MOV       DPH,?V3
        MOVX      A,@DPTR
        MOV       R2,A
        MOV       R3,#0x0
        MOV       DPL,?V2
        MOV       DPH,?V3
        INC       DPTR
        MOVX      A,@DPTR
        MOV       R0,A
        MOV       R1,#0x0
        CLR       A
        XCH       A,R0
        MOV       R1,A
        MOV       A,R2
        ADD       A,R0
        MOV       R0,A
        MOV       A,R3
        ADDC      A,R1
        MOV       R1,A
        MOV       DPL,R6
        MOV       DPH,R7
        INC       DPTR
        MOV       A,R0
        MOVX      @DPTR,A
        INC       DPTR
        MOV       A,R1
        MOVX      @DPTR,A
// 3003 
// 3004       msg += 2;
        MOV       A,?V2
        ADD       A,#0x2
        MOV       ?V2,A
        JNC       ??ZDO_ParseAddrRsp_4
        INC       ?V3
// 3005       rsp->numAssocDevs = 0;
??ZDO_ParseAddrRsp_4:
        MOV       A,R6
        ADD       A,#0xb
        MOV       DPL,A
        CLR       A
        ADDC      A,R7
        MOV       DPH,A
        MOV       A,#0x0
        MOVX      @DPTR,A
// 3006 
// 3007       // StartIndex field is only present if NumAssocDev field is non-zero.
// 3008       if ( cnt > 0 )
        MOV       A,?V4
        JNZ       $+5
        LJMP      ??ZDO_ParseAddrRsp_2 & 0xFFFF
// 3009       {
// 3010         uint16 *pList = &(rsp->devList[0]);
        MOV       A,R6
        ADD       A,#0xd
        MOV       R0,A
        CLR       A
        ADDC      A,R7
        MOV       R1,A
// 3011         byte n = cnt;
        MOV       ?V5,?V4
// 3012 
// 3013         rsp->numAssocDevs = *msg++;
        MOV       DPL,?V2
        MOV       DPH,?V3
        MOVX      A,@DPTR
        PUSH      A
          CFI CFA_SP SP+-1
        MOV       A,R6
        ADD       A,#0xb
        MOV       DPL,A
        CLR       A
        ADDC      A,R7
        MOV       DPH,A
        POP       A
          CFI CFA_SP SP+0
        MOVX      @DPTR,A
        MOV       DPL,?V2
        MOV       DPH,?V3
        INC       DPTR
        MOV       ?V2,DPL
        MOV       ?V3,DPH
// 3014         rsp->startIndex = *msg++;
        MOV       DPL,?V2
        MOV       DPH,?V3
        MOVX      A,@DPTR
        PUSH      A
          CFI CFA_SP SP+-1
        MOV       A,R6
        ADD       A,#0xc
        MOV       DPL,A
        CLR       A
        ADDC      A,R7
        MOV       DPH,A
        POP       A
          CFI CFA_SP SP+0
        MOVX      @DPTR,A
        MOV       DPL,?V2
        MOV       DPH,?V3
        INC       DPTR
        MOV       ?V2,DPL
        MOV       ?V3,DPH
// 3015 
// 3016         while ( n != 0 )
??ZDO_ParseAddrRsp_5:
        MOV       A,?V5
        JZ        ??ZDO_ParseAddrRsp_2
// 3017         {
// 3018           *pList++ = BUILD_UINT16( msg[0], msg[1] );
        MOV       DPL,?V2
        MOV       DPH,?V3
        MOVX      A,@DPTR
        MOV       R4,A
        MOV       R5,#0x0
        MOV       DPL,?V2
        MOV       DPH,?V3
        INC       DPTR
        MOVX      A,@DPTR
        MOV       R2,A
        MOV       R3,#0x0
        CLR       A
        XCH       A,R2
        MOV       R3,A
        MOV       A,R4
        ADD       A,R2
        MOV       R2,A
        MOV       A,R5
        ADDC      A,R3
        MOV       R3,A
        MOV       DPL,R0
        MOV       DPH,R1
        MOV       A,R2
        MOVX      @DPTR,A
        INC       DPTR
        MOV       A,R3
        MOVX      @DPTR,A
        MOV       A,R0
        ADD       A,#0x2
        MOV       R0,A
        JNC       ??ZDO_ParseAddrRsp_6
        INC       R1
// 3019           msg += sizeof( uint16 );
??ZDO_ParseAddrRsp_6:
        MOV       A,?V2
        ADD       A,#0x2
        MOV       ?V2,A
        JNC       ??ZDO_ParseAddrRsp_7
        INC       ?V3
// 3020           n--;
??ZDO_ParseAddrRsp_7:
        DEC       ?V5
        SJMP      ??ZDO_ParseAddrRsp_5
// 3021         }
// 3022       }
// 3023     }
// 3024   }
// 3025 
// 3026   return ( rsp );
??ZDO_ParseAddrRsp_2:
        MOV       A,R6
        MOV       R2,A
        MOV       A,R7
        MOV       R3,A
        MOV       R7,#0x8
        LJMP      ?BANKED_LEAVE_XDATA
// 3027 }
          CFI EndBlock cfiBlock36
// 3028 
// 3029 /*********************************************************************
// 3030  * @fn          ZDO_ParseNodeDescRsp
// 3031  *
// 3032  * @brief       This function parses the Node_Desc_rsp message.
// 3033  *
// 3034  * @param       inMsg - incoming message
// 3035  * @param       pNDRsp - place to parse the message into
// 3036  *
// 3037  * @return      none
// 3038  */

        RSEG BANKED_CODE:HUGECODE:NOROOT(0)
// 3039 void ZDO_ParseNodeDescRsp( zdoIncomingMsg_t *inMsg, ZDO_NodeDescRsp_t *pNDRsp )
ZDO_ParseNodeDescRsp:
          CFI Block cfiBlock37 Using cfiCommon0
          CFI Function ZDO_ParseNodeDescRsp
        CODE
// 3040 {
        REQUIRE ?V0
        REQUIRE ?V1
        MOV       A,#-0xa
        LCALL     ?BANKED_ENTER_XDATA
          CFI DPH0 load(1, XDATA, add(CFA_XSP16, literal(-1)))
          CFI DPL0 load(1, XDATA, add(CFA_XSP16, literal(-2)))
          CFI ?BRET_EXT load(1, XDATA, add(CFA_XSP16, literal(-3)))
          CFI ?RET_HIGH load(1, XDATA, add(CFA_XSP16, literal(-4)))
          CFI ?RET_LOW load(1, XDATA, add(CFA_XSP16, literal(-5)))
          CFI R7 load(1, XDATA, add(CFA_XSP16, literal(-6)))
          CFI V1 load(1, XDATA, add(CFA_XSP16, literal(-7)))
          CFI V0 load(1, XDATA, add(CFA_XSP16, literal(-8)))
          CFI VB load(1, XDATA, add(CFA_XSP16, literal(-9)))
          CFI R6 load(1, XDATA, add(CFA_XSP16, literal(-10)))
          CFI CFA_SP SP+0
          CFI CFA_XSP16 add(XSP16, 10)
        ; Saved register size: 10
        ; Auto size: 1
        MOV       A,#-0x1
        LCALL     ?ALLOC_XSTACK8
          CFI CFA_XSP16 add(XSP16, 11)
// 3041   uint8 *msg;
// 3042 
// 3043   msg = inMsg->asdu;
        MOV       A,R2
        ADD       A,#0x13
        MOV       DPL,A
        CLR       A
        ADDC      A,R3
        MOV       DPH,A
        MOVX      A,@DPTR
        MOV       R6,A
        INC       DPTR
        MOVX      A,@DPTR
        MOV       R7,A
        MOV       A,R6
        MOV       R0,A
        MOV       A,R7
        MOV       R1,A
// 3044 
// 3045   pNDRsp->status = *msg++;
        MOV       DPL,R0
        MOV       DPH,R1
        MOVX      A,@DPTR
        PUSH      A
          CFI CFA_SP SP+-1
        MOV       DPL,R4
        MOV       DPH,R5
        POP       A
          CFI CFA_SP SP+0
        MOVX      @DPTR,A
        MOV       DPL,R0
        MOV       DPH,R1
        INC       DPTR
        MOV       R0,DPL
        MOV       R1,DPH
// 3046   pNDRsp->nwkAddr = BUILD_UINT16( msg[0], msg[1] );
        MOV       DPL,R0
        MOV       DPH,R1
        MOVX      A,@DPTR
        MOV       ?V0,A
        MOV       ?V1,#0x0
        MOV       DPL,R0
        MOV       DPH,R1
        INC       DPTR
        MOVX      A,@DPTR
        MOV       R6,A
        MOV       R7,#0x0
        CLR       A
        XCH       A,R6
        MOV       R7,A
        MOV       A,?V0
        ADD       A,R6
        MOV       R6,A
        MOV       A,?V1
        ADDC      A,R7
        MOV       R7,A
        MOV       DPL,R4
        MOV       DPH,R5
        INC       DPTR
        MOV       A,R6
        MOVX      @DPTR,A
        INC       DPTR
        MOV       A,R7
        MOVX      @DPTR,A
// 3047 
// 3048   if ( pNDRsp->status == ZDP_SUCCESS )
        MOV       DPL,R4
        MOV       DPH,R5
        MOVX      A,@DPTR
        JZ        $+5
        LJMP      ??ZDO_ParseNodeDescRsp_0 & 0xFFFF
// 3049   {
// 3050     msg += 2;
        MOV       A,R0
        ADD       A,#0x2
        MOV       R0,A
        JNC       ??ZDO_ParseNodeDescRsp_1
        INC       R1
// 3051     pNDRsp->nodeDesc.LogicalType = *msg & 0x07;
??ZDO_ParseNodeDescRsp_1:
        MOV       DPL,R0
        MOV       DPH,R1
        MOVX      A,@DPTR
        ANL       A,#0x7
        MOV       R6,A
        MOV       A,#0x7
        ANL       A,R6
        MOV       R6,A
        MOV       DPL,R4
        MOV       DPH,R5
        INC       DPTR
        INC       DPTR
        INC       DPTR
        MOVX      A,@DPTR
        ANL       A,#0xf8
        ORL       A,R6
        PUSH      A
          CFI CFA_SP SP+-1
        MOV       DPL,R4
        MOV       DPH,R5
        INC       DPTR
        INC       DPTR
        INC       DPTR
        POP       A
          CFI CFA_SP SP+0
        MOVX      @DPTR,A
// 3052 
// 3053     pNDRsp->nodeDesc.ComplexDescAvail = ( *msg & 0x08 ) >> 3;
        MOV       DPL,R0
        MOV       DPH,R1
        MOVX      A,@DPTR
        MOV       C,0xE0 /* A   */.3
        CLR       A
        RLC       A
        MOV       R6,A
        MOV       A,R6
        MOV       C,0xE0 /* A   */.0
        CLR       A
        RLC       A
        RLC       A
        RLC       A
        RLC       A
        ANL       A,#0xf8
        ANL       A,#0x8
        MOV       R6,A
        MOV       DPL,R4
        MOV       DPH,R5
        INC       DPTR
        INC       DPTR
        INC       DPTR
        MOVX      A,@DPTR
        ANL       A,#0xf7
        ORL       A,R6
        PUSH      A
          CFI CFA_SP SP+-1
        MOV       DPL,R4
        MOV       DPH,R5
        INC       DPTR
        INC       DPTR
        INC       DPTR
        POP       A
          CFI CFA_SP SP+0
        MOVX      @DPTR,A
// 3054     pNDRsp->nodeDesc.UserDescAvail = ( *msg & 0x10 ) >> 4;
        MOV       DPL,R0
        MOV       DPH,R1
        MOVX      A,@DPTR
        MOV       C,0xE0 /* A   */.4
        CLR       A
        RLC       A
        MOV       R6,A
        MOV       A,R6
        MOV       C,0xE0 /* A   */.0
        CLR       A
        RLC       A
        SWAP      A
        ANL       A,#0xf0
        ANL       A,#0x10
        MOV       R6,A
        MOV       DPL,R4
        MOV       DPH,R5
        INC       DPTR
        INC       DPTR
        INC       DPTR
        MOVX      A,@DPTR
        ANL       A,#0xef
        ORL       A,R6
        PUSH      A
          CFI CFA_SP SP+-1
        MOV       DPL,R4
        MOV       DPH,R5
        INC       DPTR
        INC       DPTR
        INC       DPTR
        POP       A
          CFI CFA_SP SP+0
        MOVX      @DPTR,A
// 3055 
// 3056     msg++;  // Reserved bits.
        MOV       DPL,R0
        MOV       DPH,R1
        INC       DPTR
        MOV       R0,DPL
        MOV       R1,DPH
// 3057     pNDRsp->nodeDesc.FrequencyBand = (*msg >> 3) & 0x1f;
        MOV       DPL,R0
        MOV       DPH,R1
        MOVX      A,@DPTR
        RRC       A
        RRC       A
        RRC       A
        ANL       A,#0x1f
        PUSH      A
          CFI CFA_SP SP+-1
        MOV       DPL,?XSP + 0
        MOV       DPH,?XSP + 1
        POP       A
          CFI CFA_SP SP+0
        MOVX      @DPTR,A
        MOV       DPL,?XSP + 0
        MOV       DPH,?XSP + 1
        MOVX      A,@DPTR
        RLC       A
        RLC       A
        RLC       A
        ANL       A,#0xf8
        MOV       R6,A
        MOV       DPL,R4
        MOV       DPH,R5
        INC       DPTR
        INC       DPTR
        INC       DPTR
        INC       DPTR
        MOVX      A,@DPTR
        ANL       A,#0x7
        ORL       A,R6
        PUSH      A
          CFI CFA_SP SP+-1
        MOV       DPL,R4
        MOV       DPH,R5
        INC       DPTR
        INC       DPTR
        INC       DPTR
        INC       DPTR
        POP       A
          CFI CFA_SP SP+0
        MOVX      @DPTR,A
// 3058     pNDRsp->nodeDesc.APSFlags = *msg++ & 0x07;
        MOV       DPL,R0
        MOV       DPH,R1
        MOVX      A,@DPTR
        ANL       A,#0x7
        MOV       R6,A
        MOV       DPL,R0
        MOV       DPH,R1
        INC       DPTR
        MOV       R0,DPL
        MOV       R1,DPH
        MOV       A,#0x7
        ANL       A,R6
        MOV       R6,A
        MOV       DPL,R4
        MOV       DPH,R5
        INC       DPTR
        INC       DPTR
        INC       DPTR
        INC       DPTR
        MOVX      A,@DPTR
        ANL       A,#0xf8
        ORL       A,R6
        PUSH      A
          CFI CFA_SP SP+-1
        MOV       DPL,R4
        MOV       DPH,R5
        INC       DPTR
        INC       DPTR
        INC       DPTR
        INC       DPTR
        POP       A
          CFI CFA_SP SP+0
        MOVX      @DPTR,A
// 3059     pNDRsp->nodeDesc.CapabilityFlags = *msg++;
        MOV       DPL,R0
        MOV       DPH,R1
        MOVX      A,@DPTR
        PUSH      A
          CFI CFA_SP SP+-1
        MOV       DPL,R4
        MOV       DPH,R5
        INC       DPTR
        INC       DPTR
        INC       DPTR
        INC       DPTR
        INC       DPTR
        POP       A
          CFI CFA_SP SP+0
        MOVX      @DPTR,A
        MOV       DPL,R0
        MOV       DPH,R1
        INC       DPTR
        MOV       R0,DPL
        MOV       R1,DPH
// 3060     pNDRsp->nodeDesc.ManufacturerCode[0] = *msg++;
        MOV       DPL,R0
        MOV       DPH,R1
        MOVX      A,@DPTR
        PUSH      A
          CFI CFA_SP SP+-1
        MOV       DPL,R4
        MOV       DPH,R5
        INC       DPTR
        INC       DPTR
        INC       DPTR
        INC       DPTR
        INC       DPTR
        INC       DPTR
        POP       A
          CFI CFA_SP SP+0
        MOVX      @DPTR,A
        MOV       DPL,R0
        MOV       DPH,R1
        INC       DPTR
        MOV       R0,DPL
        MOV       R1,DPH
// 3061     pNDRsp->nodeDesc.ManufacturerCode[1] = *msg++;
        MOV       DPL,R0
        MOV       DPH,R1
        MOVX      A,@DPTR
        PUSH      A
          CFI CFA_SP SP+-1
        MOV       DPL,R4
        MOV       DPH,R5
        INC       DPTR
        INC       DPTR
        INC       DPTR
        INC       DPTR
        INC       DPTR
        INC       DPTR
        INC       DPTR
        POP       A
          CFI CFA_SP SP+0
        MOVX      @DPTR,A
        MOV       DPL,R0
        MOV       DPH,R1
        INC       DPTR
        MOV       R0,DPL
        MOV       R1,DPH
// 3062     pNDRsp->nodeDesc.MaxBufferSize = *msg++;
        MOV       DPL,R0
        MOV       DPH,R1
        MOVX      A,@DPTR
        PUSH      A
          CFI CFA_SP SP+-1
        MOV       DPL,R4
        MOV       DPH,R5
        INC       DPTR
        INC       DPTR
        INC       DPTR
        INC       DPTR
        INC       DPTR
        INC       DPTR
        INC       DPTR
        INC       DPTR
        POP       A
          CFI CFA_SP SP+0
        MOVX      @DPTR,A
        MOV       DPL,R0
        MOV       DPH,R1
        INC       DPTR
        MOV       R0,DPL
        MOV       R1,DPH
// 3063     pNDRsp->nodeDesc.MaxInTransferSize[0] = *msg++;
        MOV       DPL,R0
        MOV       DPH,R1
        MOVX      A,@DPTR
        PUSH      A
          CFI CFA_SP SP+-1
        MOV       DPL,R4
        MOV       DPH,R5
        INC       DPTR
        INC       DPTR
        INC       DPTR
        INC       DPTR
        INC       DPTR
        INC       DPTR
        INC       DPTR
        INC       DPTR
        INC       DPTR
        POP       A
          CFI CFA_SP SP+0
        MOVX      @DPTR,A
        MOV       DPL,R0
        MOV       DPH,R1
        INC       DPTR
        MOV       R0,DPL
        MOV       R1,DPH
// 3064     pNDRsp->nodeDesc.MaxInTransferSize[1] = *msg++;
        MOV       DPL,R0
        MOV       DPH,R1
        MOVX      A,@DPTR
        PUSH      A
          CFI CFA_SP SP+-1
        MOV       DPL,R4
        MOV       DPH,R5
        INC       DPTR
        INC       DPTR
        INC       DPTR
        INC       DPTR
        INC       DPTR
        INC       DPTR
        INC       DPTR
        INC       DPTR
        INC       DPTR
        INC       DPTR
        POP       A
          CFI CFA_SP SP+0
        MOVX      @DPTR,A
        MOV       DPL,R0
        MOV       DPH,R1
        INC       DPTR
        MOV       R0,DPL
        MOV       R1,DPH
// 3065     pNDRsp->nodeDesc.ServerMask = BUILD_UINT16( msg[0], msg[1] );
        MOV       DPL,R0
        MOV       DPH,R1
        MOVX      A,@DPTR
        MOV       ?V0,A
        MOV       ?V1,#0x0
        MOV       DPL,R0
        MOV       DPH,R1
        INC       DPTR
        MOVX      A,@DPTR
        MOV       R6,A
        MOV       R7,#0x0
        CLR       A
        XCH       A,R6
        MOV       R7,A
        MOV       A,?V0
        ADD       A,R6
        MOV       R6,A
        MOV       A,?V1
        ADDC      A,R7
        MOV       R7,A
        MOV       A,R4
        ADD       A,#0xb
        MOV       DPL,A
        CLR       A
        ADDC      A,R5
        MOV       DPH,A
        MOV       A,R6
        MOVX      @DPTR,A
        INC       DPTR
        MOV       A,R7
        MOVX      @DPTR,A
// 3066     msg += 2;
        MOV       A,R0
        ADD       A,#0x2
        MOV       R0,A
        JNC       ??ZDO_ParseNodeDescRsp_2
        INC       R1
// 3067     pNDRsp->nodeDesc.MaxOutTransferSize[0] = *msg++;
??ZDO_ParseNodeDescRsp_2:
        MOV       DPL,R0
        MOV       DPH,R1
        MOVX      A,@DPTR
        PUSH      A
          CFI CFA_SP SP+-1
        MOV       A,R4
        ADD       A,#0xd
        MOV       DPL,A
        CLR       A
        ADDC      A,R5
        MOV       DPH,A
        POP       A
          CFI CFA_SP SP+0
        MOVX      @DPTR,A
        MOV       DPL,R0
        MOV       DPH,R1
        INC       DPTR
        MOV       R0,DPL
        MOV       R1,DPH
// 3068     pNDRsp->nodeDesc.MaxOutTransferSize[1] = *msg++;
        MOV       DPL,R0
        MOV       DPH,R1
        MOVX      A,@DPTR
        PUSH      A
          CFI CFA_SP SP+-1
        MOV       A,R4
        ADD       A,#0xe
        MOV       DPL,A
        CLR       A
        ADDC      A,R5
        MOV       DPH,A
        POP       A
          CFI CFA_SP SP+0
        MOVX      @DPTR,A
        MOV       DPL,R0
        MOV       DPH,R1
        INC       DPTR
        MOV       R0,DPL
        MOV       R1,DPH
// 3069     pNDRsp->nodeDesc.DescriptorCapability = *msg;
        MOV       DPL,R0
        MOV       DPH,R1
        MOVX      A,@DPTR
        PUSH      A
          CFI CFA_SP SP+-1
        MOV       A,R4
        ADD       A,#0xf
        MOV       DPL,A
        CLR       A
        ADDC      A,R5
        MOV       DPH,A
        POP       A
          CFI CFA_SP SP+0
        MOVX      @DPTR,A
// 3070   }
// 3071 }
??ZDO_ParseNodeDescRsp_0:
        MOV       A,#0x1
        LCALL     ?DEALLOC_XSTACK8
          CFI CFA_XSP16 add(XSP16, 10)
        MOV       R7,#0x2
        LJMP      ?BANKED_LEAVE_XDATA
          CFI EndBlock cfiBlock37
// 3072 
// 3073 /*********************************************************************
// 3074  * @fn          ZDO_ParsePowerDescRsp
// 3075  *
// 3076  * @brief       This function parses the Power_Desc_rsp message.
// 3077  *
// 3078  * @param       inMsg  - incoming message
// 3079  * @param       pNPRsp - place to parse the message into
// 3080  *
// 3081  * @return      none
// 3082  */

        RSEG BANKED_CODE:HUGECODE:NOROOT(0)
// 3083 void ZDO_ParsePowerDescRsp( zdoIncomingMsg_t *inMsg, ZDO_PowerRsp_t *pNPRsp )
ZDO_ParsePowerDescRsp:
          CFI Block cfiBlock38 Using cfiCommon0
          CFI Function ZDO_ParsePowerDescRsp
        CODE
// 3084 {
        REQUIRE ?V0
        REQUIRE ?V1
        MOV       A,#-0xa
        LCALL     ?BANKED_ENTER_XDATA
          CFI DPH0 load(1, XDATA, add(CFA_XSP16, literal(-1)))
          CFI DPL0 load(1, XDATA, add(CFA_XSP16, literal(-2)))
          CFI ?BRET_EXT load(1, XDATA, add(CFA_XSP16, literal(-3)))
          CFI ?RET_HIGH load(1, XDATA, add(CFA_XSP16, literal(-4)))
          CFI ?RET_LOW load(1, XDATA, add(CFA_XSP16, literal(-5)))
          CFI R7 load(1, XDATA, add(CFA_XSP16, literal(-6)))
          CFI V1 load(1, XDATA, add(CFA_XSP16, literal(-7)))
          CFI V0 load(1, XDATA, add(CFA_XSP16, literal(-8)))
          CFI VB load(1, XDATA, add(CFA_XSP16, literal(-9)))
          CFI R6 load(1, XDATA, add(CFA_XSP16, literal(-10)))
          CFI CFA_SP SP+0
          CFI CFA_XSP16 add(XSP16, 10)
        ; Saved register size: 10
        ; Auto size: 0
        MOV       A,R2
        MOV       R6,A
        MOV       A,R3
        MOV       R7,A
// 3085   uint8 *msg;
// 3086 
// 3087   msg = inMsg->asdu;
        MOV       A,R6
        ADD       A,#0x13
        MOV       DPL,A
        CLR       A
        ADDC      A,R7
        MOV       DPH,A
        MOVX      A,@DPTR
        MOV       R0,A
        INC       DPTR
        MOVX      A,@DPTR
        MOV       R1,A
        MOV       A,R0
        MOV       R2,A
        MOV       A,R1
        MOV       R3,A
// 3088   pNPRsp->status = *msg++;
        MOV       DPL,R2
        MOV       DPH,R3
        MOVX      A,@DPTR
        PUSH      A
          CFI CFA_SP SP+-1
        MOV       DPL,R4
        MOV       DPH,R5
        POP       A
          CFI CFA_SP SP+0
        MOVX      @DPTR,A
        MOV       DPL,R2
        MOV       DPH,R3
        INC       DPTR
        MOV       R2,DPL
        MOV       R3,DPH
// 3089   pNPRsp->nwkAddr = BUILD_UINT16( msg[0], msg[1] );
        MOV       DPL,R2
        MOV       DPH,R3
        MOVX      A,@DPTR
        MOV       ?V0,A
        MOV       ?V1,#0x0
        MOV       DPL,R2
        MOV       DPH,R3
        INC       DPTR
        MOVX      A,@DPTR
        MOV       R0,A
        MOV       R1,#0x0
        CLR       A
        XCH       A,R0
        MOV       R1,A
        MOV       A,?V0
        ADD       A,R0
        MOV       R0,A
        MOV       A,?V1
        ADDC      A,R1
        MOV       R1,A
        MOV       DPL,R4
        MOV       DPH,R5
        INC       DPTR
        MOV       A,R0
        MOVX      @DPTR,A
        INC       DPTR
        MOV       A,R1
        MOVX      @DPTR,A
// 3090 
// 3091   if ( pNPRsp->status == ZDP_SUCCESS )
        MOV       DPL,R4
        MOV       DPH,R5
        MOVX      A,@DPTR
        JZ        $+5
        LJMP      ??ZDO_ParsePowerDescRsp_0 & 0xFFFF
// 3092   {
// 3093     msg += 2;
        MOV       A,R2
        ADD       A,#0x2
        MOV       R2,A
        JNC       ??ZDO_ParsePowerDescRsp_1
        INC       R3
// 3094     pNPRsp->pwrDesc.AvailablePowerSources = *msg >> 4;
??ZDO_ParsePowerDescRsp_1:
        MOV       DPL,R2
        MOV       DPH,R3
        MOVX      A,@DPTR
        SWAP      A
        ANL       A,#0xf
        MOV       ?V0,A
        MOV       ?V1,#0x0
        MOV       DPL,R4
        MOV       DPH,R5
        INC       DPTR
        INC       DPTR
        INC       DPTR
        MOVX      A,@DPTR
        ANL       A,#0xf
        MOVX      @DPTR,A
        INC       DPTR
        MOVX      A,@DPTR
        ANL       A,#0xff
        MOVX      @DPTR,A
        MOV       A,#0x4
        MOV       R0,#?V0
        LCALL     ?S_SHL
        MOV       A,?V0
        ANL       A,#0xf0
        MOV       R0,A
        MOV       A,?V1
        ANL       A,#0x0
        MOV       R1,A
        MOV       DPL,R4
        MOV       DPH,R5
        INC       DPTR
        INC       DPTR
        INC       DPTR
        MOVX      A,@DPTR
        ORL       A,R0
        MOVX      @DPTR,A
        INC       DPTR
        MOVX      A,@DPTR
        ORL       A,R1
        MOVX      @DPTR,A
// 3095     pNPRsp->pwrDesc.PowerMode = *msg++ & 0x0F;
        MOV       DPL,R2
        MOV       DPH,R3
        MOVX      A,@DPTR
        MOV       R0,A
        MOV       R1,#0x0
        MOV       A,R0
        ANL       A,#0xf
        MOV       R0,A
        MOV       A,R1
        ANL       A,#0x0
        MOV       R1,A
        MOV       DPL,R2
        MOV       DPH,R3
        INC       DPTR
        MOV       R2,DPL
        MOV       R3,DPH
        MOV       DPL,R4
        MOV       DPH,R5
        INC       DPTR
        INC       DPTR
        INC       DPTR
        MOVX      A,@DPTR
        ANL       A,#0xf0
        MOVX      @DPTR,A
        INC       DPTR
        MOVX      A,@DPTR
        ANL       A,#0xff
        MOVX      @DPTR,A
        MOV       A,R0
        ANL       A,#0xf
        MOV       R0,A
        MOV       A,R1
        ANL       A,#0x0
        MOV       R1,A
        MOV       DPL,R4
        MOV       DPH,R5
        INC       DPTR
        INC       DPTR
        INC       DPTR
        MOVX      A,@DPTR
        ORL       A,R0
        MOVX      @DPTR,A
        INC       DPTR
        MOVX      A,@DPTR
        ORL       A,R1
        MOVX      @DPTR,A
// 3096     pNPRsp->pwrDesc.CurrentPowerSourceLevel = *msg >> 4;
        MOV       DPL,R2
        MOV       DPH,R3
        MOVX      A,@DPTR
        SWAP      A
        ANL       A,#0xf
        MOV       ?V0,A
        MOV       ?V1,#0x0
        MOV       DPL,R4
        MOV       DPH,R5
        INC       DPTR
        INC       DPTR
        INC       DPTR
        MOVX      A,@DPTR
        ANL       A,#0xff
        MOVX      @DPTR,A
        INC       DPTR
        MOVX      A,@DPTR
        ANL       A,#0xf
        MOVX      @DPTR,A
        MOV       A,#0xc
        MOV       R0,#?V0
        LCALL     ?S_SHL
        MOV       DPL,R4
        MOV       DPH,R5
        INC       DPTR
        INC       DPTR
        INC       DPTR
        MOVX      A,@DPTR
        ORL       A,?V0
        MOVX      @DPTR,A
        INC       DPTR
        MOVX      A,@DPTR
        ORL       A,?V1
        MOVX      @DPTR,A
// 3097     pNPRsp->pwrDesc.CurrentPowerSource = *msg++ & 0x0F;
        MOV       DPL,R2
        MOV       DPH,R3
        MOVX      A,@DPTR
        MOV       R0,A
        MOV       R1,#0x0
        MOV       A,R0
        ANL       A,#0xf
        MOV       R0,A
        MOV       A,R1
        ANL       A,#0x0
        MOV       R1,A
        MOV       DPL,R2
        MOV       DPH,R3
        INC       DPTR
        MOV       R2,DPL
        MOV       R3,DPH
        MOV       DPL,R4
        MOV       DPH,R5
        INC       DPTR
        INC       DPTR
        INC       DPTR
        MOVX      A,@DPTR
        ANL       A,#0xff
        MOVX      @DPTR,A
        INC       DPTR
        MOVX      A,@DPTR
        ANL       A,#0xf0
        MOVX      @DPTR,A
        CLR       A
        XCH       A,R0
        MOV       R1,A
        MOV       A,R0
        ANL       A,#0x0
        MOV       R0,A
        MOV       A,R1
        ANL       A,#0xf
        MOV       R1,A
        MOV       DPL,R4
        MOV       DPH,R5
        INC       DPTR
        INC       DPTR
        INC       DPTR
        MOVX      A,@DPTR
        ORL       A,R0
        MOVX      @DPTR,A
        INC       DPTR
        MOVX      A,@DPTR
        ORL       A,R1
        MOVX      @DPTR,A
// 3098   }
// 3099 }
??ZDO_ParsePowerDescRsp_0:
        MOV       R7,#0x2
        LJMP      ?BANKED_LEAVE_XDATA
          CFI EndBlock cfiBlock38
// 3100 
// 3101 /*********************************************************************
// 3102  * @fn          ZDO_ParseSimpleDescRsp
// 3103  *
// 3104  * @brief       This function parse the Simple_Desc_rsp message.
// 3105  *
// 3106  *   NOTE: The pAppInClusterList and pAppOutClusterList fields
// 3107  *         in the SimpleDescriptionFormat_t structure are allocated
// 3108  *         and the calling function needs to free [osal_msg_free()]
// 3109  *         these buffers.
// 3110  *
// 3111  * @param       inMsg  - incoming message
// 3112  * @param       pSimpleDescRsp - place to parse the message into
// 3113  *
// 3114  * @return      none
// 3115  */

        RSEG BANKED_CODE:HUGECODE:NOROOT(0)
// 3116 void ZDO_ParseSimpleDescRsp( zdoIncomingMsg_t *inMsg, ZDO_SimpleDescRsp_t *pSimpleDescRsp )
ZDO_ParseSimpleDescRsp:
          CFI Block cfiBlock39 Using cfiCommon0
          CFI Function ZDO_ParseSimpleDescRsp
        CODE
// 3117 {
        FUNCALL ZDO_ParseSimpleDescRsp, ZDO_ParseSimpleDescBuf
        LOCFRAME ISTACK, 0, STACK
        LOCFRAME PSTACK, 0, STACK
        LOCFRAME XSTACK, 12, STACK
        LOCFRAME IOVERLAY, 0, STATIC
        LOCFRAME DOVERLAY, 0, STATIC
        ARGFRAME ISTACK, 0, STACK
        ARGFRAME PSTACK, 0, STACK
        ARGFRAME XSTACK, 12, STACK
        ARGFRAME IOVERLAY, 0, STATIC
        ARGFRAME DOVERLAY, 0, STATIC
        REQUIRE ?V0
        REQUIRE ?V1
        REQUIRE ?V2
        REQUIRE ?V3
        MOV       A,#-0xc
        LCALL     ?BANKED_ENTER_XDATA
          CFI DPH0 load(1, XDATA, add(CFA_XSP16, literal(-1)))
          CFI DPL0 load(1, XDATA, add(CFA_XSP16, literal(-2)))
          CFI ?BRET_EXT load(1, XDATA, add(CFA_XSP16, literal(-3)))
          CFI ?RET_HIGH load(1, XDATA, add(CFA_XSP16, literal(-4)))
          CFI ?RET_LOW load(1, XDATA, add(CFA_XSP16, literal(-5)))
          CFI R7 load(1, XDATA, add(CFA_XSP16, literal(-6)))
          CFI V3 load(1, XDATA, add(CFA_XSP16, literal(-7)))
          CFI V2 load(1, XDATA, add(CFA_XSP16, literal(-8)))
          CFI V1 load(1, XDATA, add(CFA_XSP16, literal(-9)))
          CFI V0 load(1, XDATA, add(CFA_XSP16, literal(-10)))
          CFI VB load(1, XDATA, add(CFA_XSP16, literal(-11)))
          CFI R6 load(1, XDATA, add(CFA_XSP16, literal(-12)))
          CFI CFA_SP SP+0
          CFI CFA_XSP16 add(XSP16, 12)
        ; Saved register size: 12
        ; Auto size: 0
        MOV       ?V0,R2
        MOV       ?V1,R3
        MOV       ?V2,R4
        MOV       ?V3,R5
// 3118   uint8 *msg;
// 3119 
// 3120   msg = inMsg->asdu;
        MOV       A,?V0
        ADD       A,#0x13
        MOV       DPL,A
        CLR       A
        ADDC      A,?V1
        MOV       DPH,A
        MOVX      A,@DPTR
        MOV       R0,A
        INC       DPTR
        MOVX      A,@DPTR
        MOV       R1,A
        MOV       A,R0
        MOV       R6,A
        MOV       A,R1
        MOV       R7,A
// 3121   pSimpleDescRsp->status = *msg++;
        MOV       DPL,R6
        MOV       DPH,R7
        MOVX      A,@DPTR
        PUSH      A
          CFI CFA_SP SP+-1
        MOV       DPL,?V2
        MOV       DPH,?V3
        POP       A
          CFI CFA_SP SP+0
        MOVX      @DPTR,A
        MOV       DPL,R6
        MOV       DPH,R7
        INC       DPTR
        MOV       R6,DPL
        MOV       R7,DPH
// 3122   pSimpleDescRsp->nwkAddr = BUILD_UINT16( msg[0], msg[1] );
        MOV       DPL,R6
        MOV       DPH,R7
        MOVX      A,@DPTR
        MOV       R2,A
        MOV       R3,#0x0
        MOV       DPL,R6
        MOV       DPH,R7
        INC       DPTR
        MOVX      A,@DPTR
        MOV       R0,A
        MOV       R1,#0x0
        CLR       A
        XCH       A,R0
        MOV       R1,A
        MOV       A,R2
        ADD       A,R0
        MOV       R0,A
        MOV       A,R3
        ADDC      A,R1
        MOV       R1,A
        MOV       DPL,?V2
        MOV       DPH,?V3
        INC       DPTR
        MOV       A,R0
        MOVX      @DPTR,A
        INC       DPTR
        MOV       A,R1
        MOVX      @DPTR,A
// 3123   msg += sizeof ( uint16 );
        MOV       A,R6
        ADD       A,#0x2
        MOV       R6,A
        JNC       ??ZDO_ParseSimpleDescRsp_0
        INC       R7
// 3124   msg++; // Skip past the length field.
??ZDO_ParseSimpleDescRsp_0:
        MOV       DPL,R6
        MOV       DPH,R7
        INC       DPTR
        MOV       R6,DPL
        MOV       R7,DPH
// 3125 
// 3126   if ( pSimpleDescRsp->status == ZDP_SUCCESS )
        MOV       DPL,?V2
        MOV       DPH,?V3
        MOVX      A,@DPTR
        JNZ       ??ZDO_ParseSimpleDescRsp_1
// 3127   {
// 3128     ZDO_ParseSimpleDescBuf( msg, &(pSimpleDescRsp->simpleDesc) );
        ; Setup parameters for call to function ZDO_ParseSimpleDescBuf
        MOV       A,?V2
        ADD       A,#0x3
        MOV       R4,A
        CLR       A
        ADDC      A,?V3
        MOV       R5,A
        MOV       A,R6
        MOV       R2,A
        MOV       A,R7
        MOV       R3,A
        LCALL     `??ZDO_ParseSimpleDescBuf::?relay`; Banked call to: ZDO_ParseSimpleDescBuf
        MOV       A,R1
// 3129   }
// 3130 }
??ZDO_ParseSimpleDescRsp_1:
        MOV       R7,#0x4
        LJMP      ?BANKED_LEAVE_XDATA
          CFI EndBlock cfiBlock39
// 3131 
// 3132 /*********************************************************************
// 3133  * @fn          ZDO_ParseEPListRsp
// 3134  *
// 3135  * @brief       This parse the Active_EP_rsp or Match_Desc_rsp message.
// 3136  *
// 3137  * @param       inMsg  - incoming message
// 3138  *
// 3139  * @return      none
// 3140  */

        RSEG BANKED_CODE:HUGECODE:NOROOT(0)
// 3141 ZDO_ActiveEndpointRsp_t *ZDO_ParseEPListRsp( zdoIncomingMsg_t *inMsg )
ZDO_ParseEPListRsp:
          CFI Block cfiBlock40 Using cfiCommon0
          CFI Function ZDO_ParseEPListRsp
        CODE
// 3142 {
        FUNCALL ZDO_ParseEPListRsp, osal_mem_alloc
        LOCFRAME ISTACK, 0, STACK
        LOCFRAME PSTACK, 0, STACK
        LOCFRAME XSTACK, 17, STACK
        LOCFRAME IOVERLAY, 0, STATIC
        LOCFRAME DOVERLAY, 0, STATIC
        ARGFRAME ISTACK, 0, STACK
        ARGFRAME PSTACK, 0, STACK
        ARGFRAME XSTACK, 17, STACK
        ARGFRAME IOVERLAY, 0, STATIC
        ARGFRAME DOVERLAY, 0, STATIC
        FUNCALL ZDO_ParseEPListRsp, osal_memcpy
        LOCFRAME ISTACK, 0, STACK
        LOCFRAME PSTACK, 0, STACK
        LOCFRAME XSTACK, 20, STACK
        LOCFRAME IOVERLAY, 0, STATIC
        LOCFRAME DOVERLAY, 0, STATIC
        ARGFRAME ISTACK, 0, STACK
        ARGFRAME PSTACK, 0, STACK
        ARGFRAME XSTACK, 20, STACK
        ARGFRAME IOVERLAY, 0, STATIC
        ARGFRAME DOVERLAY, 0, STATIC
        REQUIRE ?V0
        REQUIRE ?V1
        REQUIRE ?V2
        REQUIRE ?V3
        REQUIRE ?V4
        REQUIRE ?V5
        REQUIRE ?V6
        REQUIRE ?V7
        REQUIRE ?V8
        MOV       A,#-0x11
        LCALL     ?BANKED_ENTER_XDATA
          CFI DPH0 load(1, XDATA, add(CFA_XSP16, literal(-1)))
          CFI DPL0 load(1, XDATA, add(CFA_XSP16, literal(-2)))
          CFI ?BRET_EXT load(1, XDATA, add(CFA_XSP16, literal(-3)))
          CFI ?RET_HIGH load(1, XDATA, add(CFA_XSP16, literal(-4)))
          CFI ?RET_LOW load(1, XDATA, add(CFA_XSP16, literal(-5)))
          CFI R7 load(1, XDATA, add(CFA_XSP16, literal(-6)))
          CFI V8 load(1, XDATA, add(CFA_XSP16, literal(-7)))
          CFI V7 load(1, XDATA, add(CFA_XSP16, literal(-8)))
          CFI V6 load(1, XDATA, add(CFA_XSP16, literal(-9)))
          CFI V5 load(1, XDATA, add(CFA_XSP16, literal(-10)))
          CFI V4 load(1, XDATA, add(CFA_XSP16, literal(-11)))
          CFI V3 load(1, XDATA, add(CFA_XSP16, literal(-12)))
          CFI V2 load(1, XDATA, add(CFA_XSP16, literal(-13)))
          CFI V1 load(1, XDATA, add(CFA_XSP16, literal(-14)))
          CFI V0 load(1, XDATA, add(CFA_XSP16, literal(-15)))
          CFI VB load(1, XDATA, add(CFA_XSP16, literal(-16)))
          CFI R6 load(1, XDATA, add(CFA_XSP16, literal(-17)))
          CFI CFA_SP SP+0
          CFI CFA_XSP16 add(XSP16, 17)
        ; Saved register size: 17
        ; Auto size: 0
        MOV       ?V2,R2
        MOV       ?V3,R3
// 3143   ZDO_ActiveEndpointRsp_t *pRsp;
// 3144   uint8 *msg;
// 3145   uint8 Status;
// 3146   uint8 cnt;
// 3147 
// 3148   msg = inMsg->asdu;
        MOV       A,?V2
        ADD       A,#0x13
        MOV       DPL,A
        CLR       A
        ADDC      A,?V3
        MOV       DPH,A
        MOVX      A,@DPTR
        MOV       R0,A
        INC       DPTR
        MOVX      A,@DPTR
        MOV       R1,A
        MOV       A,R0
        MOV       R6,A
        MOV       A,R1
        MOV       R7,A
// 3149   Status = *msg++;
        MOV       DPL,R6
        MOV       DPH,R7
        MOVX      A,@DPTR
        MOV       ?V7,A
        MOV       DPL,R6
        MOV       DPH,R7
        INC       DPTR
        MOV       R6,DPL
        MOV       R7,DPH
// 3150   cnt = msg[2];
        MOV       DPL,R6
        MOV       DPH,R7
        INC       DPTR
        INC       DPTR
        MOVX      A,@DPTR
        MOV       ?V8,A
// 3151 
// 3152   pRsp = (ZDO_ActiveEndpointRsp_t *)osal_mem_alloc( sizeof(  ZDO_ActiveEndpointRsp_t ) + cnt );
        ; Setup parameters for call to function osal_mem_alloc
        MOV       A,?V8
        MOV       R0,A
        MOV       R1,#0x0
        MOV       A,R0
        ADD       A,#0x4
        MOV       R2,A
        CLR       A
        ADDC      A,R1
        MOV       R3,A
        LCALL     `??osal_mem_alloc::?relay`; Banked call to: osal_mem_alloc
        MOV       ?V4,R2
        MOV       ?V5,R3
        MOV       ?V0,?V4
        MOV       ?V1,?V5
// 3153   if ( pRsp )
        MOV       A,?V0
        ORL       A,?V1
        JZ        ??ZDO_ParseEPListRsp_0
// 3154   {
// 3155     pRsp->status = Status;
        MOV       A,?V7
        PUSH      A
          CFI CFA_SP SP+-1
        MOV       DPL,?V0
        MOV       DPH,?V1
        POP       A
          CFI CFA_SP SP+0
        MOVX      @DPTR,A
// 3156     pRsp->nwkAddr = BUILD_UINT16( msg[0], msg[1] );
        MOV       DPL,R6
        MOV       DPH,R7
        MOVX      A,@DPTR
        MOV       R2,A
        MOV       R3,#0x0
        MOV       DPL,R6
        MOV       DPH,R7
        INC       DPTR
        MOVX      A,@DPTR
        MOV       R0,A
        MOV       R1,#0x0
        CLR       A
        XCH       A,R0
        MOV       R1,A
        MOV       A,R2
        ADD       A,R0
        MOV       R0,A
        MOV       A,R3
        ADDC      A,R1
        MOV       R1,A
        MOV       DPL,?V0
        MOV       DPH,?V1
        INC       DPTR
        MOV       A,R0
        MOVX      @DPTR,A
        INC       DPTR
        MOV       A,R1
        MOVX      @DPTR,A
// 3157     msg += sizeof( uint16 );
        MOV       A,R6
        ADD       A,#0x2
        MOV       R6,A
        JNC       ??ZDO_ParseEPListRsp_1
        INC       R7
// 3158     pRsp->cnt = cnt;
??ZDO_ParseEPListRsp_1:
        MOV       A,?V8
        PUSH      A
          CFI CFA_SP SP+-1
        MOV       DPL,?V0
        MOV       DPH,?V1
        INC       DPTR
        INC       DPTR
        INC       DPTR
        POP       A
          CFI CFA_SP SP+0
        MOVX      @DPTR,A
// 3159     msg++; // pass cnt
        MOV       DPL,R6
        MOV       DPH,R7
        INC       DPTR
        MOV       R6,DPL
        MOV       R7,DPH
// 3160     osal_memcpy( pRsp->epList, msg, cnt );
        ; Setup parameters for call to function osal_memcpy
        MOV       ?V4,R6
        MOV       ?V5,R7
        MOV       ?V6,#0x0
        MOV       R0,#?V4
        LCALL     ?PUSH_XSTACK_I_THREE
          CFI CFA_XSP16 add(XSP16, 20)
        MOV       A,?V8
        MOV       R4,A
        MOV       R5,#0x0
        MOV       A,?V0
        ADD       A,#0x4
        MOV       R2,A
        CLR       A
        ADDC      A,?V1
        MOV       R3,A
        LCALL     `??osal_memcpy::?relay`; Banked call to: osal_memcpy
        MOV       A,#0x3
        LCALL     ?DEALLOC_XSTACK8
          CFI CFA_XSP16 add(XSP16, 17)
// 3161   }
// 3162 
// 3163   return ( pRsp );
??ZDO_ParseEPListRsp_0:
        MOV       R2,?V0
        MOV       R3,?V1
        MOV       R7,#0x9
        LJMP      ?BANKED_LEAVE_XDATA
// 3164 }
          CFI EndBlock cfiBlock40
// 3165 
// 3166 /*********************************************************************
// 3167  * @fn          ZDO_ParseServerDiscRsp
// 3168  *
// 3169  * @brief       Parse the Server_Discovery_rsp message.
// 3170  *
// 3171  * @param       inMsg - incoming message.
// 3172  * @param       pRsp - place to put the parsed information.
// 3173  *
// 3174  * @return      none
// 3175  */

        RSEG BANKED_CODE:HUGECODE:NOROOT(0)
// 3176 void ZDO_ParseServerDiscRsp( zdoIncomingMsg_t *inMsg, ZDO_ServerDiscRsp_t *pRsp )
ZDO_ParseServerDiscRsp:
          CFI Block cfiBlock41 Using cfiCommon0
          CFI Function ZDO_ParseServerDiscRsp
        CODE
// 3177 {
        MOV       A,#-0x9
        LCALL     ?BANKED_ENTER_XDATA
          CFI DPH0 load(1, XDATA, add(CFA_XSP16, literal(-1)))
          CFI DPL0 load(1, XDATA, add(CFA_XSP16, literal(-2)))
          CFI ?BRET_EXT load(1, XDATA, add(CFA_XSP16, literal(-3)))
          CFI ?RET_HIGH load(1, XDATA, add(CFA_XSP16, literal(-4)))
          CFI ?RET_LOW load(1, XDATA, add(CFA_XSP16, literal(-5)))
          CFI R7 load(1, XDATA, add(CFA_XSP16, literal(-6)))
          CFI V0 load(1, XDATA, add(CFA_XSP16, literal(-7)))
          CFI VB load(1, XDATA, add(CFA_XSP16, literal(-8)))
          CFI R6 load(1, XDATA, add(CFA_XSP16, literal(-9)))
          CFI CFA_SP SP+0
          CFI CFA_XSP16 add(XSP16, 9)
        ; Saved register size: 9
        ; Auto size: 0
// 3178   pRsp->status = inMsg->asdu[0];
        MOV       A,R2
        ADD       A,#0x13
        MOV       DPL,A
        CLR       A
        ADDC      A,R3
        MOV       DPH,A
        MOVX      A,@DPTR
        MOV       R0,A
        INC       DPTR
        MOVX      A,@DPTR
        MOV       DPH,A
        MOV       DPL,R0
        MOVX      A,@DPTR
        PUSH      A
          CFI CFA_SP SP+-1
        MOV       DPL,R4
        MOV       DPH,R5
        POP       A
          CFI CFA_SP SP+0
        MOVX      @DPTR,A
// 3179   pRsp->serverMask = BUILD_UINT16( inMsg->asdu[1], inMsg->asdu[2] );
        MOV       A,R2
        ADD       A,#0x13
        MOV       DPL,A
        CLR       A
        ADDC      A,R3
        MOV       DPH,A
        MOVX      A,@DPTR
        MOV       R0,A
        INC       DPTR
        MOVX      A,@DPTR
        MOV       DPH,A
        MOV       DPL,R0
        INC       DPTR
        MOVX      A,@DPTR
        MOV       R6,A
        MOV       R7,#0x0
        MOV       A,R2
        ADD       A,#0x13
        MOV       DPL,A
        CLR       A
        ADDC      A,R3
        MOV       DPH,A
        MOVX      A,@DPTR
        MOV       R0,A
        INC       DPTR
        MOVX      A,@DPTR
        MOV       DPH,A
        MOV       DPL,R0
        INC       DPTR
        INC       DPTR
        MOVX      A,@DPTR
        MOV       R0,A
        MOV       R1,#0x0
        CLR       A
        XCH       A,R0
        MOV       R1,A
        MOV       A,R6
        ADD       A,R0
        MOV       R0,A
        MOV       A,R7
        ADDC      A,R1
        MOV       R1,A
        MOV       DPL,R4
        MOV       DPH,R5
        INC       DPTR
        MOV       A,R0
        MOVX      @DPTR,A
        INC       DPTR
        MOV       A,R1
        MOVX      @DPTR,A
// 3180 }
        MOV       R7,#0x1
        LJMP      ?BANKED_LEAVE_XDATA
          CFI EndBlock cfiBlock41
// 3181 
// 3182 /*********************************************************************
// 3183  * @fn          ZDO_ParseMgmtLqiRsp
// 3184  *
// 3185  * @brief       This function parses the incoming Management
// 3186  *              LQI response
// 3187  *
// 3188  * @param       inMsg - incoming message
// 3189  *
// 3190  * @return      a pointer to parsed response structure (NULL if not allocated).
// 3191  *          This structure was allocated using osal_mem_alloc, so it must be freed
// 3192  *          by the calling function [osal_mem_free()].
// 3193  */

        RSEG BANKED_CODE:HUGECODE:NOROOT(0)
// 3194 ZDO_MgmtLqiRsp_t *ZDO_ParseMgmtLqiRsp( zdoIncomingMsg_t *inMsg )
ZDO_ParseMgmtLqiRsp:
          CFI Block cfiBlock42 Using cfiCommon0
          CFI Function ZDO_ParseMgmtLqiRsp
        CODE
// 3195 {
        FUNCALL ZDO_ParseMgmtLqiRsp, osal_mem_alloc
        LOCFRAME ISTACK, 0, STACK
        LOCFRAME PSTACK, 0, STACK
        LOCFRAME XSTACK, 20, STACK
        LOCFRAME IOVERLAY, 0, STATIC
        LOCFRAME DOVERLAY, 0, STATIC
        ARGFRAME ISTACK, 0, STACK
        ARGFRAME PSTACK, 0, STACK
        ARGFRAME XSTACK, 20, STACK
        ARGFRAME IOVERLAY, 0, STATIC
        ARGFRAME DOVERLAY, 0, STATIC
        FUNCALL ZDO_ParseMgmtLqiRsp, sAddrExtCpy
        LOCFRAME ISTACK, 0, STACK
        LOCFRAME PSTACK, 0, STACK
        LOCFRAME XSTACK, 20, STACK
        LOCFRAME IOVERLAY, 0, STATIC
        LOCFRAME DOVERLAY, 0, STATIC
        ARGFRAME ISTACK, 0, STACK
        ARGFRAME PSTACK, 0, STACK
        ARGFRAME XSTACK, 20, STACK
        ARGFRAME IOVERLAY, 0, STATIC
        ARGFRAME DOVERLAY, 0, STATIC
        FUNCALL ZDO_ParseMgmtLqiRsp, sAddrExtCpy
        LOCFRAME ISTACK, 0, STACK
        LOCFRAME PSTACK, 0, STACK
        LOCFRAME XSTACK, 20, STACK
        LOCFRAME IOVERLAY, 0, STATIC
        LOCFRAME DOVERLAY, 0, STATIC
        ARGFRAME ISTACK, 0, STACK
        ARGFRAME PSTACK, 0, STACK
        ARGFRAME XSTACK, 20, STACK
        ARGFRAME IOVERLAY, 0, STATIC
        ARGFRAME DOVERLAY, 0, STATIC
        REQUIRE ?V0
        REQUIRE ?V1
        REQUIRE ?V2
        REQUIRE ?V3
        REQUIRE ?V4
        REQUIRE ?V5
        REQUIRE ?V6
        REQUIRE ?V7
        REQUIRE ?V8
        REQUIRE ?V9
        REQUIRE ?V10
        REQUIRE ?V11
        MOV       A,#-0x14
        LCALL     ?BANKED_ENTER_XDATA
          CFI DPH0 load(1, XDATA, add(CFA_XSP16, literal(-1)))
          CFI DPL0 load(1, XDATA, add(CFA_XSP16, literal(-2)))
          CFI ?BRET_EXT load(1, XDATA, add(CFA_XSP16, literal(-3)))
          CFI ?RET_HIGH load(1, XDATA, add(CFA_XSP16, literal(-4)))
          CFI ?RET_LOW load(1, XDATA, add(CFA_XSP16, literal(-5)))
          CFI R7 load(1, XDATA, add(CFA_XSP16, literal(-6)))
          CFI V11 load(1, XDATA, add(CFA_XSP16, literal(-7)))
          CFI V10 load(1, XDATA, add(CFA_XSP16, literal(-8)))
          CFI V9 load(1, XDATA, add(CFA_XSP16, literal(-9)))
          CFI V8 load(1, XDATA, add(CFA_XSP16, literal(-10)))
          CFI V7 load(1, XDATA, add(CFA_XSP16, literal(-11)))
          CFI V6 load(1, XDATA, add(CFA_XSP16, literal(-12)))
          CFI V5 load(1, XDATA, add(CFA_XSP16, literal(-13)))
          CFI V4 load(1, XDATA, add(CFA_XSP16, literal(-14)))
          CFI V3 load(1, XDATA, add(CFA_XSP16, literal(-15)))
          CFI V2 load(1, XDATA, add(CFA_XSP16, literal(-16)))
          CFI V1 load(1, XDATA, add(CFA_XSP16, literal(-17)))
          CFI V0 load(1, XDATA, add(CFA_XSP16, literal(-18)))
          CFI VB load(1, XDATA, add(CFA_XSP16, literal(-19)))
          CFI R6 load(1, XDATA, add(CFA_XSP16, literal(-20)))
          CFI CFA_SP SP+0
          CFI CFA_XSP16 add(XSP16, 20)
        ; Saved register size: 20
        ; Auto size: 0
        MOV       ?V10,R2
        MOV       ?V11,R3
// 3196   ZDO_MgmtLqiRsp_t *pRsp;
// 3197   uint8 status;
// 3198   uint8 startIndex = 0;
        MOV       ?V6,#0x0
// 3199   uint8 neighborLqiCount = 0;
        MOV       ?V4,#0x0
// 3200   uint8 neighborLqiEntries = 0;
        MOV       ?V5,#0x0
// 3201   uint8 *msg;
// 3202 
// 3203   msg = inMsg->asdu;
        MOV       A,?V10
        ADD       A,#0x13
        MOV       DPL,A
        CLR       A
        ADDC      A,?V11
        MOV       DPH,A
        MOVX      A,@DPTR
        MOV       R0,A
        INC       DPTR
        MOVX      A,@DPTR
        MOV       R1,A
        MOV       A,R0
        MOV       R6,A
        MOV       A,R1
        MOV       R7,A
// 3204 
// 3205   status = *msg++;
        MOV       DPL,R6
        MOV       DPH,R7
        MOVX      A,@DPTR
        MOV       ?V9,A
        MOV       DPL,R6
        MOV       DPH,R7
        INC       DPTR
        MOV       R6,DPL
        MOV       R7,DPH
// 3206   if ( status == ZSuccess )
        MOV       A,?V9
        JNZ       ??ZDO_ParseMgmtLqiRsp_0
// 3207   {
// 3208     neighborLqiEntries = *msg++;
        MOV       DPL,R6
        MOV       DPH,R7
        MOVX      A,@DPTR
        MOV       ?V5,A
        MOV       DPL,R6
        MOV       DPH,R7
        INC       DPTR
        MOV       R6,DPL
        MOV       R7,DPH
// 3209     startIndex = *msg++;
        MOV       DPL,R6
        MOV       DPH,R7
        MOVX      A,@DPTR
        MOV       ?V6,A
        MOV       DPL,R6
        MOV       DPH,R7
        INC       DPTR
        MOV       R6,DPL
        MOV       R7,DPH
// 3210     neighborLqiCount = *msg++;
        MOV       DPL,R6
        MOV       DPH,R7
        MOVX      A,@DPTR
        MOV       ?V4,A
        MOV       DPL,R6
        MOV       DPH,R7
        INC       DPTR
        MOV       R6,DPL
        MOV       R7,DPH
// 3211   }
// 3212 
// 3213   // Allocate a buffer big enough to handle the list.
// 3214   pRsp = (ZDO_MgmtLqiRsp_t *)osal_mem_alloc(
// 3215             sizeof( ZDO_MgmtLqiRsp_t ) + (neighborLqiCount * sizeof( ZDP_MgmtLqiItem_t )) );
??ZDO_ParseMgmtLqiRsp_0:
        ; Setup parameters for call to function osal_mem_alloc
        MOV       A,?V4
        MOV       R0,A
        MOV       R1,#0x0
        MOV       A,R0
        MOV       B,#0x1a
        MUL       AB
        XCH       A,R0
        MOV       R2,B
        MOV       B,#0x0
        MUL       AB
        ADD       A,R2
        MOV       R2,A
        MOV       B,#0x1a
        MOV       A,R1
        MUL       AB
        ADD       A,R2
        MOV       R1,A
        MOV       A,R0
        ADD       A,#0x4
        MOV       R2,A
        CLR       A
        ADDC      A,R1
        MOV       R3,A
        LCALL     `??osal_mem_alloc::?relay`; Banked call to: osal_mem_alloc
        MOV       ?V0,R2
        MOV       ?V1,R3
        MOV       ?V2,?V0
        MOV       ?V3,?V1
// 3216   if ( pRsp )
        MOV       A,?V2
        ORL       A,?V3
        JNZ       $+5
        LJMP      ??ZDO_ParseMgmtLqiRsp_1 & 0xFFFF
// 3217   {
// 3218     uint8 x;
// 3219     ZDP_MgmtLqiItem_t *pList = pRsp->list;
        MOV       A,?V2
        ADD       A,#0x4
        MOV       ?V0,A
        CLR       A
        ADDC      A,?V3
        MOV       ?V1,A
// 3220     pRsp->status = status;
        MOV       A,?V9
        PUSH      A
          CFI CFA_SP SP+-1
        MOV       DPL,?V2
        MOV       DPH,?V3
        POP       A
          CFI CFA_SP SP+0
        MOVX      @DPTR,A
// 3221     pRsp->neighborLqiEntries = neighborLqiEntries;
        MOV       A,?V5
        PUSH      A
          CFI CFA_SP SP+-1
        MOV       DPL,?V2
        MOV       DPH,?V3
        INC       DPTR
        POP       A
          CFI CFA_SP SP+0
        MOVX      @DPTR,A
// 3222     pRsp->startIndex = startIndex;
        MOV       A,?V6
        PUSH      A
          CFI CFA_SP SP+-1
        MOV       DPL,?V2
        MOV       DPH,?V3
        INC       DPTR
        INC       DPTR
        POP       A
          CFI CFA_SP SP+0
        MOVX      @DPTR,A
// 3223     pRsp->neighborLqiCount = neighborLqiCount;
        MOV       A,?V4
        PUSH      A
          CFI CFA_SP SP+-1
        MOV       DPL,?V2
        MOV       DPH,?V3
        INC       DPTR
        INC       DPTR
        INC       DPTR
        POP       A
          CFI CFA_SP SP+0
        MOVX      @DPTR,A
// 3224 
// 3225     for ( x = 0; x < neighborLqiCount; x++ )
        MOV       ?V8,#0x0
??ZDO_ParseMgmtLqiRsp_2:
        MOV       A,?V8
        CLR       C
        SUBB      A,?V4
        JC        $+5
        LJMP      ??ZDO_ParseMgmtLqiRsp_1 & 0xFFFF
// 3226     {
// 3227       uint8 tmp;
// 3228 
// 3229       pList->panID = 0; // This isn't in the record, why is it in the structure?
        MOV       DPL,?V0
        MOV       DPH,?V1
        MOV       A,#0x0
        MOVX      @DPTR,A
        INC       DPTR
        MOV       A,#0x0
        MOVX      @DPTR,A
// 3230       osal_cpyExtAddr(pList->extPanID, msg);   //Copy extended PAN ID
        ; Setup parameters for call to function sAddrExtCpy
        MOV       A,R6
        MOV       R4,A
        MOV       A,R7
        MOV       R5,A
        MOV       A,?V0
        ADD       A,#0x2
        MOV       R2,A
        CLR       A
        ADDC      A,?V1
        MOV       R3,A
        LCALL     `??sAddrExtCpy::?relay`; Banked call to: sAddrExtCpy
// 3231       msg += Z_EXTADDR_LEN;
        MOV       A,R6
        ADD       A,#0x8
        MOV       R6,A
        JNC       ??ZDO_ParseMgmtLqiRsp_3
        INC       R7
// 3232 
// 3233       osal_cpyExtAddr(pList->extAddr, msg);   //Copy extended address
??ZDO_ParseMgmtLqiRsp_3:
        ; Setup parameters for call to function sAddrExtCpy
        MOV       A,R6
        MOV       R4,A
        MOV       A,R7
        MOV       R5,A
        MOV       A,?V0
        ADD       A,#0xa
        MOV       R2,A
        CLR       A
        ADDC      A,?V1
        MOV       R3,A
        LCALL     `??sAddrExtCpy::?relay`; Banked call to: sAddrExtCpy
// 3234       msg += Z_EXTADDR_LEN;
        MOV       A,R6
        ADD       A,#0x8
        MOV       R6,A
        JNC       ??ZDO_ParseMgmtLqiRsp_4
        INC       R7
// 3235 
// 3236       pList->nwkAddr = BUILD_UINT16( msg[0], msg[1] );
??ZDO_ParseMgmtLqiRsp_4:
        MOV       DPL,R6
        MOV       DPH,R7
        MOVX      A,@DPTR
        MOV       R2,A
        MOV       R3,#0x0
        MOV       DPL,R6
        MOV       DPH,R7
        INC       DPTR
        MOVX      A,@DPTR
        MOV       R0,A
        MOV       R1,#0x0
        CLR       A
        XCH       A,R0
        MOV       R1,A
        MOV       A,R2
        ADD       A,R0
        MOV       R0,A
        MOV       A,R3
        ADDC      A,R1
        MOV       R1,A
        MOV       A,?V0
        ADD       A,#0x12
        MOV       DPL,A
        CLR       A
        ADDC      A,?V1
        MOV       DPH,A
        MOV       A,R0
        MOVX      @DPTR,A
        INC       DPTR
        MOV       A,R1
        MOVX      @DPTR,A
// 3237       msg += 2;
        MOV       A,R6
        ADD       A,#0x2
        MOV       R6,A
        JNC       ??ZDO_ParseMgmtLqiRsp_5
        INC       R7
// 3238 
// 3239       tmp = *msg++;
??ZDO_ParseMgmtLqiRsp_5:
        MOV       DPL,R6
        MOV       DPH,R7
        MOVX      A,@DPTR
        MOV       ?V7,A
        MOV       DPL,R6
        MOV       DPH,R7
        INC       DPTR
        MOV       R6,DPL
        MOV       R7,DPH
// 3240       pList->devType = tmp & 0x03;
        MOV       A,#0x3
        ANL       A,?V7
        PUSH      A
          CFI CFA_SP SP+-1
        MOV       A,?V0
        ADD       A,#0x14
        MOV       DPL,A
        CLR       A
        ADDC      A,?V1
        MOV       DPH,A
        POP       A
          CFI CFA_SP SP+0
        MOVX      @DPTR,A
// 3241       pList->rxOnIdle = (tmp >> 2) & 0x03;
        MOV       A,?V7
        RRC       A
        RRC       A
        ANL       A,#0x3f
        ANL       A,#0x3
        PUSH      A
          CFI CFA_SP SP+-1
        MOV       A,?V0
        ADD       A,#0x15
        MOV       DPL,A
        CLR       A
        ADDC      A,?V1
        MOV       DPH,A
        POP       A
          CFI CFA_SP SP+0
        MOVX      @DPTR,A
// 3242       pList->relation = (tmp >> 4) & 0x07;
        MOV       A,?V7
        SWAP      A
        ANL       A,#0xf
        ANL       A,#0x7
        PUSH      A
          CFI CFA_SP SP+-1
        MOV       A,?V0
        ADD       A,#0x16
        MOV       DPL,A
        CLR       A
        ADDC      A,?V1
        MOV       DPH,A
        POP       A
          CFI CFA_SP SP+0
        MOVX      @DPTR,A
// 3243 
// 3244       pList->permit = (*msg++) & 0x03;
        MOV       DPL,R6
        MOV       DPH,R7
        MOVX      A,@DPTR
        ANL       A,#0x3
        PUSH      A
          CFI CFA_SP SP+-1
        MOV       A,?V0
        ADD       A,#0x17
        MOV       DPL,A
        CLR       A
        ADDC      A,?V1
        MOV       DPH,A
        POP       A
          CFI CFA_SP SP+0
        MOVX      @DPTR,A
        MOV       DPL,R6
        MOV       DPH,R7
        INC       DPTR
        MOV       R6,DPL
        MOV       R7,DPH
// 3245 
// 3246       pList->depth = *msg++;
        MOV       DPL,R6
        MOV       DPH,R7
        MOVX      A,@DPTR
        PUSH      A
          CFI CFA_SP SP+-1
        MOV       A,?V0
        ADD       A,#0x18
        MOV       DPL,A
        CLR       A
        ADDC      A,?V1
        MOV       DPH,A
        POP       A
          CFI CFA_SP SP+0
        MOVX      @DPTR,A
        MOV       DPL,R6
        MOV       DPH,R7
        INC       DPTR
        MOV       R6,DPL
        MOV       R7,DPH
// 3247 
// 3248       pList->lqi = *msg++;
        MOV       DPL,R6
        MOV       DPH,R7
        MOVX      A,@DPTR
        PUSH      A
          CFI CFA_SP SP+-1
        MOV       A,?V0
        ADD       A,#0x19
        MOV       DPL,A
        CLR       A
        ADDC      A,?V1
        MOV       DPH,A
        POP       A
          CFI CFA_SP SP+0
        MOVX      @DPTR,A
        MOV       DPL,R6
        MOV       DPH,R7
        INC       DPTR
        MOV       R6,DPL
        MOV       R7,DPH
// 3249       pList++;
        MOV       A,?V0
        ADD       A,#0x1a
        MOV       ?V0,A
        JNC       ??ZDO_ParseMgmtLqiRsp_6
        INC       ?V1
// 3250     }
??ZDO_ParseMgmtLqiRsp_6:
        INC       ?V8
        LJMP      ??ZDO_ParseMgmtLqiRsp_2 & 0xFFFF
// 3251   }
// 3252 
// 3253   return ( pRsp );
??ZDO_ParseMgmtLqiRsp_1:
        MOV       R2,?V2
        MOV       R3,?V3
        MOV       R7,#0xc
        LJMP      ?BANKED_LEAVE_XDATA
// 3254 }
          CFI EndBlock cfiBlock42
// 3255 
// 3256 /*********************************************************************
// 3257  * @fn          ZDO_ParseMgmNwkDiscRsp
// 3258  *
// 3259  * @brief       This function parses the incoming Management
// 3260  *              Network Discover response.
// 3261  *
// 3262  * @param       inMsg - incoming message
// 3263  *
// 3264  * @return      pointer to parsed response.  This structure was
// 3265  *          allocated using osal_mem_alloc, so it must be freed
// 3266  *          by the calling function [osal_mem_free()].
// 3267  */

        RSEG BANKED_CODE:HUGECODE:NOROOT(0)
// 3268 ZDO_MgmNwkDiscRsp_t *ZDO_ParseMgmNwkDiscRsp( zdoIncomingMsg_t *inMsg )
ZDO_ParseMgmNwkDiscRsp:
          CFI Block cfiBlock43 Using cfiCommon0
          CFI Function ZDO_ParseMgmNwkDiscRsp
        CODE
// 3269 {
        FUNCALL ZDO_ParseMgmNwkDiscRsp, osal_mem_alloc
        LOCFRAME ISTACK, 0, STACK
        LOCFRAME PSTACK, 0, STACK
        LOCFRAME XSTACK, 20, STACK
        LOCFRAME IOVERLAY, 0, STATIC
        LOCFRAME DOVERLAY, 0, STATIC
        ARGFRAME ISTACK, 0, STACK
        ARGFRAME PSTACK, 0, STACK
        ARGFRAME XSTACK, 20, STACK
        ARGFRAME IOVERLAY, 0, STATIC
        ARGFRAME DOVERLAY, 0, STATIC
        FUNCALL ZDO_ParseMgmNwkDiscRsp, sAddrExtCpy
        LOCFRAME ISTACK, 0, STACK
        LOCFRAME PSTACK, 0, STACK
        LOCFRAME XSTACK, 20, STACK
        LOCFRAME IOVERLAY, 0, STATIC
        LOCFRAME DOVERLAY, 0, STATIC
        ARGFRAME ISTACK, 0, STACK
        ARGFRAME PSTACK, 0, STACK
        ARGFRAME XSTACK, 20, STACK
        ARGFRAME IOVERLAY, 0, STATIC
        ARGFRAME DOVERLAY, 0, STATIC
        REQUIRE ?V0
        REQUIRE ?V1
        REQUIRE ?V2
        REQUIRE ?V3
        REQUIRE ?V4
        REQUIRE ?V5
        REQUIRE ?V6
        REQUIRE ?V7
        REQUIRE ?V8
        REQUIRE ?V10
        REQUIRE ?V11
        MOV       A,#-0x14
        LCALL     ?BANKED_ENTER_XDATA
          CFI DPH0 load(1, XDATA, add(CFA_XSP16, literal(-1)))
          CFI DPL0 load(1, XDATA, add(CFA_XSP16, literal(-2)))
          CFI ?BRET_EXT load(1, XDATA, add(CFA_XSP16, literal(-3)))
          CFI ?RET_HIGH load(1, XDATA, add(CFA_XSP16, literal(-4)))
          CFI ?RET_LOW load(1, XDATA, add(CFA_XSP16, literal(-5)))
          CFI R7 load(1, XDATA, add(CFA_XSP16, literal(-6)))
          CFI V11 load(1, XDATA, add(CFA_XSP16, literal(-7)))
          CFI V10 load(1, XDATA, add(CFA_XSP16, literal(-8)))
          CFI V9 load(1, XDATA, add(CFA_XSP16, literal(-9)))
          CFI V8 load(1, XDATA, add(CFA_XSP16, literal(-10)))
          CFI V7 load(1, XDATA, add(CFA_XSP16, literal(-11)))
          CFI V6 load(1, XDATA, add(CFA_XSP16, literal(-12)))
          CFI V5 load(1, XDATA, add(CFA_XSP16, literal(-13)))
          CFI V4 load(1, XDATA, add(CFA_XSP16, literal(-14)))
          CFI V3 load(1, XDATA, add(CFA_XSP16, literal(-15)))
          CFI V2 load(1, XDATA, add(CFA_XSP16, literal(-16)))
          CFI V1 load(1, XDATA, add(CFA_XSP16, literal(-17)))
          CFI V0 load(1, XDATA, add(CFA_XSP16, literal(-18)))
          CFI VB load(1, XDATA, add(CFA_XSP16, literal(-19)))
          CFI R6 load(1, XDATA, add(CFA_XSP16, literal(-20)))
          CFI CFA_SP SP+0
          CFI CFA_XSP16 add(XSP16, 20)
        ; Saved register size: 20
        ; Auto size: 0
        MOV       ?V10,R2
        MOV       ?V11,R3
// 3270   ZDO_MgmNwkDiscRsp_t *pRsp;
// 3271   uint8 status;
// 3272   uint8 networkCount = 0;
        MOV       ?V6,#0x0
// 3273   uint8 startIndex = 0;
        MOV       ?V5,#0x0
// 3274   uint8 networkListCount = 0;
        MOV       ?V4,#0x0
// 3275   uint8 *msg;
// 3276 
// 3277   msg = inMsg->asdu;
        MOV       A,?V10
        ADD       A,#0x13
        MOV       DPL,A
        CLR       A
        ADDC      A,?V11
        MOV       DPH,A
        MOVX      A,@DPTR
        MOV       R0,A
        INC       DPTR
        MOVX      A,@DPTR
        MOV       R1,A
        MOV       A,R0
        MOV       R6,A
        MOV       A,R1
        MOV       R7,A
// 3278   status = *msg++;
        MOV       DPL,R6
        MOV       DPH,R7
        MOVX      A,@DPTR
        MOV       ?V8,A
        MOV       DPL,R6
        MOV       DPH,R7
        INC       DPTR
        MOV       R6,DPL
        MOV       R7,DPH
// 3279 
// 3280   if ( status == ZSuccess )
        MOV       A,?V8
        JNZ       ??ZDO_ParseMgmNwkDiscRsp_0
// 3281   {
// 3282     networkCount = *msg++;
        MOV       DPL,R6
        MOV       DPH,R7
        MOVX      A,@DPTR
        MOV       ?V6,A
        MOV       DPL,R6
        MOV       DPH,R7
        INC       DPTR
        MOV       R6,DPL
        MOV       R7,DPH
// 3283     startIndex = *msg++;
        MOV       DPL,R6
        MOV       DPH,R7
        MOVX      A,@DPTR
        MOV       ?V5,A
        MOV       DPL,R6
        MOV       DPH,R7
        INC       DPTR
        MOV       R6,DPL
        MOV       R7,DPH
// 3284     networkListCount = *msg++;
        MOV       DPL,R6
        MOV       DPH,R7
        MOVX      A,@DPTR
        MOV       ?V4,A
        MOV       DPL,R6
        MOV       DPH,R7
        INC       DPTR
        MOV       R6,DPL
        MOV       R7,DPH
// 3285   }
// 3286 
// 3287   // Allocate a buffer big enough to handle the list.
// 3288   pRsp = (ZDO_MgmNwkDiscRsp_t *)osal_mem_alloc( sizeof( ZDO_MgmNwkDiscRsp_t )
// 3289                                   + (networkListCount * sizeof( mgmtNwkDiscItem_t )) );
??ZDO_ParseMgmNwkDiscRsp_0:
        ; Setup parameters for call to function osal_mem_alloc
        MOV       A,?V4
        MOV       R0,A
        MOV       R1,#0x0
        MOV       A,R0
        MOV       B,#0x10
        MUL       AB
        XCH       A,R0
        MOV       R2,B
        MOV       B,#0x0
        MUL       AB
        ADD       A,R2
        MOV       R2,A
        MOV       B,#0x10
        MOV       A,R1
        MUL       AB
        ADD       A,R2
        MOV       R1,A
        MOV       A,R0
        ADD       A,#0x4
        MOV       R2,A
        CLR       A
        ADDC      A,R1
        MOV       R3,A
        LCALL     `??osal_mem_alloc::?relay`; Banked call to: osal_mem_alloc
        MOV       ?V0,R2
        MOV       ?V1,R3
        MOV       ?V2,?V0
        MOV       ?V3,?V1
// 3290   if ( pRsp )
        MOV       A,?V2
        ORL       A,?V3
        JNZ       $+5
        LJMP      ??ZDO_ParseMgmNwkDiscRsp_1 & 0xFFFF
// 3291   {
// 3292     uint8 x;
// 3293     mgmtNwkDiscItem_t *pList;
// 3294 
// 3295     pRsp->status = status;
        MOV       A,?V8
        PUSH      A
          CFI CFA_SP SP+-1
        MOV       DPL,?V2
        MOV       DPH,?V3
        POP       A
          CFI CFA_SP SP+0
        MOVX      @DPTR,A
// 3296     pRsp->networkCount = networkCount;
        MOV       A,?V6
        PUSH      A
          CFI CFA_SP SP+-1
        MOV       DPL,?V2
        MOV       DPH,?V3
        INC       DPTR
        POP       A
          CFI CFA_SP SP+0
        MOVX      @DPTR,A
// 3297     pRsp->startIndex = startIndex;
        MOV       A,?V5
        PUSH      A
          CFI CFA_SP SP+-1
        MOV       DPL,?V2
        MOV       DPH,?V3
        INC       DPTR
        INC       DPTR
        POP       A
          CFI CFA_SP SP+0
        MOVX      @DPTR,A
// 3298     pRsp->networkListCount = networkListCount;
        MOV       A,?V4
        PUSH      A
          CFI CFA_SP SP+-1
        MOV       DPL,?V2
        MOV       DPH,?V3
        INC       DPTR
        INC       DPTR
        INC       DPTR
        POP       A
          CFI CFA_SP SP+0
        MOVX      @DPTR,A
// 3299     pList = pRsp->list;
        MOV       A,?V2
        ADD       A,#0x4
        MOV       R0,A
        CLR       A
        ADDC      A,?V3
        MOV       R1,A
        MOV       ?V0,R0
        MOV       ?V1,R1
// 3300 
// 3301     for ( x = 0; x < networkListCount; x++ )
        MOV       ?V7,#0x0
??ZDO_ParseMgmNwkDiscRsp_2:
        MOV       A,?V7
        CLR       C
        SUBB      A,?V4
        JC        $+5
        LJMP      ??ZDO_ParseMgmNwkDiscRsp_1 & 0xFFFF
// 3302     {
// 3303       osal_cpyExtAddr(pList->extendedPANID, msg);   //Copy extended PAN ID
        ; Setup parameters for call to function sAddrExtCpy
        MOV       A,R6
        MOV       R4,A
        MOV       A,R7
        MOV       R5,A
        MOV       R2,?V0
        MOV       R3,?V1
        LCALL     `??sAddrExtCpy::?relay`; Banked call to: sAddrExtCpy
// 3304       pList->PANId = BUILD_UINT16( msg[0], msg[1] );
        MOV       DPL,R6
        MOV       DPH,R7
        MOVX      A,@DPTR
        MOV       R2,A
        MOV       R3,#0x0
        MOV       DPL,R6
        MOV       DPH,R7
        INC       DPTR
        MOVX      A,@DPTR
        MOV       R0,A
        MOV       R1,#0x0
        CLR       A
        XCH       A,R0
        MOV       R1,A
        MOV       A,R2
        ADD       A,R0
        MOV       R0,A
        MOV       A,R3
        ADDC      A,R1
        MOV       R1,A
        MOV       DPL,?V0
        MOV       DPH,?V1
        INC       DPTR
        INC       DPTR
        INC       DPTR
        INC       DPTR
        INC       DPTR
        INC       DPTR
        INC       DPTR
        INC       DPTR
        MOV       A,R0
        MOVX      @DPTR,A
        INC       DPTR
        MOV       A,R1
        MOVX      @DPTR,A
// 3305       msg += Z_EXTADDR_LEN;
        MOV       A,R6
        ADD       A,#0x8
        MOV       R6,A
        JNC       ??ZDO_ParseMgmNwkDiscRsp_3
        INC       R7
// 3306 
// 3307       pList->logicalChannel = *msg++;
??ZDO_ParseMgmNwkDiscRsp_3:
        MOV       DPL,R6
        MOV       DPH,R7
        MOVX      A,@DPTR
        PUSH      A
          CFI CFA_SP SP+-1
        MOV       DPL,?V0
        MOV       DPH,?V1
        INC       DPTR
        INC       DPTR
        INC       DPTR
        INC       DPTR
        INC       DPTR
        INC       DPTR
        INC       DPTR
        INC       DPTR
        INC       DPTR
        INC       DPTR
        POP       A
          CFI CFA_SP SP+0
        MOVX      @DPTR,A
        MOV       DPL,R6
        MOV       DPH,R7
        INC       DPTR
        MOV       R6,DPL
        MOV       R7,DPH
// 3308       pList->stackProfile = (*msg) & 0x0F;
        MOV       DPL,R6
        MOV       DPH,R7
        MOVX      A,@DPTR
        ANL       A,#0xf
        PUSH      A
          CFI CFA_SP SP+-1
        MOV       A,?V0
        ADD       A,#0xb
        MOV       DPL,A
        CLR       A
        ADDC      A,?V1
        MOV       DPH,A
        POP       A
          CFI CFA_SP SP+0
        MOVX      @DPTR,A
// 3309       pList->version = (*msg++ >> 4) & 0x0F;
        MOV       DPL,R6
        MOV       DPH,R7
        MOVX      A,@DPTR
        SWAP      A
        ANL       A,#0xf
        PUSH      A
          CFI CFA_SP SP+-1
        MOV       A,?V0
        ADD       A,#0xc
        MOV       DPL,A
        CLR       A
        ADDC      A,?V1
        MOV       DPH,A
        POP       A
          CFI CFA_SP SP+0
        MOVX      @DPTR,A
        MOV       DPL,R6
        MOV       DPH,R7
        INC       DPTR
        MOV       R6,DPL
        MOV       R7,DPH
// 3310       pList->beaconOrder = (*msg) & 0x0F;
        MOV       DPL,R6
        MOV       DPH,R7
        MOVX      A,@DPTR
        ANL       A,#0xf
        PUSH      A
          CFI CFA_SP SP+-1
        MOV       A,?V0
        ADD       A,#0xd
        MOV       DPL,A
        CLR       A
        ADDC      A,?V1
        MOV       DPH,A
        POP       A
          CFI CFA_SP SP+0
        MOVX      @DPTR,A
// 3311       pList->superFrameOrder = (*msg++ >> 4) & 0x0F;
        MOV       DPL,R6
        MOV       DPH,R7
        MOVX      A,@DPTR
        SWAP      A
        ANL       A,#0xf
        PUSH      A
          CFI CFA_SP SP+-1
        MOV       A,?V0
        ADD       A,#0xe
        MOV       DPL,A
        CLR       A
        ADDC      A,?V1
        MOV       DPH,A
        POP       A
          CFI CFA_SP SP+0
        MOVX      @DPTR,A
        MOV       DPL,R6
        MOV       DPH,R7
        INC       DPTR
        MOV       R6,DPL
        MOV       R7,DPH
// 3312       pList->permitJoining = *msg++;
        MOV       DPL,R6
        MOV       DPH,R7
        MOVX      A,@DPTR
        PUSH      A
          CFI CFA_SP SP+-1
        MOV       A,?V0
        ADD       A,#0xf
        MOV       DPL,A
        CLR       A
        ADDC      A,?V1
        MOV       DPH,A
        POP       A
          CFI CFA_SP SP+0
        MOVX      @DPTR,A
        MOV       DPL,R6
        MOV       DPH,R7
        INC       DPTR
        MOV       R6,DPL
        MOV       R7,DPH
// 3313       pList++;
        MOV       A,?V0
        ADD       A,#0x10
        MOV       ?V0,A
        JNC       ??ZDO_ParseMgmNwkDiscRsp_4
        INC       ?V1
// 3314     }
??ZDO_ParseMgmNwkDiscRsp_4:
        INC       ?V7
        LJMP      ??ZDO_ParseMgmNwkDiscRsp_2 & 0xFFFF
// 3315   }
// 3316 
// 3317   return ( pRsp );
??ZDO_ParseMgmNwkDiscRsp_1:
        MOV       R2,?V2
        MOV       R3,?V3
        MOV       R7,#0xc
        LJMP      ?BANKED_LEAVE_XDATA
// 3318 }
          CFI EndBlock cfiBlock43
// 3319 
// 3320 /*********************************************************************
// 3321  * @fn          ZDO_ParseMgmtRtgRsp
// 3322  *
// 3323  * @brief       This function parses the incoming Management
// 3324  *              Routing response.
// 3325  *
// 3326  * @param       inMsg - incoming message
// 3327  *
// 3328  * @return      a pointer to parsed response structure (NULL if not allocated).
// 3329  *          This structure was allocated using osal_mem_alloc, so it must be freed
// 3330  *          by the calling function [osal_mem_free()].
// 3331  */

        RSEG BANKED_CODE:HUGECODE:NOROOT(0)
// 3332 ZDO_MgmtRtgRsp_t *ZDO_ParseMgmtRtgRsp( zdoIncomingMsg_t *inMsg )
ZDO_ParseMgmtRtgRsp:
          CFI Block cfiBlock44 Using cfiCommon0
          CFI Function ZDO_ParseMgmtRtgRsp
        CODE
// 3333 {
        FUNCALL ZDO_ParseMgmtRtgRsp, osal_mem_alloc
        LOCFRAME ISTACK, 0, STACK
        LOCFRAME PSTACK, 0, STACK
        LOCFRAME XSTACK, 18, STACK
        LOCFRAME IOVERLAY, 0, STATIC
        LOCFRAME DOVERLAY, 0, STATIC
        ARGFRAME ISTACK, 0, STACK
        ARGFRAME PSTACK, 0, STACK
        ARGFRAME XSTACK, 18, STACK
        ARGFRAME IOVERLAY, 0, STATIC
        ARGFRAME DOVERLAY, 0, STATIC
        REQUIRE ?V0
        REQUIRE ?V1
        REQUIRE ?V2
        REQUIRE ?V3
        REQUIRE ?V4
        REQUIRE ?V5
        REQUIRE ?V6
        REQUIRE ?V7
        REQUIRE ?V8
        REQUIRE ?V9
        MOV       A,#-0x12
        LCALL     ?BANKED_ENTER_XDATA
          CFI DPH0 load(1, XDATA, add(CFA_XSP16, literal(-1)))
          CFI DPL0 load(1, XDATA, add(CFA_XSP16, literal(-2)))
          CFI ?BRET_EXT load(1, XDATA, add(CFA_XSP16, literal(-3)))
          CFI ?RET_HIGH load(1, XDATA, add(CFA_XSP16, literal(-4)))
          CFI ?RET_LOW load(1, XDATA, add(CFA_XSP16, literal(-5)))
          CFI R7 load(1, XDATA, add(CFA_XSP16, literal(-6)))
          CFI V9 load(1, XDATA, add(CFA_XSP16, literal(-7)))
          CFI V8 load(1, XDATA, add(CFA_XSP16, literal(-8)))
          CFI V7 load(1, XDATA, add(CFA_XSP16, literal(-9)))
          CFI V6 load(1, XDATA, add(CFA_XSP16, literal(-10)))
          CFI V5 load(1, XDATA, add(CFA_XSP16, literal(-11)))
          CFI V4 load(1, XDATA, add(CFA_XSP16, literal(-12)))
          CFI V3 load(1, XDATA, add(CFA_XSP16, literal(-13)))
          CFI V2 load(1, XDATA, add(CFA_XSP16, literal(-14)))
          CFI V1 load(1, XDATA, add(CFA_XSP16, literal(-15)))
          CFI V0 load(1, XDATA, add(CFA_XSP16, literal(-16)))
          CFI VB load(1, XDATA, add(CFA_XSP16, literal(-17)))
          CFI R6 load(1, XDATA, add(CFA_XSP16, literal(-18)))
          CFI CFA_SP SP+0
          CFI CFA_XSP16 add(XSP16, 18)
        ; Saved register size: 18
        ; Auto size: 0
        MOV       ?V2,R2
        MOV       ?V3,R3
// 3334   ZDO_MgmtRtgRsp_t *pRsp;
// 3335   uint8 status;
// 3336   uint8 rtgCount = 0;
        MOV       ?V4,#0x0
// 3337   uint8 startIndex = 0;
        MOV       ?V5,#0x0
// 3338   uint8 rtgListCount = 0;
        MOV       ?V6,#0x0
// 3339   uint8 *msg;
// 3340 
// 3341   msg = inMsg->asdu;
        MOV       A,?V2
        ADD       A,#0x13
        MOV       DPL,A
        CLR       A
        ADDC      A,?V3
        MOV       DPH,A
        MOVX      A,@DPTR
        MOV       R0,A
        INC       DPTR
        MOVX      A,@DPTR
        MOV       R1,A
        MOV       A,R0
        MOV       R6,A
        MOV       A,R1
        MOV       R7,A
// 3342 
// 3343   status = *msg++;
        MOV       DPL,R6
        MOV       DPH,R7
        MOVX      A,@DPTR
        MOV       ?V7,A
        MOV       DPL,R6
        MOV       DPH,R7
        INC       DPTR
        MOV       R6,DPL
        MOV       R7,DPH
// 3344   if ( status == ZSuccess )
        MOV       A,?V7
        JNZ       ??ZDO_ParseMgmtRtgRsp_0
// 3345   {
// 3346     rtgCount = *msg++;
        MOV       DPL,R6
        MOV       DPH,R7
        MOVX      A,@DPTR
        MOV       ?V4,A
        MOV       DPL,R6
        MOV       DPH,R7
        INC       DPTR
        MOV       R6,DPL
        MOV       R7,DPH
// 3347     startIndex = *msg++;
        MOV       DPL,R6
        MOV       DPH,R7
        MOVX      A,@DPTR
        MOV       ?V5,A
        MOV       DPL,R6
        MOV       DPH,R7
        INC       DPTR
        MOV       R6,DPL
        MOV       R7,DPH
// 3348     rtgListCount = *msg++;
        MOV       DPL,R6
        MOV       DPH,R7
        MOVX      A,@DPTR
        MOV       ?V6,A
        MOV       DPL,R6
        MOV       DPH,R7
        INC       DPTR
        MOV       R6,DPL
        MOV       R7,DPH
// 3349   }
// 3350 
// 3351   // Allocate a buffer big enough to handle the list
// 3352   pRsp = (ZDO_MgmtRtgRsp_t *)osal_mem_alloc(
// 3353           sizeof( ZDO_MgmtRtgRsp_t ) + (rtgListCount * sizeof( rtgItem_t )) );
??ZDO_ParseMgmtRtgRsp_0:
        ; Setup parameters for call to function osal_mem_alloc
        MOV       A,?V6
        MOV       R0,A
        MOV       R1,#0x0
        MOV       A,R0
        MOV       B,#0x7
        MUL       AB
        XCH       A,R0
        MOV       R2,B
        MOV       B,#0x0
        MUL       AB
        ADD       A,R2
        MOV       R2,A
        MOV       B,#0x7
        MOV       A,R1
        MUL       AB
        ADD       A,R2
        MOV       R1,A
        MOV       A,R0
        ADD       A,#0x4
        MOV       R2,A
        CLR       A
        ADDC      A,R1
        MOV       R3,A
        LCALL     `??osal_mem_alloc::?relay`; Banked call to: osal_mem_alloc
        MOV       ?V8,R2
        MOV       ?V9,R3
        MOV       ?V0,?V8
        MOV       ?V1,?V9
// 3354   if ( pRsp )
        MOV       A,?V0
        ORL       A,?V1
        JNZ       $+5
        LJMP      ??ZDO_ParseMgmtRtgRsp_1 & 0xFFFF
// 3355   {
// 3356     uint8 x;
// 3357     rtgItem_t *pList = pRsp->list;
        MOV       A,?V0
        ADD       A,#0x4
        MOV       R2,A
        CLR       A
        ADDC      A,?V1
        MOV       R3,A
// 3358     pRsp->status = status;
        MOV       A,?V7
        PUSH      A
          CFI CFA_SP SP+-1
        MOV       DPL,?V0
        MOV       DPH,?V1
        POP       A
          CFI CFA_SP SP+0
        MOVX      @DPTR,A
// 3359     pRsp->rtgCount = rtgCount;
        MOV       A,?V4
        PUSH      A
          CFI CFA_SP SP+-1
        MOV       DPL,?V0
        MOV       DPH,?V1
        INC       DPTR
        POP       A
          CFI CFA_SP SP+0
        MOVX      @DPTR,A
// 3360     pRsp->startIndex = startIndex;
        MOV       A,?V5
        PUSH      A
          CFI CFA_SP SP+-1
        MOV       DPL,?V0
        MOV       DPH,?V1
        INC       DPTR
        INC       DPTR
        POP       A
          CFI CFA_SP SP+0
        MOVX      @DPTR,A
// 3361     pRsp->rtgListCount = rtgListCount;
        MOV       A,?V6
        PUSH      A
          CFI CFA_SP SP+-1
        MOV       DPL,?V0
        MOV       DPH,?V1
        INC       DPTR
        INC       DPTR
        INC       DPTR
        POP       A
          CFI CFA_SP SP+0
        MOVX      @DPTR,A
// 3362 
// 3363     for ( x = 0; x < rtgListCount; x++ )
        MOV       R0,#0x0
??ZDO_ParseMgmtRtgRsp_2:
        MOV       A,R0
        CLR       C
        SUBB      A,?V6
        JC        $+5
        LJMP      ??ZDO_ParseMgmtRtgRsp_1 & 0xFFFF
// 3364     {
// 3365       uint8 statOpt;
// 3366 
// 3367       pList->dstAddress = BUILD_UINT16( msg[0], msg[1] );
        MOV       DPL,R6
        MOV       DPH,R7
        MOVX      A,@DPTR
        MOV       ?V8,A
        MOV       ?V9,#0x0
        MOV       DPL,R6
        MOV       DPH,R7
        INC       DPTR
        MOVX      A,@DPTR
        MOV       R4,A
        MOV       R5,#0x0
        CLR       A
        XCH       A,R4
        MOV       R5,A
        MOV       A,?V8
        ADD       A,R4
        MOV       R4,A
        MOV       A,?V9
        ADDC      A,R5
        MOV       R5,A
        MOV       DPL,R2
        MOV       DPH,R3
        MOV       A,R4
        MOVX      @DPTR,A
        INC       DPTR
        MOV       A,R5
        MOVX      @DPTR,A
// 3368       msg += 2;
        MOV       A,R6
        ADD       A,#0x2
        MOV       R6,A
        JNC       ??ZDO_ParseMgmtRtgRsp_3
        INC       R7
// 3369       statOpt = *msg++;
??ZDO_ParseMgmtRtgRsp_3:
        MOV       DPL,R6
        MOV       DPH,R7
        MOVX      A,@DPTR
        MOV       R1,A
        MOV       DPL,R6
        MOV       DPH,R7
        INC       DPTR
        MOV       R6,DPL
        MOV       R7,DPH
// 3370       pList->status = (statOpt & 0x07);
        MOV       A,#0x7
        ANL       A,R1
        PUSH      A
          CFI CFA_SP SP+-1
        MOV       DPL,R2
        MOV       DPH,R3
        INC       DPTR
        INC       DPTR
        INC       DPTR
        INC       DPTR
        INC       DPTR
        POP       A
          CFI CFA_SP SP+0
        MOVX      @DPTR,A
// 3371       pList->options = ((statOpt >> 3) & 0x07);
        MOV       A,R1
        RRC       A
        RRC       A
        RRC       A
        ANL       A,#0x1f
        ANL       A,#0x7
        PUSH      A
          CFI CFA_SP SP+-1
        MOV       DPL,R2
        MOV       DPH,R3
        INC       DPTR
        INC       DPTR
        INC       DPTR
        INC       DPTR
        INC       DPTR
        INC       DPTR
        POP       A
          CFI CFA_SP SP+0
        MOVX      @DPTR,A
// 3372       pList->nextHopAddress = BUILD_UINT16( msg[0], msg[1] );
        MOV       DPL,R6
        MOV       DPH,R7
        MOVX      A,@DPTR
        MOV       ?V8,A
        MOV       ?V9,#0x0
        MOV       DPL,R6
        MOV       DPH,R7
        INC       DPTR
        MOVX      A,@DPTR
        MOV       R4,A
        MOV       R5,#0x0
        CLR       A
        XCH       A,R4
        MOV       R5,A
        MOV       A,?V8
        ADD       A,R4
        MOV       R4,A
        MOV       A,?V9
        ADDC      A,R5
        MOV       R5,A
        MOV       DPL,R2
        MOV       DPH,R3
        INC       DPTR
        INC       DPTR
        MOV       A,R4
        MOVX      @DPTR,A
        INC       DPTR
        MOV       A,R5
        MOVX      @DPTR,A
// 3373       msg += 2;
        MOV       A,R6
        ADD       A,#0x2
        MOV       R6,A
        JNC       ??ZDO_ParseMgmtRtgRsp_4
        INC       R7
// 3374       pList++;
??ZDO_ParseMgmtRtgRsp_4:
        MOV       A,R2
        ADD       A,#0x7
        MOV       R2,A
        JNC       ??ZDO_ParseMgmtRtgRsp_5
        INC       R3
// 3375     }
??ZDO_ParseMgmtRtgRsp_5:
        INC       R0
        LJMP      ??ZDO_ParseMgmtRtgRsp_2 & 0xFFFF
// 3376   }
// 3377 
// 3378   return ( pRsp );
??ZDO_ParseMgmtRtgRsp_1:
        MOV       R2,?V0
        MOV       R3,?V1
        MOV       R7,#0xa
        LJMP      ?BANKED_LEAVE_XDATA
// 3379 }
          CFI EndBlock cfiBlock44
// 3380 
// 3381 /*********************************************************************
// 3382  * @fn          ZDO_ParseMgmtBindRsp
// 3383  *
// 3384  * @brief       This function parses the incoming Management
// 3385  *              Binding response.
// 3386  *
// 3387  * @param       inMsg - pointer to message to parse
// 3388  *
// 3389  * @return      a pointer to parsed response structure (NULL if not allocated).
// 3390  *          This structure was allocated using osal_mem_alloc, so it must be freed
// 3391  *          by the calling function [osal_mem_free()].
// 3392  */

        RSEG BANKED_CODE:HUGECODE:NOROOT(0)
// 3393 ZDO_MgmtBindRsp_t *ZDO_ParseMgmtBindRsp( zdoIncomingMsg_t *inMsg )
ZDO_ParseMgmtBindRsp:
          CFI Block cfiBlock45 Using cfiCommon0
          CFI Function ZDO_ParseMgmtBindRsp
        CODE
// 3394 {
        FUNCALL ZDO_ParseMgmtBindRsp, osal_mem_alloc
        LOCFRAME ISTACK, 0, STACK
        LOCFRAME PSTACK, 0, STACK
        LOCFRAME XSTACK, 22, STACK
        LOCFRAME IOVERLAY, 0, STATIC
        LOCFRAME DOVERLAY, 0, STATIC
        ARGFRAME ISTACK, 0, STACK
        ARGFRAME PSTACK, 0, STACK
        ARGFRAME XSTACK, 22, STACK
        ARGFRAME IOVERLAY, 0, STATIC
        ARGFRAME DOVERLAY, 0, STATIC
        FUNCALL ZDO_ParseMgmtBindRsp, sAddrExtCpy
        LOCFRAME ISTACK, 0, STACK
        LOCFRAME PSTACK, 0, STACK
        LOCFRAME XSTACK, 22, STACK
        LOCFRAME IOVERLAY, 0, STATIC
        LOCFRAME DOVERLAY, 0, STATIC
        ARGFRAME ISTACK, 0, STACK
        ARGFRAME PSTACK, 0, STACK
        ARGFRAME XSTACK, 22, STACK
        ARGFRAME IOVERLAY, 0, STATIC
        ARGFRAME DOVERLAY, 0, STATIC
        FUNCALL ZDO_ParseMgmtBindRsp, sAddrExtCpy
        LOCFRAME ISTACK, 0, STACK
        LOCFRAME PSTACK, 0, STACK
        LOCFRAME XSTACK, 22, STACK
        LOCFRAME IOVERLAY, 0, STATIC
        LOCFRAME DOVERLAY, 0, STATIC
        ARGFRAME ISTACK, 0, STACK
        ARGFRAME PSTACK, 0, STACK
        ARGFRAME XSTACK, 22, STACK
        ARGFRAME IOVERLAY, 0, STATIC
        ARGFRAME DOVERLAY, 0, STATIC
        REQUIRE ?V0
        REQUIRE ?V1
        REQUIRE ?V2
        REQUIRE ?V3
        REQUIRE ?V4
        REQUIRE ?V5
        REQUIRE ?V6
        REQUIRE ?V7
        REQUIRE ?V8
        REQUIRE ?V10
        REQUIRE ?V11
        REQUIRE ?V12
        REQUIRE ?V13
        MOV       A,#-0x16
        LCALL     ?BANKED_ENTER_XDATA
          CFI DPH0 load(1, XDATA, add(CFA_XSP16, literal(-1)))
          CFI DPL0 load(1, XDATA, add(CFA_XSP16, literal(-2)))
          CFI ?BRET_EXT load(1, XDATA, add(CFA_XSP16, literal(-3)))
          CFI ?RET_HIGH load(1, XDATA, add(CFA_XSP16, literal(-4)))
          CFI ?RET_LOW load(1, XDATA, add(CFA_XSP16, literal(-5)))
          CFI R7 load(1, XDATA, add(CFA_XSP16, literal(-6)))
          CFI V13 load(1, XDATA, add(CFA_XSP16, literal(-7)))
          CFI V12 load(1, XDATA, add(CFA_XSP16, literal(-8)))
          CFI V11 load(1, XDATA, add(CFA_XSP16, literal(-9)))
          CFI V10 load(1, XDATA, add(CFA_XSP16, literal(-10)))
          CFI V9 load(1, XDATA, add(CFA_XSP16, literal(-11)))
          CFI V8 load(1, XDATA, add(CFA_XSP16, literal(-12)))
          CFI V7 load(1, XDATA, add(CFA_XSP16, literal(-13)))
          CFI V6 load(1, XDATA, add(CFA_XSP16, literal(-14)))
          CFI V5 load(1, XDATA, add(CFA_XSP16, literal(-15)))
          CFI V4 load(1, XDATA, add(CFA_XSP16, literal(-16)))
          CFI V3 load(1, XDATA, add(CFA_XSP16, literal(-17)))
          CFI V2 load(1, XDATA, add(CFA_XSP16, literal(-18)))
          CFI V1 load(1, XDATA, add(CFA_XSP16, literal(-19)))
          CFI V0 load(1, XDATA, add(CFA_XSP16, literal(-20)))
          CFI VB load(1, XDATA, add(CFA_XSP16, literal(-21)))
          CFI R6 load(1, XDATA, add(CFA_XSP16, literal(-22)))
          CFI CFA_SP SP+0
          CFI CFA_XSP16 add(XSP16, 22)
        ; Saved register size: 22
        ; Auto size: 0
        MOV       ?V10,R2
        MOV       ?V11,R3
// 3395   ZDO_MgmtBindRsp_t *pRsp;
// 3396   uint8 status;
// 3397   uint8 bindingCount = 0;
        MOV       ?V6,#0x0
// 3398   uint8 startIndex = 0;
        MOV       ?V5,#0x0
// 3399   uint8 bindingListCount = 0;
        MOV       ?V4,#0x0
// 3400   uint8 *msg;
// 3401 
// 3402   msg = inMsg->asdu;
        MOV       A,?V10
        ADD       A,#0x13
        MOV       DPL,A
        CLR       A
        ADDC      A,?V11
        MOV       DPH,A
        MOVX      A,@DPTR
        MOV       R0,A
        INC       DPTR
        MOVX      A,@DPTR
        MOV       R1,A
        MOV       ?V2,R0
        MOV       ?V3,R1
// 3403 
// 3404   status = *msg++;
        MOV       DPL,?V2
        MOV       DPH,?V3
        MOVX      A,@DPTR
        MOV       ?V8,A
        MOV       DPL,?V2
        MOV       DPH,?V3
        INC       DPTR
        MOV       ?V2,DPL
        MOV       ?V3,DPH
// 3405   if ( status == ZSuccess )
        MOV       A,?V8
        JNZ       ??ZDO_ParseMgmtBindRsp_0
// 3406   {
// 3407     bindingCount = *msg++;
        MOV       DPL,?V2
        MOV       DPH,?V3
        MOVX      A,@DPTR
        MOV       ?V6,A
        MOV       DPL,?V2
        MOV       DPH,?V3
        INC       DPTR
        MOV       ?V2,DPL
        MOV       ?V3,DPH
// 3408     startIndex = *msg++;
        MOV       DPL,?V2
        MOV       DPH,?V3
        MOVX      A,@DPTR
        MOV       ?V5,A
        MOV       DPL,?V2
        MOV       DPH,?V3
        INC       DPTR
        MOV       ?V2,DPL
        MOV       ?V3,DPH
// 3409     bindingListCount = *msg++;
        MOV       DPL,?V2
        MOV       DPH,?V3
        MOVX      A,@DPTR
        MOV       ?V4,A
        MOV       DPL,?V2
        MOV       DPH,?V3
        INC       DPTR
        MOV       ?V2,DPL
        MOV       ?V3,DPH
// 3410   }
// 3411 
// 3412   // Allocate a buffer big enough to handle the list
// 3413   pRsp = (ZDO_MgmtBindRsp_t *)osal_mem_alloc(
// 3414           (sizeof ( ZDO_MgmtBindRsp_t ) + (bindingListCount * sizeof( apsBindingItem_t ))) );
??ZDO_ParseMgmtBindRsp_0:
        ; Setup parameters for call to function osal_mem_alloc
        MOV       A,?V4
        MOV       R0,A
        MOV       R1,#0x0
        MOV       A,R0
        MOV       B,#0x15
        MUL       AB
        XCH       A,R0
        MOV       R2,B
        MOV       B,#0x0
        MUL       AB
        ADD       A,R2
        MOV       R2,A
        MOV       B,#0x15
        MOV       A,R1
        MUL       AB
        ADD       A,R2
        MOV       R1,A
        MOV       A,R0
        ADD       A,#0x4
        MOV       R2,A
        CLR       A
        ADDC      A,R1
        MOV       R3,A
        LCALL     `??osal_mem_alloc::?relay`; Banked call to: osal_mem_alloc
        MOV       ?V12,R2
        MOV       ?V13,R3
        MOV       ?V0,?V12
        MOV       ?V1,?V13
// 3415   if ( pRsp )
        MOV       A,?V0
        ORL       A,?V1
        JNZ       $+5
        LJMP      ??ZDO_ParseMgmtBindRsp_1 & 0xFFFF
// 3416   {
// 3417     uint8 x;
// 3418     apsBindingItem_t *pList = pRsp->list;
        MOV       A,?V0
        ADD       A,#0x4
        MOV       R6,A
        CLR       A
        ADDC      A,?V1
        MOV       R7,A
// 3419     pRsp->status = status;
        MOV       A,?V8
        PUSH      A
          CFI CFA_SP SP+-1
        MOV       DPL,?V0
        MOV       DPH,?V1
        POP       A
          CFI CFA_SP SP+0
        MOVX      @DPTR,A
// 3420     pRsp->bindingCount = bindingCount;
        MOV       A,?V6
        PUSH      A
          CFI CFA_SP SP+-1
        MOV       DPL,?V0
        MOV       DPH,?V1
        INC       DPTR
        POP       A
          CFI CFA_SP SP+0
        MOVX      @DPTR,A
// 3421     pRsp->startIndex = startIndex;
        MOV       A,?V5
        PUSH      A
          CFI CFA_SP SP+-1
        MOV       DPL,?V0
        MOV       DPH,?V1
        INC       DPTR
        INC       DPTR
        POP       A
          CFI CFA_SP SP+0
        MOVX      @DPTR,A
// 3422     pRsp->bindingListCount = bindingListCount;
        MOV       A,?V4
        PUSH      A
          CFI CFA_SP SP+-1
        MOV       DPL,?V0
        MOV       DPH,?V1
        INC       DPTR
        INC       DPTR
        INC       DPTR
        POP       A
          CFI CFA_SP SP+0
        MOVX      @DPTR,A
// 3423 
// 3424     for ( x = 0; x < bindingListCount; x++ )
        MOV       ?V7,#0x0
??ZDO_ParseMgmtBindRsp_2:
        MOV       A,?V7
        CLR       C
        SUBB      A,?V4
        JC        $+5
        LJMP      ??ZDO_ParseMgmtBindRsp_1 & 0xFFFF
// 3425     {
// 3426       osal_cpyExtAddr( pList->srcAddr, msg );
        ; Setup parameters for call to function sAddrExtCpy
        MOV       R4,?V2
        MOV       R5,?V3
        MOV       A,R6
        MOV       R2,A
        MOV       A,R7
        MOV       R3,A
        LCALL     `??sAddrExtCpy::?relay`; Banked call to: sAddrExtCpy
// 3427       msg += Z_EXTADDR_LEN;
        MOV       A,?V2
        ADD       A,#0x8
        MOV       ?V2,A
        JNC       ??ZDO_ParseMgmtBindRsp_3
        INC       ?V3
// 3428       pList->srcEP = *msg++;
??ZDO_ParseMgmtBindRsp_3:
        MOV       DPL,?V2
        MOV       DPH,?V3
        MOVX      A,@DPTR
        PUSH      A
          CFI CFA_SP SP+-1
        MOV       DPL,R6
        MOV       DPH,R7
        INC       DPTR
        INC       DPTR
        INC       DPTR
        INC       DPTR
        INC       DPTR
        INC       DPTR
        INC       DPTR
        INC       DPTR
        POP       A
          CFI CFA_SP SP+0
        MOVX      @DPTR,A
        MOV       DPL,?V2
        MOV       DPH,?V3
        INC       DPTR
        MOV       ?V2,DPL
        MOV       ?V3,DPH
// 3429 
// 3430       // Get the Cluster ID
// 3431 
// 3432       pList->clusterID = BUILD_UINT16( msg[0], msg[1] );
        MOV       DPL,?V2
        MOV       DPH,?V3
        MOVX      A,@DPTR
        MOV       R2,A
        MOV       R3,#0x0
        MOV       DPL,?V2
        MOV       DPH,?V3
        INC       DPTR
        MOVX      A,@DPTR
        MOV       R0,A
        MOV       R1,#0x0
        CLR       A
        XCH       A,R0
        MOV       R1,A
        MOV       A,R2
        ADD       A,R0
        MOV       R0,A
        MOV       A,R3
        ADDC      A,R1
        MOV       R1,A
        MOV       DPL,R6
        MOV       DPH,R7
        INC       DPTR
        INC       DPTR
        INC       DPTR
        INC       DPTR
        INC       DPTR
        INC       DPTR
        INC       DPTR
        INC       DPTR
        INC       DPTR
        MOV       A,R0
        MOVX      @DPTR,A
        INC       DPTR
        MOV       A,R1
        MOVX      @DPTR,A
// 3433       msg += 2;
        MOV       A,?V2
        ADD       A,#0x2
        MOV       ?V2,A
        JNC       ??ZDO_ParseMgmtBindRsp_4
        INC       ?V3
// 3434       pList->dstAddr.addrMode = *msg++;
??ZDO_ParseMgmtBindRsp_4:
        MOV       DPL,?V2
        MOV       DPH,?V3
        MOVX      A,@DPTR
        PUSH      A
          CFI CFA_SP SP+-1
        MOV       A,R6
        ADD       A,#0x13
        MOV       DPL,A
        CLR       A
        ADDC      A,R7
        MOV       DPH,A
        POP       A
          CFI CFA_SP SP+0
        MOVX      @DPTR,A
        MOV       DPL,?V2
        MOV       DPH,?V3
        INC       DPTR
        MOV       ?V2,DPL
        MOV       ?V3,DPH
// 3435       if ( pList->dstAddr.addrMode == Addr64Bit )
        MOV       A,R6
        ADD       A,#0x13
        MOV       DPL,A
        CLR       A
        ADDC      A,R7
        MOV       DPH,A
        MOVX      A,@DPTR
        XRL       A,#0x3
        JNZ       ??ZDO_ParseMgmtBindRsp_5
// 3436       {
// 3437         osal_cpyExtAddr( pList->dstAddr.addr.extAddr, msg );
        ; Setup parameters for call to function sAddrExtCpy
        MOV       R4,?V2
        MOV       R5,?V3
        MOV       A,R6
        ADD       A,#0xb
        MOV       R2,A
        CLR       A
        ADDC      A,R7
        MOV       R3,A
        LCALL     `??sAddrExtCpy::?relay`; Banked call to: sAddrExtCpy
// 3438         msg += Z_EXTADDR_LEN;
        MOV       A,?V2
        ADD       A,#0x8
        MOV       ?V2,A
        JNC       ??ZDO_ParseMgmtBindRsp_6
        INC       ?V3
// 3439         pList->dstEP = *msg++;
??ZDO_ParseMgmtBindRsp_6:
        MOV       DPL,?V2
        MOV       DPH,?V3
        MOVX      A,@DPTR
        PUSH      A
          CFI CFA_SP SP+-1
        MOV       A,R6
        ADD       A,#0x14
        MOV       DPL,A
        CLR       A
        ADDC      A,R7
        MOV       DPH,A
        POP       A
          CFI CFA_SP SP+0
        MOVX      @DPTR,A
        MOV       DPL,?V2
        MOV       DPH,?V3
        INC       DPTR
        MOV       ?V2,DPL
        MOV       ?V3,DPH
        SJMP      ??ZDO_ParseMgmtBindRsp_7
// 3440       }
// 3441       else
// 3442       {
// 3443         pList->dstAddr.addr.shortAddr = BUILD_UINT16( msg[0], msg[1] );
??ZDO_ParseMgmtBindRsp_5:
        MOV       DPL,?V2
        MOV       DPH,?V3
        MOVX      A,@DPTR
        MOV       R2,A
        MOV       R3,#0x0
        MOV       DPL,?V2
        MOV       DPH,?V3
        INC       DPTR
        MOVX      A,@DPTR
        MOV       R0,A
        MOV       R1,#0x0
        CLR       A
        XCH       A,R0
        MOV       R1,A
        MOV       A,R2
        ADD       A,R0
        MOV       R0,A
        MOV       A,R3
        ADDC      A,R1
        MOV       R1,A
        MOV       A,R6
        ADD       A,#0xb
        MOV       DPL,A
        CLR       A
        ADDC      A,R7
        MOV       DPH,A
        MOV       A,R0
        MOVX      @DPTR,A
        INC       DPTR
        MOV       A,R1
        MOVX      @DPTR,A
// 3444         msg += 2;
        MOV       A,?V2
        ADD       A,#0x2
        MOV       ?V2,A
        JNC       ??ZDO_ParseMgmtBindRsp_7
        INC       ?V3
// 3445       }
// 3446 
// 3447       pList++;
??ZDO_ParseMgmtBindRsp_7:
        MOV       A,R6
        ADD       A,#0x15
        MOV       R6,A
        JNC       ??ZDO_ParseMgmtBindRsp_8
        INC       R7
// 3448     }
??ZDO_ParseMgmtBindRsp_8:
        INC       ?V7
        LJMP      ??ZDO_ParseMgmtBindRsp_2 & 0xFFFF
// 3449   }
// 3450 
// 3451   return ( pRsp );
??ZDO_ParseMgmtBindRsp_1:
        MOV       R2,?V0
        MOV       R3,?V1
        MOV       R7,#0xe
        LJMP      ?BANKED_LEAVE_XDATA
// 3452 }
          CFI EndBlock cfiBlock45
// 3453 
// 3454 /*********************************************************************
// 3455  * @fn          ZDO_ParseUserDescRsp
// 3456  *
// 3457  * @brief       This function parses the incoming User
// 3458  *              Descriptor Response.
// 3459  *
// 3460  * @param       inMsg - incoming response message
// 3461  *
// 3462  * @return      a pointer to parsed response structure (NULL if not allocated).
// 3463  *          This structure was allocated using osal_mem_alloc, so it must be freed
// 3464  *          by the calling function [osal_mem_free()].
// 3465  */

        RSEG BANKED_CODE:HUGECODE:NOROOT(0)
// 3466 ZDO_UserDescRsp_t *ZDO_ParseUserDescRsp( zdoIncomingMsg_t *inMsg )
ZDO_ParseUserDescRsp:
          CFI Block cfiBlock46 Using cfiCommon0
          CFI Function ZDO_ParseUserDescRsp
        CODE
// 3467 {
        FUNCALL ZDO_ParseUserDescRsp, osal_mem_alloc
        LOCFRAME ISTACK, 0, STACK
        LOCFRAME PSTACK, 0, STACK
        LOCFRAME XSTACK, 16, STACK
        LOCFRAME IOVERLAY, 0, STATIC
        LOCFRAME DOVERLAY, 0, STATIC
        ARGFRAME ISTACK, 0, STACK
        ARGFRAME PSTACK, 0, STACK
        ARGFRAME XSTACK, 16, STACK
        ARGFRAME IOVERLAY, 0, STATIC
        ARGFRAME DOVERLAY, 0, STATIC
        FUNCALL ZDO_ParseUserDescRsp, osal_memcpy
        LOCFRAME ISTACK, 0, STACK
        LOCFRAME PSTACK, 0, STACK
        LOCFRAME XSTACK, 19, STACK
        LOCFRAME IOVERLAY, 0, STATIC
        LOCFRAME DOVERLAY, 0, STATIC
        ARGFRAME ISTACK, 0, STACK
        ARGFRAME PSTACK, 0, STACK
        ARGFRAME XSTACK, 19, STACK
        ARGFRAME IOVERLAY, 0, STATIC
        ARGFRAME DOVERLAY, 0, STATIC
        REQUIRE ?V0
        REQUIRE ?V1
        REQUIRE ?V2
        REQUIRE ?V3
        REQUIRE ?V4
        REQUIRE ?V5
        REQUIRE ?V6
        REQUIRE ?V7
        MOV       A,#-0x10
        LCALL     ?BANKED_ENTER_XDATA
          CFI DPH0 load(1, XDATA, add(CFA_XSP16, literal(-1)))
          CFI DPL0 load(1, XDATA, add(CFA_XSP16, literal(-2)))
          CFI ?BRET_EXT load(1, XDATA, add(CFA_XSP16, literal(-3)))
          CFI ?RET_HIGH load(1, XDATA, add(CFA_XSP16, literal(-4)))
          CFI ?RET_LOW load(1, XDATA, add(CFA_XSP16, literal(-5)))
          CFI R7 load(1, XDATA, add(CFA_XSP16, literal(-6)))
          CFI V7 load(1, XDATA, add(CFA_XSP16, literal(-7)))
          CFI V6 load(1, XDATA, add(CFA_XSP16, literal(-8)))
          CFI V5 load(1, XDATA, add(CFA_XSP16, literal(-9)))
          CFI V4 load(1, XDATA, add(CFA_XSP16, literal(-10)))
          CFI V3 load(1, XDATA, add(CFA_XSP16, literal(-11)))
          CFI V2 load(1, XDATA, add(CFA_XSP16, literal(-12)))
          CFI V1 load(1, XDATA, add(CFA_XSP16, literal(-13)))
          CFI V0 load(1, XDATA, add(CFA_XSP16, literal(-14)))
          CFI VB load(1, XDATA, add(CFA_XSP16, literal(-15)))
          CFI R6 load(1, XDATA, add(CFA_XSP16, literal(-16)))
          CFI CFA_SP SP+0
          CFI CFA_XSP16 add(XSP16, 16)
        ; Saved register size: 16
        ; Auto size: 0
        MOV       ?V2,R2
        MOV       ?V3,R3
// 3468   ZDO_UserDescRsp_t *pRsp;
// 3469   uint8 *msg;
// 3470   uint8 descLen = 0;
        MOV       ?V7,#0x0
// 3471 
// 3472   msg = inMsg->asdu;
        MOV       A,?V2
        ADD       A,#0x13
        MOV       DPL,A
        CLR       A
        ADDC      A,?V3
        MOV       DPH,A
        MOVX      A,@DPTR
        MOV       R0,A
        INC       DPTR
        MOVX      A,@DPTR
        MOV       R1,A
        MOV       ?V0,R0
        MOV       ?V1,R1
// 3473 
// 3474   if ( msg[0] == ZSuccess )
        MOV       DPL,?V0
        MOV       DPH,?V1
        MOVX      A,@DPTR
        JNZ       ??ZDO_ParseUserDescRsp_0
// 3475   {
// 3476     descLen = msg[3];
        MOV       DPL,?V0
        MOV       DPH,?V1
        INC       DPTR
        INC       DPTR
        INC       DPTR
        MOVX      A,@DPTR
        MOV       ?V7,A
// 3477   }
// 3478 
// 3479   pRsp = (ZDO_UserDescRsp_t *)osal_mem_alloc( sizeof ( ZDO_UserDescRsp_t ) + descLen );
??ZDO_ParseUserDescRsp_0:
        ; Setup parameters for call to function osal_mem_alloc
        MOV       A,?V7
        MOV       R0,A
        MOV       R1,#0x0
        MOV       A,R0
        ADD       A,#0x4
        MOV       R2,A
        CLR       A
        ADDC      A,R1
        MOV       R3,A
        LCALL     `??osal_mem_alloc::?relay`; Banked call to: osal_mem_alloc
        MOV       ?V4,R2
        MOV       ?V5,R3
        MOV       R6,?V4
        MOV       R7,?V5
// 3480   if ( pRsp )
        MOV       A,R6
        ORL       A,R7
        JZ        ??ZDO_ParseUserDescRsp_1
// 3481   {
// 3482     pRsp->status = msg[0];
        MOV       DPL,?V0
        MOV       DPH,?V1
        MOVX      A,@DPTR
        PUSH      A
          CFI CFA_SP SP+-1
        MOV       DPL,R6
        MOV       DPH,R7
        POP       A
          CFI CFA_SP SP+0
        MOVX      @DPTR,A
// 3483     pRsp->nwkAddr = BUILD_UINT16( msg[1], msg[2] );
        MOV       DPL,?V0
        MOV       DPH,?V1
        INC       DPTR
        MOVX      A,@DPTR
        MOV       R2,A
        MOV       R3,#0x0
        MOV       DPL,?V0
        MOV       DPH,?V1
        INC       DPTR
        INC       DPTR
        MOVX      A,@DPTR
        MOV       R0,A
        MOV       R1,#0x0
        CLR       A
        XCH       A,R0
        MOV       R1,A
        MOV       A,R2
        ADD       A,R0
        MOV       R0,A
        MOV       A,R3
        ADDC      A,R1
        MOV       R1,A
        MOV       DPL,R6
        MOV       DPH,R7
        INC       DPTR
        MOV       A,R0
        MOVX      @DPTR,A
        INC       DPTR
        MOV       A,R1
        MOVX      @DPTR,A
// 3484     pRsp->length = descLen;
        MOV       A,?V7
        PUSH      A
          CFI CFA_SP SP+-1
        MOV       DPL,R6
        MOV       DPH,R7
        INC       DPTR
        INC       DPTR
        INC       DPTR
        POP       A
          CFI CFA_SP SP+0
        MOVX      @DPTR,A
// 3485     if ( descLen )
        MOV       A,?V7
        JZ        ??ZDO_ParseUserDescRsp_1
// 3486     {
// 3487       osal_memcpy( pRsp->desc, &msg[4], descLen );
        ; Setup parameters for call to function osal_memcpy
        MOV       A,?V0
        ADD       A,#0x4
        MOV       ?V4,A
        CLR       A
        ADDC      A,?V1
        MOV       ?V5,A
        MOV       ?V6,#0x0
        MOV       R0,#?V4
        LCALL     ?PUSH_XSTACK_I_THREE
          CFI CFA_XSP16 add(XSP16, 19)
        MOV       A,?V7
        MOV       R4,A
        MOV       R5,#0x0
        MOV       A,R6
        ADD       A,#0x4
        MOV       R2,A
        CLR       A
        ADDC      A,R7
        MOV       R3,A
        LCALL     `??osal_memcpy::?relay`; Banked call to: osal_memcpy
        MOV       A,#0x3
        LCALL     ?DEALLOC_XSTACK8
          CFI CFA_XSP16 add(XSP16, 16)
// 3488     }
// 3489   }
// 3490 
// 3491   return ( pRsp );
??ZDO_ParseUserDescRsp_1:
        MOV       A,R6
        MOV       R2,A
        MOV       A,R7
        MOV       R3,A
        MOV       R7,#0x8
        LJMP      ?BANKED_LEAVE_XDATA
// 3492 }
          CFI EndBlock cfiBlock46
// 3493 
// 3494 /*********************************************************************
// 3495  * @fn          ZDO_ParseSimpleDescBuf
// 3496  *
// 3497  * @brief       Parse a byte sequence representation of a Simple Descriptor.
// 3498  *
// 3499  * @param       buf  - pointer to a byte array representing a Simple Desc.
// 3500  * @param       desc - SimpleDescriptionFormat_t *
// 3501  *
// 3502  *              This routine allocates storage for the cluster IDs because
// 3503  *              they are 16-bit and need to be aligned to be properly processed.
// 3504  *              This routine returns non-zero if an allocation fails.
// 3505  *
// 3506  *              NOTE: This means that the caller or user of the input structure
// 3507  *                    is responsible for freeing the memory
// 3508  *
// 3509  * @return      0: success
// 3510  *              1: failure due to malloc failure.
// 3511  */

        RSEG BANKED_CODE:HUGECODE:NOROOT(0)
// 3512 uint8 ZDO_ParseSimpleDescBuf( uint8 *buf, SimpleDescriptionFormat_t *desc )
ZDO_ParseSimpleDescBuf:
          CFI Block cfiBlock47 Using cfiCommon0
          CFI Function ZDO_ParseSimpleDescBuf
        CODE
// 3513 {
        FUNCALL ZDO_ParseSimpleDescBuf, osal_mem_alloc
        LOCFRAME ISTACK, 0, STACK
        LOCFRAME PSTACK, 0, STACK
        LOCFRAME XSTACK, 12, STACK
        LOCFRAME IOVERLAY, 0, STATIC
        LOCFRAME DOVERLAY, 0, STATIC
        ARGFRAME ISTACK, 0, STACK
        ARGFRAME PSTACK, 0, STACK
        ARGFRAME XSTACK, 12, STACK
        ARGFRAME IOVERLAY, 0, STATIC
        ARGFRAME DOVERLAY, 0, STATIC
        FUNCALL ZDO_ParseSimpleDescBuf, osal_mem_alloc
        LOCFRAME ISTACK, 0, STACK
        LOCFRAME PSTACK, 0, STACK
        LOCFRAME XSTACK, 12, STACK
        LOCFRAME IOVERLAY, 0, STATIC
        LOCFRAME DOVERLAY, 0, STATIC
        ARGFRAME ISTACK, 0, STACK
        ARGFRAME PSTACK, 0, STACK
        ARGFRAME XSTACK, 12, STACK
        ARGFRAME IOVERLAY, 0, STATIC
        ARGFRAME DOVERLAY, 0, STATIC
        FUNCALL ZDO_ParseSimpleDescBuf, osal_mem_free
        LOCFRAME ISTACK, 0, STACK
        LOCFRAME PSTACK, 0, STACK
        LOCFRAME XSTACK, 12, STACK
        LOCFRAME IOVERLAY, 0, STATIC
        LOCFRAME DOVERLAY, 0, STATIC
        ARGFRAME ISTACK, 0, STACK
        ARGFRAME PSTACK, 0, STACK
        ARGFRAME XSTACK, 12, STACK
        ARGFRAME IOVERLAY, 0, STATIC
        ARGFRAME DOVERLAY, 0, STATIC
        REQUIRE ?V0
        REQUIRE ?V1
        REQUIRE ?V2
        REQUIRE ?V3
        MOV       A,#-0xc
        LCALL     ?BANKED_ENTER_XDATA
          CFI DPH0 load(1, XDATA, add(CFA_XSP16, literal(-1)))
          CFI DPL0 load(1, XDATA, add(CFA_XSP16, literal(-2)))
          CFI ?BRET_EXT load(1, XDATA, add(CFA_XSP16, literal(-3)))
          CFI ?RET_HIGH load(1, XDATA, add(CFA_XSP16, literal(-4)))
          CFI ?RET_LOW load(1, XDATA, add(CFA_XSP16, literal(-5)))
          CFI R7 load(1, XDATA, add(CFA_XSP16, literal(-6)))
          CFI V3 load(1, XDATA, add(CFA_XSP16, literal(-7)))
          CFI V2 load(1, XDATA, add(CFA_XSP16, literal(-8)))
          CFI V1 load(1, XDATA, add(CFA_XSP16, literal(-9)))
          CFI V0 load(1, XDATA, add(CFA_XSP16, literal(-10)))
          CFI VB load(1, XDATA, add(CFA_XSP16, literal(-11)))
          CFI R6 load(1, XDATA, add(CFA_XSP16, literal(-12)))
          CFI CFA_SP SP+0
          CFI CFA_XSP16 add(XSP16, 12)
        ; Saved register size: 12
        ; Auto size: 0
        MOV       A,R2
        MOV       R6,A
        MOV       A,R3
        MOV       R7,A
        MOV       ?V0,R4
        MOV       ?V1,R5
// 3514   uint8 num, i;
// 3515 
// 3516   desc->EndPoint = *buf++;
        MOV       DPL,R6
        MOV       DPH,R7
        MOVX      A,@DPTR
        PUSH      A
          CFI CFA_SP SP+-1
        MOV       DPL,?V0
        MOV       DPH,?V1
        POP       A
          CFI CFA_SP SP+0
        MOVX      @DPTR,A
        MOV       DPL,R6
        MOV       DPH,R7
        INC       DPTR
        MOV       R6,DPL
        MOV       R7,DPH
// 3517   desc->AppProfId = BUILD_UINT16( buf[0], buf[1] );
        MOV       DPL,R6
        MOV       DPH,R7
        MOVX      A,@DPTR
        MOV       R2,A
        MOV       R3,#0x0
        MOV       DPL,R6
        MOV       DPH,R7
        INC       DPTR
        MOVX      A,@DPTR
        MOV       R0,A
        MOV       R1,#0x0
        CLR       A
        XCH       A,R0
        MOV       R1,A
        MOV       A,R2
        ADD       A,R0
        MOV       R0,A
        MOV       A,R3
        ADDC      A,R1
        MOV       R1,A
        MOV       DPL,?V0
        MOV       DPH,?V1
        INC       DPTR
        MOV       A,R0
        MOVX      @DPTR,A
        INC       DPTR
        MOV       A,R1
        MOVX      @DPTR,A
// 3518   buf += 2;
        MOV       A,R6
        ADD       A,#0x2
        MOV       R6,A
        JNC       ??ZDO_ParseSimpleDescBuf_0
        INC       R7
// 3519   desc->AppDeviceId = BUILD_UINT16( buf[0], buf[1] );
??ZDO_ParseSimpleDescBuf_0:
        MOV       DPL,R6
        MOV       DPH,R7
        MOVX      A,@DPTR
        MOV       R2,A
        MOV       R3,#0x0
        MOV       DPL,R6
        MOV       DPH,R7
        INC       DPTR
        MOVX      A,@DPTR
        MOV       R0,A
        MOV       R1,#0x0
        CLR       A
        XCH       A,R0
        MOV       R1,A
        MOV       A,R2
        ADD       A,R0
        MOV       R0,A
        MOV       A,R3
        ADDC      A,R1
        MOV       R1,A
        MOV       DPL,?V0
        MOV       DPH,?V1
        INC       DPTR
        INC       DPTR
        INC       DPTR
        MOV       A,R0
        MOVX      @DPTR,A
        INC       DPTR
        MOV       A,R1
        MOVX      @DPTR,A
// 3520   buf += 2;
        MOV       A,R6
        ADD       A,#0x2
        MOV       R6,A
        JNC       ??ZDO_ParseSimpleDescBuf_1
        INC       R7
// 3521   desc->AppDevVer = *buf >> 4;
??ZDO_ParseSimpleDescBuf_1:
        MOV       DPL,R6
        MOV       DPH,R7
        MOVX      A,@DPTR
        SWAP      A
        ANL       A,#0xf
        MOV       R0,A
        MOV       A,#0xf
        ANL       A,R0
        MOV       R0,A
        MOV       DPL,?V0
        MOV       DPH,?V1
        INC       DPTR
        INC       DPTR
        INC       DPTR
        INC       DPTR
        INC       DPTR
        MOVX      A,@DPTR
        ANL       A,#0xf0
        ORL       A,R0
        PUSH      A
          CFI CFA_SP SP+-1
        MOV       DPL,?V0
        MOV       DPH,?V1
        INC       DPTR
        INC       DPTR
        INC       DPTR
        INC       DPTR
        INC       DPTR
        POP       A
          CFI CFA_SP SP+0
        MOVX      @DPTR,A
// 3522 
// 3523   desc->Reserved = 0;
        MOV       DPL,?V0
        MOV       DPH,?V1
        INC       DPTR
        INC       DPTR
        INC       DPTR
        INC       DPTR
        INC       DPTR
        MOVX      A,@DPTR
        ANL       A,#0xf
        MOVX      @DPTR,A
// 3524   buf++;
        MOV       DPL,R6
        MOV       DPH,R7
        INC       DPTR
        MOV       R6,DPL
        MOV       R7,DPH
// 3525 
// 3526   // move in input cluster list (if any). allocate aligned memory.
// 3527   num = desc->AppNumInClusters = *buf++;
        MOV       DPL,R6
        MOV       DPH,R7
        MOVX      A,@DPTR
        MOV       R0,A
        MOV       DPL,R6
        MOV       DPH,R7
        INC       DPTR
        MOV       R6,DPL
        MOV       R7,DPH
        MOV       A,R0
        PUSH      A
          CFI CFA_SP SP+-1
        MOV       DPL,?V0
        MOV       DPH,?V1
        INC       DPTR
        INC       DPTR
        INC       DPTR
        INC       DPTR
        INC       DPTR
        INC       DPTR
        POP       A
          CFI CFA_SP SP+0
        MOVX      @DPTR,A
        MOV       ?V3,R0
// 3528   if ( num )
        MOV       A,?V3
        JNZ       $+5
        LJMP      ??ZDO_ParseSimpleDescBuf_2 & 0xFFFF
// 3529   {
// 3530     if (!(desc->pAppInClusterList = (uint16 *)osal_mem_alloc(num*sizeof(uint16))))
        ; Setup parameters for call to function osal_mem_alloc
        MOV       A,?V3
        MOV       R2,A
        MOV       R3,#0x0
        MOV       A,R2
        MOV       B,#0x2
        MUL       AB
        XCH       A,R2
        MOV       R0,B
        MOV       B,#0x0
        MUL       AB
        ADD       A,R0
        MOV       R0,A
        MOV       B,#0x2
        MOV       A,R3
        MUL       AB
        ADD       A,R0
        MOV       R3,A
        LCALL     `??osal_mem_alloc::?relay`; Banked call to: osal_mem_alloc
        MOV       DPL,?V0
        MOV       DPH,?V1
        INC       DPTR
        INC       DPTR
        INC       DPTR
        INC       DPTR
        INC       DPTR
        INC       DPTR
        INC       DPTR
        MOV       A,R2
        MOVX      @DPTR,A
        INC       DPTR
        MOV       A,R3
        MOVX      @DPTR,A
        MOV       DPL,?V0
        MOV       DPH,?V1
        INC       DPTR
        INC       DPTR
        INC       DPTR
        INC       DPTR
        INC       DPTR
        INC       DPTR
        INC       DPTR
        MOVX      A,@DPTR
        MOV       R0,A
        INC       DPTR
        MOVX      A,@DPTR
        MOV       R1,A
        MOV       A,R0
        ORL       A,R1
        JNZ       ??ZDO_ParseSimpleDescBuf_3
// 3531     {
// 3532       // malloc failed. we're done.
// 3533       return 1;
        MOV       R1,#0x1
        LJMP      ??ZDO_ParseSimpleDescBuf_4 & 0xFFFF
// 3534     }
// 3535     for (i=0; i<num; ++i)
??ZDO_ParseSimpleDescBuf_3:
        MOV       ?V2,#0x0
??ZDO_ParseSimpleDescBuf_5:
        MOV       A,?V2
        CLR       C
        SUBB      A,?V3
        JNC       ??ZDO_ParseSimpleDescBuf_2
// 3536     {
// 3537       desc->pAppInClusterList[i] = BUILD_UINT16( buf[0], buf[1] );
        MOV       DPL,R6
        MOV       DPH,R7
        MOVX      A,@DPTR
        MOV       R2,A
        MOV       R3,#0x0
        MOV       DPL,R6
        MOV       DPH,R7
        INC       DPTR
        MOVX      A,@DPTR
        MOV       R0,A
        MOV       R1,#0x0
        CLR       A
        XCH       A,R0
        MOV       R1,A
        MOV       A,R2
        ADD       A,R0
        MOV       R2,A
        MOV       A,R3
        ADDC      A,R1
        MOV       R3,A
        MOV       A,?V2
        MOV       R0,A
        MOV       R1,#0x0
        MOV       A,R0
        MOV       B,#0x2
        MUL       AB
        XCH       A,R0
        MOV       R4,B
        MOV       B,#0x0
        MUL       AB
        ADD       A,R4
        MOV       R4,A
        MOV       B,#0x2
        MOV       A,R1
        MUL       AB
        ADD       A,R4
        MOV       R1,A
        MOV       DPL,?V0
        MOV       DPH,?V1
        INC       DPTR
        INC       DPTR
        INC       DPTR
        INC       DPTR
        INC       DPTR
        INC       DPTR
        INC       DPTR
        MOVX      A,@DPTR
        ADD       A,R0
        MOV       R4,A
        INC       DPTR
        MOVX      A,@DPTR
        ADDC      A,R1
        MOV       DPL,R4
        MOV       DPH,A
        MOV       A,R2
        MOVX      @DPTR,A
        INC       DPTR
        MOV       A,R3
        MOVX      @DPTR,A
// 3538       buf += 2;
        MOV       A,R6
        ADD       A,#0x2
        MOV       R6,A
        JNC       ??ZDO_ParseSimpleDescBuf_6
        INC       R7
// 3539     }
??ZDO_ParseSimpleDescBuf_6:
        INC       ?V2
        SJMP      ??ZDO_ParseSimpleDescBuf_5
// 3540   }
// 3541 
// 3542   // move in output cluster list (if any). allocate aligned memory.
// 3543   num = desc->AppNumOutClusters = *buf++;
??ZDO_ParseSimpleDescBuf_2:
        MOV       DPL,R6
        MOV       DPH,R7
        MOVX      A,@DPTR
        MOV       R0,A
        MOV       DPL,R6
        MOV       DPH,R7
        INC       DPTR
        MOV       R6,DPL
        MOV       R7,DPH
        MOV       A,R0
        PUSH      A
          CFI CFA_SP SP+-1
        MOV       DPL,?V0
        MOV       DPH,?V1
        INC       DPTR
        INC       DPTR
        INC       DPTR
        INC       DPTR
        INC       DPTR
        INC       DPTR
        INC       DPTR
        INC       DPTR
        INC       DPTR
        POP       A
          CFI CFA_SP SP+0
        MOVX      @DPTR,A
        MOV       ?V3,R0
// 3544   if (num)
        MOV       A,?V3
        JNZ       $+5
        LJMP      ??ZDO_ParseSimpleDescBuf_7 & 0xFFFF
// 3545   {
// 3546     if (!(desc->pAppOutClusterList = (uint16 *)osal_mem_alloc(num*sizeof(uint16))))
        ; Setup parameters for call to function osal_mem_alloc
        MOV       A,?V3
        MOV       R2,A
        MOV       R3,#0x0
        MOV       A,R2
        MOV       B,#0x2
        MUL       AB
        XCH       A,R2
        MOV       R0,B
        MOV       B,#0x0
        MUL       AB
        ADD       A,R0
        MOV       R0,A
        MOV       B,#0x2
        MOV       A,R3
        MUL       AB
        ADD       A,R0
        MOV       R3,A
        LCALL     `??osal_mem_alloc::?relay`; Banked call to: osal_mem_alloc
        MOV       DPL,?V0
        MOV       DPH,?V1
        INC       DPTR
        INC       DPTR
        INC       DPTR
        INC       DPTR
        INC       DPTR
        INC       DPTR
        INC       DPTR
        INC       DPTR
        INC       DPTR
        INC       DPTR
        MOV       A,R2
        MOVX      @DPTR,A
        INC       DPTR
        MOV       A,R3
        MOVX      @DPTR,A
        MOV       DPL,?V0
        MOV       DPH,?V1
        INC       DPTR
        INC       DPTR
        INC       DPTR
        INC       DPTR
        INC       DPTR
        INC       DPTR
        INC       DPTR
        INC       DPTR
        INC       DPTR
        INC       DPTR
        MOVX      A,@DPTR
        MOV       R0,A
        INC       DPTR
        MOVX      A,@DPTR
        MOV       R1,A
        MOV       A,R0
        ORL       A,R1
        JNZ       ??ZDO_ParseSimpleDescBuf_8
// 3547     {
// 3548       // malloc failed. free input cluster list memory if there is any
// 3549       if ( desc->pAppInClusterList != NULL )
        MOV       DPL,?V0
        MOV       DPH,?V1
        INC       DPTR
        INC       DPTR
        INC       DPTR
        INC       DPTR
        INC       DPTR
        INC       DPTR
        INC       DPTR
        MOVX      A,@DPTR
        MOV       R0,A
        INC       DPTR
        MOVX      A,@DPTR
        MOV       R1,A
        MOV       A,R0
        ORL       A,R1
        JZ        ??ZDO_ParseSimpleDescBuf_9
// 3550       {
// 3551         osal_mem_free(desc->pAppInClusterList);
        ; Setup parameters for call to function osal_mem_free
        MOV       DPL,?V0
        MOV       DPH,?V1
        INC       DPTR
        INC       DPTR
        INC       DPTR
        INC       DPTR
        INC       DPTR
        INC       DPTR
        INC       DPTR
        MOVX      A,@DPTR
        MOV       R2,A
        INC       DPTR
        MOVX      A,@DPTR
        MOV       R3,A
        LCALL     `??osal_mem_free::?relay`; Banked call to: osal_mem_free
// 3552 
// 3553         desc->pAppInClusterList = NULL;
        MOV       DPL,?V0
        MOV       DPH,?V1
        INC       DPTR
        INC       DPTR
        INC       DPTR
        INC       DPTR
        INC       DPTR
        INC       DPTR
        INC       DPTR
        MOV       A,#0x0
        MOVX      @DPTR,A
        INC       DPTR
        MOV       A,#0x0
        MOVX      @DPTR,A
// 3554       }
// 3555       return 1;
??ZDO_ParseSimpleDescBuf_9:
        MOV       R1,#0x1
        SJMP      ??ZDO_ParseSimpleDescBuf_4
// 3556     }
// 3557     for (i=0; i<num; ++i)
??ZDO_ParseSimpleDescBuf_8:
        MOV       ?V2,#0x0
??ZDO_ParseSimpleDescBuf_10:
        MOV       A,?V2
        CLR       C
        SUBB      A,?V3
        JNC       ??ZDO_ParseSimpleDescBuf_7
// 3558     {
// 3559       desc->pAppOutClusterList[i] = BUILD_UINT16( buf[0], buf[1] );
        MOV       DPL,R6
        MOV       DPH,R7
        MOVX      A,@DPTR
        MOV       R2,A
        MOV       R3,#0x0
        MOV       DPL,R6
        MOV       DPH,R7
        INC       DPTR
        MOVX      A,@DPTR
        MOV       R0,A
        MOV       R1,#0x0
        CLR       A
        XCH       A,R0
        MOV       R1,A
        MOV       A,R2
        ADD       A,R0
        MOV       R2,A
        MOV       A,R3
        ADDC      A,R1
        MOV       R3,A
        MOV       A,?V2
        MOV       R0,A
        MOV       R1,#0x0
        MOV       A,R0
        MOV       B,#0x2
        MUL       AB
        XCH       A,R0
        MOV       R4,B
        MOV       B,#0x0
        MUL       AB
        ADD       A,R4
        MOV       R4,A
        MOV       B,#0x2
        MOV       A,R1
        MUL       AB
        ADD       A,R4
        MOV       R1,A
        MOV       DPL,?V0
        MOV       DPH,?V1
        INC       DPTR
        INC       DPTR
        INC       DPTR
        INC       DPTR
        INC       DPTR
        INC       DPTR
        INC       DPTR
        INC       DPTR
        INC       DPTR
        INC       DPTR
        MOVX      A,@DPTR
        ADD       A,R0
        MOV       R4,A
        INC       DPTR
        MOVX      A,@DPTR
        ADDC      A,R1
        MOV       DPL,R4
        MOV       DPH,A
        MOV       A,R2
        MOVX      @DPTR,A
        INC       DPTR
        MOV       A,R3
        MOVX      @DPTR,A
// 3560       buf += 2;
        MOV       A,R6
        ADD       A,#0x2
        MOV       R6,A
        JNC       ??ZDO_ParseSimpleDescBuf_11
        INC       R7
// 3561     }
??ZDO_ParseSimpleDescBuf_11:
        INC       ?V2
        SJMP      ??ZDO_ParseSimpleDescBuf_10
// 3562   }
// 3563   return 0;
??ZDO_ParseSimpleDescBuf_7:
        MOV       R1,#0x0
??ZDO_ParseSimpleDescBuf_4:
        MOV       R7,#0x4
        LJMP      ?BANKED_LEAVE_XDATA
// 3564 }
          CFI EndBlock cfiBlock47
// 3565 
// 3566 /*********************************************************************
// 3567  * @fn          ZDO_ParseDeviceAnnce
// 3568  *
// 3569  * @brief       Parse a Device Announce message.
// 3570  *
// 3571  * @param       inMsg - Incoming message
// 3572  * @param       pAnnce - place to put the parsed information
// 3573  *
// 3574  * @return      none
// 3575  */

        RSEG BANKED_CODE:HUGECODE:NOROOT(0)
// 3576 void ZDO_ParseDeviceAnnce( zdoIncomingMsg_t *inMsg, ZDO_DeviceAnnce_t *pAnnce )
ZDO_ParseDeviceAnnce:
          CFI Block cfiBlock48 Using cfiCommon0
          CFI Function ZDO_ParseDeviceAnnce
        CODE
// 3577 {
        FUNCALL ZDO_ParseDeviceAnnce, sAddrExtCpy
        LOCFRAME ISTACK, 0, STACK
        LOCFRAME PSTACK, 0, STACK
        LOCFRAME XSTACK, 12, STACK
        LOCFRAME IOVERLAY, 0, STATIC
        LOCFRAME DOVERLAY, 0, STATIC
        ARGFRAME ISTACK, 0, STACK
        ARGFRAME PSTACK, 0, STACK
        ARGFRAME XSTACK, 12, STACK
        ARGFRAME IOVERLAY, 0, STATIC
        ARGFRAME DOVERLAY, 0, STATIC
        REQUIRE ?V0
        REQUIRE ?V1
        REQUIRE ?V2
        REQUIRE ?V3
        MOV       A,#-0xc
        LCALL     ?BANKED_ENTER_XDATA
          CFI DPH0 load(1, XDATA, add(CFA_XSP16, literal(-1)))
          CFI DPL0 load(1, XDATA, add(CFA_XSP16, literal(-2)))
          CFI ?BRET_EXT load(1, XDATA, add(CFA_XSP16, literal(-3)))
          CFI ?RET_HIGH load(1, XDATA, add(CFA_XSP16, literal(-4)))
          CFI ?RET_LOW load(1, XDATA, add(CFA_XSP16, literal(-5)))
          CFI R7 load(1, XDATA, add(CFA_XSP16, literal(-6)))
          CFI V3 load(1, XDATA, add(CFA_XSP16, literal(-7)))
          CFI V2 load(1, XDATA, add(CFA_XSP16, literal(-8)))
          CFI V1 load(1, XDATA, add(CFA_XSP16, literal(-9)))
          CFI V0 load(1, XDATA, add(CFA_XSP16, literal(-10)))
          CFI VB load(1, XDATA, add(CFA_XSP16, literal(-11)))
          CFI R6 load(1, XDATA, add(CFA_XSP16, literal(-12)))
          CFI CFA_SP SP+0
          CFI CFA_XSP16 add(XSP16, 12)
        ; Saved register size: 12
        ; Auto size: 0
        MOV       ?V0,R2
        MOV       ?V1,R3
        MOV       ?V2,R4
        MOV       ?V3,R5
// 3578   uint8 *msg;
// 3579 
// 3580   // Parse incoming message
// 3581   msg = inMsg->asdu;
        MOV       A,?V0
        ADD       A,#0x13
        MOV       DPL,A
        CLR       A
        ADDC      A,?V1
        MOV       DPH,A
        MOVX      A,@DPTR
        MOV       R0,A
        INC       DPTR
        MOVX      A,@DPTR
        MOV       R1,A
        MOV       A,R0
        MOV       R6,A
        MOV       A,R1
        MOV       R7,A
// 3582   pAnnce->nwkAddr = BUILD_UINT16( msg[0], msg[1] );
        MOV       DPL,R6
        MOV       DPH,R7
        MOVX      A,@DPTR
        MOV       R2,A
        MOV       R3,#0x0
        MOV       DPL,R6
        MOV       DPH,R7
        INC       DPTR
        MOVX      A,@DPTR
        MOV       R0,A
        MOV       R1,#0x0
        CLR       A
        XCH       A,R0
        MOV       R1,A
        MOV       A,R2
        ADD       A,R0
        MOV       R0,A
        MOV       A,R3
        ADDC      A,R1
        MOV       R1,A
        MOV       DPL,?V2
        MOV       DPH,?V3
        MOV       A,R0
        MOVX      @DPTR,A
        INC       DPTR
        MOV       A,R1
        MOVX      @DPTR,A
// 3583   msg += 2;
        MOV       A,R6
        ADD       A,#0x2
        MOV       R6,A
        JNC       ??ZDO_ParseDeviceAnnce_0
        INC       R7
// 3584   osal_cpyExtAddr( pAnnce->extAddr, msg );
??ZDO_ParseDeviceAnnce_0:
        ; Setup parameters for call to function sAddrExtCpy
        MOV       A,R6
        MOV       R4,A
        MOV       A,R7
        MOV       R5,A
        MOV       A,?V2
        ADD       A,#0x2
        MOV       R2,A
        CLR       A
        ADDC      A,?V3
        MOV       R3,A
        LCALL     `??sAddrExtCpy::?relay`; Banked call to: sAddrExtCpy
// 3585   msg += Z_EXTADDR_LEN;
        MOV       A,R6
        ADD       A,#0x8
        MOV       R6,A
        JNC       ??ZDO_ParseDeviceAnnce_1
        INC       R7
// 3586   pAnnce->capabilities = *msg;
??ZDO_ParseDeviceAnnce_1:
        MOV       DPL,R6
        MOV       DPH,R7
        MOVX      A,@DPTR
        PUSH      A
          CFI CFA_SP SP+-1
        MOV       DPL,?V2
        MOV       DPH,?V3
        INC       DPTR
        INC       DPTR
        INC       DPTR
        INC       DPTR
        INC       DPTR
        INC       DPTR
        INC       DPTR
        INC       DPTR
        INC       DPTR
        INC       DPTR
        POP       A
          CFI CFA_SP SP+0
        MOVX      @DPTR,A
// 3587 }
        MOV       R7,#0x4
        LJMP      ?BANKED_LEAVE_XDATA
          CFI EndBlock cfiBlock48
// 3588 
// 3589 /*********************************************************************
// 3590  * @fn          ZDO_ParseParentAnnce
// 3591  *
// 3592  * @brief       Parse Parent Announce and Parent Announce Rsp messages,
// 3593  *              both messages have the same payload.
// 3594  *
// 3595  * @param       inMsg - Incoming message
// 3596  *
// 3597  * @return      a pointer to parsed response structure (NULL if not allocated).
// 3598  *          This structure was allocated using osal_mem_alloc, so it must be freed
// 3599  *          by the calling function [osal_mem_free()].
// 3600  */

        RSEG BANKED_CODE:HUGECODE:NOROOT(0)
// 3601 ZDO_ParentAnnce_t *ZDO_ParseParentAnnce( zdoIncomingMsg_t *inMsg )
ZDO_ParseParentAnnce:
          CFI Block cfiBlock49 Using cfiCommon0
          CFI Function ZDO_ParseParentAnnce
        CODE
// 3602 {
        FUNCALL ZDO_ParseParentAnnce, osal_mem_alloc
        LOCFRAME ISTACK, 0, STACK
        LOCFRAME PSTACK, 0, STACK
        LOCFRAME XSTACK, 16, STACK
        LOCFRAME IOVERLAY, 0, STATIC
        LOCFRAME DOVERLAY, 0, STATIC
        ARGFRAME ISTACK, 0, STACK
        ARGFRAME PSTACK, 0, STACK
        ARGFRAME XSTACK, 16, STACK
        ARGFRAME IOVERLAY, 0, STATIC
        ARGFRAME DOVERLAY, 0, STATIC
        FUNCALL ZDO_ParseParentAnnce, sAddrExtCpy
        LOCFRAME ISTACK, 0, STACK
        LOCFRAME PSTACK, 0, STACK
        LOCFRAME XSTACK, 16, STACK
        LOCFRAME IOVERLAY, 0, STATIC
        LOCFRAME DOVERLAY, 0, STATIC
        ARGFRAME ISTACK, 0, STACK
        ARGFRAME PSTACK, 0, STACK
        ARGFRAME XSTACK, 16, STACK
        ARGFRAME IOVERLAY, 0, STATIC
        ARGFRAME DOVERLAY, 0, STATIC
        REQUIRE ?V0
        REQUIRE ?V1
        REQUIRE ?V2
        REQUIRE ?V3
        REQUIRE ?V4
        REQUIRE ?V5
        REQUIRE ?V6
        REQUIRE ?V7
        MOV       A,#-0x10
        LCALL     ?BANKED_ENTER_XDATA
          CFI DPH0 load(1, XDATA, add(CFA_XSP16, literal(-1)))
          CFI DPL0 load(1, XDATA, add(CFA_XSP16, literal(-2)))
          CFI ?BRET_EXT load(1, XDATA, add(CFA_XSP16, literal(-3)))
          CFI ?RET_HIGH load(1, XDATA, add(CFA_XSP16, literal(-4)))
          CFI ?RET_LOW load(1, XDATA, add(CFA_XSP16, literal(-5)))
          CFI R7 load(1, XDATA, add(CFA_XSP16, literal(-6)))
          CFI V7 load(1, XDATA, add(CFA_XSP16, literal(-7)))
          CFI V6 load(1, XDATA, add(CFA_XSP16, literal(-8)))
          CFI V5 load(1, XDATA, add(CFA_XSP16, literal(-9)))
          CFI V4 load(1, XDATA, add(CFA_XSP16, literal(-10)))
          CFI V3 load(1, XDATA, add(CFA_XSP16, literal(-11)))
          CFI V2 load(1, XDATA, add(CFA_XSP16, literal(-12)))
          CFI V1 load(1, XDATA, add(CFA_XSP16, literal(-13)))
          CFI V0 load(1, XDATA, add(CFA_XSP16, literal(-14)))
          CFI VB load(1, XDATA, add(CFA_XSP16, literal(-15)))
          CFI R6 load(1, XDATA, add(CFA_XSP16, literal(-16)))
          CFI CFA_SP SP+0
          CFI CFA_XSP16 add(XSP16, 16)
        ; Saved register size: 16
        ; Auto size: 0
        MOV       ?V4,R2
        MOV       ?V5,R3
// 3603   ZDO_ParentAnnce_t *pRcvdMsg;
// 3604   uint8 *msg;
// 3605   uint8 numChildren;
// 3606 
// 3607   msg = inMsg->asdu;
        MOV       A,?V4
        ADD       A,#0x13
        MOV       DPL,A
        CLR       A
        ADDC      A,?V5
        MOV       DPH,A
        MOVX      A,@DPTR
        MOV       R0,A
        INC       DPTR
        MOVX      A,@DPTR
        MOV       R1,A
        MOV       A,R0
        MOV       R6,A
        MOV       A,R1
        MOV       R7,A
// 3608   if ( inMsg->clusterID == Parent_annce_rsp)
        MOV       A,?V4
        ADD       A,#0xc
        MOV       DPL,A
        CLR       A
        ADDC      A,?V5
        MOV       DPH,A
        MOVX      A,@DPTR
        XRL       A,#0x1f
        JNZ       ??ZDO_ParseParentAnnce_0
        INC       DPTR
        MOVX      A,@DPTR
        XRL       A,#0x80
??ZDO_ParseParentAnnce_0:
        JNZ       ??ZDO_ParseParentAnnce_1
// 3609   {
// 3610     *msg++;
        MOV       DPL,R6
        MOV       DPH,R7
        INC       DPTR
        MOV       R6,DPL
        MOV       R7,DPH
// 3611   }
// 3612   numChildren = *msg++;
??ZDO_ParseParentAnnce_1:
        MOV       DPL,R6
        MOV       DPH,R7
        MOVX      A,@DPTR
        MOV       ?V7,A
        MOV       DPL,R6
        MOV       DPH,R7
        INC       DPTR
        MOV       R6,DPL
        MOV       R7,DPH
// 3613 
// 3614   // Allocate a buffer big enough to handle the list
// 3615   pRcvdMsg = (ZDO_ParentAnnce_t *)osal_mem_alloc(
// 3616              (sizeof(ZDO_ParentAnnce_t) + (numChildren * sizeof(ZDO_ChildInfo_t))));
        ; Setup parameters for call to function osal_mem_alloc
        MOV       A,?V7
        MOV       R0,A
        MOV       R1,#0x0
        MOV       A,R0
        MOV       B,#0x8
        MUL       AB
        XCH       A,R0
        MOV       R2,B
        MOV       B,#0x0
        MUL       AB
        ADD       A,R2
        MOV       R2,A
        MOV       B,#0x8
        MOV       A,R1
        MUL       AB
        ADD       A,R2
        MOV       R1,A
        MOV       A,R0
        ADD       A,#0x1
        MOV       R2,A
        CLR       A
        ADDC      A,R1
        MOV       R3,A
        LCALL     `??osal_mem_alloc::?relay`; Banked call to: osal_mem_alloc
        MOV       ?V0,R2
        MOV       ?V1,R3
        MOV       ?V2,?V0
        MOV       ?V3,?V1
// 3617 
// 3618   if ( pRcvdMsg )
        MOV       A,?V2
        ORL       A,?V3
        JZ        ??ZDO_ParseParentAnnce_2
// 3619   {
// 3620     uint8 x;
// 3621     ZDO_ChildInfo_t *pList = pRcvdMsg->childInfo;
        MOV       DPL,?V2
        MOV       DPH,?V3
        INC       DPTR
        MOV       ?V0,DPL
        MOV       ?V1,DPH
// 3622 
// 3623     pRcvdMsg->numOfChildren = numChildren;
        MOV       A,?V7
        PUSH      A
          CFI CFA_SP SP+-1
        MOV       DPL,?V2
        MOV       DPH,?V3
        POP       A
          CFI CFA_SP SP+0
        MOVX      @DPTR,A
// 3624 
// 3625     for ( x = 0; x < numChildren; x++ )
        MOV       ?V6,#0x0
??ZDO_ParseParentAnnce_3:
        MOV       A,?V6
        CLR       C
        SUBB      A,?V7
        JNC       ??ZDO_ParseParentAnnce_2
// 3626     {
// 3627       osal_cpyExtAddr( pList->extAddr, msg );
        ; Setup parameters for call to function sAddrExtCpy
        MOV       A,R6
        MOV       R4,A
        MOV       A,R7
        MOV       R5,A
        MOV       R2,?V0
        MOV       R3,?V1
        LCALL     `??sAddrExtCpy::?relay`; Banked call to: sAddrExtCpy
// 3628       msg += Z_EXTADDR_LEN;
        MOV       A,R6
        ADD       A,#0x8
        MOV       R6,A
        JNC       ??ZDO_ParseParentAnnce_4
        INC       R7
// 3629 
// 3630       pList++;
??ZDO_ParseParentAnnce_4:
        MOV       A,?V0
        ADD       A,#0x8
        MOV       ?V0,A
        JNC       ??ZDO_ParseParentAnnce_5
        INC       ?V1
// 3631     }
??ZDO_ParseParentAnnce_5:
        INC       ?V6
        SJMP      ??ZDO_ParseParentAnnce_3
// 3632   }
// 3633 
// 3634   return ( pRcvdMsg );
??ZDO_ParseParentAnnce_2:
        MOV       R2,?V2
        MOV       R3,?V3
        MOV       R7,#0x8
        LJMP      ?BANKED_LEAVE_XDATA
// 3635 }
          CFI EndBlock cfiBlock49
// 3636 
// 3637 /*********************************************************************
// 3638  * @fn          ZDO_ParseMgmtNwkUpdateNotify
// 3639  *
// 3640  * @brief       This function handles parsing of the incoming Management
// 3641  *              Network Update notify.
// 3642  *
// 3643  * @param       inMsg - incoming message (request)
// 3644  *
// 3645  * @return      a pointer to parsed response structure (NULL if not allocated).
// 3646  *          This structure was allocated using osal_mem_alloc, so it must be freed
// 3647  *          by the calling function [osal_mem_free()].
// 3648  */

        RSEG BANKED_CODE:HUGECODE:NOROOT(0)
// 3649 ZDO_MgmtNwkUpdateNotify_t *ZDO_ParseMgmtNwkUpdateNotify( zdoIncomingMsg_t *inMsg )
ZDO_ParseMgmtNwkUpdateNotify:
          CFI Block cfiBlock50 Using cfiCommon0
          CFI Function ZDO_ParseMgmtNwkUpdateNotify
        CODE
// 3650 {
        FUNCALL ZDO_ParseMgmtNwkUpdateNotify, osal_build_uint32
        LOCFRAME ISTACK, 0, STACK
        LOCFRAME PSTACK, 0, STACK
        LOCFRAME XSTACK, 26, STACK
        LOCFRAME IOVERLAY, 0, STATIC
        LOCFRAME DOVERLAY, 0, STATIC
        ARGFRAME ISTACK, 0, STACK
        ARGFRAME PSTACK, 0, STACK
        ARGFRAME XSTACK, 26, STACK
        ARGFRAME IOVERLAY, 0, STATIC
        ARGFRAME DOVERLAY, 0, STATIC
        FUNCALL ZDO_ParseMgmtNwkUpdateNotify, osal_mem_alloc
        LOCFRAME ISTACK, 0, STACK
        LOCFRAME PSTACK, 0, STACK
        LOCFRAME XSTACK, 26, STACK
        LOCFRAME IOVERLAY, 0, STATIC
        LOCFRAME DOVERLAY, 0, STATIC
        ARGFRAME ISTACK, 0, STACK
        ARGFRAME PSTACK, 0, STACK
        ARGFRAME XSTACK, 26, STACK
        ARGFRAME IOVERLAY, 0, STATIC
        ARGFRAME DOVERLAY, 0, STATIC
        FUNCALL ZDO_ParseMgmtNwkUpdateNotify, osal_memcpy
        LOCFRAME ISTACK, 0, STACK
        LOCFRAME PSTACK, 0, STACK
        LOCFRAME XSTACK, 29, STACK
        LOCFRAME IOVERLAY, 0, STATIC
        LOCFRAME DOVERLAY, 0, STATIC
        ARGFRAME ISTACK, 0, STACK
        ARGFRAME PSTACK, 0, STACK
        ARGFRAME XSTACK, 29, STACK
        ARGFRAME IOVERLAY, 0, STATIC
        ARGFRAME DOVERLAY, 0, STATIC
        REQUIRE ?V0
        REQUIRE ?V1
        REQUIRE ?V2
        REQUIRE ?V3
        REQUIRE ?V4
        REQUIRE ?V5
        REQUIRE ?V6
        REQUIRE ?V7
        REQUIRE ?V8
        REQUIRE ?V9
        REQUIRE ?V10
        REQUIRE ?V11
        REQUIRE ?V12
        REQUIRE ?V13
        REQUIRE ?V14
        REQUIRE ?V15
        MOV       A,#-0x18
        LCALL     ?BANKED_ENTER_XDATA
          CFI DPH0 load(1, XDATA, add(CFA_XSP16, literal(-1)))
          CFI DPL0 load(1, XDATA, add(CFA_XSP16, literal(-2)))
          CFI ?BRET_EXT load(1, XDATA, add(CFA_XSP16, literal(-3)))
          CFI ?RET_HIGH load(1, XDATA, add(CFA_XSP16, literal(-4)))
          CFI ?RET_LOW load(1, XDATA, add(CFA_XSP16, literal(-5)))
          CFI R7 load(1, XDATA, add(CFA_XSP16, literal(-6)))
          CFI V15 load(1, XDATA, add(CFA_XSP16, literal(-7)))
          CFI V14 load(1, XDATA, add(CFA_XSP16, literal(-8)))
          CFI V13 load(1, XDATA, add(CFA_XSP16, literal(-9)))
          CFI V12 load(1, XDATA, add(CFA_XSP16, literal(-10)))
          CFI V11 load(1, XDATA, add(CFA_XSP16, literal(-11)))
          CFI V10 load(1, XDATA, add(CFA_XSP16, literal(-12)))
          CFI V9 load(1, XDATA, add(CFA_XSP16, literal(-13)))
          CFI V8 load(1, XDATA, add(CFA_XSP16, literal(-14)))
          CFI V7 load(1, XDATA, add(CFA_XSP16, literal(-15)))
          CFI V6 load(1, XDATA, add(CFA_XSP16, literal(-16)))
          CFI V5 load(1, XDATA, add(CFA_XSP16, literal(-17)))
          CFI V4 load(1, XDATA, add(CFA_XSP16, literal(-18)))
          CFI V3 load(1, XDATA, add(CFA_XSP16, literal(-19)))
          CFI V2 load(1, XDATA, add(CFA_XSP16, literal(-20)))
          CFI V1 load(1, XDATA, add(CFA_XSP16, literal(-21)))
          CFI V0 load(1, XDATA, add(CFA_XSP16, literal(-22)))
          CFI VB load(1, XDATA, add(CFA_XSP16, literal(-23)))
          CFI R6 load(1, XDATA, add(CFA_XSP16, literal(-24)))
          CFI CFA_SP SP+0
          CFI CFA_XSP16 add(XSP16, 24)
        ; Saved register size: 24
        ; Auto size: 2
        MOV       A,#-0x2
        LCALL     ?ALLOC_XSTACK8
          CFI CFA_XSP16 add(XSP16, 26)
        MOV       DPL,?XSP + 0
        MOV       DPH,?XSP + 1
        MOV       A,R2
        MOVX      @DPTR,A
        INC       DPTR
        MOV       A,R3
        MOVX      @DPTR,A
// 3651   uint8 status;
// 3652   uint32 scannedChannels = 0;
        MOV       ?V4,#0x0
        MOV       ?V5,#0x0
        MOV       ?V6,#0x0
        MOV       ?V7,#0x0
// 3653   uint16 totalTransmissions = 0;
        MOV       ?V14,#0x0
        MOV       ?V15,#0x0
// 3654   uint16 transmissionFailures = 0;
        MOV       ?V12,#0x0
        MOV       ?V13,#0x0
// 3655   uint8 listCount = 0;
        MOV       ?V8,#0x0
// 3656   uint8 *msg = inMsg->asdu;
        MOV       DPL,?XSP + 0
        MOV       DPH,?XSP + 1
        MOVX      A,@DPTR
        MOV       R0,A
        INC       DPTR
        MOVX      A,@DPTR
        XCH       A,R0
        ADD       A,#0x13
        MOV       DPL,A
        XCH       A,R0
        ADDC      A,#0x0
        MOV       DPH,A
        MOVX      A,@DPTR
        MOV       R6,A
        INC       DPTR
        MOVX      A,@DPTR
        MOV       R7,A
// 3657   ZDO_MgmtNwkUpdateNotify_t *pRsp;
// 3658 
// 3659   status = *msg++;
        MOV       DPL,R6
        MOV       DPH,R7
        MOVX      A,@DPTR
        MOV       ?V9,A
        MOV       DPL,R6
        MOV       DPH,R7
        INC       DPTR
        MOV       R6,DPL
        MOV       R7,DPH
// 3660   if ( status == ZSuccess )
        MOV       A,?V9
        JNZ       ??ZDO_ParseMgmtNwkUpdateNotify_0
// 3661   {
// 3662     scannedChannels = osal_build_uint32( msg, 4 );
        ; Setup parameters for call to function osal_build_uint32
        MOV       R1,#0x4
        MOV       A,R6
        MOV       R2,A
        MOV       A,R7
        MOV       R3,A
        LCALL     `??osal_build_uint32::?relay`; Banked call to: osal_build_uint32
        MOV       ?V0,R2
        MOV       ?V1,R3
        MOV       ?V2,R4
        MOV       ?V3,R5
        MOV       ?V4,?V0
        MOV       ?V5,?V1
        MOV       ?V6,?V2
        MOV       ?V7,?V3
// 3663     msg += 4;
        MOV       A,R6
        ADD       A,#0x4
        MOV       R6,A
        JNC       ??ZDO_ParseMgmtNwkUpdateNotify_1
        INC       R7
// 3664     totalTransmissions = BUILD_UINT16( msg[0], msg[1] );
??ZDO_ParseMgmtNwkUpdateNotify_1:
        MOV       DPL,R6
        MOV       DPH,R7
        MOVX      A,@DPTR
        MOV       R2,A
        MOV       R3,#0x0
        MOV       DPL,R6
        MOV       DPH,R7
        INC       DPTR
        MOVX      A,@DPTR
        MOV       R0,A
        MOV       R1,#0x0
        CLR       A
        XCH       A,R0
        MOV       R1,A
        MOV       A,R2
        ADD       A,R0
        MOV       R0,A
        MOV       A,R3
        ADDC      A,R1
        MOV       R1,A
        MOV       ?V14,R0
        MOV       ?V15,R1
// 3665     msg += 2;
        MOV       A,R6
        ADD       A,#0x2
        MOV       R6,A
        JNC       ??ZDO_ParseMgmtNwkUpdateNotify_2
        INC       R7
// 3666     transmissionFailures = BUILD_UINT16( msg[0], msg[1] );
??ZDO_ParseMgmtNwkUpdateNotify_2:
        MOV       DPL,R6
        MOV       DPH,R7
        MOVX      A,@DPTR
        MOV       R2,A
        MOV       R3,#0x0
        MOV       DPL,R6
        MOV       DPH,R7
        INC       DPTR
        MOVX      A,@DPTR
        MOV       R0,A
        MOV       R1,#0x0
        CLR       A
        XCH       A,R0
        MOV       R1,A
        MOV       A,R2
        ADD       A,R0
        MOV       R0,A
        MOV       A,R3
        ADDC      A,R1
        MOV       R1,A
        MOV       ?V12,R0
        MOV       ?V13,R1
// 3667     msg += 2;
        MOV       A,R6
        ADD       A,#0x2
        MOV       R6,A
        JNC       ??ZDO_ParseMgmtNwkUpdateNotify_3
        INC       R7
// 3668     listCount = *msg++;
??ZDO_ParseMgmtNwkUpdateNotify_3:
        MOV       DPL,R6
        MOV       DPH,R7
        MOVX      A,@DPTR
        MOV       ?V8,A
        MOV       DPL,R6
        MOV       DPH,R7
        INC       DPTR
        MOV       R6,DPL
        MOV       R7,DPH
// 3669   }
// 3670 
// 3671   pRsp = (ZDO_MgmtNwkUpdateNotify_t *)osal_mem_alloc( sizeof ( ZDO_MgmtNwkUpdateNotify_t ) + listCount );
??ZDO_ParseMgmtNwkUpdateNotify_0:
        ; Setup parameters for call to function osal_mem_alloc
        MOV       A,?V8
        MOV       R0,A
        MOV       R1,#0x0
        MOV       A,R0
        ADD       A,#0xa
        MOV       R2,A
        CLR       A
        ADDC      A,R1
        MOV       R3,A
        LCALL     `??osal_mem_alloc::?relay`; Banked call to: osal_mem_alloc
        MOV       ?V0,R2
        MOV       ?V1,R3
        MOV       ?V10,?V0
        MOV       ?V11,?V1
// 3672 
// 3673   if ( pRsp )
        MOV       A,?V10
        ORL       A,?V11
        JZ        ??ZDO_ParseMgmtNwkUpdateNotify_4
// 3674   {
// 3675     pRsp->status = status;
        MOV       A,?V9
        PUSH      A
          CFI CFA_SP SP+-1
        MOV       DPL,?V10
        MOV       DPH,?V11
        POP       A
          CFI CFA_SP SP+0
        MOVX      @DPTR,A
// 3676     pRsp->scannedChannels = scannedChannels;
        MOV       DPL,?V10
        MOV       DPH,?V11
        INC       DPTR
        MOV       R0,#?V4
        LCALL     ?L_MOV_TO_X
// 3677     pRsp->totalTransmissions = totalTransmissions;
        MOV       DPL,?V10
        MOV       DPH,?V11
        INC       DPTR
        INC       DPTR
        INC       DPTR
        INC       DPTR
        INC       DPTR
        MOV       A,?V14
        MOVX      @DPTR,A
        INC       DPTR
        MOV       A,?V15
        MOVX      @DPTR,A
// 3678     pRsp->transmissionFailures = transmissionFailures;
        MOV       DPL,?V10
        MOV       DPH,?V11
        INC       DPTR
        INC       DPTR
        INC       DPTR
        INC       DPTR
        INC       DPTR
        INC       DPTR
        INC       DPTR
        MOV       A,?V12
        MOVX      @DPTR,A
        INC       DPTR
        MOV       A,?V13
        MOVX      @DPTR,A
// 3679     pRsp->listCount = listCount;
        MOV       A,?V8
        PUSH      A
          CFI CFA_SP SP+-1
        MOV       DPL,?V10
        MOV       DPH,?V11
        INC       DPTR
        INC       DPTR
        INC       DPTR
        INC       DPTR
        INC       DPTR
        INC       DPTR
        INC       DPTR
        INC       DPTR
        INC       DPTR
        POP       A
          CFI CFA_SP SP+0
        MOVX      @DPTR,A
// 3680 
// 3681     // Allocate a buffer big enough to handle the list.
// 3682     if ( listCount > 0 )
        MOV       A,?V8
        JZ        ??ZDO_ParseMgmtNwkUpdateNotify_4
// 3683     {
// 3684       osal_memcpy( pRsp->energyValues, msg, listCount );
        ; Setup parameters for call to function osal_memcpy
        MOV       ?V0,R6
        MOV       ?V1,R7
        MOV       ?V2,#0x0
        MOV       R0,#?V0
        LCALL     ?PUSH_XSTACK_I_THREE
          CFI CFA_XSP16 add(XSP16, 29)
        MOV       A,?V8
        MOV       R4,A
        MOV       R5,#0x0
        MOV       A,?V10
        ADD       A,#0xa
        MOV       R2,A
        CLR       A
        ADDC      A,?V11
        MOV       R3,A
        LCALL     `??osal_memcpy::?relay`; Banked call to: osal_memcpy
        MOV       A,#0x3
        LCALL     ?DEALLOC_XSTACK8
          CFI CFA_XSP16 add(XSP16, 26)
// 3685     }
// 3686   }
// 3687 
// 3688   return ( pRsp );
??ZDO_ParseMgmtNwkUpdateNotify_4:
        MOV       R2,?V10
        MOV       R3,?V11
        MOV       A,#0x2
        LCALL     ?DEALLOC_XSTACK8
          CFI CFA_XSP16 add(XSP16, 24)
        MOV       R7,#0x10
        LJMP      ?BANKED_LEAVE_XDATA
// 3689 }
          CFI EndBlock cfiBlock50
// 3690 
// 3691 /*********************************************************************
// 3692  * @fn          ZDO_ParseMgmtNwkUpdateReq
// 3693  *
// 3694  * @brief       This function handles parsing the incoming Management
// 3695  *              Network Update request and starts the request (if needed).
// 3696  *
// 3697  * @param       inMsg - incoming message (request)
// 3698  * @param       pReq - pointer to place to parse message to
// 3699  *
// 3700  * @return      none
// 3701  */

        RSEG BANKED_CODE:HUGECODE:NOROOT(0)
// 3702 void ZDO_ParseMgmtNwkUpdateReq( zdoIncomingMsg_t *inMsg, ZDO_MgmtNwkUpdateReq_t *pReq )
ZDO_ParseMgmtNwkUpdateReq:
          CFI Block cfiBlock51 Using cfiCommon0
          CFI Function ZDO_ParseMgmtNwkUpdateReq
        CODE
// 3703 {
        FUNCALL ZDO_ParseMgmtNwkUpdateReq, osal_build_uint32
        LOCFRAME ISTACK, 0, STACK
        LOCFRAME PSTACK, 0, STACK
        LOCFRAME XSTACK, 12, STACK
        LOCFRAME IOVERLAY, 0, STATIC
        LOCFRAME DOVERLAY, 0, STATIC
        ARGFRAME ISTACK, 0, STACK
        ARGFRAME PSTACK, 0, STACK
        ARGFRAME XSTACK, 12, STACK
        ARGFRAME IOVERLAY, 0, STATIC
        ARGFRAME DOVERLAY, 0, STATIC
        REQUIRE ?V0
        REQUIRE ?V1
        REQUIRE ?V2
        REQUIRE ?V3
        MOV       A,#-0xc
        LCALL     ?BANKED_ENTER_XDATA
          CFI DPH0 load(1, XDATA, add(CFA_XSP16, literal(-1)))
          CFI DPL0 load(1, XDATA, add(CFA_XSP16, literal(-2)))
          CFI ?BRET_EXT load(1, XDATA, add(CFA_XSP16, literal(-3)))
          CFI ?RET_HIGH load(1, XDATA, add(CFA_XSP16, literal(-4)))
          CFI ?RET_LOW load(1, XDATA, add(CFA_XSP16, literal(-5)))
          CFI R7 load(1, XDATA, add(CFA_XSP16, literal(-6)))
          CFI V3 load(1, XDATA, add(CFA_XSP16, literal(-7)))
          CFI V2 load(1, XDATA, add(CFA_XSP16, literal(-8)))
          CFI V1 load(1, XDATA, add(CFA_XSP16, literal(-9)))
          CFI V0 load(1, XDATA, add(CFA_XSP16, literal(-10)))
          CFI VB load(1, XDATA, add(CFA_XSP16, literal(-11)))
          CFI R6 load(1, XDATA, add(CFA_XSP16, literal(-12)))
          CFI CFA_SP SP+0
          CFI CFA_XSP16 add(XSP16, 12)
        ; Saved register size: 12
        ; Auto size: 0
        MOV       ?V2,R2
        MOV       ?V3,R3
        MOV       ?V0,R4
        MOV       ?V1,R5
// 3704   uint8 *msg = inMsg->asdu;
        MOV       A,?V2
        ADD       A,#0x13
        MOV       DPL,A
        CLR       A
        ADDC      A,?V3
        MOV       DPH,A
        MOVX      A,@DPTR
        MOV       R6,A
        INC       DPTR
        MOVX      A,@DPTR
        MOV       R7,A
// 3705 
// 3706   pReq->channelMask = osal_build_uint32( msg, 4 );
        ; Setup parameters for call to function osal_build_uint32
        MOV       R1,#0x4
        MOV       A,R6
        MOV       R2,A
        MOV       A,R7
        MOV       R3,A
        LCALL     `??osal_build_uint32::?relay`; Banked call to: osal_build_uint32
        MOV       A,R2
        MOV       R0,A
        MOV       A,R3
        MOV       R1,A
        MOV       A,R4
        MOV       R2,A
        MOV       A,R5
        MOV       R3,A
        MOV       DPL,?V0
        MOV       DPH,?V1
        LCALL     ?XSTORE_R0123
// 3707   msg += 4;
        MOV       A,R6
        ADD       A,#0x4
        MOV       R6,A
        JNC       ??ZDO_ParseMgmtNwkUpdateReq_0
        INC       R7
// 3708   pReq->scanDuration = *msg++;
??ZDO_ParseMgmtNwkUpdateReq_0:
        MOV       DPL,R6
        MOV       DPH,R7
        MOVX      A,@DPTR
        PUSH      A
          CFI CFA_SP SP+-1
        MOV       DPL,?V0
        MOV       DPH,?V1
        INC       DPTR
        INC       DPTR
        INC       DPTR
        INC       DPTR
        POP       A
          CFI CFA_SP SP+0
        MOVX      @DPTR,A
        MOV       DPL,R6
        MOV       DPH,R7
        INC       DPTR
        MOV       R6,DPL
        MOV       R7,DPH
// 3709 
// 3710   if ( pReq->scanDuration <= 0x05 )
        MOV       DPL,?V0
        MOV       DPH,?V1
        INC       DPTR
        INC       DPTR
        INC       DPTR
        INC       DPTR
        MOVX      A,@DPTR
        CLR       C
        SUBB      A,#0x6
        JNC       ??ZDO_ParseMgmtNwkUpdateReq_1
// 3711   {
// 3712     // Request is to scan over channelMask
// 3713     pReq->scanCount = *msg;
        MOV       DPL,R6
        MOV       DPH,R7
        MOVX      A,@DPTR
        PUSH      A
          CFI CFA_SP SP+-1
        MOV       DPL,?V0
        MOV       DPH,?V1
        INC       DPTR
        INC       DPTR
        INC       DPTR
        INC       DPTR
        INC       DPTR
        POP       A
          CFI CFA_SP SP+0
        MOVX      @DPTR,A
        SJMP      ??ZDO_ParseMgmtNwkUpdateReq_2
// 3714   }
// 3715   else if ( ( pReq->scanDuration == 0xFE ) || ( pReq->scanDuration == 0xFF ) )
??ZDO_ParseMgmtNwkUpdateReq_1:
        MOV       DPL,?V0
        MOV       DPH,?V1
        INC       DPTR
        INC       DPTR
        INC       DPTR
        INC       DPTR
        MOVX      A,@DPTR
        XRL       A,#0xfe
        JZ        ??ZDO_ParseMgmtNwkUpdateReq_3
        MOV       DPL,?V0
        MOV       DPH,?V1
        INC       DPTR
        INC       DPTR
        INC       DPTR
        INC       DPTR
        MOVX      A,@DPTR
        XRL       A,#0xff
        JNZ       ??ZDO_ParseMgmtNwkUpdateReq_2
// 3716   {
// 3717     // Request is to change Channel (0xFE) or apsChannelMask and NwkManagerAddr (0xFF)
// 3718     pReq->nwkUpdateId = *msg++;
??ZDO_ParseMgmtNwkUpdateReq_3:
        MOV       DPL,R6
        MOV       DPH,R7
        MOVX      A,@DPTR
        PUSH      A
          CFI CFA_SP SP+-1
        MOV       DPL,?V0
        MOV       DPH,?V1
        INC       DPTR
        INC       DPTR
        INC       DPTR
        INC       DPTR
        INC       DPTR
        INC       DPTR
        POP       A
          CFI CFA_SP SP+0
        MOVX      @DPTR,A
        MOV       DPL,R6
        MOV       DPH,R7
        INC       DPTR
        MOV       R6,DPL
        MOV       R7,DPH
// 3719 
// 3720     if ( pReq->scanDuration == 0xFF )
        MOV       DPL,?V0
        MOV       DPH,?V1
        INC       DPTR
        INC       DPTR
        INC       DPTR
        INC       DPTR
        MOVX      A,@DPTR
        XRL       A,#0xff
        JNZ       ??ZDO_ParseMgmtNwkUpdateReq_2
// 3721     {
// 3722       pReq->nwkManagerAddr = BUILD_UINT16( msg[0], msg[1] );
        MOV       DPL,R6
        MOV       DPH,R7
        MOVX      A,@DPTR
        MOV       R2,A
        MOV       R3,#0x0
        MOV       DPL,R6
        MOV       DPH,R7
        INC       DPTR
        MOVX      A,@DPTR
        MOV       R0,A
        MOV       R1,#0x0
        CLR       A
        XCH       A,R0
        MOV       R1,A
        MOV       A,R2
        ADD       A,R0
        MOV       R0,A
        MOV       A,R3
        ADDC      A,R1
        MOV       R1,A
        MOV       DPL,?V0
        MOV       DPH,?V1
        INC       DPTR
        INC       DPTR
        INC       DPTR
        INC       DPTR
        INC       DPTR
        INC       DPTR
        INC       DPTR
        MOV       A,R0
        MOVX      @DPTR,A
        INC       DPTR
        MOV       A,R1
        MOVX      @DPTR,A
// 3723     }
// 3724   }
// 3725 }
??ZDO_ParseMgmtNwkUpdateReq_2:
        MOV       R7,#0x4
        LJMP      ?BANKED_LEAVE_XDATA
          CFI EndBlock cfiBlock51

        RSEG XDATA_ID:CODE:NOROOT(0)
`?<Initializer for zdpExternalStateTaskID>`:
        DATA16
        DW -1

        RSEG BANK_RELAYS:CODE:REORDER:NOROOT(0)
`??ZDO_Init::?relay`:
        CODE
        LCALL   ?BDISPATCH
        DATA24
        DC24    ZDO_Init

        RSEG BANK_RELAYS:CODE:REORDER:NOROOT(0)
`??ZDODeviceSetup::?relay`:
        CODE
        LCALL   ?BDISPATCH
        DATA24
        DC24    ZDODeviceSetup

        RSEG BANK_RELAYS:CODE:REORDER:NOROOT(0)
`??ZDO_StartDevice::?relay`:
        CODE
        LCALL   ?BDISPATCH
        DATA24
        DC24    ZDO_StartDevice

        RSEG BANK_RELAYS:CODE:REORDER:NOROOT(0)
`??zdoSendStateChangeMsg::?relay`:
        CODE
        LCALL   ?BDISPATCH
        DATA24
        DC24    zdoSendStateChangeMsg

        RSEG BANK_RELAYS:CODE:REORDER:NOROOT(0)
`??ZDO_UpdateNwkStatus::?relay`:
        CODE
        LCALL   ?BDISPATCH
        DATA24
        DC24    ZDO_UpdateNwkStatus

        RSEG BANK_RELAYS:CODE:REORDER:NOROOT(0)
`??ZDO_RemoveEndDeviceBind::?relay`:
        CODE
        LCALL   ?BDISPATCH
        DATA24
        DC24    ZDO_RemoveEndDeviceBind

        RSEG BANK_RELAYS:CODE:REORDER:NOROOT(0)
`??ZDO_SendEDBindRsp::?relay`:
        CODE
        LCALL   ?BDISPATCH
        DATA24
        DC24    ZDO_SendEDBindRsp

        RSEG BANK_RELAYS:CODE:REORDER:NOROOT(0)
`??ZDO_AnyClusterMatches::?relay`:
        CODE
        LCALL   ?BDISPATCH
        DATA24
        DC24    ZDO_AnyClusterMatches

        RSEG BANK_RELAYS:CODE:REORDER:NOROOT(0)
`??ZDO_ProcessNodeDescRsp::?relay`:
        CODE
        LCALL   ?BDISPATCH
        DATA24
        DC24    ZDO_ProcessNodeDescRsp

        RSEG BANK_RELAYS:CODE:REORDER:NOROOT(0)
`??ZDO_ProcessNodeDescReq::?relay`:
        CODE
        LCALL   ?BDISPATCH
        DATA24
        DC24    ZDO_ProcessNodeDescReq

        RSEG BANK_RELAYS:CODE:REORDER:NOROOT(0)
`??ZDO_ProcessPowerDescReq::?relay`:
        CODE
        LCALL   ?BDISPATCH
        DATA24
        DC24    ZDO_ProcessPowerDescReq

        RSEG BANK_RELAYS:CODE:REORDER:NOROOT(0)
`??ZDO_ProcessSimpleDescReq::?relay`:
        CODE
        LCALL   ?BDISPATCH
        DATA24
        DC24    ZDO_ProcessSimpleDescReq

        RSEG BANK_RELAYS:CODE:REORDER:NOROOT(0)
`??ZDO_ProcessSimpleDescRsp::?relay`:
        CODE
        LCALL   ?BDISPATCH
        DATA24
        DC24    ZDO_ProcessSimpleDescRsp

        RSEG BANK_RELAYS:CODE:REORDER:NOROOT(0)
`??ZDO_ProcessActiveEPReq::?relay`:
        CODE
        LCALL   ?BDISPATCH
        DATA24
        DC24    ZDO_ProcessActiveEPReq

        RSEG BANK_RELAYS:CODE:REORDER:NOROOT(0)
`??ZDO_ConvertOTAClusters::?relay`:
        CODE
        LCALL   ?BDISPATCH
        DATA24
        DC24    ZDO_ConvertOTAClusters

        RSEG BANK_RELAYS:CODE:REORDER:NOROOT(0)
`??ZDO_ProcessMatchDescReq::?relay`:
        CODE
        LCALL   ?BDISPATCH
        DATA24
        DC24    ZDO_ProcessMatchDescReq

        RSEG BANK_RELAYS:CODE:REORDER:NOROOT(0)
`??ZDO_ProcessBindUnbindReq::?relay`:
        CODE
        LCALL   ?BDISPATCH
        DATA24
        DC24    ZDO_ProcessBindUnbindReq

        RSEG BANK_RELAYS:CODE:REORDER:NOROOT(0)
`??ZDO_UpdateAddrManager::?relay`:
        CODE
        LCALL   ?BDISPATCH
        DATA24
        DC24    ZDO_UpdateAddrManager

        RSEG BANK_RELAYS:CODE:REORDER:NOROOT(0)
`??ZDO_ProcessServerDiscReq::?relay`:
        CODE
        LCALL   ?BDISPATCH
        DATA24
        DC24    ZDO_ProcessServerDiscReq

        RSEG BANK_RELAYS:CODE:REORDER:NOROOT(0)
`??ZDO_EndDeviceTimeoutCB::?relay`:
        CODE
        LCALL   ?BDISPATCH
        DATA24
        DC24    ZDO_EndDeviceTimeoutCB

        RSEG BANK_RELAYS:CODE:REORDER:NOROOT(0)
`??ZDO_ProcessMgmtLqiReq::?relay`:
        CODE
        LCALL   ?BDISPATCH
        DATA24
        DC24    ZDO_ProcessMgmtLqiReq

        RSEG BANK_RELAYS:CODE:REORDER:NOROOT(0)
`??ZDO_ProcessMgmtNwkDiscReq::?relay`:
        CODE
        LCALL   ?BDISPATCH
        DATA24
        DC24    ZDO_ProcessMgmtNwkDiscReq

        RSEG BANK_RELAYS:CODE:REORDER:NOROOT(0)
`??ZDO_ProcessMgmtRtgReq::?relay`:
        CODE
        LCALL   ?BDISPATCH
        DATA24
        DC24    ZDO_ProcessMgmtRtgReq

        RSEG BANK_RELAYS:CODE:REORDER:NOROOT(0)
`??ZDO_ProcessMgmtBindReq::?relay`:
        CODE
        LCALL   ?BDISPATCH
        DATA24
        DC24    ZDO_ProcessMgmtBindReq

        RSEG BANK_RELAYS:CODE:REORDER:NOROOT(0)
`??ZDO_ProcessMgmtDirectJoinReq::?relay`:
        CODE
        LCALL   ?BDISPATCH
        DATA24
        DC24    ZDO_ProcessMgmtDirectJoinReq

        RSEG BANK_RELAYS:CODE:REORDER:NOROOT(0)
`??ZDO_ProcessMgmtLeaveReq::?relay`:
        CODE
        LCALL   ?BDISPATCH
        DATA24
        DC24    ZDO_ProcessMgmtLeaveReq

        RSEG BANK_RELAYS:CODE:REORDER:NOROOT(0)
`??ZDO_ProcessMgmtPermitJoinReq::?relay`:
        CODE
        LCALL   ?BDISPATCH
        DATA24
        DC24    ZDO_ProcessMgmtPermitJoinReq

        RSEG BANK_RELAYS:CODE:REORDER:NOROOT(0)
`??NLME_PermitJoiningTimeout::?relay`:
        CODE
        LCALL   ?BDISPATCH
        DATA24
        DC24    NLME_PermitJoiningTimeout

        RSEG BANK_RELAYS:CODE:REORDER:NOROOT(0)
`??ZDO_ProcessUserDescReq::?relay`:
        CODE
        LCALL   ?BDISPATCH
        DATA24
        DC24    ZDO_ProcessUserDescReq

        RSEG BANK_RELAYS:CODE:REORDER:NOROOT(0)
`??ZDO_ProcessUserDescSet::?relay`:
        CODE
        LCALL   ?BDISPATCH
        DATA24
        DC24    ZDO_ProcessUserDescSet

        RSEG BANK_RELAYS:CODE:REORDER:NOROOT(0)
`??ZDO_ProcessDeviceAnnce::?relay`:
        CODE
        LCALL   ?BDISPATCH
        DATA24
        DC24    ZDO_ProcessDeviceAnnce

        RSEG BANK_RELAYS:CODE:REORDER:NOROOT(0)
`??ZDO_ProcessParentAnnce::?relay`:
        CODE
        LCALL   ?BDISPATCH
        DATA24
        DC24    ZDO_ProcessParentAnnce

        RSEG BANK_RELAYS:CODE:REORDER:NOROOT(0)
`??ZDO_ProcessParentAnnceRsp::?relay`:
        CODE
        LCALL   ?BDISPATCH
        DATA24
        DC24    ZDO_ProcessParentAnnceRsp

        RSEG BANK_RELAYS:CODE:REORDER:NOROOT(0)
`??ZDO_BuildSimpleDescBuf::?relay`:
        CODE
        LCALL   ?BDISPATCH
        DATA24
        DC24    ZDO_BuildSimpleDescBuf

        RSEG BANK_RELAYS:CODE:REORDER:NOROOT(0)
`??ZDO_ParseEndDeviceBindReq::?relay`:
        CODE
        LCALL   ?BDISPATCH
        DATA24
        DC24    ZDO_ParseEndDeviceBindReq

        RSEG BANK_RELAYS:CODE:REORDER:NOROOT(0)
`??ZDO_ParseBindUnbindReq::?relay`:
        CODE
        LCALL   ?BDISPATCH
        DATA24
        DC24    ZDO_ParseBindUnbindReq

        RSEG BANK_RELAYS:CODE:REORDER:NOROOT(0)
`??ZDO_ParseAddrRsp::?relay`:
        CODE
        LCALL   ?BDISPATCH
        DATA24
        DC24    ZDO_ParseAddrRsp

        RSEG BANK_RELAYS:CODE:REORDER:NOROOT(0)
`??ZDO_ParseNodeDescRsp::?relay`:
        CODE
        LCALL   ?BDISPATCH
        DATA24
        DC24    ZDO_ParseNodeDescRsp

        RSEG BANK_RELAYS:CODE:REORDER:NOROOT(0)
`??ZDO_ParsePowerDescRsp::?relay`:
        CODE
        LCALL   ?BDISPATCH
        DATA24
        DC24    ZDO_ParsePowerDescRsp

        RSEG BANK_RELAYS:CODE:REORDER:NOROOT(0)
`??ZDO_ParseSimpleDescRsp::?relay`:
        CODE
        LCALL   ?BDISPATCH
        DATA24
        DC24    ZDO_ParseSimpleDescRsp

        RSEG BANK_RELAYS:CODE:REORDER:NOROOT(0)
`??ZDO_ParseEPListRsp::?relay`:
        CODE
        LCALL   ?BDISPATCH
        DATA24
        DC24    ZDO_ParseEPListRsp

        RSEG BANK_RELAYS:CODE:REORDER:NOROOT(0)
`??ZDO_ParseServerDiscRsp::?relay`:
        CODE
        LCALL   ?BDISPATCH
        DATA24
        DC24    ZDO_ParseServerDiscRsp

        RSEG BANK_RELAYS:CODE:REORDER:NOROOT(0)
`??ZDO_ParseMgmtLqiRsp::?relay`:
        CODE
        LCALL   ?BDISPATCH
        DATA24
        DC24    ZDO_ParseMgmtLqiRsp

        RSEG BANK_RELAYS:CODE:REORDER:NOROOT(0)
`??ZDO_ParseMgmNwkDiscRsp::?relay`:
        CODE
        LCALL   ?BDISPATCH
        DATA24
        DC24    ZDO_ParseMgmNwkDiscRsp

        RSEG BANK_RELAYS:CODE:REORDER:NOROOT(0)
`??ZDO_ParseMgmtRtgRsp::?relay`:
        CODE
        LCALL   ?BDISPATCH
        DATA24
        DC24    ZDO_ParseMgmtRtgRsp

        RSEG BANK_RELAYS:CODE:REORDER:NOROOT(0)
`??ZDO_ParseMgmtBindRsp::?relay`:
        CODE
        LCALL   ?BDISPATCH
        DATA24
        DC24    ZDO_ParseMgmtBindRsp

        RSEG BANK_RELAYS:CODE:REORDER:NOROOT(0)
`??ZDO_ParseUserDescRsp::?relay`:
        CODE
        LCALL   ?BDISPATCH
        DATA24
        DC24    ZDO_ParseUserDescRsp

        RSEG BANK_RELAYS:CODE:REORDER:NOROOT(0)
`??ZDO_ParseSimpleDescBuf::?relay`:
        CODE
        LCALL   ?BDISPATCH
        DATA24
        DC24    ZDO_ParseSimpleDescBuf

        RSEG BANK_RELAYS:CODE:REORDER:NOROOT(0)
`??ZDO_ParseDeviceAnnce::?relay`:
        CODE
        LCALL   ?BDISPATCH
        DATA24
        DC24    ZDO_ParseDeviceAnnce

        RSEG BANK_RELAYS:CODE:REORDER:NOROOT(0)
`??ZDO_ParseParentAnnce::?relay`:
        CODE
        LCALL   ?BDISPATCH
        DATA24
        DC24    ZDO_ParseParentAnnce

        RSEG BANK_RELAYS:CODE:REORDER:NOROOT(0)
`??ZDO_ParseMgmtNwkUpdateNotify::?relay`:
        CODE
        LCALL   ?BDISPATCH
        DATA24
        DC24    ZDO_ParseMgmtNwkUpdateNotify

        RSEG BANK_RELAYS:CODE:REORDER:NOROOT(0)
`??ZDO_ParseMgmtNwkUpdateReq::?relay`:
        CODE
        LCALL   ?BDISPATCH
        DATA24
        DC24    ZDO_ParseMgmtNwkUpdateReq

        RSEG XDATA_ROM_C:CONST:REORDER:NOROOT(0)
        DATA8
`?<Constant "StartDevice ERR">`:
        DB "StartDevice ERR"

        RSEG XDATA_ROM_C:CONST:REORDER:NOROOT(0)
        DATA8
`?<Constant "MODE unknown">`:
        DB "MODE unknown"

        RSEG XDATA_ROM_C:CONST:REORDER:NOROOT(0)
        DATA8
`?<Constant "End Device Bind">`:
        DB "End Device Bind"

        RSEG XDATA_ROM_C:CONST:REORDER:NOROOT(0)
        DATA8
`?<Constant "Success Sent">`:
        DB "Success Sent"

        RSEG XDATA_ROM_C:CONST:REORDER:NOROOT(0)
        DATA8
`?<Constant "Timeout">`:
        DB "Timeout"

        RSEG XDATA_ROM_C:CONST:REORDER:NOROOT(0)
        DATA8
`?<Constant "Match Desc Req">`:
        DB "Match Desc Req"

        RSEG XDATA_ROM_C:CONST:REORDER:NOROOT(0)
        DATA8
`?<Constant "Rsp Sent">`:
        DB "Rsp Sent"

        RSEG XDATA_ROM_C:CONST:REORDER:NOROOT(0)
        DATA8
`?<Constant "Rsp Non Matched">`:
        DB "Rsp Non Matched"

        RSEG XDATA_ROM_C:CONST:REORDER:NOROOT(0)
        DATA8
`?<Constant "Non Matched">`:
        DB "Non Matched"

        RSEG XDATA_ROM_C:CONST:REORDER:NOROOT(0)
        DATA32
__Constant_3e8:
        DD 1000

        RSEG XDATA_ROM_C:CONST:REORDER:NOROOT(0)
        DATA32
__Constant_0:
        DD 0

        END
// 3726 
// 3727 /*********************************************************************
// 3728 *********************************************************************/
// 
// 16 507 bytes in segment BANKED_CODE
//    312 bytes in segment BANK_RELAYS
//      2 bytes in segment XDATA_I
//      2 bytes in segment XDATA_ID
//    126 bytes in segment XDATA_ROM_C
//     61 bytes in segment XDATA_Z
// 
//    314 bytes of CODE     memory
//    118 bytes of CONST    memory (+ 8 bytes shared)
// 16 507 bytes of HUGECODE memory
//     63 bytes of XDATA    memory
//
//Errors: none
//Warnings: none
