///////////////////////////////////////////////////////////////////////////////
//
// IAR C/C++ Compiler V10.30.1.6000 for 8051              20/Jul/2020  22:28:22
// Copyright 2004-2018 IAR Systems AB.
// PC-locked license - IAR Embedded Workbench for 8051
//
//    Core               =  plain
//    Code model         =  banked
//    Data model         =  large
//    Calling convention =  xdata reentrant
//    Constant location  =  data_rom
//    Dptr setup         =  1,16
//                          
//    Source file        =  
//        D:\AA\Z-Stack 3.0.2\Components\stack\zcl\zcl_general.c
//    Command line       =  
//        -f C:\Users\sunli\AppData\Local\Temp\EWB54D.tmp ("D:\AA\Z-Stack
//        3.0.2\Components\stack\zcl\zcl_general.c" -D BDB_REPORTING -D
//        SECURE=1 -D TC_LINKKEY_JOIN -D NV_INIT -D NV_RESTORE -D xZTOOL_P1 -D
//        xMT_TASK -D xMT_APP_FUNC -D xMT_SYS_FUNC -D xMT_ZDO_FUNC -D
//        xMT_ZDO_MGMT -D xMT_APP_CNF_FUNC -D LCD_SUPPORTED=DEBUG -D
//        MULTICAST_ENABLED=FALSE -D ZCL_READ -D ZCL_DISCOVER -D ZCL_WRITE -D
//        ZCL_BASIC -D ZCL_IDENTIFY -D ZCL_ON_OFF -D ZCL_SCENES -D ZCL_GROUPS
//        -D ZCL_LEVEL_CTRL -lC "D:\AA\Z-Stack
//        3.0.2\Projects\zstack\HomeAutomation\SampleLight\CC2530DB\CoordinatorEB\List"
//        -lA "D:\AA\Z-Stack
//        3.0.2\Projects\zstack\HomeAutomation\SampleLight\CC2530DB\CoordinatorEB\List"
//        --diag_suppress Pe001,Pa010 -o "D:\AA\Z-Stack
//        3.0.2\Projects\zstack\HomeAutomation\SampleLight\CC2530DB\CoordinatorEB\Obj"
//        -e --debug --core=plain --dptr=16,1 --data_model=large
//        --code_model=banked --calling_convention=xdata_reentrant
//        --place_constants=data_rom --nr_virtual_regs 16 -f "D:\AA\Z-Stack
//        3.0.2\Projects\zstack\HomeAutomation\SampleLight\CC2530DB\..\..\..\Tools\CC2530DB\f8wCoord.cfg"
//        (-DCPU32MHZ -DROOT=__near_func -DMAC_CFG_APP_PENDING_QUEUE=TRUE
//        -DMAC_CFG_TX_DATA_MAX=5 -DMAC_CFG_TX_MAX=8 -DMAC_CFG_RX_MAX=5
//        -DZDO_COORDINATOR -DRTR_NWK) -f "D:\AA\Z-Stack
//        3.0.2\Projects\zstack\HomeAutomation\SampleLight\CC2530DB\..\..\..\Tools\CC2530DB\f8wConfig.cfg"
//        (-DZIGBEEPRO -DSECURE=1 -DZG_SECURE_DYNAMIC=0 -DREFLECTOR
//        -DDEFAULT_CHANLIST=0x00000800 -DZDAPP_CONFIG_PAN_ID=0xFFFF
//        -DNWK_START_DELAY=100 -DEXTENDED_JOINING_RANDOM_MASK=0x007F
//        -DBEACON_REQUEST_DELAY=100 -DBEACON_REQ_DELAY_MASK=0x00FF
//        -DLINK_STATUS_JITTER_MASK=0x007F -DROUTE_EXPIRY_TIME=30
//        -DAPSC_ACK_WAIT_DURATION_POLLED=3000 -DNWK_INDIRECT_MSG_TIMEOUT=7
//        -DMAX_RREQ_ENTRIES=8 -DAPSC_MAX_FRAME_RETRIES=3
//        -DNWK_MAX_DATA_RETRIES=2 -DMAX_POLL_FAILURE_RETRIES=2 -DMAX_BCAST=9
//        -DAPS_MAX_GROUPS=16 -DMAX_RTG_ENTRIES=40 -DNWK_MAX_BINDING_ENTRIES=4
//        -DMAX_BINDING_CLUSTER_IDS=4 -DDEFAULT_KEY={0}
//        -DMAC_MAX_FRAME_SIZE=116 -DZDNWKMGR_MIN_TRANSMISSIONS=20
//        "-DCONST=const __code" -DGENERIC=__generic -DRFD_RCVC_ALWAYS_ON=FALSE
//        -DPOLL_RATE=1000 -DQUEUED_POLL_RATE=100 -DRESPONSE_POLL_RATE=100
//        -DREJOIN_POLL_RATE=440 -DREJOIN_BACKOFF=900000 -DREJOIN_SCAN=900000
//        -DENABLE_LED4_DISABLE_S1) -f "D:\AA\Z-Stack
//        3.0.2\Projects\zstack\HomeAutomation\SampleLight\CC2530DB\..\..\..\Tools\CC2530DB\f8wZCL.cfg"
//        -I "D:\AA\Z-Stack
//        3.0.2\Projects\zstack\HomeAutomation\SampleLight\CC2530DB\" -I
//        "D:\AA\Z-Stack
//        3.0.2\Projects\zstack\HomeAutomation\SampleLight\CC2530DB\..\Source\"
//        -I "D:\AA\Z-Stack
//        3.0.2\Projects\zstack\HomeAutomation\SampleLight\CC2530DB\..\..\Source\"
//        -I "D:\AA\Z-Stack
//        3.0.2\Projects\zstack\HomeAutomation\SampleLight\CC2530DB\..\..\..\ZMain\TI2530DB\"
//        -I "D:\AA\Z-Stack
//        3.0.2\Projects\zstack\HomeAutomation\SampleLight\CC2530DB\..\..\..\..\..\Components\hal\include\"
//        -I "D:\AA\Z-Stack
//        3.0.2\Projects\zstack\HomeAutomation\SampleLight\CC2530DB\..\..\..\..\..\Components\hal\target\CC2530EB\"
//        -I "D:\AA\Z-Stack
//        3.0.2\Projects\zstack\HomeAutomation\SampleLight\CC2530DB\..\..\..\..\..\Components\mac\include\"
//        -I "D:\AA\Z-Stack
//        3.0.2\Projects\zstack\HomeAutomation\SampleLight\CC2530DB\..\..\..\..\..\Components\mac\high_level\"
//        -I "D:\AA\Z-Stack
//        3.0.2\Projects\zstack\HomeAutomation\SampleLight\CC2530DB\..\..\..\..\..\Components\mac\low_level\srf04\"
//        -I "D:\AA\Z-Stack
//        3.0.2\Projects\zstack\HomeAutomation\SampleLight\CC2530DB\..\..\..\..\..\Components\mac\low_level\srf04\single_chip\"
//        -I "D:\AA\Z-Stack
//        3.0.2\Projects\zstack\HomeAutomation\SampleLight\CC2530DB\..\..\..\..\..\Components\mt\"
//        -I "D:\AA\Z-Stack
//        3.0.2\Projects\zstack\HomeAutomation\SampleLight\CC2530DB\..\..\..\..\..\Components\osal\include\"
//        -I "D:\AA\Z-Stack
//        3.0.2\Projects\zstack\HomeAutomation\SampleLight\CC2530DB\..\..\..\..\..\Components\services\saddr\"
//        -I "D:\AA\Z-Stack
//        3.0.2\Projects\zstack\HomeAutomation\SampleLight\CC2530DB\..\..\..\..\..\Components\services\sdata\"
//        -I "D:\AA\Z-Stack
//        3.0.2\Projects\zstack\HomeAutomation\SampleLight\CC2530DB\..\..\..\..\..\Components\stack\af\"
//        -I "D:\AA\Z-Stack
//        3.0.2\Projects\zstack\HomeAutomation\SampleLight\CC2530DB\..\..\..\..\..\Components\stack\bdb\"
//        -I "D:\AA\Z-Stack
//        3.0.2\Projects\zstack\HomeAutomation\SampleLight\CC2530DB\..\..\..\..\..\Components\stack\gp\"
//        -I "D:\AA\Z-Stack
//        3.0.2\Projects\zstack\HomeAutomation\SampleLight\CC2530DB\..\..\..\..\..\Components\stack\nwk\"
//        -I "D:\AA\Z-Stack
//        3.0.2\Projects\zstack\HomeAutomation\SampleLight\CC2530DB\..\..\..\..\..\Components\stack\sapi\"
//        -I "D:\AA\Z-Stack
//        3.0.2\Projects\zstack\HomeAutomation\SampleLight\CC2530DB\..\..\..\..\..\Components\stack\sec\"
//        -I "D:\AA\Z-Stack
//        3.0.2\Projects\zstack\HomeAutomation\SampleLight\CC2530DB\..\..\..\..\..\Components\stack\sys\"
//        -I "D:\AA\Z-Stack
//        3.0.2\Projects\zstack\HomeAutomation\SampleLight\CC2530DB\..\..\..\..\..\Components\stack\zcl\"
//        -I "D:\AA\Z-Stack
//        3.0.2\Projects\zstack\HomeAutomation\SampleLight\CC2530DB\..\..\..\..\..\Components\stack\zdo\"
//        -I "D:\AA\Z-Stack
//        3.0.2\Projects\zstack\HomeAutomation\SampleLight\CC2530DB\..\..\..\..\..\Components\zmac\"
//        -I "D:\AA\Z-Stack
//        3.0.2\Projects\zstack\HomeAutomation\SampleLight\CC2530DB\..\..\..\..\..\Components\zmac\f8w\"
//        -Ohz --require_prototypes)
//    Locale             =  Chinese (Simplified)_CHN.936
//    List file          =  
//        D:\AA\Z-Stack
//        3.0.2\Projects\zstack\HomeAutomation\SampleLight\CC2530DB\CoordinatorEB\List\zcl_general.s51
//
///////////////////////////////////////////////////////////////////////////////

        NAME zcl_general

        RTMODEL "__SystemLibrary", "CLib"
        RTMODEL "__calling_convention", "xdata_reentrant"
        RTMODEL "__code_model", "banked"
        RTMODEL "__core", "plain"
        RTMODEL "__data_model", "large"
        RTMODEL "__dptr_size", "16"
        RTMODEL "__extended_stack", "disabled"
        RTMODEL "__location_for_constants", "data"
        RTMODEL "__number_of_dptrs", "1"
        RTMODEL "__register_banks", "*"
        RTMODEL "__rt_version", "1"

        RSEG DOVERLAY:DATA:NOROOT(0)
        RSEG IOVERLAY:IDATA:NOROOT(0)
        RSEG ISTACK:IDATA:NOROOT(0)
        RSEG PSTACK:XDATA:NOROOT(0)
        RSEG XSTACK:XDATA:NOROOT(0)

        EXTERN ?V0
        EXTERN ?V2
        EXTERN ?V3
        EXTERN ?V1
        EXTERN ?V4
        EXTERN ?V5
        EXTERN ?V6
        EXTERN ?V7
        EXTERN ?V8
        EXTERN ?V9
        EXTERN ?V10
        EXTERN ?V11
        EXTERN ?V12
        EXTERN ?V13
        EXTERN ?V14
        EXTERN ?V15
        EXTERN ?ALLOC_XSTACK8
        EXTERN ?BANKED_ENTER_XDATA
        EXTERN ?BANKED_LEAVE_XDATA
        EXTERN ?BDISPATCH
        EXTERN ?BRET
        EXTERN ?CALL_IND
        EXTERN ?DEALLOC_XSTACK8
        EXTERN ?PUSH_XSTACK8_X_TWO
        EXTERN ?PUSH_XSTACK_I_ONE
        EXTERN ?PUSH_XSTACK_I_THREE
        EXTERN ?PUSH_XSTACK_I_TWO
        EXTERN ?US_DIV_MOD
        EXTERN ?US_SWITCH_DENSE
        EXTERN ?VB
        EXTERN ?XSP
        EXTERN ?XSTACK_DISP0_8
        EXTERN ?XSTACK_DISP100_8
        EXTERN ?XSTACK_DISP101_8
        EXTERN __INIT_XDATA_Z

        FUNCTION `??zclGeneral_AddGroup::?relay`,0203H
        PUBLIC `??zclGeneral_AddScene::?relay`
        FUNCTION `??zclGeneral_AddScene::?relay`,0203H
        PUBLIC `??zclGeneral_CountAllScenes::?relay`
        FUNCTION `??zclGeneral_CountAllScenes::?relay`,0203H
        PUBLIC `??zclGeneral_CountScenes::?relay`
        FUNCTION `??zclGeneral_CountScenes::?relay`,0203H
        PUBLIC `??zclGeneral_FindAllScenesForGroup::?relay`
        FUNCTION `??zclGeneral_FindAllScenesForGroup::?relay`,0203H
        PUBLIC `??zclGeneral_FindScene::?relay`
        FUNCTION `??zclGeneral_FindScene::?relay`,0203H
        FUNCTION `??zclGeneral_HdlInSpecificCommands::?relay`,0203H
        FUNCTION `??zclGeneral_HdlIncoming::?relay`,0203H
        FUNCTION `??zclGeneral_ProcessInGroupsClient::?relay`,0203H
        FUNCTION `??zclGeneral_ProcessInGroupsServer::?relay`,0203H
        FUNCTION `??zclGeneral_ProcessInIdentity::?relay`,0203H
        FUNCTION `??zclGeneral_ProcessInLevelControl::?relay`,0203H
        FUNCTION `??zclGeneral_ProcessInScenesClient::?relay`,0203H
        FUNCTION `??zclGeneral_ProcessInScenesServer::?relay`,0203H
        PUBLIC `??zclGeneral_ReadSceneCountCB::?relay`
        FUNCTION `??zclGeneral_ReadSceneCountCB::?relay`,0203H
        PUBLIC `??zclGeneral_RegisterCmdCallbacks::?relay`
        FUNCTION `??zclGeneral_RegisterCmdCallbacks::?relay`,0203H
        PUBLIC `??zclGeneral_RemoveAllScenes::?relay`
        FUNCTION `??zclGeneral_RemoveAllScenes::?relay`,0203H
        PUBLIC `??zclGeneral_RemoveScene::?relay`
        FUNCTION `??zclGeneral_RemoveScene::?relay`,0203H
        PUBLIC `??zclGeneral_ScenesInit::?relay`
        FUNCTION `??zclGeneral_ScenesInit::?relay`,0203H
        PUBLIC `??zclGeneral_ScenesSave::?relay`
        FUNCTION `??zclGeneral_ScenesSave::?relay`,0203H
        FUNCTION `??zclGeneral_ScenesWriteNV::?relay`,0203H
        PUBLIC `??zclGeneral_SendAddGroupRequest::?relay`
        FUNCTION `??zclGeneral_SendAddGroupRequest::?relay`,0203H
        PUBLIC `??zclGeneral_SendAddSceneRequest::?relay`
        FUNCTION `??zclGeneral_SendAddSceneRequest::?relay`,0203H
        PUBLIC `??zclGeneral_SendGroupGetMembershipRequest::?re`
        FUNCTION `??zclGeneral_SendGroupGetMembershipRequest::?re`,0203H
        PUBLIC `??zclGeneral_SendGroupRequest::?relay`
        FUNCTION `??zclGeneral_SendGroupRequest::?relay`,0203H
        PUBLIC `??zclGeneral_SendGroupResponse::?relay`
        FUNCTION `??zclGeneral_SendGroupResponse::?relay`,0203H
        PUBLIC `??zclGeneral_SendGroupViewResponse::?relay`
        FUNCTION `??zclGeneral_SendGroupViewResponse::?relay`,0203H
        PUBLIC `??zclGeneral_SendIdentify::?relay`
        FUNCTION `??zclGeneral_SendIdentify::?relay`,0203H
        PUBLIC `??zclGeneral_SendIdentifyEZModeInvoke::?relay`
        FUNCTION `??zclGeneral_SendIdentifyEZModeInvoke::?relay`,0203H
        PUBLIC `??zclGeneral_SendIdentifyQueryResponse::?relay`
        FUNCTION `??zclGeneral_SendIdentifyQueryResponse::?relay`,0203H
        PUBLIC `??zclGeneral_SendIdentifyUpdateCommState::?rela`
        FUNCTION `??zclGeneral_SendIdentifyUpdateCommState::?rela`,0203H
        PUBLIC `??zclGeneral_SendLevelControlMoveRequest::?rela`
        FUNCTION `??zclGeneral_SendLevelControlMoveRequest::?rela`,0203H
        PUBLIC ??zclGeneral_SendLevelControlMoveToLevelRequest
        FUNCTION ??zclGeneral_SendLevelControlMoveToLevelRequest,0203H
        PUBLIC `??zclGeneral_SendLevelControlStepRequest::?rela`
        FUNCTION `??zclGeneral_SendLevelControlStepRequest::?rela`,0203H
        PUBLIC `??zclGeneral_SendLevelControlStopRequest::?rela`
        FUNCTION `??zclGeneral_SendLevelControlStopRequest::?rela`,0203H
        PUBLIC `??zclGeneral_SendSceneGetMembershipResponse::?r`
        FUNCTION `??zclGeneral_SendSceneGetMembershipResponse::?r`,0203H
        PUBLIC `??zclGeneral_SendSceneRequest::?relay`
        FUNCTION `??zclGeneral_SendSceneRequest::?relay`,0203H
        PUBLIC `??zclGeneral_SendSceneResponse::?relay`
        FUNCTION `??zclGeneral_SendSceneResponse::?relay`,0203H
        PUBLIC `??zclGeneral_SendSceneViewRsp::?relay`
        FUNCTION `??zclGeneral_SendSceneViewRsp::?relay`,0203H
        FUNCTION zclGeneral_AddGroup,0a1203H
        ARGFRAME XSTACK, 76, STACK
        ARGFRAME IOVERLAY, 0, STATIC
        ARGFRAME DOVERLAY, 0, STATIC
        LOCFRAME ISTACK, 1, STACK
        LOCFRAME XSTACK, 20, STACK
        PUBLIC zclGeneral_AddScene
        FUNCTION zclGeneral_AddScene,0a1203H
        ARGFRAME XSTACK, 82, STACK
        ARGFRAME IOVERLAY, 0, STATIC
        ARGFRAME DOVERLAY, 0, STATIC
        LOCFRAME ISTACK, 1, STACK
        LOCFRAME XSTACK, 18, STACK
        PUBLIC zclGeneral_CountAllScenes
        FUNCTION zclGeneral_CountAllScenes,0203H
        ARGFRAME XSTACK, 82, STACK
        ARGFRAME IOVERLAY, 0, STATIC
        ARGFRAME DOVERLAY, 0, STATIC
        LOCFRAME ISTACK, 2, STACK
        PUBLIC zclGeneral_CountScenes
        FUNCTION zclGeneral_CountScenes,0203H
        ARGFRAME XSTACK, 0, STACK
        LOCFRAME ISTACK, 2, STACK
        PUBLIC zclGeneral_FindAllScenesForGroup
        FUNCTION zclGeneral_FindAllScenesForGroup,080203H
        ARGFRAME XSTACK, 82, STACK
        ARGFRAME IOVERLAY, 0, STATIC
        ARGFRAME DOVERLAY, 0, STATIC
        LOCFRAME ISTACK, 1, STACK
        LOCFRAME XSTACK, 10, STACK
        PUBLIC zclGeneral_FindScene
        FUNCTION zclGeneral_FindScene,080203H
        ARGFRAME XSTACK, 82, STACK
        ARGFRAME IOVERLAY, 0, STATIC
        ARGFRAME DOVERLAY, 0, STATIC
        LOCFRAME XSTACK, 9, STACK
        FUNCTION zclGeneral_HdlInSpecificCommands,0a1203H
        ARGFRAME XSTACK, 0, STACK
        ARGFRAME IOVERLAY, 0, STATIC
        ARGFRAME DOVERLAY, 0, STATIC
        LOCFRAME XSTACK, 10, STACK
        FUNCTION zclGeneral_HdlIncoming,021603H
        ARGFRAME XSTACK, 0, STACK
        LOCFRAME ISTACK, 2, STACK
        FUNCTION zclGeneral_ProcessInGroupsClient,0a1203H
        ARGFRAME XSTACK, 10, STACK
        ARGFRAME IOVERLAY, 0, STATIC
        ARGFRAME DOVERLAY, 0, STATIC
        LOCFRAME ISTACK, 1, STACK
        LOCFRAME XSTACK, 53, STACK
        FUNCTION zclGeneral_ProcessInGroupsServer,0a1203H
        ARGFRAME XSTACK, 10, STACK
        ARGFRAME IOVERLAY, 0, STATIC
        ARGFRAME DOVERLAY, 0, STATIC
        LOCFRAME ISTACK, 1, STACK
        LOCFRAME XSTACK, 83, STACK
        FUNCTION zclGeneral_ProcessInIdentity,0a1203H
        ARGFRAME XSTACK, 10, STACK
        ARGFRAME IOVERLAY, 0, STATIC
        ARGFRAME DOVERLAY, 0, STATIC
        LOCFRAME XSTACK, 22, STACK
        FUNCTION zclGeneral_ProcessInLevelControl,080203H
        ARGFRAME XSTACK, 10, STACK
        ARGFRAME IOVERLAY, 0, STATIC
        ARGFRAME DOVERLAY, 0, STATIC
        LOCFRAME ISTACK, 1, STACK
        LOCFRAME XSTACK, 22, STACK
        FUNCTION zclGeneral_ProcessInScenesClient,0a1203H
        ARGFRAME XSTACK, 10, STACK
        ARGFRAME IOVERLAY, 0, STATIC
        ARGFRAME DOVERLAY, 0, STATIC
        LOCFRAME ISTACK, 1, STACK
        LOCFRAME XSTACK, 90, STACK
        FUNCTION zclGeneral_ProcessInScenesServer,0a1203H
        ARGFRAME XSTACK, 10, STACK
        ARGFRAME IOVERLAY, 0, STATIC
        ARGFRAME DOVERLAY, 0, STATIC
        LOCFRAME ISTACK, 1, STACK
        LOCFRAME XSTACK, 89, STACK
        PUBLIC zclGeneral_ReadSceneCountCB
        FUNCTION zclGeneral_ReadSceneCountCB,0a1203H
        ARGFRAME XSTACK, 4, STACK
        LOCFRAME ISTACK, 1, STACK
        LOCFRAME XSTACK, 10, STACK
        PUBLIC zclGeneral_RegisterCmdCallbacks
        FUNCTION zclGeneral_RegisterCmdCallbacks,0a1203H
        ARGFRAME XSTACK, 0, STACK
        LOCFRAME ISTACK, 1, STACK
        LOCFRAME XSTACK, 14, STACK
        PUBLIC zclGeneral_RemoveAllScenes
        FUNCTION zclGeneral_RemoveAllScenes,0a1203H
        ARGFRAME XSTACK, 82, STACK
        ARGFRAME IOVERLAY, 0, STATIC
        ARGFRAME DOVERLAY, 0, STATIC
        LOCFRAME XSTACK, 13, STACK
        PUBLIC zclGeneral_RemoveScene
        FUNCTION zclGeneral_RemoveScene,0a1203H
        ARGFRAME XSTACK, 82, STACK
        ARGFRAME IOVERLAY, 0, STATIC
        ARGFRAME DOVERLAY, 0, STATIC
        LOCFRAME XSTACK, 9, STACK
        PUBLIC zclGeneral_ScenesInit
        FUNCTION zclGeneral_ScenesInit,0a1203H
        ARGFRAME XSTACK, 12, STACK
        ARGFRAME IOVERLAY, 0, STATIC
        ARGFRAME DOVERLAY, 0, STATIC
        LOCFRAME XSTACK, 72, STACK
        PUBLIC zclGeneral_ScenesSave
        FUNCTION zclGeneral_ScenesSave,021203H
        ARGFRAME XSTACK, 0, STACK
        LOCFRAME ISTACK, 2, STACK
        FUNCTION zclGeneral_ScenesWriteNV,0a1203H
        ARGFRAME XSTACK, 82, STACK
        ARGFRAME IOVERLAY, 0, STATIC
        ARGFRAME DOVERLAY, 0, STATIC
        LOCFRAME ISTACK, 1, STACK
        LOCFRAME XSTACK, 73, STACK
        PUBLIC zclGeneral_SendAddGroupRequest
        FUNCTION zclGeneral_SendAddGroupRequest,0a1203H
        ARGFRAME XSTACK, 5, STACK
        LOCFRAME ISTACK, 1, STACK
        LOCFRAME XSTACK, 32, STACK
        PUBLIC zclGeneral_SendAddSceneRequest
        FUNCTION zclGeneral_SendAddSceneRequest,0a1203H
        ARGFRAME XSTACK, 3, STACK
        LOCFRAME ISTACK, 1, STACK
        LOCFRAME XSTACK, 38, STACK
        PUBLIC zclGeneral_SendGroupGetMembershipRequest
        FUNCTION zclGeneral_SendGroupGetMembershipRequest,0a1203H
        ARGFRAME XSTACK, 83, STACK
        ARGFRAME IOVERLAY, 0, STATIC
        ARGFRAME DOVERLAY, 0, STATIC
        LOCFRAME ISTACK, 1, STACK
        LOCFRAME XSTACK, 31, STACK
        PUBLIC zclGeneral_SendGroupRequest
        FUNCTION zclGeneral_SendGroupRequest,0a1203H
        ARGFRAME XSTACK, 3, STACK
        LOCFRAME ISTACK, 1, STACK
        LOCFRAME XSTACK, 25, STACK
        PUBLIC zclGeneral_SendGroupResponse
        FUNCTION zclGeneral_SendGroupResponse,0a1203H
        ARGFRAME XSTACK, 80, STACK
        ARGFRAME IOVERLAY, 0, STATIC
        ARGFRAME DOVERLAY, 0, STATIC
        LOCFRAME ISTACK, 1, STACK
        LOCFRAME XSTACK, 26, STACK
        PUBLIC zclGeneral_SendGroupViewResponse
        FUNCTION zclGeneral_SendGroupViewResponse,0a1203H
        ARGFRAME XSTACK, 79, STACK
        ARGFRAME IOVERLAY, 0, STATIC
        ARGFRAME DOVERLAY, 0, STATIC
        LOCFRAME ISTACK, 1, STACK
        LOCFRAME XSTACK, 33, STACK
        PUBLIC zclGeneral_SendIdentify
        FUNCTION zclGeneral_SendIdentify,0a1203H
        ARGFRAME XSTACK, 2, STACK
        LOCFRAME ISTACK, 1, STACK
        LOCFRAME XSTACK, 23, STACK
        PUBLIC zclGeneral_SendIdentifyEZModeInvoke
        FUNCTION zclGeneral_SendIdentifyEZModeInvoke,0a1203H
        ARGFRAME XSTACK, 1, STACK
        LOCFRAME ISTACK, 1, STACK
        LOCFRAME XSTACK, 24, STACK
        PUBLIC zclGeneral_SendIdentifyQueryResponse
        FUNCTION zclGeneral_SendIdentifyQueryResponse,0a1203H
        ARGFRAME XSTACK, 20, STACK
        ARGFRAME IOVERLAY, 0, STATIC
        ARGFRAME DOVERLAY, 0, STATIC
        LOCFRAME ISTACK, 1, STACK
        LOCFRAME XSTACK, 23, STACK
        PUBLIC zclGeneral_SendIdentifyUpdateCommState
        FUNCTION zclGeneral_SendIdentifyUpdateCommState,0a1203H
        ARGFRAME XSTACK, 2, STACK
        LOCFRAME ISTACK, 1, STACK
        LOCFRAME XSTACK, 25, STACK
        PUBLIC zclGeneral_SendLevelControlMoveRequest
        FUNCTION zclGeneral_SendLevelControlMoveRequest,0a1203H
        ARGFRAME XSTACK, 3, STACK
        LOCFRAME ISTACK, 1, STACK
        LOCFRAME XSTACK, 25, STACK
        PUBLIC zclGeneral_SendLevelControlMoveToLevelRequest
        FUNCTION zclGeneral_SendLevelControlMoveToLevelRequest,0a1203H
        ARGFRAME XSTACK, 4, STACK
        LOCFRAME ISTACK, 1, STACK
        LOCFRAME XSTACK, 26, STACK
        PUBLIC zclGeneral_SendLevelControlStepRequest
        FUNCTION zclGeneral_SendLevelControlStepRequest,0a1203H
        ARGFRAME XSTACK, 5, STACK
        LOCFRAME ISTACK, 1, STACK
        LOCFRAME XSTACK, 27, STACK
        PUBLIC zclGeneral_SendLevelControlStopRequest
        FUNCTION zclGeneral_SendLevelControlStopRequest,0a1203H
        ARGFRAME XSTACK, 1, STACK
        LOCFRAME XSTACK, 23, STACK
        PUBLIC zclGeneral_SendSceneGetMembershipResponse
        FUNCTION zclGeneral_SendSceneGetMembershipResponse,0a1203H
        ARGFRAME XSTACK, 89, STACK
        ARGFRAME IOVERLAY, 0, STATIC
        ARGFRAME DOVERLAY, 0, STATIC
        LOCFRAME ISTACK, 1, STACK
        LOCFRAME XSTACK, 29, STACK
        PUBLIC zclGeneral_SendSceneRequest
        FUNCTION zclGeneral_SendSceneRequest,0a1203H
        ARGFRAME XSTACK, 4, STACK
        LOCFRAME ISTACK, 1, STACK
        LOCFRAME XSTACK, 26, STACK
        PUBLIC zclGeneral_SendSceneResponse
        FUNCTION zclGeneral_SendSceneResponse,0a1203H
        ARGFRAME XSTACK, 87, STACK
        ARGFRAME IOVERLAY, 0, STATIC
        ARGFRAME DOVERLAY, 0, STATIC
        LOCFRAME ISTACK, 1, STACK
        LOCFRAME XSTACK, 27, STACK
        PUBLIC zclGeneral_SendSceneViewRsp
        FUNCTION zclGeneral_SendSceneViewRsp,0a1203H
        ARGFRAME XSTACK, 86, STACK
        ARGFRAME IOVERLAY, 0, STATIC
        ARGFRAME DOVERLAY, 0, STATIC
        LOCFRAME ISTACK, 1, STACK
        LOCFRAME XSTACK, 37, STACK
        
          CFI Names cfiNames0
          CFI StackFrame CFA_SP SP IDATA
          CFI StackFrame CFA_PSP16 PSP16 XDATA
          CFI StackFrame CFA_XSP16 XSP16 XDATA
          CFI StaticOverlayFrame CFA_IOVERLAY IOVERLAY
          CFI StaticOverlayFrame CFA_DOVERLAY DOVERLAY
          CFI Resource `PSW.CY`:1, `B.BR0`:1, `B.BR1`:1, `B.BR2`:1, `B.BR3`:1
          CFI Resource `B.BR4`:1, `B.BR5`:1, `B.BR6`:1, `B.BR7`:1, `VB.BR8`:1
          CFI Resource `VB.BR9`:1, `VB.BR10`:1, `VB.BR11`:1, `VB.BR12`:1
          CFI Resource `VB.BR13`:1, `VB.BR14`:1, `VB.BR15`:1, VB:8, B:8, A:8
          CFI Resource PSW:8, DPL0:8, DPH0:8, R0:8, R1:8, R2:8, R3:8, R4:8, R5:8
          CFI Resource R6:8, R7:8, V0:8, V1:8, V2:8, V3:8, V4:8, V5:8, V6:8, V7:8
          CFI Resource V8:8, V9:8, V10:8, V11:8, V12:8, V13:8, V14:8, V15:8, SP:8
          CFI Resource PSPH:8, PSPL:8, PSP16:16, XSPH:8, XSPL:8, XSP16:16
          CFI VirtualResource ?RET:24
          CFI Resource ?BRET_EXT:8
          CFI VirtualResource ?RET_HIGH:8, ?RET_LOW:8
          CFI ResourceParts PSP16 PSPH, PSPL
          CFI ResourceParts XSP16 XSPH, XSPL
          CFI ResourceParts ?RET ?BRET_EXT, ?RET_HIGH, ?RET_LOW
          CFI EndNames cfiNames0
        
          CFI Common cfiCommon0 Using cfiNames0
          CFI CodeAlign 1
          CFI DataAlign -1
          CFI ReturnAddress ?RET CODE
          CFI CFA_DOVERLAY Used
          CFI CFA_IOVERLAY Used
          CFI CFA_SP SP+-3
          CFI CFA_PSP16 PSP16+0
          CFI CFA_XSP16 XSP16+0
          CFI `PSW.CY` SameValue
          CFI `B.BR0` SameValue
          CFI `B.BR1` SameValue
          CFI `B.BR2` SameValue
          CFI `B.BR3` SameValue
          CFI `B.BR4` SameValue
          CFI `B.BR5` SameValue
          CFI `B.BR6` SameValue
          CFI `B.BR7` SameValue
          CFI `VB.BR8` SameValue
          CFI `VB.BR9` SameValue
          CFI `VB.BR10` SameValue
          CFI `VB.BR11` SameValue
          CFI `VB.BR12` SameValue
          CFI `VB.BR13` SameValue
          CFI `VB.BR14` SameValue
          CFI `VB.BR15` SameValue
          CFI VB SameValue
          CFI B Undefined
          CFI A Undefined
          CFI PSW SameValue
          CFI DPL0 SameValue
          CFI DPH0 SameValue
          CFI R0 Undefined
          CFI R1 Undefined
          CFI R2 Undefined
          CFI R3 Undefined
          CFI R4 Undefined
          CFI R5 Undefined
          CFI R6 SameValue
          CFI R7 SameValue
          CFI V0 SameValue
          CFI V1 SameValue
          CFI V2 SameValue
          CFI V3 SameValue
          CFI V4 SameValue
          CFI V5 SameValue
          CFI V6 SameValue
          CFI V7 SameValue
          CFI V8 SameValue
          CFI V9 SameValue
          CFI V10 SameValue
          CFI V11 SameValue
          CFI V12 SameValue
          CFI V13 SameValue
          CFI V14 SameValue
          CFI V15 SameValue
          CFI PSPH Undefined
          CFI PSPL Undefined
          CFI XSPH Undefined
          CFI XSPL Undefined
          CFI ?RET Concat
          CFI ?BRET_EXT Frame(CFA_SP, 3)
          CFI ?RET_HIGH Frame(CFA_SP, 2)
          CFI ?RET_LOW Frame(CFA_SP, 1)
          CFI EndCommon cfiCommon0
        
        
          CFI Common cfiCommon1 Using cfiNames0
          CFI CodeAlign 1
          CFI DataAlign -1
          CFI ReturnAddress ?RET CODE
          CFI CFA_DOVERLAY Used
          CFI CFA_IOVERLAY Used
          CFI CFA_SP SP+-2
          CFI CFA_PSP16 PSP16+0
          CFI CFA_XSP16 XSP16+0
          CFI `PSW.CY` SameValue
          CFI `B.BR0` SameValue
          CFI `B.BR1` SameValue
          CFI `B.BR2` SameValue
          CFI `B.BR3` SameValue
          CFI `B.BR4` SameValue
          CFI `B.BR5` SameValue
          CFI `B.BR6` SameValue
          CFI `B.BR7` SameValue
          CFI `VB.BR8` SameValue
          CFI `VB.BR9` SameValue
          CFI `VB.BR10` SameValue
          CFI `VB.BR11` SameValue
          CFI `VB.BR12` SameValue
          CFI `VB.BR13` SameValue
          CFI `VB.BR14` SameValue
          CFI `VB.BR15` SameValue
          CFI VB SameValue
          CFI B SameValue
          CFI A SameValue
          CFI PSW SameValue
          CFI DPL0 SameValue
          CFI DPH0 SameValue
          CFI R0 SameValue
          CFI R1 SameValue
          CFI R2 SameValue
          CFI R3 SameValue
          CFI R4 SameValue
          CFI R5 SameValue
          CFI R6 SameValue
          CFI R7 SameValue
          CFI V0 SameValue
          CFI V1 SameValue
          CFI V2 SameValue
          CFI V3 SameValue
          CFI V4 SameValue
          CFI V5 SameValue
          CFI V6 SameValue
          CFI V7 SameValue
          CFI V8 SameValue
          CFI V9 SameValue
          CFI V10 SameValue
          CFI V11 SameValue
          CFI V12 SameValue
          CFI V13 SameValue
          CFI V14 SameValue
          CFI V15 SameValue
          CFI PSPH Undefined
          CFI PSPL Undefined
          CFI XSPH Undefined
          CFI XSPL Undefined
          CFI ?RET Concat
          CFI ?BRET_EXT SameValue
          CFI ?RET_HIGH Frame(CFA_SP, 2)
          CFI ?RET_LOW Frame(CFA_SP, 1)
          CFI EndCommon cfiCommon1
        
aps_AddGroup        SYMBOL "aps_AddGroup"
`??aps_AddGroup::?relay` SYMBOL "?relay", aps_AddGroup
aps_CountAllGroups  SYMBOL "aps_CountAllGroups"
`??aps_CountAllGroups::?relay` SYMBOL "?relay", aps_CountAllGroups
aps_FindAllGroupsForEndpoint SYMBOL "aps_FindAllGroupsForEndpoint"
`??aps_FindAllGroupsForEndpoint::?relay` SYMBOL "?relay", aps_FindAllGroupsForEndpoint
aps_FindGroup       SYMBOL "aps_FindGroup"
`??aps_FindGroup::?relay` SYMBOL "?relay", aps_FindGroup
aps_RemoveAllGroup  SYMBOL "aps_RemoveAllGroup"
`??aps_RemoveAllGroup::?relay` SYMBOL "?relay", aps_RemoveAllGroup
aps_RemoveGroup     SYMBOL "aps_RemoveGroup"
`??aps_RemoveGroup::?relay` SYMBOL "?relay", aps_RemoveGroup
bdb_ZclIdentifyCmdInd SYMBOL "bdb_ZclIdentifyCmdInd"
`??bdb_ZclIdentifyCmdInd::?relay` SYMBOL "?relay", bdb_ZclIdentifyCmdInd
bdb_ZclIdentifyQueryCmdInd SYMBOL "bdb_ZclIdentifyQueryCmdInd"
`??bdb_ZclIdentifyQueryCmdInd::?relay` SYMBOL "?relay", bdb_ZclIdentifyQueryCmdInd
osal_mem_alloc      SYMBOL "osal_mem_alloc"
`??osal_mem_alloc::?relay` SYMBOL "?relay", osal_mem_alloc
osal_mem_free       SYMBOL "osal_mem_free"
`??osal_mem_free::?relay` SYMBOL "?relay", osal_mem_free
osal_memcpy         SYMBOL "osal_memcpy"
`??osal_memcpy::?relay` SYMBOL "?relay", osal_memcpy
osal_memset         SYMBOL "osal_memset"
`??osal_memset::?relay` SYMBOL "?relay", osal_memset
osal_nv_item_init   SYMBOL "osal_nv_item_init"
`??osal_nv_item_init::?relay` SYMBOL "?relay", osal_nv_item_init
osal_nv_read        SYMBOL "osal_nv_read"
`??osal_nv_read::?relay` SYMBOL "?relay", osal_nv_read
osal_nv_write       SYMBOL "osal_nv_write"
`??osal_nv_write::?relay` SYMBOL "?relay", osal_nv_write
zcl_ReadAttrData    SYMBOL "zcl_ReadAttrData"
`??zcl_ReadAttrData::?relay` SYMBOL "?relay", zcl_ReadAttrData
zcl_SendCommand     SYMBOL "zcl_SendCommand"
`??zcl_SendCommand::?relay` SYMBOL "?relay", zcl_SendCommand
zcl_SendDefaultRspCmd SYMBOL "zcl_SendDefaultRspCmd"
`??zcl_SendDefaultRspCmd::?relay` SYMBOL "?relay", zcl_SendDefaultRspCmd
zcl_registerPlugin  SYMBOL "zcl_registerPlugin"
`??zcl_registerPlugin::?relay` SYMBOL "?relay", zcl_registerPlugin
zclGeneral_AddScene SYMBOL "zclGeneral_AddScene"
`??zclGeneral_AddScene::?relay` SYMBOL "?relay", zclGeneral_AddScene
zclGeneral_CountAllScenes SYMBOL "zclGeneral_CountAllScenes"
`??zclGeneral_CountAllScenes::?relay` SYMBOL "?relay", zclGeneral_CountAllScenes
zclGeneral_CountScenes SYMBOL "zclGeneral_CountScenes"
`??zclGeneral_CountScenes::?relay` SYMBOL "?relay", zclGeneral_CountScenes
zclGeneral_FindAllScenesForGroup SYMBOL "zclGeneral_FindAllScenesForGroup"
`??zclGeneral_FindAllScenesForGroup::?relay` SYMBOL "?relay", zclGeneral_FindAllScenesForGroup
zclGeneral_FindScene SYMBOL "zclGeneral_FindScene"
`??zclGeneral_FindScene::?relay` SYMBOL "?relay", zclGeneral_FindScene
zclGeneral_ReadSceneCountCB SYMBOL "zclGeneral_ReadSceneCountCB"
`??zclGeneral_ReadSceneCountCB::?relay` SYMBOL "?relay", zclGeneral_ReadSceneCountCB
zclGeneral_RegisterCmdCallbacks SYMBOL "zclGeneral_RegisterCmdCallbacks"
`??zclGeneral_RegisterCmdCallbacks::?relay` SYMBOL "?relay", zclGeneral_RegisterCmdCallbacks
zclGeneral_RemoveAllScenes SYMBOL "zclGeneral_RemoveAllScenes"
`??zclGeneral_RemoveAllScenes::?relay` SYMBOL "?relay", zclGeneral_RemoveAllScenes
zclGeneral_RemoveScene SYMBOL "zclGeneral_RemoveScene"
`??zclGeneral_RemoveScene::?relay` SYMBOL "?relay", zclGeneral_RemoveScene
zclGeneral_ScenesInit SYMBOL "zclGeneral_ScenesInit"
`??zclGeneral_ScenesInit::?relay` SYMBOL "?relay", zclGeneral_ScenesInit
zclGeneral_ScenesSave SYMBOL "zclGeneral_ScenesSave"
`??zclGeneral_ScenesSave::?relay` SYMBOL "?relay", zclGeneral_ScenesSave
zclGeneral_SendAddGroupRequest SYMBOL "zclGeneral_SendAddGroupRequest"
`??zclGeneral_SendAddGroupRequest::?relay` SYMBOL "?relay", zclGeneral_SendAddGroupRequest
zclGeneral_SendAddSceneRequest SYMBOL "zclGeneral_SendAddSceneRequest"
`??zclGeneral_SendAddSceneRequest::?relay` SYMBOL "?relay", zclGeneral_SendAddSceneRequest
zclGeneral_SendGroupGetMembershipRequest SYMBOL "zclGeneral_SendGroupGetMembershipRequest"
`??zclGeneral_SendGroupGetMembershipRequest::?re` SYMBOL "?relay", zclGeneral_SendGroupGetMembershipRequest
zclGeneral_SendGroupRequest SYMBOL "zclGeneral_SendGroupRequest"
`??zclGeneral_SendGroupRequest::?relay` SYMBOL "?relay", zclGeneral_SendGroupRequest
zclGeneral_SendGroupResponse SYMBOL "zclGeneral_SendGroupResponse"
`??zclGeneral_SendGroupResponse::?relay` SYMBOL "?relay", zclGeneral_SendGroupResponse
zclGeneral_SendGroupViewResponse SYMBOL "zclGeneral_SendGroupViewResponse"
`??zclGeneral_SendGroupViewResponse::?relay` SYMBOL "?relay", zclGeneral_SendGroupViewResponse
zclGeneral_SendIdentify SYMBOL "zclGeneral_SendIdentify"
`??zclGeneral_SendIdentify::?relay` SYMBOL "?relay", zclGeneral_SendIdentify
zclGeneral_SendIdentifyEZModeInvoke SYMBOL "zclGeneral_SendIdentifyEZModeInvoke"
`??zclGeneral_SendIdentifyEZModeInvoke::?relay` SYMBOL "?relay", zclGeneral_SendIdentifyEZModeInvoke
zclGeneral_SendIdentifyQueryResponse SYMBOL "zclGeneral_SendIdentifyQueryResponse"
`??zclGeneral_SendIdentifyQueryResponse::?relay` SYMBOL "?relay", zclGeneral_SendIdentifyQueryResponse
zclGeneral_SendIdentifyUpdateCommState SYMBOL "zclGeneral_SendIdentifyUpdateCommState"
`??zclGeneral_SendIdentifyUpdateCommState::?rela` SYMBOL "?relay", zclGeneral_SendIdentifyUpdateCommState
zclGeneral_SendLevelControlMoveRequest SYMBOL "zclGeneral_SendLevelControlMoveRequest"
`??zclGeneral_SendLevelControlMoveRequest::?rela` SYMBOL "?relay", zclGeneral_SendLevelControlMoveRequest
zclGeneral_SendLevelControlMoveToLevelRequest SYMBOL "zclGeneral_SendLevelControlMoveToLevelRequest"
??zclGeneral_SendLevelControlMoveToLevelRequest SYMBOL "?relay", zclGeneral_SendLevelControlMoveToLevelRequest
zclGeneral_SendLevelControlStepRequest SYMBOL "zclGeneral_SendLevelControlStepRequest"
`??zclGeneral_SendLevelControlStepRequest::?rela` SYMBOL "?relay", zclGeneral_SendLevelControlStepRequest
zclGeneral_SendLevelControlStopRequest SYMBOL "zclGeneral_SendLevelControlStopRequest"
`??zclGeneral_SendLevelControlStopRequest::?rela` SYMBOL "?relay", zclGeneral_SendLevelControlStopRequest
zclGeneral_SendSceneGetMembershipResponse SYMBOL "zclGeneral_SendSceneGetMembershipResponse"
`??zclGeneral_SendSceneGetMembershipResponse::?r` SYMBOL "?relay", zclGeneral_SendSceneGetMembershipResponse
zclGeneral_SendSceneRequest SYMBOL "zclGeneral_SendSceneRequest"
`??zclGeneral_SendSceneRequest::?relay` SYMBOL "?relay", zclGeneral_SendSceneRequest
zclGeneral_SendSceneResponse SYMBOL "zclGeneral_SendSceneResponse"
`??zclGeneral_SendSceneResponse::?relay` SYMBOL "?relay", zclGeneral_SendSceneResponse
zclGeneral_SendSceneViewRsp SYMBOL "zclGeneral_SendSceneViewRsp"
`??zclGeneral_SendSceneViewRsp::?relay` SYMBOL "?relay", zclGeneral_SendSceneViewRsp

        EXTERN `??aps_AddGroup::?relay`
        FUNCTION `??aps_AddGroup::?relay`,00H
        EXTERN `??aps_CountAllGroups::?relay`
        FUNCTION `??aps_CountAllGroups::?relay`,00H
        EXTERN `??aps_FindAllGroupsForEndpoint::?relay`
        FUNCTION `??aps_FindAllGroupsForEndpoint::?relay`,00H
        EXTERN `??aps_FindGroup::?relay`
        FUNCTION `??aps_FindGroup::?relay`,00H
        EXTERN `??aps_RemoveAllGroup::?relay`
        FUNCTION `??aps_RemoveAllGroup::?relay`,00H
        EXTERN `??aps_RemoveGroup::?relay`
        FUNCTION `??aps_RemoveGroup::?relay`,00H
        EXTERN `??bdb_ZclIdentifyCmdInd::?relay`
        FUNCTION `??bdb_ZclIdentifyCmdInd::?relay`,00H
        EXTERN `??bdb_ZclIdentifyQueryCmdInd::?relay`
        FUNCTION `??bdb_ZclIdentifyQueryCmdInd::?relay`,00H
        EXTERN `??osal_mem_alloc::?relay`
        FUNCTION `??osal_mem_alloc::?relay`,00H
        EXTERN `??osal_mem_free::?relay`
        FUNCTION `??osal_mem_free::?relay`,00H
        EXTERN `??osal_memcpy::?relay`
        FUNCTION `??osal_memcpy::?relay`,00H
        EXTERN `??osal_memset::?relay`
        FUNCTION `??osal_memset::?relay`,00H
        EXTERN `??osal_nv_item_init::?relay`
        FUNCTION `??osal_nv_item_init::?relay`,00H
        EXTERN `??osal_nv_read::?relay`
        FUNCTION `??osal_nv_read::?relay`,00H
        EXTERN `??osal_nv_write::?relay`
        FUNCTION `??osal_nv_write::?relay`,00H
        EXTERN `??zcl_ReadAttrData::?relay`
        FUNCTION `??zcl_ReadAttrData::?relay`,00H
        EXTERN `??zcl_SendCommand::?relay`
        FUNCTION `??zcl_SendCommand::?relay`,00H
        EXTERN `??zcl_SendDefaultRspCmd::?relay`
        FUNCTION `??zcl_SendDefaultRspCmd::?relay`,00H
        EXTERN `??zcl_registerPlugin::?relay`
        FUNCTION `??zcl_registerPlugin::?relay`,00H
        EXTERN aps_AddGroup
        FUNCTION aps_AddGroup,0202H
        ARGFRAME ISTACK, 0, STACK
        ARGFRAME PSTACK, 0, STACK
        ARGFRAME XSTACK, 16, STACK
        ARGFRAME IOVERLAY, 0, STATIC
        ARGFRAME DOVERLAY, 0, STATIC
        EXTERN aps_CountAllGroups
        FUNCTION aps_CountAllGroups,0202H
        ARGFRAME ISTACK, 0, STACK
        ARGFRAME PSTACK, 0, STACK
        ARGFRAME XSTACK, 76, STACK
        ARGFRAME IOVERLAY, 0, STATIC
        ARGFRAME DOVERLAY, 0, STATIC
        EXTERN aps_FindAllGroupsForEndpoint
        FUNCTION aps_FindAllGroupsForEndpoint,0202H
        ARGFRAME ISTACK, 0, STACK
        ARGFRAME PSTACK, 0, STACK
        ARGFRAME XSTACK, 76, STACK
        ARGFRAME IOVERLAY, 0, STATIC
        ARGFRAME DOVERLAY, 0, STATIC
        EXTERN aps_FindGroup
        FUNCTION aps_FindGroup,0202H
        ARGFRAME ISTACK, 0, STACK
        ARGFRAME PSTACK, 0, STACK
        ARGFRAME XSTACK, 82, STACK
        ARGFRAME IOVERLAY, 0, STATIC
        ARGFRAME DOVERLAY, 0, STATIC
        EXTERN aps_RemoveAllGroup
        FUNCTION aps_RemoveAllGroup,0202H
        ARGFRAME ISTACK, 0, STACK
        ARGFRAME PSTACK, 0, STACK
        ARGFRAME XSTACK, 76, STACK
        ARGFRAME IOVERLAY, 0, STATIC
        ARGFRAME DOVERLAY, 0, STATIC
        EXTERN aps_RemoveGroup
        FUNCTION aps_RemoveGroup,0202H
        ARGFRAME ISTACK, 0, STACK
        ARGFRAME PSTACK, 0, STACK
        ARGFRAME XSTACK, 76, STACK
        ARGFRAME IOVERLAY, 0, STATIC
        ARGFRAME DOVERLAY, 0, STATIC
        EXTERN bdb_ZclIdentifyCmdInd
        FUNCTION bdb_ZclIdentifyCmdInd,0202H
        ARGFRAME ISTACK, 0, STACK
        ARGFRAME PSTACK, 0, STACK
        ARGFRAME XSTACK, 18, STACK
        ARGFRAME IOVERLAY, 0, STATIC
        ARGFRAME DOVERLAY, 0, STATIC
        EXTERN bdb_ZclIdentifyQueryCmdInd
        FUNCTION bdb_ZclIdentifyQueryCmdInd,0202H
        ARGFRAME ISTACK, 0, STACK
        ARGFRAME PSTACK, 0, STACK
        ARGFRAME XSTACK, 18, STACK
        ARGFRAME IOVERLAY, 0, STATIC
        ARGFRAME DOVERLAY, 0, STATIC
        EXTERN osal_mem_alloc
        FUNCTION osal_mem_alloc,0202H
        ARGFRAME ISTACK, 0, STACK
        ARGFRAME PSTACK, 0, STACK
        ARGFRAME XSTACK, 87, STACK
        ARGFRAME IOVERLAY, 0, STATIC
        ARGFRAME DOVERLAY, 0, STATIC
        EXTERN osal_mem_free
        FUNCTION osal_mem_free,0202H
        ARGFRAME ISTACK, 0, STACK
        ARGFRAME PSTACK, 0, STACK
        ARGFRAME XSTACK, 87, STACK
        ARGFRAME IOVERLAY, 0, STATIC
        ARGFRAME DOVERLAY, 0, STATIC
        EXTERN osal_memcpy
        FUNCTION osal_memcpy,0202H
        ARGFRAME ISTACK, 0, STACK
        ARGFRAME PSTACK, 0, STACK
        ARGFRAME XSTACK, 90, STACK
        ARGFRAME IOVERLAY, 0, STATIC
        ARGFRAME DOVERLAY, 0, STATIC
        EXTERN osal_memset
        FUNCTION osal_memset,0202H
        ARGFRAME ISTACK, 0, STACK
        ARGFRAME PSTACK, 0, STACK
        ARGFRAME XSTACK, 87, STACK
        ARGFRAME IOVERLAY, 0, STATIC
        ARGFRAME DOVERLAY, 0, STATIC
        EXTERN osal_nv_item_init
        FUNCTION osal_nv_item_init,0202H
        ARGFRAME ISTACK, 0, STACK
        ARGFRAME PSTACK, 0, STACK
        ARGFRAME XSTACK, 70, STACK
        ARGFRAME IOVERLAY, 0, STATIC
        ARGFRAME DOVERLAY, 0, STATIC
        EXTERN osal_nv_read
        FUNCTION osal_nv_read,0202H
        ARGFRAME ISTACK, 0, STACK
        ARGFRAME PSTACK, 0, STACK
        ARGFRAME XSTACK, 72, STACK
        ARGFRAME IOVERLAY, 0, STATIC
        ARGFRAME DOVERLAY, 0, STATIC
        EXTERN osal_nv_write
        FUNCTION osal_nv_write,0202H
        ARGFRAME ISTACK, 0, STACK
        ARGFRAME PSTACK, 0, STACK
        ARGFRAME XSTACK, 73, STACK
        ARGFRAME IOVERLAY, 0, STATIC
        ARGFRAME DOVERLAY, 0, STATIC
        EXTERN zcl_ReadAttrData
        FUNCTION zcl_ReadAttrData,0202H
        ARGFRAME ISTACK, 0, STACK
        ARGFRAME PSTACK, 0, STACK
        ARGFRAME XSTACK, 86, STACK
        ARGFRAME IOVERLAY, 0, STATIC
        ARGFRAME DOVERLAY, 0, STATIC
        EXTERN zcl_SendCommand
        FUNCTION zcl_SendCommand,0202H
        ARGFRAME ISTACK, 0, STACK
        ARGFRAME PSTACK, 0, STACK
        ARGFRAME XSTACK, 38, STACK
        ARGFRAME IOVERLAY, 0, STATIC
        ARGFRAME DOVERLAY, 0, STATIC
        EXTERN zcl_SendDefaultRspCmd
        FUNCTION zcl_SendDefaultRspCmd,0202H
        ARGFRAME ISTACK, 0, STACK
        ARGFRAME PSTACK, 0, STACK
        ARGFRAME XSTACK, 83, STACK
        ARGFRAME IOVERLAY, 0, STATIC
        ARGFRAME DOVERLAY, 0, STATIC
        EXTERN zcl_registerPlugin
        FUNCTION zcl_registerPlugin,0202H
        ARGFRAME ISTACK, 0, STACK
        ARGFRAME PSTACK, 0, STACK
        ARGFRAME XSTACK, 14, STACK
        ARGFRAME IOVERLAY, 0, STATIC
        ARGFRAME DOVERLAY, 0, STATIC

// D:\AA\Z-Stack 3.0.2\Components\stack\zcl\zcl_general.c
//    1 /**************************************************************************************************
//    2   Filename:       zcl_general.c
//    3   Revised:        $Date: 2015-09-10 09:36:48 -0700 (Thu, 10 Sep 2015) $
//    4   Revision:       $Revision: 44493 $
//    5 
//    6   Description:    Zigbee Cluster Library - General.  This application receives all
//    7                   ZCL messages and initially parses them before passing to application.
//    8 
//    9 
//   10   Copyright 2006-2015 Texas Instruments Incorporated. All rights reserved.
//   11 
//   12   IMPORTANT: Your use of this Software is limited to those specific rights
//   13   granted under the terms of a software license agreement between the user
//   14   who downloaded the software, his/her employer (which must be your employer)
//   15   and Texas Instruments Incorporated (the "License"). You may not use this
//   16   Software unless you agree to abide by the terms of the License. The License
//   17   limits your use, and you acknowledge, that the Software may not be modified,
//   18   copied or distributed unless embedded on a Texas Instruments microcontroller
//   19   or used solely and exclusively in conjunction with a Texas Instruments radio
//   20   frequency transceiver, which is integrated into your product. Other than for
//   21   the foregoing purpose, you may not use, reproduce, copy, prepare derivative
//   22   works of, modify, distribute, perform, display or sell this Software and/or
//   23   its documentation for any purpose.
//   24 
//   25   YOU FURTHER ACKNOWLEDGE AND AGREE THAT THE SOFTWARE AND DOCUMENTATION ARE
//   26   PROVIDED "AS IS" WITHOUT WARRANTY OF ANY KIND, EITHER EXPRESS OR IMPLIED,
//   27   INCLUDING WITHOUT LIMITATION, ANY WARRANTY OF MERCHANTABILITY, TITLE,
//   28   NON-INFRINGEMENT AND FITNESS FOR A PARTICULAR PURPOSE. IN NO EVENT SHALL
//   29   TEXAS INSTRUMENTS OR ITS LICENSORS BE LIABLE OR OBLIGATED UNDER CONTRACT,
//   30   NEGLIGENCE, STRICT LIABILITY, CONTRIBUTION, BREACH OF WARRANTY, OR OTHER
//   31   LEGAL EQUITABLE THEORY ANY DIRECT OR INDIRECT DAMAGES OR EXPENSES
//   32   INCLUDING BUT NOT LIMITED TO ANY INCIDENTAL, SPECIAL, INDIRECT, PUNITIVE
//   33   OR CONSEQUENTIAL DAMAGES, LOST PROFITS OR LOST DATA, COST OF PROCUREMENT
//   34   OF SUBSTITUTE GOODS, TECHNOLOGY, SERVICES, OR ANY CLAIMS BY THIRD PARTIES
//   35   (INCLUDING BUT NOT LIMITED TO ANY DEFENSE THEREOF), OR OTHER SIMILAR COSTS.
//   36 
//   37   Should you have any questions regarding your right to use this Software,
//   38   contact Texas Instruments Incorporated at www.TI.com.
//   39 **************************************************************************************************/
//   40 
//   41 /*********************************************************************
//   42  * INCLUDES
//   43  */
//   44 #include "ZComDef.h"
//   45 #include "zcl.h"
//   46 #include "zcl_general.h"
//   47 //#include "ZDApp.h"
//   48 
//   49 #if defined ( INTER_PAN )
//   50   #include "stub_aps.h"
//   51 #endif
//   52 #include "bdb.h"
//   53 
//   54 /*********************************************************************
//   55  * MACROS
//   56  */
//   57 #define locationTypeAbsolute( a )          ( (a) & LOCATION_TYPE_ABSOLUTE )
//   58 #define locationType2D( a )                ( (a) & LOCATION_TYPE_2_D )
//   59 #define locationTypeCoordinateSystem( a )  ( (a) & LOCATION_TYPE_COORDINATE_SYSTEM )
//   60 
//   61 #ifdef ZCL_SCENES
//   62 #define zclGeneral_ScenesRemaingCapacity() ( ZCL_GEN_MAX_SCENES - zclGeneral_CountAllScenes() )
//   63 #endif // ZCL_SCENES
//   64 
//   65 /*********************************************************************
//   66  * CONSTANTS
//   67  */
//   68 
//   69 /*********************************************************************
//   70  * TYPEDEFS
//   71  */
//   72 typedef struct zclGenCBRec
//   73 {
//   74   struct zclGenCBRec        *next;
//   75   uint8                     endpoint; // Used to link it into the endpoint descriptor
//   76   zclGeneral_AppCallbacks_t *CBs;     // Pointer to Callback function
//   77 } zclGenCBRec_t;
//   78 
//   79 typedef struct zclGenSceneItem
//   80 {
//   81   struct zclGenSceneItem    *next;
//   82   uint8                     endpoint; // Used to link it into the endpoint descriptor
//   83   zclGeneral_Scene_t        scene;    // Scene info
//   84 } zclGenSceneItem_t;
//   85 
//   86 typedef struct zclGenAlarmItem
//   87 {
//   88   struct zclGenAlarmItem    *next;
//   89   uint8                     endpoint; // Used to link it into the endpoint descriptor
//   90   zclGeneral_Alarm_t        alarm;    // Alarm info
//   91 } zclGenAlarmItem_t;
//   92 
//   93 // Scene NV types
//   94 typedef struct
//   95 {
//   96   uint16                    numRecs;
//   97 } nvGenScenesHdr_t;
//   98 
//   99 typedef struct zclGenSceneNVItem
//  100 {
//  101   uint8                     endpoint;
//  102   zclGeneral_Scene_t        scene;
//  103 } zclGenSceneNVItem_t;
//  104 
//  105 /*********************************************************************
//  106  * GLOBAL VARIABLES
//  107  */
//  108 
//  109 /*********************************************************************
//  110  * GLOBAL FUNCTIONS
//  111  */
//  112 
//  113 /*********************************************************************
//  114  * LOCAL VARIABLES
//  115  */

        RSEG XDATA_Z:XDATA:NOROOT(0)
        DATA16
//  116 static zclGenCBRec_t *zclGenCBs = (zclGenCBRec_t *)NULL;
zclGenCBs:
        DS 2
        REQUIRE __INIT_XDATA_Z

        RSEG XDATA_Z:XDATA:NOROOT(0)
        DATA8
//  117 static uint8 zclGenPluginRegisted = FALSE;
zclGenPluginRegisted:
        DS 1
        REQUIRE __INIT_XDATA_Z
//  118 
//  119 #if defined( ZCL_SCENES )
//  120   #if !defined ( ZCL_STANDALONE )

        RSEG XDATA_Z:XDATA:NOROOT(0)
        DATA16
//  121     static zclGenSceneItem_t *zclGenSceneTable = (zclGenSceneItem_t *)NULL;
zclGenSceneTable:
        DS 2
        REQUIRE __INIT_XDATA_Z
//  122   #endif
//  123 #endif // ZCL_SCENES
//  124 
//  125 #ifdef ZCL_ALARMS
//  126 static zclGenAlarmItem_t *zclGenAlarmTable = (zclGenAlarmItem_t *)NULL;
//  127 #endif // ZCL_ALARMS
//  128 
//  129 /*********************************************************************
//  130  * LOCAL FUNCTIONS
//  131  */
//  132 static ZStatus_t zclGeneral_HdlIncoming( zclIncoming_t *pInMsg );
//  133 static ZStatus_t zclGeneral_HdlInSpecificCommands( zclIncoming_t *pInMsg );
//  134 static zclGeneral_AppCallbacks_t *zclGeneral_FindCallbacks( uint8 endpoint );
//  135 
//  136 // Device Configuration and Installation clusters
//  137 #ifdef ZCL_BASIC
//  138 static ZStatus_t zclGeneral_ProcessInBasic( zclIncoming_t *pInMsg, zclGeneral_AppCallbacks_t *pCBs );
//  139 #endif // ZCL_BASIC
//  140 
//  141 #ifdef ZCL_IDENTIFY
//  142 static ZStatus_t zclGeneral_ProcessInIdentity( zclIncoming_t *pInMsg, zclGeneral_AppCallbacks_t *pCBs );
//  143 #endif // ZCL_IDENTIFY
//  144 
//  145 // Groups and Scenes clusters
//  146 #ifdef ZCL_GROUPS
//  147 static ZStatus_t zclGeneral_ProcessInGroupsServer( zclIncoming_t *pInMsg );
//  148 static ZStatus_t zclGeneral_ProcessInGroupsClient( zclIncoming_t *pInMsg, zclGeneral_AppCallbacks_t *pCBs );
//  149 static ZStatus_t zclGeneral_AddGroup( uint8 endPoint, aps_Group_t *group, uint8 *pData );
//  150 #endif // ZCL_GROUPS
//  151 
//  152 #ifdef ZCL_SCENES
//  153 static ZStatus_t zclGeneral_ProcessInScenesServer( zclIncoming_t *pInMsg, zclGeneral_AppCallbacks_t *pCBs );
//  154 static ZStatus_t zclGeneral_ProcessInScenesClient( zclIncoming_t *pInMsg, zclGeneral_AppCallbacks_t *pCBs );
//  155 #endif // ZCL_SCENES
//  156 
//  157 // On/Off and Level Control Configuration clusters
//  158 #ifdef ZCL_ON_OFF
//  159 static ZStatus_t zclGeneral_ProcessInOnOff( zclIncoming_t *pInMsg, zclGeneral_AppCallbacks_t *pCBs );
//  160 //static ZStatus_t zclGeneral_ProcessInOnOffTest( zclIncoming_t *pInMsg );
//  161 #endif // ZCL_ONOFF
//  162 
//  163 #ifdef ZCL_LEVEL_CTRL
//  164 static ZStatus_t zclGeneral_ProcessInLevelControl( zclIncoming_t *pInMsg, zclGeneral_AppCallbacks_t *pCBs );
//  165 #endif // ZCL_LEVEL_CTRL
//  166 
//  167 // Alarms cluster
//  168 #ifdef ZCL_ALARMS
//  169 static ZStatus_t zclGeneral_ProcessInAlarmsServer( zclIncoming_t *pInMsg, zclGeneral_AppCallbacks_t *pCBs );
//  170 static ZStatus_t zclGeneral_ProcessInAlarmsClient( zclIncoming_t *pInMsg, zclGeneral_AppCallbacks_t *pCBs );
//  171 #endif // ZCL_ALARMS
//  172 
//  173 // Location cluster
//  174 #ifdef ZCL_LOCATION
//  175 static ZStatus_t zclGeneral_ProcessInLocationServer( zclIncoming_t *pInMsg, zclGeneral_AppCallbacks_t *pCBs );
//  176 static ZStatus_t zclGeneral_ProcessInLocationClient( zclIncoming_t *pInMsg, zclGeneral_AppCallbacks_t *pCBs );
//  177 #endif // ZCL_LOCATION
//  178 
//  179 #ifdef ZCL_SCENES
//  180   #if !defined ( ZCL_STANDALONE )
//  181     static uint8 zclGeneral_ScenesInitNV( void );
//  182     static void zclGeneral_ScenesSetDefaultNV( void );
//  183     static void zclGeneral_ScenesWriteNV( void );
//  184     static uint16 zclGeneral_ScenesRestoreFromNV( void );
//  185   #endif
//  186 #endif // ZCL_SCENES
//  187 
//  188 /*********************************************************************
//  189  * @fn      zclGeneral_RegisterCmdCallbacks
//  190  *
//  191  * @brief   Register an applications command callbacks
//  192  *
//  193  * @param   endpoint - application's endpoint
//  194  * @param   callbacks - pointer to the callback record.
//  195  *
//  196  * @return  ZMemError if not able to allocate
//  197  */

        RSEG BANKED_CODE:HUGECODE:NOROOT(0)
//  198 ZStatus_t zclGeneral_RegisterCmdCallbacks( uint8 endpoint, zclGeneral_AppCallbacks_t *callbacks )
zclGeneral_RegisterCmdCallbacks:
          CFI Block cfiBlock0 Using cfiCommon0
          CFI Function zclGeneral_RegisterCmdCallbacks
        CODE
//  199 {
        FUNCALL zclGeneral_RegisterCmdCallbacks, zcl_registerPlugin
        LOCFRAME ISTACK, 0, STACK
        LOCFRAME PSTACK, 0, STACK
        LOCFRAME XSTACK, 14, STACK
        LOCFRAME IOVERLAY, 0, STATIC
        LOCFRAME DOVERLAY, 0, STATIC
        ARGFRAME ISTACK, 0, STACK
        ARGFRAME PSTACK, 0, STACK
        ARGFRAME XSTACK, 14, STACK
        ARGFRAME IOVERLAY, 0, STATIC
        ARGFRAME DOVERLAY, 0, STATIC
        FUNCALL zclGeneral_RegisterCmdCallbacks, zclGeneral_ScenesInit
        LOCFRAME ISTACK, 0, STACK
        LOCFRAME PSTACK, 0, STACK
        LOCFRAME XSTACK, 12, STACK
        LOCFRAME IOVERLAY, 0, STATIC
        LOCFRAME DOVERLAY, 0, STATIC
        ARGFRAME ISTACK, 0, STACK
        ARGFRAME PSTACK, 0, STACK
        ARGFRAME XSTACK, 12, STACK
        ARGFRAME IOVERLAY, 0, STATIC
        ARGFRAME DOVERLAY, 0, STATIC
        FUNCALL zclGeneral_RegisterCmdCallbacks, osal_mem_alloc
        LOCFRAME ISTACK, 0, STACK
        LOCFRAME PSTACK, 0, STACK
        LOCFRAME XSTACK, 12, STACK
        LOCFRAME IOVERLAY, 0, STATIC
        LOCFRAME DOVERLAY, 0, STATIC
        ARGFRAME ISTACK, 0, STACK
        ARGFRAME PSTACK, 0, STACK
        ARGFRAME XSTACK, 12, STACK
        ARGFRAME IOVERLAY, 0, STATIC
        ARGFRAME DOVERLAY, 0, STATIC
        REQUIRE ?V0
        REQUIRE ?V2
        REQUIRE ?V3
        MOV       A,#-0xc
        LCALL     ?BANKED_ENTER_XDATA
          CFI DPH0 load(1, XDATA, add(CFA_XSP16, literal(-1)))
          CFI DPL0 load(1, XDATA, add(CFA_XSP16, literal(-2)))
          CFI ?BRET_EXT load(1, XDATA, add(CFA_XSP16, literal(-3)))
          CFI ?RET_HIGH load(1, XDATA, add(CFA_XSP16, literal(-4)))
          CFI ?RET_LOW load(1, XDATA, add(CFA_XSP16, literal(-5)))
          CFI R7 load(1, XDATA, add(CFA_XSP16, literal(-6)))
          CFI V3 load(1, XDATA, add(CFA_XSP16, literal(-7)))
          CFI V2 load(1, XDATA, add(CFA_XSP16, literal(-8)))
          CFI V1 load(1, XDATA, add(CFA_XSP16, literal(-9)))
          CFI V0 load(1, XDATA, add(CFA_XSP16, literal(-10)))
          CFI VB load(1, XDATA, add(CFA_XSP16, literal(-11)))
          CFI R6 load(1, XDATA, add(CFA_XSP16, literal(-12)))
          CFI CFA_SP SP+0
          CFI CFA_XSP16 add(XSP16, 12)
        ; Saved register size: 12
        ; Auto size: 0
        MOV       ?V0,R1
        MOV       A,R2
        MOV       R6,A
        MOV       A,R3
        MOV       R7,A
//  200   zclGenCBRec_t *pNewItem;
//  201   zclGenCBRec_t *pLoop;
//  202 
//  203   // Register as a ZCL Plugin
//  204   if ( zclGenPluginRegisted == FALSE )
        MOV       DPTR,#zclGenPluginRegisted
        MOVX      A,@DPTR
        JNZ       ??zclGeneral_RegisterCmdCallbacks_0
//  205   {
//  206     zcl_registerPlugin( ZCL_CLUSTER_ID_GEN_BASIC,
//  207                         ZCL_CLUSTER_ID_GEN_MULTISTATE_VALUE_BASIC,
//  208                         zclGeneral_HdlIncoming );
        ; Setup parameters for call to function zcl_registerPlugin
        MOV       ?V2,#`??zclGeneral_HdlIncoming::?relay` & 0xff
        MOV       ?V3,#(`??zclGeneral_HdlIncoming::?relay` >> 8) & 0xff
        MOV       R0,#?V2
        LCALL     ?PUSH_XSTACK_I_TWO
          CFI CFA_XSP16 add(XSP16, 14)
        MOV       R4,#0x14
        MOV       R5,#0x0
        MOV       R2,#0x0
        MOV       R3,#0x0
        LCALL     `??zcl_registerPlugin::?relay`; Banked call to: zcl_registerPlugin
        MOV       A,#0x2
        LCALL     ?DEALLOC_XSTACK8
          CFI CFA_XSP16 add(XSP16, 12)
//  209 
//  210 #ifdef ZCL_SCENES
//  211     // Initialize the Scenes Table
//  212     zclGeneral_ScenesInit();
        ; Setup parameters for call to function zclGeneral_ScenesInit
        LCALL     `??zclGeneral_ScenesInit::?relay`; Banked call to: zclGeneral_ScenesInit
//  213 #endif // ZCL_SCENES
//  214 
//  215     zclGenPluginRegisted = TRUE;
        MOV       DPTR,#zclGenPluginRegisted
        MOV       A,#0x1
        MOVX      @DPTR,A
//  216   }
//  217 
//  218   // Fill in the new profile list
//  219   pNewItem = zcl_mem_alloc( sizeof( zclGenCBRec_t ) );
??zclGeneral_RegisterCmdCallbacks_0:
        ; Setup parameters for call to function osal_mem_alloc
        MOV       R2,#0x5
        MOV       R3,#0x0
        LCALL     `??osal_mem_alloc::?relay`; Banked call to: osal_mem_alloc
        MOV       ?V2,R2
        MOV       ?V3,R3
        MOV       R0,?V2
        MOV       R1,?V3
//  220   if ( pNewItem == NULL )
        MOV       A,R2
        ORL       A,R1
        JNZ       ??zclGeneral_RegisterCmdCallbacks_1
//  221     return (ZMemError);
        MOV       R1,#0x10
        SJMP      ??zclGeneral_RegisterCmdCallbacks_2
//  222 
//  223   pNewItem->next = (zclGenCBRec_t *)NULL;
??zclGeneral_RegisterCmdCallbacks_1:
        LCALL     ?Subroutine60 & 0xFFFF
//  224   pNewItem->endpoint = endpoint;
??CrossCallReturnLabel_109:
        MOV       A,?V0
        LCALL     ?Subroutine64 & 0xFFFF
//  225   pNewItem->CBs = callbacks;
??CrossCallReturnLabel_114:
        MOV       A,R6
        MOVX      @DPTR,A
        INC       DPTR
        MOV       A,R7
        MOVX      @DPTR,A
//  226 
//  227   // Find spot in list
//  228   if (  zclGenCBs == NULL )
        MOV       DPTR,#zclGenCBs
        LCALL     ??Subroutine113_0 & 0xFFFF
??CrossCallReturnLabel_280:
        MOV       DPTR,#zclGenCBs
        JZ        ??zclGeneral_RegisterCmdCallbacks_3
//  229   {
//  230     zclGenCBs = pNewItem;
//  231   }
//  232   else
//  233   {
//  234     // Look for end of list
//  235     pLoop = zclGenCBs;
        LCALL     ?Subroutine83 & 0xFFFF
??CrossCallReturnLabel_140:
        SJMP      ??zclGeneral_RegisterCmdCallbacks_4
//  236     while ( pLoop->next != NULL )
//  237       pLoop = pLoop->next;
??zclGeneral_RegisterCmdCallbacks_5:
        MOV       A,R2
        MOV       R4,A
        MOV       A,R3
??zclGeneral_RegisterCmdCallbacks_4:
        MOV       R5,A
        MOV       DPL,R4
        MOV       DPH,R5
        LCALL     ??Subroutine113_0 & 0xFFFF
??CrossCallReturnLabel_281:
        JNZ       ??zclGeneral_RegisterCmdCallbacks_5
//  238 
//  239     // Put new item at end of list
//  240     pLoop->next = pNewItem;
        MOV       DPL,R4
        MOV       DPH,R5
//  241   }
??zclGeneral_RegisterCmdCallbacks_3:
        LCALL     ?Subroutine65 & 0xFFFF
//  242 
//  243   return ( ZSuccess );
??CrossCallReturnLabel_296:
        MOV       R1,#0x0
??zclGeneral_RegisterCmdCallbacks_2:
        LJMP      ??Subroutine102_0 & 0xFFFF
//  244 }
          CFI EndBlock cfiBlock0
//  245 
//  246 #ifdef ZCL_IDENTIFY
//  247 /*********************************************************************
//  248  * @fn      zclGeneral_SendIdentify
//  249  *
//  250  * @brief   Call to send out an Identify Command
//  251  *
//  252  * @param   srcEP - Sending application's endpoint
//  253  * @param   dstAddr - where you want the message to go
//  254  * @param   identifyTime - how long the device will continue to identify itself (in seconds)
//  255  * @param   seqNum - identification number for the transaction
//  256  *
//  257  * @return  ZStatus_t
//  258  */

        RSEG BANKED_CODE:HUGECODE:NOROOT(0)
//  259 ZStatus_t zclGeneral_SendIdentify( uint8 srcEP, afAddrType_t *dstAddr,
zclGeneral_SendIdentify:
          CFI Block cfiBlock1 Using cfiCommon0
          CFI Function zclGeneral_SendIdentify
        CODE
//  260                                    uint16 identifyTime, uint8 disableDefaultRsp, uint8 seqNum )
//  261 {
        FUNCALL zclGeneral_SendIdentify, zcl_SendCommand
        LOCFRAME ISTACK, 0, STACK
        LOCFRAME PSTACK, 0, STACK
        LOCFRAME XSTACK, 23, STACK
        LOCFRAME IOVERLAY, 0, STATIC
        LOCFRAME DOVERLAY, 0, STATIC
        ARGFRAME ISTACK, 0, STACK
        ARGFRAME PSTACK, 0, STACK
        ARGFRAME XSTACK, 23, STACK
        ARGFRAME IOVERLAY, 0, STATIC
        ARGFRAME DOVERLAY, 0, STATIC
        REQUIRE ?V0
        REQUIRE ?V1
        MOV       A,#-0xa
        LCALL     ?BANKED_ENTER_XDATA
          CFI DPH0 load(1, XDATA, add(CFA_XSP16, literal(-1)))
          CFI DPL0 load(1, XDATA, add(CFA_XSP16, literal(-2)))
          CFI ?BRET_EXT load(1, XDATA, add(CFA_XSP16, literal(-3)))
          CFI ?RET_HIGH load(1, XDATA, add(CFA_XSP16, literal(-4)))
          CFI ?RET_LOW load(1, XDATA, add(CFA_XSP16, literal(-5)))
          CFI R7 load(1, XDATA, add(CFA_XSP16, literal(-6)))
          CFI V1 load(1, XDATA, add(CFA_XSP16, literal(-7)))
          CFI V0 load(1, XDATA, add(CFA_XSP16, literal(-8)))
          CFI VB load(1, XDATA, add(CFA_XSP16, literal(-9)))
          CFI R6 load(1, XDATA, add(CFA_XSP16, literal(-10)))
          CFI CFA_SP SP+0
          CFI CFA_XSP16 add(XSP16, 10)
        ; Saved register size: 10
        ; Auto size: 2
        MOV       A,#-0x2
        LCALL     ?ALLOC_XSTACK8
          CFI CFA_XSP16 add(XSP16, 12)
        MOV       A,R1
        MOV       R6,A
//  262   uint8 buf[2];
//  263 
//  264   buf[0] = LO_UINT16( identifyTime );
        MOV       A,R4
        MOV       DPL,?XSP + 0
        MOV       DPH,?XSP + 1
        MOVX      @DPTR,A
//  265   buf[1] = HI_UINT16( identifyTime );
        MOV       A,#0x1
        LCALL     ?XSTACK_DISP0_8
        LCALL     ?Subroutine56 & 0xFFFF
//  266 
//  267   return zcl_SendCommand( srcEP, dstAddr, ZCL_CLUSTER_ID_GEN_IDENTIFY,
//  268                           COMMAND_IDENTIFY, TRUE, ZCL_FRAME_CLIENT_SERVER_DIR,
//  269                           disableDefaultRsp, 0, seqNum, 2, buf );
??CrossCallReturnLabel_160:
        LCALL     ?PUSH_XSTACK_I_TWO
          CFI CFA_XSP16 add(XSP16, 14)
        MOV       ?V0,#0x2
        MOV       ?V1,#0x0
        MOV       R0,#?V0
        LCALL     ?PUSH_XSTACK_I_TWO
          CFI CFA_XSP16 add(XSP16, 16)
        MOV       A,#0x11
        LCALL     ?XSTACK_DISP0_8
        LCALL     ?Subroutine36 & 0xFFFF
??CrossCallReturnLabel_50:
        LCALL     ?PUSH_XSTACK_I_ONE
          CFI CFA_XSP16 add(XSP16, 17)
        CLR       A
        MOV       ?V0,A
        MOV       R0,#?V0
        LCALL     ?PUSH_XSTACK_I_TWO
          CFI CFA_XSP16 add(XSP16, 19)
        MOV       A,#0x13
        LCALL     ?XSTACK_DISP0_8
        LCALL     ?Subroutine36 & 0xFFFF
??CrossCallReturnLabel_51:
        LCALL     ?PUSH_XSTACK_I_ONE
          CFI CFA_XSP16 add(XSP16, 20)
        MOV       ?V0,#0x0
        MOV       R0,#?V0
        LCALL     ?PUSH_XSTACK_I_ONE
          CFI CFA_XSP16 add(XSP16, 21)
        MOV       ?V0,#0x1
        LJMP      ?Subroutine1 & 0xFFFF
//  270 }
          CFI EndBlock cfiBlock1

        RSEG BANKED_CODE:HUGECODE:NOROOT(0)
?Subroutine56:
          CFI Block cfiCond2 Using cfiCommon0
          CFI Function zclGeneral_SendIdentify
          CFI Conditional ??CrossCallReturnLabel_160
          CFI R6 load(1, XDATA, add(CFA_XSP16, literal(-10)))
          CFI VB load(1, XDATA, add(CFA_XSP16, literal(-9)))
          CFI V0 load(1, XDATA, add(CFA_XSP16, literal(-8)))
          CFI V1 load(1, XDATA, add(CFA_XSP16, literal(-7)))
          CFI R7 load(1, XDATA, add(CFA_XSP16, literal(-6)))
          CFI ?RET_LOW load(1, XDATA, add(CFA_XSP16, literal(-5)))
          CFI ?RET_HIGH load(1, XDATA, add(CFA_XSP16, literal(-4)))
          CFI ?BRET_EXT load(1, XDATA, add(CFA_XSP16, literal(-3)))
          CFI DPL0 load(1, XDATA, add(CFA_XSP16, literal(-2)))
          CFI DPH0 load(1, XDATA, add(CFA_XSP16, literal(-1)))
          CFI CFA_SP SP+-2
          CFI CFA_XSP16 add(XSP16, 12)
          CFI Block cfiCond3 Using cfiCommon0
          CFI (cfiCond3) Function zclGeneral_SendIdentifyQueryResponse
          CFI (cfiCond3) Conditional ??CrossCallReturnLabel_161
          CFI (cfiCond3) R6 load(1, XDATA, add(CFA_XSP16, literal(-10)))
          CFI (cfiCond3) VB load(1, XDATA, add(CFA_XSP16, literal(-9)))
          CFI (cfiCond3) V0 load(1, XDATA, add(CFA_XSP16, literal(-8)))
          CFI (cfiCond3) V1 load(1, XDATA, add(CFA_XSP16, literal(-7)))
          CFI (cfiCond3) R7 load(1, XDATA, add(CFA_XSP16, literal(-6)))
          CFI (cfiCond3) ?RET_LOW load(1, XDATA, add(CFA_XSP16, literal(-5)))
          CFI (cfiCond3) ?RET_HIGH load(1, XDATA, add(CFA_XSP16, literal(-4)))
          CFI (cfiCond3) ?BRET_EXT load(1, XDATA, add(CFA_XSP16, literal(-3)))
          CFI (cfiCond3) DPL0 load(1, XDATA, add(CFA_XSP16, literal(-2)))
          CFI (cfiCond3) DPH0 load(1, XDATA, add(CFA_XSP16, literal(-1)))
          CFI (cfiCond3) CFA_SP SP+-2
          CFI (cfiCond3) CFA_XSP16 add(XSP16, 12)
          CFI Block cfiPicker4 Using cfiCommon1
          CFI (cfiPicker4) NoFunction
          CFI (cfiPicker4) Picker
        MOV       A,R5
          CFI EndBlock cfiCond2
          CFI EndBlock cfiCond3
          CFI EndBlock cfiPicker4
        REQUIRE ??Subroutine94_0
        ; // Fall through to label ??Subroutine94_0

        RSEG BANKED_CODE:HUGECODE:NOROOT(0)
??Subroutine94_0:
          CFI Block cfiCond5 Using cfiCommon0
          CFI Function zclGeneral_ScenesInit
          CFI Conditional ??CrossCallReturnLabel_162
          CFI R6 load(1, XDATA, add(CFA_XSP16, literal(-10)))
          CFI VB load(1, XDATA, add(CFA_XSP16, literal(-9)))
          CFI V0 load(1, XDATA, add(CFA_XSP16, literal(-8)))
          CFI V1 load(1, XDATA, add(CFA_XSP16, literal(-7)))
          CFI R7 load(1, XDATA, add(CFA_XSP16, literal(-6)))
          CFI ?RET_LOW load(1, XDATA, add(CFA_XSP16, literal(-5)))
          CFI ?RET_HIGH load(1, XDATA, add(CFA_XSP16, literal(-4)))
          CFI ?BRET_EXT load(1, XDATA, add(CFA_XSP16, literal(-3)))
          CFI DPL0 load(1, XDATA, add(CFA_XSP16, literal(-2)))
          CFI DPH0 load(1, XDATA, add(CFA_XSP16, literal(-1)))
          CFI CFA_SP SP+-2
          CFI CFA_XSP16 add(XSP16, 68)
          CFI Block cfiCond6 Using cfiCommon0
          CFI (cfiCond6) Function zclGeneral_SendIdentify
          CFI (cfiCond6) Conditional ??CrossCallReturnLabel_160
          CFI (cfiCond6) R6 load(1, XDATA, add(CFA_XSP16, literal(-10)))
          CFI (cfiCond6) VB load(1, XDATA, add(CFA_XSP16, literal(-9)))
          CFI (cfiCond6) V0 load(1, XDATA, add(CFA_XSP16, literal(-8)))
          CFI (cfiCond6) V1 load(1, XDATA, add(CFA_XSP16, literal(-7)))
          CFI (cfiCond6) R7 load(1, XDATA, add(CFA_XSP16, literal(-6)))
          CFI (cfiCond6) ?RET_LOW load(1, XDATA, add(CFA_XSP16, literal(-5)))
          CFI (cfiCond6) ?RET_HIGH load(1, XDATA, add(CFA_XSP16, literal(-4)))
          CFI (cfiCond6) ?BRET_EXT load(1, XDATA, add(CFA_XSP16, literal(-3)))
          CFI (cfiCond6) DPL0 load(1, XDATA, add(CFA_XSP16, literal(-2)))
          CFI (cfiCond6) DPH0 load(1, XDATA, add(CFA_XSP16, literal(-1)))
          CFI (cfiCond6) CFA_SP SP+-2
          CFI (cfiCond6) CFA_XSP16 add(XSP16, 12)
          CFI Block cfiCond7 Using cfiCommon0
          CFI (cfiCond7) Function zclGeneral_SendIdentifyQueryResponse
          CFI (cfiCond7) Conditional ??CrossCallReturnLabel_161
          CFI (cfiCond7) R6 load(1, XDATA, add(CFA_XSP16, literal(-10)))
          CFI (cfiCond7) VB load(1, XDATA, add(CFA_XSP16, literal(-9)))
          CFI (cfiCond7) V0 load(1, XDATA, add(CFA_XSP16, literal(-8)))
          CFI (cfiCond7) V1 load(1, XDATA, add(CFA_XSP16, literal(-7)))
          CFI (cfiCond7) R7 load(1, XDATA, add(CFA_XSP16, literal(-6)))
          CFI (cfiCond7) ?RET_LOW load(1, XDATA, add(CFA_XSP16, literal(-5)))
          CFI (cfiCond7) ?RET_HIGH load(1, XDATA, add(CFA_XSP16, literal(-4)))
          CFI (cfiCond7) ?BRET_EXT load(1, XDATA, add(CFA_XSP16, literal(-3)))
          CFI (cfiCond7) DPL0 load(1, XDATA, add(CFA_XSP16, literal(-2)))
          CFI (cfiCond7) DPH0 load(1, XDATA, add(CFA_XSP16, literal(-1)))
          CFI (cfiCond7) CFA_SP SP+-2
          CFI (cfiCond7) CFA_XSP16 add(XSP16, 12)
          CFI Block cfiPicker8 Using cfiCommon1
          CFI (cfiPicker8) NoFunction
          CFI (cfiPicker8) Picker
        MOVX      @DPTR,A
        ; Setup parameters for call to function zcl_SendCommand
        ; Setup parameters for call to function zcl_SendCommand
        ; Setup parameters for call to function osal_nv_write
        MOV       R0,?XSP + 0
        MOV       R1,?XSP + 1
        MOV       ?V0,R0
        MOV       ?V1,R1
        MOV       R0,#?V0
        RET
          CFI EndBlock cfiCond5
          CFI EndBlock cfiCond6
          CFI EndBlock cfiCond7
          CFI EndBlock cfiPicker8
//  271 
//  272 /*********************************************************************
//  273  * @fn      zclGeneral_SendIdentifyEZModeInvoke
//  274  *
//  275  * @brief   Call to send out an Identify EZ-Mode Invoke Command
//  276  *
//  277  * @param   srcEP - Sending application's endpoint
//  278  * @param   dstAddr - where you want the message to go
//  279  * @param   action - describes the EZ-Mode action to be performed
//  280  * @param   seqNum - identification number for the transaction
//  281  *
//  282  * @return  ZStatus_t
//  283  */

        RSEG BANKED_CODE:HUGECODE:NOROOT(0)
//  284 ZStatus_t zclGeneral_SendIdentifyEZModeInvoke( uint8 srcEP, afAddrType_t *dstAddr,
zclGeneral_SendIdentifyEZModeInvoke:
          CFI Block cfiBlock9 Using cfiCommon0
          CFI Function zclGeneral_SendIdentifyEZModeInvoke
        CODE
//  285                                                uint8 action, uint8 disableDefaultRsp, uint8 seqNum )
//  286 {
        FUNCALL zclGeneral_SendIdentifyEZModeInvoke, zcl_SendCommand
        LOCFRAME ISTACK, 0, STACK
        LOCFRAME PSTACK, 0, STACK
        LOCFRAME XSTACK, 24, STACK
        LOCFRAME IOVERLAY, 0, STATIC
        LOCFRAME DOVERLAY, 0, STATIC
        ARGFRAME ISTACK, 0, STACK
        ARGFRAME PSTACK, 0, STACK
        ARGFRAME XSTACK, 24, STACK
        ARGFRAME IOVERLAY, 0, STATIC
        ARGFRAME DOVERLAY, 0, STATIC
        REQUIRE ?V0
        REQUIRE ?V1
        REQUIRE ?V2
        REQUIRE ?V3
        MOV       A,#-0xc
        LCALL     ?BANKED_ENTER_XDATA
          CFI DPH0 load(1, XDATA, add(CFA_XSP16, literal(-1)))
          CFI DPL0 load(1, XDATA, add(CFA_XSP16, literal(-2)))
          CFI ?BRET_EXT load(1, XDATA, add(CFA_XSP16, literal(-3)))
          CFI ?RET_HIGH load(1, XDATA, add(CFA_XSP16, literal(-4)))
          CFI ?RET_LOW load(1, XDATA, add(CFA_XSP16, literal(-5)))
          CFI R7 load(1, XDATA, add(CFA_XSP16, literal(-6)))
          CFI V3 load(1, XDATA, add(CFA_XSP16, literal(-7)))
          CFI V2 load(1, XDATA, add(CFA_XSP16, literal(-8)))
          CFI V1 load(1, XDATA, add(CFA_XSP16, literal(-9)))
          CFI V0 load(1, XDATA, add(CFA_XSP16, literal(-10)))
          CFI VB load(1, XDATA, add(CFA_XSP16, literal(-11)))
          CFI R6 load(1, XDATA, add(CFA_XSP16, literal(-12)))
          CFI CFA_SP SP+0
          CFI CFA_XSP16 add(XSP16, 12)
        ; Saved register size: 12
        ; Auto size: 1
        MOV       A,#-0x1
        LCALL     ?ALLOC_XSTACK8
          CFI CFA_XSP16 add(XSP16, 13)
        MOV       A,R1
        MOV       R6,A
        MOV       A,R4
//  287   uint8 buf[1];
//  288 
//  289   buf[0] = action;
        MOV       DPL,?XSP + 0
        MOV       DPH,?XSP + 1
        LCALL     ??Subroutine95_0 & 0xFFFF
//  290 
//  291   return zcl_SendCommand( srcEP, dstAddr, ZCL_CLUSTER_ID_GEN_IDENTIFY,
//  292                           COMMAND_IDENTIFY_EZMODE_INVOKE, TRUE, ZCL_FRAME_CLIENT_SERVER_DIR,
//  293                           disableDefaultRsp, 0, seqNum, 1, buf );
??CrossCallReturnLabel_167:
        LCALL     ?PUSH_XSTACK_I_TWO
          CFI CFA_XSP16 add(XSP16, 15)
        MOV       ?V2,#0x1
        MOV       ?V3,#0x0
        MOV       R0,#?V2
        LCALL     ?PUSH_XSTACK_I_TWO
          CFI CFA_XSP16 add(XSP16, 17)
        MOV       A,#0x11
        LCALL     ?XSTACK_DISP0_8
        LCALL     ??Subroutine99_0 & 0xFFFF
??CrossCallReturnLabel_187:
        LCALL     ?PUSH_XSTACK_I_ONE
          CFI CFA_XSP16 add(XSP16, 18)
        CLR       A
        MOV       ?V2,A
        MOV       R0,#?V2
        LCALL     ?PUSH_XSTACK_I_TWO
          CFI CFA_XSP16 add(XSP16, 20)
        MOV       A,R5
        MOV       ?V1,A
        MOV       R0,#?V1
        LCALL     ?PUSH_XSTACK_I_ONE
          CFI CFA_XSP16 add(XSP16, 21)
        MOV       ?V1,#0x0
        MOV       R0,#?V1
        LCALL     ?PUSH_XSTACK_I_ONE
          CFI CFA_XSP16 add(XSP16, 22)
        MOV       ?V1,#0x1
        MOV       R0,#?V1
        LCALL     ?PUSH_XSTACK_I_ONE
          CFI CFA_XSP16 add(XSP16, 23)
        MOV       ?V1,#0x2
        MOV       R0,#?V1
        LCALL     ?PUSH_XSTACK_I_ONE
          CFI CFA_XSP16 add(XSP16, 24)
        LCALL     ?Subroutine67 & 0xFFFF
??CrossCallReturnLabel_227:
        LCALL     ?DEALLOC_XSTACK8
          CFI CFA_XSP16 add(XSP16, 13)
        MOV       A,#0x1
        LJMP      ??Subroutine101_0 & 0xFFFF
//  294 }
          CFI EndBlock cfiBlock9
//  295 
//  296 /*********************************************************************
//  297  * @fn      zclGeneral_SendIdentifyUpdateCommState
//  298  *
//  299  * @brief   Call to send out an Identify Update Commission State Command
//  300  *
//  301  * @param   srcEP - Sending application's endpoint
//  302  * @param   dstAddr - where you want the message to go
//  303  * @param   action - describes the EZ-Mode action to be performed
//  304  * @param   commissionStateMask - updates the device's commission state
//  305  * @param   seqNum - identification number for the transaction
//  306  *
//  307  * @return  ZStatus_t
//  308  */

        RSEG BANKED_CODE:HUGECODE:NOROOT(0)
//  309 ZStatus_t zclGeneral_SendIdentifyUpdateCommState( uint8 srcEP, afAddrType_t *dstAddr,
zclGeneral_SendIdentifyUpdateCommState:
          CFI Block cfiBlock10 Using cfiCommon0
          CFI Function zclGeneral_SendIdentifyUpdateCommState
        CODE
//  310                                                   uint8 action, uint8 commissionStateMask,
//  311                                                   uint8 disableDefaultRsp, uint8 seqNum )
//  312 {
        FUNCALL zclGeneral_SendIdentifyUpdateCommState, zcl_SendCommand
        LOCFRAME ISTACK, 0, STACK
        LOCFRAME PSTACK, 0, STACK
        LOCFRAME XSTACK, 25, STACK
        LOCFRAME IOVERLAY, 0, STATIC
        LOCFRAME DOVERLAY, 0, STATIC
        ARGFRAME ISTACK, 0, STACK
        ARGFRAME PSTACK, 0, STACK
        ARGFRAME XSTACK, 25, STACK
        ARGFRAME IOVERLAY, 0, STATIC
        ARGFRAME DOVERLAY, 0, STATIC
        REQUIRE ?V0
        REQUIRE ?V1
        REQUIRE ?V2
        REQUIRE ?V3
        MOV       A,#-0xc
        LCALL     ?BANKED_ENTER_XDATA
          CFI DPH0 load(1, XDATA, add(CFA_XSP16, literal(-1)))
          CFI DPL0 load(1, XDATA, add(CFA_XSP16, literal(-2)))
          CFI ?BRET_EXT load(1, XDATA, add(CFA_XSP16, literal(-3)))
          CFI ?RET_HIGH load(1, XDATA, add(CFA_XSP16, literal(-4)))
          CFI ?RET_LOW load(1, XDATA, add(CFA_XSP16, literal(-5)))
          CFI R7 load(1, XDATA, add(CFA_XSP16, literal(-6)))
          CFI V3 load(1, XDATA, add(CFA_XSP16, literal(-7)))
          CFI V2 load(1, XDATA, add(CFA_XSP16, literal(-8)))
          CFI V1 load(1, XDATA, add(CFA_XSP16, literal(-9)))
          CFI V0 load(1, XDATA, add(CFA_XSP16, literal(-10)))
          CFI VB load(1, XDATA, add(CFA_XSP16, literal(-11)))
          CFI R6 load(1, XDATA, add(CFA_XSP16, literal(-12)))
          CFI CFA_SP SP+0
          CFI CFA_XSP16 add(XSP16, 12)
        ; Saved register size: 12
        ; Auto size: 2
        MOV       A,#-0x2
        LCALL     ?ALLOC_XSTACK8
          CFI CFA_XSP16 add(XSP16, 14)
        MOV       A,R1
        MOV       R6,A
        MOV       A,R4
//  313   uint8 buf[2];
//  314 
//  315   buf[0] = action;
        MOV       DPL,?XSP + 0
        MOV       DPH,?XSP + 1
        MOVX      @DPTR,A
//  316   buf[1] = commissionStateMask;
        MOV       A,#0x1
        LCALL     ?XSTACK_DISP0_8
        MOV       A,R5
        LCALL     ??Subroutine95_0 & 0xFFFF
//  317 
//  318   return zcl_SendCommand( srcEP, dstAddr, ZCL_CLUSTER_ID_GEN_IDENTIFY,
//  319                           COMMAND_IDENTIFY_UPDATE_COMMISSION_STATE, TRUE, ZCL_FRAME_CLIENT_SERVER_DIR,
//  320                           disableDefaultRsp, 0, seqNum, 2, buf );
??CrossCallReturnLabel_168:
        LCALL     ?PUSH_XSTACK_I_TWO
          CFI CFA_XSP16 add(XSP16, 16)
        MOV       ?V2,#0x2
        MOV       ?V3,#0x0
        MOV       R0,#?V2
        LCALL     ?PUSH_XSTACK_I_TWO
          CFI CFA_XSP16 add(XSP16, 18)
        MOV       A,#0x13
        LCALL     ?XSTACK_DISP0_8
        LCALL     ??Subroutine99_0 & 0xFFFF
??CrossCallReturnLabel_188:
        LCALL     ?PUSH_XSTACK_I_ONE
          CFI CFA_XSP16 add(XSP16, 19)
        CLR       A
        MOV       ?V2,A
        MOV       R0,#?V2
        LCALL     ?PUSH_XSTACK_I_TWO
          CFI CFA_XSP16 add(XSP16, 21)
        MOV       A,#0x15
        LCALL     ?XSTACK_DISP0_8
        LCALL     ??Subroutine99_0 & 0xFFFF
??CrossCallReturnLabel_189:
        LCALL     ?PUSH_XSTACK_I_ONE
          CFI CFA_XSP16 add(XSP16, 22)
        MOV       ?V1,#0x0
        MOV       R0,#?V1
        LCALL     ?PUSH_XSTACK_I_ONE
          CFI CFA_XSP16 add(XSP16, 23)
        MOV       ?V1,#0x1
        MOV       R0,#?V1
        LCALL     ?PUSH_XSTACK_I_ONE
          CFI CFA_XSP16 add(XSP16, 24)
        MOV       ?V1,#0x3
        MOV       R0,#?V1
        LCALL     ?PUSH_XSTACK_I_ONE
          CFI CFA_XSP16 add(XSP16, 25)
        MOV       R4,#0x3
        LJMP      ?Subroutine0 & 0xFFFF
//  321 }
          CFI EndBlock cfiBlock10
//  322 
//  323 #ifdef ZCL_LIGHT_LINK_ENHANCE
//  324 /*********************************************************************
//  325  * @fn      zclGeneral_SendIdentifyTriggerEffect
//  326  *
//  327  * @brief   Call to send out a Trigger Effect Command
//  328  *
//  329  * @param   srcEP - Sending application's endpoint
//  330  * @param   dstAddr - where you want the message to go
//  331  * @param   effectId - identify effect to use
//  332  * @param   effectVariant - which variant of effect to be triggered
//  333  * @param   disableDefaultRsp - whether to disable the Default Response command
//  334  * @param   seqNum - identification number for the transaction
//  335  *
//  336  * @return  ZStatus_t
//  337  */
//  338 ZStatus_t zclGeneral_SendIdentifyTriggerEffect( uint8 srcEP, afAddrType_t *dstAddr,
//  339                                                 uint8 effectId, uint8 effectVariant,
//  340                                                 uint8 disableDefaultRsp, uint8 seqNum )
//  341 {
//  342   uint8 buf[2];
//  343 
//  344   buf[0] = effectId;
//  345   buf[1] = effectVariant;
//  346 
//  347   return zcl_SendCommand( srcEP, dstAddr, ZCL_CLUSTER_ID_GEN_IDENTIFY,
//  348                           COMMAND_IDENTIFY_TRIGGER_EFFECT, TRUE, ZCL_FRAME_CLIENT_SERVER_DIR,
//  349                           disableDefaultRsp, 0, seqNum, 2, buf );
//  350 }
//  351 #endif // ZCL_LIGHT_LINK_ENHANCE
//  352 
//  353 /*********************************************************************
//  354  * @fn      zclGeneral_SendIdentifyQueryResponse
//  355  *
//  356  * @brief   Call to send out an Identify Query Response Command
//  357  *
//  358  * @param   srcEP - Sending application's endpoint
//  359  * @param   dstAddr - where you want the message to go
//  360  * @param   timeout - how long the device will continue to identify itself (in seconds)
//  361  * @param   seqNum - identification number for the transaction
//  362  *
//  363  * @return  ZStatus_t
//  364  */

        RSEG BANKED_CODE:HUGECODE:NOROOT(0)
//  365 ZStatus_t zclGeneral_SendIdentifyQueryResponse( uint8 srcEP, afAddrType_t *dstAddr,
zclGeneral_SendIdentifyQueryResponse:
          CFI Block cfiBlock11 Using cfiCommon0
          CFI Function zclGeneral_SendIdentifyQueryResponse
        CODE
//  366                                                 uint16 timeout, uint8 disableDefaultRsp, uint8 seqNum )
//  367 {
        FUNCALL zclGeneral_SendIdentifyQueryResponse, zcl_SendCommand
        LOCFRAME ISTACK, 0, STACK
        LOCFRAME PSTACK, 0, STACK
        LOCFRAME XSTACK, 23, STACK
        LOCFRAME IOVERLAY, 0, STATIC
        LOCFRAME DOVERLAY, 0, STATIC
        ARGFRAME ISTACK, 0, STACK
        ARGFRAME PSTACK, 0, STACK
        ARGFRAME XSTACK, 23, STACK
        ARGFRAME IOVERLAY, 0, STATIC
        ARGFRAME DOVERLAY, 0, STATIC
        REQUIRE ?V0
        REQUIRE ?V1
        MOV       A,#-0xa
        LCALL     ?BANKED_ENTER_XDATA
          CFI DPH0 load(1, XDATA, add(CFA_XSP16, literal(-1)))
          CFI DPL0 load(1, XDATA, add(CFA_XSP16, literal(-2)))
          CFI ?BRET_EXT load(1, XDATA, add(CFA_XSP16, literal(-3)))
          CFI ?RET_HIGH load(1, XDATA, add(CFA_XSP16, literal(-4)))
          CFI ?RET_LOW load(1, XDATA, add(CFA_XSP16, literal(-5)))
          CFI R7 load(1, XDATA, add(CFA_XSP16, literal(-6)))
          CFI V1 load(1, XDATA, add(CFA_XSP16, literal(-7)))
          CFI V0 load(1, XDATA, add(CFA_XSP16, literal(-8)))
          CFI VB load(1, XDATA, add(CFA_XSP16, literal(-9)))
          CFI R6 load(1, XDATA, add(CFA_XSP16, literal(-10)))
          CFI CFA_SP SP+0
          CFI CFA_XSP16 add(XSP16, 10)
        ; Saved register size: 10
        ; Auto size: 2
        MOV       A,#-0x2
        LCALL     ?ALLOC_XSTACK8
          CFI CFA_XSP16 add(XSP16, 12)
        MOV       A,R1
        MOV       R6,A
//  368   uint8 buf[2];
//  369 
//  370   buf[0] = LO_UINT16( timeout );
        MOV       A,R4
        MOV       DPL,?XSP + 0
        MOV       DPH,?XSP + 1
        MOVX      @DPTR,A
//  371   buf[1] = HI_UINT16( timeout );
        MOV       A,#0x1
        LCALL     ?XSTACK_DISP0_8
        LCALL     ?Subroutine56 & 0xFFFF
//  372 
//  373   return zcl_SendCommand( srcEP, dstAddr, ZCL_CLUSTER_ID_GEN_IDENTIFY,
//  374                           COMMAND_IDENTIFY_QUERY_RSP, TRUE,
//  375                           ZCL_FRAME_SERVER_CLIENT_DIR, disableDefaultRsp, 0, seqNum, 2, buf );
??CrossCallReturnLabel_161:
        LCALL     ?PUSH_XSTACK_I_TWO
          CFI CFA_XSP16 add(XSP16, 14)
        MOV       ?V0,#0x2
        MOV       ?V1,#0x0
        MOV       R0,#?V0
        LCALL     ?PUSH_XSTACK_I_TWO
          CFI CFA_XSP16 add(XSP16, 16)
        MOV       A,#0x11
        LCALL     ?XSTACK_DISP0_8
        LCALL     ?Subroutine36 & 0xFFFF
??CrossCallReturnLabel_52:
        LCALL     ?PUSH_XSTACK_I_ONE
          CFI CFA_XSP16 add(XSP16, 17)
        CLR       A
        MOV       ?V0,A
        MOV       R0,#?V0
        LCALL     ?PUSH_XSTACK_I_TWO
          CFI CFA_XSP16 add(XSP16, 19)
        MOV       A,#0x13
        LCALL     ?XSTACK_DISP0_8
        LCALL     ?Subroutine36 & 0xFFFF
??CrossCallReturnLabel_53:
        LCALL     ?PUSH_XSTACK_I_ONE
          CFI CFA_XSP16 add(XSP16, 20)
        MOV       ?V0,#0x1
        MOV       R0,#?V0
        LCALL     ?PUSH_XSTACK_I_ONE
          CFI CFA_XSP16 add(XSP16, 21)
        LJMP      ?Subroutine1 & 0xFFFF
//  376 }
          CFI EndBlock cfiBlock11

        RSEG BANKED_CODE:HUGECODE:NOROOT(0)
?Subroutine36:
          CFI Block cfiCond12 Using cfiCommon0
          CFI Function zclGeneral_SendIdentify
          CFI Conditional ??CrossCallReturnLabel_50
          CFI R6 load(1, XDATA, add(CFA_XSP16, literal(-10)))
          CFI VB load(1, XDATA, add(CFA_XSP16, literal(-9)))
          CFI V0 load(1, XDATA, add(CFA_XSP16, literal(-8)))
          CFI V1 load(1, XDATA, add(CFA_XSP16, literal(-7)))
          CFI R7 load(1, XDATA, add(CFA_XSP16, literal(-6)))
          CFI ?RET_LOW load(1, XDATA, add(CFA_XSP16, literal(-5)))
          CFI ?RET_HIGH load(1, XDATA, add(CFA_XSP16, literal(-4)))
          CFI ?BRET_EXT load(1, XDATA, add(CFA_XSP16, literal(-3)))
          CFI DPL0 load(1, XDATA, add(CFA_XSP16, literal(-2)))
          CFI DPH0 load(1, XDATA, add(CFA_XSP16, literal(-1)))
          CFI CFA_SP SP+-2
          CFI CFA_XSP16 add(XSP16, 16)
          CFI Block cfiCond13 Using cfiCommon0
          CFI (cfiCond13) Function zclGeneral_SendIdentify
          CFI (cfiCond13) Conditional ??CrossCallReturnLabel_51
          CFI (cfiCond13) R6 load(1, XDATA, add(CFA_XSP16, literal(-10)))
          CFI (cfiCond13) VB load(1, XDATA, add(CFA_XSP16, literal(-9)))
          CFI (cfiCond13) V0 load(1, XDATA, add(CFA_XSP16, literal(-8)))
          CFI (cfiCond13) V1 load(1, XDATA, add(CFA_XSP16, literal(-7)))
          CFI (cfiCond13) R7 load(1, XDATA, add(CFA_XSP16, literal(-6)))
          CFI (cfiCond13) ?RET_LOW load(1, XDATA, add(CFA_XSP16, literal(-5)))
          CFI (cfiCond13) ?RET_HIGH load(1, XDATA, add(CFA_XSP16, literal(-4)))
          CFI (cfiCond13) ?BRET_EXT load(1, XDATA, add(CFA_XSP16, literal(-3)))
          CFI (cfiCond13) DPL0 load(1, XDATA, add(CFA_XSP16, literal(-2)))
          CFI (cfiCond13) DPH0 load(1, XDATA, add(CFA_XSP16, literal(-1)))
          CFI (cfiCond13) CFA_SP SP+-2
          CFI (cfiCond13) CFA_XSP16 add(XSP16, 19)
          CFI Block cfiCond14 Using cfiCommon0
          CFI (cfiCond14) Function zclGeneral_SendIdentifyQueryResponse
          CFI (cfiCond14) Conditional ??CrossCallReturnLabel_52
          CFI (cfiCond14) R6 load(1, XDATA, add(CFA_XSP16, literal(-10)))
          CFI (cfiCond14) VB load(1, XDATA, add(CFA_XSP16, literal(-9)))
          CFI (cfiCond14) V0 load(1, XDATA, add(CFA_XSP16, literal(-8)))
          CFI (cfiCond14) V1 load(1, XDATA, add(CFA_XSP16, literal(-7)))
          CFI (cfiCond14) R7 load(1, XDATA, add(CFA_XSP16, literal(-6)))
          CFI (cfiCond14) ?RET_LOW load(1, XDATA, add(CFA_XSP16, literal(-5)))
          CFI (cfiCond14) ?RET_HIGH load(1, XDATA, add(CFA_XSP16, literal(-4)))
          CFI (cfiCond14) ?BRET_EXT load(1, XDATA, add(CFA_XSP16, literal(-3)))
          CFI (cfiCond14) DPL0 load(1, XDATA, add(CFA_XSP16, literal(-2)))
          CFI (cfiCond14) DPH0 load(1, XDATA, add(CFA_XSP16, literal(-1)))
          CFI (cfiCond14) CFA_SP SP+-2
          CFI (cfiCond14) CFA_XSP16 add(XSP16, 16)
          CFI Block cfiCond15 Using cfiCommon0
          CFI (cfiCond15) Function zclGeneral_SendIdentifyQueryResponse
          CFI (cfiCond15) Conditional ??CrossCallReturnLabel_53
          CFI (cfiCond15) R6 load(1, XDATA, add(CFA_XSP16, literal(-10)))
          CFI (cfiCond15) VB load(1, XDATA, add(CFA_XSP16, literal(-9)))
          CFI (cfiCond15) V0 load(1, XDATA, add(CFA_XSP16, literal(-8)))
          CFI (cfiCond15) V1 load(1, XDATA, add(CFA_XSP16, literal(-7)))
          CFI (cfiCond15) R7 load(1, XDATA, add(CFA_XSP16, literal(-6)))
          CFI (cfiCond15) ?RET_LOW load(1, XDATA, add(CFA_XSP16, literal(-5)))
          CFI (cfiCond15) ?RET_HIGH load(1, XDATA, add(CFA_XSP16, literal(-4)))
          CFI (cfiCond15) ?BRET_EXT load(1, XDATA, add(CFA_XSP16, literal(-3)))
          CFI (cfiCond15) DPL0 load(1, XDATA, add(CFA_XSP16, literal(-2)))
          CFI (cfiCond15) DPH0 load(1, XDATA, add(CFA_XSP16, literal(-1)))
          CFI (cfiCond15) CFA_SP SP+-2
          CFI (cfiCond15) CFA_XSP16 add(XSP16, 19)
          CFI Block cfiCond16 Using cfiCommon0
          CFI (cfiCond16) Function zclGeneral_ProcessInIdentity
          CFI (cfiCond16) Conditional ??CrossCallReturnLabel_54
          CFI (cfiCond16) R6 load(1, XDATA, add(CFA_XSP16, literal(-12)))
          CFI (cfiCond16) VB load(1, XDATA, add(CFA_XSP16, literal(-11)))
          CFI (cfiCond16) V0 load(1, XDATA, add(CFA_XSP16, literal(-10)))
          CFI (cfiCond16) V1 load(1, XDATA, add(CFA_XSP16, literal(-9)))
          CFI (cfiCond16) V2 load(1, XDATA, add(CFA_XSP16, literal(-8)))
          CFI (cfiCond16) V3 load(1, XDATA, add(CFA_XSP16, literal(-7)))
          CFI (cfiCond16) R7 load(1, XDATA, add(CFA_XSP16, literal(-6)))
          CFI (cfiCond16) ?RET_LOW load(1, XDATA, add(CFA_XSP16, literal(-5)))
          CFI (cfiCond16) ?RET_HIGH load(1, XDATA, add(CFA_XSP16, literal(-4)))
          CFI (cfiCond16) ?BRET_EXT load(1, XDATA, add(CFA_XSP16, literal(-3)))
          CFI (cfiCond16) DPL0 load(1, XDATA, add(CFA_XSP16, literal(-2)))
          CFI (cfiCond16) DPH0 load(1, XDATA, add(CFA_XSP16, literal(-1)))
          CFI (cfiCond16) CFA_SP SP+-2
          CFI (cfiCond16) CFA_XSP16 add(XSP16, 18)
          CFI Block cfiPicker17 Using cfiCommon1
          CFI (cfiPicker17) NoFunction
          CFI (cfiPicker17) Picker
        MOVX      A,@DPTR
        MOV       ?V0,A
        MOV       R0,#?V0
        RET
          CFI EndBlock cfiCond12
          CFI EndBlock cfiCond13
          CFI EndBlock cfiCond14
          CFI EndBlock cfiCond15
          CFI EndBlock cfiCond16
          CFI EndBlock cfiPicker17
//  377 #endif // ZCL_IDENTIFY
//  378 
//  379 #ifdef ZCL_GROUPS
//  380 /*********************************************************************
//  381  * @fn      zclGeneral_SendGroupRequest
//  382  *
//  383  * @brief   Send a Group Request to a device.  You can also use the
//  384  *          appropriate macro.
//  385  *
//  386  * @param   srcEP - Sending Apps endpoint
//  387  * @param   dstAddr - where to send the request
//  388  * @param   cmd - one of the following:
//  389  *              COMMAND_GROUP_VIEW
//  390  *              COMMAND_GROUP_REMOVE
//  391  * @param   groupID -
//  392  *
//  393  * @return  ZStatus_t
//  394  */

        RSEG BANKED_CODE:HUGECODE:NOROOT(0)
//  395 ZStatus_t zclGeneral_SendGroupRequest( uint8 srcEP, afAddrType_t *dstAddr,
zclGeneral_SendGroupRequest:
          CFI Block cfiBlock18 Using cfiCommon0
          CFI Function zclGeneral_SendGroupRequest
        CODE
//  396                                        uint8 cmd, uint16 groupID, uint8 disableDefaultRsp, uint8 seqNum )
//  397 {
        FUNCALL zclGeneral_SendGroupRequest, zcl_SendCommand
        LOCFRAME ISTACK, 0, STACK
        LOCFRAME PSTACK, 0, STACK
        LOCFRAME XSTACK, 25, STACK
        LOCFRAME IOVERLAY, 0, STATIC
        LOCFRAME DOVERLAY, 0, STATIC
        ARGFRAME ISTACK, 0, STACK
        ARGFRAME PSTACK, 0, STACK
        ARGFRAME XSTACK, 25, STACK
        ARGFRAME IOVERLAY, 0, STATIC
        ARGFRAME DOVERLAY, 0, STATIC
        REQUIRE ?V0
        REQUIRE ?V1
        REQUIRE ?V2
        REQUIRE ?V3
        MOV       A,#-0xc
        LCALL     ?BANKED_ENTER_XDATA
          CFI DPH0 load(1, XDATA, add(CFA_XSP16, literal(-1)))
          CFI DPL0 load(1, XDATA, add(CFA_XSP16, literal(-2)))
          CFI ?BRET_EXT load(1, XDATA, add(CFA_XSP16, literal(-3)))
          CFI ?RET_HIGH load(1, XDATA, add(CFA_XSP16, literal(-4)))
          CFI ?RET_LOW load(1, XDATA, add(CFA_XSP16, literal(-5)))
          CFI R7 load(1, XDATA, add(CFA_XSP16, literal(-6)))
          CFI V3 load(1, XDATA, add(CFA_XSP16, literal(-7)))
          CFI V2 load(1, XDATA, add(CFA_XSP16, literal(-8)))
          CFI V1 load(1, XDATA, add(CFA_XSP16, literal(-9)))
          CFI V0 load(1, XDATA, add(CFA_XSP16, literal(-10)))
          CFI VB load(1, XDATA, add(CFA_XSP16, literal(-11)))
          CFI R6 load(1, XDATA, add(CFA_XSP16, literal(-12)))
          CFI CFA_SP SP+0
          CFI CFA_XSP16 add(XSP16, 12)
        ; Saved register size: 12
        ; Auto size: 2
        MOV       A,#-0x2
        LCALL     ?ALLOC_XSTACK8
          CFI CFA_XSP16 add(XSP16, 14)
        MOV       ?V0,R1
        MOV       A,#0xe
        LCALL     ?XSTACK_DISP0_8
        LCALL     ?Subroutine32 & 0xFFFF
//  398   uint8 buf[2];
//  399 
//  400   buf[0] = LO_UINT16( groupID );
//  401   buf[1] = HI_UINT16( groupID );
??CrossCallReturnLabel_43:
        LCALL     ?XSTACK_DISP0_8
        LCALL     ?Subroutine55 & 0xFFFF
//  402 
//  403   return ( zcl_SendCommand( srcEP, dstAddr, ZCL_CLUSTER_ID_GEN_GROUPS,
//  404                             cmd, TRUE, ZCL_FRAME_CLIENT_SERVER_DIR,
//  405                             disableDefaultRsp, 0, seqNum, 2, buf ) );
??CrossCallReturnLabel_163:
        LCALL     ?PUSH_XSTACK_I_TWO
          CFI CFA_XSP16 add(XSP16, 16)
        MOV       ?V2,#0x2
        MOV       ?V3,#0x0
        MOV       R0,#?V2
        LCALL     ?PUSH_XSTACK_I_TWO
          CFI CFA_XSP16 add(XSP16, 18)
        MOV       A,#0x14
        LCALL     ?XSTACK_DISP0_8
        LCALL     ??Subroutine99_0 & 0xFFFF
??CrossCallReturnLabel_190:
        LCALL     ?PUSH_XSTACK_I_ONE
          CFI CFA_XSP16 add(XSP16, 19)
        CLR       A
        MOV       ?V2,A
        MOV       R0,#?V2
        LCALL     ?PUSH_XSTACK_I_TWO
          CFI CFA_XSP16 add(XSP16, 21)
        MOV       A,R5
        MOV       ?V1,A
        MOV       R0,#?V1
        LCALL     ?PUSH_XSTACK_I_ONE
          CFI CFA_XSP16 add(XSP16, 22)
        MOV       ?V1,#0x0
        MOV       R0,#?V1
        LCALL     ?PUSH_XSTACK_I_ONE
          CFI CFA_XSP16 add(XSP16, 23)
        MOV       ?V1,#0x1
        MOV       R0,#?V1
        LCALL     ?PUSH_XSTACK_I_ONE
          CFI CFA_XSP16 add(XSP16, 24)
        MOV       A,R4
        MOV       ?V1,A
        MOV       R0,#?V1
        LCALL     ?PUSH_XSTACK_I_ONE
          CFI CFA_XSP16 add(XSP16, 25)
        MOV       R4,#0x4
        MOV       R5,#0x0
        MOV       R1,?V0
        LJMP      ??Subroutine100_0 & 0xFFFF
          CFI EndBlock cfiBlock18

        RSEG BANKED_CODE:HUGECODE:NOROOT(0)
?Subroutine55:
          CFI Block cfiCond19 Using cfiCommon0
          CFI Function zclGeneral_SendGroupRequest
          CFI Conditional ??CrossCallReturnLabel_163
          CFI R6 load(1, XDATA, add(CFA_XSP16, literal(-12)))
          CFI VB load(1, XDATA, add(CFA_XSP16, literal(-11)))
          CFI V0 load(1, XDATA, add(CFA_XSP16, literal(-10)))
          CFI V1 load(1, XDATA, add(CFA_XSP16, literal(-9)))
          CFI V2 load(1, XDATA, add(CFA_XSP16, literal(-8)))
          CFI V3 load(1, XDATA, add(CFA_XSP16, literal(-7)))
          CFI R7 load(1, XDATA, add(CFA_XSP16, literal(-6)))
          CFI ?RET_LOW load(1, XDATA, add(CFA_XSP16, literal(-5)))
          CFI ?RET_HIGH load(1, XDATA, add(CFA_XSP16, literal(-4)))
          CFI ?BRET_EXT load(1, XDATA, add(CFA_XSP16, literal(-3)))
          CFI DPL0 load(1, XDATA, add(CFA_XSP16, literal(-2)))
          CFI DPH0 load(1, XDATA, add(CFA_XSP16, literal(-1)))
          CFI CFA_SP SP+-2
          CFI CFA_XSP16 add(XSP16, 14)
          CFI Block cfiCond20 Using cfiCommon0
          CFI (cfiCond20) Function zclGeneral_SendGroupResponse
          CFI (cfiCond20) Conditional ??CrossCallReturnLabel_164
          CFI (cfiCond20) R6 load(1, XDATA, add(CFA_XSP16, literal(-12)))
          CFI (cfiCond20) VB load(1, XDATA, add(CFA_XSP16, literal(-11)))
          CFI (cfiCond20) V0 load(1, XDATA, add(CFA_XSP16, literal(-10)))
          CFI (cfiCond20) V1 load(1, XDATA, add(CFA_XSP16, literal(-9)))
          CFI (cfiCond20) V2 load(1, XDATA, add(CFA_XSP16, literal(-8)))
          CFI (cfiCond20) V3 load(1, XDATA, add(CFA_XSP16, literal(-7)))
          CFI (cfiCond20) R7 load(1, XDATA, add(CFA_XSP16, literal(-6)))
          CFI (cfiCond20) ?RET_LOW load(1, XDATA, add(CFA_XSP16, literal(-5)))
          CFI (cfiCond20) ?RET_HIGH load(1, XDATA, add(CFA_XSP16, literal(-4)))
          CFI (cfiCond20) ?BRET_EXT load(1, XDATA, add(CFA_XSP16, literal(-3)))
          CFI (cfiCond20) DPL0 load(1, XDATA, add(CFA_XSP16, literal(-2)))
          CFI (cfiCond20) DPH0 load(1, XDATA, add(CFA_XSP16, literal(-1)))
          CFI (cfiCond20) CFA_SP SP+-2
          CFI (cfiCond20) CFA_XSP16 add(XSP16, 15)
          CFI Block cfiCond21 Using cfiCommon0
          CFI (cfiCond21) Function zclGeneral_SendLevelControlMoveToLevelRequest
          CFI (cfiCond21) Conditional ??CrossCallReturnLabel_165
          CFI (cfiCond21) R6 load(1, XDATA, add(CFA_XSP16, literal(-12)))
          CFI (cfiCond21) VB load(1, XDATA, add(CFA_XSP16, literal(-11)))
          CFI (cfiCond21) V0 load(1, XDATA, add(CFA_XSP16, literal(-10)))
          CFI (cfiCond21) V1 load(1, XDATA, add(CFA_XSP16, literal(-9)))
          CFI (cfiCond21) V2 load(1, XDATA, add(CFA_XSP16, literal(-8)))
          CFI (cfiCond21) V3 load(1, XDATA, add(CFA_XSP16, literal(-7)))
          CFI (cfiCond21) R7 load(1, XDATA, add(CFA_XSP16, literal(-6)))
          CFI (cfiCond21) ?RET_LOW load(1, XDATA, add(CFA_XSP16, literal(-5)))
          CFI (cfiCond21) ?RET_HIGH load(1, XDATA, add(CFA_XSP16, literal(-4)))
          CFI (cfiCond21) ?BRET_EXT load(1, XDATA, add(CFA_XSP16, literal(-3)))
          CFI (cfiCond21) DPL0 load(1, XDATA, add(CFA_XSP16, literal(-2)))
          CFI (cfiCond21) DPH0 load(1, XDATA, add(CFA_XSP16, literal(-1)))
          CFI (cfiCond21) CFA_SP SP+-2
          CFI (cfiCond21) CFA_XSP16 add(XSP16, 15)
          CFI Block cfiCond22 Using cfiCommon0
          CFI (cfiCond22) Function zclGeneral_SendLevelControlStepRequest
          CFI (cfiCond22) Conditional ??CrossCallReturnLabel_166
          CFI (cfiCond22) R6 load(1, XDATA, add(CFA_XSP16, literal(-12)))
          CFI (cfiCond22) VB load(1, XDATA, add(CFA_XSP16, literal(-11)))
          CFI (cfiCond22) V0 load(1, XDATA, add(CFA_XSP16, literal(-10)))
          CFI (cfiCond22) V1 load(1, XDATA, add(CFA_XSP16, literal(-9)))
          CFI (cfiCond22) V2 load(1, XDATA, add(CFA_XSP16, literal(-8)))
          CFI (cfiCond22) V3 load(1, XDATA, add(CFA_XSP16, literal(-7)))
          CFI (cfiCond22) R7 load(1, XDATA, add(CFA_XSP16, literal(-6)))
          CFI (cfiCond22) ?RET_LOW load(1, XDATA, add(CFA_XSP16, literal(-5)))
          CFI (cfiCond22) ?RET_HIGH load(1, XDATA, add(CFA_XSP16, literal(-4)))
          CFI (cfiCond22) ?BRET_EXT load(1, XDATA, add(CFA_XSP16, literal(-3)))
          CFI (cfiCond22) DPL0 load(1, XDATA, add(CFA_XSP16, literal(-2)))
          CFI (cfiCond22) DPH0 load(1, XDATA, add(CFA_XSP16, literal(-1)))
          CFI (cfiCond22) CFA_SP SP+-2
          CFI (cfiCond22) CFA_XSP16 add(XSP16, 16)
          CFI Block cfiPicker23 Using cfiCommon1
          CFI (cfiPicker23) NoFunction
          CFI (cfiPicker23) Picker
        MOV       A,R1
          CFI EndBlock cfiCond19
          CFI EndBlock cfiCond20
          CFI EndBlock cfiCond21
          CFI EndBlock cfiCond22
          CFI EndBlock cfiPicker23
        REQUIRE ??Subroutine95_0
        ; // Fall through to label ??Subroutine95_0

        RSEG BANKED_CODE:HUGECODE:NOROOT(0)
??Subroutine95_0:
          CFI Block cfiCond24 Using cfiCommon0
          CFI Function zclGeneral_SendIdentifyEZModeInvoke
          CFI Conditional ??CrossCallReturnLabel_167
          CFI R6 load(1, XDATA, add(CFA_XSP16, literal(-12)))
          CFI VB load(1, XDATA, add(CFA_XSP16, literal(-11)))
          CFI V0 load(1, XDATA, add(CFA_XSP16, literal(-10)))
          CFI V1 load(1, XDATA, add(CFA_XSP16, literal(-9)))
          CFI V2 load(1, XDATA, add(CFA_XSP16, literal(-8)))
          CFI V3 load(1, XDATA, add(CFA_XSP16, literal(-7)))
          CFI R7 load(1, XDATA, add(CFA_XSP16, literal(-6)))
          CFI ?RET_LOW load(1, XDATA, add(CFA_XSP16, literal(-5)))
          CFI ?RET_HIGH load(1, XDATA, add(CFA_XSP16, literal(-4)))
          CFI ?BRET_EXT load(1, XDATA, add(CFA_XSP16, literal(-3)))
          CFI DPL0 load(1, XDATA, add(CFA_XSP16, literal(-2)))
          CFI DPH0 load(1, XDATA, add(CFA_XSP16, literal(-1)))
          CFI CFA_SP SP+-2
          CFI CFA_XSP16 add(XSP16, 13)
          CFI Block cfiCond25 Using cfiCommon0
          CFI (cfiCond25) Function zclGeneral_SendIdentifyUpdateCommState
          CFI (cfiCond25) Conditional ??CrossCallReturnLabel_168
          CFI (cfiCond25) R6 load(1, XDATA, add(CFA_XSP16, literal(-12)))
          CFI (cfiCond25) VB load(1, XDATA, add(CFA_XSP16, literal(-11)))
          CFI (cfiCond25) V0 load(1, XDATA, add(CFA_XSP16, literal(-10)))
          CFI (cfiCond25) V1 load(1, XDATA, add(CFA_XSP16, literal(-9)))
          CFI (cfiCond25) V2 load(1, XDATA, add(CFA_XSP16, literal(-8)))
          CFI (cfiCond25) V3 load(1, XDATA, add(CFA_XSP16, literal(-7)))
          CFI (cfiCond25) R7 load(1, XDATA, add(CFA_XSP16, literal(-6)))
          CFI (cfiCond25) ?RET_LOW load(1, XDATA, add(CFA_XSP16, literal(-5)))
          CFI (cfiCond25) ?RET_HIGH load(1, XDATA, add(CFA_XSP16, literal(-4)))
          CFI (cfiCond25) ?BRET_EXT load(1, XDATA, add(CFA_XSP16, literal(-3)))
          CFI (cfiCond25) DPL0 load(1, XDATA, add(CFA_XSP16, literal(-2)))
          CFI (cfiCond25) DPH0 load(1, XDATA, add(CFA_XSP16, literal(-1)))
          CFI (cfiCond25) CFA_SP SP+-2
          CFI (cfiCond25) CFA_XSP16 add(XSP16, 14)
          CFI Block cfiCond26 Using cfiCommon0
          CFI (cfiCond26) Function zclGeneral_SendLevelControlMoveRequest
          CFI (cfiCond26) Conditional ??CrossCallReturnLabel_169
          CFI (cfiCond26) R6 load(1, XDATA, add(CFA_XSP16, literal(-12)))
          CFI (cfiCond26) VB load(1, XDATA, add(CFA_XSP16, literal(-11)))
          CFI (cfiCond26) V0 load(1, XDATA, add(CFA_XSP16, literal(-10)))
          CFI (cfiCond26) V1 load(1, XDATA, add(CFA_XSP16, literal(-9)))
          CFI (cfiCond26) V2 load(1, XDATA, add(CFA_XSP16, literal(-8)))
          CFI (cfiCond26) V3 load(1, XDATA, add(CFA_XSP16, literal(-7)))
          CFI (cfiCond26) R7 load(1, XDATA, add(CFA_XSP16, literal(-6)))
          CFI (cfiCond26) ?RET_LOW load(1, XDATA, add(CFA_XSP16, literal(-5)))
          CFI (cfiCond26) ?RET_HIGH load(1, XDATA, add(CFA_XSP16, literal(-4)))
          CFI (cfiCond26) ?BRET_EXT load(1, XDATA, add(CFA_XSP16, literal(-3)))
          CFI (cfiCond26) DPL0 load(1, XDATA, add(CFA_XSP16, literal(-2)))
          CFI (cfiCond26) DPH0 load(1, XDATA, add(CFA_XSP16, literal(-1)))
          CFI (cfiCond26) CFA_SP SP+-2
          CFI (cfiCond26) CFA_XSP16 add(XSP16, 14)
          CFI Block cfiCond27 Using cfiCommon0
          CFI (cfiCond27) Function zclGeneral_SendGroupRequest
          CFI (cfiCond27) Conditional ??CrossCallReturnLabel_163
          CFI (cfiCond27) R6 load(1, XDATA, add(CFA_XSP16, literal(-12)))
          CFI (cfiCond27) VB load(1, XDATA, add(CFA_XSP16, literal(-11)))
          CFI (cfiCond27) V0 load(1, XDATA, add(CFA_XSP16, literal(-10)))
          CFI (cfiCond27) V1 load(1, XDATA, add(CFA_XSP16, literal(-9)))
          CFI (cfiCond27) V2 load(1, XDATA, add(CFA_XSP16, literal(-8)))
          CFI (cfiCond27) V3 load(1, XDATA, add(CFA_XSP16, literal(-7)))
          CFI (cfiCond27) R7 load(1, XDATA, add(CFA_XSP16, literal(-6)))
          CFI (cfiCond27) ?RET_LOW load(1, XDATA, add(CFA_XSP16, literal(-5)))
          CFI (cfiCond27) ?RET_HIGH load(1, XDATA, add(CFA_XSP16, literal(-4)))
          CFI (cfiCond27) ?BRET_EXT load(1, XDATA, add(CFA_XSP16, literal(-3)))
          CFI (cfiCond27) DPL0 load(1, XDATA, add(CFA_XSP16, literal(-2)))
          CFI (cfiCond27) DPH0 load(1, XDATA, add(CFA_XSP16, literal(-1)))
          CFI (cfiCond27) CFA_SP SP+-2
          CFI (cfiCond27) CFA_XSP16 add(XSP16, 14)
          CFI Block cfiCond28 Using cfiCommon0
          CFI (cfiCond28) Function zclGeneral_SendGroupResponse
          CFI (cfiCond28) Conditional ??CrossCallReturnLabel_164
          CFI (cfiCond28) R6 load(1, XDATA, add(CFA_XSP16, literal(-12)))
          CFI (cfiCond28) VB load(1, XDATA, add(CFA_XSP16, literal(-11)))
          CFI (cfiCond28) V0 load(1, XDATA, add(CFA_XSP16, literal(-10)))
          CFI (cfiCond28) V1 load(1, XDATA, add(CFA_XSP16, literal(-9)))
          CFI (cfiCond28) V2 load(1, XDATA, add(CFA_XSP16, literal(-8)))
          CFI (cfiCond28) V3 load(1, XDATA, add(CFA_XSP16, literal(-7)))
          CFI (cfiCond28) R7 load(1, XDATA, add(CFA_XSP16, literal(-6)))
          CFI (cfiCond28) ?RET_LOW load(1, XDATA, add(CFA_XSP16, literal(-5)))
          CFI (cfiCond28) ?RET_HIGH load(1, XDATA, add(CFA_XSP16, literal(-4)))
          CFI (cfiCond28) ?BRET_EXT load(1, XDATA, add(CFA_XSP16, literal(-3)))
          CFI (cfiCond28) DPL0 load(1, XDATA, add(CFA_XSP16, literal(-2)))
          CFI (cfiCond28) DPH0 load(1, XDATA, add(CFA_XSP16, literal(-1)))
          CFI (cfiCond28) CFA_SP SP+-2
          CFI (cfiCond28) CFA_XSP16 add(XSP16, 15)
          CFI Block cfiCond29 Using cfiCommon0
          CFI (cfiCond29) Function zclGeneral_SendLevelControlMoveToLevelRequest
          CFI (cfiCond29) Conditional ??CrossCallReturnLabel_165
          CFI (cfiCond29) R6 load(1, XDATA, add(CFA_XSP16, literal(-12)))
          CFI (cfiCond29) VB load(1, XDATA, add(CFA_XSP16, literal(-11)))
          CFI (cfiCond29) V0 load(1, XDATA, add(CFA_XSP16, literal(-10)))
          CFI (cfiCond29) V1 load(1, XDATA, add(CFA_XSP16, literal(-9)))
          CFI (cfiCond29) V2 load(1, XDATA, add(CFA_XSP16, literal(-8)))
          CFI (cfiCond29) V3 load(1, XDATA, add(CFA_XSP16, literal(-7)))
          CFI (cfiCond29) R7 load(1, XDATA, add(CFA_XSP16, literal(-6)))
          CFI (cfiCond29) ?RET_LOW load(1, XDATA, add(CFA_XSP16, literal(-5)))
          CFI (cfiCond29) ?RET_HIGH load(1, XDATA, add(CFA_XSP16, literal(-4)))
          CFI (cfiCond29) ?BRET_EXT load(1, XDATA, add(CFA_XSP16, literal(-3)))
          CFI (cfiCond29) DPL0 load(1, XDATA, add(CFA_XSP16, literal(-2)))
          CFI (cfiCond29) DPH0 load(1, XDATA, add(CFA_XSP16, literal(-1)))
          CFI (cfiCond29) CFA_SP SP+-2
          CFI (cfiCond29) CFA_XSP16 add(XSP16, 15)
          CFI Block cfiCond30 Using cfiCommon0
          CFI (cfiCond30) Function zclGeneral_SendLevelControlStepRequest
          CFI (cfiCond30) Conditional ??CrossCallReturnLabel_166
          CFI (cfiCond30) R6 load(1, XDATA, add(CFA_XSP16, literal(-12)))
          CFI (cfiCond30) VB load(1, XDATA, add(CFA_XSP16, literal(-11)))
          CFI (cfiCond30) V0 load(1, XDATA, add(CFA_XSP16, literal(-10)))
          CFI (cfiCond30) V1 load(1, XDATA, add(CFA_XSP16, literal(-9)))
          CFI (cfiCond30) V2 load(1, XDATA, add(CFA_XSP16, literal(-8)))
          CFI (cfiCond30) V3 load(1, XDATA, add(CFA_XSP16, literal(-7)))
          CFI (cfiCond30) R7 load(1, XDATA, add(CFA_XSP16, literal(-6)))
          CFI (cfiCond30) ?RET_LOW load(1, XDATA, add(CFA_XSP16, literal(-5)))
          CFI (cfiCond30) ?RET_HIGH load(1, XDATA, add(CFA_XSP16, literal(-4)))
          CFI (cfiCond30) ?BRET_EXT load(1, XDATA, add(CFA_XSP16, literal(-3)))
          CFI (cfiCond30) DPL0 load(1, XDATA, add(CFA_XSP16, literal(-2)))
          CFI (cfiCond30) DPH0 load(1, XDATA, add(CFA_XSP16, literal(-1)))
          CFI (cfiCond30) CFA_SP SP+-2
          CFI (cfiCond30) CFA_XSP16 add(XSP16, 16)
          CFI Block cfiPicker31 Using cfiCommon1
          CFI (cfiPicker31) NoFunction
          CFI (cfiPicker31) Picker
        MOVX      @DPTR,A
        ; Setup parameters for call to function zcl_SendCommand
        ; Setup parameters for call to function zcl_SendCommand
        ; Setup parameters for call to function zcl_SendCommand
        ; Setup parameters for call to function zcl_SendCommand
        ; Setup parameters for call to function zcl_SendCommand
        ; Setup parameters for call to function zcl_SendCommand
        ; Setup parameters for call to function zcl_SendCommand
        MOV       R0,?XSP + 0
        MOV       R1,?XSP + 1
        MOV       ?V2,R0
        MOV       ?V3,R1
        MOV       R0,#?V2
        RET
          CFI EndBlock cfiCond24
          CFI EndBlock cfiCond25
          CFI EndBlock cfiCond26
          CFI EndBlock cfiCond27
          CFI EndBlock cfiCond28
          CFI EndBlock cfiCond29
          CFI EndBlock cfiCond30
          CFI EndBlock cfiPicker31
//  406 }
//  407 
//  408 /*********************************************************************
//  409  * @fn      zclGeneral_SendAddGroupRequest
//  410  *
//  411  * @brief   Send the Add Group Request to a device
//  412  *
//  413  * @param   srcEP - Sending Apps endpoint
//  414  * @param   dstAddr - where to send the request
//  415  * @param   cmd - one of the following:
//  416  *                COMMAND_GROUP_ADD
//  417  *                COMMAND_GROUP_ADD_IF_IDENTIFYING
//  418  * @param   groupID - pointer to the group structure
//  419  * @param   groupName - pointer to Group Name.  This is a Zigbee
//  420  *          string data type, so the first byte is the length of the
//  421  *          name (in bytes), then the name.
//  422  *
//  423  * @return  ZStatus_t
//  424  */

        RSEG BANKED_CODE:HUGECODE:NOROOT(0)
//  425 ZStatus_t zclGeneral_SendAddGroupRequest( uint8 srcEP, afAddrType_t *dstAddr,
zclGeneral_SendAddGroupRequest:
          CFI Block cfiBlock32 Using cfiCommon0
          CFI Function zclGeneral_SendAddGroupRequest
        CODE
//  426                                           uint8 cmd, uint16 groupID, uint8 *groupName,
//  427                                           uint8 disableDefaultRsp, uint8 seqNum )
//  428 {
        FUNCALL zclGeneral_SendAddGroupRequest, osal_mem_alloc
        LOCFRAME ISTACK, 0, STACK
        LOCFRAME PSTACK, 0, STACK
        LOCFRAME XSTACK, 21, STACK
        LOCFRAME IOVERLAY, 0, STATIC
        LOCFRAME DOVERLAY, 0, STATIC
        ARGFRAME ISTACK, 0, STACK
        ARGFRAME PSTACK, 0, STACK
        ARGFRAME XSTACK, 21, STACK
        ARGFRAME IOVERLAY, 0, STATIC
        ARGFRAME DOVERLAY, 0, STATIC
        FUNCALL zclGeneral_SendAddGroupRequest, osal_memcpy
        LOCFRAME ISTACK, 0, STACK
        LOCFRAME PSTACK, 0, STACK
        LOCFRAME XSTACK, 24, STACK
        LOCFRAME IOVERLAY, 0, STATIC
        LOCFRAME DOVERLAY, 0, STATIC
        ARGFRAME ISTACK, 0, STACK
        ARGFRAME PSTACK, 0, STACK
        ARGFRAME XSTACK, 24, STACK
        ARGFRAME IOVERLAY, 0, STATIC
        ARGFRAME DOVERLAY, 0, STATIC
        FUNCALL zclGeneral_SendAddGroupRequest, zcl_SendCommand
        LOCFRAME ISTACK, 0, STACK
        LOCFRAME PSTACK, 0, STACK
        LOCFRAME XSTACK, 32, STACK
        LOCFRAME IOVERLAY, 0, STATIC
        LOCFRAME DOVERLAY, 0, STATIC
        ARGFRAME ISTACK, 0, STACK
        ARGFRAME PSTACK, 0, STACK
        ARGFRAME XSTACK, 32, STACK
        ARGFRAME IOVERLAY, 0, STATIC
        ARGFRAME DOVERLAY, 0, STATIC
        FUNCALL zclGeneral_SendAddGroupRequest, osal_mem_free
        LOCFRAME ISTACK, 0, STACK
        LOCFRAME PSTACK, 0, STACK
        LOCFRAME XSTACK, 21, STACK
        LOCFRAME IOVERLAY, 0, STATIC
        LOCFRAME DOVERLAY, 0, STATIC
        ARGFRAME ISTACK, 0, STACK
        ARGFRAME PSTACK, 0, STACK
        ARGFRAME XSTACK, 21, STACK
        ARGFRAME IOVERLAY, 0, STATIC
        ARGFRAME DOVERLAY, 0, STATIC
        REQUIRE ?V0
        REQUIRE ?V1
        REQUIRE ?V2
        REQUIRE ?V3
        REQUIRE ?V4
        REQUIRE ?V5
        REQUIRE ?V6
        REQUIRE ?V7
        REQUIRE ?V8
        REQUIRE ?V9
        REQUIRE ?V10
        REQUIRE ?V11
        MOV       A,#-0x14
        LCALL     ?BANKED_ENTER_XDATA
          CFI DPH0 load(1, XDATA, add(CFA_XSP16, literal(-1)))
          CFI DPL0 load(1, XDATA, add(CFA_XSP16, literal(-2)))
          CFI ?BRET_EXT load(1, XDATA, add(CFA_XSP16, literal(-3)))
          CFI ?RET_HIGH load(1, XDATA, add(CFA_XSP16, literal(-4)))
          CFI ?RET_LOW load(1, XDATA, add(CFA_XSP16, literal(-5)))
          CFI R7 load(1, XDATA, add(CFA_XSP16, literal(-6)))
          CFI V11 load(1, XDATA, add(CFA_XSP16, literal(-7)))
          CFI V10 load(1, XDATA, add(CFA_XSP16, literal(-8)))
          CFI V9 load(1, XDATA, add(CFA_XSP16, literal(-9)))
          CFI V8 load(1, XDATA, add(CFA_XSP16, literal(-10)))
          CFI V7 load(1, XDATA, add(CFA_XSP16, literal(-11)))
          CFI V6 load(1, XDATA, add(CFA_XSP16, literal(-12)))
          CFI V5 load(1, XDATA, add(CFA_XSP16, literal(-13)))
          CFI V4 load(1, XDATA, add(CFA_XSP16, literal(-14)))
          CFI V3 load(1, XDATA, add(CFA_XSP16, literal(-15)))
          CFI V2 load(1, XDATA, add(CFA_XSP16, literal(-16)))
          CFI V1 load(1, XDATA, add(CFA_XSP16, literal(-17)))
          CFI V0 load(1, XDATA, add(CFA_XSP16, literal(-18)))
          CFI VB load(1, XDATA, add(CFA_XSP16, literal(-19)))
          CFI R6 load(1, XDATA, add(CFA_XSP16, literal(-20)))
          CFI CFA_SP SP+0
          CFI CFA_XSP16 add(XSP16, 20)
        ; Saved register size: 20
        ; Auto size: 1
        MOV       A,#-0x1
        LCALL     ?ALLOC_XSTACK8
          CFI CFA_XSP16 add(XSP16, 21)
        MOV       ?V7,R1
        MOV       ?V10,R2
        MOV       ?V11,R3
        MOV       ?V9,R4
        MOV       ?V8,R5
        MOV       A,#0x17
        LCALL     ?XSTACK_DISP0_8
        LCALL     ?Subroutine35 & 0xFFFF
//  429   uint8 *buf;
//  430   uint8 *pBuf;
//  431   uint8 len;
//  432   ZStatus_t status;
//  433 
//  434   len = 2;    // Group ID
//  435   len += groupName[0] + 1;  // String + 1 for length
??CrossCallReturnLabel_48:
        MOVX      A,@DPTR
        ADD       A,#0x3
        MOV       DPL,?XSP + 0
        MOV       DPH,?XSP + 1
        MOVX      @DPTR,A
//  436 
//  437   buf = zcl_mem_alloc( len );
        MOV       R6,A
        ; Setup parameters for call to function osal_mem_alloc
        MOV       R2,A
        MOV       R3,#0x0
        LCALL     ??Subroutine103_0 & 0xFFFF
//  438   if ( buf )
??CrossCallReturnLabel_215:
        JNZ       $+5
        LJMP      ??zclGeneral_SendAddGroupRequest_0 & 0xFFFF
        MOV       A,#0x15
        LCALL     ?XSTACK_DISP0_8
        LCALL     ?Subroutine44 & 0xFFFF
//  439   {
//  440     pBuf = buf;
//  441     *pBuf++ = LO_UINT16( groupID );
??CrossCallReturnLabel_72:
        MOVX      @DPTR,A
//  442     *pBuf++ = HI_UINT16( groupID );
        MOV       A,R1
        INC       DPTR
        MOVX      @DPTR,A
//  443     *pBuf++ = groupName[0]; // string length
        MOV       DPL,?V2
        MOV       DPH,?V3
        LCALL     ??Subroutine98_0 & 0xFFFF
//  444     zcl_memcpy( pBuf, &(groupName[1]), groupName[0] );
??CrossCallReturnLabel_176:
        ; Setup parameters for call to function osal_memcpy
        MOV       DPL,?V2
        MOV       DPH,?V3
        INC       DPTR
        MOV       R1,DPL
        MOV       R2,DPH
        MOV       ?V4,R1
        MOV       ?V5,R2
        MOV       ?V6,#0x0
        MOV       R0,#?V4
        LCALL     ?PUSH_XSTACK_I_THREE
          CFI CFA_XSP16 add(XSP16, 24)
        MOV       DPL,?V2
        MOV       DPH,?V3
        MOVX      A,@DPTR
        MOV       R4,A
        MOV       R5,#0x0
        MOV       A,?V0
        ADD       A,#0x3
        LCALL     ?Subroutine71 & 0xFFFF
??CrossCallReturnLabel_122:
        LCALL     ?DEALLOC_XSTACK8
          CFI CFA_XSP16 add(XSP16, 21)
//  445 
//  446     status = zcl_SendCommand( srcEP, dstAddr, ZCL_CLUSTER_ID_GEN_GROUPS,
//  447                               cmd, TRUE, ZCL_FRAME_CLIENT_SERVER_DIR,
//  448                               disableDefaultRsp, 0, seqNum, len, buf );
        ; Setup parameters for call to function zcl_SendCommand
        MOV       R0,#?V0
        LCALL     ?PUSH_XSTACK_I_TWO
          CFI CFA_XSP16 add(XSP16, 23)
        MOV       ?V2,R6
        MOV       ?V3,#0x0
        MOV       R0,#?V2
        LCALL     ?PUSH_XSTACK_I_TWO
          CFI CFA_XSP16 add(XSP16, 25)
        MOV       A,#0x1d
        LCALL     ?XSTACK_DISP0_8
        LCALL     ?Subroutine38 & 0xFFFF
??CrossCallReturnLabel_58:
        LCALL     ?PUSH_XSTACK_I_ONE
          CFI CFA_XSP16 add(XSP16, 26)
        CLR       A
        MOV       ?V2,A
        MOV       R0,#?V2
        LCALL     ?PUSH_XSTACK_I_TWO
          CFI CFA_XSP16 add(XSP16, 28)
        MOV       A,?V8
        MOV       ?V2,A
        MOV       R0,#?V2
        LCALL     ?PUSH_XSTACK_I_ONE
          CFI CFA_XSP16 add(XSP16, 29)
        MOV       ?V2,#0x0
        MOV       R0,#?V2
        LCALL     ?PUSH_XSTACK_I_ONE
          CFI CFA_XSP16 add(XSP16, 30)
        MOV       ?V2,#0x1
        MOV       R0,#?V2
        LCALL     ?PUSH_XSTACK_I_ONE
          CFI CFA_XSP16 add(XSP16, 31)
        MOV       A,?V9
        MOV       ?V2,A
        MOV       R0,#?V2
        LCALL     ?PUSH_XSTACK_I_ONE
          CFI CFA_XSP16 add(XSP16, 32)
        MOV       R4,#0x4
        MOV       R5,#0x0
        MOV       R2,?V10
        MOV       R3,?V11
        MOV       R1,?V7
        LCALL     ??Subroutine106_0 & 0xFFFF
??CrossCallReturnLabel_231:
        LCALL     ?DEALLOC_XSTACK8
          CFI CFA_XSP16 add(XSP16, 21)
        MOV       A,R1
        MOV       R6,A
//  449     zcl_mem_free( buf );
        ; Setup parameters for call to function osal_mem_free
        MOV       R2,?V0
        MOV       R3,?V1
        LCALL     `??osal_mem_free::?relay`; Banked call to: osal_mem_free
        SJMP      ??zclGeneral_SendAddGroupRequest_1
//  450   }
//  451   else
//  452     status = ZMemError;
??zclGeneral_SendAddGroupRequest_0:
        MOV       R6,#0x10
//  453 
//  454   return ( status );
??zclGeneral_SendAddGroupRequest_1:
        MOV       A,R6
        MOV       R1,A
        MOV       A,#0x1
        LCALL     ?DEALLOC_XSTACK8
          CFI EndBlock cfiBlock32
        REQUIRE ?Subroutine2
        ; // Fall through to label ?Subroutine2
//  455 }

        RSEG BANKED_CODE:HUGECODE:NOROOT(0)
?Subroutine2:
          CFI Block cfiBlock33 Using cfiCommon0
          CFI NoFunction
          CFI CFA_SP SP+0
          CFI CFA_XSP16 add(XSP16, 20)
          CFI VB load(1, XDATA, add(CFA_XSP16, literal(-19)))
          CFI DPL0 load(1, XDATA, add(CFA_XSP16, literal(-2)))
          CFI DPH0 load(1, XDATA, add(CFA_XSP16, literal(-1)))
          CFI R6 load(1, XDATA, add(CFA_XSP16, literal(-20)))
          CFI R7 load(1, XDATA, add(CFA_XSP16, literal(-6)))
          CFI V0 load(1, XDATA, add(CFA_XSP16, literal(-18)))
          CFI V1 load(1, XDATA, add(CFA_XSP16, literal(-17)))
          CFI V2 load(1, XDATA, add(CFA_XSP16, literal(-16)))
          CFI V3 load(1, XDATA, add(CFA_XSP16, literal(-15)))
          CFI V4 load(1, XDATA, add(CFA_XSP16, literal(-14)))
          CFI V5 load(1, XDATA, add(CFA_XSP16, literal(-13)))
          CFI V6 load(1, XDATA, add(CFA_XSP16, literal(-12)))
          CFI V7 load(1, XDATA, add(CFA_XSP16, literal(-11)))
          CFI V8 load(1, XDATA, add(CFA_XSP16, literal(-10)))
          CFI V9 load(1, XDATA, add(CFA_XSP16, literal(-9)))
          CFI V10 load(1, XDATA, add(CFA_XSP16, literal(-8)))
          CFI V11 load(1, XDATA, add(CFA_XSP16, literal(-7)))
          CFI ?BRET_EXT load(1, XDATA, add(CFA_XSP16, literal(-3)))
          CFI ?RET_HIGH load(1, XDATA, add(CFA_XSP16, literal(-4)))
          CFI ?RET_LOW load(1, XDATA, add(CFA_XSP16, literal(-5)))
        MOV       R7,#0xc
        LJMP      ?BANKED_LEAVE_XDATA
          CFI EndBlock cfiBlock33
//  456 
//  457 /*********************************************************************
//  458  * @fn      zclGeneral_SendGroupGetMembershipRequest
//  459  *
//  460  * @brief   Send a Get Group Membership (Resposne) Command to a device
//  461  *
//  462  * @param   srcEP - Sending Apps endpoint
//  463  * @param   dstAddr - where to send the request
//  464  * @param   cmd - one of the following:
//  465  *                COMMAND_GROUP_GET_MEMBERSHIP
//  466  *                COMMAND_GROUP_GET_MEMBERSHIP_RSP
//  467  * @param   groupID - pointer to the group structure
//  468  * @param   groupName - pointer to Group Name.  This is a Zigbee
//  469  *          string data type, so the first byte is the length of the
//  470  *          name (in bytes), then the name.
//  471  *
//  472  * @return  ZStatus_t
//  473  */

        RSEG BANKED_CODE:HUGECODE:NOROOT(0)
//  474 ZStatus_t zclGeneral_SendGroupGetMembershipRequest( uint8 srcEP, afAddrType_t *dstAddr,
zclGeneral_SendGroupGetMembershipRequest:
          CFI Block cfiBlock34 Using cfiCommon0
          CFI Function zclGeneral_SendGroupGetMembershipRequest
        CODE
//  475                                                     uint8 cmd, uint8 rspCmd, uint8 direction, uint8 capacity,
//  476                                                     uint8 grpCnt, uint16 *grpList, uint8 disableDefaultRsp, uint8 seqNum )
//  477 {
        FUNCALL zclGeneral_SendGroupGetMembershipRequest, osal_mem_alloc
        LOCFRAME ISTACK, 0, STACK
        LOCFRAME PSTACK, 0, STACK
        LOCFRAME XSTACK, 20, STACK
        LOCFRAME IOVERLAY, 0, STATIC
        LOCFRAME DOVERLAY, 0, STATIC
        ARGFRAME ISTACK, 0, STACK
        ARGFRAME PSTACK, 0, STACK
        ARGFRAME XSTACK, 20, STACK
        ARGFRAME IOVERLAY, 0, STATIC
        ARGFRAME DOVERLAY, 0, STATIC
        FUNCALL zclGeneral_SendGroupGetMembershipRequest, zcl_SendCommand
        LOCFRAME ISTACK, 0, STACK
        LOCFRAME PSTACK, 0, STACK
        LOCFRAME XSTACK, 31, STACK
        LOCFRAME IOVERLAY, 0, STATIC
        LOCFRAME DOVERLAY, 0, STATIC
        ARGFRAME ISTACK, 0, STACK
        ARGFRAME PSTACK, 0, STACK
        ARGFRAME XSTACK, 31, STACK
        ARGFRAME IOVERLAY, 0, STATIC
        ARGFRAME DOVERLAY, 0, STATIC
        FUNCALL zclGeneral_SendGroupGetMembershipRequest, osal_mem_free
        LOCFRAME ISTACK, 0, STACK
        LOCFRAME PSTACK, 0, STACK
        LOCFRAME XSTACK, 20, STACK
        LOCFRAME IOVERLAY, 0, STATIC
        LOCFRAME DOVERLAY, 0, STATIC
        ARGFRAME ISTACK, 0, STACK
        ARGFRAME PSTACK, 0, STACK
        ARGFRAME XSTACK, 20, STACK
        ARGFRAME IOVERLAY, 0, STATIC
        ARGFRAME DOVERLAY, 0, STATIC
        REQUIRE ?V0
        REQUIRE ?V1
        REQUIRE ?V2
        REQUIRE ?V3
        REQUIRE ?V4
        REQUIRE ?V5
        REQUIRE ?V6
        REQUIRE ?V7
        REQUIRE ?V8
        REQUIRE ?V9
        REQUIRE ?V10
        REQUIRE ?V11
        MOV       A,#-0x14
        LCALL     ?BANKED_ENTER_XDATA
          CFI DPH0 load(1, XDATA, add(CFA_XSP16, literal(-1)))
          CFI DPL0 load(1, XDATA, add(CFA_XSP16, literal(-2)))
          CFI ?BRET_EXT load(1, XDATA, add(CFA_XSP16, literal(-3)))
          CFI ?RET_HIGH load(1, XDATA, add(CFA_XSP16, literal(-4)))
          CFI ?RET_LOW load(1, XDATA, add(CFA_XSP16, literal(-5)))
          CFI R7 load(1, XDATA, add(CFA_XSP16, literal(-6)))
          CFI V11 load(1, XDATA, add(CFA_XSP16, literal(-7)))
          CFI V10 load(1, XDATA, add(CFA_XSP16, literal(-8)))
          CFI V9 load(1, XDATA, add(CFA_XSP16, literal(-9)))
          CFI V8 load(1, XDATA, add(CFA_XSP16, literal(-10)))
          CFI V7 load(1, XDATA, add(CFA_XSP16, literal(-11)))
          CFI V6 load(1, XDATA, add(CFA_XSP16, literal(-12)))
          CFI V5 load(1, XDATA, add(CFA_XSP16, literal(-13)))
          CFI V4 load(1, XDATA, add(CFA_XSP16, literal(-14)))
          CFI V3 load(1, XDATA, add(CFA_XSP16, literal(-15)))
          CFI V2 load(1, XDATA, add(CFA_XSP16, literal(-16)))
          CFI V1 load(1, XDATA, add(CFA_XSP16, literal(-17)))
          CFI V0 load(1, XDATA, add(CFA_XSP16, literal(-18)))
          CFI VB load(1, XDATA, add(CFA_XSP16, literal(-19)))
          CFI R6 load(1, XDATA, add(CFA_XSP16, literal(-20)))
          CFI CFA_SP SP+0
          CFI CFA_XSP16 add(XSP16, 20)
        ; Saved register size: 20
        ; Auto size: 0
        MOV       ?V2,R1
        MOV       ?V6,R2
        MOV       ?V7,R3
        MOV       A,R4
        MOV       R6,A
        MOV       A,R5
        MOV       R7,A
//  478   uint8 *buf;
//  479   uint8 *pBuf;
//  480   uint8 len = 0;
        MOV       R0,#0x0
//  481   uint8 i;
//  482   ZStatus_t status;
//  483 
//  484   if ( rspCmd )
        JZ        ??zclGeneral_SendGroupGetMembershipRequest_0
//  485     len++;  // Capacity
        MOV       R0,#0x1
??zclGeneral_SendGroupGetMembershipRequest_0:
        MOV       A,#0x16
        LCALL     ?XSTACK_DISP0_8
        MOVX      A,@DPTR
        MOV       ?V3,A
//  486 
//  487   len++;  // Group Count
//  488   len += sizeof ( uint16 ) * grpCnt;  // Group List
        CLR       C
        RLC       A
        INC       A
        ADD       A,R0
//  489 
//  490   buf = zcl_mem_alloc( len );
        LCALL     ?Subroutine66 & 0xFFFF
//  491   if ( buf )
??CrossCallReturnLabel_213:
        JNZ       $+5
        LJMP      ??zclGeneral_SendGroupGetMembershipRequest_1 & 0xFFFF
//  492   {
//  493     pBuf = buf;
        MOV       R0,?V0
        MOV       R1,?V1
//  494     if ( rspCmd )
        MOV       A,R7
        JZ        ??zclGeneral_SendGroupGetMembershipRequest_2
//  495       *pBuf++ = capacity;
        MOV       A,#0x15
        LCALL     ?XSTACK_DISP0_8
        LCALL     ?Subroutine89 & 0xFFFF
??CrossCallReturnLabel_183:
        MOVX      @DPTR,A
        INC       DPTR
        MOV       R0,DPL
        MOV       R1,DPH
//  496 
//  497     *pBuf++ = grpCnt;
??zclGeneral_SendGroupGetMembershipRequest_2:
        MOV       DPL,R0
        MOV       DPH,R1
        MOV       A,?V3
        MOVX      @DPTR,A
        INC       DPTR
        MOV       R0,DPL
        MOV       R1,DPH
//  498     for ( i = 0; i < grpCnt; i++ )
        MOV       R4,#0x0
        MOV       A,#0x17
        LCALL     ?XSTACK_DISP0_8
        LCALL     ?Subroutine48 & 0xFFFF
??CrossCallReturnLabel_84:
        SJMP      ??zclGeneral_SendGroupGetMembershipRequest_3
//  499     {
//  500       *pBuf++ = LO_UINT16( grpList[i] );
??zclGeneral_SendGroupGetMembershipRequest_4:
        MOV       A,R4
        ADD       A,0xE0 /* A   */
        MOV       ?V8,A
        CLR       A
        RLC       A
        MOV       ?V9,A
        MOV       A,R2
        ADD       A,?V8
        MOV       ?V8,A
        MOV       A,R3
        ADDC      A,?V9
        MOV       ?V9,A
        MOV       DPL,?V8
        LCALL     ?Subroutine52 & 0xFFFF
//  501       *pBuf++ = HI_UINT16( grpList[i] );
??CrossCallReturnLabel_171:
        MOV       DPL,?V8
        MOV       DPH,?V9
        INC       DPTR
        MOVX      A,@DPTR
        MOV       DPL,R0
        MOV       DPH,R1
        INC       DPTR
        MOVX      @DPTR,A
        MOV       A,R0
        ADD       A,#0x2
        MOV       R0,A
        JNC       ??zclGeneral_SendGroupGetMembershipRequest_5
        INC       R1
//  502     }
??zclGeneral_SendGroupGetMembershipRequest_5:
        INC       R4
??zclGeneral_SendGroupGetMembershipRequest_3:
        MOV       A,R4
        CLR       C
        SUBB      A,?V3
        JC        ??zclGeneral_SendGroupGetMembershipRequest_4
//  503 
//  504     status = zcl_SendCommand( srcEP, dstAddr, ZCL_CLUSTER_ID_GEN_GROUPS,
//  505                               cmd, TRUE, direction,
//  506                               disableDefaultRsp, 0, seqNum, len, buf );
        ; Setup parameters for call to function zcl_SendCommand
        MOV       R0,#?V0
        LCALL     ?PUSH_XSTACK_I_TWO
          CFI CFA_XSP16 add(XSP16, 22)
        MOV       R0,#?V4
        LCALL     ?PUSH_XSTACK_I_TWO
          CFI CFA_XSP16 add(XSP16, 24)
        MOV       A,#0x1e
        LCALL     ?XSTACK_DISP0_8
        LCALL     ?Subroutine39 & 0xFFFF
??CrossCallReturnLabel_63:
        LCALL     ?PUSH_XSTACK_I_ONE
          CFI CFA_XSP16 add(XSP16, 25)
        CLR       A
        MOV       ?V4,A
        MOV       R0,#?V4
        LCALL     ?PUSH_XSTACK_I_TWO
          CFI CFA_XSP16 add(XSP16, 27)
        MOV       A,#0x20
        LCALL     ?XSTACK_DISP0_8
        LCALL     ?Subroutine39 & 0xFFFF
??CrossCallReturnLabel_64:
        LCALL     ?PUSH_XSTACK_I_ONE
          CFI CFA_XSP16 add(XSP16, 28)
        MOV       A,#0x1c
        LCALL     ?XSTACK_DISP0_8
        LCALL     ?Subroutine39 & 0xFFFF
??CrossCallReturnLabel_65:
        LCALL     ?PUSH_XSTACK_I_ONE
          CFI CFA_XSP16 add(XSP16, 29)
        MOV       ?V3,#0x1
        MOV       R0,#?V3
        LCALL     ?PUSH_XSTACK_I_ONE
          CFI CFA_XSP16 add(XSP16, 30)
        MOV       A,R6
        MOV       ?V3,A
        MOV       R0,#?V3
        LCALL     ?PUSH_XSTACK_I_ONE
          CFI CFA_XSP16 add(XSP16, 31)
        MOV       R4,#0x4
        MOV       R5,#0x0
        MOV       R2,?V6
        MOV       R3,?V7
        MOV       R1,?V2
        LCALL     ??Subroutine106_0 & 0xFFFF
??CrossCallReturnLabel_232:
        LCALL     ?DEALLOC_XSTACK8
          CFI CFA_XSP16 add(XSP16, 20)
        MOV       A,R1
        MOV       ?V3,A
//  507     zcl_mem_free( buf );
        ; Setup parameters for call to function osal_mem_free
        MOV       R2,?V0
        MOV       R3,?V1
        LCALL     `??osal_mem_free::?relay`; Banked call to: osal_mem_free
        SJMP      ??zclGeneral_SendGroupGetMembershipRequest_6
//  508   }
//  509   else
//  510     status = ZMemError;
??zclGeneral_SendGroupGetMembershipRequest_1:
        MOV       ?V3,#0x10
//  511 
//  512   return ( status );
??zclGeneral_SendGroupGetMembershipRequest_6:
        MOV       R1,?V3
        LJMP      ?Subroutine2 & 0xFFFF
//  513 }
          CFI EndBlock cfiBlock34

        RSEG BANKED_CODE:HUGECODE:NOROOT(0)
?Subroutine52:
          CFI Block cfiCond35 Using cfiCommon0
          CFI Function zclGeneral_SendGroupGetMembershipRequest
          CFI Conditional ??CrossCallReturnLabel_171
          CFI R6 load(1, XDATA, add(CFA_XSP16, literal(-20)))
          CFI VB load(1, XDATA, add(CFA_XSP16, literal(-19)))
          CFI V0 load(1, XDATA, add(CFA_XSP16, literal(-18)))
          CFI V1 load(1, XDATA, add(CFA_XSP16, literal(-17)))
          CFI V2 load(1, XDATA, add(CFA_XSP16, literal(-16)))
          CFI V3 load(1, XDATA, add(CFA_XSP16, literal(-15)))
          CFI V4 load(1, XDATA, add(CFA_XSP16, literal(-14)))
          CFI V5 load(1, XDATA, add(CFA_XSP16, literal(-13)))
          CFI V6 load(1, XDATA, add(CFA_XSP16, literal(-12)))
          CFI V7 load(1, XDATA, add(CFA_XSP16, literal(-11)))
          CFI V8 load(1, XDATA, add(CFA_XSP16, literal(-10)))
          CFI V9 load(1, XDATA, add(CFA_XSP16, literal(-9)))
          CFI V10 load(1, XDATA, add(CFA_XSP16, literal(-8)))
          CFI V11 load(1, XDATA, add(CFA_XSP16, literal(-7)))
          CFI R7 load(1, XDATA, add(CFA_XSP16, literal(-6)))
          CFI ?RET_LOW load(1, XDATA, add(CFA_XSP16, literal(-5)))
          CFI ?RET_HIGH load(1, XDATA, add(CFA_XSP16, literal(-4)))
          CFI ?BRET_EXT load(1, XDATA, add(CFA_XSP16, literal(-3)))
          CFI DPL0 load(1, XDATA, add(CFA_XSP16, literal(-2)))
          CFI DPH0 load(1, XDATA, add(CFA_XSP16, literal(-1)))
          CFI CFA_SP SP+-2
          CFI CFA_XSP16 add(XSP16, 20)
          CFI Block cfiCond36 Using cfiCommon0
          CFI (cfiCond36) Function zclGeneral_SendSceneGetMembershipResponse
          CFI (cfiCond36) Conditional ??CrossCallReturnLabel_172
          CFI (cfiCond36) R6 load(1, XDATA, add(CFA_XSP16, literal(-18)))
          CFI (cfiCond36) VB load(1, XDATA, add(CFA_XSP16, literal(-17)))
          CFI (cfiCond36) V0 load(1, XDATA, add(CFA_XSP16, literal(-16)))
          CFI (cfiCond36) V1 load(1, XDATA, add(CFA_XSP16, literal(-15)))
          CFI (cfiCond36) V2 load(1, XDATA, add(CFA_XSP16, literal(-14)))
          CFI (cfiCond36) V3 load(1, XDATA, add(CFA_XSP16, literal(-13)))
          CFI (cfiCond36) V4 load(1, XDATA, add(CFA_XSP16, literal(-12)))
          CFI (cfiCond36) V5 load(1, XDATA, add(CFA_XSP16, literal(-11)))
          CFI (cfiCond36) V6 load(1, XDATA, add(CFA_XSP16, literal(-10)))
          CFI (cfiCond36) V7 load(1, XDATA, add(CFA_XSP16, literal(-9)))
          CFI (cfiCond36) V8 load(1, XDATA, add(CFA_XSP16, literal(-8)))
          CFI (cfiCond36) V9 load(1, XDATA, add(CFA_XSP16, literal(-7)))
          CFI (cfiCond36) R7 load(1, XDATA, add(CFA_XSP16, literal(-6)))
          CFI (cfiCond36) ?RET_LOW load(1, XDATA, add(CFA_XSP16, literal(-5)))
          CFI (cfiCond36) ?RET_HIGH load(1, XDATA, add(CFA_XSP16, literal(-4)))
          CFI (cfiCond36) ?BRET_EXT load(1, XDATA, add(CFA_XSP16, literal(-3)))
          CFI (cfiCond36) DPL0 load(1, XDATA, add(CFA_XSP16, literal(-2)))
          CFI (cfiCond36) DPH0 load(1, XDATA, add(CFA_XSP16, literal(-1)))
          CFI (cfiCond36) CFA_SP SP+-2
          CFI (cfiCond36) CFA_XSP16 add(XSP16, 18)
          CFI Block cfiPicker37 Using cfiCommon1
          CFI (cfiPicker37) NoFunction
          CFI (cfiPicker37) Picker
        MOV       DPH,A
          CFI EndBlock cfiCond35
          CFI EndBlock cfiCond36
          CFI EndBlock cfiPicker37
        REQUIRE ??Subroutine96_0
        ; // Fall through to label ??Subroutine96_0

        RSEG BANKED_CODE:HUGECODE:NOROOT(0)
??Subroutine96_0:
          CFI Block cfiCond38 Using cfiCommon0
          CFI Function zclGeneral_SendGroupViewResponse
          CFI Conditional ??CrossCallReturnLabel_170
          CFI R6 load(1, XDATA, add(CFA_XSP16, literal(-22)))
          CFI VB load(1, XDATA, add(CFA_XSP16, literal(-21)))
          CFI V0 load(1, XDATA, add(CFA_XSP16, literal(-20)))
          CFI V1 load(1, XDATA, add(CFA_XSP16, literal(-19)))
          CFI V2 load(1, XDATA, add(CFA_XSP16, literal(-18)))
          CFI V3 load(1, XDATA, add(CFA_XSP16, literal(-17)))
          CFI V4 load(1, XDATA, add(CFA_XSP16, literal(-16)))
          CFI V5 load(1, XDATA, add(CFA_XSP16, literal(-15)))
          CFI V6 load(1, XDATA, add(CFA_XSP16, literal(-14)))
          CFI V7 load(1, XDATA, add(CFA_XSP16, literal(-13)))
          CFI V8 load(1, XDATA, add(CFA_XSP16, literal(-12)))
          CFI V9 load(1, XDATA, add(CFA_XSP16, literal(-11)))
          CFI V10 load(1, XDATA, add(CFA_XSP16, literal(-10)))
          CFI V11 load(1, XDATA, add(CFA_XSP16, literal(-9)))
          CFI V12 load(1, XDATA, add(CFA_XSP16, literal(-8)))
          CFI V13 load(1, XDATA, add(CFA_XSP16, literal(-7)))
          CFI R7 load(1, XDATA, add(CFA_XSP16, literal(-6)))
          CFI ?RET_LOW load(1, XDATA, add(CFA_XSP16, literal(-5)))
          CFI ?RET_HIGH load(1, XDATA, add(CFA_XSP16, literal(-4)))
          CFI ?BRET_EXT load(1, XDATA, add(CFA_XSP16, literal(-3)))
          CFI DPL0 load(1, XDATA, add(CFA_XSP16, literal(-2)))
          CFI DPH0 load(1, XDATA, add(CFA_XSP16, literal(-1)))
          CFI CFA_SP SP+-2
          CFI CFA_XSP16 add(XSP16, 22)
          CFI Block cfiCond39 Using cfiCommon0
          CFI (cfiCond39) Function zclGeneral_SendGroupGetMembershipRequest
          CFI (cfiCond39) Conditional ??CrossCallReturnLabel_171
          CFI (cfiCond39) R6 load(1, XDATA, add(CFA_XSP16, literal(-20)))
          CFI (cfiCond39) VB load(1, XDATA, add(CFA_XSP16, literal(-19)))
          CFI (cfiCond39) V0 load(1, XDATA, add(CFA_XSP16, literal(-18)))
          CFI (cfiCond39) V1 load(1, XDATA, add(CFA_XSP16, literal(-17)))
          CFI (cfiCond39) V2 load(1, XDATA, add(CFA_XSP16, literal(-16)))
          CFI (cfiCond39) V3 load(1, XDATA, add(CFA_XSP16, literal(-15)))
          CFI (cfiCond39) V4 load(1, XDATA, add(CFA_XSP16, literal(-14)))
          CFI (cfiCond39) V5 load(1, XDATA, add(CFA_XSP16, literal(-13)))
          CFI (cfiCond39) V6 load(1, XDATA, add(CFA_XSP16, literal(-12)))
          CFI (cfiCond39) V7 load(1, XDATA, add(CFA_XSP16, literal(-11)))
          CFI (cfiCond39) V8 load(1, XDATA, add(CFA_XSP16, literal(-10)))
          CFI (cfiCond39) V9 load(1, XDATA, add(CFA_XSP16, literal(-9)))
          CFI (cfiCond39) V10 load(1, XDATA, add(CFA_XSP16, literal(-8)))
          CFI (cfiCond39) V11 load(1, XDATA, add(CFA_XSP16, literal(-7)))
          CFI (cfiCond39) R7 load(1, XDATA, add(CFA_XSP16, literal(-6)))
          CFI (cfiCond39) ?RET_LOW load(1, XDATA, add(CFA_XSP16, literal(-5)))
          CFI (cfiCond39) ?RET_HIGH load(1, XDATA, add(CFA_XSP16, literal(-4)))
          CFI (cfiCond39) ?BRET_EXT load(1, XDATA, add(CFA_XSP16, literal(-3)))
          CFI (cfiCond39) DPL0 load(1, XDATA, add(CFA_XSP16, literal(-2)))
          CFI (cfiCond39) DPH0 load(1, XDATA, add(CFA_XSP16, literal(-1)))
          CFI (cfiCond39) CFA_SP SP+-2
          CFI (cfiCond39) CFA_XSP16 add(XSP16, 20)
          CFI Block cfiCond40 Using cfiCommon0
          CFI (cfiCond40) Function zclGeneral_SendSceneGetMembershipResponse
          CFI (cfiCond40) Conditional ??CrossCallReturnLabel_172
          CFI (cfiCond40) R6 load(1, XDATA, add(CFA_XSP16, literal(-18)))
          CFI (cfiCond40) VB load(1, XDATA, add(CFA_XSP16, literal(-17)))
          CFI (cfiCond40) V0 load(1, XDATA, add(CFA_XSP16, literal(-16)))
          CFI (cfiCond40) V1 load(1, XDATA, add(CFA_XSP16, literal(-15)))
          CFI (cfiCond40) V2 load(1, XDATA, add(CFA_XSP16, literal(-14)))
          CFI (cfiCond40) V3 load(1, XDATA, add(CFA_XSP16, literal(-13)))
          CFI (cfiCond40) V4 load(1, XDATA, add(CFA_XSP16, literal(-12)))
          CFI (cfiCond40) V5 load(1, XDATA, add(CFA_XSP16, literal(-11)))
          CFI (cfiCond40) V6 load(1, XDATA, add(CFA_XSP16, literal(-10)))
          CFI (cfiCond40) V7 load(1, XDATA, add(CFA_XSP16, literal(-9)))
          CFI (cfiCond40) V8 load(1, XDATA, add(CFA_XSP16, literal(-8)))
          CFI (cfiCond40) V9 load(1, XDATA, add(CFA_XSP16, literal(-7)))
          CFI (cfiCond40) R7 load(1, XDATA, add(CFA_XSP16, literal(-6)))
          CFI (cfiCond40) ?RET_LOW load(1, XDATA, add(CFA_XSP16, literal(-5)))
          CFI (cfiCond40) ?RET_HIGH load(1, XDATA, add(CFA_XSP16, literal(-4)))
          CFI (cfiCond40) ?BRET_EXT load(1, XDATA, add(CFA_XSP16, literal(-3)))
          CFI (cfiCond40) DPL0 load(1, XDATA, add(CFA_XSP16, literal(-2)))
          CFI (cfiCond40) DPH0 load(1, XDATA, add(CFA_XSP16, literal(-1)))
          CFI (cfiCond40) CFA_SP SP+-2
          CFI (cfiCond40) CFA_XSP16 add(XSP16, 18)
          CFI Block cfiPicker41 Using cfiCommon1
          CFI (cfiPicker41) NoFunction
          CFI (cfiPicker41) Picker
        MOVX      A,@DPTR
        MOV       DPL,R0
        MOV       DPH,R1
        MOVX      @DPTR,A
        RET
          CFI EndBlock cfiCond38
          CFI EndBlock cfiCond39
          CFI EndBlock cfiCond40
          CFI EndBlock cfiPicker41
//  514 
//  515 /*********************************************************************
//  516  * @fn      zclGeneral_SendGroupResponse
//  517  *
//  518  * @brief   Send Group Response (not Group View Response)
//  519  *
//  520  * @param   srcEP - Sending application's endpoint
//  521  * @param   dstAddr - where you want the message to go
//  522  * @param   cmd - either COMMAND_GROUP_ADD_RSP or COMMAND_GROUP_REMOVE_RSP
//  523  * @param   status - group command status
//  524  * @param   groupID - what group
//  525  *
//  526  * @return  ZStatus_t
//  527  */

        RSEG BANKED_CODE:HUGECODE:NOROOT(0)
//  528 ZStatus_t zclGeneral_SendGroupResponse( uint8 srcEP, afAddrType_t *dstAddr,
zclGeneral_SendGroupResponse:
          CFI Block cfiBlock42 Using cfiCommon0
          CFI Function zclGeneral_SendGroupResponse
        CODE
//  529                                         uint8 cmd, uint8 status, uint16 groupID,
//  530                                         uint8 disableDefaultRsp, uint8 seqNum )
//  531 {
        FUNCALL zclGeneral_SendGroupResponse, zcl_SendCommand
        LOCFRAME ISTACK, 0, STACK
        LOCFRAME PSTACK, 0, STACK
        LOCFRAME XSTACK, 26, STACK
        LOCFRAME IOVERLAY, 0, STATIC
        LOCFRAME DOVERLAY, 0, STATIC
        ARGFRAME ISTACK, 0, STACK
        ARGFRAME PSTACK, 0, STACK
        ARGFRAME XSTACK, 26, STACK
        ARGFRAME IOVERLAY, 0, STATIC
        ARGFRAME DOVERLAY, 0, STATIC
        REQUIRE ?V0
        REQUIRE ?V1
        REQUIRE ?V2
        REQUIRE ?V3
        MOV       A,#-0xc
        LCALL     ?BANKED_ENTER_XDATA
          CFI DPH0 load(1, XDATA, add(CFA_XSP16, literal(-1)))
          CFI DPL0 load(1, XDATA, add(CFA_XSP16, literal(-2)))
          CFI ?BRET_EXT load(1, XDATA, add(CFA_XSP16, literal(-3)))
          CFI ?RET_HIGH load(1, XDATA, add(CFA_XSP16, literal(-4)))
          CFI ?RET_LOW load(1, XDATA, add(CFA_XSP16, literal(-5)))
          CFI R7 load(1, XDATA, add(CFA_XSP16, literal(-6)))
          CFI V3 load(1, XDATA, add(CFA_XSP16, literal(-7)))
          CFI V2 load(1, XDATA, add(CFA_XSP16, literal(-8)))
          CFI V1 load(1, XDATA, add(CFA_XSP16, literal(-9)))
          CFI V0 load(1, XDATA, add(CFA_XSP16, literal(-10)))
          CFI VB load(1, XDATA, add(CFA_XSP16, literal(-11)))
          CFI R6 load(1, XDATA, add(CFA_XSP16, literal(-12)))
          CFI CFA_SP SP+0
          CFI CFA_XSP16 add(XSP16, 12)
        ; Saved register size: 12
        ; Auto size: 3
        MOV       A,#-0x3
        LCALL     ?ALLOC_XSTACK8
          CFI CFA_XSP16 add(XSP16, 15)
        MOV       A,R1
        MOV       R6,A
//  532   uint8 buf[3];
//  533 
//  534   buf[0] = status;
        MOV       DPL,?XSP + 0
        MOV       DPH,?XSP + 1
        MOV       A,R5
        MOVX      @DPTR,A
        MOV       A,#0xf
        LCALL     ?XSTACK_DISP0_8
        LCALL     ?Subroutine37 & 0xFFFF
//  535   buf[1] = LO_UINT16( groupID );
??CrossCallReturnLabel_55:
        LCALL     ?XSTACK_DISP0_8
        MOV       A,R0
        MOVX      @DPTR,A
//  536   buf[2] = HI_UINT16( groupID );
        MOV       A,#0x2
        LCALL     ?XSTACK_DISP0_8
        LCALL     ?Subroutine55 & 0xFFFF
//  537 
//  538   return zcl_SendCommand( srcEP, dstAddr, ZCL_CLUSTER_ID_GEN_GROUPS,
//  539                           cmd, TRUE, ZCL_FRAME_SERVER_CLIENT_DIR,
//  540                           disableDefaultRsp, 0, seqNum, 3, buf );
??CrossCallReturnLabel_164:
        LCALL     ?PUSH_XSTACK_I_TWO
          CFI CFA_XSP16 add(XSP16, 17)
        MOV       ?V2,#0x3
        MOV       ?V3,#0x0
        MOV       R0,#?V2
        LCALL     ?PUSH_XSTACK_I_TWO
          CFI CFA_XSP16 add(XSP16, 19)
        MOV       A,#0x16
        LCALL     ?XSTACK_DISP0_8
        LCALL     ??Subroutine99_0 & 0xFFFF
??CrossCallReturnLabel_191:
        LCALL     ?PUSH_XSTACK_I_ONE
          CFI CFA_XSP16 add(XSP16, 20)
        CLR       A
        MOV       ?V2,A
        MOV       R0,#?V2
        LCALL     ?PUSH_XSTACK_I_TWO
          CFI CFA_XSP16 add(XSP16, 22)
        MOV       A,#0x18
        LCALL     ?XSTACK_DISP0_8
        LCALL     ??Subroutine99_0 & 0xFFFF
??CrossCallReturnLabel_192:
        LCALL     ?PUSH_XSTACK_I_ONE
          CFI CFA_XSP16 add(XSP16, 23)
        MOV       ?V1,#0x1
        MOV       R0,#?V1
        LCALL     ?PUSH_XSTACK_I_ONE
          CFI CFA_XSP16 add(XSP16, 24)
        MOV       R0,#?V1
        LCALL     ?PUSH_XSTACK_I_ONE
          CFI CFA_XSP16 add(XSP16, 25)
        MOV       A,R4
        MOV       ?V1,A
        MOV       R0,#?V1
        LCALL     ?PUSH_XSTACK_I_ONE
          CFI CFA_XSP16 add(XSP16, 26)
        MOV       R4,#0x4
          CFI EndBlock cfiBlock42
        REQUIRE ?Subroutine8
        ; // Fall through to label ?Subroutine8
//  541 }

        RSEG BANKED_CODE:HUGECODE:NOROOT(0)
?Subroutine8:
          CFI Block cfiBlock43 Using cfiCommon0
          CFI NoFunction
          CFI CFA_SP SP+0
          CFI CFA_XSP16 add(XSP16, 26)
          CFI VB load(1, XDATA, add(CFA_XSP16, literal(-11)))
          CFI DPL0 load(1, XDATA, add(CFA_XSP16, literal(-2)))
          CFI DPH0 load(1, XDATA, add(CFA_XSP16, literal(-1)))
          CFI R6 load(1, XDATA, add(CFA_XSP16, literal(-12)))
          CFI R7 load(1, XDATA, add(CFA_XSP16, literal(-6)))
          CFI V0 load(1, XDATA, add(CFA_XSP16, literal(-10)))
          CFI V1 load(1, XDATA, add(CFA_XSP16, literal(-9)))
          CFI V2 load(1, XDATA, add(CFA_XSP16, literal(-8)))
          CFI V3 load(1, XDATA, add(CFA_XSP16, literal(-7)))
          CFI ?BRET_EXT load(1, XDATA, add(CFA_XSP16, literal(-3)))
          CFI ?RET_HIGH load(1, XDATA, add(CFA_XSP16, literal(-4)))
          CFI ?RET_LOW load(1, XDATA, add(CFA_XSP16, literal(-5)))
        LCALL     ??Subroutine105_0 & 0xFFFF
??CrossCallReturnLabel_229:
        LCALL     ?DEALLOC_XSTACK8
          CFI CFA_XSP16 add(XSP16, 15)
        MOV       A,#0x3
        LJMP      ??Subroutine101_0 & 0xFFFF
          CFI EndBlock cfiBlock43
//  542 
//  543 /*********************************************************************
//  544  * @fn      zclGeneral_SendGroupViewResponse
//  545  *
//  546  * @brief   Call to send Group Response Command
//  547  *
//  548  * @param   srcEP - Sending application's endpoint
//  549  * @param   dstAddr - where you want the message to go
//  550  * @param   cmd - either COMMAND_GROUP_ADD_RSP or COMMAND_GROUP_REMOVE_RSP
//  551  * @param   status - group command status
//  552  * @param   grp - group info
//  553  *
//  554  * @return  ZStatus_t
//  555  */

        RSEG BANKED_CODE:HUGECODE:NOROOT(0)
//  556 ZStatus_t zclGeneral_SendGroupViewResponse( uint8 srcEP, afAddrType_t *dstAddr,
zclGeneral_SendGroupViewResponse:
          CFI Block cfiBlock44 Using cfiCommon0
          CFI Function zclGeneral_SendGroupViewResponse
        CODE
//  557                                             uint8 status, aps_Group_t *grp, uint8 disableDefaultRsp, uint8 seqNum )
//  558 {
        FUNCALL zclGeneral_SendGroupViewResponse, osal_mem_alloc
        LOCFRAME ISTACK, 0, STACK
        LOCFRAME PSTACK, 0, STACK
        LOCFRAME XSTACK, 22, STACK
        LOCFRAME IOVERLAY, 0, STATIC
        LOCFRAME DOVERLAY, 0, STATIC
        ARGFRAME ISTACK, 0, STACK
        ARGFRAME PSTACK, 0, STACK
        ARGFRAME XSTACK, 22, STACK
        ARGFRAME IOVERLAY, 0, STATIC
        ARGFRAME DOVERLAY, 0, STATIC
        FUNCALL zclGeneral_SendGroupViewResponse, osal_memcpy
        LOCFRAME ISTACK, 0, STACK
        LOCFRAME PSTACK, 0, STACK
        LOCFRAME XSTACK, 25, STACK
        LOCFRAME IOVERLAY, 0, STATIC
        LOCFRAME DOVERLAY, 0, STATIC
        ARGFRAME ISTACK, 0, STACK
        ARGFRAME PSTACK, 0, STACK
        ARGFRAME XSTACK, 25, STACK
        ARGFRAME IOVERLAY, 0, STATIC
        ARGFRAME DOVERLAY, 0, STATIC
        FUNCALL zclGeneral_SendGroupViewResponse, zcl_SendCommand
        LOCFRAME ISTACK, 0, STACK
        LOCFRAME PSTACK, 0, STACK
        LOCFRAME XSTACK, 33, STACK
        LOCFRAME IOVERLAY, 0, STATIC
        LOCFRAME DOVERLAY, 0, STATIC
        ARGFRAME ISTACK, 0, STACK
        ARGFRAME PSTACK, 0, STACK
        ARGFRAME XSTACK, 33, STACK
        ARGFRAME IOVERLAY, 0, STATIC
        ARGFRAME DOVERLAY, 0, STATIC
        FUNCALL zclGeneral_SendGroupViewResponse, osal_mem_free
        LOCFRAME ISTACK, 0, STACK
        LOCFRAME PSTACK, 0, STACK
        LOCFRAME XSTACK, 22, STACK
        LOCFRAME IOVERLAY, 0, STATIC
        LOCFRAME DOVERLAY, 0, STATIC
        ARGFRAME ISTACK, 0, STACK
        ARGFRAME PSTACK, 0, STACK
        ARGFRAME XSTACK, 22, STACK
        ARGFRAME IOVERLAY, 0, STATIC
        ARGFRAME DOVERLAY, 0, STATIC
        REQUIRE ?V0
        REQUIRE ?V1
        REQUIRE ?V2
        REQUIRE ?V3
        REQUIRE ?V4
        REQUIRE ?V5
        REQUIRE ?V6
        REQUIRE ?V7
        REQUIRE ?V8
        REQUIRE ?V9
        REQUIRE ?V10
        REQUIRE ?V11
        REQUIRE ?V12
        REQUIRE ?V13
        MOV       A,#-0x16
        LCALL     ?BANKED_ENTER_XDATA
          CFI DPH0 load(1, XDATA, add(CFA_XSP16, literal(-1)))
          CFI DPL0 load(1, XDATA, add(CFA_XSP16, literal(-2)))
          CFI ?BRET_EXT load(1, XDATA, add(CFA_XSP16, literal(-3)))
          CFI ?RET_HIGH load(1, XDATA, add(CFA_XSP16, literal(-4)))
          CFI ?RET_LOW load(1, XDATA, add(CFA_XSP16, literal(-5)))
          CFI R7 load(1, XDATA, add(CFA_XSP16, literal(-6)))
          CFI V13 load(1, XDATA, add(CFA_XSP16, literal(-7)))
          CFI V12 load(1, XDATA, add(CFA_XSP16, literal(-8)))
          CFI V11 load(1, XDATA, add(CFA_XSP16, literal(-9)))
          CFI V10 load(1, XDATA, add(CFA_XSP16, literal(-10)))
          CFI V9 load(1, XDATA, add(CFA_XSP16, literal(-11)))
          CFI V8 load(1, XDATA, add(CFA_XSP16, literal(-12)))
          CFI V7 load(1, XDATA, add(CFA_XSP16, literal(-13)))
          CFI V6 load(1, XDATA, add(CFA_XSP16, literal(-14)))
          CFI V5 load(1, XDATA, add(CFA_XSP16, literal(-15)))
          CFI V4 load(1, XDATA, add(CFA_XSP16, literal(-16)))
          CFI V3 load(1, XDATA, add(CFA_XSP16, literal(-17)))
          CFI V2 load(1, XDATA, add(CFA_XSP16, literal(-18)))
          CFI V1 load(1, XDATA, add(CFA_XSP16, literal(-19)))
          CFI V0 load(1, XDATA, add(CFA_XSP16, literal(-20)))
          CFI VB load(1, XDATA, add(CFA_XSP16, literal(-21)))
          CFI R6 load(1, XDATA, add(CFA_XSP16, literal(-22)))
          CFI CFA_SP SP+0
          CFI CFA_XSP16 add(XSP16, 22)
        ; Saved register size: 22
        ; Auto size: 0
        MOV       ?V8,R1
        MOV       ?V12,R2
        MOV       ?V13,R3
        MOV       ?V7,R4
        MOV       ?V9,R5
//  559   uint8 *buf;
//  560   uint8 len;
//  561   ZStatus_t stat;
//  562 
//  563   len = 1 + 2 + 1; // Status + Group ID + name length
        MOV       R0,#0x4
        MOV       A,#0x16
        LCALL     ?XSTACK_DISP0_8
        MOVX      A,@DPTR
        MOV       ?V4,A
        INC       DPTR
        MOVX      A,@DPTR
        MOV       ?V5,A
//  564 
//  565   if ( status == ZCL_STATUS_SUCCESS )
        MOV       A,?V4
        ADD       A,#0x2
        MOV       ?V2,A
        CLR       A
        ADDC      A,?V5
        MOV       ?V3,A
        MOV       A,R4
        JNZ       ??zclGeneral_SendGroupViewResponse_0
//  566   {
//  567     len += grp->name[0];  // String length
        MOV       DPL,?V2
        MOV       DPH,?V3
        MOVX      A,@DPTR
        ADD       A,R0
        MOV       R0,A
//  568   }
//  569 
//  570   buf = zcl_mem_alloc( len );
??zclGeneral_SendGroupViewResponse_0:
        MOV       A,R0
        MOV       R6,A
        ; Setup parameters for call to function osal_mem_alloc
        MOV       R2,A
        MOV       R3,#0x0
        LCALL     ??Subroutine103_0 & 0xFFFF
//  571   if ( buf )
??CrossCallReturnLabel_216:
        JNZ       $+5
        LJMP      ??zclGeneral_SendGroupViewResponse_1 & 0xFFFF
//  572   {
//  573     buf[0] = status;
        MOV       DPL,R2
        MOV       DPH,R3
        MOV       A,?V7
        MOVX      @DPTR,A
//  574     buf[1] = LO_UINT16( grp->ID );
        MOV       DPL,?V4
        MOV       DPH,?V5
        LCALL     ?Subroutine85 & 0xFFFF
??CrossCallReturnLabel_180:
        MOVX      @DPTR,A
//  575     buf[2] = HI_UINT16( grp->ID );
        MOV       DPL,?V4
        MOV       DPH,?V5
        LCALL     ?Subroutine29 & 0xFFFF
//  576 
//  577     if ( status == ZCL_STATUS_SUCCESS )
??CrossCallReturnLabel_177:
        MOV       A,R2
        ADD       A,#0x3
        MOV       R0,A
        CLR       A
        ADDC      A,?V1
        MOV       R1,A
        MOV       A,?V7
        JNZ       ??zclGeneral_SendGroupViewResponse_2
//  578     {
//  579       buf[3] = grp->name[0]; // string length
        MOV       DPL,?V2
        MOV       DPH,?V3
        LCALL     ??Subroutine96_0 & 0xFFFF
//  580       zcl_memcpy( &buf[4], (&grp->name[1]), grp->name[0] );
??CrossCallReturnLabel_170:
        ; Setup parameters for call to function osal_memcpy
        MOV       DPL,?V4
        MOV       DPH,?V5
        INC       DPTR
        INC       DPTR
        INC       DPTR
        MOV       R1,DPL
        MOV       R2,DPH
        MOV       ?V4,R1
        MOV       ?V5,R2
        MOV       ?V6,#0x0
        MOV       R0,#?V4
        LCALL     ?PUSH_XSTACK_I_THREE
          CFI CFA_XSP16 add(XSP16, 25)
        MOV       DPL,?V2
        MOV       DPH,?V3
        MOVX      A,@DPTR
        MOV       R4,A
        MOV       R5,#0x0
        MOV       A,?V0
        ADD       A,#0x4
        LCALL     ?Subroutine71 & 0xFFFF
//  581     }
??CrossCallReturnLabel_123:
        LCALL     ?DEALLOC_XSTACK8
          CFI CFA_XSP16 add(XSP16, 22)
        SJMP      ??zclGeneral_SendGroupViewResponse_3
//  582     else //ZCL_STATUS_NOT_FOUND
//  583     {
//  584       buf[3] = 0;
??zclGeneral_SendGroupViewResponse_2:
        MOV       DPL,R0
        MOV       DPH,R1
        CLR       A
        MOVX      @DPTR,A
//  585     }
//  586 
//  587     stat = zcl_SendCommand( srcEP, dstAddr, ZCL_CLUSTER_ID_GEN_GROUPS,
//  588                             COMMAND_GROUP_VIEW_RSP, TRUE, ZCL_FRAME_SERVER_CLIENT_DIR,
//  589                             disableDefaultRsp, 0, seqNum, len, buf );
??zclGeneral_SendGroupViewResponse_3:
        ; Setup parameters for call to function zcl_SendCommand
        MOV       R0,#?V0
        LCALL     ?PUSH_XSTACK_I_TWO
          CFI CFA_XSP16 add(XSP16, 24)
        MOV       ?V2,R6
        MOV       ?V3,#0x0
        MOV       R0,#?V2
        LCALL     ?PUSH_XSTACK_I_TWO
          CFI CFA_XSP16 add(XSP16, 26)
        MOV       A,#0x1c
        LCALL     ?XSTACK_DISP0_8
        LCALL     ?Subroutine38 & 0xFFFF
??CrossCallReturnLabel_59:
        LCALL     ?PUSH_XSTACK_I_ONE
          CFI CFA_XSP16 add(XSP16, 27)
        CLR       A
        MOV       ?V2,A
        MOV       R0,#?V2
        LCALL     ?PUSH_XSTACK_I_TWO
          CFI CFA_XSP16 add(XSP16, 29)
        MOV       A,?V9
        MOV       ?V2,A
        MOV       R0,#?V2
        LCALL     ?PUSH_XSTACK_I_ONE
          CFI CFA_XSP16 add(XSP16, 30)
        MOV       ?V2,#0x1
        MOV       R0,#?V2
        LCALL     ?PUSH_XSTACK_I_ONE
          CFI CFA_XSP16 add(XSP16, 31)
        MOV       R0,#?V2
        LCALL     ?PUSH_XSTACK_I_ONE
          CFI CFA_XSP16 add(XSP16, 32)
        MOV       R0,#?V2
        LCALL     ?PUSH_XSTACK_I_ONE
          CFI CFA_XSP16 add(XSP16, 33)
        MOV       R4,#0x4
        MOV       R5,#0x0
        MOV       R2,?V12
        MOV       R3,?V13
        MOV       R1,?V8
        LCALL     ??Subroutine106_0 & 0xFFFF
??CrossCallReturnLabel_233:
        LCALL     ?DEALLOC_XSTACK8
          CFI CFA_XSP16 add(XSP16, 22)
        MOV       A,R1
        MOV       R6,A
//  590     zcl_mem_free( buf );
        ; Setup parameters for call to function osal_mem_free
        MOV       R2,?V0
        MOV       R3,?V1
        LCALL     `??osal_mem_free::?relay`; Banked call to: osal_mem_free
        SJMP      ??zclGeneral_SendGroupViewResponse_4
//  591   }
//  592   else
//  593   {
//  594     stat = ZMemError;
??zclGeneral_SendGroupViewResponse_1:
        MOV       R6,#0x10
//  595   }
//  596 
//  597   return ( stat );
??zclGeneral_SendGroupViewResponse_4:
        MOV       A,R6
        MOV       R1,A
        LJMP      ??Subroutine114_0 & 0xFFFF
//  598 }
          CFI EndBlock cfiBlock44

        RSEG BANKED_CODE:HUGECODE:NOROOT(0)
?Subroutine71:
          CFI Block cfiCond45 Using cfiCommon0
          CFI Function zclGeneral_SendAddGroupRequest
          CFI Conditional ??CrossCallReturnLabel_122
          CFI R6 load(1, XDATA, add(CFA_XSP16, literal(-20)))
          CFI VB load(1, XDATA, add(CFA_XSP16, literal(-19)))
          CFI V0 load(1, XDATA, add(CFA_XSP16, literal(-18)))
          CFI V1 load(1, XDATA, add(CFA_XSP16, literal(-17)))
          CFI V2 load(1, XDATA, add(CFA_XSP16, literal(-16)))
          CFI V3 load(1, XDATA, add(CFA_XSP16, literal(-15)))
          CFI V4 load(1, XDATA, add(CFA_XSP16, literal(-14)))
          CFI V5 load(1, XDATA, add(CFA_XSP16, literal(-13)))
          CFI V6 load(1, XDATA, add(CFA_XSP16, literal(-12)))
          CFI V7 load(1, XDATA, add(CFA_XSP16, literal(-11)))
          CFI V8 load(1, XDATA, add(CFA_XSP16, literal(-10)))
          CFI V9 load(1, XDATA, add(CFA_XSP16, literal(-9)))
          CFI V10 load(1, XDATA, add(CFA_XSP16, literal(-8)))
          CFI V11 load(1, XDATA, add(CFA_XSP16, literal(-7)))
          CFI R7 load(1, XDATA, add(CFA_XSP16, literal(-6)))
          CFI ?RET_LOW load(1, XDATA, add(CFA_XSP16, literal(-5)))
          CFI ?RET_HIGH load(1, XDATA, add(CFA_XSP16, literal(-4)))
          CFI ?BRET_EXT load(1, XDATA, add(CFA_XSP16, literal(-3)))
          CFI DPL0 load(1, XDATA, add(CFA_XSP16, literal(-2)))
          CFI DPH0 load(1, XDATA, add(CFA_XSP16, literal(-1)))
          CFI CFA_SP SP+-2
          CFI CFA_XSP16 add(XSP16, 24)
          CFI Block cfiCond46 Using cfiCommon0
          CFI (cfiCond46) Function zclGeneral_SendGroupViewResponse
          CFI (cfiCond46) Conditional ??CrossCallReturnLabel_123
          CFI (cfiCond46) R6 load(1, XDATA, add(CFA_XSP16, literal(-22)))
          CFI (cfiCond46) VB load(1, XDATA, add(CFA_XSP16, literal(-21)))
          CFI (cfiCond46) V0 load(1, XDATA, add(CFA_XSP16, literal(-20)))
          CFI (cfiCond46) V1 load(1, XDATA, add(CFA_XSP16, literal(-19)))
          CFI (cfiCond46) V2 load(1, XDATA, add(CFA_XSP16, literal(-18)))
          CFI (cfiCond46) V3 load(1, XDATA, add(CFA_XSP16, literal(-17)))
          CFI (cfiCond46) V4 load(1, XDATA, add(CFA_XSP16, literal(-16)))
          CFI (cfiCond46) V5 load(1, XDATA, add(CFA_XSP16, literal(-15)))
          CFI (cfiCond46) V6 load(1, XDATA, add(CFA_XSP16, literal(-14)))
          CFI (cfiCond46) V7 load(1, XDATA, add(CFA_XSP16, literal(-13)))
          CFI (cfiCond46) V8 load(1, XDATA, add(CFA_XSP16, literal(-12)))
          CFI (cfiCond46) V9 load(1, XDATA, add(CFA_XSP16, literal(-11)))
          CFI (cfiCond46) V10 load(1, XDATA, add(CFA_XSP16, literal(-10)))
          CFI (cfiCond46) V11 load(1, XDATA, add(CFA_XSP16, literal(-9)))
          CFI (cfiCond46) V12 load(1, XDATA, add(CFA_XSP16, literal(-8)))
          CFI (cfiCond46) V13 load(1, XDATA, add(CFA_XSP16, literal(-7)))
          CFI (cfiCond46) R7 load(1, XDATA, add(CFA_XSP16, literal(-6)))
          CFI (cfiCond46) ?RET_LOW load(1, XDATA, add(CFA_XSP16, literal(-5)))
          CFI (cfiCond46) ?RET_HIGH load(1, XDATA, add(CFA_XSP16, literal(-4)))
          CFI (cfiCond46) ?BRET_EXT load(1, XDATA, add(CFA_XSP16, literal(-3)))
          CFI (cfiCond46) DPL0 load(1, XDATA, add(CFA_XSP16, literal(-2)))
          CFI (cfiCond46) DPH0 load(1, XDATA, add(CFA_XSP16, literal(-1)))
          CFI (cfiCond46) CFA_SP SP+-2
          CFI (cfiCond46) CFA_XSP16 add(XSP16, 25)
          CFI Block cfiPicker47 Using cfiCommon1
          CFI (cfiPicker47) NoFunction
          CFI (cfiPicker47) Picker
        MOV       R2,A
        CLR       A
        ADDC      A,?V1
        MOV       R3,A
        LCALL     `??osal_memcpy::?relay`; Banked call to: osal_memcpy
        MOV       A,#0x3
        RET
          CFI EndBlock cfiCond45
          CFI EndBlock cfiCond46
          CFI EndBlock cfiPicker47
//  599 #endif // ZCL_GROUPS
//  600 
//  601 #ifdef ZCL_SCENES
//  602 /*********************************************************************
//  603  * @fn      zclGeneral_SendAddSceneRequest
//  604  *
//  605  * @brief   Send the (Enhanced) Add Scene Request to a device. You can
//  606  *           also use the appropriate macro.
//  607  *
//  608  * @param   srcEP - Sending Apps endpoint
//  609  * @param   dstAddr - where to send the request
//  610  * @param   scene - pointer to the scene structure
//  611  * @param  cmd - COMMAND_SCENE_ADD or COMMAND_SCENE_ENHANCED_ADD
//  612  * @param   disableDefaultRsp - whether to disable the Default Response command
//  613  * @param   seqNum - sequence number
//  614  *
//  615  * @return  ZStatus_t
//  616  */

        RSEG BANKED_CODE:HUGECODE:NOROOT(0)
//  617 ZStatus_t zclGeneral_SendAddSceneRequest( uint8 srcEP, afAddrType_t *dstAddr,
zclGeneral_SendAddSceneRequest:
          CFI Block cfiBlock48 Using cfiCommon0
          CFI Function zclGeneral_SendAddSceneRequest
        CODE
//  618                                           uint8 cmd, zclGeneral_Scene_t *scene,
//  619                                           uint8 disableDefaultRsp, uint8 seqNum )
//  620 {
        FUNCALL zclGeneral_SendAddSceneRequest, osal_mem_alloc
        LOCFRAME ISTACK, 0, STACK
        LOCFRAME PSTACK, 0, STACK
        LOCFRAME XSTACK, 27, STACK
        LOCFRAME IOVERLAY, 0, STATIC
        LOCFRAME DOVERLAY, 0, STATIC
        ARGFRAME ISTACK, 0, STACK
        ARGFRAME PSTACK, 0, STACK
        ARGFRAME XSTACK, 27, STACK
        ARGFRAME IOVERLAY, 0, STATIC
        ARGFRAME DOVERLAY, 0, STATIC
        FUNCALL zclGeneral_SendAddSceneRequest, osal_memcpy
        LOCFRAME ISTACK, 0, STACK
        LOCFRAME PSTACK, 0, STACK
        LOCFRAME XSTACK, 30, STACK
        LOCFRAME IOVERLAY, 0, STATIC
        LOCFRAME DOVERLAY, 0, STATIC
        ARGFRAME ISTACK, 0, STACK
        ARGFRAME PSTACK, 0, STACK
        ARGFRAME XSTACK, 30, STACK
        ARGFRAME IOVERLAY, 0, STATIC
        ARGFRAME DOVERLAY, 0, STATIC
        FUNCALL zclGeneral_SendAddSceneRequest, osal_memcpy
        LOCFRAME ISTACK, 0, STACK
        LOCFRAME PSTACK, 0, STACK
        LOCFRAME XSTACK, 30, STACK
        LOCFRAME IOVERLAY, 0, STATIC
        LOCFRAME DOVERLAY, 0, STATIC
        ARGFRAME ISTACK, 0, STACK
        ARGFRAME PSTACK, 0, STACK
        ARGFRAME XSTACK, 30, STACK
        ARGFRAME IOVERLAY, 0, STATIC
        ARGFRAME DOVERLAY, 0, STATIC
        FUNCALL zclGeneral_SendAddSceneRequest, zcl_SendCommand
        LOCFRAME ISTACK, 0, STACK
        LOCFRAME PSTACK, 0, STACK
        LOCFRAME XSTACK, 38, STACK
        LOCFRAME IOVERLAY, 0, STATIC
        LOCFRAME DOVERLAY, 0, STATIC
        ARGFRAME ISTACK, 0, STACK
        ARGFRAME PSTACK, 0, STACK
        ARGFRAME XSTACK, 38, STACK
        ARGFRAME IOVERLAY, 0, STATIC
        ARGFRAME DOVERLAY, 0, STATIC
        FUNCALL zclGeneral_SendAddSceneRequest, osal_mem_free
        LOCFRAME ISTACK, 0, STACK
        LOCFRAME PSTACK, 0, STACK
        LOCFRAME XSTACK, 27, STACK
        LOCFRAME IOVERLAY, 0, STATIC
        LOCFRAME DOVERLAY, 0, STATIC
        ARGFRAME ISTACK, 0, STACK
        ARGFRAME PSTACK, 0, STACK
        ARGFRAME XSTACK, 27, STACK
        ARGFRAME IOVERLAY, 0, STATIC
        ARGFRAME DOVERLAY, 0, STATIC
        REQUIRE ?V0
        REQUIRE ?V1
        REQUIRE ?V2
        REQUIRE ?V3
        REQUIRE ?V4
        REQUIRE ?V5
        REQUIRE ?V6
        REQUIRE ?V7
        REQUIRE ?V8
        REQUIRE ?V9
        REQUIRE ?V10
        REQUIRE ?V11
        REQUIRE ?V12
        REQUIRE ?V13
        REQUIRE ?V14
        REQUIRE ?V15
        MOV       A,#-0x18
        LCALL     ?BANKED_ENTER_XDATA
          CFI DPH0 load(1, XDATA, add(CFA_XSP16, literal(-1)))
          CFI DPL0 load(1, XDATA, add(CFA_XSP16, literal(-2)))
          CFI ?BRET_EXT load(1, XDATA, add(CFA_XSP16, literal(-3)))
          CFI ?RET_HIGH load(1, XDATA, add(CFA_XSP16, literal(-4)))
          CFI ?RET_LOW load(1, XDATA, add(CFA_XSP16, literal(-5)))
          CFI R7 load(1, XDATA, add(CFA_XSP16, literal(-6)))
          CFI V15 load(1, XDATA, add(CFA_XSP16, literal(-7)))
          CFI V14 load(1, XDATA, add(CFA_XSP16, literal(-8)))
          CFI V13 load(1, XDATA, add(CFA_XSP16, literal(-9)))
          CFI V12 load(1, XDATA, add(CFA_XSP16, literal(-10)))
          CFI V11 load(1, XDATA, add(CFA_XSP16, literal(-11)))
          CFI V10 load(1, XDATA, add(CFA_XSP16, literal(-12)))
          CFI V9 load(1, XDATA, add(CFA_XSP16, literal(-13)))
          CFI V8 load(1, XDATA, add(CFA_XSP16, literal(-14)))
          CFI V7 load(1, XDATA, add(CFA_XSP16, literal(-15)))
          CFI V6 load(1, XDATA, add(CFA_XSP16, literal(-16)))
          CFI V5 load(1, XDATA, add(CFA_XSP16, literal(-17)))
          CFI V4 load(1, XDATA, add(CFA_XSP16, literal(-18)))
          CFI V3 load(1, XDATA, add(CFA_XSP16, literal(-19)))
          CFI V2 load(1, XDATA, add(CFA_XSP16, literal(-20)))
          CFI V1 load(1, XDATA, add(CFA_XSP16, literal(-21)))
          CFI V0 load(1, XDATA, add(CFA_XSP16, literal(-22)))
          CFI VB load(1, XDATA, add(CFA_XSP16, literal(-23)))
          CFI R6 load(1, XDATA, add(CFA_XSP16, literal(-24)))
          CFI CFA_SP SP+0
          CFI CFA_XSP16 add(XSP16, 24)
        ; Saved register size: 24
        ; Auto size: 3
        MOV       A,#-0x3
        LCALL     ?ALLOC_XSTACK8
          CFI CFA_XSP16 add(XSP16, 27)
        MOV       A,#0x1
        LCALL     ?XSTACK_DISP0_8
        LCALL     ?Subroutine62 & 0xFFFF
??CrossCallReturnLabel_222:
        MOV       ?V7,R1
        MOV       ?V15,R4
        MOV       ?V14,R5
        MOV       A,#0x1b
        LCALL     ?XSTACK_DISP0_8
        LCALL     ?Subroutine30 & 0xFFFF
//  621   uint8 *buf;
//  622   uint8 *pBuf;
//  623   uint8 len;
//  624   ZStatus_t status;
//  625 
//  626   len = 2 + 1 + 2;    // Group ID + Scene ID + transition time
//  627   len += scene->name[0] + 1; // String + 1 for length
//  628 
//  629   // Add something for the extension field length
//  630   len += scene->extLen;
??CrossCallReturnLabel_39:
        MOV       ?V8,A
        CLR       A
        ADDC      A,R7
        MOV       ?V9,A
        MOV       DPL,?V12
        MOV       DPH,?V13
        MOVX      A,@DPTR
        MOV       R0,A
        MOV       DPL,?V8
        MOV       DPH,?V9
        MOVX      A,@DPTR
        ADD       A,R0
        ADD       A,#0x6
        MOV       DPL,?XSP + 0
        MOV       DPH,?XSP + 1
        MOVX      @DPTR,A
//  631 
//  632   buf = zcl_mem_alloc( len );
        MOV       ?V2,A
        MOV       ?V3,#0x0
        ; Setup parameters for call to function osal_mem_alloc
        MOV       R2,A
        MOV       R3,?V3
        LCALL     ??Subroutine103_0 & 0xFFFF
//  633   if ( buf )
??CrossCallReturnLabel_217:
        JNZ       $+5
        LJMP      ??zclGeneral_SendAddSceneRequest_0 & 0xFFFF
//  634   {
//  635     pBuf = buf;
//  636     *pBuf++ = LO_UINT16( scene->groupID );
        MOV       DPL,R6
        MOV       DPH,R7
        LCALL     ?Subroutine89 & 0xFFFF
??CrossCallReturnLabel_184:
        LCALL     ?Subroutine63 & 0xFFFF
//  637     *pBuf++ = HI_UINT16( scene->groupID );
??CrossCallReturnLabel_111:
        LCALL     ?Subroutine40 & 0xFFFF
//  638     *pBuf++ = scene->ID;
??CrossCallReturnLabel_68:
        INC       DPTR
        LCALL     ?Subroutine29 & 0xFFFF
//  639     *pBuf++ = LO_UINT16( scene->transTime );
??CrossCallReturnLabel_178:
        LCALL     ?Subroutine69 & 0xFFFF
??CrossCallReturnLabel_118:
        LCALL     ?Subroutine50 & 0xFFFF
//  640     *pBuf++ = HI_UINT16( scene->transTime );
??CrossCallReturnLabel_95:
        MOV       DPL,R0
        MOV       DPH,R1
        INC       DPTR
        LCALL     ?Subroutine51 & 0xFFFF
??CrossCallReturnLabel_97:
        MOVX      @DPTR,A
//  641     *pBuf++ = scene->name[0]; // string length
        MOV       DPL,?V8
        MOV       DPH,?V9
        LCALL     ?Subroutine51 & 0xFFFF
??CrossCallReturnLabel_98:
        INC       DPTR
        MOVX      @DPTR,A
        MOV       A,R2
        ADD       A,#0x6
        MOV       ?V10,A
        CLR       A
        ADDC      A,?V1
        MOV       ?V11,A
//  642     zcl_memcpy( pBuf, &(scene->name[1]), scene->name[0] );
        ; Setup parameters for call to function osal_memcpy
        LCALL     ?Subroutine75 & 0xFFFF
??CrossCallReturnLabel_174:
        LCALL     ?PUSH_XSTACK_I_THREE
          CFI CFA_XSP16 add(XSP16, 30)
        MOV       DPL,?V8
        MOV       DPH,?V9
        MOVX      A,@DPTR
        MOV       R4,A
        MOV       R5,#0x0
        MOV       R2,?V10
        MOV       R3,?V11
        LCALL     ??Subroutine110_0 & 0xFFFF
??CrossCallReturnLabel_250:
        LCALL     ?DEALLOC_XSTACK8
          CFI CFA_XSP16 add(XSP16, 27)
//  643     pBuf += scene->name[0]; // move pass name
//  644 
//  645     // Add the extension fields
//  646     if ( scene->extLen > 0 )
        MOV       DPL,?V12
        MOV       DPH,?V13
        MOVX      A,@DPTR
        MOV       R1,A
        JZ        ??zclGeneral_SendAddSceneRequest_1
//  647       zcl_memcpy( pBuf, scene->extField, scene->extLen );
        ; Setup parameters for call to function osal_memcpy
        MOV       A,R6
        ADD       A,#0x18
        MOV       ?V4,A
        CLR       A
        ADDC      A,R7
        MOV       ?V5,A
        MOV       R0,#?V4
        LCALL     ?PUSH_XSTACK_I_THREE
          CFI CFA_XSP16 add(XSP16, 30)
        MOV       A,R1
        MOV       R4,A
        MOV       R5,#0x0
        MOV       DPL,?V8
        MOV       DPH,?V9
        MOVX      A,@DPTR
        MOV       R0,A
        MOV       A,?V10
        ADD       A,R0
        MOV       R2,A
        CLR       A
        ADDC      A,?V11
        MOV       R3,A
        LCALL     ??Subroutine110_0 & 0xFFFF
??CrossCallReturnLabel_251:
        LCALL     ?DEALLOC_XSTACK8
          CFI CFA_XSP16 add(XSP16, 27)
//  648 
//  649     status = zcl_SendCommand( srcEP, dstAddr, ZCL_CLUSTER_ID_GEN_SCENES,
//  650                               cmd, TRUE, ZCL_FRAME_CLIENT_SERVER_DIR,
//  651                               disableDefaultRsp, 0, seqNum, len, buf );
??zclGeneral_SendAddSceneRequest_1:
        ; Setup parameters for call to function zcl_SendCommand
        MOV       R0,#?V0
        LCALL     ?PUSH_XSTACK_I_TWO
          CFI CFA_XSP16 add(XSP16, 29)
        MOV       R0,#?V2
        LCALL     ?PUSH_XSTACK_I_TWO
          CFI CFA_XSP16 add(XSP16, 31)
        MOV       A,#0x21
        LCALL     ?XSTACK_DISP0_8
        LCALL     ?Subroutine38 & 0xFFFF
??CrossCallReturnLabel_60:
        LCALL     ?PUSH_XSTACK_I_ONE
          CFI CFA_XSP16 add(XSP16, 32)
        CLR       A
        MOV       ?V2,A
        MOV       R0,#?V2
        LCALL     ?PUSH_XSTACK_I_TWO
          CFI CFA_XSP16 add(XSP16, 34)
        MOV       A,?V14
        MOV       ?V2,A
        MOV       R0,#?V2
        LCALL     ?PUSH_XSTACK_I_ONE
          CFI CFA_XSP16 add(XSP16, 35)
        MOV       ?V2,#0x0
        MOV       R0,#?V2
        LCALL     ?PUSH_XSTACK_I_ONE
          CFI CFA_XSP16 add(XSP16, 36)
        MOV       ?V2,#0x1
        MOV       R0,#?V2
        LCALL     ?PUSH_XSTACK_I_ONE
          CFI CFA_XSP16 add(XSP16, 37)
        MOV       A,?V15
        MOV       ?V2,A
        MOV       R0,#?V2
        LCALL     ?PUSH_XSTACK_I_ONE
          CFI CFA_XSP16 add(XSP16, 38)
        MOV       R4,#0x5
        MOV       R5,#0x0
        MOV       A,#0xc
        LCALL     ?XSTACK_DISP0_8
        LCALL     ?Subroutine48 & 0xFFFF
??CrossCallReturnLabel_85:
        MOV       R1,?V7
        LCALL     ??Subroutine106_0 & 0xFFFF
??CrossCallReturnLabel_234:
        LCALL     ?DEALLOC_XSTACK8
          CFI CFA_XSP16 add(XSP16, 27)
        MOV       A,R1
        MOV       R6,A
//  652     zcl_mem_free( buf );
        ; Setup parameters for call to function osal_mem_free
        MOV       R2,?V0
        MOV       R3,?V1
        LCALL     `??osal_mem_free::?relay`; Banked call to: osal_mem_free
        SJMP      ??zclGeneral_SendAddSceneRequest_2
//  653   }
//  654   else
//  655     status = ZMemError;
??zclGeneral_SendAddSceneRequest_0:
        MOV       R6,#0x10
//  656 
//  657   return ( status );
??zclGeneral_SendAddSceneRequest_2:
        MOV       A,R6
        MOV       R1,A
        MOV       A,#0x3
          CFI EndBlock cfiBlock48
        REQUIRE ?Subroutine4
        ; // Fall through to label ?Subroutine4
//  658 }

        RSEG BANKED_CODE:HUGECODE:NOROOT(0)
?Subroutine4:
          CFI Block cfiBlock49 Using cfiCommon0
          CFI NoFunction
          CFI CFA_SP SP+0
          CFI CFA_XSP16 add(XSP16, 27)
          CFI VB load(1, XDATA, add(CFA_XSP16, literal(-23)))
          CFI DPL0 load(1, XDATA, add(CFA_XSP16, literal(-2)))
          CFI DPH0 load(1, XDATA, add(CFA_XSP16, literal(-1)))
          CFI R6 load(1, XDATA, add(CFA_XSP16, literal(-24)))
          CFI R7 load(1, XDATA, add(CFA_XSP16, literal(-6)))
          CFI V0 load(1, XDATA, add(CFA_XSP16, literal(-22)))
          CFI V1 load(1, XDATA, add(CFA_XSP16, literal(-21)))
          CFI V2 load(1, XDATA, add(CFA_XSP16, literal(-20)))
          CFI V3 load(1, XDATA, add(CFA_XSP16, literal(-19)))
          CFI V4 load(1, XDATA, add(CFA_XSP16, literal(-18)))
          CFI V5 load(1, XDATA, add(CFA_XSP16, literal(-17)))
          CFI V6 load(1, XDATA, add(CFA_XSP16, literal(-16)))
          CFI V7 load(1, XDATA, add(CFA_XSP16, literal(-15)))
          CFI V8 load(1, XDATA, add(CFA_XSP16, literal(-14)))
          CFI V9 load(1, XDATA, add(CFA_XSP16, literal(-13)))
          CFI V10 load(1, XDATA, add(CFA_XSP16, literal(-12)))
          CFI V11 load(1, XDATA, add(CFA_XSP16, literal(-11)))
          CFI V12 load(1, XDATA, add(CFA_XSP16, literal(-10)))
          CFI V13 load(1, XDATA, add(CFA_XSP16, literal(-9)))
          CFI V14 load(1, XDATA, add(CFA_XSP16, literal(-8)))
          CFI V15 load(1, XDATA, add(CFA_XSP16, literal(-7)))
          CFI ?BRET_EXT load(1, XDATA, add(CFA_XSP16, literal(-3)))
          CFI ?RET_HIGH load(1, XDATA, add(CFA_XSP16, literal(-4)))
          CFI ?RET_LOW load(1, XDATA, add(CFA_XSP16, literal(-5)))
          CFI Invalid
        LCALL     ?DEALLOC_XSTACK8
          CFI CFA_XSP16 add(XSP16, 24)
          CFI Valid
        MOV       R7,#0x10
        LJMP      ?BANKED_LEAVE_XDATA
          CFI EndBlock cfiBlock49

        RSEG BANKED_CODE:HUGECODE:NOROOT(0)
?Subroutine75:
          CFI Block cfiCond50 Using cfiCommon0
          CFI Function zclGeneral_SendAddSceneRequest
          CFI Conditional ??CrossCallReturnLabel_174
          CFI R6 load(1, XDATA, add(CFA_XSP16, literal(-24)))
          CFI VB load(1, XDATA, add(CFA_XSP16, literal(-23)))
          CFI V0 load(1, XDATA, add(CFA_XSP16, literal(-22)))
          CFI V1 load(1, XDATA, add(CFA_XSP16, literal(-21)))
          CFI V2 load(1, XDATA, add(CFA_XSP16, literal(-20)))
          CFI V3 load(1, XDATA, add(CFA_XSP16, literal(-19)))
          CFI V4 load(1, XDATA, add(CFA_XSP16, literal(-18)))
          CFI V5 load(1, XDATA, add(CFA_XSP16, literal(-17)))
          CFI V6 load(1, XDATA, add(CFA_XSP16, literal(-16)))
          CFI V7 load(1, XDATA, add(CFA_XSP16, literal(-15)))
          CFI V8 load(1, XDATA, add(CFA_XSP16, literal(-14)))
          CFI V9 load(1, XDATA, add(CFA_XSP16, literal(-13)))
          CFI V10 load(1, XDATA, add(CFA_XSP16, literal(-12)))
          CFI V11 load(1, XDATA, add(CFA_XSP16, literal(-11)))
          CFI V12 load(1, XDATA, add(CFA_XSP16, literal(-10)))
          CFI V13 load(1, XDATA, add(CFA_XSP16, literal(-9)))
          CFI V14 load(1, XDATA, add(CFA_XSP16, literal(-8)))
          CFI V15 load(1, XDATA, add(CFA_XSP16, literal(-7)))
          CFI R7 load(1, XDATA, add(CFA_XSP16, literal(-6)))
          CFI ?RET_LOW load(1, XDATA, add(CFA_XSP16, literal(-5)))
          CFI ?RET_HIGH load(1, XDATA, add(CFA_XSP16, literal(-4)))
          CFI ?BRET_EXT load(1, XDATA, add(CFA_XSP16, literal(-3)))
          CFI DPL0 load(1, XDATA, add(CFA_XSP16, literal(-2)))
          CFI DPH0 load(1, XDATA, add(CFA_XSP16, literal(-1)))
          CFI CFA_SP SP+-2
          CFI CFA_XSP16 add(XSP16, 27)
          CFI Block cfiCond51 Using cfiCommon0
          CFI (cfiCond51) Function zclGeneral_SendSceneViewRsp
          CFI (cfiCond51) Conditional ??CrossCallReturnLabel_175
          CFI (cfiCond51) R6 load(1, XDATA, add(CFA_XSP16, literal(-24)))
          CFI (cfiCond51) VB load(1, XDATA, add(CFA_XSP16, literal(-23)))
          CFI (cfiCond51) V0 load(1, XDATA, add(CFA_XSP16, literal(-22)))
          CFI (cfiCond51) V1 load(1, XDATA, add(CFA_XSP16, literal(-21)))
          CFI (cfiCond51) V2 load(1, XDATA, add(CFA_XSP16, literal(-20)))
          CFI (cfiCond51) V3 load(1, XDATA, add(CFA_XSP16, literal(-19)))
          CFI (cfiCond51) V4 load(1, XDATA, add(CFA_XSP16, literal(-18)))
          CFI (cfiCond51) V5 load(1, XDATA, add(CFA_XSP16, literal(-17)))
          CFI (cfiCond51) V6 load(1, XDATA, add(CFA_XSP16, literal(-16)))
          CFI (cfiCond51) V7 load(1, XDATA, add(CFA_XSP16, literal(-15)))
          CFI (cfiCond51) V8 load(1, XDATA, add(CFA_XSP16, literal(-14)))
          CFI (cfiCond51) V9 load(1, XDATA, add(CFA_XSP16, literal(-13)))
          CFI (cfiCond51) V10 load(1, XDATA, add(CFA_XSP16, literal(-12)))
          CFI (cfiCond51) V11 load(1, XDATA, add(CFA_XSP16, literal(-11)))
          CFI (cfiCond51) V12 load(1, XDATA, add(CFA_XSP16, literal(-10)))
          CFI (cfiCond51) V13 load(1, XDATA, add(CFA_XSP16, literal(-9)))
          CFI (cfiCond51) V14 load(1, XDATA, add(CFA_XSP16, literal(-8)))
          CFI (cfiCond51) V15 load(1, XDATA, add(CFA_XSP16, literal(-7)))
          CFI (cfiCond51) R7 load(1, XDATA, add(CFA_XSP16, literal(-6)))
          CFI (cfiCond51) ?RET_LOW load(1, XDATA, add(CFA_XSP16, literal(-5)))
          CFI (cfiCond51) ?RET_HIGH load(1, XDATA, add(CFA_XSP16, literal(-4)))
          CFI (cfiCond51) ?BRET_EXT load(1, XDATA, add(CFA_XSP16, literal(-3)))
          CFI (cfiCond51) DPL0 load(1, XDATA, add(CFA_XSP16, literal(-2)))
          CFI (cfiCond51) DPH0 load(1, XDATA, add(CFA_XSP16, literal(-1)))
          CFI (cfiCond51) CFA_SP SP+-2
          CFI (cfiCond51) CFA_XSP16 add(XSP16, 26)
          CFI Block cfiPicker52 Using cfiCommon1
          CFI (cfiPicker52) NoFunction
          CFI (cfiPicker52) Picker
        MOV       A,R6
        ADD       A,#0x8
          CFI EndBlock cfiCond50
          CFI EndBlock cfiCond51
          CFI EndBlock cfiPicker52
        REQUIRE ??Subroutine97_0
        ; // Fall through to label ??Subroutine97_0

        RSEG BANKED_CODE:HUGECODE:NOROOT(0)
??Subroutine97_0:
          CFI Block cfiCond53 Using cfiCommon0
          CFI Function zclGeneral_SendSceneViewRsp
          CFI Conditional ??CrossCallReturnLabel_173
          CFI R6 load(1, XDATA, add(CFA_XSP16, literal(-24)))
          CFI VB load(1, XDATA, add(CFA_XSP16, literal(-23)))
          CFI V0 load(1, XDATA, add(CFA_XSP16, literal(-22)))
          CFI V1 load(1, XDATA, add(CFA_XSP16, literal(-21)))
          CFI V2 load(1, XDATA, add(CFA_XSP16, literal(-20)))
          CFI V3 load(1, XDATA, add(CFA_XSP16, literal(-19)))
          CFI V4 load(1, XDATA, add(CFA_XSP16, literal(-18)))
          CFI V5 load(1, XDATA, add(CFA_XSP16, literal(-17)))
          CFI V6 load(1, XDATA, add(CFA_XSP16, literal(-16)))
          CFI V7 load(1, XDATA, add(CFA_XSP16, literal(-15)))
          CFI V8 load(1, XDATA, add(CFA_XSP16, literal(-14)))
          CFI V9 load(1, XDATA, add(CFA_XSP16, literal(-13)))
          CFI V10 load(1, XDATA, add(CFA_XSP16, literal(-12)))
          CFI V11 load(1, XDATA, add(CFA_XSP16, literal(-11)))
          CFI V12 load(1, XDATA, add(CFA_XSP16, literal(-10)))
          CFI V13 load(1, XDATA, add(CFA_XSP16, literal(-9)))
          CFI V14 load(1, XDATA, add(CFA_XSP16, literal(-8)))
          CFI V15 load(1, XDATA, add(CFA_XSP16, literal(-7)))
          CFI R7 load(1, XDATA, add(CFA_XSP16, literal(-6)))
          CFI ?RET_LOW load(1, XDATA, add(CFA_XSP16, literal(-5)))
          CFI ?RET_HIGH load(1, XDATA, add(CFA_XSP16, literal(-4)))
          CFI ?BRET_EXT load(1, XDATA, add(CFA_XSP16, literal(-3)))
          CFI DPL0 load(1, XDATA, add(CFA_XSP16, literal(-2)))
          CFI DPH0 load(1, XDATA, add(CFA_XSP16, literal(-1)))
          CFI CFA_SP SP+-2
          CFI CFA_XSP16 add(XSP16, 26)
          CFI Block cfiCond54 Using cfiCommon0
          CFI (cfiCond54) Function zclGeneral_SendAddSceneRequest
          CFI (cfiCond54) Conditional ??CrossCallReturnLabel_174
          CFI (cfiCond54) R6 load(1, XDATA, add(CFA_XSP16, literal(-24)))
          CFI (cfiCond54) VB load(1, XDATA, add(CFA_XSP16, literal(-23)))
          CFI (cfiCond54) V0 load(1, XDATA, add(CFA_XSP16, literal(-22)))
          CFI (cfiCond54) V1 load(1, XDATA, add(CFA_XSP16, literal(-21)))
          CFI (cfiCond54) V2 load(1, XDATA, add(CFA_XSP16, literal(-20)))
          CFI (cfiCond54) V3 load(1, XDATA, add(CFA_XSP16, literal(-19)))
          CFI (cfiCond54) V4 load(1, XDATA, add(CFA_XSP16, literal(-18)))
          CFI (cfiCond54) V5 load(1, XDATA, add(CFA_XSP16, literal(-17)))
          CFI (cfiCond54) V6 load(1, XDATA, add(CFA_XSP16, literal(-16)))
          CFI (cfiCond54) V7 load(1, XDATA, add(CFA_XSP16, literal(-15)))
          CFI (cfiCond54) V8 load(1, XDATA, add(CFA_XSP16, literal(-14)))
          CFI (cfiCond54) V9 load(1, XDATA, add(CFA_XSP16, literal(-13)))
          CFI (cfiCond54) V10 load(1, XDATA, add(CFA_XSP16, literal(-12)))
          CFI (cfiCond54) V11 load(1, XDATA, add(CFA_XSP16, literal(-11)))
          CFI (cfiCond54) V12 load(1, XDATA, add(CFA_XSP16, literal(-10)))
          CFI (cfiCond54) V13 load(1, XDATA, add(CFA_XSP16, literal(-9)))
          CFI (cfiCond54) V14 load(1, XDATA, add(CFA_XSP16, literal(-8)))
          CFI (cfiCond54) V15 load(1, XDATA, add(CFA_XSP16, literal(-7)))
          CFI (cfiCond54) R7 load(1, XDATA, add(CFA_XSP16, literal(-6)))
          CFI (cfiCond54) ?RET_LOW load(1, XDATA, add(CFA_XSP16, literal(-5)))
          CFI (cfiCond54) ?RET_HIGH load(1, XDATA, add(CFA_XSP16, literal(-4)))
          CFI (cfiCond54) ?BRET_EXT load(1, XDATA, add(CFA_XSP16, literal(-3)))
          CFI (cfiCond54) DPL0 load(1, XDATA, add(CFA_XSP16, literal(-2)))
          CFI (cfiCond54) DPH0 load(1, XDATA, add(CFA_XSP16, literal(-1)))
          CFI (cfiCond54) CFA_SP SP+-2
          CFI (cfiCond54) CFA_XSP16 add(XSP16, 27)
          CFI Block cfiCond55 Using cfiCommon0
          CFI (cfiCond55) Function zclGeneral_SendSceneViewRsp
          CFI (cfiCond55) Conditional ??CrossCallReturnLabel_175
          CFI (cfiCond55) R6 load(1, XDATA, add(CFA_XSP16, literal(-24)))
          CFI (cfiCond55) VB load(1, XDATA, add(CFA_XSP16, literal(-23)))
          CFI (cfiCond55) V0 load(1, XDATA, add(CFA_XSP16, literal(-22)))
          CFI (cfiCond55) V1 load(1, XDATA, add(CFA_XSP16, literal(-21)))
          CFI (cfiCond55) V2 load(1, XDATA, add(CFA_XSP16, literal(-20)))
          CFI (cfiCond55) V3 load(1, XDATA, add(CFA_XSP16, literal(-19)))
          CFI (cfiCond55) V4 load(1, XDATA, add(CFA_XSP16, literal(-18)))
          CFI (cfiCond55) V5 load(1, XDATA, add(CFA_XSP16, literal(-17)))
          CFI (cfiCond55) V6 load(1, XDATA, add(CFA_XSP16, literal(-16)))
          CFI (cfiCond55) V7 load(1, XDATA, add(CFA_XSP16, literal(-15)))
          CFI (cfiCond55) V8 load(1, XDATA, add(CFA_XSP16, literal(-14)))
          CFI (cfiCond55) V9 load(1, XDATA, add(CFA_XSP16, literal(-13)))
          CFI (cfiCond55) V10 load(1, XDATA, add(CFA_XSP16, literal(-12)))
          CFI (cfiCond55) V11 load(1, XDATA, add(CFA_XSP16, literal(-11)))
          CFI (cfiCond55) V12 load(1, XDATA, add(CFA_XSP16, literal(-10)))
          CFI (cfiCond55) V13 load(1, XDATA, add(CFA_XSP16, literal(-9)))
          CFI (cfiCond55) V14 load(1, XDATA, add(CFA_XSP16, literal(-8)))
          CFI (cfiCond55) V15 load(1, XDATA, add(CFA_XSP16, literal(-7)))
          CFI (cfiCond55) R7 load(1, XDATA, add(CFA_XSP16, literal(-6)))
          CFI (cfiCond55) ?RET_LOW load(1, XDATA, add(CFA_XSP16, literal(-5)))
          CFI (cfiCond55) ?RET_HIGH load(1, XDATA, add(CFA_XSP16, literal(-4)))
          CFI (cfiCond55) ?BRET_EXT load(1, XDATA, add(CFA_XSP16, literal(-3)))
          CFI (cfiCond55) DPL0 load(1, XDATA, add(CFA_XSP16, literal(-2)))
          CFI (cfiCond55) DPH0 load(1, XDATA, add(CFA_XSP16, literal(-1)))
          CFI (cfiCond55) CFA_SP SP+-2
          CFI (cfiCond55) CFA_XSP16 add(XSP16, 26)
          CFI Block cfiPicker56 Using cfiCommon1
          CFI (cfiPicker56) NoFunction
          CFI (cfiPicker56) Picker
        MOV       ?V4,A
        CLR       A
        ADDC      A,R7
        MOV       ?V5,A
        MOV       ?V6,#0x0
        MOV       R0,#?V4
        RET
          CFI EndBlock cfiCond53
          CFI EndBlock cfiCond54
          CFI EndBlock cfiCond55
          CFI EndBlock cfiPicker56

        RSEG BANKED_CODE:HUGECODE:NOROOT(0)
?Subroutine51:
          CFI Block cfiCond57 Using cfiCommon0
          CFI Function zclGeneral_SendAddSceneRequest
          CFI Conditional ??CrossCallReturnLabel_97
          CFI R6 load(1, XDATA, add(CFA_XSP16, literal(-24)))
          CFI VB load(1, XDATA, add(CFA_XSP16, literal(-23)))
          CFI V0 load(1, XDATA, add(CFA_XSP16, literal(-22)))
          CFI V1 load(1, XDATA, add(CFA_XSP16, literal(-21)))
          CFI V2 load(1, XDATA, add(CFA_XSP16, literal(-20)))
          CFI V3 load(1, XDATA, add(CFA_XSP16, literal(-19)))
          CFI V4 load(1, XDATA, add(CFA_XSP16, literal(-18)))
          CFI V5 load(1, XDATA, add(CFA_XSP16, literal(-17)))
          CFI V6 load(1, XDATA, add(CFA_XSP16, literal(-16)))
          CFI V7 load(1, XDATA, add(CFA_XSP16, literal(-15)))
          CFI V8 load(1, XDATA, add(CFA_XSP16, literal(-14)))
          CFI V9 load(1, XDATA, add(CFA_XSP16, literal(-13)))
          CFI V10 load(1, XDATA, add(CFA_XSP16, literal(-12)))
          CFI V11 load(1, XDATA, add(CFA_XSP16, literal(-11)))
          CFI V12 load(1, XDATA, add(CFA_XSP16, literal(-10)))
          CFI V13 load(1, XDATA, add(CFA_XSP16, literal(-9)))
          CFI V14 load(1, XDATA, add(CFA_XSP16, literal(-8)))
          CFI V15 load(1, XDATA, add(CFA_XSP16, literal(-7)))
          CFI R7 load(1, XDATA, add(CFA_XSP16, literal(-6)))
          CFI ?RET_LOW load(1, XDATA, add(CFA_XSP16, literal(-5)))
          CFI ?RET_HIGH load(1, XDATA, add(CFA_XSP16, literal(-4)))
          CFI ?BRET_EXT load(1, XDATA, add(CFA_XSP16, literal(-3)))
          CFI DPL0 load(1, XDATA, add(CFA_XSP16, literal(-2)))
          CFI DPH0 load(1, XDATA, add(CFA_XSP16, literal(-1)))
          CFI CFA_SP SP+-2
          CFI CFA_XSP16 add(XSP16, 27)
          CFI Block cfiCond58 Using cfiCommon0
          CFI (cfiCond58) Function zclGeneral_SendAddSceneRequest
          CFI (cfiCond58) Conditional ??CrossCallReturnLabel_98
          CFI (cfiCond58) R6 load(1, XDATA, add(CFA_XSP16, literal(-24)))
          CFI (cfiCond58) VB load(1, XDATA, add(CFA_XSP16, literal(-23)))
          CFI (cfiCond58) V0 load(1, XDATA, add(CFA_XSP16, literal(-22)))
          CFI (cfiCond58) V1 load(1, XDATA, add(CFA_XSP16, literal(-21)))
          CFI (cfiCond58) V2 load(1, XDATA, add(CFA_XSP16, literal(-20)))
          CFI (cfiCond58) V3 load(1, XDATA, add(CFA_XSP16, literal(-19)))
          CFI (cfiCond58) V4 load(1, XDATA, add(CFA_XSP16, literal(-18)))
          CFI (cfiCond58) V5 load(1, XDATA, add(CFA_XSP16, literal(-17)))
          CFI (cfiCond58) V6 load(1, XDATA, add(CFA_XSP16, literal(-16)))
          CFI (cfiCond58) V7 load(1, XDATA, add(CFA_XSP16, literal(-15)))
          CFI (cfiCond58) V8 load(1, XDATA, add(CFA_XSP16, literal(-14)))
          CFI (cfiCond58) V9 load(1, XDATA, add(CFA_XSP16, literal(-13)))
          CFI (cfiCond58) V10 load(1, XDATA, add(CFA_XSP16, literal(-12)))
          CFI (cfiCond58) V11 load(1, XDATA, add(CFA_XSP16, literal(-11)))
          CFI (cfiCond58) V12 load(1, XDATA, add(CFA_XSP16, literal(-10)))
          CFI (cfiCond58) V13 load(1, XDATA, add(CFA_XSP16, literal(-9)))
          CFI (cfiCond58) V14 load(1, XDATA, add(CFA_XSP16, literal(-8)))
          CFI (cfiCond58) V15 load(1, XDATA, add(CFA_XSP16, literal(-7)))
          CFI (cfiCond58) R7 load(1, XDATA, add(CFA_XSP16, literal(-6)))
          CFI (cfiCond58) ?RET_LOW load(1, XDATA, add(CFA_XSP16, literal(-5)))
          CFI (cfiCond58) ?RET_HIGH load(1, XDATA, add(CFA_XSP16, literal(-4)))
          CFI (cfiCond58) ?BRET_EXT load(1, XDATA, add(CFA_XSP16, literal(-3)))
          CFI (cfiCond58) DPL0 load(1, XDATA, add(CFA_XSP16, literal(-2)))
          CFI (cfiCond58) DPH0 load(1, XDATA, add(CFA_XSP16, literal(-1)))
          CFI (cfiCond58) CFA_SP SP+-2
          CFI (cfiCond58) CFA_XSP16 add(XSP16, 27)
          CFI Block cfiPicker59 Using cfiCommon1
          CFI (cfiPicker59) NoFunction
          CFI (cfiPicker59) Picker
        LCALL     ?Subroutine84 & 0xFFFF
??CrossCallReturnLabel_147:
        INC       DPTR
        RET
          CFI EndBlock cfiCond57
          CFI EndBlock cfiCond58
          CFI EndBlock cfiPicker59

        RSEG BANKED_CODE:HUGECODE:NOROOT(0)
?Subroutine38:
          CFI Block cfiCond60 Using cfiCommon0
          CFI Function zclGeneral_SendAddGroupRequest
          CFI Conditional ??CrossCallReturnLabel_58
          CFI R6 load(1, XDATA, add(CFA_XSP16, literal(-20)))
          CFI VB load(1, XDATA, add(CFA_XSP16, literal(-19)))
          CFI V0 load(1, XDATA, add(CFA_XSP16, literal(-18)))
          CFI V1 load(1, XDATA, add(CFA_XSP16, literal(-17)))
          CFI V2 load(1, XDATA, add(CFA_XSP16, literal(-16)))
          CFI V3 load(1, XDATA, add(CFA_XSP16, literal(-15)))
          CFI V4 load(1, XDATA, add(CFA_XSP16, literal(-14)))
          CFI V5 load(1, XDATA, add(CFA_XSP16, literal(-13)))
          CFI V6 load(1, XDATA, add(CFA_XSP16, literal(-12)))
          CFI V7 load(1, XDATA, add(CFA_XSP16, literal(-11)))
          CFI V8 load(1, XDATA, add(CFA_XSP16, literal(-10)))
          CFI V9 load(1, XDATA, add(CFA_XSP16, literal(-9)))
          CFI V10 load(1, XDATA, add(CFA_XSP16, literal(-8)))
          CFI V11 load(1, XDATA, add(CFA_XSP16, literal(-7)))
          CFI R7 load(1, XDATA, add(CFA_XSP16, literal(-6)))
          CFI ?RET_LOW load(1, XDATA, add(CFA_XSP16, literal(-5)))
          CFI ?RET_HIGH load(1, XDATA, add(CFA_XSP16, literal(-4)))
          CFI ?BRET_EXT load(1, XDATA, add(CFA_XSP16, literal(-3)))
          CFI DPL0 load(1, XDATA, add(CFA_XSP16, literal(-2)))
          CFI DPH0 load(1, XDATA, add(CFA_XSP16, literal(-1)))
          CFI CFA_SP SP+-2
          CFI CFA_XSP16 add(XSP16, 25)
          CFI Block cfiCond61 Using cfiCommon0
          CFI (cfiCond61) Function zclGeneral_SendGroupViewResponse
          CFI (cfiCond61) Conditional ??CrossCallReturnLabel_59
          CFI (cfiCond61) R6 load(1, XDATA, add(CFA_XSP16, literal(-22)))
          CFI (cfiCond61) VB load(1, XDATA, add(CFA_XSP16, literal(-21)))
          CFI (cfiCond61) V0 load(1, XDATA, add(CFA_XSP16, literal(-20)))
          CFI (cfiCond61) V1 load(1, XDATA, add(CFA_XSP16, literal(-19)))
          CFI (cfiCond61) V2 load(1, XDATA, add(CFA_XSP16, literal(-18)))
          CFI (cfiCond61) V3 load(1, XDATA, add(CFA_XSP16, literal(-17)))
          CFI (cfiCond61) V4 load(1, XDATA, add(CFA_XSP16, literal(-16)))
          CFI (cfiCond61) V5 load(1, XDATA, add(CFA_XSP16, literal(-15)))
          CFI (cfiCond61) V6 load(1, XDATA, add(CFA_XSP16, literal(-14)))
          CFI (cfiCond61) V7 load(1, XDATA, add(CFA_XSP16, literal(-13)))
          CFI (cfiCond61) V8 load(1, XDATA, add(CFA_XSP16, literal(-12)))
          CFI (cfiCond61) V9 load(1, XDATA, add(CFA_XSP16, literal(-11)))
          CFI (cfiCond61) V10 load(1, XDATA, add(CFA_XSP16, literal(-10)))
          CFI (cfiCond61) V11 load(1, XDATA, add(CFA_XSP16, literal(-9)))
          CFI (cfiCond61) V12 load(1, XDATA, add(CFA_XSP16, literal(-8)))
          CFI (cfiCond61) V13 load(1, XDATA, add(CFA_XSP16, literal(-7)))
          CFI (cfiCond61) R7 load(1, XDATA, add(CFA_XSP16, literal(-6)))
          CFI (cfiCond61) ?RET_LOW load(1, XDATA, add(CFA_XSP16, literal(-5)))
          CFI (cfiCond61) ?RET_HIGH load(1, XDATA, add(CFA_XSP16, literal(-4)))
          CFI (cfiCond61) ?BRET_EXT load(1, XDATA, add(CFA_XSP16, literal(-3)))
          CFI (cfiCond61) DPL0 load(1, XDATA, add(CFA_XSP16, literal(-2)))
          CFI (cfiCond61) DPH0 load(1, XDATA, add(CFA_XSP16, literal(-1)))
          CFI (cfiCond61) CFA_SP SP+-2
          CFI (cfiCond61) CFA_XSP16 add(XSP16, 26)
          CFI Block cfiCond62 Using cfiCommon0
          CFI (cfiCond62) Function zclGeneral_SendAddSceneRequest
          CFI (cfiCond62) Conditional ??CrossCallReturnLabel_60
          CFI (cfiCond62) R6 load(1, XDATA, add(CFA_XSP16, literal(-24)))
          CFI (cfiCond62) VB load(1, XDATA, add(CFA_XSP16, literal(-23)))
          CFI (cfiCond62) V0 load(1, XDATA, add(CFA_XSP16, literal(-22)))
          CFI (cfiCond62) V1 load(1, XDATA, add(CFA_XSP16, literal(-21)))
          CFI (cfiCond62) V2 load(1, XDATA, add(CFA_XSP16, literal(-20)))
          CFI (cfiCond62) V3 load(1, XDATA, add(CFA_XSP16, literal(-19)))
          CFI (cfiCond62) V4 load(1, XDATA, add(CFA_XSP16, literal(-18)))
          CFI (cfiCond62) V5 load(1, XDATA, add(CFA_XSP16, literal(-17)))
          CFI (cfiCond62) V6 load(1, XDATA, add(CFA_XSP16, literal(-16)))
          CFI (cfiCond62) V7 load(1, XDATA, add(CFA_XSP16, literal(-15)))
          CFI (cfiCond62) V8 load(1, XDATA, add(CFA_XSP16, literal(-14)))
          CFI (cfiCond62) V9 load(1, XDATA, add(CFA_XSP16, literal(-13)))
          CFI (cfiCond62) V10 load(1, XDATA, add(CFA_XSP16, literal(-12)))
          CFI (cfiCond62) V11 load(1, XDATA, add(CFA_XSP16, literal(-11)))
          CFI (cfiCond62) V12 load(1, XDATA, add(CFA_XSP16, literal(-10)))
          CFI (cfiCond62) V13 load(1, XDATA, add(CFA_XSP16, literal(-9)))
          CFI (cfiCond62) V14 load(1, XDATA, add(CFA_XSP16, literal(-8)))
          CFI (cfiCond62) V15 load(1, XDATA, add(CFA_XSP16, literal(-7)))
          CFI (cfiCond62) R7 load(1, XDATA, add(CFA_XSP16, literal(-6)))
          CFI (cfiCond62) ?RET_LOW load(1, XDATA, add(CFA_XSP16, literal(-5)))
          CFI (cfiCond62) ?RET_HIGH load(1, XDATA, add(CFA_XSP16, literal(-4)))
          CFI (cfiCond62) ?BRET_EXT load(1, XDATA, add(CFA_XSP16, literal(-3)))
          CFI (cfiCond62) DPL0 load(1, XDATA, add(CFA_XSP16, literal(-2)))
          CFI (cfiCond62) DPH0 load(1, XDATA, add(CFA_XSP16, literal(-1)))
          CFI (cfiCond62) CFA_SP SP+-2
          CFI (cfiCond62) CFA_XSP16 add(XSP16, 31)
          CFI Block cfiCond63 Using cfiCommon0
          CFI (cfiCond63) Function zclGeneral_SendSceneViewRsp
          CFI (cfiCond63) Conditional ??CrossCallReturnLabel_61
          CFI (cfiCond63) R6 load(1, XDATA, add(CFA_XSP16, literal(-24)))
          CFI (cfiCond63) VB load(1, XDATA, add(CFA_XSP16, literal(-23)))
          CFI (cfiCond63) V0 load(1, XDATA, add(CFA_XSP16, literal(-22)))
          CFI (cfiCond63) V1 load(1, XDATA, add(CFA_XSP16, literal(-21)))
          CFI (cfiCond63) V2 load(1, XDATA, add(CFA_XSP16, literal(-20)))
          CFI (cfiCond63) V3 load(1, XDATA, add(CFA_XSP16, literal(-19)))
          CFI (cfiCond63) V4 load(1, XDATA, add(CFA_XSP16, literal(-18)))
          CFI (cfiCond63) V5 load(1, XDATA, add(CFA_XSP16, literal(-17)))
          CFI (cfiCond63) V6 load(1, XDATA, add(CFA_XSP16, literal(-16)))
          CFI (cfiCond63) V7 load(1, XDATA, add(CFA_XSP16, literal(-15)))
          CFI (cfiCond63) V8 load(1, XDATA, add(CFA_XSP16, literal(-14)))
          CFI (cfiCond63) V9 load(1, XDATA, add(CFA_XSP16, literal(-13)))
          CFI (cfiCond63) V10 load(1, XDATA, add(CFA_XSP16, literal(-12)))
          CFI (cfiCond63) V11 load(1, XDATA, add(CFA_XSP16, literal(-11)))
          CFI (cfiCond63) V12 load(1, XDATA, add(CFA_XSP16, literal(-10)))
          CFI (cfiCond63) V13 load(1, XDATA, add(CFA_XSP16, literal(-9)))
          CFI (cfiCond63) V14 load(1, XDATA, add(CFA_XSP16, literal(-8)))
          CFI (cfiCond63) V15 load(1, XDATA, add(CFA_XSP16, literal(-7)))
          CFI (cfiCond63) R7 load(1, XDATA, add(CFA_XSP16, literal(-6)))
          CFI (cfiCond63) ?RET_LOW load(1, XDATA, add(CFA_XSP16, literal(-5)))
          CFI (cfiCond63) ?RET_HIGH load(1, XDATA, add(CFA_XSP16, literal(-4)))
          CFI (cfiCond63) ?BRET_EXT load(1, XDATA, add(CFA_XSP16, literal(-3)))
          CFI (cfiCond63) DPL0 load(1, XDATA, add(CFA_XSP16, literal(-2)))
          CFI (cfiCond63) DPH0 load(1, XDATA, add(CFA_XSP16, literal(-1)))
          CFI (cfiCond63) CFA_SP SP+-2
          CFI (cfiCond63) CFA_XSP16 add(XSP16, 30)
          CFI Block cfiCond64 Using cfiCommon0
          CFI (cfiCond64) Function zclGeneral_SendSceneViewRsp
          CFI (cfiCond64) Conditional ??CrossCallReturnLabel_62
          CFI (cfiCond64) R6 load(1, XDATA, add(CFA_XSP16, literal(-24)))
          CFI (cfiCond64) VB load(1, XDATA, add(CFA_XSP16, literal(-23)))
          CFI (cfiCond64) V0 load(1, XDATA, add(CFA_XSP16, literal(-22)))
          CFI (cfiCond64) V1 load(1, XDATA, add(CFA_XSP16, literal(-21)))
          CFI (cfiCond64) V2 load(1, XDATA, add(CFA_XSP16, literal(-20)))
          CFI (cfiCond64) V3 load(1, XDATA, add(CFA_XSP16, literal(-19)))
          CFI (cfiCond64) V4 load(1, XDATA, add(CFA_XSP16, literal(-18)))
          CFI (cfiCond64) V5 load(1, XDATA, add(CFA_XSP16, literal(-17)))
          CFI (cfiCond64) V6 load(1, XDATA, add(CFA_XSP16, literal(-16)))
          CFI (cfiCond64) V7 load(1, XDATA, add(CFA_XSP16, literal(-15)))
          CFI (cfiCond64) V8 load(1, XDATA, add(CFA_XSP16, literal(-14)))
          CFI (cfiCond64) V9 load(1, XDATA, add(CFA_XSP16, literal(-13)))
          CFI (cfiCond64) V10 load(1, XDATA, add(CFA_XSP16, literal(-12)))
          CFI (cfiCond64) V11 load(1, XDATA, add(CFA_XSP16, literal(-11)))
          CFI (cfiCond64) V12 load(1, XDATA, add(CFA_XSP16, literal(-10)))
          CFI (cfiCond64) V13 load(1, XDATA, add(CFA_XSP16, literal(-9)))
          CFI (cfiCond64) V14 load(1, XDATA, add(CFA_XSP16, literal(-8)))
          CFI (cfiCond64) V15 load(1, XDATA, add(CFA_XSP16, literal(-7)))
          CFI (cfiCond64) R7 load(1, XDATA, add(CFA_XSP16, literal(-6)))
          CFI (cfiCond64) ?RET_LOW load(1, XDATA, add(CFA_XSP16, literal(-5)))
          CFI (cfiCond64) ?RET_HIGH load(1, XDATA, add(CFA_XSP16, literal(-4)))
          CFI (cfiCond64) ?BRET_EXT load(1, XDATA, add(CFA_XSP16, literal(-3)))
          CFI (cfiCond64) DPL0 load(1, XDATA, add(CFA_XSP16, literal(-2)))
          CFI (cfiCond64) DPH0 load(1, XDATA, add(CFA_XSP16, literal(-1)))
          CFI (cfiCond64) CFA_SP SP+-2
          CFI (cfiCond64) CFA_XSP16 add(XSP16, 33)
          CFI Block cfiPicker65 Using cfiCommon1
          CFI (cfiPicker65) NoFunction
          CFI (cfiPicker65) Picker
        MOVX      A,@DPTR
        MOV       ?V2,A
        MOV       R0,#?V2
        RET
          CFI EndBlock cfiCond60
          CFI EndBlock cfiCond61
          CFI EndBlock cfiCond62
          CFI EndBlock cfiCond63
          CFI EndBlock cfiCond64
          CFI EndBlock cfiPicker65

        RSEG BANKED_CODE:HUGECODE:NOROOT(0)
?Subroutine29:
          CFI Block cfiCond66 Using cfiCommon0
          CFI Function zclGeneral_SendGroupViewResponse
          CFI Conditional ??CrossCallReturnLabel_177
          CFI R6 load(1, XDATA, add(CFA_XSP16, literal(-22)))
          CFI VB load(1, XDATA, add(CFA_XSP16, literal(-21)))
          CFI V0 load(1, XDATA, add(CFA_XSP16, literal(-20)))
          CFI V1 load(1, XDATA, add(CFA_XSP16, literal(-19)))
          CFI V2 load(1, XDATA, add(CFA_XSP16, literal(-18)))
          CFI V3 load(1, XDATA, add(CFA_XSP16, literal(-17)))
          CFI V4 load(1, XDATA, add(CFA_XSP16, literal(-16)))
          CFI V5 load(1, XDATA, add(CFA_XSP16, literal(-15)))
          CFI V6 load(1, XDATA, add(CFA_XSP16, literal(-14)))
          CFI V7 load(1, XDATA, add(CFA_XSP16, literal(-13)))
          CFI V8 load(1, XDATA, add(CFA_XSP16, literal(-12)))
          CFI V9 load(1, XDATA, add(CFA_XSP16, literal(-11)))
          CFI V10 load(1, XDATA, add(CFA_XSP16, literal(-10)))
          CFI V11 load(1, XDATA, add(CFA_XSP16, literal(-9)))
          CFI V12 load(1, XDATA, add(CFA_XSP16, literal(-8)))
          CFI V13 load(1, XDATA, add(CFA_XSP16, literal(-7)))
          CFI R7 load(1, XDATA, add(CFA_XSP16, literal(-6)))
          CFI ?RET_LOW load(1, XDATA, add(CFA_XSP16, literal(-5)))
          CFI ?RET_HIGH load(1, XDATA, add(CFA_XSP16, literal(-4)))
          CFI ?BRET_EXT load(1, XDATA, add(CFA_XSP16, literal(-3)))
          CFI DPL0 load(1, XDATA, add(CFA_XSP16, literal(-2)))
          CFI DPH0 load(1, XDATA, add(CFA_XSP16, literal(-1)))
          CFI CFA_SP SP+-2
          CFI CFA_XSP16 add(XSP16, 22)
          CFI Block cfiCond67 Using cfiCommon0
          CFI (cfiCond67) Function zclGeneral_SendAddSceneRequest
          CFI (cfiCond67) Conditional ??CrossCallReturnLabel_178
          CFI (cfiCond67) R6 load(1, XDATA, add(CFA_XSP16, literal(-24)))
          CFI (cfiCond67) VB load(1, XDATA, add(CFA_XSP16, literal(-23)))
          CFI (cfiCond67) V0 load(1, XDATA, add(CFA_XSP16, literal(-22)))
          CFI (cfiCond67) V1 load(1, XDATA, add(CFA_XSP16, literal(-21)))
          CFI (cfiCond67) V2 load(1, XDATA, add(CFA_XSP16, literal(-20)))
          CFI (cfiCond67) V3 load(1, XDATA, add(CFA_XSP16, literal(-19)))
          CFI (cfiCond67) V4 load(1, XDATA, add(CFA_XSP16, literal(-18)))
          CFI (cfiCond67) V5 load(1, XDATA, add(CFA_XSP16, literal(-17)))
          CFI (cfiCond67) V6 load(1, XDATA, add(CFA_XSP16, literal(-16)))
          CFI (cfiCond67) V7 load(1, XDATA, add(CFA_XSP16, literal(-15)))
          CFI (cfiCond67) V8 load(1, XDATA, add(CFA_XSP16, literal(-14)))
          CFI (cfiCond67) V9 load(1, XDATA, add(CFA_XSP16, literal(-13)))
          CFI (cfiCond67) V10 load(1, XDATA, add(CFA_XSP16, literal(-12)))
          CFI (cfiCond67) V11 load(1, XDATA, add(CFA_XSP16, literal(-11)))
          CFI (cfiCond67) V12 load(1, XDATA, add(CFA_XSP16, literal(-10)))
          CFI (cfiCond67) V13 load(1, XDATA, add(CFA_XSP16, literal(-9)))
          CFI (cfiCond67) V14 load(1, XDATA, add(CFA_XSP16, literal(-8)))
          CFI (cfiCond67) V15 load(1, XDATA, add(CFA_XSP16, literal(-7)))
          CFI (cfiCond67) R7 load(1, XDATA, add(CFA_XSP16, literal(-6)))
          CFI (cfiCond67) ?RET_LOW load(1, XDATA, add(CFA_XSP16, literal(-5)))
          CFI (cfiCond67) ?RET_HIGH load(1, XDATA, add(CFA_XSP16, literal(-4)))
          CFI (cfiCond67) ?BRET_EXT load(1, XDATA, add(CFA_XSP16, literal(-3)))
          CFI (cfiCond67) DPL0 load(1, XDATA, add(CFA_XSP16, literal(-2)))
          CFI (cfiCond67) DPH0 load(1, XDATA, add(CFA_XSP16, literal(-1)))
          CFI (cfiCond67) CFA_SP SP+-2
          CFI (cfiCond67) CFA_XSP16 add(XSP16, 27)
          CFI Block cfiCond68 Using cfiCommon0
          CFI (cfiCond68) Function zclGeneral_SendSceneViewRsp
          CFI (cfiCond68) Conditional ??CrossCallReturnLabel_179
          CFI (cfiCond68) R6 load(1, XDATA, add(CFA_XSP16, literal(-24)))
          CFI (cfiCond68) VB load(1, XDATA, add(CFA_XSP16, literal(-23)))
          CFI (cfiCond68) V0 load(1, XDATA, add(CFA_XSP16, literal(-22)))
          CFI (cfiCond68) V1 load(1, XDATA, add(CFA_XSP16, literal(-21)))
          CFI (cfiCond68) V2 load(1, XDATA, add(CFA_XSP16, literal(-20)))
          CFI (cfiCond68) V3 load(1, XDATA, add(CFA_XSP16, literal(-19)))
          CFI (cfiCond68) V4 load(1, XDATA, add(CFA_XSP16, literal(-18)))
          CFI (cfiCond68) V5 load(1, XDATA, add(CFA_XSP16, literal(-17)))
          CFI (cfiCond68) V6 load(1, XDATA, add(CFA_XSP16, literal(-16)))
          CFI (cfiCond68) V7 load(1, XDATA, add(CFA_XSP16, literal(-15)))
          CFI (cfiCond68) V8 load(1, XDATA, add(CFA_XSP16, literal(-14)))
          CFI (cfiCond68) V9 load(1, XDATA, add(CFA_XSP16, literal(-13)))
          CFI (cfiCond68) V10 load(1, XDATA, add(CFA_XSP16, literal(-12)))
          CFI (cfiCond68) V11 load(1, XDATA, add(CFA_XSP16, literal(-11)))
          CFI (cfiCond68) V12 load(1, XDATA, add(CFA_XSP16, literal(-10)))
          CFI (cfiCond68) V13 load(1, XDATA, add(CFA_XSP16, literal(-9)))
          CFI (cfiCond68) V14 load(1, XDATA, add(CFA_XSP16, literal(-8)))
          CFI (cfiCond68) V15 load(1, XDATA, add(CFA_XSP16, literal(-7)))
          CFI (cfiCond68) R7 load(1, XDATA, add(CFA_XSP16, literal(-6)))
          CFI (cfiCond68) ?RET_LOW load(1, XDATA, add(CFA_XSP16, literal(-5)))
          CFI (cfiCond68) ?RET_HIGH load(1, XDATA, add(CFA_XSP16, literal(-4)))
          CFI (cfiCond68) ?BRET_EXT load(1, XDATA, add(CFA_XSP16, literal(-3)))
          CFI (cfiCond68) DPL0 load(1, XDATA, add(CFA_XSP16, literal(-2)))
          CFI (cfiCond68) DPH0 load(1, XDATA, add(CFA_XSP16, literal(-1)))
          CFI (cfiCond68) CFA_SP SP+-2
          CFI (cfiCond68) CFA_XSP16 add(XSP16, 26)
          CFI Block cfiPicker69 Using cfiCommon1
          CFI (cfiPicker69) NoFunction
          CFI (cfiPicker69) Picker
        INC       DPTR
          CFI EndBlock cfiCond66
          CFI EndBlock cfiCond67
          CFI EndBlock cfiCond68
          CFI EndBlock cfiPicker69
        REQUIRE ??Subroutine98_0
        ; // Fall through to label ??Subroutine98_0

        RSEG BANKED_CODE:HUGECODE:NOROOT(0)
??Subroutine98_0:
          CFI Block cfiCond70 Using cfiCommon0
          CFI Function zclGeneral_SendAddGroupRequest
          CFI Conditional ??CrossCallReturnLabel_176
          CFI R6 load(1, XDATA, add(CFA_XSP16, literal(-20)))
          CFI VB load(1, XDATA, add(CFA_XSP16, literal(-19)))
          CFI V0 load(1, XDATA, add(CFA_XSP16, literal(-18)))
          CFI V1 load(1, XDATA, add(CFA_XSP16, literal(-17)))
          CFI V2 load(1, XDATA, add(CFA_XSP16, literal(-16)))
          CFI V3 load(1, XDATA, add(CFA_XSP16, literal(-15)))
          CFI V4 load(1, XDATA, add(CFA_XSP16, literal(-14)))
          CFI V5 load(1, XDATA, add(CFA_XSP16, literal(-13)))
          CFI V6 load(1, XDATA, add(CFA_XSP16, literal(-12)))
          CFI V7 load(1, XDATA, add(CFA_XSP16, literal(-11)))
          CFI V8 load(1, XDATA, add(CFA_XSP16, literal(-10)))
          CFI V9 load(1, XDATA, add(CFA_XSP16, literal(-9)))
          CFI V10 load(1, XDATA, add(CFA_XSP16, literal(-8)))
          CFI V11 load(1, XDATA, add(CFA_XSP16, literal(-7)))
          CFI R7 load(1, XDATA, add(CFA_XSP16, literal(-6)))
          CFI ?RET_LOW load(1, XDATA, add(CFA_XSP16, literal(-5)))
          CFI ?RET_HIGH load(1, XDATA, add(CFA_XSP16, literal(-4)))
          CFI ?BRET_EXT load(1, XDATA, add(CFA_XSP16, literal(-3)))
          CFI DPL0 load(1, XDATA, add(CFA_XSP16, literal(-2)))
          CFI DPH0 load(1, XDATA, add(CFA_XSP16, literal(-1)))
          CFI CFA_SP SP+-2
          CFI CFA_XSP16 add(XSP16, 21)
          CFI Block cfiCond71 Using cfiCommon0
          CFI (cfiCond71) Function zclGeneral_SendGroupViewResponse
          CFI (cfiCond71) Conditional ??CrossCallReturnLabel_177
          CFI (cfiCond71) R6 load(1, XDATA, add(CFA_XSP16, literal(-22)))
          CFI (cfiCond71) VB load(1, XDATA, add(CFA_XSP16, literal(-21)))
          CFI (cfiCond71) V0 load(1, XDATA, add(CFA_XSP16, literal(-20)))
          CFI (cfiCond71) V1 load(1, XDATA, add(CFA_XSP16, literal(-19)))
          CFI (cfiCond71) V2 load(1, XDATA, add(CFA_XSP16, literal(-18)))
          CFI (cfiCond71) V3 load(1, XDATA, add(CFA_XSP16, literal(-17)))
          CFI (cfiCond71) V4 load(1, XDATA, add(CFA_XSP16, literal(-16)))
          CFI (cfiCond71) V5 load(1, XDATA, add(CFA_XSP16, literal(-15)))
          CFI (cfiCond71) V6 load(1, XDATA, add(CFA_XSP16, literal(-14)))
          CFI (cfiCond71) V7 load(1, XDATA, add(CFA_XSP16, literal(-13)))
          CFI (cfiCond71) V8 load(1, XDATA, add(CFA_XSP16, literal(-12)))
          CFI (cfiCond71) V9 load(1, XDATA, add(CFA_XSP16, literal(-11)))
          CFI (cfiCond71) V10 load(1, XDATA, add(CFA_XSP16, literal(-10)))
          CFI (cfiCond71) V11 load(1, XDATA, add(CFA_XSP16, literal(-9)))
          CFI (cfiCond71) V12 load(1, XDATA, add(CFA_XSP16, literal(-8)))
          CFI (cfiCond71) V13 load(1, XDATA, add(CFA_XSP16, literal(-7)))
          CFI (cfiCond71) R7 load(1, XDATA, add(CFA_XSP16, literal(-6)))
          CFI (cfiCond71) ?RET_LOW load(1, XDATA, add(CFA_XSP16, literal(-5)))
          CFI (cfiCond71) ?RET_HIGH load(1, XDATA, add(CFA_XSP16, literal(-4)))
          CFI (cfiCond71) ?BRET_EXT load(1, XDATA, add(CFA_XSP16, literal(-3)))
          CFI (cfiCond71) DPL0 load(1, XDATA, add(CFA_XSP16, literal(-2)))
          CFI (cfiCond71) DPH0 load(1, XDATA, add(CFA_XSP16, literal(-1)))
          CFI (cfiCond71) CFA_SP SP+-2
          CFI (cfiCond71) CFA_XSP16 add(XSP16, 22)
          CFI Block cfiCond72 Using cfiCommon0
          CFI (cfiCond72) Function zclGeneral_SendAddSceneRequest
          CFI (cfiCond72) Conditional ??CrossCallReturnLabel_178
          CFI (cfiCond72) R6 load(1, XDATA, add(CFA_XSP16, literal(-24)))
          CFI (cfiCond72) VB load(1, XDATA, add(CFA_XSP16, literal(-23)))
          CFI (cfiCond72) V0 load(1, XDATA, add(CFA_XSP16, literal(-22)))
          CFI (cfiCond72) V1 load(1, XDATA, add(CFA_XSP16, literal(-21)))
          CFI (cfiCond72) V2 load(1, XDATA, add(CFA_XSP16, literal(-20)))
          CFI (cfiCond72) V3 load(1, XDATA, add(CFA_XSP16, literal(-19)))
          CFI (cfiCond72) V4 load(1, XDATA, add(CFA_XSP16, literal(-18)))
          CFI (cfiCond72) V5 load(1, XDATA, add(CFA_XSP16, literal(-17)))
          CFI (cfiCond72) V6 load(1, XDATA, add(CFA_XSP16, literal(-16)))
          CFI (cfiCond72) V7 load(1, XDATA, add(CFA_XSP16, literal(-15)))
          CFI (cfiCond72) V8 load(1, XDATA, add(CFA_XSP16, literal(-14)))
          CFI (cfiCond72) V9 load(1, XDATA, add(CFA_XSP16, literal(-13)))
          CFI (cfiCond72) V10 load(1, XDATA, add(CFA_XSP16, literal(-12)))
          CFI (cfiCond72) V11 load(1, XDATA, add(CFA_XSP16, literal(-11)))
          CFI (cfiCond72) V12 load(1, XDATA, add(CFA_XSP16, literal(-10)))
          CFI (cfiCond72) V13 load(1, XDATA, add(CFA_XSP16, literal(-9)))
          CFI (cfiCond72) V14 load(1, XDATA, add(CFA_XSP16, literal(-8)))
          CFI (cfiCond72) V15 load(1, XDATA, add(CFA_XSP16, literal(-7)))
          CFI (cfiCond72) R7 load(1, XDATA, add(CFA_XSP16, literal(-6)))
          CFI (cfiCond72) ?RET_LOW load(1, XDATA, add(CFA_XSP16, literal(-5)))
          CFI (cfiCond72) ?RET_HIGH load(1, XDATA, add(CFA_XSP16, literal(-4)))
          CFI (cfiCond72) ?BRET_EXT load(1, XDATA, add(CFA_XSP16, literal(-3)))
          CFI (cfiCond72) DPL0 load(1, XDATA, add(CFA_XSP16, literal(-2)))
          CFI (cfiCond72) DPH0 load(1, XDATA, add(CFA_XSP16, literal(-1)))
          CFI (cfiCond72) CFA_SP SP+-2
          CFI (cfiCond72) CFA_XSP16 add(XSP16, 27)
          CFI Block cfiCond73 Using cfiCommon0
          CFI (cfiCond73) Function zclGeneral_SendSceneViewRsp
          CFI (cfiCond73) Conditional ??CrossCallReturnLabel_179
          CFI (cfiCond73) R6 load(1, XDATA, add(CFA_XSP16, literal(-24)))
          CFI (cfiCond73) VB load(1, XDATA, add(CFA_XSP16, literal(-23)))
          CFI (cfiCond73) V0 load(1, XDATA, add(CFA_XSP16, literal(-22)))
          CFI (cfiCond73) V1 load(1, XDATA, add(CFA_XSP16, literal(-21)))
          CFI (cfiCond73) V2 load(1, XDATA, add(CFA_XSP16, literal(-20)))
          CFI (cfiCond73) V3 load(1, XDATA, add(CFA_XSP16, literal(-19)))
          CFI (cfiCond73) V4 load(1, XDATA, add(CFA_XSP16, literal(-18)))
          CFI (cfiCond73) V5 load(1, XDATA, add(CFA_XSP16, literal(-17)))
          CFI (cfiCond73) V6 load(1, XDATA, add(CFA_XSP16, literal(-16)))
          CFI (cfiCond73) V7 load(1, XDATA, add(CFA_XSP16, literal(-15)))
          CFI (cfiCond73) V8 load(1, XDATA, add(CFA_XSP16, literal(-14)))
          CFI (cfiCond73) V9 load(1, XDATA, add(CFA_XSP16, literal(-13)))
          CFI (cfiCond73) V10 load(1, XDATA, add(CFA_XSP16, literal(-12)))
          CFI (cfiCond73) V11 load(1, XDATA, add(CFA_XSP16, literal(-11)))
          CFI (cfiCond73) V12 load(1, XDATA, add(CFA_XSP16, literal(-10)))
          CFI (cfiCond73) V13 load(1, XDATA, add(CFA_XSP16, literal(-9)))
          CFI (cfiCond73) V14 load(1, XDATA, add(CFA_XSP16, literal(-8)))
          CFI (cfiCond73) V15 load(1, XDATA, add(CFA_XSP16, literal(-7)))
          CFI (cfiCond73) R7 load(1, XDATA, add(CFA_XSP16, literal(-6)))
          CFI (cfiCond73) ?RET_LOW load(1, XDATA, add(CFA_XSP16, literal(-5)))
          CFI (cfiCond73) ?RET_HIGH load(1, XDATA, add(CFA_XSP16, literal(-4)))
          CFI (cfiCond73) ?BRET_EXT load(1, XDATA, add(CFA_XSP16, literal(-3)))
          CFI (cfiCond73) DPL0 load(1, XDATA, add(CFA_XSP16, literal(-2)))
          CFI (cfiCond73) DPH0 load(1, XDATA, add(CFA_XSP16, literal(-1)))
          CFI (cfiCond73) CFA_SP SP+-2
          CFI (cfiCond73) CFA_XSP16 add(XSP16, 26)
          CFI Block cfiPicker74 Using cfiCommon1
          CFI (cfiPicker74) NoFunction
          CFI (cfiPicker74) Picker
        LCALL     ?Subroutine85 & 0xFFFF
??CrossCallReturnLabel_182:
        INC       DPTR
        MOVX      @DPTR,A
        RET
          CFI EndBlock cfiCond70
          CFI EndBlock cfiCond71
          CFI EndBlock cfiCond72
          CFI EndBlock cfiCond73
          CFI EndBlock cfiPicker74

        RSEG BANKED_CODE:HUGECODE:NOROOT(0)
?Subroutine85:
          CFI Block cfiCond75 Using cfiCommon0
          CFI Function zclGeneral_SendGroupViewResponse
          CFI Conditional ??CrossCallReturnLabel_180
          CFI R6 load(1, XDATA, add(CFA_XSP16, literal(-22)))
          CFI VB load(1, XDATA, add(CFA_XSP16, literal(-21)))
          CFI V0 load(1, XDATA, add(CFA_XSP16, literal(-20)))
          CFI V1 load(1, XDATA, add(CFA_XSP16, literal(-19)))
          CFI V2 load(1, XDATA, add(CFA_XSP16, literal(-18)))
          CFI V3 load(1, XDATA, add(CFA_XSP16, literal(-17)))
          CFI V4 load(1, XDATA, add(CFA_XSP16, literal(-16)))
          CFI V5 load(1, XDATA, add(CFA_XSP16, literal(-15)))
          CFI V6 load(1, XDATA, add(CFA_XSP16, literal(-14)))
          CFI V7 load(1, XDATA, add(CFA_XSP16, literal(-13)))
          CFI V8 load(1, XDATA, add(CFA_XSP16, literal(-12)))
          CFI V9 load(1, XDATA, add(CFA_XSP16, literal(-11)))
          CFI V10 load(1, XDATA, add(CFA_XSP16, literal(-10)))
          CFI V11 load(1, XDATA, add(CFA_XSP16, literal(-9)))
          CFI V12 load(1, XDATA, add(CFA_XSP16, literal(-8)))
          CFI V13 load(1, XDATA, add(CFA_XSP16, literal(-7)))
          CFI R7 load(1, XDATA, add(CFA_XSP16, literal(-6)))
          CFI ?RET_LOW load(1, XDATA, add(CFA_XSP16, literal(-5)))
          CFI ?RET_HIGH load(1, XDATA, add(CFA_XSP16, literal(-4)))
          CFI ?BRET_EXT load(1, XDATA, add(CFA_XSP16, literal(-3)))
          CFI DPL0 load(1, XDATA, add(CFA_XSP16, literal(-2)))
          CFI DPH0 load(1, XDATA, add(CFA_XSP16, literal(-1)))
          CFI CFA_SP SP+-2
          CFI CFA_XSP16 add(XSP16, 22)
          CFI Block cfiCond76 Using cfiCommon0
          CFI (cfiCond76) Function zclGeneral_SendGroupViewResponse
          CFI (cfiCond76) Conditional ??CrossCallReturnLabel_182, ??CrossCallReturnLabel_177
          CFI (cfiCond76) R6 load(1, XDATA, add(CFA_XSP16, literal(-22)))
          CFI (cfiCond76) VB load(1, XDATA, add(CFA_XSP16, literal(-21)))
          CFI (cfiCond76) V0 load(1, XDATA, add(CFA_XSP16, literal(-20)))
          CFI (cfiCond76) V1 load(1, XDATA, add(CFA_XSP16, literal(-19)))
          CFI (cfiCond76) V2 load(1, XDATA, add(CFA_XSP16, literal(-18)))
          CFI (cfiCond76) V3 load(1, XDATA, add(CFA_XSP16, literal(-17)))
          CFI (cfiCond76) V4 load(1, XDATA, add(CFA_XSP16, literal(-16)))
          CFI (cfiCond76) V5 load(1, XDATA, add(CFA_XSP16, literal(-15)))
          CFI (cfiCond76) V6 load(1, XDATA, add(CFA_XSP16, literal(-14)))
          CFI (cfiCond76) V7 load(1, XDATA, add(CFA_XSP16, literal(-13)))
          CFI (cfiCond76) V8 load(1, XDATA, add(CFA_XSP16, literal(-12)))
          CFI (cfiCond76) V9 load(1, XDATA, add(CFA_XSP16, literal(-11)))
          CFI (cfiCond76) V10 load(1, XDATA, add(CFA_XSP16, literal(-10)))
          CFI (cfiCond76) V11 load(1, XDATA, add(CFA_XSP16, literal(-9)))
          CFI (cfiCond76) V12 load(1, XDATA, add(CFA_XSP16, literal(-8)))
          CFI (cfiCond76) V13 load(1, XDATA, add(CFA_XSP16, literal(-7)))
          CFI (cfiCond76) R7 load(1, XDATA, add(CFA_XSP16, literal(-6)))
          CFI (cfiCond76) ?RET_LOW load(1, XDATA, add(CFA_XSP16, literal(-5)))
          CFI (cfiCond76) ?RET_HIGH load(1, XDATA, add(CFA_XSP16, literal(-4)))
          CFI (cfiCond76) ?BRET_EXT load(1, XDATA, add(CFA_XSP16, literal(-3)))
          CFI (cfiCond76) DPL0 load(1, XDATA, add(CFA_XSP16, literal(-2)))
          CFI (cfiCond76) DPH0 load(1, XDATA, add(CFA_XSP16, literal(-1)))
          CFI (cfiCond76) CFA_SP SP+-4
          CFI (cfiCond76) CFA_XSP16 add(XSP16, 22)
          CFI Block cfiCond77 Using cfiCommon0
          CFI (cfiCond77) Function zclGeneral_SendAddSceneRequest
          CFI (cfiCond77) Conditional ??CrossCallReturnLabel_182, ??CrossCallReturnLabel_178
          CFI (cfiCond77) R6 load(1, XDATA, add(CFA_XSP16, literal(-24)))
          CFI (cfiCond77) VB load(1, XDATA, add(CFA_XSP16, literal(-23)))
          CFI (cfiCond77) V0 load(1, XDATA, add(CFA_XSP16, literal(-22)))
          CFI (cfiCond77) V1 load(1, XDATA, add(CFA_XSP16, literal(-21)))
          CFI (cfiCond77) V2 load(1, XDATA, add(CFA_XSP16, literal(-20)))
          CFI (cfiCond77) V3 load(1, XDATA, add(CFA_XSP16, literal(-19)))
          CFI (cfiCond77) V4 load(1, XDATA, add(CFA_XSP16, literal(-18)))
          CFI (cfiCond77) V5 load(1, XDATA, add(CFA_XSP16, literal(-17)))
          CFI (cfiCond77) V6 load(1, XDATA, add(CFA_XSP16, literal(-16)))
          CFI (cfiCond77) V7 load(1, XDATA, add(CFA_XSP16, literal(-15)))
          CFI (cfiCond77) V8 load(1, XDATA, add(CFA_XSP16, literal(-14)))
          CFI (cfiCond77) V9 load(1, XDATA, add(CFA_XSP16, literal(-13)))
          CFI (cfiCond77) V10 load(1, XDATA, add(CFA_XSP16, literal(-12)))
          CFI (cfiCond77) V11 load(1, XDATA, add(CFA_XSP16, literal(-11)))
          CFI (cfiCond77) V12 load(1, XDATA, add(CFA_XSP16, literal(-10)))
          CFI (cfiCond77) V13 load(1, XDATA, add(CFA_XSP16, literal(-9)))
          CFI (cfiCond77) V14 load(1, XDATA, add(CFA_XSP16, literal(-8)))
          CFI (cfiCond77) V15 load(1, XDATA, add(CFA_XSP16, literal(-7)))
          CFI (cfiCond77) R7 load(1, XDATA, add(CFA_XSP16, literal(-6)))
          CFI (cfiCond77) ?RET_LOW load(1, XDATA, add(CFA_XSP16, literal(-5)))
          CFI (cfiCond77) ?RET_HIGH load(1, XDATA, add(CFA_XSP16, literal(-4)))
          CFI (cfiCond77) ?BRET_EXT load(1, XDATA, add(CFA_XSP16, literal(-3)))
          CFI (cfiCond77) DPL0 load(1, XDATA, add(CFA_XSP16, literal(-2)))
          CFI (cfiCond77) DPH0 load(1, XDATA, add(CFA_XSP16, literal(-1)))
          CFI (cfiCond77) CFA_SP SP+-4
          CFI (cfiCond77) CFA_XSP16 add(XSP16, 27)
          CFI Block cfiCond78 Using cfiCommon0
          CFI (cfiCond78) Function zclGeneral_SendSceneViewRsp
          CFI (cfiCond78) Conditional ??CrossCallReturnLabel_182, ??CrossCallReturnLabel_179
          CFI (cfiCond78) R6 load(1, XDATA, add(CFA_XSP16, literal(-24)))
          CFI (cfiCond78) VB load(1, XDATA, add(CFA_XSP16, literal(-23)))
          CFI (cfiCond78) V0 load(1, XDATA, add(CFA_XSP16, literal(-22)))
          CFI (cfiCond78) V1 load(1, XDATA, add(CFA_XSP16, literal(-21)))
          CFI (cfiCond78) V2 load(1, XDATA, add(CFA_XSP16, literal(-20)))
          CFI (cfiCond78) V3 load(1, XDATA, add(CFA_XSP16, literal(-19)))
          CFI (cfiCond78) V4 load(1, XDATA, add(CFA_XSP16, literal(-18)))
          CFI (cfiCond78) V5 load(1, XDATA, add(CFA_XSP16, literal(-17)))
          CFI (cfiCond78) V6 load(1, XDATA, add(CFA_XSP16, literal(-16)))
          CFI (cfiCond78) V7 load(1, XDATA, add(CFA_XSP16, literal(-15)))
          CFI (cfiCond78) V8 load(1, XDATA, add(CFA_XSP16, literal(-14)))
          CFI (cfiCond78) V9 load(1, XDATA, add(CFA_XSP16, literal(-13)))
          CFI (cfiCond78) V10 load(1, XDATA, add(CFA_XSP16, literal(-12)))
          CFI (cfiCond78) V11 load(1, XDATA, add(CFA_XSP16, literal(-11)))
          CFI (cfiCond78) V12 load(1, XDATA, add(CFA_XSP16, literal(-10)))
          CFI (cfiCond78) V13 load(1, XDATA, add(CFA_XSP16, literal(-9)))
          CFI (cfiCond78) V14 load(1, XDATA, add(CFA_XSP16, literal(-8)))
          CFI (cfiCond78) V15 load(1, XDATA, add(CFA_XSP16, literal(-7)))
          CFI (cfiCond78) R7 load(1, XDATA, add(CFA_XSP16, literal(-6)))
          CFI (cfiCond78) ?RET_LOW load(1, XDATA, add(CFA_XSP16, literal(-5)))
          CFI (cfiCond78) ?RET_HIGH load(1, XDATA, add(CFA_XSP16, literal(-4)))
          CFI (cfiCond78) ?BRET_EXT load(1, XDATA, add(CFA_XSP16, literal(-3)))
          CFI (cfiCond78) DPL0 load(1, XDATA, add(CFA_XSP16, literal(-2)))
          CFI (cfiCond78) DPH0 load(1, XDATA, add(CFA_XSP16, literal(-1)))
          CFI (cfiCond78) CFA_SP SP+-4
          CFI (cfiCond78) CFA_XSP16 add(XSP16, 26)
          CFI Block cfiCond79 Using cfiCommon0
          CFI (cfiCond79) Function zclGeneral_SendAddGroupRequest
          CFI (cfiCond79) Conditional ??CrossCallReturnLabel_182, ??CrossCallReturnLabel_176
          CFI (cfiCond79) R6 load(1, XDATA, add(CFA_XSP16, literal(-20)))
          CFI (cfiCond79) VB load(1, XDATA, add(CFA_XSP16, literal(-19)))
          CFI (cfiCond79) V0 load(1, XDATA, add(CFA_XSP16, literal(-18)))
          CFI (cfiCond79) V1 load(1, XDATA, add(CFA_XSP16, literal(-17)))
          CFI (cfiCond79) V2 load(1, XDATA, add(CFA_XSP16, literal(-16)))
          CFI (cfiCond79) V3 load(1, XDATA, add(CFA_XSP16, literal(-15)))
          CFI (cfiCond79) V4 load(1, XDATA, add(CFA_XSP16, literal(-14)))
          CFI (cfiCond79) V5 load(1, XDATA, add(CFA_XSP16, literal(-13)))
          CFI (cfiCond79) V6 load(1, XDATA, add(CFA_XSP16, literal(-12)))
          CFI (cfiCond79) V7 load(1, XDATA, add(CFA_XSP16, literal(-11)))
          CFI (cfiCond79) V8 load(1, XDATA, add(CFA_XSP16, literal(-10)))
          CFI (cfiCond79) V9 load(1, XDATA, add(CFA_XSP16, literal(-9)))
          CFI (cfiCond79) V10 load(1, XDATA, add(CFA_XSP16, literal(-8)))
          CFI (cfiCond79) V11 load(1, XDATA, add(CFA_XSP16, literal(-7)))
          CFI (cfiCond79) R7 load(1, XDATA, add(CFA_XSP16, literal(-6)))
          CFI (cfiCond79) ?RET_LOW load(1, XDATA, add(CFA_XSP16, literal(-5)))
          CFI (cfiCond79) ?RET_HIGH load(1, XDATA, add(CFA_XSP16, literal(-4)))
          CFI (cfiCond79) ?BRET_EXT load(1, XDATA, add(CFA_XSP16, literal(-3)))
          CFI (cfiCond79) DPL0 load(1, XDATA, add(CFA_XSP16, literal(-2)))
          CFI (cfiCond79) DPH0 load(1, XDATA, add(CFA_XSP16, literal(-1)))
          CFI (cfiCond79) CFA_SP SP+-4
          CFI (cfiCond79) CFA_XSP16 add(XSP16, 21)
          CFI Block cfiCond80 Using cfiCommon0
          CFI (cfiCond80) Function zclGeneral_SendAddSceneRequest
          CFI (cfiCond80) Conditional ??CrossCallReturnLabel_181, ??CrossCallReturnLabel_68
          CFI (cfiCond80) R6 load(1, XDATA, add(CFA_XSP16, literal(-24)))
          CFI (cfiCond80) VB load(1, XDATA, add(CFA_XSP16, literal(-23)))
          CFI (cfiCond80) V0 load(1, XDATA, add(CFA_XSP16, literal(-22)))
          CFI (cfiCond80) V1 load(1, XDATA, add(CFA_XSP16, literal(-21)))
          CFI (cfiCond80) V2 load(1, XDATA, add(CFA_XSP16, literal(-20)))
          CFI (cfiCond80) V3 load(1, XDATA, add(CFA_XSP16, literal(-19)))
          CFI (cfiCond80) V4 load(1, XDATA, add(CFA_XSP16, literal(-18)))
          CFI (cfiCond80) V5 load(1, XDATA, add(CFA_XSP16, literal(-17)))
          CFI (cfiCond80) V6 load(1, XDATA, add(CFA_XSP16, literal(-16)))
          CFI (cfiCond80) V7 load(1, XDATA, add(CFA_XSP16, literal(-15)))
          CFI (cfiCond80) V8 load(1, XDATA, add(CFA_XSP16, literal(-14)))
          CFI (cfiCond80) V9 load(1, XDATA, add(CFA_XSP16, literal(-13)))
          CFI (cfiCond80) V10 load(1, XDATA, add(CFA_XSP16, literal(-12)))
          CFI (cfiCond80) V11 load(1, XDATA, add(CFA_XSP16, literal(-11)))
          CFI (cfiCond80) V12 load(1, XDATA, add(CFA_XSP16, literal(-10)))
          CFI (cfiCond80) V13 load(1, XDATA, add(CFA_XSP16, literal(-9)))
          CFI (cfiCond80) V14 load(1, XDATA, add(CFA_XSP16, literal(-8)))
          CFI (cfiCond80) V15 load(1, XDATA, add(CFA_XSP16, literal(-7)))
          CFI (cfiCond80) R7 load(1, XDATA, add(CFA_XSP16, literal(-6)))
          CFI (cfiCond80) ?RET_LOW load(1, XDATA, add(CFA_XSP16, literal(-5)))
          CFI (cfiCond80) ?RET_HIGH load(1, XDATA, add(CFA_XSP16, literal(-4)))
          CFI (cfiCond80) ?BRET_EXT load(1, XDATA, add(CFA_XSP16, literal(-3)))
          CFI (cfiCond80) DPL0 load(1, XDATA, add(CFA_XSP16, literal(-2)))
          CFI (cfiCond80) DPH0 load(1, XDATA, add(CFA_XSP16, literal(-1)))
          CFI (cfiCond80) CFA_SP SP+-4
          CFI (cfiCond80) CFA_XSP16 add(XSP16, 27)
          CFI Block cfiCond81 Using cfiCommon0
          CFI (cfiCond81) Function zclGeneral_SendSceneViewRsp
          CFI (cfiCond81) Conditional ??CrossCallReturnLabel_181, ??CrossCallReturnLabel_69
          CFI (cfiCond81) R6 load(1, XDATA, add(CFA_XSP16, literal(-24)))
          CFI (cfiCond81) VB load(1, XDATA, add(CFA_XSP16, literal(-23)))
          CFI (cfiCond81) V0 load(1, XDATA, add(CFA_XSP16, literal(-22)))
          CFI (cfiCond81) V1 load(1, XDATA, add(CFA_XSP16, literal(-21)))
          CFI (cfiCond81) V2 load(1, XDATA, add(CFA_XSP16, literal(-20)))
          CFI (cfiCond81) V3 load(1, XDATA, add(CFA_XSP16, literal(-19)))
          CFI (cfiCond81) V4 load(1, XDATA, add(CFA_XSP16, literal(-18)))
          CFI (cfiCond81) V5 load(1, XDATA, add(CFA_XSP16, literal(-17)))
          CFI (cfiCond81) V6 load(1, XDATA, add(CFA_XSP16, literal(-16)))
          CFI (cfiCond81) V7 load(1, XDATA, add(CFA_XSP16, literal(-15)))
          CFI (cfiCond81) V8 load(1, XDATA, add(CFA_XSP16, literal(-14)))
          CFI (cfiCond81) V9 load(1, XDATA, add(CFA_XSP16, literal(-13)))
          CFI (cfiCond81) V10 load(1, XDATA, add(CFA_XSP16, literal(-12)))
          CFI (cfiCond81) V11 load(1, XDATA, add(CFA_XSP16, literal(-11)))
          CFI (cfiCond81) V12 load(1, XDATA, add(CFA_XSP16, literal(-10)))
          CFI (cfiCond81) V13 load(1, XDATA, add(CFA_XSP16, literal(-9)))
          CFI (cfiCond81) V14 load(1, XDATA, add(CFA_XSP16, literal(-8)))
          CFI (cfiCond81) V15 load(1, XDATA, add(CFA_XSP16, literal(-7)))
          CFI (cfiCond81) R7 load(1, XDATA, add(CFA_XSP16, literal(-6)))
          CFI (cfiCond81) ?RET_LOW load(1, XDATA, add(CFA_XSP16, literal(-5)))
          CFI (cfiCond81) ?RET_HIGH load(1, XDATA, add(CFA_XSP16, literal(-4)))
          CFI (cfiCond81) ?BRET_EXT load(1, XDATA, add(CFA_XSP16, literal(-3)))
          CFI (cfiCond81) DPL0 load(1, XDATA, add(CFA_XSP16, literal(-2)))
          CFI (cfiCond81) DPH0 load(1, XDATA, add(CFA_XSP16, literal(-1)))
          CFI (cfiCond81) CFA_SP SP+-4
          CFI (cfiCond81) CFA_XSP16 add(XSP16, 26)
          CFI Block cfiPicker82 Using cfiCommon1
          CFI (cfiPicker82) NoFunction
          CFI (cfiPicker82) Picker
        LCALL     ?Subroutine89 & 0xFFFF
??CrossCallReturnLabel_186:
        INC       DPTR
        RET
          CFI EndBlock cfiCond75
          CFI EndBlock cfiCond76
          CFI EndBlock cfiCond77
          CFI EndBlock cfiCond78
          CFI EndBlock cfiCond79
          CFI EndBlock cfiCond80
          CFI EndBlock cfiCond81
          CFI EndBlock cfiPicker82

        RSEG BANKED_CODE:HUGECODE:NOROOT(0)
?Subroutine89:
          CFI Block cfiCond83 Using cfiCommon0
          CFI Function zclGeneral_SendGroupGetMembershipRequest
          CFI Conditional ??CrossCallReturnLabel_183
          CFI R6 load(1, XDATA, add(CFA_XSP16, literal(-20)))
          CFI VB load(1, XDATA, add(CFA_XSP16, literal(-19)))
          CFI V0 load(1, XDATA, add(CFA_XSP16, literal(-18)))
          CFI V1 load(1, XDATA, add(CFA_XSP16, literal(-17)))
          CFI V2 load(1, XDATA, add(CFA_XSP16, literal(-16)))
          CFI V3 load(1, XDATA, add(CFA_XSP16, literal(-15)))
          CFI V4 load(1, XDATA, add(CFA_XSP16, literal(-14)))
          CFI V5 load(1, XDATA, add(CFA_XSP16, literal(-13)))
          CFI V6 load(1, XDATA, add(CFA_XSP16, literal(-12)))
          CFI V7 load(1, XDATA, add(CFA_XSP16, literal(-11)))
          CFI V8 load(1, XDATA, add(CFA_XSP16, literal(-10)))
          CFI V9 load(1, XDATA, add(CFA_XSP16, literal(-9)))
          CFI V10 load(1, XDATA, add(CFA_XSP16, literal(-8)))
          CFI V11 load(1, XDATA, add(CFA_XSP16, literal(-7)))
          CFI R7 load(1, XDATA, add(CFA_XSP16, literal(-6)))
          CFI ?RET_LOW load(1, XDATA, add(CFA_XSP16, literal(-5)))
          CFI ?RET_HIGH load(1, XDATA, add(CFA_XSP16, literal(-4)))
          CFI ?BRET_EXT load(1, XDATA, add(CFA_XSP16, literal(-3)))
          CFI DPL0 load(1, XDATA, add(CFA_XSP16, literal(-2)))
          CFI DPH0 load(1, XDATA, add(CFA_XSP16, literal(-1)))
          CFI CFA_SP SP+-2
          CFI CFA_XSP16 add(XSP16, 20)
          CFI Block cfiCond84 Using cfiCommon0
          CFI (cfiCond84) Function zclGeneral_SendAddSceneRequest
          CFI (cfiCond84) Conditional ??CrossCallReturnLabel_184
          CFI (cfiCond84) R6 load(1, XDATA, add(CFA_XSP16, literal(-24)))
          CFI (cfiCond84) VB load(1, XDATA, add(CFA_XSP16, literal(-23)))
          CFI (cfiCond84) V0 load(1, XDATA, add(CFA_XSP16, literal(-22)))
          CFI (cfiCond84) V1 load(1, XDATA, add(CFA_XSP16, literal(-21)))
          CFI (cfiCond84) V2 load(1, XDATA, add(CFA_XSP16, literal(-20)))
          CFI (cfiCond84) V3 load(1, XDATA, add(CFA_XSP16, literal(-19)))
          CFI (cfiCond84) V4 load(1, XDATA, add(CFA_XSP16, literal(-18)))
          CFI (cfiCond84) V5 load(1, XDATA, add(CFA_XSP16, literal(-17)))
          CFI (cfiCond84) V6 load(1, XDATA, add(CFA_XSP16, literal(-16)))
          CFI (cfiCond84) V7 load(1, XDATA, add(CFA_XSP16, literal(-15)))
          CFI (cfiCond84) V8 load(1, XDATA, add(CFA_XSP16, literal(-14)))
          CFI (cfiCond84) V9 load(1, XDATA, add(CFA_XSP16, literal(-13)))
          CFI (cfiCond84) V10 load(1, XDATA, add(CFA_XSP16, literal(-12)))
          CFI (cfiCond84) V11 load(1, XDATA, add(CFA_XSP16, literal(-11)))
          CFI (cfiCond84) V12 load(1, XDATA, add(CFA_XSP16, literal(-10)))
          CFI (cfiCond84) V13 load(1, XDATA, add(CFA_XSP16, literal(-9)))
          CFI (cfiCond84) V14 load(1, XDATA, add(CFA_XSP16, literal(-8)))
          CFI (cfiCond84) V15 load(1, XDATA, add(CFA_XSP16, literal(-7)))
          CFI (cfiCond84) R7 load(1, XDATA, add(CFA_XSP16, literal(-6)))
          CFI (cfiCond84) ?RET_LOW load(1, XDATA, add(CFA_XSP16, literal(-5)))
          CFI (cfiCond84) ?RET_HIGH load(1, XDATA, add(CFA_XSP16, literal(-4)))
          CFI (cfiCond84) ?BRET_EXT load(1, XDATA, add(CFA_XSP16, literal(-3)))
          CFI (cfiCond84) DPL0 load(1, XDATA, add(CFA_XSP16, literal(-2)))
          CFI (cfiCond84) DPH0 load(1, XDATA, add(CFA_XSP16, literal(-1)))
          CFI (cfiCond84) CFA_SP SP+-2
          CFI (cfiCond84) CFA_XSP16 add(XSP16, 27)
          CFI Block cfiCond85 Using cfiCommon0
          CFI (cfiCond85) Function zclGeneral_SendGroupViewResponse
          CFI (cfiCond85) Conditional ??CrossCallReturnLabel_186, ??CrossCallReturnLabel_180
          CFI (cfiCond85) R6 load(1, XDATA, add(CFA_XSP16, literal(-22)))
          CFI (cfiCond85) VB load(1, XDATA, add(CFA_XSP16, literal(-21)))
          CFI (cfiCond85) V0 load(1, XDATA, add(CFA_XSP16, literal(-20)))
          CFI (cfiCond85) V1 load(1, XDATA, add(CFA_XSP16, literal(-19)))
          CFI (cfiCond85) V2 load(1, XDATA, add(CFA_XSP16, literal(-18)))
          CFI (cfiCond85) V3 load(1, XDATA, add(CFA_XSP16, literal(-17)))
          CFI (cfiCond85) V4 load(1, XDATA, add(CFA_XSP16, literal(-16)))
          CFI (cfiCond85) V5 load(1, XDATA, add(CFA_XSP16, literal(-15)))
          CFI (cfiCond85) V6 load(1, XDATA, add(CFA_XSP16, literal(-14)))
          CFI (cfiCond85) V7 load(1, XDATA, add(CFA_XSP16, literal(-13)))
          CFI (cfiCond85) V8 load(1, XDATA, add(CFA_XSP16, literal(-12)))
          CFI (cfiCond85) V9 load(1, XDATA, add(CFA_XSP16, literal(-11)))
          CFI (cfiCond85) V10 load(1, XDATA, add(CFA_XSP16, literal(-10)))
          CFI (cfiCond85) V11 load(1, XDATA, add(CFA_XSP16, literal(-9)))
          CFI (cfiCond85) V12 load(1, XDATA, add(CFA_XSP16, literal(-8)))
          CFI (cfiCond85) V13 load(1, XDATA, add(CFA_XSP16, literal(-7)))
          CFI (cfiCond85) R7 load(1, XDATA, add(CFA_XSP16, literal(-6)))
          CFI (cfiCond85) ?RET_LOW load(1, XDATA, add(CFA_XSP16, literal(-5)))
          CFI (cfiCond85) ?RET_HIGH load(1, XDATA, add(CFA_XSP16, literal(-4)))
          CFI (cfiCond85) ?BRET_EXT load(1, XDATA, add(CFA_XSP16, literal(-3)))
          CFI (cfiCond85) DPL0 load(1, XDATA, add(CFA_XSP16, literal(-2)))
          CFI (cfiCond85) DPH0 load(1, XDATA, add(CFA_XSP16, literal(-1)))
          CFI (cfiCond85) CFA_SP SP+-4
          CFI (cfiCond85) CFA_XSP16 add(XSP16, 22)
          CFI Block cfiCond86 Using cfiCommon0
          CFI (cfiCond86) Function zclGeneral_SendGroupViewResponse
          CFI (cfiCond86) Conditional ??CrossCallReturnLabel_186, ??CrossCallReturnLabel_182, ??CrossCallReturnLabel_177
          CFI (cfiCond86) R6 load(1, XDATA, add(CFA_XSP16, literal(-22)))
          CFI (cfiCond86) VB load(1, XDATA, add(CFA_XSP16, literal(-21)))
          CFI (cfiCond86) V0 load(1, XDATA, add(CFA_XSP16, literal(-20)))
          CFI (cfiCond86) V1 load(1, XDATA, add(CFA_XSP16, literal(-19)))
          CFI (cfiCond86) V2 load(1, XDATA, add(CFA_XSP16, literal(-18)))
          CFI (cfiCond86) V3 load(1, XDATA, add(CFA_XSP16, literal(-17)))
          CFI (cfiCond86) V4 load(1, XDATA, add(CFA_XSP16, literal(-16)))
          CFI (cfiCond86) V5 load(1, XDATA, add(CFA_XSP16, literal(-15)))
          CFI (cfiCond86) V6 load(1, XDATA, add(CFA_XSP16, literal(-14)))
          CFI (cfiCond86) V7 load(1, XDATA, add(CFA_XSP16, literal(-13)))
          CFI (cfiCond86) V8 load(1, XDATA, add(CFA_XSP16, literal(-12)))
          CFI (cfiCond86) V9 load(1, XDATA, add(CFA_XSP16, literal(-11)))
          CFI (cfiCond86) V10 load(1, XDATA, add(CFA_XSP16, literal(-10)))
          CFI (cfiCond86) V11 load(1, XDATA, add(CFA_XSP16, literal(-9)))
          CFI (cfiCond86) V12 load(1, XDATA, add(CFA_XSP16, literal(-8)))
          CFI (cfiCond86) V13 load(1, XDATA, add(CFA_XSP16, literal(-7)))
          CFI (cfiCond86) R7 load(1, XDATA, add(CFA_XSP16, literal(-6)))
          CFI (cfiCond86) ?RET_LOW load(1, XDATA, add(CFA_XSP16, literal(-5)))
          CFI (cfiCond86) ?RET_HIGH load(1, XDATA, add(CFA_XSP16, literal(-4)))
          CFI (cfiCond86) ?BRET_EXT load(1, XDATA, add(CFA_XSP16, literal(-3)))
          CFI (cfiCond86) DPL0 load(1, XDATA, add(CFA_XSP16, literal(-2)))
          CFI (cfiCond86) DPH0 load(1, XDATA, add(CFA_XSP16, literal(-1)))
          CFI (cfiCond86) CFA_SP SP+-6
          CFI (cfiCond86) CFA_XSP16 add(XSP16, 22)
          CFI Block cfiCond87 Using cfiCommon0
          CFI (cfiCond87) Function zclGeneral_SendAddSceneRequest
          CFI (cfiCond87) Conditional ??CrossCallReturnLabel_186, ??CrossCallReturnLabel_182, ??CrossCallReturnLabel_178
          CFI (cfiCond87) R6 load(1, XDATA, add(CFA_XSP16, literal(-24)))
          CFI (cfiCond87) VB load(1, XDATA, add(CFA_XSP16, literal(-23)))
          CFI (cfiCond87) V0 load(1, XDATA, add(CFA_XSP16, literal(-22)))
          CFI (cfiCond87) V1 load(1, XDATA, add(CFA_XSP16, literal(-21)))
          CFI (cfiCond87) V2 load(1, XDATA, add(CFA_XSP16, literal(-20)))
          CFI (cfiCond87) V3 load(1, XDATA, add(CFA_XSP16, literal(-19)))
          CFI (cfiCond87) V4 load(1, XDATA, add(CFA_XSP16, literal(-18)))
          CFI (cfiCond87) V5 load(1, XDATA, add(CFA_XSP16, literal(-17)))
          CFI (cfiCond87) V6 load(1, XDATA, add(CFA_XSP16, literal(-16)))
          CFI (cfiCond87) V7 load(1, XDATA, add(CFA_XSP16, literal(-15)))
          CFI (cfiCond87) V8 load(1, XDATA, add(CFA_XSP16, literal(-14)))
          CFI (cfiCond87) V9 load(1, XDATA, add(CFA_XSP16, literal(-13)))
          CFI (cfiCond87) V10 load(1, XDATA, add(CFA_XSP16, literal(-12)))
          CFI (cfiCond87) V11 load(1, XDATA, add(CFA_XSP16, literal(-11)))
          CFI (cfiCond87) V12 load(1, XDATA, add(CFA_XSP16, literal(-10)))
          CFI (cfiCond87) V13 load(1, XDATA, add(CFA_XSP16, literal(-9)))
          CFI (cfiCond87) V14 load(1, XDATA, add(CFA_XSP16, literal(-8)))
          CFI (cfiCond87) V15 load(1, XDATA, add(CFA_XSP16, literal(-7)))
          CFI (cfiCond87) R7 load(1, XDATA, add(CFA_XSP16, literal(-6)))
          CFI (cfiCond87) ?RET_LOW load(1, XDATA, add(CFA_XSP16, literal(-5)))
          CFI (cfiCond87) ?RET_HIGH load(1, XDATA, add(CFA_XSP16, literal(-4)))
          CFI (cfiCond87) ?BRET_EXT load(1, XDATA, add(CFA_XSP16, literal(-3)))
          CFI (cfiCond87) DPL0 load(1, XDATA, add(CFA_XSP16, literal(-2)))
          CFI (cfiCond87) DPH0 load(1, XDATA, add(CFA_XSP16, literal(-1)))
          CFI (cfiCond87) CFA_SP SP+-6
          CFI (cfiCond87) CFA_XSP16 add(XSP16, 27)
          CFI Block cfiCond88 Using cfiCommon0
          CFI (cfiCond88) Function zclGeneral_SendSceneViewRsp
          CFI (cfiCond88) Conditional ??CrossCallReturnLabel_186, ??CrossCallReturnLabel_182, ??CrossCallReturnLabel_179
          CFI (cfiCond88) R6 load(1, XDATA, add(CFA_XSP16, literal(-24)))
          CFI (cfiCond88) VB load(1, XDATA, add(CFA_XSP16, literal(-23)))
          CFI (cfiCond88) V0 load(1, XDATA, add(CFA_XSP16, literal(-22)))
          CFI (cfiCond88) V1 load(1, XDATA, add(CFA_XSP16, literal(-21)))
          CFI (cfiCond88) V2 load(1, XDATA, add(CFA_XSP16, literal(-20)))
          CFI (cfiCond88) V3 load(1, XDATA, add(CFA_XSP16, literal(-19)))
          CFI (cfiCond88) V4 load(1, XDATA, add(CFA_XSP16, literal(-18)))
          CFI (cfiCond88) V5 load(1, XDATA, add(CFA_XSP16, literal(-17)))
          CFI (cfiCond88) V6 load(1, XDATA, add(CFA_XSP16, literal(-16)))
          CFI (cfiCond88) V7 load(1, XDATA, add(CFA_XSP16, literal(-15)))
          CFI (cfiCond88) V8 load(1, XDATA, add(CFA_XSP16, literal(-14)))
          CFI (cfiCond88) V9 load(1, XDATA, add(CFA_XSP16, literal(-13)))
          CFI (cfiCond88) V10 load(1, XDATA, add(CFA_XSP16, literal(-12)))
          CFI (cfiCond88) V11 load(1, XDATA, add(CFA_XSP16, literal(-11)))
          CFI (cfiCond88) V12 load(1, XDATA, add(CFA_XSP16, literal(-10)))
          CFI (cfiCond88) V13 load(1, XDATA, add(CFA_XSP16, literal(-9)))
          CFI (cfiCond88) V14 load(1, XDATA, add(CFA_XSP16, literal(-8)))
          CFI (cfiCond88) V15 load(1, XDATA, add(CFA_XSP16, literal(-7)))
          CFI (cfiCond88) R7 load(1, XDATA, add(CFA_XSP16, literal(-6)))
          CFI (cfiCond88) ?RET_LOW load(1, XDATA, add(CFA_XSP16, literal(-5)))
          CFI (cfiCond88) ?RET_HIGH load(1, XDATA, add(CFA_XSP16, literal(-4)))
          CFI (cfiCond88) ?BRET_EXT load(1, XDATA, add(CFA_XSP16, literal(-3)))
          CFI (cfiCond88) DPL0 load(1, XDATA, add(CFA_XSP16, literal(-2)))
          CFI (cfiCond88) DPH0 load(1, XDATA, add(CFA_XSP16, literal(-1)))
          CFI (cfiCond88) CFA_SP SP+-6
          CFI (cfiCond88) CFA_XSP16 add(XSP16, 26)
          CFI Block cfiCond89 Using cfiCommon0
          CFI (cfiCond89) Function zclGeneral_SendAddGroupRequest
          CFI (cfiCond89) Conditional ??CrossCallReturnLabel_186, ??CrossCallReturnLabel_182, ??CrossCallReturnLabel_176
          CFI (cfiCond89) R6 load(1, XDATA, add(CFA_XSP16, literal(-20)))
          CFI (cfiCond89) VB load(1, XDATA, add(CFA_XSP16, literal(-19)))
          CFI (cfiCond89) V0 load(1, XDATA, add(CFA_XSP16, literal(-18)))
          CFI (cfiCond89) V1 load(1, XDATA, add(CFA_XSP16, literal(-17)))
          CFI (cfiCond89) V2 load(1, XDATA, add(CFA_XSP16, literal(-16)))
          CFI (cfiCond89) V3 load(1, XDATA, add(CFA_XSP16, literal(-15)))
          CFI (cfiCond89) V4 load(1, XDATA, add(CFA_XSP16, literal(-14)))
          CFI (cfiCond89) V5 load(1, XDATA, add(CFA_XSP16, literal(-13)))
          CFI (cfiCond89) V6 load(1, XDATA, add(CFA_XSP16, literal(-12)))
          CFI (cfiCond89) V7 load(1, XDATA, add(CFA_XSP16, literal(-11)))
          CFI (cfiCond89) V8 load(1, XDATA, add(CFA_XSP16, literal(-10)))
          CFI (cfiCond89) V9 load(1, XDATA, add(CFA_XSP16, literal(-9)))
          CFI (cfiCond89) V10 load(1, XDATA, add(CFA_XSP16, literal(-8)))
          CFI (cfiCond89) V11 load(1, XDATA, add(CFA_XSP16, literal(-7)))
          CFI (cfiCond89) R7 load(1, XDATA, add(CFA_XSP16, literal(-6)))
          CFI (cfiCond89) ?RET_LOW load(1, XDATA, add(CFA_XSP16, literal(-5)))
          CFI (cfiCond89) ?RET_HIGH load(1, XDATA, add(CFA_XSP16, literal(-4)))
          CFI (cfiCond89) ?BRET_EXT load(1, XDATA, add(CFA_XSP16, literal(-3)))
          CFI (cfiCond89) DPL0 load(1, XDATA, add(CFA_XSP16, literal(-2)))
          CFI (cfiCond89) DPH0 load(1, XDATA, add(CFA_XSP16, literal(-1)))
          CFI (cfiCond89) CFA_SP SP+-6
          CFI (cfiCond89) CFA_XSP16 add(XSP16, 21)
          CFI Block cfiCond90 Using cfiCommon0
          CFI (cfiCond90) Function zclGeneral_SendAddSceneRequest
          CFI (cfiCond90) Conditional ??CrossCallReturnLabel_186, ??CrossCallReturnLabel_181, ??CrossCallReturnLabel_68
          CFI (cfiCond90) R6 load(1, XDATA, add(CFA_XSP16, literal(-24)))
          CFI (cfiCond90) VB load(1, XDATA, add(CFA_XSP16, literal(-23)))
          CFI (cfiCond90) V0 load(1, XDATA, add(CFA_XSP16, literal(-22)))
          CFI (cfiCond90) V1 load(1, XDATA, add(CFA_XSP16, literal(-21)))
          CFI (cfiCond90) V2 load(1, XDATA, add(CFA_XSP16, literal(-20)))
          CFI (cfiCond90) V3 load(1, XDATA, add(CFA_XSP16, literal(-19)))
          CFI (cfiCond90) V4 load(1, XDATA, add(CFA_XSP16, literal(-18)))
          CFI (cfiCond90) V5 load(1, XDATA, add(CFA_XSP16, literal(-17)))
          CFI (cfiCond90) V6 load(1, XDATA, add(CFA_XSP16, literal(-16)))
          CFI (cfiCond90) V7 load(1, XDATA, add(CFA_XSP16, literal(-15)))
          CFI (cfiCond90) V8 load(1, XDATA, add(CFA_XSP16, literal(-14)))
          CFI (cfiCond90) V9 load(1, XDATA, add(CFA_XSP16, literal(-13)))
          CFI (cfiCond90) V10 load(1, XDATA, add(CFA_XSP16, literal(-12)))
          CFI (cfiCond90) V11 load(1, XDATA, add(CFA_XSP16, literal(-11)))
          CFI (cfiCond90) V12 load(1, XDATA, add(CFA_XSP16, literal(-10)))
          CFI (cfiCond90) V13 load(1, XDATA, add(CFA_XSP16, literal(-9)))
          CFI (cfiCond90) V14 load(1, XDATA, add(CFA_XSP16, literal(-8)))
          CFI (cfiCond90) V15 load(1, XDATA, add(CFA_XSP16, literal(-7)))
          CFI (cfiCond90) R7 load(1, XDATA, add(CFA_XSP16, literal(-6)))
          CFI (cfiCond90) ?RET_LOW load(1, XDATA, add(CFA_XSP16, literal(-5)))
          CFI (cfiCond90) ?RET_HIGH load(1, XDATA, add(CFA_XSP16, literal(-4)))
          CFI (cfiCond90) ?BRET_EXT load(1, XDATA, add(CFA_XSP16, literal(-3)))
          CFI (cfiCond90) DPL0 load(1, XDATA, add(CFA_XSP16, literal(-2)))
          CFI (cfiCond90) DPH0 load(1, XDATA, add(CFA_XSP16, literal(-1)))
          CFI (cfiCond90) CFA_SP SP+-6
          CFI (cfiCond90) CFA_XSP16 add(XSP16, 27)
          CFI Block cfiCond91 Using cfiCommon0
          CFI (cfiCond91) Function zclGeneral_SendSceneViewRsp
          CFI (cfiCond91) Conditional ??CrossCallReturnLabel_186, ??CrossCallReturnLabel_181, ??CrossCallReturnLabel_69
          CFI (cfiCond91) R6 load(1, XDATA, add(CFA_XSP16, literal(-24)))
          CFI (cfiCond91) VB load(1, XDATA, add(CFA_XSP16, literal(-23)))
          CFI (cfiCond91) V0 load(1, XDATA, add(CFA_XSP16, literal(-22)))
          CFI (cfiCond91) V1 load(1, XDATA, add(CFA_XSP16, literal(-21)))
          CFI (cfiCond91) V2 load(1, XDATA, add(CFA_XSP16, literal(-20)))
          CFI (cfiCond91) V3 load(1, XDATA, add(CFA_XSP16, literal(-19)))
          CFI (cfiCond91) V4 load(1, XDATA, add(CFA_XSP16, literal(-18)))
          CFI (cfiCond91) V5 load(1, XDATA, add(CFA_XSP16, literal(-17)))
          CFI (cfiCond91) V6 load(1, XDATA, add(CFA_XSP16, literal(-16)))
          CFI (cfiCond91) V7 load(1, XDATA, add(CFA_XSP16, literal(-15)))
          CFI (cfiCond91) V8 load(1, XDATA, add(CFA_XSP16, literal(-14)))
          CFI (cfiCond91) V9 load(1, XDATA, add(CFA_XSP16, literal(-13)))
          CFI (cfiCond91) V10 load(1, XDATA, add(CFA_XSP16, literal(-12)))
          CFI (cfiCond91) V11 load(1, XDATA, add(CFA_XSP16, literal(-11)))
          CFI (cfiCond91) V12 load(1, XDATA, add(CFA_XSP16, literal(-10)))
          CFI (cfiCond91) V13 load(1, XDATA, add(CFA_XSP16, literal(-9)))
          CFI (cfiCond91) V14 load(1, XDATA, add(CFA_XSP16, literal(-8)))
          CFI (cfiCond91) V15 load(1, XDATA, add(CFA_XSP16, literal(-7)))
          CFI (cfiCond91) R7 load(1, XDATA, add(CFA_XSP16, literal(-6)))
          CFI (cfiCond91) ?RET_LOW load(1, XDATA, add(CFA_XSP16, literal(-5)))
          CFI (cfiCond91) ?RET_HIGH load(1, XDATA, add(CFA_XSP16, literal(-4)))
          CFI (cfiCond91) ?BRET_EXT load(1, XDATA, add(CFA_XSP16, literal(-3)))
          CFI (cfiCond91) DPL0 load(1, XDATA, add(CFA_XSP16, literal(-2)))
          CFI (cfiCond91) DPH0 load(1, XDATA, add(CFA_XSP16, literal(-1)))
          CFI (cfiCond91) CFA_SP SP+-6
          CFI (cfiCond91) CFA_XSP16 add(XSP16, 26)
          CFI Block cfiCond92 Using cfiCommon0
          CFI (cfiCond92) Function zclGeneral_SendAddSceneRequest
          CFI (cfiCond92) Conditional ??CrossCallReturnLabel_185, ??CrossCallReturnLabel_147, ??CrossCallReturnLabel_97
          CFI (cfiCond92) R6 load(1, XDATA, add(CFA_XSP16, literal(-24)))
          CFI (cfiCond92) VB load(1, XDATA, add(CFA_XSP16, literal(-23)))
          CFI (cfiCond92) V0 load(1, XDATA, add(CFA_XSP16, literal(-22)))
          CFI (cfiCond92) V1 load(1, XDATA, add(CFA_XSP16, literal(-21)))
          CFI (cfiCond92) V2 load(1, XDATA, add(CFA_XSP16, literal(-20)))
          CFI (cfiCond92) V3 load(1, XDATA, add(CFA_XSP16, literal(-19)))
          CFI (cfiCond92) V4 load(1, XDATA, add(CFA_XSP16, literal(-18)))
          CFI (cfiCond92) V5 load(1, XDATA, add(CFA_XSP16, literal(-17)))
          CFI (cfiCond92) V6 load(1, XDATA, add(CFA_XSP16, literal(-16)))
          CFI (cfiCond92) V7 load(1, XDATA, add(CFA_XSP16, literal(-15)))
          CFI (cfiCond92) V8 load(1, XDATA, add(CFA_XSP16, literal(-14)))
          CFI (cfiCond92) V9 load(1, XDATA, add(CFA_XSP16, literal(-13)))
          CFI (cfiCond92) V10 load(1, XDATA, add(CFA_XSP16, literal(-12)))
          CFI (cfiCond92) V11 load(1, XDATA, add(CFA_XSP16, literal(-11)))
          CFI (cfiCond92) V12 load(1, XDATA, add(CFA_XSP16, literal(-10)))
          CFI (cfiCond92) V13 load(1, XDATA, add(CFA_XSP16, literal(-9)))
          CFI (cfiCond92) V14 load(1, XDATA, add(CFA_XSP16, literal(-8)))
          CFI (cfiCond92) V15 load(1, XDATA, add(CFA_XSP16, literal(-7)))
          CFI (cfiCond92) R7 load(1, XDATA, add(CFA_XSP16, literal(-6)))
          CFI (cfiCond92) ?RET_LOW load(1, XDATA, add(CFA_XSP16, literal(-5)))
          CFI (cfiCond92) ?RET_HIGH load(1, XDATA, add(CFA_XSP16, literal(-4)))
          CFI (cfiCond92) ?BRET_EXT load(1, XDATA, add(CFA_XSP16, literal(-3)))
          CFI (cfiCond92) DPL0 load(1, XDATA, add(CFA_XSP16, literal(-2)))
          CFI (cfiCond92) DPH0 load(1, XDATA, add(CFA_XSP16, literal(-1)))
          CFI (cfiCond92) CFA_SP SP+-6
          CFI (cfiCond92) CFA_XSP16 add(XSP16, 27)
          CFI Block cfiCond93 Using cfiCommon0
          CFI (cfiCond93) Function zclGeneral_SendAddSceneRequest
          CFI (cfiCond93) Conditional ??CrossCallReturnLabel_185, ??CrossCallReturnLabel_147, ??CrossCallReturnLabel_98
          CFI (cfiCond93) R6 load(1, XDATA, add(CFA_XSP16, literal(-24)))
          CFI (cfiCond93) VB load(1, XDATA, add(CFA_XSP16, literal(-23)))
          CFI (cfiCond93) V0 load(1, XDATA, add(CFA_XSP16, literal(-22)))
          CFI (cfiCond93) V1 load(1, XDATA, add(CFA_XSP16, literal(-21)))
          CFI (cfiCond93) V2 load(1, XDATA, add(CFA_XSP16, literal(-20)))
          CFI (cfiCond93) V3 load(1, XDATA, add(CFA_XSP16, literal(-19)))
          CFI (cfiCond93) V4 load(1, XDATA, add(CFA_XSP16, literal(-18)))
          CFI (cfiCond93) V5 load(1, XDATA, add(CFA_XSP16, literal(-17)))
          CFI (cfiCond93) V6 load(1, XDATA, add(CFA_XSP16, literal(-16)))
          CFI (cfiCond93) V7 load(1, XDATA, add(CFA_XSP16, literal(-15)))
          CFI (cfiCond93) V8 load(1, XDATA, add(CFA_XSP16, literal(-14)))
          CFI (cfiCond93) V9 load(1, XDATA, add(CFA_XSP16, literal(-13)))
          CFI (cfiCond93) V10 load(1, XDATA, add(CFA_XSP16, literal(-12)))
          CFI (cfiCond93) V11 load(1, XDATA, add(CFA_XSP16, literal(-11)))
          CFI (cfiCond93) V12 load(1, XDATA, add(CFA_XSP16, literal(-10)))
          CFI (cfiCond93) V13 load(1, XDATA, add(CFA_XSP16, literal(-9)))
          CFI (cfiCond93) V14 load(1, XDATA, add(CFA_XSP16, literal(-8)))
          CFI (cfiCond93) V15 load(1, XDATA, add(CFA_XSP16, literal(-7)))
          CFI (cfiCond93) R7 load(1, XDATA, add(CFA_XSP16, literal(-6)))
          CFI (cfiCond93) ?RET_LOW load(1, XDATA, add(CFA_XSP16, literal(-5)))
          CFI (cfiCond93) ?RET_HIGH load(1, XDATA, add(CFA_XSP16, literal(-4)))
          CFI (cfiCond93) ?BRET_EXT load(1, XDATA, add(CFA_XSP16, literal(-3)))
          CFI (cfiCond93) DPL0 load(1, XDATA, add(CFA_XSP16, literal(-2)))
          CFI (cfiCond93) DPH0 load(1, XDATA, add(CFA_XSP16, literal(-1)))
          CFI (cfiCond93) CFA_SP SP+-6
          CFI (cfiCond93) CFA_XSP16 add(XSP16, 27)
          CFI Block cfiCond94 Using cfiCommon0
          CFI (cfiCond94) Function zclGeneral_SendAddSceneRequest
          CFI (cfiCond94) Conditional ??CrossCallReturnLabel_185, ??CrossCallReturnLabel_146, ??CrossCallReturnLabel_95
          CFI (cfiCond94) R6 load(1, XDATA, add(CFA_XSP16, literal(-24)))
          CFI (cfiCond94) VB load(1, XDATA, add(CFA_XSP16, literal(-23)))
          CFI (cfiCond94) V0 load(1, XDATA, add(CFA_XSP16, literal(-22)))
          CFI (cfiCond94) V1 load(1, XDATA, add(CFA_XSP16, literal(-21)))
          CFI (cfiCond94) V2 load(1, XDATA, add(CFA_XSP16, literal(-20)))
          CFI (cfiCond94) V3 load(1, XDATA, add(CFA_XSP16, literal(-19)))
          CFI (cfiCond94) V4 load(1, XDATA, add(CFA_XSP16, literal(-18)))
          CFI (cfiCond94) V5 load(1, XDATA, add(CFA_XSP16, literal(-17)))
          CFI (cfiCond94) V6 load(1, XDATA, add(CFA_XSP16, literal(-16)))
          CFI (cfiCond94) V7 load(1, XDATA, add(CFA_XSP16, literal(-15)))
          CFI (cfiCond94) V8 load(1, XDATA, add(CFA_XSP16, literal(-14)))
          CFI (cfiCond94) V9 load(1, XDATA, add(CFA_XSP16, literal(-13)))
          CFI (cfiCond94) V10 load(1, XDATA, add(CFA_XSP16, literal(-12)))
          CFI (cfiCond94) V11 load(1, XDATA, add(CFA_XSP16, literal(-11)))
          CFI (cfiCond94) V12 load(1, XDATA, add(CFA_XSP16, literal(-10)))
          CFI (cfiCond94) V13 load(1, XDATA, add(CFA_XSP16, literal(-9)))
          CFI (cfiCond94) V14 load(1, XDATA, add(CFA_XSP16, literal(-8)))
          CFI (cfiCond94) V15 load(1, XDATA, add(CFA_XSP16, literal(-7)))
          CFI (cfiCond94) R7 load(1, XDATA, add(CFA_XSP16, literal(-6)))
          CFI (cfiCond94) ?RET_LOW load(1, XDATA, add(CFA_XSP16, literal(-5)))
          CFI (cfiCond94) ?RET_HIGH load(1, XDATA, add(CFA_XSP16, literal(-4)))
          CFI (cfiCond94) ?BRET_EXT load(1, XDATA, add(CFA_XSP16, literal(-3)))
          CFI (cfiCond94) DPL0 load(1, XDATA, add(CFA_XSP16, literal(-2)))
          CFI (cfiCond94) DPH0 load(1, XDATA, add(CFA_XSP16, literal(-1)))
          CFI (cfiCond94) CFA_SP SP+-6
          CFI (cfiCond94) CFA_XSP16 add(XSP16, 27)
          CFI Block cfiCond95 Using cfiCommon0
          CFI (cfiCond95) Function zclGeneral_SendSceneViewRsp
          CFI (cfiCond95) Conditional ??CrossCallReturnLabel_185, ??CrossCallReturnLabel_146, ??CrossCallReturnLabel_96
          CFI (cfiCond95) R6 load(1, XDATA, add(CFA_XSP16, literal(-24)))
          CFI (cfiCond95) VB load(1, XDATA, add(CFA_XSP16, literal(-23)))
          CFI (cfiCond95) V0 load(1, XDATA, add(CFA_XSP16, literal(-22)))
          CFI (cfiCond95) V1 load(1, XDATA, add(CFA_XSP16, literal(-21)))
          CFI (cfiCond95) V2 load(1, XDATA, add(CFA_XSP16, literal(-20)))
          CFI (cfiCond95) V3 load(1, XDATA, add(CFA_XSP16, literal(-19)))
          CFI (cfiCond95) V4 load(1, XDATA, add(CFA_XSP16, literal(-18)))
          CFI (cfiCond95) V5 load(1, XDATA, add(CFA_XSP16, literal(-17)))
          CFI (cfiCond95) V6 load(1, XDATA, add(CFA_XSP16, literal(-16)))
          CFI (cfiCond95) V7 load(1, XDATA, add(CFA_XSP16, literal(-15)))
          CFI (cfiCond95) V8 load(1, XDATA, add(CFA_XSP16, literal(-14)))
          CFI (cfiCond95) V9 load(1, XDATA, add(CFA_XSP16, literal(-13)))
          CFI (cfiCond95) V10 load(1, XDATA, add(CFA_XSP16, literal(-12)))
          CFI (cfiCond95) V11 load(1, XDATA, add(CFA_XSP16, literal(-11)))
          CFI (cfiCond95) V12 load(1, XDATA, add(CFA_XSP16, literal(-10)))
          CFI (cfiCond95) V13 load(1, XDATA, add(CFA_XSP16, literal(-9)))
          CFI (cfiCond95) V14 load(1, XDATA, add(CFA_XSP16, literal(-8)))
          CFI (cfiCond95) V15 load(1, XDATA, add(CFA_XSP16, literal(-7)))
          CFI (cfiCond95) R7 load(1, XDATA, add(CFA_XSP16, literal(-6)))
          CFI (cfiCond95) ?RET_LOW load(1, XDATA, add(CFA_XSP16, literal(-5)))
          CFI (cfiCond95) ?RET_HIGH load(1, XDATA, add(CFA_XSP16, literal(-4)))
          CFI (cfiCond95) ?BRET_EXT load(1, XDATA, add(CFA_XSP16, literal(-3)))
          CFI (cfiCond95) DPL0 load(1, XDATA, add(CFA_XSP16, literal(-2)))
          CFI (cfiCond95) DPH0 load(1, XDATA, add(CFA_XSP16, literal(-1)))
          CFI (cfiCond95) CFA_SP SP+-6
          CFI (cfiCond95) CFA_XSP16 add(XSP16, 26)
          CFI Block cfiPicker96 Using cfiCommon1
          CFI (cfiPicker96) NoFunction
          CFI (cfiPicker96) Picker
        MOVX      A,@DPTR
        MOV       DPL,R2
        MOV       DPH,R3
        RET
          CFI EndBlock cfiCond83
          CFI EndBlock cfiCond84
          CFI EndBlock cfiCond85
          CFI EndBlock cfiCond86
          CFI EndBlock cfiCond87
          CFI EndBlock cfiCond88
          CFI EndBlock cfiCond89
          CFI EndBlock cfiCond90
          CFI EndBlock cfiCond91
          CFI EndBlock cfiCond92
          CFI EndBlock cfiCond93
          CFI EndBlock cfiCond94
          CFI EndBlock cfiCond95
          CFI EndBlock cfiPicker96
//  659 
//  660 /*********************************************************************
//  661  * @fn      zclGeneral_SendSceneRequest
//  662  *
