///////////////////////////////////////////////////////////////////////////////
//
// IAR C/C++ Compiler V10.30.1.6000 for 8051              29/Jul/2020  20:16:05
// Copyright 2004-2018 IAR Systems AB.
// PC-locked license - IAR Embedded Workbench for 8051
//
//    Core               =  plain
//    Code model         =  banked
//    Data model         =  large
//    Calling convention =  xdata reentrant
//    Constant location  =  data_rom
//    Dptr setup         =  1,16
//                          
//    Source file        =  
//        D:\AA\Z-Stack 3.0.2\Components\stack\bdb\bdb_touchlink_initiator.c
//    Command line       =  
//        -f C:\Users\sunli\AppData\Local\Temp\EWC1E4.tmp ("D:\AA\Z-Stack
//        3.0.2\Components\stack\bdb\bdb_touchlink_initiator.c" -D SECURE=1 -D
//        TC_LINKKEY_JOIN -D NV_INIT -D NV_RESTORE -D xZTOOL_P1 -D xMT_TASK -D
//        xMT_APP_FUNC -D xMT_SYS_FUNC -D xMT_ZDO_FUNC -D xMT_ZDO_MGMT -D
//        xMT_APP_CNF_FUNC -D LCD_SUPPORTED=DEBUG -D MULTICAST_ENABLED=FALSE -D
//        ZCL_READ -D ZCL_DISCOVER -D ZCL_WRITE -D ZCL_BASIC -D ZCL_IDENTIFY -D
//        ZCL_ON_OFF -D ZCL_GROUPS -D BDB_TL_INITIATOR -D INTER_PAN -lC
//        "D:\AA\Z-Stack
//        3.0.2\Projects\zstack\HomeAutomation\SampleSwitch\CC2530DB\RouterEB\List"
//        -lA "D:\AA\Z-Stack
//        3.0.2\Projects\zstack\HomeAutomation\SampleSwitch\CC2530DB\RouterEB\List"
//        --diag_suppress Pe001,Pa010 -o "D:\AA\Z-Stack
//        3.0.2\Projects\zstack\HomeAutomation\SampleSwitch\CC2530DB\RouterEB\Obj"
//        -e --debug --core=plain --dptr=16,1 --data_model=large
//        --code_model=banked --calling_convention=xdata_reentrant
//        --place_constants=data_rom --nr_virtual_regs 16 -f "D:\AA\Z-Stack
//        3.0.2\Projects\zstack\HomeAutomation\SampleSwitch\CC2530DB\..\..\..\Tools\CC2530DB\f8wRouter.cfg"
//        (-DCPU32MHZ -DROOT=__near_func -DMAC_CFG_APP_PENDING_QUEUE=TRUE
//        -DMAC_CFG_TX_DATA_MAX=5 -DMAC_CFG_TX_MAX=8 -DMAC_CFG_RX_MAX=5
//        -DRTR_NWK) -f "D:\AA\Z-Stack
//        3.0.2\Projects\zstack\HomeAutomation\SampleSwitch\CC2530DB\..\..\..\Tools\CC2530DB\f8wConfig.cfg"
//        (-DZIGBEEPRO -DSECURE=1 -DZG_SECURE_DYNAMIC=0 -DREFLECTOR
//        -DDEFAULT_CHANLIST=0x00000800 -DZDAPP_CONFIG_PAN_ID=0xFFFF
//        -DNWK_START_DELAY=100 -DEXTENDED_JOINING_RANDOM_MASK=0x007F
//        -DBEACON_REQUEST_DELAY=100 -DBEACON_REQ_DELAY_MASK=0x00FF
//        -DLINK_STATUS_JITTER_MASK=0x007F -DROUTE_EXPIRY_TIME=30
//        -DAPSC_ACK_WAIT_DURATION_POLLED=3000 -DNWK_INDIRECT_MSG_TIMEOUT=7
//        -DMAX_RREQ_ENTRIES=8 -DAPSC_MAX_FRAME_RETRIES=3
//        -DNWK_MAX_DATA_RETRIES=2 -DMAX_POLL_FAILURE_RETRIES=2 -DMAX_BCAST=9
//        -DAPS_MAX_GROUPS=16 -DMAX_RTG_ENTRIES=40 -DNWK_MAX_BINDING_ENTRIES=4
//        -DMAX_BINDING_CLUSTER_IDS=4 -DDEFAULT_KEY={0}
//        -DMAC_MAX_FRAME_SIZE=116 -DZDNWKMGR_MIN_TRANSMISSIONS=20
//        "-DCONST=const __code" -DGENERIC=__generic -DRFD_RCVC_ALWAYS_ON=FALSE
//        -DPOLL_RATE=1000 -DQUEUED_POLL_RATE=100 -DRESPONSE_POLL_RATE=100
//        -DREJOIN_POLL_RATE=440 -DREJOIN_BACKOFF=900000 -DREJOIN_SCAN=900000
//        -DENABLE_LED4_DISABLE_S1) -f "D:\AA\Z-Stack
//        3.0.2\Projects\zstack\HomeAutomation\SampleSwitch\CC2530DB\..\..\..\Tools\CC2530DB\f8wZCL.cfg"
//        -I "D:\AA\Z-Stack
//        3.0.2\Projects\zstack\HomeAutomation\SampleSwitch\CC2530DB\" -I
//        "D:\AA\Z-Stack
//        3.0.2\Projects\zstack\HomeAutomation\SampleSwitch\CC2530DB\..\Source\"
//        -I "D:\AA\Z-Stack
//        3.0.2\Projects\zstack\HomeAutomation\SampleSwitch\CC2530DB\..\..\Source\"
//        -I "D:\AA\Z-Stack
//        3.0.2\Projects\zstack\HomeAutomation\SampleSwitch\CC2530DB\..\..\..\ZMain\TI2530DB\"
//        -I "D:\AA\Z-Stack
//        3.0.2\Projects\zstack\HomeAutomation\SampleSwitch\CC2530DB\..\..\..\..\..\Components\hal\include\"
//        -I "D:\AA\Z-Stack
//        3.0.2\Projects\zstack\HomeAutomation\SampleSwitch\CC2530DB\..\..\..\..\..\Components\hal\target\CC2530EB\"
//        -I "D:\AA\Z-Stack
//        3.0.2\Projects\zstack\HomeAutomation\SampleSwitch\CC2530DB\..\..\..\..\..\Components\mac\include\"
//        -I "D:\AA\Z-Stack
//        3.0.2\Projects\zstack\HomeAutomation\SampleSwitch\CC2530DB\..\..\..\..\..\Components\mac\high_level\"
//        -I "D:\AA\Z-Stack
//        3.0.2\Projects\zstack\HomeAutomation\SampleSwitch\CC2530DB\..\..\..\..\..\Components\mac\low_level\srf04\"
//        -I "D:\AA\Z-Stack
//        3.0.2\Projects\zstack\HomeAutomation\SampleSwitch\CC2530DB\..\..\..\..\..\Components\mac\low_level\srf04\single_chip\"
//        -I "D:\AA\Z-Stack
//        3.0.2\Projects\zstack\HomeAutomation\SampleSwitch\CC2530DB\..\..\..\..\..\Components\mt\"
//        -I "D:\AA\Z-Stack
//        3.0.2\Projects\zstack\HomeAutomation\SampleSwitch\CC2530DB\..\..\..\..\..\Components\osal\include\"
//        -I "D:\AA\Z-Stack
//        3.0.2\Projects\zstack\HomeAutomation\SampleSwitch\CC2530DB\..\..\..\..\..\Components\services\saddr\"
//        -I "D:\AA\Z-Stack
//        3.0.2\Projects\zstack\HomeAutomation\SampleSwitch\CC2530DB\..\..\..\..\..\Components\services\sdata\"
//        -I "D:\AA\Z-Stack
//        3.0.2\Projects\zstack\HomeAutomation\SampleSwitch\CC2530DB\..\..\..\..\..\Components\stack\af\"
//        -I "D:\AA\Z-Stack
//        3.0.2\Projects\zstack\HomeAutomation\SampleSwitch\CC2530DB\..\..\..\..\..\Components\stack\bdb\"
//        -I "D:\AA\Z-Stack
//        3.0.2\Projects\zstack\HomeAutomation\SampleSwitch\CC2530DB\..\..\..\..\..\Components\stack\gp\"
//        -I "D:\AA\Z-Stack
//        3.0.2\Projects\zstack\HomeAutomation\SampleSwitch\CC2530DB\..\..\..\..\..\Components\stack\nwk\"
//        -I "D:\AA\Z-Stack
//        3.0.2\Projects\zstack\HomeAutomation\SampleSwitch\CC2530DB\..\..\..\..\..\Components\stack\sapi\"
//        -I "D:\AA\Z-Stack
//        3.0.2\Projects\zstack\HomeAutomation\SampleSwitch\CC2530DB\..\..\..\..\..\Components\stack\sec\"
//        -I "D:\AA\Z-Stack
//        3.0.2\Projects\zstack\HomeAutomation\SampleSwitch\CC2530DB\..\..\..\..\..\Components\stack\sys\"
//        -I "D:\AA\Z-Stack
//        3.0.2\Projects\zstack\HomeAutomation\SampleSwitch\CC2530DB\..\..\..\..\..\Components\stack\zcl\"
//        -I "D:\AA\Z-Stack
//        3.0.2\Projects\zstack\HomeAutomation\SampleSwitch\CC2530DB\..\..\..\..\..\Components\stack\zdo\"
//        -I "D:\AA\Z-Stack
//        3.0.2\Projects\zstack\HomeAutomation\SampleSwitch\CC2530DB\..\..\..\..\..\Components\zmac\"
//        -I "D:\AA\Z-Stack
//        3.0.2\Projects\zstack\HomeAutomation\SampleSwitch\CC2530DB\..\..\..\..\..\Components\zmac\f8w\"
//        -Ohz --require_prototypes)
//    Locale             =  Chinese (Simplified)_CHN.936
//    List file          =  
//        D:\AA\Z-Stack
//        3.0.2\Projects\zstack\HomeAutomation\SampleSwitch\CC2530DB\RouterEB\List\bdb_touchlink_initiator.s51
//
///////////////////////////////////////////////////////////////////////////////

        NAME bdb_touchlink_initiator

        RTMODEL "__SystemLibrary", "CLib"
        RTMODEL "__calling_convention", "xdata_reentrant"
        RTMODEL "__code_model", "banked"
        RTMODEL "__core", "plain"
        RTMODEL "__data_model", "large"
        RTMODEL "__dptr_size", "16"
        RTMODEL "__extended_stack", "disabled"
        RTMODEL "__location_for_constants", "data"
        RTMODEL "__number_of_dptrs", "1"
        RTMODEL "__register_banks", "*"
        RTMODEL "__rt_version", "1"

        RSEG DOVERLAY:DATA:NOROOT(0)
        RSEG IOVERLAY:IDATA:NOROOT(0)
        RSEG ISTACK:IDATA:NOROOT(0)
        RSEG PSTACK:XDATA:NOROOT(0)
        RSEG XSTACK:XDATA:NOROOT(0)

        EXTERN ?V0
        EXTERN ?V1
        EXTERN ?V2
        EXTERN ?V3
        EXTERN ?V4
        EXTERN ?V5
        EXTERN ?V6
        EXTERN ?V7
        EXTERN ?V8
        EXTERN ?V9
        EXTERN ?V10
        EXTERN ?V11
        EXTERN ?V12
        EXTERN ?V13
        EXTERN ?ALLOC_XSTACK8
        EXTERN ?BANKED_ENTER_XDATA
        EXTERN ?BANKED_LEAVE_XDATA
        EXTERN ?BDISPATCH
        EXTERN ?BRET
        EXTERN ?CALL_IND
        EXTERN ?DEALLOC_XSTACK8
        EXTERN ?L_ADD
        EXTERN ?L_EQ_X
        EXTERN ?L_MOV_TO_X
        EXTERN ?L_MOV_X
        EXTERN ?L_SHL
        EXTERN ?MOVE_LONG8_XDATA_XDATA
        EXTERN ?PUSH_XSTACK8_X_FOUR
        EXTERN ?PUSH_XSTACK8_X_TWO
        EXTERN ?PUSH_XSTACK_I_FOUR
        EXTERN ?PUSH_XSTACK_I_ONE
        EXTERN ?PUSH_XSTACK_I_THREE
        EXTERN ?PUSH_XSTACK_I_TWO
        EXTERN ?S_SHL
        EXTERN ?US_SHR
        EXTERN ?XLOAD_R0123
        EXTERN ?XLOAD_R2345
        EXTERN ?XSP
        EXTERN ?XSTACK_DISP0_8
        EXTERN ?XSTACK_DISP100_8
        EXTERN ?XSTACK_DISP101_8
        EXTERN ?XSTACK_DISP102_8
        EXTERN ?XSTORE_R0123
        EXTERN __INIT_XDATA_I
        EXTERN __INIT_XDATA_Z

        PUBLIC `??bdb_Initiator_SendNwkJoinReq::?relay`
        FUNCTION `??bdb_Initiator_SendNwkJoinReq::?relay`,0203H
        FUNCTION `??initiatorClearSelectedTarget::?relay`,0203H
        FUNCTION `??initiatorDeviceInfoReqCB::?relay`,0203H
        FUNCTION `??initiatorDeviceInfoRspCB::?relay`,0203H
        FUNCTION `??initiatorIdentifyReqCB::?relay`,0203H
        FUNCTION `??initiatorNwkJoinEDRspCB::?relay`,0203H
        FUNCTION `??initiatorNwkJoinReqCB::?relay`,0203H
        FUNCTION `??initiatorNwkJoinRtrRspCB::?relay`,0203H
        FUNCTION `??initiatorNwkStartRspCB::?relay`,0203H
        FUNCTION `??initiatorNwkUpdateReqCB::?relay`,0203H
        FUNCTION `??initiatorProcessStateChange::?relay`,0203H
        FUNCTION `??initiatorReJoinNwk::?relay`,0203H
        FUNCTION `??initiatorScanReqCB::?relay`,0203H
        FUNCTION `??initiatorScanRspCB::?relay`,0203H
        PUBLIC `??initiatorSelectNwkParams::?relay`
        FUNCTION `??initiatorSelectNwkParams::?relay`,0203H
        FUNCTION `??initiatorSendNwkJoinReq::?relay`,0203H
        FUNCTION `??initiatorSendScanReq::?relay`,0203H
        FUNCTION `??initiatorSetNwkToInitState::?relay`,0203H
        FUNCTION `??initiatorZdoLeaveCnfCB::?relay`,0203H
        PUBLIC `??touchLinkInitiator_AbortTL::?relay`
        FUNCTION `??touchLinkInitiator_AbortTL::?relay`,0203H
        PUBLIC `??touchLinkInitiator_ChannelChange::?relay`
        FUNCTION `??touchLinkInitiator_ChannelChange::?relay`,0203H
        PUBLIC `??touchLinkInitiator_Init::?relay`
        FUNCTION `??touchLinkInitiator_Init::?relay`,0203H
        PUBLIC `??touchLinkInitiator_InitDevice::?relay`
        FUNCTION `??touchLinkInitiator_InitDevice::?relay`,0203H
        PUBLIC `??touchLinkInitiator_PermitJoin::?relay`
        FUNCTION `??touchLinkInitiator_PermitJoin::?relay`,0203H
        PUBLIC `??touchLinkInitiator_RegisterForMsg::?relay`
        FUNCTION `??touchLinkInitiator_RegisterForMsg::?relay`,0203H
        PUBLIC `??touchLinkInitiator_RegisterNotifyTLCB::?relay`
        FUNCTION `??touchLinkInitiator_RegisterNotifyTLCB::?relay`,0203H
        PUBLIC `??touchLinkInitiator_RegisterSelectDiscDevCB::?`
        FUNCTION `??touchLinkInitiator_RegisterSelectDiscDevCB::?`,0203H
        PUBLIC `??touchLinkInitiator_ResetToFNProcedure::?relay`
        FUNCTION `??touchLinkInitiator_ResetToFNProcedure::?relay`,0203H
        PUBLIC `??touchLinkInitiator_ResetToFNSelectedTarget::?`
        FUNCTION `??touchLinkInitiator_ResetToFNSelectedTarget::?`,0203H
        PUBLIC `??touchLinkInitiator_SendEPInfo::?relay`
        FUNCTION `??touchLinkInitiator_SendEPInfo::?relay`,0203H
        PUBLIC `??touchLinkInitiator_StartDevDisc::?relay`
        FUNCTION `??touchLinkInitiator_StartDevDisc::?relay`,0203H
        PUBLIC `??touchLinkInitiator_event_loop::?relay`
        FUNCTION `??touchLinkInitiator_event_loop::?relay`,0203H
        FUNCTION `??touchLink_InitiatorSendScanRsp::?relay`,0203H
        PUBWEAK __Constant_0
        PUBWEAK __Constant_1388
        PUBWEAK __Constant_1f4
        PUBWEAK __Constant_1f40
        PUBWEAK __Constant_30d4
        PUBWEAK __Constant_32
        PUBWEAK __Constant_7d0
        PUBWEAK __Constant_fa
        PUBLIC bdb_Initiator_SendNwkJoinReq
        FUNCTION bdb_Initiator_SendNwkJoinReq,021203H
        ARGFRAME XSTACK, 75, STACK
        ARGFRAME IOVERLAY, 0, STATIC
        ARGFRAME DOVERLAY, 0, STATIC
        LOCFRAME ISTACK, 2, STACK
        FUNCTION initiatorClearSelectedTarget,021203H
        ARGFRAME XSTACK, 75, STACK
        ARGFRAME IOVERLAY, 0, STATIC
        ARGFRAME DOVERLAY, 0, STATIC
        LOCFRAME ISTACK, 2, STACK
        FUNCTION initiatorDeviceInfoReqCB,0a1603H
        ARGFRAME XSTACK, 0, STACK
        LOCFRAME XSTACK, 15, STACK
        FUNCTION initiatorDeviceInfoRspCB,0a1603H
        ARGFRAME XSTACK, 0, STACK
        LOCFRAME ISTACK, 2, STACK
        LOCFRAME XSTACK, 58, STACK
        FUNCTION initiatorIdentifyReqCB,0a1603H
        ARGFRAME XSTACK, 0, STACK
        LOCFRAME XSTACK, 10, STACK
        FUNCTION initiatorNwkJoinEDRspCB,0a1603H
        ARGFRAME XSTACK, 0, STACK
        LOCFRAME XSTACK, 14, STACK
        FUNCTION initiatorNwkJoinReqCB,0a1603H
        ARGFRAME XSTACK, 0, STACK
        LOCFRAME XSTACK, 41, STACK
        FUNCTION initiatorNwkJoinRtrRspCB,0a1603H
        ARGFRAME XSTACK, 0, STACK
        LOCFRAME XSTACK, 14, STACK
        FUNCTION initiatorNwkStartRspCB,021603H
        ARGFRAME XSTACK, 0, STACK
        LOCFRAME XSTACK, 9, STACK
        FUNCTION initiatorNwkUpdateReqCB,0a1603H
        ARGFRAME XSTACK, 0, STACK
        LOCFRAME XSTACK, 10, STACK
        FUNCTION initiatorProcessStateChange,0a1203H
        ARGFRAME XSTACK, 75, STACK
        ARGFRAME IOVERLAY, 0, STATIC
        ARGFRAME DOVERLAY, 0, STATIC
        LOCFRAME XSTACK, 14, STACK
        FUNCTION initiatorReJoinNwk,021203H
        ARGFRAME XSTACK, 75, STACK
        ARGFRAME IOVERLAY, 0, STATIC
        ARGFRAME DOVERLAY, 0, STATIC
        LOCFRAME XSTACK, 9, STACK
        FUNCTION initiatorScanReqCB,0a1603H
        ARGFRAME XSTACK, 0, STACK
        LOCFRAME XSTACK, 35, STACK
        FUNCTION initiatorScanRspCB,0a1603H
        ARGFRAME XSTACK, 0, STACK
        LOCFRAME ISTACK, 1, STACK
        LOCFRAME XSTACK, 18, STACK
        PUBLIC initiatorSelectNwkParams
        FUNCTION initiatorSelectNwkParams,021203H
        ARGFRAME XSTACK, 0, STACK
        ARGFRAME IOVERLAY, 0, STATIC
        ARGFRAME DOVERLAY, 0, STATIC
        LOCFRAME ISTACK, 2, STACK
        FUNCTION initiatorSendNwkJoinReq,0a1203H
        ARGFRAME XSTACK, 0, STACK
        ARGFRAME IOVERLAY, 0, STATIC
        ARGFRAME DOVERLAY, 0, STATIC
        LOCFRAME ISTACK, 1, STACK
        LOCFRAME XSTACK, 24, STACK
        FUNCTION initiatorSendScanReq,0a1203H
        ARGFRAME XSTACK, 75, STACK
        ARGFRAME IOVERLAY, 0, STATIC
        ARGFRAME DOVERLAY, 0, STATIC
        LOCFRAME XSTACK, 33, STACK
        FUNCTION initiatorSetNwkToInitState,0a1203H
        ARGFRAME XSTACK, 75, STACK
        ARGFRAME IOVERLAY, 0, STATIC
        ARGFRAME DOVERLAY, 0, STATIC
        LOCFRAME XSTACK, 12, STACK
        FUNCTION initiatorZdoLeaveCnfCB,021603H
        ARGFRAME XSTACK, 0, STACK
        LOCFRAME ISTACK, 2, STACK
        PUBLIC touchLinkInitiator_AbortTL
        FUNCTION touchLinkInitiator_AbortTL,021203H
        ARGFRAME XSTACK, 29, STACK
        ARGFRAME IOVERLAY, 0, STATIC
        ARGFRAME DOVERLAY, 0, STATIC
        LOCFRAME ISTACK, 2, STACK
        PUBLIC touchLinkInitiator_ChannelChange
        FUNCTION touchLinkInitiator_ChannelChange,0a1203H
        ARGFRAME XSTACK, 0, STACK
        LOCFRAME XSTACK, 27, STACK
        PUBLIC touchLinkInitiator_Init
        FUNCTION touchLinkInitiator_Init,021203H
        ARGFRAME XSTACK, 0, STACK
        LOCFRAME XSTACK, 9, STACK
        PUBLIC touchLinkInitiator_InitDevice
        FUNCTION touchLinkInitiator_InitDevice,021203H
        ARGFRAME XSTACK, 0, STACK
        LOCFRAME ISTACK, 2, STACK
        PUBLIC touchLinkInitiator_PermitJoin
        FUNCTION touchLinkInitiator_PermitJoin,021203H
        ARGFRAME XSTACK, 0, STACK
        LOCFRAME XSTACK, 9, STACK
        PUBLIC touchLinkInitiator_RegisterForMsg
        FUNCTION touchLinkInitiator_RegisterForMsg,0203H
        ARGFRAME XSTACK, 0, STACK
        LOCFRAME ISTACK, 2, STACK
        PUBLIC touchLinkInitiator_RegisterNotifyTLCB
        FUNCTION touchLinkInitiator_RegisterNotifyTLCB,0203H
        ARGFRAME XSTACK, 0, STACK
        LOCFRAME ISTACK, 2, STACK
        PUBLIC touchLinkInitiator_RegisterSelectDiscDevCB
        FUNCTION touchLinkInitiator_RegisterSelectDiscDevCB,0203H
        ARGFRAME XSTACK, 0, STACK
        LOCFRAME ISTACK, 2, STACK
        PUBLIC touchLinkInitiator_ResetToFNProcedure
        FUNCTION touchLinkInitiator_ResetToFNProcedure,021203H
        ARGFRAME XSTACK, 0, STACK
        LOCFRAME ISTACK, 2, STACK
        PUBLIC touchLinkInitiator_ResetToFNSelectedTarget
        FUNCTION touchLinkInitiator_ResetToFNSelectedTarget,0a1203H
        ARGFRAME XSTACK, 75, STACK
        ARGFRAME IOVERLAY, 0, STATIC
        ARGFRAME DOVERLAY, 0, STATIC
        LOCFRAME XSTACK, 14, STACK
        PUBLIC touchLinkInitiator_SendEPInfo
        FUNCTION touchLinkInitiator_SendEPInfo,0a1203H
        ARGFRAME XSTACK, 0, STACK
        LOCFRAME ISTACK, 1, STACK
        LOCFRAME XSTACK, 37, STACK
        PUBLIC touchLinkInitiator_StartDevDisc
        FUNCTION touchLinkInitiator_StartDevDisc,0a1203H
        ARGFRAME XSTACK, 0, STACK
        ARGFRAME IOVERLAY, 0, STATIC
        ARGFRAME DOVERLAY, 0, STATIC
        LOCFRAME XSTACK, 21, STACK
        PUBLIC touchLinkInitiator_TaskID
        PUBLIC touchLinkInitiator_event_loop
        FUNCTION touchLinkInitiator_event_loop,0a1203H
        ARGFRAME XSTACK, 0, STACK
        LOCFRAME ISTACK, 1, STACK
        LOCFRAME XSTACK, 83, STACK
        FUNCTION touchLink_InitiatorSendScanRsp,0a1203H
        ARGFRAME XSTACK, 35, STACK
        ARGFRAME IOVERLAY, 0, STATIC
        ARGFRAME DOVERLAY, 0, STATIC
        LOCFRAME ISTACK, 1, STACK
        LOCFRAME XSTACK, 26, STACK
        
          CFI Names cfiNames0
          CFI StackFrame CFA_SP SP IDATA
          CFI StackFrame CFA_PSP16 PSP16 XDATA
          CFI StackFrame CFA_XSP16 XSP16 XDATA
          CFI StaticOverlayFrame CFA_IOVERLAY IOVERLAY
          CFI StaticOverlayFrame CFA_DOVERLAY DOVERLAY
          CFI Resource `PSW.CY`:1, `B.BR0`:1, `B.BR1`:1, `B.BR2`:1, `B.BR3`:1
          CFI Resource `B.BR4`:1, `B.BR5`:1, `B.BR6`:1, `B.BR7`:1, `VB.BR8`:1
          CFI Resource `VB.BR9`:1, `VB.BR10`:1, `VB.BR11`:1, `VB.BR12`:1
          CFI Resource `VB.BR13`:1, `VB.BR14`:1, `VB.BR15`:1, VB:8, B:8, A:8
          CFI Resource PSW:8, DPL0:8, DPH0:8, R0:8, R1:8, R2:8, R3:8, R4:8, R5:8
          CFI Resource R6:8, R7:8, V0:8, V1:8, V2:8, V3:8, V4:8, V5:8, V6:8, V7:8
          CFI Resource V8:8, V9:8, V10:8, V11:8, V12:8, V13:8, V14:8, V15:8, SP:8
          CFI Resource PSPH:8, PSPL:8, PSP16:16, XSPH:8, XSPL:8, XSP16:16
          CFI VirtualResource ?RET:24
          CFI Resource ?BRET_EXT:8
          CFI VirtualResource ?RET_HIGH:8, ?RET_LOW:8
          CFI ResourceParts PSP16 PSPH, PSPL
          CFI ResourceParts XSP16 XSPH, XSPL
          CFI ResourceParts ?RET ?BRET_EXT, ?RET_HIGH, ?RET_LOW
          CFI EndNames cfiNames0
        
          CFI Common cfiCommon0 Using cfiNames0
          CFI CodeAlign 1
          CFI DataAlign -1
          CFI ReturnAddress ?RET CODE
          CFI CFA_DOVERLAY Used
          CFI CFA_IOVERLAY Used
          CFI CFA_SP SP+-3
          CFI CFA_PSP16 PSP16+0
          CFI CFA_XSP16 XSP16+0
          CFI `PSW.CY` SameValue
          CFI `B.BR0` SameValue
          CFI `B.BR1` SameValue
          CFI `B.BR2` SameValue
          CFI `B.BR3` SameValue
          CFI `B.BR4` SameValue
          CFI `B.BR5` SameValue
          CFI `B.BR6` SameValue
          CFI `B.BR7` SameValue
          CFI `VB.BR8` SameValue
          CFI `VB.BR9` SameValue
          CFI `VB.BR10` SameValue
          CFI `VB.BR11` SameValue
          CFI `VB.BR12` SameValue
          CFI `VB.BR13` SameValue
          CFI `VB.BR14` SameValue
          CFI `VB.BR15` SameValue
          CFI VB SameValue
          CFI B Undefined
          CFI A Undefined
          CFI PSW SameValue
          CFI DPL0 SameValue
          CFI DPH0 SameValue
          CFI R0 Undefined
          CFI R1 Undefined
          CFI R2 Undefined
          CFI R3 Undefined
          CFI R4 Undefined
          CFI R5 Undefined
          CFI R6 SameValue
          CFI R7 SameValue
          CFI V0 SameValue
          CFI V1 SameValue
          CFI V2 SameValue
          CFI V3 SameValue
          CFI V4 SameValue
          CFI V5 SameValue
          CFI V6 SameValue
          CFI V7 SameValue
          CFI V8 SameValue
          CFI V9 SameValue
          CFI V10 SameValue
          CFI V11 SameValue
          CFI V12 SameValue
          CFI V13 SameValue
          CFI V14 SameValue
          CFI V15 SameValue
          CFI PSPH Undefined
          CFI PSPL Undefined
          CFI XSPH Undefined
          CFI XSPL Undefined
          CFI ?RET Concat
          CFI ?BRET_EXT Frame(CFA_SP, 3)
          CFI ?RET_HIGH Frame(CFA_SP, 2)
          CFI ?RET_LOW Frame(CFA_SP, 1)
          CFI EndCommon cfiCommon0
        
        
          CFI Common cfiCommon1 Using cfiNames0
          CFI CodeAlign 1
          CFI DataAlign -1
          CFI ReturnAddress ?RET CODE
          CFI CFA_DOVERLAY Used
          CFI CFA_IOVERLAY Used
          CFI CFA_SP SP+-2
          CFI CFA_PSP16 PSP16+0
          CFI CFA_XSP16 XSP16+0
          CFI `PSW.CY` SameValue
          CFI `B.BR0` SameValue
          CFI `B.BR1` SameValue
          CFI `B.BR2` SameValue
          CFI `B.BR3` SameValue
          CFI `B.BR4` SameValue
          CFI `B.BR5` SameValue
          CFI `B.BR6` SameValue
          CFI `B.BR7` SameValue
          CFI `VB.BR8` SameValue
          CFI `VB.BR9` SameValue
          CFI `VB.BR10` SameValue
          CFI `VB.BR11` SameValue
          CFI `VB.BR12` SameValue
          CFI `VB.BR13` SameValue
          CFI `VB.BR14` SameValue
          CFI `VB.BR15` SameValue
          CFI VB SameValue
          CFI B SameValue
          CFI A SameValue
          CFI PSW SameValue
          CFI DPL0 SameValue
          CFI DPH0 SameValue
          CFI R0 SameValue
          CFI R1 SameValue
          CFI R2 SameValue
          CFI R3 SameValue
          CFI R4 SameValue
          CFI R5 SameValue
          CFI R6 SameValue
          CFI R7 SameValue
          CFI V0 SameValue
          CFI V1 SameValue
          CFI V2 SameValue
          CFI V3 SameValue
          CFI V4 SameValue
          CFI V5 SameValue
          CFI V6 SameValue
          CFI V7 SameValue
          CFI V8 SameValue
          CFI V9 SameValue
          CFI V10 SameValue
          CFI V11 SameValue
          CFI V12 SameValue
          CFI V13 SameValue
          CFI V14 SameValue
          CFI V15 SameValue
          CFI PSPH Undefined
          CFI PSPL Undefined
          CFI XSPH Undefined
          CFI XSPL Undefined
          CFI ?RET Concat
          CFI ?BRET_EXT SameValue
          CFI ?RET_HIGH Frame(CFA_SP, 2)
          CFI ?RET_LOW Frame(CFA_SP, 1)
          CFI EndCommon cfiCommon1
        
APSME_GetRequest    SYMBOL "APSME_GetRequest"
`??APSME_GetRequest::?relay` SYMBOL "?relay", APSME_GetRequest
AddrMgrEntryUpdate  SYMBOL "AddrMgrEntryUpdate"
`??AddrMgrEntryUpdate::?relay` SYMBOL "?relay", AddrMgrEntryUpdate
NLME_GetExtAddr     SYMBOL "NLME_GetExtAddr"
`??NLME_GetExtAddr::?relay` SYMBOL "?relay", NLME_GetExtAddr
NLME_GetShortAddr   SYMBOL "NLME_GetShortAddr"
`??NLME_GetShortAddr::?relay` SYMBOL "?relay", NLME_GetShortAddr
NLME_InitNV         SYMBOL "NLME_InitNV"
`??NLME_InitNV::?relay` SYMBOL "?relay", NLME_InitNV
NLME_SetPollRate    SYMBOL "NLME_SetPollRate"
`??NLME_SetPollRate::?relay` SYMBOL "?relay", NLME_SetPollRate
NLME_SetQueuedPollRate SYMBOL "NLME_SetQueuedPollRate"
`??NLME_SetQueuedPollRate::?relay` SYMBOL "?relay", NLME_SetQueuedPollRate
NLME_SetResponseRate SYMBOL "NLME_SetResponseRate"
`??NLME_SetResponseRate::?relay` SYMBOL "?relay", NLME_SetResponseRate
NLME_SetUpdateID    SYMBOL "NLME_SetUpdateID"
`??NLME_SetUpdateID::?relay` SYMBOL "?relay", NLME_SetUpdateID
ZDApp_LeaveCtrlReset SYMBOL "ZDApp_LeaveCtrlReset"
`??ZDApp_LeaveCtrlReset::?relay` SYMBOL "?relay", ZDApp_LeaveCtrlReset
ZDApp_StopJoiningCycle SYMBOL "ZDApp_StopJoiningCycle"
`??ZDApp_StopJoiningCycle::?relay` SYMBOL "?relay", ZDApp_StopJoiningCycle
ZDOInitDeviceEx     SYMBOL "ZDOInitDeviceEx"
`??ZDOInitDeviceEx::?relay` SYMBOL "?relay", ZDOInitDeviceEx
ZDO_RegisterForZDOMsg SYMBOL "ZDO_RegisterForZDOMsg"
`??ZDO_RegisterForZDOMsg::?relay` SYMBOL "?relay", ZDO_RegisterForZDOMsg
ZDO_RegisterForZdoCB SYMBOL "ZDO_RegisterForZdoCB"
`??ZDO_RegisterForZdoCB::?relay` SYMBOL "?relay", ZDO_RegisterForZdoCB
ZDP_DeviceAnnce     SYMBOL "ZDP_DeviceAnnce"
`??ZDP_DeviceAnnce::?relay` SYMBOL "?relay", ZDP_DeviceAnnce
ZDP_MgmtNwkUpdateReq SYMBOL "ZDP_MgmtNwkUpdateReq"
`??ZDP_MgmtNwkUpdateReq::?relay` SYMBOL "?relay", ZDP_MgmtNwkUpdateReq
ZDSecMgrUpdateTCAddress SYMBOL "ZDSecMgrUpdateTCAddress"
`??ZDSecMgrUpdateTCAddress::?relay` SYMBOL "?relay", ZDSecMgrUpdateTCAddress
ZMacGetReq          SYMBOL "ZMacGetReq"
`??ZMacGetReq::?relay` SYMBOL "?relay", ZMacGetReq
ZMacSetReq          SYMBOL "ZMacSetReq"
`??ZMacSetReq::?relay` SYMBOL "?relay", ZMacSetReq
bdbTL_RegisterInterPANCmdCallbacks SYMBOL "bdbTL_RegisterInterPANCmdCallbacks"
`??bdbTL_RegisterInterPANCmdCallbacks::?relay` SYMBOL "?relay", bdbTL_RegisterInterPANCmdCallbacks
bdbTL_Send_DeviceInfoReq SYMBOL "bdbTL_Send_DeviceInfoReq"
`??bdbTL_Send_DeviceInfoReq::?relay` SYMBOL "?relay", bdbTL_Send_DeviceInfoReq
bdbTL_Send_EndpointInfo SYMBOL "bdbTL_Send_EndpointInfo"
`??bdbTL_Send_EndpointInfo::?relay` SYMBOL "?relay", bdbTL_Send_EndpointInfo
bdbTL_Send_IndentifyReq SYMBOL "bdbTL_Send_IndentifyReq"
`??bdbTL_Send_IndentifyReq::?relay` SYMBOL "?relay", bdbTL_Send_IndentifyReq
bdbTL_Send_NwkJoinReq SYMBOL "bdbTL_Send_NwkJoinReq"
`??bdbTL_Send_NwkJoinReq::?relay` SYMBOL "?relay", bdbTL_Send_NwkJoinReq
bdbTL_Send_NwkJoinRsp SYMBOL "bdbTL_Send_NwkJoinRsp"
`??bdbTL_Send_NwkJoinRsp::?relay` SYMBOL "?relay", bdbTL_Send_NwkJoinRsp
bdbTL_Send_NwkUpdateReq SYMBOL "bdbTL_Send_NwkUpdateReq"
`??bdbTL_Send_NwkUpdateReq::?relay` SYMBOL "?relay", bdbTL_Send_NwkUpdateReq
bdbTL_Send_ResetToFNReq SYMBOL "bdbTL_Send_ResetToFNReq"
`??bdbTL_Send_ResetToFNReq::?relay` SYMBOL "?relay", bdbTL_Send_ResetToFNReq
bdbTL_Send_ScanReq  SYMBOL "bdbTL_Send_ScanReq"
`??bdbTL_Send_ScanReq::?relay` SYMBOL "?relay", bdbTL_Send_ScanReq
bdbTL_Send_ScanRsp  SYMBOL "bdbTL_Send_ScanRsp"
`??bdbTL_Send_ScanRsp::?relay` SYMBOL "?relay", bdbTL_Send_ScanRsp
bdb_AddRespondentNode SYMBOL "bdb_AddRespondentNode"
`??bdb_AddRespondentNode::?relay` SYMBOL "?relay", bdb_AddRespondentNode
bdb_ZclIdentifyCmdInd SYMBOL "bdb_ZclIdentifyCmdInd"
`??bdb_ZclIdentifyCmdInd::?relay` SYMBOL "?relay", bdb_ZclIdentifyCmdInd
bdb_reportCommissioningState SYMBOL "bdb_reportCommissioningState"
`??bdb_reportCommissioningState::?relay` SYMBOL "?relay", bdb_reportCommissioningState
bdb_setEpDescListToActiveEndpoint SYMBOL "bdb_setEpDescListToActiveEndpoint"
`??bdb_setEpDescListToActiveEndpoint::?relay` SYMBOL "?relay", bdb_setEpDescListToActiveEndpoint
bdb_setNodeIsOnANetwork SYMBOL "bdb_setNodeIsOnANetwork"
`??bdb_setNodeIsOnANetwork::?relay` SYMBOL "?relay", bdb_setNodeIsOnANetwork
bdb_zclRespondentListClean SYMBOL "bdb_zclRespondentListClean"
`??bdb_zclRespondentListClean::?relay` SYMBOL "?relay", bdb_zclRespondentListClean
nwkNeighborAdd      SYMBOL "nwkNeighborAdd"
`??nwkNeighborAdd::?relay` SYMBOL "?relay", nwkNeighborAdd
nwkNeighborGetLinkInfo SYMBOL "nwkNeighborGetLinkInfo"
`??nwkNeighborGetLinkInfo::?relay` SYMBOL "?relay", nwkNeighborGetLinkInfo
nwk_ExtPANIDValid   SYMBOL "nwk_ExtPANIDValid"
`??nwk_ExtPANIDValid::?relay` SYMBOL "?relay", nwk_ExtPANIDValid
nwk_setStateIdle    SYMBOL "nwk_setStateIdle"
`??nwk_setStateIdle::?relay` SYMBOL "?relay", nwk_setStateIdle
osal_clear_event    SYMBOL "osal_clear_event"
`??osal_clear_event::?relay` SYMBOL "?relay", osal_clear_event
osal_get_timeoutEx  SYMBOL "osal_get_timeoutEx"
`??osal_get_timeoutEx::?relay` SYMBOL "?relay", osal_get_timeoutEx
osal_mem_alloc      SYMBOL "osal_mem_alloc"
`??osal_mem_alloc::?relay` SYMBOL "?relay", osal_mem_alloc
osal_mem_free       SYMBOL "osal_mem_free"
`??osal_mem_free::?relay` SYMBOL "?relay", osal_mem_free
osal_memcmp         SYMBOL "osal_memcmp"
`??osal_memcmp::?relay` SYMBOL "?relay", osal_memcmp
osal_memcpy         SYMBOL "osal_memcpy"
`??osal_memcpy::?relay` SYMBOL "?relay", osal_memcpy
osal_memset         SYMBOL "osal_memset"
`??osal_memset::?relay` SYMBOL "?relay", osal_memset
osal_msg_deallocate SYMBOL "osal_msg_deallocate"
`??osal_msg_deallocate::?relay` SYMBOL "?relay", osal_msg_deallocate
osal_msg_receive    SYMBOL "osal_msg_receive"
`??osal_msg_receive::?relay` SYMBOL "?relay", osal_msg_receive
osal_msg_send       SYMBOL "osal_msg_send"
`??osal_msg_send::?relay` SYMBOL "?relay", osal_msg_send
osal_nv_write       SYMBOL "osal_nv_write"
`??osal_nv_write::?relay` SYMBOL "?relay", osal_nv_write
osal_rand           SYMBOL "osal_rand"
`??osal_rand::?relay` SYMBOL "?relay", osal_rand
osal_set_event      SYMBOL "osal_set_event"
`??osal_set_event::?relay` SYMBOL "?relay", osal_set_event
osal_start_timerEx  SYMBOL "osal_start_timerEx"
`??osal_start_timerEx::?relay` SYMBOL "?relay", osal_start_timerEx
osal_stop_timerEx   SYMBOL "osal_stop_timerEx"
`??osal_stop_timerEx::?relay` SYMBOL "?relay", osal_stop_timerEx
sAddrExtCmp         SYMBOL "sAddrExtCmp"
`??sAddrExtCmp::?relay` SYMBOL "?relay", sAddrExtCmp
sAddrExtCpy         SYMBOL "sAddrExtCpy"
`??sAddrExtCpy::?relay` SYMBOL "?relay", sAddrExtCpy
touchLinkStartRtr   SYMBOL "touchLinkStartRtr"
`??touchLinkStartRtr::?relay` SYMBOL "?relay", touchLinkStartRtr
touchLink_DecryptNwkKey SYMBOL "touchLink_DecryptNwkKey"
`??touchLink_DecryptNwkKey::?relay` SYMBOL "?relay", touchLink_DecryptNwkKey
touchLink_DevRejoin SYMBOL "touchLink_DevRejoin"
`??touchLink_DevRejoin::?relay` SYMBOL "?relay", touchLink_DevRejoin
touchLink_DeviceIsInitiator SYMBOL "touchLink_DeviceIsInitiator"
`??touchLink_DeviceIsInitiator::?relay` SYMBOL "?relay", touchLink_DeviceIsInitiator
touchLink_EncryptNwkKey SYMBOL "touchLink_EncryptNwkKey"
`??touchLink_EncryptNwkKey::?relay` SYMBOL "?relay", touchLink_EncryptNwkKey
touchLink_FreeNwkParamList SYMBOL "touchLink_FreeNwkParamList"
`??touchLink_FreeNwkParamList::?relay` SYMBOL "?relay", touchLink_FreeNwkParamList
touchLink_GenerateRandNum SYMBOL "touchLink_GenerateRandNum"
`??touchLink_GenerateRandNum::?relay` SYMBOL "?relay", touchLink_GenerateRandNum
touchLink_GerFreeRanges SYMBOL "touchLink_GerFreeRanges"
`??touchLink_GerFreeRanges::?relay` SYMBOL "?relay", touchLink_GerFreeRanges
touchLink_GetMsgRssi SYMBOL "touchLink_GetMsgRssi"
`??touchLink_GetMsgRssi::?relay` SYMBOL "?relay", touchLink_GetMsgRssi
touchLink_GetNumGrpIDs SYMBOL "touchLink_GetNumGrpIDs"
`??touchLink_GetNumGrpIDs::?relay` SYMBOL "?relay", touchLink_GetNumGrpIDs
touchLink_GetNumSubDevices SYMBOL "touchLink_GetNumSubDevices"
`??touchLink_GetNumSubDevices::?relay` SYMBOL "?relay", touchLink_GetNumSubDevices
touchLink_GetNwkKeyBitmask SYMBOL "touchLink_GetNwkKeyBitmask"
`??touchLink_GetNwkKeyBitmask::?relay` SYMBOL "?relay", touchLink_GetNwkKeyBitmask
touchLink_GetRandPrimaryChannel SYMBOL "touchLink_GetRandPrimaryChannel"
`??touchLink_GetRandPrimaryChannel::?relay` SYMBOL "?relay", touchLink_GetRandPrimaryChannel
touchLink_GetSubDeviceInfo SYMBOL "touchLink_GetSubDeviceInfo"
`??touchLink_GetSubDeviceInfo::?relay` SYMBOL "?relay", touchLink_GetSubDeviceInfo
touchLink_InitVariables SYMBOL "touchLink_InitVariables"
`??touchLink_InitVariables::?relay` SYMBOL "?relay", touchLink_InitVariables
touchLink_IsValidSplitFreeRanges SYMBOL "touchLink_IsValidSplitFreeRanges"
`??touchLink_IsValidSplitFreeRanges::?relay` SYMBOL "?relay", touchLink_IsValidSplitFreeRanges
touchLink_IsValidTransID SYMBOL "touchLink_IsValidTransID"
`??touchLink_IsValidTransID::?relay` SYMBOL "?relay", touchLink_IsValidTransID
touchLink_NewNwkUpdateId SYMBOL "touchLink_NewNwkUpdateId"
`??touchLink_NewNwkUpdateId::?relay` SYMBOL "?relay", touchLink_NewNwkUpdateId
touchLink_PerformNetworkDisc SYMBOL "touchLink_PerformNetworkDisc"
`??touchLink_PerformNetworkDisc::?relay` SYMBOL "?relay", touchLink_PerformNetworkDisc
touchLink_PermitJoin SYMBOL "touchLink_PermitJoin"
`??touchLink_PermitJoin::?relay` SYMBOL "?relay", touchLink_PermitJoin
touchLink_PopGrpIDRange SYMBOL "touchLink_PopGrpIDRange"
`??touchLink_PopGrpIDRange::?relay` SYMBOL "?relay", touchLink_PopGrpIDRange
touchLink_PopNwkAddress SYMBOL "touchLink_PopNwkAddress"
`??touchLink_PopNwkAddress::?relay` SYMBOL "?relay", touchLink_PopNwkAddress
touchLink_ProcessNwkUpdate SYMBOL "touchLink_ProcessNwkUpdate"
`??touchLink_ProcessNwkUpdate::?relay` SYMBOL "?relay", touchLink_ProcessNwkUpdate
touchLink_RouterProcessZDOMsg SYMBOL "touchLink_RouterProcessZDOMsg"
`??touchLink_RouterProcessZDOMsg::?relay` SYMBOL "?relay", touchLink_RouterProcessZDOMsg
touchLink_SendDeviceInfoRsp SYMBOL "touchLink_SendDeviceInfoRsp"
`??touchLink_SendDeviceInfoRsp::?relay` SYMBOL "?relay", touchLink_SendDeviceInfoRsp
touchLink_SendLeaveReq SYMBOL "touchLink_SendLeaveReq"
`??touchLink_SendLeaveReq::?relay` SYMBOL "?relay", touchLink_SendLeaveReq
touchLink_SetChannel SYMBOL "touchLink_SetChannel"
`??touchLink_SetChannel::?relay` SYMBOL "?relay", touchLink_SetChannel
touchLink_SetMacNwkParams SYMBOL "touchLink_SetMacNwkParams"
`??touchLink_SetMacNwkParams::?relay` SYMBOL "?relay", touchLink_SetMacNwkParams
touchLink_SetNIB    SYMBOL "touchLink_SetNIB"
`??touchLink_SetNIB::?relay` SYMBOL "?relay", touchLink_SetNIB
touchLink_SetTouchLinkTaskId SYMBOL "touchLink_SetTouchLinkTaskId"
`??touchLink_SetTouchLinkTaskId::?relay` SYMBOL "?relay", touchLink_SetTouchLinkTaskId
touchLink_SplitFreeRanges SYMBOL "touchLink_SplitFreeRanges"
`??touchLink_SplitFreeRanges::?relay` SYMBOL "?relay", touchLink_SplitFreeRanges
touchLink_UpdateNV  SYMBOL "touchLink_UpdateNV"
`??touchLink_UpdateNV::?relay` SYMBOL "?relay", touchLink_UpdateNV
zcl_registerForMsg  SYMBOL "zcl_registerForMsg"
`??zcl_registerForMsg::?relay` SYMBOL "?relay", zcl_registerForMsg
bdb_Initiator_SendNwkJoinReq SYMBOL "bdb_Initiator_SendNwkJoinReq"
`??bdb_Initiator_SendNwkJoinReq::?relay` SYMBOL "?relay", bdb_Initiator_SendNwkJoinReq
initiatorSelectNwkParams SYMBOL "initiatorSelectNwkParams"
`??initiatorSelectNwkParams::?relay` SYMBOL "?relay", initiatorSelectNwkParams
touchLinkInitiator_AbortTL SYMBOL "touchLinkInitiator_AbortTL"
`??touchLinkInitiator_AbortTL::?relay` SYMBOL "?relay", touchLinkInitiator_AbortTL
touchLinkInitiator_ChannelChange SYMBOL "touchLinkInitiator_ChannelChange"
`??touchLinkInitiator_ChannelChange::?relay` SYMBOL "?relay", touchLinkInitiator_ChannelChange
touchLinkInitiator_Init SYMBOL "touchLinkInitiator_Init"
`??touchLinkInitiator_Init::?relay` SYMBOL "?relay", touchLinkInitiator_Init
touchLinkInitiator_InitDevice SYMBOL "touchLinkInitiator_InitDevice"
`??touchLinkInitiator_InitDevice::?relay` SYMBOL "?relay", touchLinkInitiator_InitDevice
touchLinkInitiator_PermitJoin SYMBOL "touchLinkInitiator_PermitJoin"
`??touchLinkInitiator_PermitJoin::?relay` SYMBOL "?relay", touchLinkInitiator_PermitJoin
touchLinkInitiator_RegisterForMsg SYMBOL "touchLinkInitiator_RegisterForMsg"
`??touchLinkInitiator_RegisterForMsg::?relay` SYMBOL "?relay", touchLinkInitiator_RegisterForMsg
touchLinkInitiator_RegisterNotifyTLCB SYMBOL "touchLinkInitiator_RegisterNotifyTLCB"
`??touchLinkInitiator_RegisterNotifyTLCB::?relay` SYMBOL "?relay", touchLinkInitiator_RegisterNotifyTLCB
touchLinkInitiator_RegisterSelectDiscDevCB SYMBOL "touchLinkInitiator_RegisterSelectDiscDevCB"
`??touchLinkInitiator_RegisterSelectDiscDevCB::?` SYMBOL "?relay", touchLinkInitiator_RegisterSelectDiscDevCB
touchLinkInitiator_ResetToFNProcedure SYMBOL "touchLinkInitiator_ResetToFNProcedure"
`??touchLinkInitiator_ResetToFNProcedure::?relay` SYMBOL "?relay", touchLinkInitiator_ResetToFNProcedure
touchLinkInitiator_ResetToFNSelectedTarget SYMBOL "touchLinkInitiator_ResetToFNSelectedTarget"
`??touchLinkInitiator_ResetToFNSelectedTarget::?` SYMBOL "?relay", touchLinkInitiator_ResetToFNSelectedTarget
touchLinkInitiator_SendEPInfo SYMBOL "touchLinkInitiator_SendEPInfo"
`??touchLinkInitiator_SendEPInfo::?relay` SYMBOL "?relay", touchLinkInitiator_SendEPInfo
touchLinkInitiator_StartDevDisc SYMBOL "touchLinkInitiator_StartDevDisc"
`??touchLinkInitiator_StartDevDisc::?relay` SYMBOL "?relay", touchLinkInitiator_StartDevDisc
touchLinkInitiator_event_loop SYMBOL "touchLinkInitiator_event_loop"
`??touchLinkInitiator_event_loop::?relay` SYMBOL "?relay", touchLinkInitiator_event_loop

        EXTERN `??APSME_GetRequest::?relay`
        FUNCTION `??APSME_GetRequest::?relay`,00H
        EXTERN `??AddrMgrEntryUpdate::?relay`
        FUNCTION `??AddrMgrEntryUpdate::?relay`,00H
        EXTERN `??NLME_GetExtAddr::?relay`
        FUNCTION `??NLME_GetExtAddr::?relay`,00H
        EXTERN `??NLME_GetShortAddr::?relay`
        FUNCTION `??NLME_GetShortAddr::?relay`,00H
        EXTERN `??NLME_InitNV::?relay`
        FUNCTION `??NLME_InitNV::?relay`,00H
        EXTERN `??NLME_SetPollRate::?relay`
        FUNCTION `??NLME_SetPollRate::?relay`,00H
        EXTERN `??NLME_SetQueuedPollRate::?relay`
        FUNCTION `??NLME_SetQueuedPollRate::?relay`,00H
        EXTERN `??NLME_SetResponseRate::?relay`
        FUNCTION `??NLME_SetResponseRate::?relay`,00H
        EXTERN `??NLME_SetUpdateID::?relay`
        FUNCTION `??NLME_SetUpdateID::?relay`,00H
        EXTERN `??ZDApp_LeaveCtrlReset::?relay`
        FUNCTION `??ZDApp_LeaveCtrlReset::?relay`,00H
        EXTERN `??ZDApp_StopJoiningCycle::?relay`
        FUNCTION `??ZDApp_StopJoiningCycle::?relay`,00H
        EXTERN `??ZDOInitDeviceEx::?relay`
        FUNCTION `??ZDOInitDeviceEx::?relay`,00H
        EXTERN `??ZDO_RegisterForZDOMsg::?relay`
        FUNCTION `??ZDO_RegisterForZDOMsg::?relay`,00H
        EXTERN `??ZDO_RegisterForZdoCB::?relay`
        FUNCTION `??ZDO_RegisterForZdoCB::?relay`,00H
        EXTERN `??ZDP_DeviceAnnce::?relay`
        FUNCTION `??ZDP_DeviceAnnce::?relay`,00H
        EXTERN `??ZDP_MgmtNwkUpdateReq::?relay`
        FUNCTION `??ZDP_MgmtNwkUpdateReq::?relay`,00H
        EXTERN `??ZDSecMgrUpdateTCAddress::?relay`
        FUNCTION `??ZDSecMgrUpdateTCAddress::?relay`,00H
        EXTERN `??ZMacGetReq::?relay`
        FUNCTION `??ZMacGetReq::?relay`,00H
        EXTERN `??ZMacSetReq::?relay`
        FUNCTION `??ZMacSetReq::?relay`,00H
        EXTERN `??bdbTL_RegisterInterPANCmdCallbacks::?relay`
        FUNCTION `??bdbTL_RegisterInterPANCmdCallbacks::?relay`,00H
        EXTERN `??bdbTL_Send_DeviceInfoReq::?relay`
        FUNCTION `??bdbTL_Send_DeviceInfoReq::?relay`,00H
        EXTERN `??bdbTL_Send_EndpointInfo::?relay`
        FUNCTION `??bdbTL_Send_EndpointInfo::?relay`,00H
        EXTERN `??bdbTL_Send_IndentifyReq::?relay`
        FUNCTION `??bdbTL_Send_IndentifyReq::?relay`,00H
        EXTERN `??bdbTL_Send_NwkJoinReq::?relay`
        FUNCTION `??bdbTL_Send_NwkJoinReq::?relay`,00H
        EXTERN `??bdbTL_Send_NwkJoinRsp::?relay`
        FUNCTION `??bdbTL_Send_NwkJoinRsp::?relay`,00H
        EXTERN `??bdbTL_Send_NwkUpdateReq::?relay`
        FUNCTION `??bdbTL_Send_NwkUpdateReq::?relay`,00H
        EXTERN `??bdbTL_Send_ResetToFNReq::?relay`
        FUNCTION `??bdbTL_Send_ResetToFNReq::?relay`,00H
        EXTERN `??bdbTL_Send_ScanReq::?relay`
        FUNCTION `??bdbTL_Send_ScanReq::?relay`,00H
        EXTERN `??bdbTL_Send_ScanRsp::?relay`
        FUNCTION `??bdbTL_Send_ScanRsp::?relay`,00H
        EXTERN `??bdb_AddRespondentNode::?relay`
        FUNCTION `??bdb_AddRespondentNode::?relay`,00H
        EXTERN `??bdb_ZclIdentifyCmdInd::?relay`
        FUNCTION `??bdb_ZclIdentifyCmdInd::?relay`,00H
        EXTERN `??bdb_reportCommissioningState::?relay`
        FUNCTION `??bdb_reportCommissioningState::?relay`,00H
        EXTERN `??bdb_setEpDescListToActiveEndpoint::?relay`
        FUNCTION `??bdb_setEpDescListToActiveEndpoint::?relay`,00H
        EXTERN `??bdb_setNodeIsOnANetwork::?relay`
        FUNCTION `??bdb_setNodeIsOnANetwork::?relay`,00H
        EXTERN `??bdb_zclRespondentListClean::?relay`
        FUNCTION `??bdb_zclRespondentListClean::?relay`,00H
        EXTERN `??nwkNeighborAdd::?relay`
        FUNCTION `??nwkNeighborAdd::?relay`,00H
        EXTERN `??nwkNeighborGetLinkInfo::?relay`
        FUNCTION `??nwkNeighborGetLinkInfo::?relay`,00H
        EXTERN `??nwk_ExtPANIDValid::?relay`
        FUNCTION `??nwk_ExtPANIDValid::?relay`,00H
        EXTERN `??nwk_setStateIdle::?relay`
        FUNCTION `??nwk_setStateIdle::?relay`,00H
        EXTERN `??osal_clear_event::?relay`
        FUNCTION `??osal_clear_event::?relay`,00H
        EXTERN `??osal_get_timeoutEx::?relay`
        FUNCTION `??osal_get_timeoutEx::?relay`,00H
        EXTERN `??osal_mem_alloc::?relay`
        FUNCTION `??osal_mem_alloc::?relay`,00H
        EXTERN `??osal_mem_free::?relay`
        FUNCTION `??osal_mem_free::?relay`,00H
        EXTERN `??osal_memcmp::?relay`
        FUNCTION `??osal_memcmp::?relay`,00H
        EXTERN `??osal_memcpy::?relay`
        FUNCTION `??osal_memcpy::?relay`,00H
        EXTERN `??osal_memset::?relay`
        FUNCTION `??osal_memset::?relay`,00H
        EXTERN `??osal_msg_deallocate::?relay`
        FUNCTION `??osal_msg_deallocate::?relay`,00H
        EXTERN `??osal_msg_receive::?relay`
        FUNCTION `??osal_msg_receive::?relay`,00H
        EXTERN `??osal_msg_send::?relay`
        FUNCTION `??osal_msg_send::?relay`,00H
        EXTERN `??osal_nv_write::?relay`
        FUNCTION `??osal_nv_write::?relay`,00H
        EXTERN `??osal_rand::?relay`
        FUNCTION `??osal_rand::?relay`,00H
        EXTERN `??osal_set_event::?relay`
        FUNCTION `??osal_set_event::?relay`,00H
        EXTERN `??osal_start_timerEx::?relay`
        FUNCTION `??osal_start_timerEx::?relay`,00H
        EXTERN `??osal_stop_timerEx::?relay`
        FUNCTION `??osal_stop_timerEx::?relay`,00H
        EXTERN `??sAddrExtCmp::?relay`
        FUNCTION `??sAddrExtCmp::?relay`,00H
        EXTERN `??sAddrExtCpy::?relay`
        FUNCTION `??sAddrExtCpy::?relay`,00H
        EXTERN `??touchLinkStartRtr::?relay`
        FUNCTION `??touchLinkStartRtr::?relay`,00H
        EXTERN `??touchLink_DecryptNwkKey::?relay`
        FUNCTION `??touchLink_DecryptNwkKey::?relay`,00H
        EXTERN `??touchLink_DevRejoin::?relay`
        FUNCTION `??touchLink_DevRejoin::?relay`,00H
        EXTERN `??touchLink_DeviceIsInitiator::?relay`
        FUNCTION `??touchLink_DeviceIsInitiator::?relay`,00H
        EXTERN `??touchLink_EncryptNwkKey::?relay`
        FUNCTION `??touchLink_EncryptNwkKey::?relay`,00H
        EXTERN `??touchLink_FreeNwkParamList::?relay`
        FUNCTION `??touchLink_FreeNwkParamList::?relay`,00H
        EXTERN `??touchLink_GenerateRandNum::?relay`
        FUNCTION `??touchLink_GenerateRandNum::?relay`,00H
        EXTERN `??touchLink_GerFreeRanges::?relay`
        FUNCTION `??touchLink_GerFreeRanges::?relay`,00H
        EXTERN `??touchLink_GetMsgRssi::?relay`
        FUNCTION `??touchLink_GetMsgRssi::?relay`,00H
        EXTERN `??touchLink_GetNumGrpIDs::?relay`
        FUNCTION `??touchLink_GetNumGrpIDs::?relay`,00H
        EXTERN `??touchLink_GetNumSubDevices::?relay`
        FUNCTION `??touchLink_GetNumSubDevices::?relay`,00H
        EXTERN `??touchLink_GetNwkKeyBitmask::?relay`
        FUNCTION `??touchLink_GetNwkKeyBitmask::?relay`,00H
        EXTERN `??touchLink_GetRandPrimaryChannel::?relay`
        FUNCTION `??touchLink_GetRandPrimaryChannel::?relay`,00H
        EXTERN `??touchLink_GetSubDeviceInfo::?relay`
        FUNCTION `??touchLink_GetSubDeviceInfo::?relay`,00H
        EXTERN `??touchLink_InitVariables::?relay`
        FUNCTION `??touchLink_InitVariables::?relay`,00H
        EXTERN `??touchLink_IsValidSplitFreeRanges::?relay`
        FUNCTION `??touchLink_IsValidSplitFreeRanges::?relay`,00H
        EXTERN `??touchLink_IsValidTransID::?relay`
        FUNCTION `??touchLink_IsValidTransID::?relay`,00H
        EXTERN `??touchLink_NewNwkUpdateId::?relay`
        FUNCTION `??touchLink_NewNwkUpdateId::?relay`,00H
        EXTERN `??touchLink_PerformNetworkDisc::?relay`
        FUNCTION `??touchLink_PerformNetworkDisc::?relay`,00H
        EXTERN `??touchLink_PermitJoin::?relay`
        FUNCTION `??touchLink_PermitJoin::?relay`,00H
        EXTERN `??touchLink_PopGrpIDRange::?relay`
        FUNCTION `??touchLink_PopGrpIDRange::?relay`,00H
        EXTERN `??touchLink_PopNwkAddress::?relay`
        FUNCTION `??touchLink_PopNwkAddress::?relay`,00H
        EXTERN `??touchLink_ProcessNwkUpdate::?relay`
        FUNCTION `??touchLink_ProcessNwkUpdate::?relay`,00H
        EXTERN `??touchLink_RouterProcessZDOMsg::?relay`
        FUNCTION `??touchLink_RouterProcessZDOMsg::?relay`,00H
        EXTERN `??touchLink_SendDeviceInfoRsp::?relay`
        FUNCTION `??touchLink_SendDeviceInfoRsp::?relay`,00H
        EXTERN `??touchLink_SendLeaveReq::?relay`
        FUNCTION `??touchLink_SendLeaveReq::?relay`,00H
        EXTERN `??touchLink_SetChannel::?relay`
        FUNCTION `??touchLink_SetChannel::?relay`,00H
        EXTERN `??touchLink_SetMacNwkParams::?relay`
        FUNCTION `??touchLink_SetMacNwkParams::?relay`,00H
        EXTERN `??touchLink_SetNIB::?relay`
        FUNCTION `??touchLink_SetNIB::?relay`,00H
        EXTERN `??touchLink_SetTouchLinkTaskId::?relay`
        FUNCTION `??touchLink_SetTouchLinkTaskId::?relay`,00H
        EXTERN `??touchLink_SplitFreeRanges::?relay`
        FUNCTION `??touchLink_SplitFreeRanges::?relay`,00H
        EXTERN `??touchLink_UpdateNV::?relay`
        FUNCTION `??touchLink_UpdateNV::?relay`,00H
        EXTERN `??zcl_registerForMsg::?relay`
        FUNCTION `??zcl_registerForMsg::?relay`,00H
        EXTERN APSME_GetRequest
        FUNCTION APSME_GetRequest,0202H
        ARGFRAME ISTACK, 0, STACK
        ARGFRAME PSTACK, 0, STACK
        ARGFRAME XSTACK, 75, STACK
        ARGFRAME IOVERLAY, 0, STATIC
        ARGFRAME DOVERLAY, 0, STATIC
        EXTERN AddrMgrEntryUpdate
        FUNCTION AddrMgrEntryUpdate,0202H
        ARGFRAME ISTACK, 0, STACK
        ARGFRAME PSTACK, 0, STACK
        ARGFRAME XSTACK, 75, STACK
        ARGFRAME IOVERLAY, 0, STATIC
        ARGFRAME DOVERLAY, 0, STATIC
        EXTERN NLME_GetExtAddr
        FUNCTION NLME_GetExtAddr,0202H
        ARGFRAME ISTACK, 0, STACK
        ARGFRAME PSTACK, 0, STACK
        ARGFRAME XSTACK, 75, STACK
        ARGFRAME IOVERLAY, 0, STATIC
        ARGFRAME DOVERLAY, 0, STATIC
        EXTERN NLME_GetShortAddr
        FUNCTION NLME_GetShortAddr,0202H
        ARGFRAME ISTACK, 0, STACK
        ARGFRAME PSTACK, 0, STACK
        ARGFRAME XSTACK, 75, STACK
        ARGFRAME IOVERLAY, 0, STATIC
        ARGFRAME DOVERLAY, 0, STATIC
        EXTERN NLME_InitNV
        FUNCTION NLME_InitNV,0202H
        ARGFRAME ISTACK, 0, STACK
        ARGFRAME PSTACK, 0, STACK
        ARGFRAME XSTACK, 33, STACK
        ARGFRAME IOVERLAY, 0, STATIC
        ARGFRAME DOVERLAY, 0, STATIC
        EXTERN NLME_SetPollRate
        FUNCTION NLME_SetPollRate,0202H
        ARGFRAME ISTACK, 0, STACK
        ARGFRAME PSTACK, 0, STACK
        ARGFRAME XSTACK, 17, STACK
        ARGFRAME IOVERLAY, 0, STATIC
        ARGFRAME DOVERLAY, 0, STATIC
        EXTERN NLME_SetQueuedPollRate
        FUNCTION NLME_SetQueuedPollRate,0202H
        ARGFRAME ISTACK, 0, STACK
        ARGFRAME PSTACK, 0, STACK
        ARGFRAME XSTACK, 17, STACK
        ARGFRAME IOVERLAY, 0, STATIC
        ARGFRAME DOVERLAY, 0, STATIC
        EXTERN NLME_SetResponseRate
        FUNCTION NLME_SetResponseRate,0202H
        ARGFRAME ISTACK, 0, STACK
        ARGFRAME PSTACK, 0, STACK
        ARGFRAME XSTACK, 17, STACK
        ARGFRAME IOVERLAY, 0, STATIC
        ARGFRAME DOVERLAY, 0, STATIC
        EXTERN NLME_SetUpdateID
        FUNCTION NLME_SetUpdateID,0202H
        ARGFRAME ISTACK, 0, STACK
        ARGFRAME PSTACK, 0, STACK
        ARGFRAME XSTACK, 75, STACK
        ARGFRAME IOVERLAY, 0, STATIC
        ARGFRAME DOVERLAY, 0, STATIC
        EXTERN ZDAppTaskID
        EXTERN ZDApp_LeaveCtrlReset
        FUNCTION ZDApp_LeaveCtrlReset,0202H
        ARGFRAME ISTACK, 0, STACK
        ARGFRAME PSTACK, 0, STACK
        ARGFRAME XSTACK, 75, STACK
        ARGFRAME IOVERLAY, 0, STATIC
        ARGFRAME DOVERLAY, 0, STATIC
        EXTERN ZDApp_StopJoiningCycle
        FUNCTION ZDApp_StopJoiningCycle,0202H
        ARGFRAME ISTACK, 0, STACK
        ARGFRAME PSTACK, 0, STACK
        ARGFRAME XSTACK, 75, STACK
        ARGFRAME IOVERLAY, 0, STATIC
        ARGFRAME DOVERLAY, 0, STATIC
        EXTERN ZDOInitDeviceEx
        FUNCTION ZDOInitDeviceEx,0202H
        ARGFRAME ISTACK, 0, STACK
        ARGFRAME PSTACK, 0, STACK
        ARGFRAME XSTACK, 75, STACK
        ARGFRAME IOVERLAY, 0, STATIC
        ARGFRAME DOVERLAY, 0, STATIC
        EXTERN ZDO_Config_Node_Descriptor
        EXTERN ZDO_RegisterForZDOMsg
        FUNCTION ZDO_RegisterForZDOMsg,0202H
        ARGFRAME ISTACK, 0, STACK
        ARGFRAME PSTACK, 0, STACK
        ARGFRAME XSTACK, 9, STACK
        ARGFRAME IOVERLAY, 0, STATIC
        ARGFRAME DOVERLAY, 0, STATIC
        EXTERN ZDO_RegisterForZdoCB
        FUNCTION ZDO_RegisterForZdoCB,0202H
        ARGFRAME ISTACK, 0, STACK
        ARGFRAME PSTACK, 0, STACK
        ARGFRAME XSTACK, 9, STACK
        ARGFRAME IOVERLAY, 0, STATIC
        ARGFRAME DOVERLAY, 0, STATIC
        EXTERN ZDO_UseExtendedPANID
        EXTERN ZDP_DeviceAnnce
        FUNCTION ZDP_DeviceAnnce,0202H
        ARGFRAME ISTACK, 0, STACK
        ARGFRAME PSTACK, 0, STACK
        ARGFRAME XSTACK, 76, STACK
        ARGFRAME IOVERLAY, 0, STATIC
        ARGFRAME DOVERLAY, 0, STATIC
        EXTERN ZDP_MgmtNwkUpdateReq
        FUNCTION ZDP_MgmtNwkUpdateReq,0202H
        ARGFRAME ISTACK, 0, STACK
        ARGFRAME PSTACK, 0, STACK
        ARGFRAME XSTACK, 27, STACK
        ARGFRAME IOVERLAY, 0, STATIC
        ARGFRAME DOVERLAY, 0, STATIC
        EXTERN ZDSecMgrUpdateTCAddress
        FUNCTION ZDSecMgrUpdateTCAddress,0202H
        ARGFRAME ISTACK, 0, STACK
        ARGFRAME PSTACK, 0, STACK
        ARGFRAME XSTACK, 75, STACK
        ARGFRAME IOVERLAY, 0, STATIC
        ARGFRAME DOVERLAY, 0, STATIC
        EXTERN ZMacGetReq
        FUNCTION ZMacGetReq,0202H
        ARGFRAME ISTACK, 0, STACK
        ARGFRAME PSTACK, 0, STACK
        ARGFRAME XSTACK, 17, STACK
        ARGFRAME IOVERLAY, 0, STATIC
        ARGFRAME DOVERLAY, 0, STATIC
        EXTERN ZMacSetReq
        FUNCTION ZMacSetReq,0202H
        ARGFRAME ISTACK, 2, STACK
        ARGFRAME PSTACK, 0, STACK
        ARGFRAME XSTACK, 17, STACK
        ARGFRAME IOVERLAY, 0, STATIC
        ARGFRAME DOVERLAY, 0, STATIC
        EXTERN _NIB
        EXTERN _tmpRejoinState
        EXTERN bdbAttributes
        EXTERN bdbCommissioningProcedureState
        EXTERN bdbTL_RegisterInterPANCmdCallbacks
        FUNCTION bdbTL_RegisterInterPANCmdCallbacks,0202H
        ARGFRAME ISTACK, 0, STACK
        ARGFRAME PSTACK, 0, STACK
        ARGFRAME XSTACK, 9, STACK
        ARGFRAME IOVERLAY, 0, STATIC
        ARGFRAME DOVERLAY, 0, STATIC
        EXTERN bdbTL_Send_DeviceInfoReq
        FUNCTION bdbTL_Send_DeviceInfoReq,0202H
        ARGFRAME ISTACK, 0, STACK
        ARGFRAME PSTACK, 0, STACK
        ARGFRAME XSTACK, 18, STACK
        ARGFRAME IOVERLAY, 0, STATIC
        ARGFRAME DOVERLAY, 0, STATIC
        EXTERN bdbTL_Send_EndpointInfo
        FUNCTION bdbTL_Send_EndpointInfo,0202H
        ARGFRAME ISTACK, 0, STACK
        ARGFRAME PSTACK, 0, STACK
        ARGFRAME XSTACK, 37, STACK
        ARGFRAME IOVERLAY, 0, STATIC
        ARGFRAME DOVERLAY, 0, STATIC
        EXTERN bdbTL_Send_IndentifyReq
        FUNCTION bdbTL_Send_IndentifyReq,0202H
        ARGFRAME ISTACK, 0, STACK
        ARGFRAME PSTACK, 0, STACK
        ARGFRAME XSTACK, 76, STACK
        ARGFRAME IOVERLAY, 0, STATIC
        ARGFRAME DOVERLAY, 0, STATIC
        EXTERN bdbTL_Send_NwkJoinReq
        FUNCTION bdbTL_Send_NwkJoinReq,0202H
        ARGFRAME ISTACK, 0, STACK
        ARGFRAME PSTACK, 0, STACK
        ARGFRAME XSTACK, 18, STACK
        ARGFRAME IOVERLAY, 0, STATIC
        ARGFRAME DOVERLAY, 0, STATIC
        EXTERN bdbTL_Send_NwkJoinRsp
        FUNCTION bdbTL_Send_NwkJoinRsp,0202H
        ARGFRAME ISTACK, 0, STACK
        ARGFRAME PSTACK, 0, STACK
        ARGFRAME XSTACK, 35, STACK
        ARGFRAME IOVERLAY, 0, STATIC
        ARGFRAME DOVERLAY, 0, STATIC
        EXTERN bdbTL_Send_NwkUpdateReq
        FUNCTION bdbTL_Send_NwkUpdateReq,0202H
        ARGFRAME ISTACK, 0, STACK
        ARGFRAME PSTACK, 0, STACK
        ARGFRAME XSTACK, 76, STACK
        ARGFRAME IOVERLAY, 0, STATIC
        ARGFRAME DOVERLAY, 0, STATIC
        EXTERN bdbTL_Send_ResetToFNReq
        FUNCTION bdbTL_Send_ResetToFNReq,0202H
        ARGFRAME ISTACK, 0, STACK
        ARGFRAME PSTACK, 0, STACK
        ARGFRAME XSTACK, 14, STACK
        ARGFRAME IOVERLAY, 0, STATIC
        ARGFRAME DOVERLAY, 0, STATIC
        EXTERN bdbTL_Send_ScanReq
        FUNCTION bdbTL_Send_ScanReq,0202H
        ARGFRAME ISTACK, 0, STACK
        ARGFRAME PSTACK, 0, STACK
        ARGFRAME XSTACK, 30, STACK
        ARGFRAME IOVERLAY, 0, STATIC
        ARGFRAME DOVERLAY, 0, STATIC
        EXTERN bdbTL_Send_ScanRsp
        FUNCTION bdbTL_Send_ScanRsp,0202H
        ARGFRAME ISTACK, 0, STACK
        ARGFRAME PSTACK, 0, STACK
        ARGFRAME XSTACK, 23, STACK
        ARGFRAME IOVERLAY, 0, STATIC
        ARGFRAME DOVERLAY, 0, STATIC
        EXTERN bdb_AddRespondentNode
        FUNCTION bdb_AddRespondentNode,0202H
        ARGFRAME ISTACK, 0, STACK
        ARGFRAME PSTACK, 0, STACK
        ARGFRAME XSTACK, 58, STACK
        ARGFRAME IOVERLAY, 0, STATIC
        ARGFRAME DOVERLAY, 0, STATIC
        EXTERN bdb_TaskID
        EXTERN bdb_ZclIdentifyCmdInd
        FUNCTION bdb_ZclIdentifyCmdInd,0202H
        ARGFRAME ISTACK, 0, STACK
        ARGFRAME PSTACK, 0, STACK
        ARGFRAME XSTACK, 10, STACK
        ARGFRAME IOVERLAY, 0, STATIC
        ARGFRAME DOVERLAY, 0, STATIC
        EXTERN bdb_reportCommissioningState
        FUNCTION bdb_reportCommissioningState,0202H
        ARGFRAME ISTACK, 0, STACK
        ARGFRAME PSTACK, 0, STACK
        ARGFRAME XSTACK, 75, STACK
        ARGFRAME IOVERLAY, 0, STATIC
        ARGFRAME DOVERLAY, 0, STATIC
        EXTERN bdb_setEpDescListToActiveEndpoint
        FUNCTION bdb_setEpDescListToActiveEndpoint,0202H
        ARGFRAME ISTACK, 0, STACK
        ARGFRAME PSTACK, 0, STACK
        ARGFRAME XSTACK, 10, STACK
        ARGFRAME IOVERLAY, 0, STATIC
        ARGFRAME DOVERLAY, 0, STATIC
        EXTERN bdb_setNodeIsOnANetwork
        FUNCTION bdb_setNodeIsOnANetwork,0202H
        ARGFRAME ISTACK, 0, STACK
        ARGFRAME PSTACK, 0, STACK
        ARGFRAME XSTACK, 33, STACK
        ARGFRAME IOVERLAY, 0, STATIC
        ARGFRAME DOVERLAY, 0, STATIC
        EXTERN bdb_zclRespondentListClean
        FUNCTION bdb_zclRespondentListClean,0202H
        ARGFRAME ISTACK, 0, STACK
        ARGFRAME PSTACK, 0, STACK
        ARGFRAME XSTACK, 58, STACK
        ARGFRAME IOVERLAY, 0, STATIC
        ARGFRAME DOVERLAY, 0, STATIC
        EXTERN devStartMode
        EXTERN devState
        EXTERN nwkNeighborAdd
        FUNCTION nwkNeighborAdd,0202H
        ARGFRAME ISTACK, 0, STACK
        ARGFRAME PSTACK, 0, STACK
        ARGFRAME XSTACK, 10, STACK
        ARGFRAME IOVERLAY, 0, STATIC
        ARGFRAME DOVERLAY, 0, STATIC
        EXTERN nwkNeighborGetLinkInfo
        FUNCTION nwkNeighborGetLinkInfo,0202H
        ARGFRAME ISTACK, 0, STACK
        ARGFRAME PSTACK, 0, STACK
        ARGFRAME XSTACK, 10, STACK
        ARGFRAME IOVERLAY, 0, STATIC
        ARGFRAME DOVERLAY, 0, STATIC
        EXTERN nwk_ExtPANIDValid
        FUNCTION nwk_ExtPANIDValid,0202H
        ARGFRAME ISTACK, 0, STACK
        ARGFRAME PSTACK, 0, STACK
        ARGFRAME XSTACK, 75, STACK
        ARGFRAME IOVERLAY, 0, STATIC
        ARGFRAME DOVERLAY, 0, STATIC
        EXTERN nwk_setStateIdle
        FUNCTION nwk_setStateIdle,0202H
        ARGFRAME ISTACK, 2, STACK
        ARGFRAME PSTACK, 0, STACK
        ARGFRAME XSTACK, 75, STACK
        ARGFRAME IOVERLAY, 0, STATIC
        ARGFRAME DOVERLAY, 0, STATIC
        EXTERN osal_clear_event
        FUNCTION osal_clear_event,0202H
        ARGFRAME ISTACK, 0, STACK
        ARGFRAME PSTACK, 0, STACK
        ARGFRAME XSTACK, 17, STACK
        ARGFRAME IOVERLAY, 0, STATIC
        ARGFRAME DOVERLAY, 0, STATIC
        EXTERN osal_get_timeoutEx
        FUNCTION osal_get_timeoutEx,0202H
        ARGFRAME ISTACK, 2, STACK
        ARGFRAME PSTACK, 0, STACK
        ARGFRAME XSTACK, 31, STACK
        ARGFRAME IOVERLAY, 0, STATIC
        ARGFRAME DOVERLAY, 0, STATIC
        EXTERN osal_mem_alloc
        FUNCTION osal_mem_alloc,0202H
        ARGFRAME ISTACK, 0, STACK
        ARGFRAME PSTACK, 0, STACK
        ARGFRAME XSTACK, 75, STACK
        ARGFRAME IOVERLAY, 0, STATIC
        ARGFRAME DOVERLAY, 0, STATIC
        EXTERN osal_mem_free
        FUNCTION osal_mem_free,0202H
        ARGFRAME ISTACK, 0, STACK
        ARGFRAME PSTACK, 0, STACK
        ARGFRAME XSTACK, 75, STACK
        ARGFRAME IOVERLAY, 0, STATIC
        ARGFRAME DOVERLAY, 0, STATIC
        EXTERN osal_memcmp
        FUNCTION osal_memcmp,0202H
        ARGFRAME ISTACK, 0, STACK
        ARGFRAME PSTACK, 0, STACK
        ARGFRAME XSTACK, 14, STACK
        ARGFRAME IOVERLAY, 0, STATIC
        ARGFRAME DOVERLAY, 0, STATIC
        EXTERN osal_memcpy
        FUNCTION osal_memcpy,0202H
        ARGFRAME ISTACK, 0, STACK
        ARGFRAME PSTACK, 0, STACK
        ARGFRAME XSTACK, 78, STACK
        ARGFRAME IOVERLAY, 0, STATIC
        ARGFRAME DOVERLAY, 0, STATIC
        EXTERN osal_memset
        FUNCTION osal_memset,0202H
        ARGFRAME ISTACK, 2, STACK
        ARGFRAME PSTACK, 0, STACK
        ARGFRAME XSTACK, 58, STACK
        ARGFRAME IOVERLAY, 0, STATIC
        ARGFRAME DOVERLAY, 0, STATIC
        EXTERN osal_msg_deallocate
        FUNCTION osal_msg_deallocate,0202H
        ARGFRAME ISTACK, 0, STACK
        ARGFRAME PSTACK, 0, STACK
        ARGFRAME XSTACK, 75, STACK
        ARGFRAME IOVERLAY, 0, STATIC
        ARGFRAME DOVERLAY, 0, STATIC
        EXTERN osal_msg_receive
        FUNCTION osal_msg_receive,0202H
        ARGFRAME ISTACK, 0, STACK
        ARGFRAME PSTACK, 0, STACK
        ARGFRAME XSTACK, 75, STACK
        ARGFRAME IOVERLAY, 0, STATIC
        ARGFRAME DOVERLAY, 0, STATIC
        EXTERN osal_msg_send
        FUNCTION osal_msg_send,0202H
        ARGFRAME ISTACK, 0, STACK
        ARGFRAME PSTACK, 0, STACK
        ARGFRAME XSTACK, 75, STACK
        ARGFRAME IOVERLAY, 0, STATIC
        ARGFRAME DOVERLAY, 0, STATIC
        EXTERN osal_nv_write
        FUNCTION osal_nv_write,0202H
        ARGFRAME ISTACK, 0, STACK
        ARGFRAME PSTACK, 0, STACK
        ARGFRAME XSTACK, 79, STACK
        ARGFRAME IOVERLAY, 0, STATIC
        ARGFRAME DOVERLAY, 0, STATIC
        EXTERN osal_rand
        FUNCTION osal_rand,0202H
        ARGFRAME ISTACK, 2, STACK
        ARGFRAME PSTACK, 0, STACK
        ARGFRAME XSTACK, 75, STACK
        ARGFRAME IOVERLAY, 0, STATIC
        ARGFRAME DOVERLAY, 0, STATIC
        EXTERN osal_set_event
        FUNCTION osal_set_event,0202H
        ARGFRAME ISTACK, 2, STACK
        ARGFRAME PSTACK, 0, STACK
        ARGFRAME XSTACK, 75, STACK
        ARGFRAME IOVERLAY, 0, STATIC
        ARGFRAME DOVERLAY, 0, STATIC
        EXTERN osal_start_timerEx
        FUNCTION osal_start_timerEx,0202H
        ARGFRAME ISTACK, 0, STACK
        ARGFRAME PSTACK, 0, STACK
        ARGFRAME XSTACK, 79, STACK
        ARGFRAME IOVERLAY, 0, STATIC
        ARGFRAME DOVERLAY, 0, STATIC
        EXTERN osal_stop_timerEx
        FUNCTION osal_stop_timerEx,0202H
        ARGFRAME ISTACK, 2, STACK
        ARGFRAME PSTACK, 0, STACK
        ARGFRAME XSTACK, 33, STACK
        ARGFRAME IOVERLAY, 0, STATIC
        ARGFRAME DOVERLAY, 0, STATIC
        EXTERN pRespondentHead
        EXTERN sAddrExtCmp
        FUNCTION sAddrExtCmp,0202H
        ARGFRAME ISTACK, 0, STACK
        ARGFRAME PSTACK, 0, STACK
        ARGFRAME XSTACK, 75, STACK
        ARGFRAME IOVERLAY, 0, STATIC
        ARGFRAME DOVERLAY, 0, STATIC
        EXTERN sAddrExtCpy
        FUNCTION sAddrExtCpy,0202H
        ARGFRAME ISTACK, 0, STACK
        ARGFRAME PSTACK, 0, STACK
        ARGFRAME XSTACK, 75, STACK
        ARGFRAME IOVERLAY, 0, STATIC
        ARGFRAME DOVERLAY, 0, STATIC
        EXTERN touchLinkGrpIDsBegin
        EXTERN touchLinkGrpIDsEnd
        EXTERN touchLinkLastAcceptedTransID
        EXTERN touchLinkLeaveInitiated
        EXTERN touchLinkResponseID
        EXTERN touchLinkStartRtr
        FUNCTION touchLinkStartRtr,0202H
        ARGFRAME ISTACK, 0, STACK
        ARGFRAME PSTACK, 0, STACK
        ARGFRAME XSTACK, 79, STACK
        ARGFRAME IOVERLAY, 0, STATIC
        ARGFRAME DOVERLAY, 0, STATIC
        EXTERN touchLinkTransID
        EXTERN touchLink_DecryptNwkKey
        FUNCTION touchLink_DecryptNwkKey,0202H
        ARGFRAME ISTACK, 0, STACK
        ARGFRAME PSTACK, 0, STACK
        ARGFRAME XSTACK, 83, STACK
        ARGFRAME IOVERLAY, 0, STATIC
        ARGFRAME DOVERLAY, 0, STATIC
        EXTERN touchLink_DevRejoin
        FUNCTION touchLink_DevRejoin,0202H
        ARGFRAME ISTACK, 0, STACK
        ARGFRAME PSTACK, 0, STACK
        ARGFRAME XSTACK, 75, STACK
        ARGFRAME IOVERLAY, 0, STATIC
        ARGFRAME DOVERLAY, 0, STATIC
        EXTERN touchLink_DeviceIsInitiator
        FUNCTION touchLink_DeviceIsInitiator,0202H
        ARGFRAME ISTACK, 0, STACK
        ARGFRAME PSTACK, 0, STACK
        ARGFRAME XSTACK, 29, STACK
        ARGFRAME IOVERLAY, 0, STATIC
        ARGFRAME DOVERLAY, 0, STATIC
        EXTERN touchLink_EncryptNwkKey
        FUNCTION touchLink_EncryptNwkKey,0202H
        ARGFRAME ISTACK, 0, STACK
        ARGFRAME PSTACK, 0, STACK
        ARGFRAME XSTACK, 83, STACK
        ARGFRAME IOVERLAY, 0, STATIC
        ARGFRAME DOVERLAY, 0, STATIC
        EXTERN touchLink_FreeNwkParamList
        FUNCTION touchLink_FreeNwkParamList,0202H
        ARGFRAME ISTACK, 0, STACK
        ARGFRAME PSTACK, 0, STACK
        ARGFRAME XSTACK, 75, STACK
        ARGFRAME IOVERLAY, 0, STATIC
        ARGFRAME DOVERLAY, 0, STATIC
        EXTERN touchLink_GenerateRandNum
        FUNCTION touchLink_GenerateRandNum,0202H
        ARGFRAME ISTACK, 2, STACK
        ARGFRAME PSTACK, 0, STACK
        ARGFRAME XSTACK, 75, STACK
        ARGFRAME IOVERLAY, 0, STATIC
        ARGFRAME DOVERLAY, 0, STATIC
        EXTERN touchLink_GerFreeRanges
        FUNCTION touchLink_GerFreeRanges,0202H
        ARGFRAME ISTACK, 0, STACK
        ARGFRAME PSTACK, 0, STACK
        ARGFRAME XSTACK, 75, STACK
        ARGFRAME IOVERLAY, 0, STATIC
        ARGFRAME DOVERLAY, 0, STATIC
        EXTERN touchLink_GetMsgRssi
        FUNCTION touchLink_GetMsgRssi,0202H
        ARGFRAME ISTACK, 0, STACK
        ARGFRAME PSTACK, 0, STACK
        ARGFRAME XSTACK, 31, STACK
        ARGFRAME IOVERLAY, 0, STATIC
        ARGFRAME DOVERLAY, 0, STATIC
        EXTERN touchLink_GetNumGrpIDs
        FUNCTION touchLink_GetNumGrpIDs,0202H
        ARGFRAME ISTACK, 2, STACK
        ARGFRAME PSTACK, 0, STACK
        ARGFRAME XSTACK, 22, STACK
        ARGFRAME IOVERLAY, 0, STATIC
        ARGFRAME DOVERLAY, 0, STATIC
        EXTERN touchLink_GetNumSubDevices
        FUNCTION touchLink_GetNumSubDevices,0202H
        ARGFRAME ISTACK, 0, STACK
        ARGFRAME PSTACK, 0, STACK
        ARGFRAME XSTACK, 22, STACK
        ARGFRAME IOVERLAY, 0, STATIC
        ARGFRAME DOVERLAY, 0, STATIC
        EXTERN touchLink_GetNwkKeyBitmask
        FUNCTION touchLink_GetNwkKeyBitmask,0202H
        ARGFRAME ISTACK, 0, STACK
        ARGFRAME PSTACK, 0, STACK
        ARGFRAME XSTACK, 22, STACK
        ARGFRAME IOVERLAY, 0, STATIC
        ARGFRAME DOVERLAY, 0, STATIC
        EXTERN touchLink_GetRandPrimaryChannel
        FUNCTION touchLink_GetRandPrimaryChannel,0202H
        ARGFRAME ISTACK, 2, STACK
        ARGFRAME PSTACK, 0, STACK
        ARGFRAME XSTACK, 75, STACK
        ARGFRAME IOVERLAY, 0, STATIC
        ARGFRAME DOVERLAY, 0, STATIC
        EXTERN touchLink_GetSubDeviceInfo
        FUNCTION touchLink_GetSubDeviceInfo,0202H
        ARGFRAME ISTACK, 0, STACK
        ARGFRAME PSTACK, 0, STACK
        ARGFRAME XSTACK, 35, STACK
        ARGFRAME IOVERLAY, 0, STATIC
        ARGFRAME DOVERLAY, 0, STATIC
        EXTERN touchLink_InitVariables
        FUNCTION touchLink_InitVariables,0202H
        ARGFRAME ISTACK, 0, STACK
        ARGFRAME PSTACK, 0, STACK
        ARGFRAME XSTACK, 9, STACK
        ARGFRAME IOVERLAY, 0, STATIC
        ARGFRAME DOVERLAY, 0, STATIC
        EXTERN touchLink_IsValidSplitFreeRanges
        FUNCTION touchLink_IsValidSplitFreeRanges,0202H
        ARGFRAME ISTACK, 0, STACK
        ARGFRAME PSTACK, 0, STACK
        ARGFRAME XSTACK, 75, STACK
        ARGFRAME IOVERLAY, 0, STATIC
        ARGFRAME DOVERLAY, 0, STATIC
        EXTERN touchLink_IsValidTransID
        FUNCTION touchLink_IsValidTransID,0202H
        ARGFRAME ISTACK, 0, STACK
        ARGFRAME PSTACK, 0, STACK
        ARGFRAME XSTACK, 75, STACK
        ARGFRAME IOVERLAY, 0, STATIC
        ARGFRAME DOVERLAY, 0, STATIC
        EXTERN touchLink_NewNwkUpdateId
        FUNCTION touchLink_NewNwkUpdateId,0202H
        ARGFRAME ISTACK, 0, STACK
        ARGFRAME PSTACK, 0, STACK
        ARGFRAME XSTACK, 10, STACK
        ARGFRAME IOVERLAY, 0, STATIC
        ARGFRAME DOVERLAY, 0, STATIC
        EXTERN touchLink_PerformNetworkDisc
        FUNCTION touchLink_PerformNetworkDisc,0202H
        ARGFRAME ISTACK, 0, STACK
        ARGFRAME PSTACK, 0, STACK
        ARGFRAME XSTACK, 75, STACK
        ARGFRAME IOVERLAY, 0, STATIC
        ARGFRAME DOVERLAY, 0, STATIC
        EXTERN touchLink_PermitJoin
        FUNCTION touchLink_PermitJoin,0202H
        ARGFRAME ISTACK, 2, STACK
        ARGFRAME PSTACK, 0, STACK
        ARGFRAME XSTACK, 75, STACK
        ARGFRAME IOVERLAY, 0, STATIC
        ARGFRAME DOVERLAY, 0, STATIC
        EXTERN touchLink_PopGrpIDRange
        FUNCTION touchLink_PopGrpIDRange,0202H
        ARGFRAME ISTACK, 2, STACK
        ARGFRAME PSTACK, 0, STACK
        ARGFRAME XSTACK, 16, STACK
        ARGFRAME IOVERLAY, 0, STATIC
        ARGFRAME DOVERLAY, 0, STATIC
        EXTERN touchLink_PopNwkAddress
        FUNCTION touchLink_PopNwkAddress,0202H
        ARGFRAME ISTACK, 2, STACK
        ARGFRAME PSTACK, 0, STACK
        ARGFRAME XSTACK, 16, STACK
        ARGFRAME IOVERLAY, 0, STATIC
        ARGFRAME DOVERLAY, 0, STATIC
        EXTERN touchLink_ProcessNwkUpdate
        FUNCTION touchLink_ProcessNwkUpdate,0202H
        ARGFRAME ISTACK, 0, STACK
        ARGFRAME PSTACK, 0, STACK
        ARGFRAME XSTACK, 75, STACK
        ARGFRAME IOVERLAY, 0, STATIC
        ARGFRAME DOVERLAY, 0, STATIC
        EXTERN touchLink_RouterProcessZDOMsg
        FUNCTION touchLink_RouterProcessZDOMsg,0202H
        ARGFRAME ISTACK, 0, STACK
        ARGFRAME PSTACK, 0, STACK
        ARGFRAME XSTACK, 75, STACK
        ARGFRAME IOVERLAY, 0, STATIC
        ARGFRAME DOVERLAY, 0, STATIC
        EXTERN touchLink_SendDeviceInfoRsp
        FUNCTION touchLink_SendDeviceInfoRsp,0202H
        ARGFRAME ISTACK, 0, STACK
        ARGFRAME PSTACK, 0, STACK
        ARGFRAME XSTACK, 15, STACK
        ARGFRAME IOVERLAY, 0, STATIC
        ARGFRAME DOVERLAY, 0, STATIC
        EXTERN touchLink_SendLeaveReq
        FUNCTION touchLink_SendLeaveReq,0202H
        ARGFRAME ISTACK, 0, STACK
        ARGFRAME PSTACK, 0, STACK
        ARGFRAME XSTACK, 75, STACK
        ARGFRAME IOVERLAY, 0, STATIC
        ARGFRAME DOVERLAY, 0, STATIC
        EXTERN touchLink_SetChannel
        FUNCTION touchLink_SetChannel,0202H
        ARGFRAME ISTACK, 0, STACK
        ARGFRAME PSTACK, 0, STACK
        ARGFRAME XSTACK, 75, STACK
        ARGFRAME IOVERLAY, 0, STATIC
        ARGFRAME DOVERLAY, 0, STATIC
        EXTERN touchLink_SetMacNwkParams
        FUNCTION touchLink_SetMacNwkParams,0202H
        ARGFRAME ISTACK, 2, STACK
        ARGFRAME PSTACK, 0, STACK
        ARGFRAME XSTACK, 33, STACK
        ARGFRAME IOVERLAY, 0, STATIC
        ARGFRAME DOVERLAY, 0, STATIC
        EXTERN touchLink_SetNIB
        FUNCTION touchLink_SetNIB,0202H
        ARGFRAME ISTACK, 0, STACK
        ARGFRAME PSTACK, 0, STACK
        ARGFRAME XSTACK, 79, STACK
        ARGFRAME IOVERLAY, 0, STATIC
        ARGFRAME DOVERLAY, 0, STATIC
        EXTERN touchLink_SetTouchLinkTaskId
        FUNCTION touchLink_SetTouchLinkTaskId,0202H
        ARGFRAME ISTACK, 0, STACK
        ARGFRAME PSTACK, 0, STACK
        ARGFRAME XSTACK, 9, STACK
        ARGFRAME IOVERLAY, 0, STATIC
        ARGFRAME DOVERLAY, 0, STATIC
        EXTERN touchLink_SplitFreeRanges
        FUNCTION touchLink_SplitFreeRanges,0202H
        ARGFRAME ISTACK, 0, STACK
        ARGFRAME PSTACK, 0, STACK
        ARGFRAME XSTACK, 20, STACK
        ARGFRAME IOVERLAY, 0, STATIC
        ARGFRAME DOVERLAY, 0, STATIC
        EXTERN touchLink_UpdateNV
        FUNCTION touchLink_UpdateNV,0202H
        ARGFRAME ISTACK, 0, STACK
        ARGFRAME PSTACK, 0, STACK
        ARGFRAME XSTACK, 75, STACK
        ARGFRAME IOVERLAY, 0, STATIC
        ARGFRAME DOVERLAY, 0, STATIC
        EXTERN touchlinkDistNwk
        EXTERN touchlinkFNReset
        EXTERN zTouchLinkNwkStartRtr
        EXTERN zcl_registerForMsg
        FUNCTION zcl_registerForMsg,0202H
        ARGFRAME ISTACK, 0, STACK
        ARGFRAME PSTACK, 0, STACK
        ARGFRAME XSTACK, 9, STACK
        ARGFRAME IOVERLAY, 0, STATIC
        ARGFRAME DOVERLAY, 0, STATIC
        EXTERN zgConfigPANID
        EXTERN zgDefaultChannelList
        EXTERN zgDeviceLogicalType
        EXTERN zgPollRate
        EXTERN zgQueuedPollRate
        EXTERN zgResponsePollRate

// D:\AA\Z-Stack 3.0.2\Components\stack\bdb\bdb_touchlink_initiator.c
//    1 /**************************************************************************************************
//    2   Filename:       bdb_touchlink_initiator.c
//    3   Revised:        $Date: 2013-11-22 16:17:23 -0800 (Fri, 22 Nov 2013) $
//    4   Revision:       $Revision: 36220 $
//    5 
//    6   Description:    Zigbee Cluster Library - Light Link Initiator.
//    7 
//    8 
//    9   Copyright 2011-2013 Texas Instruments Incorporated. All rights reserved.
//   10 
//   11   IMPORTANT: Your use of this Software is limited to those specific rights
//   12   granted under the terms of a software license agreement between the user
//   13   who downloaded the software, his/her employer (which must be your employer)
//   14   and Texas Instruments Incorporated (the "License").  You may not use this
//   15   Software unless you agree to abide by the terms of the License. The License
//   16   limits your use, and you acknowledge, that the Software may not be modified,
//   17   copied or distributed unless embedded on a Texas Instruments microcontroller
//   18   or used solely and exclusively in conjunction with a Texas Instruments radio
//   19   frequency transceiver, which is integrated into your product.  Other than for
//   20   the foregoing purpose, you may not use, reproduce, copy, prepare derivative
//   21   works of, modify, distribute, perform, display or sell this Software and/or
//   22   its documentation for any purpose.
//   23 
//   24   YOU FURTHER ACKNOWLEDGE AND AGREE THAT THE SOFTWARE AND DOCUMENTATION ARE
//   25   PROVIDED AS IS WITHOUT WARRANTY OF ANY KIND, EITHER EXPRESS OR IMPLIED,
//   26   INCLUDING WITHOUT LIMITATION, ANY WARRANTY OF MERCHANTABILITY, TITLE,
//   27   NON-INFRINGEMENT AND FITNESS FOR A PARTICULAR PURPOSE. IN NO EVENT SHALL
//   28   TEXAS INSTRUMENTS OR ITS LICENSORS BE LIABLE OR OBLIGATED UNDER CONTRACT,
//   29   NEGLIGENCE, STRICT LIABILITY, CONTRIBUTION, BREACH OF WARRANTY, OR OTHER
//   30   LEGAL EQUITABLE THEORY ANY DIRECT OR INDIRECT DAMAGES OR EXPENSES
//   31   INCLUDING BUT NOT LIMITED TO ANY INCIDENTAL, SPECIAL, INDIRECT, PUNITIVE
//   32   OR CONSEQUENTIAL DAMAGES, LOST PROFITS OR LOST DATA, COST OF PROCUREMENT
//   33   OF SUBSTITUTE GOODS, TECHNOLOGY, SERVICES, OR ANY CLAIMS BY THIRD PARTIES
//   34   (INCLUDING BUT NOT LIMITED TO ANY DEFENSE THEREOF), OR OTHER SIMILAR COSTS.
//   35 
//   36   Should you have any questions regarding your right to use this Software,
//   37   contact Texas Instruments Incorporated at www.TI.com.
//   38 **************************************************************************************************/
//   39 
//   40 
//   41 /*********************************************************************
//   42  * INCLUDES
//   43  */
//   44 #include "ZComDef.h"
//   45 #include "OSAL.h"
//   46 #include "OSAL_Tasks.h"
//   47 #include "OSAL_Nv.h"
//   48 #include "AF.h"
//   49 #include "ZDApp.h"
//   50 #include "ZDSecMgr.h"
//   51 #include "ZDObject.h"
//   52 #include "nwk_util.h"
//   53 #include "ZGlobals.h"
//   54 #include "AddrMgr.h"
//   55 
//   56 #if defined ( POWER_SAVING )
//   57 #include "OSAL_PwrMgr.h"
//   58 #endif
//   59 
//   60 #include "stub_aps.h"
//   61 
//   62 #include "zcl.h"
//   63 #include "zcl_general.h"
//   64 #include "bdb.h"
//   65 #include "bdb_interface.h"
//   66 #include "bdb_tlCommissioning.h"
//   67 #include "bdb_touchlink.h"
//   68 
//   69 #include "bdb_touchlink_initiator.h"
//   70 #include "hal_lcd.h"
//   71 #include "hal_led.h"
//   72 
//   73 #if defined ( BDB_TL_INITIATOR )
//   74    
//   75 /*********************************************************************
//   76  * MACROS
//   77  */
//   78 
//   79 /*********************************************************************
//   80  * CONSTANTS
//   81  */
//   82 
//   83 #define TOUCHLINK_INITIATOR_REJOIN_TIMEOUT             2500 // 2.5 sec
//   84 
//   85 // for non-polling end-devices only
//   86 #define TOUCHLINK_INITIATOR_TEMP_POST_TL_POLL_RATE     1000
//   87 
//   88 #define DEV_INFO_INVALID_EP                            0xFE
//   89 
//   90 #define TOUCHLINK_INITIATOR_NUM_SCAN_REQ_PRIMARY       8  // 5 times on 1st channel, plus once for each remianing primary channel
//   91 #define TOUCHLINK_INITIATOR_NUM_SCAN_REQ_EXTENDED      20 // (TOUCHLINK_NUM_SCAN_REQ_PRIMARY + sizeof(TOUCHLINK_SECONDARY_CHANNELS_SET))
//   92 
//   93 /*********************************************************************
//   94  * TYPEDEFS
//   95  */
//   96 typedef union
//   97 {
//   98   bdbTLNwkStartRsp_t nwkStartRsp;
//   99   bdbTLNwkJoinRsp_t nwkJoinRsp;
//  100 } bdbTLRsp_t;
//  101 
//  102 typedef struct
//  103 {
//  104   bdbTLScanRsp_t scanRsp;
//  105   afAddrType_t srcAddr;
//  106   uint16 newNwkAddr;
//  107   uint8 rxChannel;  // channel scan response was heard on
//  108   int8 lastRssi;    // receieved RSSI
//  109 } targetCandidate_t;
//  110 
//  111 /*********************************************************************
//  112  * GLOBAL VARIABLES
//  113  */

        RSEG XDATA_Z:XDATA:NOROOT(0)
        DATA8
//  114 uint8 touchLinkInitiator_TaskID;
touchLinkInitiator_TaskID:
        DS 1
        REQUIRE __INIT_XDATA_Z
//  115 
//  116 /*********************************************************************
//  117  * EXTERNAL VARIABLES
//  118  */
//  119 extern devStartModes_t devStartMode;
//  120 extern uint8 _tmpRejoinState;
//  121 
//  122 /*********************************************************************
//  123  * EXTERNAL FUNCTIONS
//  124  */
//  125 extern void bdb_setNodeIsOnANetwork(bool isOnANetwork);
//  126 
//  127 /*********************************************************************
//  128  * LOCAL VARIABLES
//  129  */

        RSEG XDATA_Z:XDATA:NOROOT(0)
        DATA8
//  130 static uint8 initiatorSeqNum;
initiatorSeqNum:
        DS 1
        REQUIRE __INIT_XDATA_Z
//  131 
//  132 // Touch Link channel tracking

        RSEG XDATA_Z:XDATA:NOROOT(0)
        DATA8
//  133 static uint8 numScanReqSent;
numScanReqSent:
        DS 1
        REQUIRE __INIT_XDATA_Z

        RSEG XDATA_Z:XDATA:NOROOT(0)
        DATA8
//  134 static uint8 scanReqChannels;
scanReqChannels:
        DS 1
        REQUIRE __INIT_XDATA_Z
//  135 
//  136 // Network key sent to the target to start the network with

        RSEG XDATA_Z:XDATA:NOROOT(0)
        DATA8
//  137 static uint8 keyIndexSent;
keyIndexSent:
        DS 1
        REQUIRE __INIT_XDATA_Z

        RSEG XDATA_Z:XDATA:NOROOT(0)
        DATA8
//  138 static uint8 encKeySent[SEC_KEY_LEN];
encKeySent:
        DS 16
        REQUIRE __INIT_XDATA_Z

        RSEG XDATA_Z:XDATA:NOROOT(0)
        DATA32
//  139 static uint32 responseIDSent;
responseIDSent:
        DS 4
        REQUIRE __INIT_XDATA_Z
//  140 
//  141 // Info related to the received request
//  142 #if ZSTACK_END_DEVICE_BUILD
//  143 static bdbTLNwkJoinReq_t joinReq;
//  144 #endif
//  145 
//  146 // Info related to the received response

        RSEG XDATA_Z:XDATA:NOROOT(0)
        DATA8
//  147 static targetCandidate_t selectedTarget;
selectedTarget:
        DS 54
        REQUIRE __INIT_XDATA_Z

        RSEG XDATA_Z:XDATA:NOROOT(0)
        DATA16
//  148 static uint16 selectedTargetNwkAddr;
selectedTargetNwkAddr:
        DS 2
        REQUIRE __INIT_XDATA_Z

        RSEG XDATA_Z:XDATA:NOROOT(0)
        DATA8
//  149 static ZLongAddr_t selectedTargetIEEEAddr;
selectedTargetIEEEAddr:
        DS 8
        REQUIRE __INIT_XDATA_Z

        RSEG XDATA_Z:XDATA:NOROOT(0)
        DATA8
//  150 static bdbTLRsp_t rxRsp; // network start or join response
rxRsp:
        DS 17
        REQUIRE __INIT_XDATA_Z
//  151 

        RSEG XDATA_Z:XDATA:NOROOT(0)
        DATA8
//  152 static bdbTLNwkParams_t initiatorNwkParams = {0};
initiatorNwkParams:
        DS 42
        REQUIRE __INIT_XDATA_Z
//  153 
//  154 // Addresses used for sending/receiving messages

        RSEG XDATA_Z:XDATA:NOROOT(0)
        DATA8
//  155 static afAddrType_t bcastAddr;
bcastAddr:
        DS 12
        REQUIRE __INIT_XDATA_Z
//  156 

        RSEG XDATA_Z:XDATA:NOROOT(0)
        DATA16
//  157 static uint16 savedPollRate;
savedPollRate:
        DS 2
        REQUIRE __INIT_XDATA_Z

        RSEG XDATA_Z:XDATA:NOROOT(0)
        DATA16
//  158 static uint16 savedQueuedPollRate;
savedQueuedPollRate:
        DS 2
        REQUIRE __INIT_XDATA_Z

        RSEG XDATA_Z:XDATA:NOROOT(0)
        DATA16
//  159 static uint16 savedResponsePollRate;
savedResponsePollRate:
        DS 2
        REQUIRE __INIT_XDATA_Z

        RSEG XDATA_Z:XDATA:NOROOT(0)
        DATA8
//  160 static uint8 savedRxOnIdle;
savedRxOnIdle:
        DS 1
        REQUIRE __INIT_XDATA_Z
//  161 
//  162 // Application callback

        RSEG XDATA_Z:XDATA:NOROOT(0)
        DATA16
//  163 static touchLink_NotifyAppTLCB_t pfnNotifyAppCB = NULL;
pfnNotifyAppCB:
        DS 2
        REQUIRE __INIT_XDATA_Z

        RSEG XDATA_Z:XDATA:NOROOT(0)
        DATA16
//  164 static touchLink_SelectDiscDevCB_t pfnSelectDiscDevCB = NULL;
pfnSelectDiscDevCB:
        DS 2
        REQUIRE __INIT_XDATA_Z
//  165 

        RSEG XDATA_I:XDATA:NOROOT(0)
//  166 static uint8 initiatorRegisteredMsgAppTaskID = TASK_NO_TASK;
initiatorRegisteredMsgAppTaskID:
        DATA8
        DS 1
        REQUIRE `?<Initializer for initiatorRegisteredMsgAppTas`
        REQUIRE __INIT_XDATA_I
//  167 
//  168 /*********************************************************************
//  169  * GLOBAL FUNCTIONS
//  170  */
//  171 extern void touchLink_ItemInit( uint16 id, uint16 len, void *pBuf );
//  172 
//  173 /*********************************************************************
//  174  * LOCAL FUNCTIONS
//  175  */
//  176 
//  177 static ZStatus_t initiatorScanReqCB( afAddrType_t *srcAddr, bdbTLScanReq_t *pReq, uint8 seqNum );
//  178 static ZStatus_t initiatorDeviceInfoReqCB( afAddrType_t *srcAddr, bdbTLDeviceInfoReq_t *pReq, uint8 seqNum );
//  179 static ZStatus_t initiatorIdentifyReqCB( afAddrType_t *srcAddr, bdbTLIdentifyReq_t *pReq );
//  180 static ZStatus_t initiatorNwkJoinReqCB( afAddrType_t *srcAddr, bdbTLNwkJoinReq_t *pReq, uint8 seqNum );
//  181 static ZStatus_t initiatorNwkUpdateReqCB( afAddrType_t *srcAddr, bdbTLNwkUpdateReq_t *pReq );
//  182 static ZStatus_t initiatorScanRspCB( afAddrType_t *srcAddr, bdbTLScanRsp_t *pRsp );
//  183 static ZStatus_t initiatorDeviceInfoRspCB( afAddrType_t *srcAddr, bdbTLDeviceInfoRsp_t *pRsp );
//  184 static ZStatus_t initiatorNwkStartRspCB( afAddrType_t *srcAddr, bdbTLNwkStartRsp_t *pRsp );
//  185 static ZStatus_t initiatorNwkJoinRtrRspCB( afAddrType_t *srcAddr, bdbTLNwkJoinRsp_t *pRsp );
//  186 static ZStatus_t initiatorNwkJoinEDRspCB( afAddrType_t *srcAddr, bdbTLNwkJoinRsp_t *pRsp );
//  187 static void *initiatorZdoLeaveCnfCB( void *pParam );
//  188 static ZStatus_t touchLink_InitiatorSendScanRsp( uint8 srcEP, afAddrType_t *dstAddr, uint32 transID, uint8 seqNum );
//  189 static void initiatorProcessStateChange( devStates_t state );
//  190 static void initiatorSetNwkToInitState( void );
//  191 #if ( ZSTACK_ROUTER_BUILD )
//  192 static void initiatorJoinNwk( void );
//  193 #endif
//  194 static void initiatorReJoinNwk( devStartModes_t startMode );
//  195 static void initiatorSendScanReq( bool freshScan );
//  196 static ZStatus_t initiatorSendNwkStartReq( bdbTLScanRsp_t *pRsp );
//  197 static ZStatus_t initiatorSendNwkJoinReq( bdbTLScanRsp_t *pRsp );
//  198 static ZStatus_t initiatorSendNwkUpdateReq( bdbTLScanRsp_t *pRsp );
//  199 static void initiatorClearSelectedTarget( void );
//  200 
//  201 /*********************************************************************
//  202  * TOUCHLINK Initiator Callback Table
//  203  */
//  204 // Initiator Command Callbacks table

        RSEG XDATA_I:XDATA:NOROOT(0)
//  205 static bdbTL_InterPANCallbacks_t touchLinkInitiator_CmdCBs =
touchLinkInitiator_CmdCBs:
        DATA8
        DS 26
        REQUIRE `?<Initializer for touchLinkInitiator_CmdCBs>`
        REQUIRE __INIT_XDATA_I
//  206 {
//  207   // Received Server Commands
//  208   initiatorScanReqCB,       // Scan Request command
//  209   initiatorDeviceInfoReqCB, // Device Information Request command
//  210   initiatorIdentifyReqCB,   // Identify Request command
//  211   NULL,                     // Reset to Factory New Request command
//  212   NULL,                     // Network Start Request command
//  213 #if ( ZSTACK_ROUTER_BUILD )
//  214   initiatorNwkJoinReqCB,    // Network Join Router Request command
//  215   NULL,                     // Network Join End Device Request command
//  216 #else
//  217   NULL,                     // Network Join Router Request command
//  218   initiatorNwkJoinReqCB,    // Network Join End Device Request command
//  219 #endif
//  220   initiatorNwkUpdateReqCB,  // Network Update Request command
//  221 
//  222   // Received Client Commands
//  223   initiatorScanRspCB,       // Scan Response command
//  224   initiatorDeviceInfoRspCB, // Device Information Response command
//  225   initiatorNwkStartRspCB,   // Network Start Response command
//  226   initiatorNwkJoinRtrRspCB, // Network Join Router Response command
//  227   initiatorNwkJoinEDRspCB   // Network Join End Device Response command
//  228 };
//  229 
//  230 /*********************************************************************
//  231  * PUBLIC FUNCTIONS
//  232  */
//  233 
//  234 /*********************************************************************
//  235  * @fn      touchLinkInitiator_InitDevice
//  236  *
//  237  * @brief   Start the TOUCHLINK Initiator device in the network if it's not
//  238  *          factory new. Otherwise, determine the network parameters
//  239  *          and wait for a touchlink command.
//  240  *
//  241  * @param   none
//  242  *
//  243  * @return  status
//  244  */

        RSEG BANKED_CODE:HUGECODE:NOROOT(0)
//  245 ZStatus_t touchLinkInitiator_InitDevice( void )
touchLinkInitiator_InitDevice:
          CFI Block cfiBlock0 Using cfiCommon0
          CFI Function touchLinkInitiator_InitDevice
        CODE
//  246 {
        FUNCALL touchLinkInitiator_InitDevice, initiatorReJoinNwk
        LOCFRAME ISTACK, 2, STACK
        LOCFRAME PSTACK, 0, STACK
        LOCFRAME XSTACK, 0, STACK
        LOCFRAME IOVERLAY, 0, STATIC
        LOCFRAME DOVERLAY, 0, STATIC
        ARGFRAME ISTACK, 2, STACK
        ARGFRAME PSTACK, 0, STACK
        ARGFRAME XSTACK, 0, STACK
        ARGFRAME IOVERLAY, 0, STATIC
        ARGFRAME DOVERLAY, 0, STATIC
        FUNCALL touchLinkInitiator_InitDevice, initiatorSelectNwkParams
        LOCFRAME ISTACK, 2, STACK
        LOCFRAME PSTACK, 0, STACK
        LOCFRAME XSTACK, 0, STACK
        LOCFRAME IOVERLAY, 0, STATIC
        LOCFRAME DOVERLAY, 0, STATIC
        ARGFRAME ISTACK, 2, STACK
        ARGFRAME PSTACK, 0, STACK
        ARGFRAME XSTACK, 0, STACK
        ARGFRAME IOVERLAY, 0, STATIC
        ARGFRAME DOVERLAY, 0, STATIC
        FUNCALL touchLinkInitiator_InitDevice, ZMacSetReq
        LOCFRAME ISTACK, 2, STACK
        LOCFRAME PSTACK, 0, STACK
        LOCFRAME XSTACK, 0, STACK
        LOCFRAME IOVERLAY, 0, STATIC
        LOCFRAME DOVERLAY, 0, STATIC
        ARGFRAME ISTACK, 2, STACK
        ARGFRAME PSTACK, 0, STACK
        ARGFRAME XSTACK, 0, STACK
        ARGFRAME IOVERLAY, 0, STATIC
        ARGFRAME DOVERLAY, 0, STATIC
        FUNCALL touchLinkInitiator_InitDevice, touchLink_PermitJoin
        LOCFRAME ISTACK, 2, STACK
        LOCFRAME PSTACK, 0, STACK
        LOCFRAME XSTACK, 0, STACK
        LOCFRAME IOVERLAY, 0, STATIC
        LOCFRAME DOVERLAY, 0, STATIC
        ARGFRAME ISTACK, 2, STACK
        ARGFRAME PSTACK, 0, STACK
        ARGFRAME XSTACK, 0, STACK
        ARGFRAME IOVERLAY, 0, STATIC
        ARGFRAME DOVERLAY, 0, STATIC
        PUSH      DPL
          CFI DPL0 Frame(CFA_SP, 4)
          CFI CFA_SP SP+-4
        PUSH      DPH
          CFI DPH0 Frame(CFA_SP, 5)
          CFI CFA_SP SP+-5
        ; Saved register size: 2
        ; Auto size: 0
//  247   ZDO_Config_Node_Descriptor.LogicalType = zgDeviceLogicalType;
        MOV       DPTR,#zgDeviceLogicalType
        MOVX      A,@DPTR
        ANL       A,#0x7
        MOV       R0,A
        MOV       DPTR,#ZDO_Config_Node_Descriptor
        MOVX      A,@DPTR
        ANL       A,#0xf8
        ORL       A,R0
        MOVX      @DPTR,A
//  248   
//  249   // Is not factory new?
//  250   if ( bdbAttributes.bdbNodeIsOnANetwork == TRUE )
        MOV       DPTR,#bdbAttributes + 14
        MOVX      A,@DPTR
        XRL       A,#0x1
        JNZ       ??touchLinkInitiator_InitDevice_0
//  251   {
//  252     // Resume ZigBee functionality based on the info stored in NV
//  253     initiatorReJoinNwk( MODE_RESUME );
        ; Setup parameters for call to function initiatorReJoinNwk
        MOV       R1,#0x1
        LCALL     `??initiatorReJoinNwk::?relay`; Banked call to: initiatorReJoinNwk
        SJMP      ??touchLinkInitiator_InitDevice_1
//  254   }
//  255   else
//  256   {
//  257     initiatorSelectNwkParams();
??touchLinkInitiator_InitDevice_0:
        ; Setup parameters for call to function initiatorSelectNwkParams
        LCALL     `??initiatorSelectNwkParams::?relay`; Banked call to: initiatorSelectNwkParams
//  258   }
//  259 
//  260 #if defined ( POWER_SAVING )
//  261   osal_pwrmgr_device( PWRMGR_BATTERY );
//  262 #endif
//  263 
//  264 #if ( ZSTACK_ROUTER_BUILD )
//  265   // Enable our receiver
//  266   savedRxOnIdle = TRUE;
??touchLinkInitiator_InitDevice_1:
        MOV       DPTR,#savedRxOnIdle
        MOV       A,#0x1
        MOVX      @DPTR,A
//  267   ZMacSetReq( ZMacRxOnIdle, &savedRxOnIdle );
        ; Setup parameters for call to function ZMacSetReq
        MOV       R2,#savedRxOnIdle & 0xff
        MOV       R3,#(savedRxOnIdle >> 8) & 0xff
        MOV       R1,#0x52
        LCALL     `??ZMacSetReq::?relay`; Banked call to: ZMacSetReq
//  268   touchLink_PermitJoin(0);
        ; Setup parameters for call to function touchLink_PermitJoin
        MOV       R1,#0x0
        LCALL     `??touchLink_PermitJoin::?relay`; Banked call to: touchLink_PermitJoin
//  269 #endif
//  270 
//  271   return ( ZSuccess );
        MOV       R1,#0x0
        LJMP      ??Subroutine46_0 & 0xFFFF
//  272 }
          CFI EndBlock cfiBlock0
//  273 
//  274 /*********************************************************************
//  275  * @fn      touchLinkInitiator_RegisterNotifyTLCB
//  276  *
//  277  * @brief   Register an Application's Touch-Link Notify callback function.
//  278  *
//  279  * @param   pfnNotifyApp - application callback
//  280  *
//  281  * @return  none
//  282  */

        RSEG BANKED_CODE:HUGECODE:NOROOT(0)
//  283 void touchLinkInitiator_RegisterNotifyTLCB( touchLink_NotifyAppTLCB_t pfnNotifyApp )
touchLinkInitiator_RegisterNotifyTLCB:
          CFI Block cfiBlock1 Using cfiCommon0
          CFI Function touchLinkInitiator_RegisterNotifyTLCB
        CODE
//  284 {
        PUSH      DPL
          CFI DPL0 Frame(CFA_SP, 4)
          CFI CFA_SP SP+-4
        PUSH      DPH
          CFI DPH0 Frame(CFA_SP, 5)
          CFI CFA_SP SP+-5
        ; Saved register size: 2
        ; Auto size: 0
//  285   pfnNotifyAppCB = pfnNotifyApp;
        MOV       DPTR,#pfnNotifyAppCB
        LJMP      ?Subroutine0 & 0xFFFF
//  286 }
          CFI EndBlock cfiBlock1
//  287 
//  288 /*********************************************************************
//  289  * @fn      touchLinkInitiator_RegisterSelectDiscDevCB
//  290  *
//  291  * @brief   Register an Application's Selection callback function, to select
//  292  *          a target from the discovered devices during a Touch-link scan.
//  293  *
//  294  * @param   pfnSelectDiscDev - application callback
//  295  *
//  296  * @return  none
//  297  */

        RSEG BANKED_CODE:HUGECODE:NOROOT(0)
//  298 void touchLinkInitiator_RegisterSelectDiscDevCB( touchLink_SelectDiscDevCB_t pfnSelectDiscDev )
touchLinkInitiator_RegisterSelectDiscDevCB:
          CFI Block cfiBlock2 Using cfiCommon0
          CFI Function touchLinkInitiator_RegisterSelectDiscDevCB
        CODE
//  299 {
        PUSH      DPL
          CFI DPL0 Frame(CFA_SP, 4)
          CFI CFA_SP SP+-4
        PUSH      DPH
          CFI DPH0 Frame(CFA_SP, 5)
          CFI CFA_SP SP+-5
        ; Saved register size: 2
        ; Auto size: 0
//  300   pfnSelectDiscDevCB = pfnSelectDiscDev;
        MOV       DPTR,#pfnSelectDiscDevCB
        LJMP      ?Subroutine0 & 0xFFFF
//  301 }
          CFI EndBlock cfiBlock2
//  302 
//  303 /*********************************************************************
//  304  * @fn      touchLinkInitiator_StartDevDisc
//  305  *
//  306  * @brief   Start device discovery, scanning for other devices in the vicinity
//  307  *          of the originator (initiating first part of the Touch-Link process).
//  308  *          Device discovery shall only be initiated by address assignment capable
//  309  *          devices. To perform device discovery, the initiator shall broadcast
//  310  *          inter-PAN Scan Requests, spaced at an interval of
//  311  *          BDBCTL_SCAN_TIME_BASE_DURATION seconds.
//  312  *
//  313  * @param   none
//  314  *
//  315  * @return  status
//  316  */

        RSEG BANKED_CODE:HUGECODE:NOROOT(0)
//  317 ZStatus_t touchLinkInitiator_StartDevDisc( void )
touchLinkInitiator_StartDevDisc:
          CFI Block cfiBlock3 Using cfiCommon0
          CFI Function touchLinkInitiator_StartDevDisc
        CODE
//  318 {
        FUNCALL touchLinkInitiator_StartDevDisc, osal_clear_event
        LOCFRAME ISTACK, 0, STACK
        LOCFRAME PSTACK, 0, STACK
        LOCFRAME XSTACK, 17, STACK
        LOCFRAME IOVERLAY, 0, STATIC
        LOCFRAME DOVERLAY, 0, STATIC
        ARGFRAME ISTACK, 0, STACK
        ARGFRAME PSTACK, 0, STACK
        ARGFRAME XSTACK, 17, STACK
        ARGFRAME IOVERLAY, 0, STATIC
        ARGFRAME DOVERLAY, 0, STATIC
        FUNCALL touchLinkInitiator_StartDevDisc, ZDApp_StopJoiningCycle
        LOCFRAME ISTACK, 0, STACK
        LOCFRAME PSTACK, 0, STACK
        LOCFRAME XSTACK, 17, STACK
        LOCFRAME IOVERLAY, 0, STATIC
        LOCFRAME DOVERLAY, 0, STATIC
        ARGFRAME ISTACK, 0, STACK
        ARGFRAME PSTACK, 0, STACK
        ARGFRAME XSTACK, 17, STACK
        ARGFRAME IOVERLAY, 0, STATIC
        ARGFRAME DOVERLAY, 0, STATIC
        FUNCALL touchLinkInitiator_StartDevDisc, touchLinkInitiator_AbortTL
        LOCFRAME ISTACK, 0, STACK
        LOCFRAME PSTACK, 0, STACK
        LOCFRAME XSTACK, 17, STACK
        LOCFRAME IOVERLAY, 0, STATIC
        LOCFRAME DOVERLAY, 0, STATIC
        ARGFRAME ISTACK, 0, STACK
        ARGFRAME PSTACK, 0, STACK
        ARGFRAME XSTACK, 17, STACK
        ARGFRAME IOVERLAY, 0, STATIC
        ARGFRAME DOVERLAY, 0, STATIC
        FUNCALL touchLinkInitiator_StartDevDisc, osal_get_timeoutEx
        LOCFRAME ISTACK, 0, STACK
        LOCFRAME PSTACK, 0, STACK
        LOCFRAME XSTACK, 17, STACK
        LOCFRAME IOVERLAY, 0, STATIC
        LOCFRAME DOVERLAY, 0, STATIC
        ARGFRAME ISTACK, 0, STACK
        ARGFRAME PSTACK, 0, STACK
        ARGFRAME XSTACK, 17, STACK
        ARGFRAME IOVERLAY, 0, STATIC
        ARGFRAME DOVERLAY, 0, STATIC
        FUNCALL touchLinkInitiator_StartDevDisc, osal_rand
        LOCFRAME ISTACK, 0, STACK
        LOCFRAME PSTACK, 0, STACK
        LOCFRAME XSTACK, 17, STACK
        LOCFRAME IOVERLAY, 0, STATIC
        LOCFRAME DOVERLAY, 0, STATIC
        ARGFRAME ISTACK, 0, STACK
        ARGFRAME PSTACK, 0, STACK
        ARGFRAME XSTACK, 17, STACK
        ARGFRAME IOVERLAY, 0, STATIC
        ARGFRAME DOVERLAY, 0, STATIC
        FUNCALL touchLinkInitiator_StartDevDisc, osal_rand
        LOCFRAME ISTACK, 0, STACK
        LOCFRAME PSTACK, 0, STACK
        LOCFRAME XSTACK, 17, STACK
        LOCFRAME IOVERLAY, 0, STATIC
        LOCFRAME DOVERLAY, 0, STATIC
        ARGFRAME ISTACK, 0, STACK
        ARGFRAME PSTACK, 0, STACK
        ARGFRAME XSTACK, 17, STACK
        ARGFRAME IOVERLAY, 0, STATIC
        ARGFRAME DOVERLAY, 0, STATIC
        FUNCALL touchLinkInitiator_StartDevDisc, osal_start_timerEx
        LOCFRAME ISTACK, 0, STACK
        LOCFRAME PSTACK, 0, STACK
        LOCFRAME XSTACK, 21, STACK
        LOCFRAME IOVERLAY, 0, STATIC
        LOCFRAME DOVERLAY, 0, STATIC
        ARGFRAME ISTACK, 0, STACK
        ARGFRAME PSTACK, 0, STACK
        ARGFRAME XSTACK, 21, STACK
        ARGFRAME IOVERLAY, 0, STATIC
        ARGFRAME DOVERLAY, 0, STATIC
        FUNCALL touchLinkInitiator_StartDevDisc, NLME_SetPollRate
        LOCFRAME ISTACK, 0, STACK
        LOCFRAME PSTACK, 0, STACK
        LOCFRAME XSTACK, 17, STACK
        LOCFRAME IOVERLAY, 0, STATIC
        LOCFRAME DOVERLAY, 0, STATIC
        ARGFRAME ISTACK, 0, STACK
        ARGFRAME PSTACK, 0, STACK
        ARGFRAME XSTACK, 17, STACK
        ARGFRAME IOVERLAY, 0, STATIC
        ARGFRAME DOVERLAY, 0, STATIC
        FUNCALL touchLinkInitiator_StartDevDisc, NLME_SetQueuedPollRate
        LOCFRAME ISTACK, 0, STACK
        LOCFRAME PSTACK, 0, STACK
        LOCFRAME XSTACK, 17, STACK
        LOCFRAME IOVERLAY, 0, STATIC
        LOCFRAME DOVERLAY, 0, STATIC
        ARGFRAME ISTACK, 0, STACK
        ARGFRAME PSTACK, 0, STACK
        ARGFRAME XSTACK, 17, STACK
        ARGFRAME IOVERLAY, 0, STATIC
        ARGFRAME DOVERLAY, 0, STATIC
        FUNCALL touchLinkInitiator_StartDevDisc, NLME_SetResponseRate
        LOCFRAME ISTACK, 0, STACK
        LOCFRAME PSTACK, 0, STACK
        LOCFRAME XSTACK, 17, STACK
        LOCFRAME IOVERLAY, 0, STATIC
        LOCFRAME DOVERLAY, 0, STATIC
        ARGFRAME ISTACK, 0, STACK
        ARGFRAME PSTACK, 0, STACK
        ARGFRAME XSTACK, 17, STACK
        ARGFRAME IOVERLAY, 0, STATIC
        ARGFRAME DOVERLAY, 0, STATIC
        FUNCALL touchLinkInitiator_StartDevDisc, ZMacGetReq
        LOCFRAME ISTACK, 0, STACK
        LOCFRAME PSTACK, 0, STACK
        LOCFRAME XSTACK, 17, STACK
        LOCFRAME IOVERLAY, 0, STATIC
        LOCFRAME DOVERLAY, 0, STATIC
        ARGFRAME ISTACK, 0, STACK
        ARGFRAME PSTACK, 0, STACK
        ARGFRAME XSTACK, 17, STACK
        ARGFRAME IOVERLAY, 0, STATIC
        ARGFRAME DOVERLAY, 0, STATIC
        FUNCALL touchLinkInitiator_StartDevDisc, ZMacSetReq
        LOCFRAME ISTACK, 0, STACK
        LOCFRAME PSTACK, 0, STACK
        LOCFRAME XSTACK, 17, STACK
        LOCFRAME IOVERLAY, 0, STATIC
        LOCFRAME DOVERLAY, 0, STATIC
        ARGFRAME ISTACK, 0, STACK
        ARGFRAME PSTACK, 0, STACK
        ARGFRAME XSTACK, 17, STACK
        ARGFRAME IOVERLAY, 0, STATIC
        ARGFRAME DOVERLAY, 0, STATIC
        FUNCALL touchLinkInitiator_StartDevDisc, initiatorSendScanReq
        LOCFRAME ISTACK, 0, STACK
        LOCFRAME PSTACK, 0, STACK
        LOCFRAME XSTACK, 17, STACK
        LOCFRAME IOVERLAY, 0, STATIC
        LOCFRAME DOVERLAY, 0, STATIC
        ARGFRAME ISTACK, 0, STACK
        ARGFRAME PSTACK, 0, STACK
        ARGFRAME XSTACK, 17, STACK
        ARGFRAME IOVERLAY, 0, STATIC
        ARGFRAME DOVERLAY, 0, STATIC
        REQUIRE ?V0
        REQUIRE ?V1
        REQUIRE ?V2
        REQUIRE ?V3
        REQUIRE ?V4
        REQUIRE ?V5
        REQUIRE ?V6
        REQUIRE ?V7
        MOV       A,#-0x10
        LCALL     ?BANKED_ENTER_XDATA
          CFI DPH0 load(1, XDATA, add(CFA_XSP16, literal(-1)))
          CFI DPL0 load(1, XDATA, add(CFA_XSP16, literal(-2)))
          CFI ?BRET_EXT load(1, XDATA, add(CFA_XSP16, literal(-3)))
          CFI ?RET_HIGH load(1, XDATA, add(CFA_XSP16, literal(-4)))
          CFI ?RET_LOW load(1, XDATA, add(CFA_XSP16, literal(-5)))
          CFI R7 load(1, XDATA, add(CFA_XSP16, literal(-6)))
          CFI V7 load(1, XDATA, add(CFA_XSP16, literal(-7)))
          CFI V6 load(1, XDATA, add(CFA_XSP16, literal(-8)))
          CFI V5 load(1, XDATA, add(CFA_XSP16, literal(-9)))
          CFI V4 load(1, XDATA, add(CFA_XSP16, literal(-10)))
          CFI V3 load(1, XDATA, add(CFA_XSP16, literal(-11)))
          CFI V2 load(1, XDATA, add(CFA_XSP16, literal(-12)))
          CFI V1 load(1, XDATA, add(CFA_XSP16, literal(-13)))
          CFI V0 load(1, XDATA, add(CFA_XSP16, literal(-14)))
          CFI VB load(1, XDATA, add(CFA_XSP16, literal(-15)))
          CFI R6 load(1, XDATA, add(CFA_XSP16, literal(-16)))
          CFI CFA_SP SP+0
          CFI CFA_XSP16 add(XSP16, 16)
        ; Saved register size: 16
        ; Auto size: 1
        MOV       A,#-0x1
        LCALL     ?ALLOC_XSTACK8
          CFI CFA_XSP16 add(XSP16, 17)
//  319   osal_clear_event( ZDAppTaskID, ZDO_NETWORK_INIT ); // in case orphaned rejoin was called
        ; Setup parameters for call to function osal_clear_event
        MOV       R2,#0x1
        MOV       R3,#0x0
        MOV       DPTR,#ZDAppTaskID
        MOVX      A,@DPTR
        MOV       R1,A
        LCALL     `??osal_clear_event::?relay`; Banked call to: osal_clear_event
//  320   ZDApp_StopJoiningCycle();
        ; Setup parameters for call to function ZDApp_StopJoiningCycle
        LCALL     `??ZDApp_StopJoiningCycle::?relay`; Banked call to: ZDApp_StopJoiningCycle
//  321 
//  322   //abort any touchlink in progress and start the new dev discovery.
//  323   touchLinkInitiator_AbortTL();
        ; Setup parameters for call to function touchLinkInitiator_AbortTL
        LCALL     `??touchLinkInitiator_AbortTL::?relay`; Banked call to: touchLinkInitiator_AbortTL
//  324 
//  325   // To perform device discovery, switch to channel 11 and broadcast five
//  326   // consecutive inter-PAN Scan Requests. Then switch to each remaining
//  327   // TOUCHLINK channels in turn (i.e., 15, 20, and 25) and broadcast a single
//  328   // inter-PAN Scan Request on each channel.
//  329   if ( !osal_get_timeoutEx( touchLinkInitiator_TaskID, TOUCHLINK_TL_SCAN_BASE_EVT ) )
        ; Setup parameters for call to function osal_get_timeoutEx
        LCALL     ?Subroutine7 & 0xFFFF
??CrossCallReturnLabel_161:
        JZ        $+5
        LJMP      ??touchLinkInitiator_StartDevDisc_0 & 0xFFFF
//  330   {
//  331     uint8 x = TRUE;
        MOV       DPL,?XSP + 0
        MOV       DPH,?XSP + 1
        MOV       A,#0x1
        MOVX      @DPTR,A
//  332 
//  333     // Generate a new Transaction Id
//  334     touchLinkTransID = ( ( (uint32)osal_rand() ) << 16 ) + osal_rand();
        ; Setup parameters for call to function osal_rand
        LCALL     ?Subroutine33 & 0xFFFF
??CrossCallReturnLabel_34:
        MOV       A,#0x10
        MOV       R0,#?V4
        LCALL     ?L_SHL
        ; Setup parameters for call to function osal_rand
        LCALL     `??osal_rand::?relay`; Banked call to: osal_rand
        MOV       ?V0,R2
        MOV       ?V1,R3
        CLR       A
        MOV       ?V2,A
        MOV       ?V3,A
        MOV       R0,#?V4
        MOV       R1,#?V0
        LCALL     ?L_ADD
        MOV       DPTR,#touchLinkTransID
        MOV       R0,#?V4
        LCALL     ?L_MOV_TO_X
//  335     osal_start_timerEx( touchLinkInitiator_TaskID, TOUCHLINK_TRANS_LIFETIME_EXPIRED_EVT,
//  336                         BDBCTL_INTER_PAN_TRANS_ID_LIFETIME );
        ; Setup parameters for call to function osal_start_timerEx
        MOV       DPTR,#__Constant_1f40
        LCALL     ?PUSH_XSTACK8_X_FOUR
          CFI CFA_XSP16 add(XSP16, 21)
        LCALL     ?Subroutine6 & 0xFFFF
??CrossCallReturnLabel_112:
        LCALL     ?DEALLOC_XSTACK8
          CFI CFA_XSP16 add(XSP16, 17)
//  337 
//  338     if ( bdbAttributes.bdbNodeIsOnANetwork == TRUE )
        MOV       DPTR,#bdbAttributes + 14
        MOVX      A,@DPTR
        XRL       A,#0x1
        JNZ       ??touchLinkInitiator_StartDevDisc_1
//  339     {
//  340       // Turn off polling during touch-link procedure
//  341       savedPollRate = zgPollRate;
        MOV       DPTR,#zgPollRate
        MOV       R0,#?V0
        LCALL     ?L_MOV_X
        MOV       DPTR,#savedPollRate
        MOV       A,?V0
        MOVX      @DPTR,A
        INC       DPTR
        MOV       A,?V1
        MOVX      @DPTR,A
//  342       savedQueuedPollRate = zgQueuedPollRate;
        MOV       DPTR,#zgQueuedPollRate
        LCALL     ??Subroutine63_0 & 0xFFFF
??CrossCallReturnLabel_132:
        MOV       DPTR,#savedQueuedPollRate
        LCALL     ??Subroutine49_0 & 0xFFFF
//  343       savedResponsePollRate = zgResponsePollRate;
??CrossCallReturnLabel_85:
        MOV       DPTR,#zgResponsePollRate
        LCALL     ??Subroutine63_0 & 0xFFFF
??CrossCallReturnLabel_133:
        MOV       DPTR,#savedResponsePollRate
        LCALL     ??Subroutine49_0 & 0xFFFF
//  344 
//  345       NLME_SetPollRate( 0 );
??CrossCallReturnLabel_86:
        ; Setup parameters for call to function NLME_SetPollRate
        MOV       DPTR,#__Constant_0
        LCALL     ?XLOAD_R2345
        LCALL     `??NLME_SetPollRate::?relay`; Banked call to: NLME_SetPollRate
//  346       NLME_SetQueuedPollRate( 0 );
        ; Setup parameters for call to function NLME_SetQueuedPollRate
        MOV       R2,#0x0
        MOV       R3,#0x0
        LCALL     `??NLME_SetQueuedPollRate::?relay`; Banked call to: NLME_SetQueuedPollRate
//  347       NLME_SetResponseRate( 0 );
        ; Setup parameters for call to function NLME_SetResponseRate
        MOV       R2,#0x0
        MOV       R3,#0x0
        LCALL     `??NLME_SetResponseRate::?relay`; Banked call to: NLME_SetResponseRate
//  348     }
//  349 
//  350     // Remember current rx state
//  351     ZMacGetReq( ZMacRxOnIdle, &savedRxOnIdle );
??touchLinkInitiator_StartDevDisc_1:
        ; Setup parameters for call to function ZMacGetReq
        MOV       R2,#savedRxOnIdle & 0xff
        MOV       R3,#(savedRxOnIdle >> 8) & 0xff
        MOV       R1,#0x52
        LCALL     `??ZMacGetReq::?relay`; Banked call to: ZMacGetReq
//  352 
//  353     // MAC receiver should be on during touch-link procedure
//  354     ZMacSetReq( ZMacRxOnIdle, &x );
        ; Setup parameters for call to function ZMacSetReq
        MOV       R2,?XSP + 0
        MOV       R3,?XSP + 1
        MOV       R1,#0x52
        LCALL     `??ZMacSetReq::?relay`; Banked call to: ZMacSetReq
//  355 
//  356     scanReqChannels = TOUCHLINK_SCAN_PRIMARY_CHANNELS;
        MOV       DPTR,#scanReqChannels
        MOV       A,#0x1
        MOVX      @DPTR,A
//  357     numScanReqSent = 0;
        MOV       DPTR,#numScanReqSent
        CLR       A
        MOVX      @DPTR,A
//  358 
//  359     // Send out the first Scan Request
//  360     initiatorSendScanReq( TRUE );
        ; Setup parameters for call to function initiatorSendScanReq
        MOV       R1,#0x1
        LCALL     `??initiatorSendScanReq::?relay`; Banked call to: initiatorSendScanReq
//  361 
//  362     return ( ZSuccess );
        MOV       R1,#0x0
        SJMP      ??touchLinkInitiator_StartDevDisc_2
//  363   }
//  364 
//  365   return ( ZFailure );
??touchLinkInitiator_StartDevDisc_0:
        MOV       R1,#0x1
??touchLinkInitiator_StartDevDisc_2:
        MOV       A,#0x1
        LJMP      ?Subroutine1 & 0xFFFF
//  366 }
          CFI EndBlock cfiBlock3
//  367 
//  368 /*********************************************************************
//  369  * @fn      bdbTL_Send_IndentifyReq
//  370  *
//  371  * @brief   Call to send out a scan request for factory new procedure
//  372  *
//  373  * @param   
//  374  *
//  375  * @return 
//  376  */

        RSEG BANKED_CODE:HUGECODE:NOROOT(0)
//  377 void touchLinkInitiator_ResetToFNProcedure( void )
touchLinkInitiator_ResetToFNProcedure:
          CFI Block cfiBlock4 Using cfiCommon0
          CFI Function touchLinkInitiator_ResetToFNProcedure
        CODE
//  378 {
        FUNCALL touchLinkInitiator_ResetToFNProcedure, osal_get_timeoutEx
        LOCFRAME ISTACK, 2, STACK
        LOCFRAME PSTACK, 0, STACK
        LOCFRAME XSTACK, 0, STACK
        LOCFRAME IOVERLAY, 0, STATIC
        LOCFRAME DOVERLAY, 0, STATIC
        ARGFRAME ISTACK, 2, STACK
        ARGFRAME PSTACK, 0, STACK
        ARGFRAME XSTACK, 0, STACK
        ARGFRAME IOVERLAY, 0, STATIC
        ARGFRAME DOVERLAY, 0, STATIC
        FUNCALL touchLinkInitiator_ResetToFNProcedure, touchLinkInitiator_StartDevDisc
        LOCFRAME ISTACK, 2, STACK
        LOCFRAME PSTACK, 0, STACK
        LOCFRAME XSTACK, 0, STACK
        LOCFRAME IOVERLAY, 0, STATIC
        LOCFRAME DOVERLAY, 0, STATIC
        ARGFRAME ISTACK, 2, STACK
        ARGFRAME PSTACK, 0, STACK
        ARGFRAME XSTACK, 0, STACK
        ARGFRAME IOVERLAY, 0, STATIC
        ARGFRAME DOVERLAY, 0, STATIC
        PUSH      DPL
          CFI DPL0 Frame(CFA_SP, 4)
          CFI CFA_SP SP+-4
        PUSH      DPH
          CFI DPH0 Frame(CFA_SP, 5)
          CFI CFA_SP SP+-5
        ; Saved register size: 2
        ; Auto size: 0
//  379   if ( ( bdbCommissioningProcedureState.bdbCommissioningState == 0 ) || ( osal_get_timeoutEx( bdb_TaskID,BDB_CHANGE_COMMISSIONING_STATE ) == 0 ) )
        MOV       DPTR,#bdbCommissioningProcedureState
        MOVX      A,@DPTR
        JZ        ??touchLinkInitiator_ResetToFNProcedure_0
        ; Setup parameters for call to function osal_get_timeoutEx
        MOV       R2,#0x4
        MOV       R3,#0x0
        MOV       DPTR,#bdb_TaskID
        LCALL     ??Subroutine67_0 & 0xFFFF
??CrossCallReturnLabel_168:
        JNZ       ??touchLinkInitiator_ResetToFNProcedure_1
//  380   {
//  381     touchlinkFNReset = TRUE;
??touchLinkInitiator_ResetToFNProcedure_0:
        MOV       DPTR,#touchlinkFNReset
        MOV       A,#0x1
        MOVX      @DPTR,A
//  382     touchLinkInitiator_StartDevDisc( );
        ; Setup parameters for call to function touchLinkInitiator_StartDevDisc
        LCALL     `??touchLinkInitiator_StartDevDisc::?relay`; Banked call to: touchLinkInitiator_StartDevDisc
//  383   }
//  384 }
??touchLinkInitiator_ResetToFNProcedure_1:
        SJMP      ??Subroutine46_0
          CFI EndBlock cfiBlock4
//  385 
//  386 /*********************************************************************
//  387  * @fn      touchLinkInitiator_AbortTL
//  388  *
//  389  * @brief   Abort Touch-link device discovery.
//  390  *          Successful execution could be done before Network Start/Join
//  391  *          commands are sent. Until then, since no device parameters
//  392  *          such as network settings are altered, the Touch-Link is
//  393  *          still reversible.
//  394  *
//  395  * @param   none
//  396  *
//  397  * @return  status
//  398  */

        RSEG BANKED_CODE:HUGECODE:NOROOT(0)
//  399 ZStatus_t touchLinkInitiator_AbortTL( void )
touchLinkInitiator_AbortTL:
          CFI Block cfiBlock5 Using cfiCommon0
          CFI Function touchLinkInitiator_AbortTL
        CODE
//  400 {
        FUNCALL touchLinkInitiator_AbortTL, osal_stop_timerEx
        LOCFRAME ISTACK, 2, STACK
        LOCFRAME PSTACK, 0, STACK
        LOCFRAME XSTACK, 0, STACK
        LOCFRAME IOVERLAY, 0, STATIC
        LOCFRAME DOVERLAY, 0, STATIC
        ARGFRAME ISTACK, 2, STACK
        ARGFRAME PSTACK, 0, STACK
        ARGFRAME XSTACK, 0, STACK
        ARGFRAME IOVERLAY, 0, STATIC
        ARGFRAME DOVERLAY, 0, STATIC
        FUNCALL touchLinkInitiator_AbortTL, osal_stop_timerEx
        LOCFRAME ISTACK, 2, STACK
        LOCFRAME PSTACK, 0, STACK
        LOCFRAME XSTACK, 0, STACK
        LOCFRAME IOVERLAY, 0, STATIC
        LOCFRAME DOVERLAY, 0, STATIC
        ARGFRAME ISTACK, 2, STACK
        ARGFRAME PSTACK, 0, STACK
        ARGFRAME XSTACK, 0, STACK
        ARGFRAME IOVERLAY, 0, STATIC
        ARGFRAME DOVERLAY, 0, STATIC
        FUNCALL touchLinkInitiator_AbortTL, osal_stop_timerEx
        LOCFRAME ISTACK, 2, STACK
        LOCFRAME PSTACK, 0, STACK
        LOCFRAME XSTACK, 0, STACK
        LOCFRAME IOVERLAY, 0, STATIC
        LOCFRAME DOVERLAY, 0, STATIC
        ARGFRAME ISTACK, 2, STACK
        ARGFRAME PSTACK, 0, STACK
        ARGFRAME XSTACK, 0, STACK
        ARGFRAME IOVERLAY, 0, STATIC
        ARGFRAME DOVERLAY, 0, STATIC
        FUNCALL touchLinkInitiator_AbortTL, osal_stop_timerEx
        LOCFRAME ISTACK, 2, STACK
        LOCFRAME PSTACK, 0, STACK
        LOCFRAME XSTACK, 0, STACK
        LOCFRAME IOVERLAY, 0, STATIC
        LOCFRAME DOVERLAY, 0, STATIC
        ARGFRAME ISTACK, 2, STACK
        ARGFRAME PSTACK, 0, STACK
        ARGFRAME XSTACK, 0, STACK
        ARGFRAME IOVERLAY, 0, STATIC
        ARGFRAME DOVERLAY, 0, STATIC
        FUNCALL touchLinkInitiator_AbortTL, initiatorSetNwkToInitState
        LOCFRAME ISTACK, 2, STACK
        LOCFRAME PSTACK, 0, STACK
        LOCFRAME XSTACK, 0, STACK
        LOCFRAME IOVERLAY, 0, STATIC
        LOCFRAME DOVERLAY, 0, STATIC
        ARGFRAME ISTACK, 2, STACK
        ARGFRAME PSTACK, 0, STACK
        ARGFRAME XSTACK, 0, STACK
        ARGFRAME IOVERLAY, 0, STATIC
        ARGFRAME DOVERLAY, 0, STATIC
        FUNCALL touchLinkInitiator_AbortTL, initiatorClearSelectedTarget
        LOCFRAME ISTACK, 2, STACK
        LOCFRAME PSTACK, 0, STACK
        LOCFRAME XSTACK, 0, STACK
        LOCFRAME IOVERLAY, 0, STATIC
        LOCFRAME DOVERLAY, 0, STATIC
        ARGFRAME ISTACK, 2, STACK
        ARGFRAME PSTACK, 0, STACK
        ARGFRAME XSTACK, 0, STACK
        ARGFRAME IOVERLAY, 0, STATIC
        ARGFRAME DOVERLAY, 0, STATIC
        PUSH      DPL
          CFI DPL0 Frame(CFA_SP, 4)
          CFI CFA_SP SP+-4
        PUSH      DPH
          CFI DPH0 Frame(CFA_SP, 5)
          CFI CFA_SP SP+-5
        ; Saved register size: 2
        ; Auto size: 0
//  401   if ( ( osal_stop_timerEx( touchLinkInitiator_TaskID, TOUCHLINK_TL_SCAN_BASE_EVT ) == SUCCESS )
//  402        || ( osal_stop_timerEx( touchLinkInitiator_TaskID, TOUCHLINK_CFG_TARGET_EVT ) == SUCCESS )
//  403        || ( osal_stop_timerEx( touchLinkInitiator_TaskID, TOUCHLINK_W4_NWK_START_RSP_EVT ) == SUCCESS )
//  404        || ( osal_stop_timerEx( touchLinkInitiator_TaskID, TOUCHLINK_W4_NWK_JOIN_RSP_EVT ) == SUCCESS ) )
        ; Setup parameters for call to function osal_stop_timerEx
        MOV       R2,#0x20
        LCALL     ?Subroutine16 & 0xFFFF
??CrossCallReturnLabel_71:
        JZ        ??touchLinkInitiator_AbortTL_0
        ; Setup parameters for call to function osal_stop_timerEx
        MOV       R2,#0x40
        LCALL     ?Subroutine16 & 0xFFFF
??CrossCallReturnLabel_72:
        JZ        ??touchLinkInitiator_AbortTL_0
        ; Setup parameters for call to function osal_stop_timerEx
        MOV       R2,#-0x80
        LCALL     ?Subroutine16 & 0xFFFF
??CrossCallReturnLabel_73:
        JZ        ??touchLinkInitiator_AbortTL_0
        ; Setup parameters for call to function osal_stop_timerEx
        MOV       R2,#0x0
        MOV       R3,#0x1
        LCALL     ??Subroutine44_0 & 0xFFFF
??CrossCallReturnLabel_74:
        JNZ       ??touchLinkInitiator_AbortTL_1
//  405   {
//  406     initiatorSetNwkToInitState();
??touchLinkInitiator_AbortTL_0:
        ; Setup parameters for call to function initiatorSetNwkToInitState
        LCALL     `??initiatorSetNwkToInitState::?relay`; Banked call to: initiatorSetNwkToInitState
//  407     touchLinkTransID = 0;
        MOV       DPTR,#touchLinkTransID
        CLR       A
        MOVX      @DPTR,A
        INC       DPTR
        MOVX      @DPTR,A
        INC       DPTR
        MOVX      @DPTR,A
        INC       DPTR
        LCALL     ?Subroutine29 & 0xFFFF
//  408     numScanReqSent = 0;
//  409     initiatorClearSelectedTarget();
//  410     selectedTargetNwkAddr = 0;
??CrossCallReturnLabel_28:
        MOV       DPTR,#selectedTargetNwkAddr
        CLR       A
        MOVX      @DPTR,A
        INC       DPTR
        MOVX      @DPTR,A
//  411 
//  412     return ( ZSuccess );
        MOV       R1,A
        SJMP      ??touchLinkInitiator_AbortTL_2
//  413   }
//  414 
//  415   return ( ZFailure );
??touchLinkInitiator_AbortTL_1:
        MOV       R1,#0x1
??touchLinkInitiator_AbortTL_2:
        SJMP      ??Subroutine46_0
//  416 }
          CFI EndBlock cfiBlock5

        RSEG BANKED_CODE:HUGECODE:NOROOT(0)
?Subroutine16:
          CFI Block cfiCond6 Using cfiCommon0
          CFI Function touchLinkInitiator_AbortTL
          CFI Conditional ??CrossCallReturnLabel_71
          CFI DPL0 Frame(CFA_SP, 4)
          CFI DPH0 Frame(CFA_SP, 5)
          CFI CFA_SP SP+-7
          CFI Block cfiCond7 Using cfiCommon0
          CFI (cfiCond7) Function touchLinkInitiator_AbortTL
          CFI (cfiCond7) Conditional ??CrossCallReturnLabel_72
          CFI (cfiCond7) DPL0 Frame(CFA_SP, 4)
          CFI (cfiCond7) DPH0 Frame(CFA_SP, 5)
          CFI (cfiCond7) CFA_SP SP+-7
          CFI Block cfiCond8 Using cfiCommon0
          CFI (cfiCond8) Function touchLinkInitiator_AbortTL
          CFI (cfiCond8) Conditional ??CrossCallReturnLabel_73
          CFI (cfiCond8) DPL0 Frame(CFA_SP, 4)
          CFI (cfiCond8) DPH0 Frame(CFA_SP, 5)
          CFI (cfiCond8) CFA_SP SP+-7
          CFI Block cfiPicker9 Using cfiCommon1
          CFI (cfiPicker9) NoFunction
          CFI (cfiPicker9) Picker
        MOV       R3,#0x0
          CFI EndBlock cfiCond6
          CFI EndBlock cfiCond7
          CFI EndBlock cfiCond8
          CFI EndBlock cfiPicker9
        REQUIRE ??Subroutine44_0
        ; // Fall through to label ??Subroutine44_0

        RSEG BANKED_CODE:HUGECODE:NOROOT(0)
??Subroutine44_0:
          CFI Block cfiCond10 Using cfiCommon0
          CFI Function touchLinkInitiator_AbortTL
          CFI Conditional ??CrossCallReturnLabel_74
          CFI DPL0 Frame(CFA_SP, 4)
          CFI DPH0 Frame(CFA_SP, 5)
          CFI CFA_SP SP+-7
          CFI Block cfiCond11 Using cfiCommon0
          CFI (cfiCond11) Function touchLinkInitiator_AbortTL
          CFI (cfiCond11) Conditional ??CrossCallReturnLabel_71
          CFI (cfiCond11) DPL0 Frame(CFA_SP, 4)
          CFI (cfiCond11) DPH0 Frame(CFA_SP, 5)
          CFI (cfiCond11) CFA_SP SP+-7
          CFI Block cfiCond12 Using cfiCommon0
          CFI (cfiCond12) Function touchLinkInitiator_AbortTL
          CFI (cfiCond12) Conditional ??CrossCallReturnLabel_72
          CFI (cfiCond12) DPL0 Frame(CFA_SP, 4)
          CFI (cfiCond12) DPH0 Frame(CFA_SP, 5)
          CFI (cfiCond12) CFA_SP SP+-7
          CFI Block cfiCond13 Using cfiCommon0
          CFI (cfiCond13) Function touchLinkInitiator_AbortTL
          CFI (cfiCond13) Conditional ??CrossCallReturnLabel_73
          CFI (cfiCond13) DPL0 Frame(CFA_SP, 4)
          CFI (cfiCond13) DPH0 Frame(CFA_SP, 5)
          CFI (cfiCond13) CFA_SP SP+-7
          CFI Block cfiPicker14 Using cfiCommon1
          CFI (cfiPicker14) NoFunction
          CFI (cfiPicker14) Picker
        MOV       DPTR,#touchLinkInitiator_TaskID
        MOVX      A,@DPTR
        MOV       R1,A
        LCALL     `??osal_stop_timerEx::?relay`; Banked call to: osal_stop_timerEx
        MOV       A,R1
        RET
          CFI EndBlock cfiCond10
          CFI EndBlock cfiCond11
          CFI EndBlock cfiCond12
          CFI EndBlock cfiCond13
          CFI EndBlock cfiPicker14

        RSEG BANKED_CODE:HUGECODE:NOROOT(0)
?Subroutine0:
          CFI Block cfiBlock15 Using cfiCommon0
          CFI NoFunction
          CFI CFA_SP SP+-5
          CFI DPL0 Frame(CFA_SP, 4)
          CFI DPH0 Frame(CFA_SP, 5)
        MOV       A,R2
        MOVX      @DPTR,A
        INC       DPTR
        MOV       A,R3
          CFI EndBlock cfiBlock15
        REQUIRE ??Subroutine45_0
        ; // Fall through to label ??Subroutine45_0

        RSEG BANKED_CODE:HUGECODE:NOROOT(0)
??Subroutine45_0:
          CFI Block cfiBlock16 Using cfiCommon0
          CFI NoFunction
          CFI CFA_SP SP+-5
          CFI DPL0 Frame(CFA_SP, 4)
          CFI DPH0 Frame(CFA_SP, 5)
        MOVX      @DPTR,A
          CFI EndBlock cfiBlock16
        REQUIRE ??Subroutine46_0
        ; // Fall through to label ??Subroutine46_0

        RSEG BANKED_CODE:HUGECODE:NOROOT(0)
??Subroutine46_0:
          CFI Block cfiBlock17 Using cfiCommon0
          CFI NoFunction
          CFI CFA_SP SP+-5
          CFI DPL0 Frame(CFA_SP, 4)
          CFI DPH0 Frame(CFA_SP, 5)
        POP       DPH
          CFI CFA_SP SP+-4
          CFI DPH0 SameValue
        POP       DPL
          CFI CFA_SP SP+-3
          CFI DPL0 SameValue
        LJMP      ?BRET
          CFI EndBlock cfiBlock17
//  417 
//  418 /*********************************************************************
//  419  * @fn          touchLinkInitiator_Init
//  420  *
//  421  * @brief       Initialization function for the TOUCHLINK Initiator task.
//  422  *
//  423  * @param       task_id - TOUCHLINK Initiator task id
//  424  *
//  425  * @return      none
//  426  */

        RSEG BANKED_CODE:HUGECODE:NOROOT(0)
//  427 void touchLinkInitiator_Init( uint8 task_id )
touchLinkInitiator_Init:
          CFI Block cfiBlock18 Using cfiCommon0
          CFI Function touchLinkInitiator_Init
        CODE
//  428 {
        FUNCALL touchLinkInitiator_Init, touchLink_SetTouchLinkTaskId
        LOCFRAME ISTACK, 0, STACK
        LOCFRAME PSTACK, 0, STACK
        LOCFRAME XSTACK, 9, STACK
        LOCFRAME IOVERLAY, 0, STATIC
        LOCFRAME DOVERLAY, 0, STATIC
        ARGFRAME ISTACK, 0, STACK
        ARGFRAME PSTACK, 0, STACK
        ARGFRAME XSTACK, 9, STACK
        ARGFRAME IOVERLAY, 0, STATIC
        ARGFRAME DOVERLAY, 0, STATIC
        FUNCALL touchLinkInitiator_Init, touchLink_InitVariables
        LOCFRAME ISTACK, 0, STACK
        LOCFRAME PSTACK, 0, STACK
        LOCFRAME XSTACK, 9, STACK
        LOCFRAME IOVERLAY, 0, STATIC
        LOCFRAME DOVERLAY, 0, STATIC
        ARGFRAME ISTACK, 0, STACK
        ARGFRAME PSTACK, 0, STACK
        ARGFRAME XSTACK, 9, STACK
        ARGFRAME IOVERLAY, 0, STATIC
        ARGFRAME DOVERLAY, 0, STATIC
        FUNCALL touchLinkInitiator_Init, initiatorClearSelectedTarget
        LOCFRAME ISTACK, 0, STACK
        LOCFRAME PSTACK, 0, STACK
        LOCFRAME XSTACK, 9, STACK
        LOCFRAME IOVERLAY, 0, STATIC
        LOCFRAME DOVERLAY, 0, STATIC
        ARGFRAME ISTACK, 0, STACK
        ARGFRAME PSTACK, 0, STACK
        ARGFRAME XSTACK, 9, STACK
        ARGFRAME IOVERLAY, 0, STATIC
        ARGFRAME DOVERLAY, 0, STATIC
        FUNCALL touchLinkInitiator_Init, zcl_registerForMsg
        LOCFRAME ISTACK, 0, STACK
        LOCFRAME PSTACK, 0, STACK
        LOCFRAME XSTACK, 9, STACK
        LOCFRAME IOVERLAY, 0, STATIC
        LOCFRAME DOVERLAY, 0, STATIC
        ARGFRAME ISTACK, 0, STACK
        ARGFRAME PSTACK, 0, STACK
        ARGFRAME XSTACK, 9, STACK
        ARGFRAME IOVERLAY, 0, STATIC
        ARGFRAME DOVERLAY, 0, STATIC
        FUNCALL touchLinkInitiator_Init, bdbTL_RegisterInterPANCmdCallbacks
        LOCFRAME ISTACK, 0, STACK
        LOCFRAME PSTACK, 0, STACK
        LOCFRAME XSTACK, 9, STACK
        LOCFRAME IOVERLAY, 0, STATIC
        LOCFRAME DOVERLAY, 0, STATIC
        ARGFRAME ISTACK, 0, STACK
        ARGFRAME PSTACK, 0, STACK
        ARGFRAME XSTACK, 9, STACK
        ARGFRAME IOVERLAY, 0, STATIC
        ARGFRAME DOVERLAY, 0, STATIC
        FUNCALL touchLinkInitiator_Init, ZDO_RegisterForZdoCB
        LOCFRAME ISTACK, 0, STACK
        LOCFRAME PSTACK, 0, STACK
        LOCFRAME XSTACK, 9, STACK
        LOCFRAME IOVERLAY, 0, STATIC
        LOCFRAME DOVERLAY, 0, STATIC
        ARGFRAME ISTACK, 0, STACK
        ARGFRAME PSTACK, 0, STACK
        ARGFRAME XSTACK, 9, STACK
        ARGFRAME IOVERLAY, 0, STATIC
        ARGFRAME DOVERLAY, 0, STATIC
        FUNCALL touchLinkInitiator_Init, ZDO_RegisterForZDOMsg
        LOCFRAME ISTACK, 0, STACK
        LOCFRAME PSTACK, 0, STACK
        LOCFRAME XSTACK, 9, STACK
        LOCFRAME IOVERLAY, 0, STATIC
        LOCFRAME DOVERLAY, 0, STATIC
        ARGFRAME ISTACK, 0, STACK
        ARGFRAME PSTACK, 0, STACK
        ARGFRAME XSTACK, 9, STACK
        ARGFRAME IOVERLAY, 0, STATIC
        ARGFRAME DOVERLAY, 0, STATIC
        FUNCALL touchLinkInitiator_Init, ZDO_RegisterForZDOMsg
        LOCFRAME ISTACK, 0, STACK
        LOCFRAME PSTACK, 0, STACK
        LOCFRAME XSTACK, 9, STACK
        LOCFRAME IOVERLAY, 0, STATIC
        LOCFRAME DOVERLAY, 0, STATIC
        ARGFRAME ISTACK, 0, STACK
        ARGFRAME PSTACK, 0, STACK
        ARGFRAME XSTACK, 9, STACK
        ARGFRAME IOVERLAY, 0, STATIC
        ARGFRAME DOVERLAY, 0, STATIC
        MOV       A,#-0x9
        LCALL     ?BANKED_ENTER_XDATA
          CFI DPH0 load(1, XDATA, add(CFA_XSP16, literal(-1)))
          CFI DPL0 load(1, XDATA, add(CFA_XSP16, literal(-2)))
          CFI ?BRET_EXT load(1, XDATA, add(CFA_XSP16, literal(-3)))
          CFI ?RET_HIGH load(1, XDATA, add(CFA_XSP16, literal(-4)))
          CFI ?RET_LOW load(1, XDATA, add(CFA_XSP16, literal(-5)))
          CFI R7 load(1, XDATA, add(CFA_XSP16, literal(-6)))
          CFI V0 load(1, XDATA, add(CFA_XSP16, literal(-7)))
          CFI VB load(1, XDATA, add(CFA_XSP16, literal(-8)))
          CFI R6 load(1, XDATA, add(CFA_XSP16, literal(-9)))
          CFI CFA_SP SP+0
          CFI CFA_XSP16 add(XSP16, 9)
        ; Saved register size: 9
        ; Auto size: 0
        MOV       A,R1
//  429   // Save our own Task ID
//  430   touchLinkInitiator_TaskID = task_id;
        MOV       DPTR,#touchLinkInitiator_TaskID
        MOVX      @DPTR,A
//  431 
//  432   touchLink_SetTouchLinkTaskId( touchLinkInitiator_TaskID );
        ; Setup parameters for call to function touchLink_SetTouchLinkTaskId
        LCALL     `??touchLink_SetTouchLinkTaskId::?relay`; Banked call to: touchLink_SetTouchLinkTaskId
//  433 
//  434 
//  435   // Build a broadcast address for the Scan Request
//  436   bcastAddr.addrMode = afAddrBroadcast;
        MOV       DPTR,#bcastAddr + 8
        MOV       A,#0xf
        MOVX      @DPTR,A
//  437   bcastAddr.addr.shortAddr = NWK_BROADCAST_SHORTADDR_DEVALL;
        MOV       DPTR,#bcastAddr
        MOV       A,#-0x1
        MOVX      @DPTR,A
        INC       DPTR
        MOVX      @DPTR,A
//  438   bcastAddr.panId = 0xFFFF;
        MOV       DPTR,#bcastAddr + 10
        MOVX      @DPTR,A
        INC       DPTR
        MOVX      @DPTR,A
//  439   bcastAddr.endPoint = STUBAPS_INTER_PAN_EP;
        MOV       DPTR,#bcastAddr + 9
        DEC       A
        MOVX      @DPTR,A
//  440 
//  441   // Initialize TOUCHLINK common variables
//  442   touchLink_InitVariables( TRUE );
        ; Setup parameters for call to function touchLink_InitVariables
        MOV       R1,#0x1
        LCALL     `??touchLink_InitVariables::?relay`; Banked call to: touchLink_InitVariables
//  443 
//  444   savedPollRate = POLL_RATE;
        MOV       DPTR,#savedPollRate
        MOV       A,#-0x18
        MOVX      @DPTR,A
        INC       DPTR
        MOV       A,#0x3
        MOVX      @DPTR,A
//  445   savedQueuedPollRate = QUEUED_POLL_RATE;
        MOV       DPTR,#savedQueuedPollRate
        MOV       A,#0x64
        MOVX      @DPTR,A
        INC       DPTR
        CLR       A
        MOVX      @DPTR,A
//  446   savedResponsePollRate = RESPONSE_POLL_RATE;
        MOV       DPTR,#savedResponsePollRate
        MOV       A,#0x64
        MOVX      @DPTR,A
        INC       DPTR
        CLR       A
        LCALL     ?Subroutine29 & 0xFFFF
//  447 
//  448   numScanReqSent = 0;
//  449   initiatorClearSelectedTarget();
//  450   scanReqChannels = TOUCHLINK_SCAN_PRIMARY_CHANNELS;
??CrossCallReturnLabel_29:
        MOV       DPTR,#scanReqChannels
        MOV       A,#0x1
        MOVX      @DPTR,A
//  451 
//  452   initiatorSeqNum = 0;
        MOV       DPTR,#initiatorSeqNum
        CLR       A
        MOVX      @DPTR,A
//  453 
//  454   // Register to receive the unprocessed Foundation command/response messages
//  455   zcl_registerForMsg( touchLinkInitiator_TaskID );
        ; Setup parameters for call to function zcl_registerForMsg
        MOV       DPTR,#touchLinkInitiator_TaskID
        MOVX      A,@DPTR
        MOV       R1,A
        LCALL     `??zcl_registerForMsg::?relay`; Banked call to: zcl_registerForMsg
//  456 
//  457   // Register for TOUCHLINK Initiator callbacks (for Inter-PAN commands)
//  458   bdbTL_RegisterInterPANCmdCallbacks( &touchLinkInitiator_CmdCBs );
        ; Setup parameters for call to function bdbTL_RegisterInterPANCmdCallbacks
        MOV       R2,#touchLinkInitiator_CmdCBs & 0xff
        MOV       R3,#(touchLinkInitiator_CmdCBs >> 8) & 0xff
        LCALL     `??bdbTL_RegisterInterPANCmdCallbacks::?relay`; Banked call to: bdbTL_RegisterInterPANCmdCallbacks
//  459 
//  460   // Register for Initiator to receive Leave Confirm
//  461   ZDO_RegisterForZdoCB( ZDO_LEAVE_CNF_CBID, initiatorZdoLeaveCnfCB );
        ; Setup parameters for call to function ZDO_RegisterForZdoCB
        MOV       R2,#`??initiatorZdoLeaveCnfCB::?relay` & 0xff
        MOV       R3,#(`??initiatorZdoLeaveCnfCB::?relay` >> 8) & 0xff
        MOV       R1,#0x5
        LCALL     `??ZDO_RegisterForZdoCB::?relay`; Banked call to: ZDO_RegisterForZdoCB
//  462 
//  463 #if (ZSTACK_ROUTER_BUILD)
//  464   // Register to process ZDO messages
//  465   ZDO_RegisterForZDOMsg( touchLinkInitiator_TaskID, Mgmt_Permit_Join_req );
        ; Setup parameters for call to function ZDO_RegisterForZDOMsg
        MOV       R2,#0x36
        MOV       R3,#0x0
        MOV       DPTR,#touchLinkInitiator_TaskID
        MOVX      A,@DPTR
        MOV       R1,A
        LCALL     `??ZDO_RegisterForZDOMsg::?relay`; Banked call to: ZDO_RegisterForZDOMsg
//  466   ZDO_RegisterForZDOMsg( touchLinkInitiator_TaskID, Device_annce );
        ; Setup parameters for call to function ZDO_RegisterForZDOMsg
        MOV       R2,#0x13
        MOV       R3,#0x0
        MOV       DPTR,#touchLinkInitiator_TaskID
        MOVX      A,@DPTR
        MOV       R1,A
        LCALL     `??ZDO_RegisterForZDOMsg::?relay`; Banked call to: ZDO_RegisterForZDOMsg
//  467 #endif
//  468 
//  469 }
        LJMP      ??Subroutine54_0 & 0xFFFF
          CFI EndBlock cfiBlock18

        RSEG BANKED_CODE:HUGECODE:NOROOT(0)
?Subroutine29:
          CFI Block cfiCond19 Using cfiCommon0
          CFI Function touchLinkInitiator_AbortTL
          CFI Conditional ??CrossCallReturnLabel_28
          CFI DPL0 Frame(CFA_SP, 4)
          CFI DPH0 Frame(CFA_SP, 5)
          CFI CFA_SP SP+-7
          CFI Block cfiCond20 Using cfiCommon0
          CFI (cfiCond20) Function touchLinkInitiator_Init
          CFI (cfiCond20) Conditional ??CrossCallReturnLabel_29
          CFI (cfiCond20) R6 load(1, XDATA, add(CFA_XSP16, literal(-9)))
          CFI (cfiCond20) VB load(1, XDATA, add(CFA_XSP16, literal(-8)))
          CFI (cfiCond20) V0 load(1, XDATA, add(CFA_XSP16, literal(-7)))
          CFI (cfiCond20) R7 load(1, XDATA, add(CFA_XSP16, literal(-6)))
          CFI (cfiCond20) ?RET_LOW load(1, XDATA, add(CFA_XSP16, literal(-5)))
          CFI (cfiCond20) ?RET_HIGH load(1, XDATA, add(CFA_XSP16, literal(-4)))
          CFI (cfiCond20) ?BRET_EXT load(1, XDATA, add(CFA_XSP16, literal(-3)))
          CFI (cfiCond20) DPL0 load(1, XDATA, add(CFA_XSP16, literal(-2)))
          CFI (cfiCond20) DPH0 load(1, XDATA, add(CFA_XSP16, literal(-1)))
          CFI (cfiCond20) CFA_SP SP+-2
          CFI (cfiCond20) CFA_XSP16 add(XSP16, 9)
          CFI Block cfiPicker21 Using cfiCommon1
          CFI (cfiPicker21) NoFunction
          CFI (cfiPicker21) Picker
        MOVX      @DPTR,A
        MOV       DPTR,#numScanReqSent
        MOVX      @DPTR,A
        ; Setup parameters for call to function initiatorClearSelectedTarget
        ; Setup parameters for call to function initiatorClearSelectedTarget
        LCALL     `??initiatorClearSelectedTarget::?relay`; Banked call to: initiatorClearSelectedTarget
        RET
          CFI EndBlock cfiCond19
          CFI EndBlock cfiCond20
          CFI EndBlock cfiPicker21
//  470 
//  471 /*********************************************************************
//  472  * @fn      initiatorSelectNwkParams
//  473  *
//  474  * @brief   Select a unique PAN ID and Extended PAN ID when compared to
//  475  *          the PAN IDs and Extended PAN IDs of the networks detected
//  476  *          on the TOUCHLINK channels. The selected Extended PAN ID must be
//  477  *          a random number (and not equal to our IEEE address).
//  478  *
//  479  * @param   void
//  480  *
//  481  * @return  void
//  482  */

        RSEG BANKED_CODE:HUGECODE:NOROOT(0)
//  483 void initiatorSelectNwkParams( void )
initiatorSelectNwkParams:
          CFI Block cfiBlock22 Using cfiCommon0
          CFI Function initiatorSelectNwkParams
        CODE
//  484 {
        FUNCALL initiatorSelectNwkParams, touchLink_GetNumGrpIDs
        LOCFRAME ISTACK, 2, STACK
        LOCFRAME PSTACK, 0, STACK
        LOCFRAME XSTACK, 0, STACK
        LOCFRAME IOVERLAY, 0, STATIC
        LOCFRAME DOVERLAY, 0, STATIC
        ARGFRAME ISTACK, 2, STACK
        ARGFRAME PSTACK, 0, STACK
        ARGFRAME XSTACK, 0, STACK
        ARGFRAME IOVERLAY, 0, STATIC
        ARGFRAME DOVERLAY, 0, STATIC
        FUNCALL initiatorSelectNwkParams, touchLink_PopGrpIDRange
        LOCFRAME ISTACK, 2, STACK
        LOCFRAME PSTACK, 0, STACK
        LOCFRAME XSTACK, 0, STACK
        LOCFRAME IOVERLAY, 0, STATIC
        LOCFRAME DOVERLAY, 0, STATIC
        ARGFRAME ISTACK, 2, STACK
        ARGFRAME PSTACK, 0, STACK
        ARGFRAME XSTACK, 0, STACK
        ARGFRAME IOVERLAY, 0, STATIC
        ARGFRAME DOVERLAY, 0, STATIC
        FUNCALL initiatorSelectNwkParams, touchLink_GenerateRandNum
        LOCFRAME ISTACK, 2, STACK
        LOCFRAME PSTACK, 0, STACK
        LOCFRAME XSTACK, 0, STACK
        LOCFRAME IOVERLAY, 0, STATIC
        LOCFRAME DOVERLAY, 0, STATIC
        ARGFRAME ISTACK, 2, STACK
        ARGFRAME PSTACK, 0, STACK
        ARGFRAME XSTACK, 0, STACK
        ARGFRAME IOVERLAY, 0, STATIC
        ARGFRAME DOVERLAY, 0, STATIC
        FUNCALL initiatorSelectNwkParams, osal_rand
        LOCFRAME ISTACK, 2, STACK
        LOCFRAME PSTACK, 0, STACK
        LOCFRAME XSTACK, 0, STACK
        LOCFRAME IOVERLAY, 0, STATIC
        LOCFRAME DOVERLAY, 0, STATIC
        ARGFRAME ISTACK, 2, STACK
        ARGFRAME PSTACK, 0, STACK
        ARGFRAME XSTACK, 0, STACK
        ARGFRAME IOVERLAY, 0, STATIC
        ARGFRAME DOVERLAY, 0, STATIC
        FUNCALL initiatorSelectNwkParams, touchLink_GetRandPrimaryChannel
        LOCFRAME ISTACK, 2, STACK
        LOCFRAME PSTACK, 0, STACK
        LOCFRAME XSTACK, 0, STACK
        LOCFRAME IOVERLAY, 0, STATIC
        LOCFRAME DOVERLAY, 0, STATIC
        ARGFRAME ISTACK, 2, STACK
        ARGFRAME PSTACK, 0, STACK
        ARGFRAME XSTACK, 0, STACK
        ARGFRAME IOVERLAY, 0, STATIC
        ARGFRAME DOVERLAY, 0, STATIC
        FUNCALL initiatorSelectNwkParams, touchLink_PopNwkAddress
        LOCFRAME ISTACK, 2, STACK
        LOCFRAME PSTACK, 0, STACK
        LOCFRAME XSTACK, 0, STACK
        LOCFRAME IOVERLAY, 0, STATIC
        LOCFRAME DOVERLAY, 0, STATIC
        ARGFRAME ISTACK, 2, STACK
        ARGFRAME PSTACK, 0, STACK
        ARGFRAME XSTACK, 0, STACK
        ARGFRAME IOVERLAY, 0, STATIC
        ARGFRAME DOVERLAY, 0, STATIC
        FUNCALL initiatorSelectNwkParams, touchLink_SetMacNwkParams
        LOCFRAME ISTACK, 2, STACK
        LOCFRAME PSTACK, 0, STACK
        LOCFRAME XSTACK, 0, STACK
        LOCFRAME IOVERLAY, 0, STATIC
        LOCFRAME DOVERLAY, 0, STATIC
        ARGFRAME ISTACK, 2, STACK
        ARGFRAME PSTACK, 0, STACK
        ARGFRAME XSTACK, 0, STACK
        ARGFRAME IOVERLAY, 0, STATIC
        ARGFRAME DOVERLAY, 0, STATIC
        PUSH      DPL
          CFI DPL0 Frame(CFA_SP, 4)
          CFI CFA_SP SP+-4
        PUSH      DPH
          CFI DPH0 Frame(CFA_SP, 5)
          CFI CFA_SP SP+-5
        ; Saved register size: 2
        ; Auto size: 0
//  485   // Set our group ID range
//  486   touchLink_PopGrpIDRange( touchLink_GetNumGrpIDs(), &touchLinkGrpIDsBegin, &touchLinkGrpIDsEnd );
        ; Setup parameters for call to function touchLink_GetNumGrpIDs
        LCALL     `??touchLink_GetNumGrpIDs::?relay`; Banked call to: touchLink_GetNumGrpIDs
        MOV       A,R1
        MOV       R1,A
        ; Setup parameters for call to function touchLink_PopGrpIDRange
        MOV       R4,#touchLinkGrpIDsEnd & 0xff
        MOV       R5,#(touchLinkGrpIDsEnd >> 8) & 0xff
        MOV       R2,#touchLinkGrpIDsBegin & 0xff
        MOV       R3,#(touchLinkGrpIDsBegin >> 8) & 0xff
        LCALL     `??touchLink_PopGrpIDRange::?relay`; Banked call to: touchLink_PopGrpIDRange
//  487 
//  488   // Select a random Extended PAN ID
//  489   touchLink_GenerateRandNum( _NIB.extendedPANID, Z_EXTADDR_LEN );
        ; Setup parameters for call to function touchLink_GenerateRandNum
        MOV       R1,#0x8
        MOV       R2,#(_NIB + 53) & 0xff
        MOV       R3,#((_NIB + 53) >> 8) & 0xff
        LCALL     `??touchLink_GenerateRandNum::?relay`; Banked call to: touchLink_GenerateRandNum
//  490 
//  491   // Select a random PAN ID
//  492   _NIB.nwkPanId = osal_rand();
        ; Setup parameters for call to function osal_rand
        LCALL     `??osal_rand::?relay`; Banked call to: osal_rand
        MOV       DPTR,#_NIB + 33
        LCALL     ?Subroutine26 & 0xFFFF
//  493 
//  494   if ( _NIB.nwkLogicalChannel == 0 )
??CrossCallReturnLabel_76:
        MOV       DPTR,#_NIB + 22
        MOVX      A,@DPTR
        JNZ       ??initiatorSelectNwkParams_0
//  495   {
//  496     if (TOUCHLINK_FIXED_CHANNEL_ENABLE == TRUE )
//  497     {
//  498       // Use the fixed channel defined in bdb_interface
//  499       _NIB.nwkLogicalChannel = TOUCHLINK_FIXED_CHANNEL;
//  500     }
//  501     else
//  502     {
//  503       // Select randomly one of the TouchLink channels as our logical channel
//  504       _NIB.nwkLogicalChannel = touchLink_GetRandPrimaryChannel( );
        ; Setup parameters for call to function touchLink_GetRandPrimaryChannel
        LCALL     `??touchLink_GetRandPrimaryChannel::?relay`; Banked call to: touchLink_GetRandPrimaryChannel
        MOV       A,R1
        MOV       DPTR,#_NIB + 22
        MOVX      @DPTR,A
//  505     }
//  506   }
//  507   
//  508   selectedTargetNwkAddr = 0;
??initiatorSelectNwkParams_0:
        MOV       DPTR,#selectedTargetNwkAddr
        CLR       A
        MOVX      @DPTR,A
        INC       DPTR
        MOVX      @DPTR,A
//  509 
//  510   if ( devState != DEV_INIT )
        MOV       DPTR,#devState
        MOVX      A,@DPTR
        XRL       A,#0x1
        JZ        ??CrossCallReturnLabel_77
//  511   {
//  512     // Let's assume we're the first initiator
//  513     _NIB.nwkDevAddress = touchLink_PopNwkAddress();
        ; Setup parameters for call to function touchLink_PopNwkAddress
        LCALL     `??touchLink_PopNwkAddress::?relay`; Banked call to: touchLink_PopNwkAddress
        MOV       DPTR,#_NIB + 20
        LCALL     ?Subroutine26 & 0xFFFF
//  514   }
//  515 
//  516   // Configure MAC with our network parameters
//  517   touchLink_SetMacNwkParams( _NIB.nwkDevAddress, _NIB.nwkPanId, _NIB.nwkLogicalChannel );
??CrossCallReturnLabel_77:
        ; Setup parameters for call to function touchLink_SetMacNwkParams
        LCALL     ?Subroutine9 & 0xFFFF
//  518 }
??CrossCallReturnLabel_0:
        LJMP      ??Subroutine46_0 & 0xFFFF
          CFI EndBlock cfiBlock22
//  519 
//  520 /*********************************************************************
//  521  * @fn      touchLinkInitiator_RegisterForMsg
//  522  *
//  523  * @brief   Register application task to receive unprocessed messages
//  524  *          received by the initiator endpoint.
//  525  *
//  526  * @param   taskId - task Id of the Application where commands will be sent to
//  527  *
//  528  * @return  ZSuccess if task registration successful
//  529  *********************************************************************/

        RSEG BANKED_CODE:HUGECODE:NOROOT(0)
//  530 ZStatus_t touchLinkInitiator_RegisterForMsg( uint8 taskId )
touchLinkInitiator_RegisterForMsg:
          CFI Block cfiBlock23 Using cfiCommon0
          CFI Function touchLinkInitiator_RegisterForMsg
        CODE
//  531 {
        PUSH      DPL
          CFI DPL0 Frame(CFA_SP, 4)
          CFI CFA_SP SP+-4
        PUSH      DPH
          CFI DPH0 Frame(CFA_SP, 5)
          CFI CFA_SP SP+-5
        ; Saved register size: 2
        ; Auto size: 0
//  532   if ( initiatorRegisteredMsgAppTaskID == TASK_NO_TASK )
        MOV       DPTR,#initiatorRegisteredMsgAppTaskID
        MOVX      A,@DPTR
        CPL       A
        JNZ       ??touchLinkInitiator_RegisterForMsg_0
//  533   {
//  534     initiatorRegisteredMsgAppTaskID = taskId;
        MOV       A,R1
        MOVX      @DPTR,A
//  535     return ( ZSuccess );
        MOV       R1,#0x0
        SJMP      ??touchLinkInitiator_RegisterForMsg_1
//  536   }
//  537   return ( ZFailure );
??touchLinkInitiator_RegisterForMsg_0:
        MOV       R1,#0x1
??touchLinkInitiator_RegisterForMsg_1:
        LJMP      ??Subroutine46_0 & 0xFFFF
//  538 }
          CFI EndBlock cfiBlock23
//  539 
//  540 /*********************************************************************
//  541  * @fn          touchLinkInitiator_event_loop
//  542  *
//  543  * @brief       Event Loop Processor for TOUCHLINK Initiator.
//  544  *
//  545  * @param       task_id - task id
//  546  * @param       events - event bitmap
//  547  *
//  548  * @return      unprocessed events
//  549  */

        RSEG BANKED_CODE:HUGECODE:NOROOT(0)
//  550 uint16 touchLinkInitiator_event_loop( uint8 task_id, uint16 events )
touchLinkInitiator_event_loop:
          CFI Block cfiBlock24 Using cfiCommon0
          CFI Function touchLinkInitiator_event_loop
        CODE
//  551 {
        FUNCALL touchLinkInitiator_event_loop, osal_msg_receive
        LOCFRAME ISTACK, 0, STACK
        LOCFRAME PSTACK, 0, STACK
        LOCFRAME XSTACK, 75, STACK
        LOCFRAME IOVERLAY, 0, STATIC
        LOCFRAME DOVERLAY, 0, STATIC
        ARGFRAME ISTACK, 0, STACK
        ARGFRAME PSTACK, 0, STACK
        ARGFRAME XSTACK, 75, STACK
        ARGFRAME IOVERLAY, 0, STATIC
        ARGFRAME DOVERLAY, 0, STATIC
        FUNCALL touchLinkInitiator_event_loop, touchLink_RouterProcessZDOMsg
        LOCFRAME ISTACK, 0, STACK
        LOCFRAME PSTACK, 0, STACK
        LOCFRAME XSTACK, 75, STACK
        LOCFRAME IOVERLAY, 0, STATIC
        LOCFRAME DOVERLAY, 0, STATIC
        ARGFRAME ISTACK, 0, STACK
        ARGFRAME PSTACK, 0, STACK
        ARGFRAME XSTACK, 75, STACK
        ARGFRAME IOVERLAY, 0, STATIC
        ARGFRAME DOVERLAY, 0, STATIC
        FUNCALL touchLinkInitiator_event_loop, osal_msg_deallocate
        LOCFRAME ISTACK, 0, STACK
        LOCFRAME PSTACK, 0, STACK
        LOCFRAME XSTACK, 75, STACK
        LOCFRAME IOVERLAY, 0, STATIC
        LOCFRAME DOVERLAY, 0, STATIC
        ARGFRAME ISTACK, 0, STACK
        ARGFRAME PSTACK, 0, STACK
        ARGFRAME XSTACK, 75, STACK
        ARGFRAME IOVERLAY, 0, STATIC
        ARGFRAME DOVERLAY, 0, STATIC
        FUNCALL touchLinkInitiator_event_loop, initiatorProcessStateChange
        LOCFRAME ISTACK, 0, STACK
        LOCFRAME PSTACK, 0, STACK
        LOCFRAME XSTACK, 75, STACK
        LOCFRAME IOVERLAY, 0, STATIC
        LOCFRAME DOVERLAY, 0, STATIC
        ARGFRAME ISTACK, 0, STACK
        ARGFRAME PSTACK, 0, STACK
        ARGFRAME XSTACK, 75, STACK
        ARGFRAME IOVERLAY, 0, STATIC
        ARGFRAME DOVERLAY, 0, STATIC
        FUNCALL touchLinkInitiator_event_loop, osal_msg_send
        LOCFRAME ISTACK, 0, STACK
        LOCFRAME PSTACK, 0, STACK
        LOCFRAME XSTACK, 75, STACK
        LOCFRAME IOVERLAY, 0, STATIC
        LOCFRAME DOVERLAY, 0, STATIC
        ARGFRAME ISTACK, 0, STACK
        ARGFRAME PSTACK, 0, STACK
        ARGFRAME XSTACK, 75, STACK
        ARGFRAME IOVERLAY, 0, STATIC
        ARGFRAME DOVERLAY, 0, STATIC
        FUNCALL touchLinkInitiator_event_loop, initiatorSendScanReq
        LOCFRAME ISTACK, 0, STACK
        LOCFRAME PSTACK, 0, STACK
        LOCFRAME XSTACK, 75, STACK
        LOCFRAME IOVERLAY, 0, STATIC
        LOCFRAME DOVERLAY, 0, STATIC
        ARGFRAME ISTACK, 0, STACK
        ARGFRAME PSTACK, 0, STACK
        ARGFRAME XSTACK, 75, STACK
        ARGFRAME IOVERLAY, 0, STATIC
        ARGFRAME DOVERLAY, 0, STATIC
        FUNCALL touchLinkInitiator_event_loop, initiatorSendScanReq
        LOCFRAME ISTACK, 0, STACK
        LOCFRAME PSTACK, 0, STACK
        LOCFRAME XSTACK, 75, STACK
        LOCFRAME IOVERLAY, 0, STATIC
        LOCFRAME DOVERLAY, 0, STATIC
        ARGFRAME ISTACK, 0, STACK
        ARGFRAME PSTACK, 0, STACK
        ARGFRAME XSTACK, 75, STACK
        ARGFRAME IOVERLAY, 0, STATIC
        ARGFRAME DOVERLAY, 0, STATIC
        FUNCALL touchLinkInitiator_event_loop, touchLink_SetChannel
        LOCFRAME ISTACK, 0, STACK
        LOCFRAME PSTACK, 0, STACK
        LOCFRAME XSTACK, 75, STACK
        LOCFRAME IOVERLAY, 0, STATIC
        LOCFRAME DOVERLAY, 0, STATIC
        ARGFRAME ISTACK, 0, STACK
        ARGFRAME PSTACK, 0, STACK
        ARGFRAME XSTACK, 75, STACK
        ARGFRAME IOVERLAY, 0, STATIC
        ARGFRAME DOVERLAY, 0, STATIC
        FUNCALL touchLinkInitiator_event_loop, osal_set_event
        LOCFRAME ISTACK, 0, STACK
        LOCFRAME PSTACK, 0, STACK
        LOCFRAME XSTACK, 75, STACK
        LOCFRAME IOVERLAY, 0, STATIC
        LOCFRAME DOVERLAY, 0, STATIC
        ARGFRAME ISTACK, 0, STACK
        ARGFRAME PSTACK, 0, STACK
        ARGFRAME XSTACK, 75, STACK
        ARGFRAME IOVERLAY, 0, STATIC
        ARGFRAME DOVERLAY, 0, STATIC
        FUNCALL touchLinkInitiator_event_loop, bdbTL_Send_IndentifyReq
        LOCFRAME ISTACK, 0, STACK
        LOCFRAME PSTACK, 0, STACK
        LOCFRAME XSTACK, 76, STACK
        LOCFRAME IOVERLAY, 0, STATIC
        LOCFRAME DOVERLAY, 0, STATIC
        ARGFRAME ISTACK, 0, STACK
        ARGFRAME PSTACK, 0, STACK
        ARGFRAME XSTACK, 76, STACK
        ARGFRAME IOVERLAY, 0, STATIC
        ARGFRAME DOVERLAY, 0, STATIC
        FUNCALL touchLinkInitiator_event_loop, osal_set_event
        LOCFRAME ISTACK, 0, STACK
        LOCFRAME PSTACK, 0, STACK
        LOCFRAME XSTACK, 75, STACK
        LOCFRAME IOVERLAY, 0, STATIC
        LOCFRAME DOVERLAY, 0, STATIC
        ARGFRAME ISTACK, 0, STACK
        ARGFRAME PSTACK, 0, STACK
        ARGFRAME XSTACK, 75, STACK
        ARGFRAME IOVERLAY, 0, STATIC
        ARGFRAME DOVERLAY, 0, STATIC
        FUNCALL touchLinkInitiator_event_loop, osal_start_timerEx
        LOCFRAME ISTACK, 0, STACK
        LOCFRAME PSTACK, 0, STACK
        LOCFRAME XSTACK, 79, STACK
        LOCFRAME IOVERLAY, 0, STATIC
        LOCFRAME DOVERLAY, 0, STATIC
        ARGFRAME ISTACK, 0, STACK
        ARGFRAME PSTACK, 0, STACK
        ARGFRAME XSTACK, 79, STACK
        ARGFRAME IOVERLAY, 0, STATIC
        ARGFRAME DOVERLAY, 0, STATIC
        FUNCALL touchLinkInitiator_event_loop, osal_set_event
        LOCFRAME ISTACK, 0, STACK
        LOCFRAME PSTACK, 0, STACK
        LOCFRAME XSTACK, 75, STACK
        LOCFRAME IOVERLAY, 0, STATIC
        LOCFRAME DOVERLAY, 0, STATIC
        ARGFRAME ISTACK, 0, STACK
        ARGFRAME PSTACK, 0, STACK
        ARGFRAME XSTACK, 75, STACK
        ARGFRAME IOVERLAY, 0, STATIC
        ARGFRAME DOVERLAY, 0, STATIC
        FUNCALL touchLinkInitiator_event_loop, bdb_reportCommissioningState
        LOCFRAME ISTACK, 0, STACK
        LOCFRAME PSTACK, 0, STACK
        LOCFRAME XSTACK, 75, STACK
        LOCFRAME IOVERLAY, 0, STATIC
        LOCFRAME DOVERLAY, 0, STATIC
        ARGFRAME ISTACK, 0, STACK
        ARGFRAME PSTACK, 0, STACK
        ARGFRAME XSTACK, 75, STACK
        ARGFRAME IOVERLAY, 0, STATIC
        ARGFRAME DOVERLAY, 0, STATIC
        FUNCALL touchLinkInitiator_event_loop, bdbTL_Send_IndentifyReq
        LOCFRAME ISTACK, 0, STACK
        LOCFRAME PSTACK, 0, STACK
        LOCFRAME XSTACK, 76, STACK
        LOCFRAME IOVERLAY, 0, STATIC
        LOCFRAME DOVERLAY, 0, STATIC
        ARGFRAME ISTACK, 0, STACK
        ARGFRAME PSTACK, 0, STACK
        ARGFRAME XSTACK, 76, STACK
        ARGFRAME IOVERLAY, 0, STATIC
        ARGFRAME DOVERLAY, 0, STATIC
        FUNCALL touchLinkInitiator_event_loop, sAddrExtCmp
        LOCFRAME ISTACK, 0, STACK
        LOCFRAME PSTACK, 0, STACK
        LOCFRAME XSTACK, 75, STACK
        LOCFRAME IOVERLAY, 0, STATIC
        LOCFRAME DOVERLAY, 0, STATIC
        ARGFRAME ISTACK, 0, STACK
        ARGFRAME PSTACK, 0, STACK
        ARGFRAME XSTACK, 75, STACK
        ARGFRAME IOVERLAY, 0, STATIC
        ARGFRAME DOVERLAY, 0, STATIC
        FUNCALL touchLinkInitiator_event_loop, APSME_GetRequest
        LOCFRAME ISTACK, 0, STACK
        LOCFRAME PSTACK, 0, STACK
        LOCFRAME XSTACK, 75, STACK
        LOCFRAME IOVERLAY, 0, STATIC
        LOCFRAME DOVERLAY, 0, STATIC
        ARGFRAME ISTACK, 0, STACK
        ARGFRAME PSTACK, 0, STACK
        ARGFRAME XSTACK, 75, STACK
        ARGFRAME IOVERLAY, 0, STATIC
        ARGFRAME DOVERLAY, 0, STATIC
        FUNCALL touchLinkInitiator_event_loop, sAddrExtCmp
        LOCFRAME ISTACK, 0, STACK
        LOCFRAME PSTACK, 0, STACK
        LOCFRAME XSTACK, 75, STACK
        LOCFRAME IOVERLAY, 0, STATIC
        LOCFRAME DOVERLAY, 0, STATIC
        ARGFRAME ISTACK, 0, STACK
        ARGFRAME PSTACK, 0, STACK
        ARGFRAME XSTACK, 75, STACK
        ARGFRAME IOVERLAY, 0, STATIC
        ARGFRAME DOVERLAY, 0, STATIC
        FUNCALL touchLinkInitiator_event_loop, bdb_reportCommissioningState
        LOCFRAME ISTACK, 0, STACK
        LOCFRAME PSTACK, 0, STACK
        LOCFRAME XSTACK, 75, STACK
        LOCFRAME IOVERLAY, 0, STATIC
        LOCFRAME DOVERLAY, 0, STATIC
        ARGFRAME ISTACK, 0, STACK
        ARGFRAME PSTACK, 0, STACK
        ARGFRAME XSTACK, 75, STACK
        ARGFRAME IOVERLAY, 0, STATIC
        ARGFRAME DOVERLAY, 0, STATIC
        FUNCALL touchLinkInitiator_event_loop, touchLink_IsValidSplitFreeRanges
        LOCFRAME ISTACK, 0, STACK
        LOCFRAME PSTACK, 0, STACK
        LOCFRAME XSTACK, 75, STACK
        LOCFRAME IOVERLAY, 0, STATIC
        LOCFRAME DOVERLAY, 0, STATIC
        ARGFRAME ISTACK, 0, STACK
        ARGFRAME PSTACK, 0, STACK
        ARGFRAME XSTACK, 75, STACK
        ARGFRAME IOVERLAY, 0, STATIC
        ARGFRAME DOVERLAY, 0, STATIC
        FUNCALL touchLinkInitiator_event_loop, bdb_reportCommissioningState
        LOCFRAME ISTACK, 0, STACK
        LOCFRAME PSTACK, 0, STACK
        LOCFRAME XSTACK, 75, STACK
        LOCFRAME IOVERLAY, 0, STATIC
        LOCFRAME DOVERLAY, 0, STATIC
        ARGFRAME ISTACK, 0, STACK
        ARGFRAME PSTACK, 0, STACK
        ARGFRAME XSTACK, 75, STACK
        ARGFRAME IOVERLAY, 0, STATIC
        ARGFRAME DOVERLAY, 0, STATIC
        FUNCALL touchLinkInitiator_event_loop, touchLinkInitiator_ResetToFNSelectedTarget
        LOCFRAME ISTACK, 0, STACK
        LOCFRAME PSTACK, 0, STACK
        LOCFRAME XSTACK, 75, STACK
        LOCFRAME IOVERLAY, 0, STATIC
        LOCFRAME DOVERLAY, 0, STATIC
        ARGFRAME ISTACK, 0, STACK
        ARGFRAME PSTACK, 0, STACK
        ARGFRAME XSTACK, 75, STACK
        ARGFRAME IOVERLAY, 0, STATIC
        ARGFRAME DOVERLAY, 0, STATIC
        FUNCALL touchLinkInitiator_event_loop, osal_set_event
        LOCFRAME ISTACK, 0, STACK
        LOCFRAME PSTACK, 0, STACK
        LOCFRAME XSTACK, 75, STACK
        LOCFRAME IOVERLAY, 0, STATIC
        LOCFRAME DOVERLAY, 0, STATIC
        ARGFRAME ISTACK, 0, STACK
        ARGFRAME PSTACK, 0, STACK
        ARGFRAME XSTACK, 75, STACK
        ARGFRAME IOVERLAY, 0, STATIC
        ARGFRAME DOVERLAY, 0, STATIC
        FUNCALL touchLinkInitiator_event_loop, osal_start_timerEx
        LOCFRAME ISTACK, 0, STACK
        LOCFRAME PSTACK, 0, STACK
        LOCFRAME XSTACK, 79, STACK
        LOCFRAME IOVERLAY, 0, STATIC
        LOCFRAME DOVERLAY, 0, STATIC
        ARGFRAME ISTACK, 0, STACK
        ARGFRAME PSTACK, 0, STACK
        ARGFRAME XSTACK, 79, STACK
        ARGFRAME IOVERLAY, 0, STATIC
        ARGFRAME DOVERLAY, 0, STATIC
        FUNCALL touchLinkInitiator_event_loop, touchLink_SetChannel
        LOCFRAME ISTACK, 0, STACK
        LOCFRAME PSTACK, 0, STACK
        LOCFRAME XSTACK, 75, STACK
        LOCFRAME IOVERLAY, 0, STATIC
        LOCFRAME DOVERLAY, 0, STATIC
        ARGFRAME ISTACK, 0, STACK
        ARGFRAME PSTACK, 0, STACK
        ARGFRAME XSTACK, 75, STACK
        ARGFRAME IOVERLAY, 0, STATIC
        ARGFRAME DOVERLAY, 0, STATIC
        FUNCALL touchLinkInitiator_event_loop, osal_set_event
        LOCFRAME ISTACK, 0, STACK
        LOCFRAME PSTACK, 0, STACK
        LOCFRAME XSTACK, 75, STACK
        LOCFRAME IOVERLAY, 0, STATIC
        LOCFRAME DOVERLAY, 0, STATIC
        ARGFRAME ISTACK, 0, STACK
        ARGFRAME PSTACK, 0, STACK
        ARGFRAME XSTACK, 75, STACK
        ARGFRAME IOVERLAY, 0, STATIC
        ARGFRAME DOVERLAY, 0, STATIC
        FUNCALL touchLinkInitiator_event_loop, nwk_setStateIdle
        LOCFRAME ISTACK, 0, STACK
        LOCFRAME PSTACK, 0, STACK
        LOCFRAME XSTACK, 75, STACK
        LOCFRAME IOVERLAY, 0, STATIC
        LOCFRAME DOVERLAY, 0, STATIC
        ARGFRAME ISTACK, 0, STACK
        ARGFRAME PSTACK, 0, STACK
        ARGFRAME XSTACK, 75, STACK
        ARGFRAME IOVERLAY, 0, STATIC
        ARGFRAME DOVERLAY, 0, STATIC
        FUNCALL touchLinkInitiator_event_loop, touchLink_ProcessNwkUpdate
        LOCFRAME ISTACK, 0, STACK
        LOCFRAME PSTACK, 0, STACK
        LOCFRAME XSTACK, 75, STACK
        LOCFRAME IOVERLAY, 0, STATIC
        LOCFRAME DOVERLAY, 0, STATIC
        ARGFRAME ISTACK, 0, STACK
        ARGFRAME PSTACK, 0, STACK
        ARGFRAME XSTACK, 75, STACK
        ARGFRAME IOVERLAY, 0, STATIC
        ARGFRAME DOVERLAY, 0, STATIC
        FUNCALL touchLinkInitiator_event_loop, osal_mem_alloc
        LOCFRAME ISTACK, 0, STACK
        LOCFRAME PSTACK, 0, STACK
        LOCFRAME XSTACK, 75, STACK
        LOCFRAME IOVERLAY, 0, STATIC
        LOCFRAME DOVERLAY, 0, STATIC
        ARGFRAME ISTACK, 0, STACK
        ARGFRAME PSTACK, 0, STACK
        ARGFRAME XSTACK, 75, STACK
        ARGFRAME IOVERLAY, 0, STATIC
        ARGFRAME DOVERLAY, 0, STATIC
        FUNCALL touchLinkInitiator_event_loop, sAddrExtCpy
        LOCFRAME ISTACK, 0, STACK
        LOCFRAME PSTACK, 0, STACK
        LOCFRAME XSTACK, 75, STACK
        LOCFRAME IOVERLAY, 0, STATIC
        LOCFRAME DOVERLAY, 0, STATIC
        ARGFRAME ISTACK, 0, STACK
        ARGFRAME PSTACK, 0, STACK
        ARGFRAME XSTACK, 75, STACK
        ARGFRAME IOVERLAY, 0, STATIC
        ARGFRAME DOVERLAY, 0, STATIC
        FUNCALL touchLinkInitiator_event_loop, bdbTL_Send_NwkUpdateReq
        LOCFRAME ISTACK, 0, STACK
        LOCFRAME PSTACK, 0, STACK
        LOCFRAME XSTACK, 76, STACK
        LOCFRAME IOVERLAY, 0, STATIC
        LOCFRAME DOVERLAY, 0, STATIC
        ARGFRAME ISTACK, 0, STACK
        ARGFRAME PSTACK, 0, STACK
        ARGFRAME XSTACK, 76, STACK
        ARGFRAME IOVERLAY, 0, STATIC
        ARGFRAME DOVERLAY, 0, STATIC
        FUNCALL touchLinkInitiator_event_loop, osal_mem_free
        LOCFRAME ISTACK, 0, STACK
        LOCFRAME PSTACK, 0, STACK
        LOCFRAME XSTACK, 75, STACK
        LOCFRAME IOVERLAY, 0, STATIC
        LOCFRAME DOVERLAY, 0, STATIC
        ARGFRAME ISTACK, 0, STACK
        ARGFRAME PSTACK, 0, STACK
        ARGFRAME XSTACK, 75, STACK
        ARGFRAME IOVERLAY, 0, STATIC
        ARGFRAME DOVERLAY, 0, STATIC
        FUNCALL touchLinkInitiator_event_loop, osal_set_event
        LOCFRAME ISTACK, 0, STACK
        LOCFRAME PSTACK, 0, STACK
        LOCFRAME XSTACK, 75, STACK
        LOCFRAME IOVERLAY, 0, STATIC
        LOCFRAME DOVERLAY, 0, STATIC
        ARGFRAME ISTACK, 0, STACK
        ARGFRAME PSTACK, 0, STACK
        ARGFRAME XSTACK, 75, STACK
        ARGFRAME IOVERLAY, 0, STATIC
        ARGFRAME DOVERLAY, 0, STATIC
        FUNCALL touchLinkInitiator_event_loop, bdb_reportCommissioningState
        LOCFRAME ISTACK, 0, STACK
        LOCFRAME PSTACK, 0, STACK
        LOCFRAME XSTACK, 75, STACK
        LOCFRAME IOVERLAY, 0, STATIC
        LOCFRAME DOVERLAY, 0, STATIC
        ARGFRAME ISTACK, 0, STACK
        ARGFRAME PSTACK, 0, STACK
        ARGFRAME XSTACK, 75, STACK
        ARGFRAME IOVERLAY, 0, STATIC
        ARGFRAME DOVERLAY, 0, STATIC
        FUNCALL touchLinkInitiator_event_loop, bdb_reportCommissioningState
        LOCFRAME ISTACK, 0, STACK
        LOCFRAME PSTACK, 0, STACK
        LOCFRAME XSTACK, 75, STACK
        LOCFRAME IOVERLAY, 0, STATIC
        LOCFRAME DOVERLAY, 0, STATIC
        ARGFRAME ISTACK, 0, STACK
        ARGFRAME PSTACK, 0, STACK
        ARGFRAME XSTACK, 75, STACK
        ARGFRAME IOVERLAY, 0, STATIC
        ARGFRAME DOVERLAY, 0, STATIC
        FUNCALL touchLinkInitiator_event_loop, nwk_ExtPANIDValid
        LOCFRAME ISTACK, 0, STACK
        LOCFRAME PSTACK, 0, STACK
        LOCFRAME XSTACK, 75, STACK
        LOCFRAME IOVERLAY, 0, STATIC
        LOCFRAME DOVERLAY, 0, STATIC
        ARGFRAME ISTACK, 0, STACK
        ARGFRAME PSTACK, 0, STACK
        ARGFRAME XSTACK, 75, STACK
        ARGFRAME IOVERLAY, 0, STATIC
        ARGFRAME DOVERLAY, 0, STATIC
        FUNCALL touchLinkInitiator_event_loop, touchLink_IsValidTransID
        LOCFRAME ISTACK, 0, STACK
        LOCFRAME PSTACK, 0, STACK
        LOCFRAME XSTACK, 75, STACK
        LOCFRAME IOVERLAY, 0, STATIC
        LOCFRAME DOVERLAY, 0, STATIC
        ARGFRAME ISTACK, 0, STACK
        ARGFRAME PSTACK, 0, STACK
        ARGFRAME XSTACK, 75, STACK
        ARGFRAME IOVERLAY, 0, STATIC
        ARGFRAME DOVERLAY, 0, STATIC
        FUNCALL touchLinkInitiator_event_loop, touchLink_SetNIB
        LOCFRAME ISTACK, 0, STACK
        LOCFRAME PSTACK, 0, STACK
        LOCFRAME XSTACK, 79, STACK
        LOCFRAME IOVERLAY, 0, STATIC
        LOCFRAME DOVERLAY, 0, STATIC
        ARGFRAME ISTACK, 0, STACK
        ARGFRAME PSTACK, 0, STACK
        ARGFRAME XSTACK, 79, STACK
        ARGFRAME IOVERLAY, 0, STATIC
        ARGFRAME DOVERLAY, 0, STATIC
        FUNCALL touchLinkInitiator_event_loop, touchLink_DecryptNwkKey
        LOCFRAME ISTACK, 0, STACK
        LOCFRAME PSTACK, 0, STACK
        LOCFRAME XSTACK, 83, STACK
        LOCFRAME IOVERLAY, 0, STATIC
        LOCFRAME DOVERLAY, 0, STATIC
        ARGFRAME ISTACK, 0, STACK
        ARGFRAME PSTACK, 0, STACK
        ARGFRAME XSTACK, 83, STACK
        ARGFRAME IOVERLAY, 0, STATIC
        ARGFRAME DOVERLAY, 0, STATIC
        FUNCALL touchLinkInitiator_event_loop, ZDSecMgrUpdateTCAddress
        LOCFRAME ISTACK, 0, STACK
        LOCFRAME PSTACK, 0, STACK
        LOCFRAME XSTACK, 75, STACK
        LOCFRAME IOVERLAY, 0, STATIC
        LOCFRAME DOVERLAY, 0, STATIC
        ARGFRAME ISTACK, 0, STACK
        ARGFRAME PSTACK, 0, STACK
        ARGFRAME XSTACK, 75, STACK
        ARGFRAME IOVERLAY, 0, STATIC
        ARGFRAME DOVERLAY, 0, STATIC
        FUNCALL touchLinkInitiator_event_loop, osal_set_event
        LOCFRAME ISTACK, 0, STACK
        LOCFRAME PSTACK, 0, STACK
        LOCFRAME XSTACK, 75, STACK
        LOCFRAME IOVERLAY, 0, STATIC
        LOCFRAME DOVERLAY, 0, STATIC
        ARGFRAME ISTACK, 0, STACK
        ARGFRAME PSTACK, 0, STACK
        ARGFRAME XSTACK, 75, STACK
        ARGFRAME IOVERLAY, 0, STATIC
        ARGFRAME DOVERLAY, 0, STATIC
        FUNCALL touchLinkInitiator_event_loop, osal_start_timerEx
        LOCFRAME ISTACK, 0, STACK
        LOCFRAME PSTACK, 0, STACK
        LOCFRAME XSTACK, 79, STACK
        LOCFRAME IOVERLAY, 0, STATIC
        LOCFRAME DOVERLAY, 0, STATIC
        ARGFRAME ISTACK, 0, STACK
        ARGFRAME PSTACK, 0, STACK
        ARGFRAME XSTACK, 79, STACK
        ARGFRAME IOVERLAY, 0, STATIC
        ARGFRAME DOVERLAY, 0, STATIC
        FUNCALL touchLinkInitiator_event_loop, bdb_reportCommissioningState
        LOCFRAME ISTACK, 0, STACK
        LOCFRAME PSTACK, 0, STACK
        LOCFRAME XSTACK, 75, STACK
        LOCFRAME IOVERLAY, 0, STATIC
        LOCFRAME DOVERLAY, 0, STATIC
        ARGFRAME ISTACK, 0, STACK
        ARGFRAME PSTACK, 0, STACK
        ARGFRAME XSTACK, 75, STACK
        ARGFRAME IOVERLAY, 0, STATIC
        ARGFRAME DOVERLAY, 0, STATIC
        FUNCALL touchLinkInitiator_event_loop, osal_memcpy
        LOCFRAME ISTACK, 0, STACK
        LOCFRAME PSTACK, 0, STACK
        LOCFRAME XSTACK, 78, STACK
        LOCFRAME IOVERLAY, 0, STATIC
        LOCFRAME DOVERLAY, 0, STATIC
        ARGFRAME ISTACK, 0, STACK
        ARGFRAME PSTACK, 0, STACK
        ARGFRAME XSTACK, 78, STACK
        ARGFRAME IOVERLAY, 0, STATIC
        ARGFRAME DOVERLAY, 0, STATIC
        FUNCALL touchLinkInitiator_event_loop, touchLink_DevRejoin
        LOCFRAME ISTACK, 0, STACK
        LOCFRAME PSTACK, 0, STACK
        LOCFRAME XSTACK, 75, STACK
        LOCFRAME IOVERLAY, 0, STATIC
        LOCFRAME DOVERLAY, 0, STATIC
        ARGFRAME ISTACK, 0, STACK
        ARGFRAME PSTACK, 0, STACK
        ARGFRAME XSTACK, 75, STACK
        ARGFRAME IOVERLAY, 0, STATIC
        ARGFRAME DOVERLAY, 0, STATIC
        FUNCALL touchLinkInitiator_event_loop, osal_start_timerEx
        LOCFRAME ISTACK, 0, STACK
        LOCFRAME PSTACK, 0, STACK
        LOCFRAME XSTACK, 79, STACK
        LOCFRAME IOVERLAY, 0, STATIC
        LOCFRAME DOVERLAY, 0, STATIC
        ARGFRAME ISTACK, 0, STACK
        ARGFRAME PSTACK, 0, STACK
        ARGFRAME XSTACK, 79, STACK
        ARGFRAME IOVERLAY, 0, STATIC
        ARGFRAME DOVERLAY, 0, STATIC
        FUNCALL touchLinkInitiator_event_loop, sAddrExtCpy
        LOCFRAME ISTACK, 0, STACK
        LOCFRAME PSTACK, 0, STACK
        LOCFRAME XSTACK, 75, STACK
        LOCFRAME IOVERLAY, 0, STATIC
        LOCFRAME DOVERLAY, 0, STATIC
        ARGFRAME ISTACK, 0, STACK
        ARGFRAME PSTACK, 0, STACK
        ARGFRAME XSTACK, 75, STACK
        ARGFRAME IOVERLAY, 0, STATIC
        ARGFRAME DOVERLAY, 0, STATIC
        FUNCALL touchLinkInitiator_event_loop, AddrMgrEntryUpdate
        LOCFRAME ISTACK, 0, STACK
        LOCFRAME PSTACK, 0, STACK
        LOCFRAME XSTACK, 75, STACK
        LOCFRAME IOVERLAY, 0, STATIC
        LOCFRAME DOVERLAY, 0, STATIC
        ARGFRAME ISTACK, 0, STACK
        ARGFRAME PSTACK, 0, STACK
        ARGFRAME XSTACK, 75, STACK
        ARGFRAME IOVERLAY, 0, STATIC
        ARGFRAME DOVERLAY, 0, STATIC
        FUNCALL touchLinkInitiator_event_loop, osal_start_timerEx
        LOCFRAME ISTACK, 0, STACK
        LOCFRAME PSTACK, 0, STACK
        LOCFRAME XSTACK, 79, STACK
        LOCFRAME IOVERLAY, 0, STATIC
        LOCFRAME DOVERLAY, 0, STATIC
        ARGFRAME ISTACK, 0, STACK
        ARGFRAME PSTACK, 0, STACK
        ARGFRAME XSTACK, 79, STACK
        ARGFRAME IOVERLAY, 0, STATIC
        ARGFRAME DOVERLAY, 0, STATIC
        FUNCALL touchLinkInitiator_event_loop, initiatorSetNwkToInitState
        LOCFRAME ISTACK, 0, STACK
        LOCFRAME PSTACK, 0, STACK
        LOCFRAME XSTACK, 75, STACK
        LOCFRAME IOVERLAY, 0, STATIC
        LOCFRAME DOVERLAY, 0, STATIC
        ARGFRAME ISTACK, 0, STACK
        ARGFRAME PSTACK, 0, STACK
        ARGFRAME XSTACK, 75, STACK
        ARGFRAME IOVERLAY, 0, STATIC
        ARGFRAME DOVERLAY, 0, STATIC
        FUNCALL touchLinkInitiator_event_loop, touchLink_UpdateNV
        LOCFRAME ISTACK, 0, STACK
        LOCFRAME PSTACK, 0, STACK
        LOCFRAME XSTACK, 75, STACK
        LOCFRAME IOVERLAY, 0, STATIC
        LOCFRAME DOVERLAY, 0, STATIC
        ARGFRAME ISTACK, 0, STACK
        ARGFRAME PSTACK, 0, STACK
        ARGFRAME XSTACK, 75, STACK
        ARGFRAME IOVERLAY, 0, STATIC
        ARGFRAME DOVERLAY, 0, STATIC
        FUNCALL touchLinkInitiator_event_loop, touchLink_SendLeaveReq
        LOCFRAME ISTACK, 0, STACK
        LOCFRAME PSTACK, 0, STACK
        LOCFRAME XSTACK, 75, STACK
        LOCFRAME IOVERLAY, 0, STATIC
        LOCFRAME DOVERLAY, 0, STATIC
        ARGFRAME ISTACK, 0, STACK
        ARGFRAME PSTACK, 0, STACK
        ARGFRAME XSTACK, 75, STACK
        ARGFRAME IOVERLAY, 0, STATIC
        ARGFRAME DOVERLAY, 0, STATIC
        FUNCALL touchLinkInitiator_event_loop, bdb_reportCommissioningState
        LOCFRAME ISTACK, 0, STACK
        LOCFRAME PSTACK, 0, STACK
        LOCFRAME XSTACK, 75, STACK
        LOCFRAME IOVERLAY, 0, STATIC
        LOCFRAME DOVERLAY, 0, STATIC
        ARGFRAME ISTACK, 0, STACK
        ARGFRAME PSTACK, 0, STACK
        ARGFRAME XSTACK, 75, STACK
        ARGFRAME IOVERLAY, 0, STATIC
        ARGFRAME DOVERLAY, 0, STATIC
        FUNCALL touchLinkInitiator_event_loop, touchLink_SendLeaveReq
        LOCFRAME ISTACK, 0, STACK
        LOCFRAME PSTACK, 0, STACK
        LOCFRAME XSTACK, 75, STACK
        LOCFRAME IOVERLAY, 0, STATIC
        LOCFRAME DOVERLAY, 0, STATIC
        ARGFRAME ISTACK, 0, STACK
        ARGFRAME PSTACK, 0, STACK
        ARGFRAME XSTACK, 75, STACK
        ARGFRAME IOVERLAY, 0, STATIC
        ARGFRAME DOVERLAY, 0, STATIC
        FUNCALL touchLinkInitiator_event_loop, osal_set_event
        LOCFRAME ISTACK, 0, STACK
        LOCFRAME PSTACK, 0, STACK
        LOCFRAME XSTACK, 75, STACK
        LOCFRAME IOVERLAY, 0, STATIC
        LOCFRAME DOVERLAY, 0, STATIC
        ARGFRAME ISTACK, 0, STACK
        ARGFRAME PSTACK, 0, STACK
        ARGFRAME XSTACK, 75, STACK
        ARGFRAME IOVERLAY, 0, STATIC
        ARGFRAME DOVERLAY, 0, STATIC
        FUNCALL touchLinkInitiator_event_loop, touchLink_UpdateNV
        LOCFRAME ISTACK, 0, STACK
        LOCFRAME PSTACK, 0, STACK
        LOCFRAME XSTACK, 75, STACK
        LOCFRAME IOVERLAY, 0, STATIC
        LOCFRAME DOVERLAY, 0, STATIC
        ARGFRAME ISTACK, 0, STACK
        ARGFRAME PSTACK, 0, STACK
        ARGFRAME XSTACK, 75, STACK
        ARGFRAME IOVERLAY, 0, STATIC
        ARGFRAME DOVERLAY, 0, STATIC
        FUNCALL touchLinkInitiator_event_loop, ZDApp_LeaveCtrlReset
        LOCFRAME ISTACK, 0, STACK
        LOCFRAME PSTACK, 0, STACK
        LOCFRAME XSTACK, 75, STACK
        LOCFRAME IOVERLAY, 0, STATIC
        LOCFRAME DOVERLAY, 0, STATIC
        ARGFRAME ISTACK, 0, STACK
        ARGFRAME PSTACK, 0, STACK
        ARGFRAME XSTACK, 75, STACK
        ARGFRAME IOVERLAY, 0, STATIC
        ARGFRAME DOVERLAY, 0, STATIC
        FUNCALL touchLinkInitiator_event_loop, touchLink_PermitJoin
        LOCFRAME ISTACK, 0, STACK
        LOCFRAME PSTACK, 0, STACK
        LOCFRAME XSTACK, 75, STACK
        LOCFRAME IOVERLAY, 0, STATIC
        LOCFRAME DOVERLAY, 0, STATIC
        ARGFRAME ISTACK, 0, STACK
        ARGFRAME PSTACK, 0, STACK
        ARGFRAME XSTACK, 75, STACK
        ARGFRAME IOVERLAY, 0, STATIC
        ARGFRAME DOVERLAY, 0, STATIC
        FUNCALL touchLinkInitiator_event_loop, ZDOInitDeviceEx
        LOCFRAME ISTACK, 0, STACK
        LOCFRAME PSTACK, 0, STACK
        LOCFRAME XSTACK, 75, STACK
        LOCFRAME IOVERLAY, 0, STATIC
        LOCFRAME DOVERLAY, 0, STATIC
        ARGFRAME ISTACK, 0, STACK
        ARGFRAME PSTACK, 0, STACK
        ARGFRAME XSTACK, 75, STACK
        ARGFRAME IOVERLAY, 0, STATIC
        ARGFRAME DOVERLAY, 0, STATIC
        FUNCALL touchLinkInitiator_event_loop, initiatorReJoinNwk
        LOCFRAME ISTACK, 0, STACK
        LOCFRAME PSTACK, 0, STACK
        LOCFRAME XSTACK, 75, STACK
        LOCFRAME IOVERLAY, 0, STATIC
        LOCFRAME DOVERLAY, 0, STATIC
        ARGFRAME ISTACK, 0, STACK
        ARGFRAME PSTACK, 0, STACK
        ARGFRAME XSTACK, 75, STACK
        ARGFRAME IOVERLAY, 0, STATIC
        ARGFRAME DOVERLAY, 0, STATIC
        FUNCALL touchLinkInitiator_event_loop, touchLink_FreeNwkParamList
        LOCFRAME ISTACK, 0, STACK
        LOCFRAME PSTACK, 0, STACK
        LOCFRAME XSTACK, 75, STACK
        LOCFRAME IOVERLAY, 0, STATIC
        LOCFRAME DOVERLAY, 0, STATIC
        ARGFRAME ISTACK, 0, STACK
        ARGFRAME PSTACK, 0, STACK
        ARGFRAME XSTACK, 75, STACK
        ARGFRAME IOVERLAY, 0, STATIC
        ARGFRAME DOVERLAY, 0, STATIC
        FUNCALL touchLinkInitiator_event_loop, initiatorSetNwkToInitState
        LOCFRAME ISTACK, 0, STACK
        LOCFRAME PSTACK, 0, STACK
        LOCFRAME XSTACK, 75, STACK
        LOCFRAME IOVERLAY, 0, STATIC
        LOCFRAME DOVERLAY, 0, STATIC
        ARGFRAME ISTACK, 0, STACK
        ARGFRAME PSTACK, 0, STACK
        ARGFRAME XSTACK, 75, STACK
        ARGFRAME IOVERLAY, 0, STATIC
        ARGFRAME DOVERLAY, 0, STATIC
        FUNCALL touchLinkInitiator_event_loop, initiatorClearSelectedTarget
        LOCFRAME ISTACK, 0, STACK
        LOCFRAME PSTACK, 0, STACK
        LOCFRAME XSTACK, 75, STACK
        LOCFRAME IOVERLAY, 0, STATIC
        LOCFRAME DOVERLAY, 0, STATIC
        ARGFRAME ISTACK, 0, STACK
        ARGFRAME PSTACK, 0, STACK
        ARGFRAME XSTACK, 75, STACK
        ARGFRAME IOVERLAY, 0, STATIC
        ARGFRAME DOVERLAY, 0, STATIC
        FUNCALL touchLinkInitiator_event_loop, ZDApp_StopJoiningCycle
        LOCFRAME ISTACK, 0, STACK
        LOCFRAME PSTACK, 0, STACK
        LOCFRAME XSTACK, 75, STACK
        LOCFRAME IOVERLAY, 0, STATIC
        LOCFRAME DOVERLAY, 0, STATIC
        ARGFRAME ISTACK, 0, STACK
        ARGFRAME PSTACK, 0, STACK
        ARGFRAME XSTACK, 75, STACK
        ARGFRAME IOVERLAY, 0, STATIC
        ARGFRAME DOVERLAY, 0, STATIC
        FUNCALL touchLinkInitiator_event_loop, NLME_GetExtAddr
        LOCFRAME ISTACK, 0, STACK
        LOCFRAME PSTACK, 0, STACK
        LOCFRAME XSTACK, 75, STACK
        LOCFRAME IOVERLAY, 0, STATIC
        LOCFRAME DOVERLAY, 0, STATIC
        ARGFRAME ISTACK, 0, STACK
        ARGFRAME PSTACK, 0, STACK
        ARGFRAME XSTACK, 75, STACK
        ARGFRAME IOVERLAY, 0, STATIC
        ARGFRAME DOVERLAY, 0, STATIC
        FUNCALL touchLinkInitiator_event_loop, NLME_GetShortAddr
        LOCFRAME ISTACK, 0, STACK
        LOCFRAME PSTACK, 0, STACK
        LOCFRAME XSTACK, 75, STACK
        LOCFRAME IOVERLAY, 0, STATIC
        LOCFRAME DOVERLAY, 0, STATIC
        ARGFRAME ISTACK, 0, STACK
        ARGFRAME PSTACK, 0, STACK
        ARGFRAME XSTACK, 75, STACK
        ARGFRAME IOVERLAY, 0, STATIC
        ARGFRAME DOVERLAY, 0, STATIC
        FUNCALL touchLinkInitiator_event_loop, ZDP_DeviceAnnce
        LOCFRAME ISTACK, 0, STACK
        LOCFRAME PSTACK, 0, STACK
        LOCFRAME XSTACK, 76, STACK
        LOCFRAME IOVERLAY, 0, STATIC
        LOCFRAME DOVERLAY, 0, STATIC
        ARGFRAME ISTACK, 0, STACK
        ARGFRAME PSTACK, 0, STACK
        ARGFRAME XSTACK, 76, STACK
        ARGFRAME IOVERLAY, 0, STATIC
        ARGFRAME DOVERLAY, 0, STATIC
        FUNCALL touchLinkInitiator_event_loop, osal_nv_write
        LOCFRAME ISTACK, 0, STACK
        LOCFRAME PSTACK, 0, STACK
        LOCFRAME XSTACK, 79, STACK
        LOCFRAME IOVERLAY, 0, STATIC
        LOCFRAME DOVERLAY, 0, STATIC
        ARGFRAME ISTACK, 0, STACK
        ARGFRAME PSTACK, 0, STACK
        ARGFRAME XSTACK, 79, STACK
        ARGFRAME IOVERLAY, 0, STATIC
        ARGFRAME DOVERLAY, 0, STATIC
        FUNCALL touchLinkInitiator_event_loop, nwk_ExtPANIDValid
        LOCFRAME ISTACK, 0, STACK
        LOCFRAME PSTACK, 0, STACK
        LOCFRAME XSTACK, 75, STACK
        LOCFRAME IOVERLAY, 0, STATIC
        LOCFRAME DOVERLAY, 0, STATIC
        ARGFRAME ISTACK, 0, STACK
        ARGFRAME PSTACK, 0, STACK
        ARGFRAME XSTACK, 75, STACK
        ARGFRAME IOVERLAY, 0, STATIC
        ARGFRAME DOVERLAY, 0, STATIC
        FUNCALL touchLinkInitiator_event_loop, touchLink_GenerateRandNum
        LOCFRAME ISTACK, 0, STACK
        LOCFRAME PSTACK, 0, STACK
        LOCFRAME XSTACK, 75, STACK
        LOCFRAME IOVERLAY, 0, STATIC
        LOCFRAME DOVERLAY, 0, STATIC
        ARGFRAME ISTACK, 0, STACK
        ARGFRAME PSTACK, 0, STACK
        ARGFRAME XSTACK, 75, STACK
        ARGFRAME IOVERLAY, 0, STATIC
        ARGFRAME DOVERLAY, 0, STATIC
        FUNCALL touchLinkInitiator_event_loop, osal_rand
        LOCFRAME ISTACK, 0, STACK
        LOCFRAME PSTACK, 0, STACK
        LOCFRAME XSTACK, 75, STACK
        LOCFRAME IOVERLAY, 0, STATIC
        LOCFRAME DOVERLAY, 0, STATIC
        ARGFRAME ISTACK, 0, STACK
        ARGFRAME PSTACK, 0, STACK
        ARGFRAME XSTACK, 75, STACK
        ARGFRAME IOVERLAY, 0, STATIC
        ARGFRAME DOVERLAY, 0, STATIC
        FUNCALL touchLinkInitiator_event_loop, touchLink_GetRandPrimaryChannel
        LOCFRAME ISTACK, 0, STACK
        LOCFRAME PSTACK, 0, STACK
        LOCFRAME XSTACK, 75, STACK
        LOCFRAME IOVERLAY, 0, STATIC
        LOCFRAME DOVERLAY, 0, STATIC
        ARGFRAME ISTACK, 0, STACK
        ARGFRAME PSTACK, 0, STACK
        ARGFRAME XSTACK, 75, STACK
        ARGFRAME IOVERLAY, 0, STATIC
        ARGFRAME DOVERLAY, 0, STATIC
        FUNCALL touchLinkInitiator_event_loop, touchLink_GerFreeRanges
        LOCFRAME ISTACK, 0, STACK
        LOCFRAME PSTACK, 0, STACK
        LOCFRAME XSTACK, 75, STACK
        LOCFRAME IOVERLAY, 0, STATIC
        LOCFRAME DOVERLAY, 0, STATIC
        ARGFRAME ISTACK, 0, STACK
        ARGFRAME PSTACK, 0, STACK
        ARGFRAME XSTACK, 75, STACK
        ARGFRAME IOVERLAY, 0, STATIC
        ARGFRAME DOVERLAY, 0, STATIC
        FUNCALL touchLinkInitiator_event_loop, touchLink_PerformNetworkDisc
        LOCFRAME ISTACK, 0, STACK
        LOCFRAME PSTACK, 0, STACK
        LOCFRAME XSTACK, 75, STACK
        LOCFRAME IOVERLAY, 0, STATIC
        LOCFRAME DOVERLAY, 0, STATIC
        ARGFRAME ISTACK, 0, STACK
        ARGFRAME PSTACK, 0, STACK
        ARGFRAME XSTACK, 75, STACK
        ARGFRAME IOVERLAY, 0, STATIC
        ARGFRAME DOVERLAY, 0, STATIC
        FUNCALL touchLinkInitiator_event_loop, touchLink_SetChannel
        LOCFRAME ISTACK, 0, STACK
        LOCFRAME PSTACK, 0, STACK
        LOCFRAME XSTACK, 75, STACK
        LOCFRAME IOVERLAY, 0, STATIC
        LOCFRAME DOVERLAY, 0, STATIC
        ARGFRAME ISTACK, 0, STACK
        ARGFRAME PSTACK, 0, STACK
        ARGFRAME XSTACK, 75, STACK
        ARGFRAME IOVERLAY, 0, STATIC
        ARGFRAME DOVERLAY, 0, STATIC
        FUNCALL touchLinkInitiator_event_loop, NLME_SetUpdateID
        LOCFRAME ISTACK, 0, STACK
        LOCFRAME PSTACK, 0, STACK
        LOCFRAME XSTACK, 75, STACK
        LOCFRAME IOVERLAY, 0, STATIC
        LOCFRAME DOVERLAY, 0, STATIC
        ARGFRAME ISTACK, 0, STACK
        ARGFRAME PSTACK, 0, STACK
        ARGFRAME XSTACK, 75, STACK
        ARGFRAME IOVERLAY, 0, STATIC
        ARGFRAME DOVERLAY, 0, STATIC
        FUNCALL touchLinkInitiator_event_loop, bdb_Initiator_SendNwkJoinReq
        LOCFRAME ISTACK, 0, STACK
        LOCFRAME PSTACK, 0, STACK
        LOCFRAME XSTACK, 75, STACK
        LOCFRAME IOVERLAY, 0, STATIC
        LOCFRAME DOVERLAY, 0, STATIC
        ARGFRAME ISTACK, 0, STACK
        ARGFRAME PSTACK, 0, STACK
        ARGFRAME XSTACK, 75, STACK
        ARGFRAME IOVERLAY, 0, STATIC
        ARGFRAME DOVERLAY, 0, STATIC
        FUNCALL touchLinkInitiator_event_loop, touchLink_EncryptNwkKey
        LOCFRAME ISTACK, 0, STACK
        LOCFRAME PSTACK, 0, STACK
        LOCFRAME XSTACK, 83, STACK
        LOCFRAME IOVERLAY, 0, STATIC
        LOCFRAME DOVERLAY, 0, STATIC
        ARGFRAME ISTACK, 0, STACK
        ARGFRAME PSTACK, 0, STACK
        ARGFRAME XSTACK, 83, STACK
        ARGFRAME IOVERLAY, 0, STATIC
        ARGFRAME DOVERLAY, 0, STATIC
        FUNCALL touchLinkInitiator_event_loop, touchLinkStartRtr
        LOCFRAME ISTACK, 0, STACK
        LOCFRAME PSTACK, 0, STACK
        LOCFRAME XSTACK, 79, STACK
        LOCFRAME IOVERLAY, 0, STATIC
        LOCFRAME DOVERLAY, 0, STATIC
        ARGFRAME ISTACK, 0, STACK
        ARGFRAME PSTACK, 0, STACK
        ARGFRAME XSTACK, 79, STACK
        ARGFRAME IOVERLAY, 0, STATIC
        ARGFRAME DOVERLAY, 0, STATIC
        FUNCALL touchLinkInitiator_event_loop, initiatorClearSelectedTarget
        LOCFRAME ISTACK, 0, STACK
        LOCFRAME PSTACK, 0, STACK
        LOCFRAME XSTACK, 75, STACK
        LOCFRAME IOVERLAY, 0, STATIC
        LOCFRAME DOVERLAY, 0, STATIC
        ARGFRAME ISTACK, 0, STACK
        ARGFRAME PSTACK, 0, STACK
        ARGFRAME XSTACK, 75, STACK
        ARGFRAME IOVERLAY, 0, STATIC
        ARGFRAME DOVERLAY, 0, STATIC
        FUNCALL touchLinkInitiator_event_loop, initiatorSetNwkToInitState
        LOCFRAME ISTACK, 0, STACK
        LOCFRAME PSTACK, 0, STACK
        LOCFRAME XSTACK, 75, STACK
        LOCFRAME IOVERLAY, 0, STATIC
        LOCFRAME DOVERLAY, 0, STATIC
        ARGFRAME ISTACK, 0, STACK
        ARGFRAME PSTACK, 0, STACK
        ARGFRAME XSTACK, 75, STACK
        ARGFRAME IOVERLAY, 0, STATIC
        ARGFRAME DOVERLAY, 0, STATIC
        REQUIRE ?V0
        REQUIRE ?V1
        REQUIRE ?V2
        REQUIRE ?V3
        REQUIRE ?V4
        REQUIRE ?V5
        REQUIRE ?V6
        REQUIRE ?V7
        MOV       A,#-0x10
        LCALL     ?BANKED_ENTER_XDATA
          CFI DPH0 load(1, XDATA, add(CFA_XSP16, literal(-1)))
          CFI DPL0 load(1, XDATA, add(CFA_XSP16, literal(-2)))
          CFI ?BRET_EXT load(1, XDATA, add(CFA_XSP16, literal(-3)))
          CFI ?RET_HIGH load(1, XDATA, add(CFA_XSP16, literal(-4)))
          CFI ?RET_LOW load(1, XDATA, add(CFA_XSP16, literal(-5)))
          CFI R7 load(1, XDATA, add(CFA_XSP16, literal(-6)))
          CFI V7 load(1, XDATA, add(CFA_XSP16, literal(-7)))
          CFI V6 load(1, XDATA, add(CFA_XSP16, literal(-8)))
          CFI V5 load(1, XDATA, add(CFA_XSP16, literal(-9)))
          CFI V4 load(1, XDATA, add(CFA_XSP16, literal(-10)))
          CFI V3 load(1, XDATA, add(CFA_XSP16, literal(-11)))
          CFI V2 load(1, XDATA, add(CFA_XSP16, literal(-12)))
          CFI V1 load(1, XDATA, add(CFA_XSP16, literal(-13)))
          CFI V0 load(1, XDATA, add(CFA_XSP16, literal(-14)))
          CFI VB load(1, XDATA, add(CFA_XSP16, literal(-15)))
          CFI R6 load(1, XDATA, add(CFA_XSP16, literal(-16)))
          CFI CFA_SP SP+0
          CFI CFA_XSP16 add(XSP16, 16)
        ; Saved register size: 16
        ; Auto size: 59
        MOV       A,#-0x3b
        LCALL     ?ALLOC_XSTACK8
          CFI CFA_XSP16 add(XSP16, 75)
        MOV       A,R2
        MOV       R6,A
        MOV       A,R3
        MOV       R7,A
//  552   if ( events & SYS_EVENT_MSG )
        ANL       A,#0x80
        JZ        ??touchLinkInitiator_event_loop_0
//  553   {
//  554     osal_event_hdr_t *pMsg;
//  555     ZStatus_t stat = ZFailure;
//  556 
//  557     if ( (pMsg = (osal_event_hdr_t *)osal_msg_receive( task_id )) != NULL )
        ; Setup parameters for call to function osal_msg_receive
        LCALL     `??osal_msg_receive::?relay`; Banked call to: osal_msg_receive
        MOV       ?V0,R2
        MOV       ?V1,R3
        MOV       A,R2
        ORL       A,R3
        JZ        ??touchLinkInitiator_event_loop_1
//  558     {
//  559       switch ( pMsg->event )
        MOV       DPL,R2
        MOV       DPH,R3
        MOVX      A,@DPTR
        ADD       A,#0x2f
        JZ        ??touchLinkInitiator_event_loop_2
        ADD       A,#-0x2
        JNZ       ??touchLinkInitiator_event_loop_3
//  560       {
//  561 
//  562 #if (ZSTACK_ROUTER_BUILD)
//  563         case ZDO_CB_MSG:
//  564           // ZDO sends the message that we registered for
//  565           touchLink_RouterProcessZDOMsg( (zdoIncomingMsg_t *)pMsg );
        ; Setup parameters for call to function touchLink_RouterProcessZDOMsg
        LCALL     `??touchLink_RouterProcessZDOMsg::?relay`; Banked call to: touchLink_RouterProcessZDOMsg
//  566           stat = ZSuccess;
//  567           break;
//  568 #endif
//  569         case ZDO_STATE_CHANGE:
//  570           initiatorProcessStateChange( (devStates_t)pMsg->status );
//  571           stat = ZSuccess;
//  572           break;
//  573 
//  574         default:
//  575           break;
//  576       }
//  577 
//  578       if ( stat == ZSuccess )
//  579       {
//  580         // Release the OSAL message
//  581         VOID osal_msg_deallocate( (uint8 *)pMsg );
??touchLinkInitiator_event_loop_4:
        ; Setup parameters for call to function osal_msg_deallocate
        MOV       R2,?V0
        MOV       R3,?V1
        LCALL     `??osal_msg_deallocate::?relay`; Banked call to: osal_msg_deallocate
//  582       }
//  583       else
//  584       {
//  585         // forward to the application
//  586         osal_msg_send( initiatorRegisteredMsgAppTaskID, (uint8 *)pMsg );
//  587       }
//  588     }
//  589 
//  590     // return unprocessed events
//  591     return ( events ^ SYS_EVENT_MSG );
??touchLinkInitiator_event_loop_1:
        MOV       A,R6
        MOV       R2,A
        MOV       A,R7
        XRL       A,#0x80
        LJMP      ??touchLinkInitiator_event_loop_5 & 0xFFFF
??touchLinkInitiator_event_loop_2:
        ; Setup parameters for call to function initiatorProcessStateChange
        INC       DPTR
        MOVX      A,@DPTR
        MOV       R1,A
        LCALL     `??initiatorProcessStateChange::?relay`; Banked call to: initiatorProcessStateChange
        SJMP      ??touchLinkInitiator_event_loop_4
??touchLinkInitiator_event_loop_3:
        ; Setup parameters for call to function osal_msg_send
        MOV       DPTR,#initiatorRegisteredMsgAppTaskID
        MOVX      A,@DPTR
        MOV       R1,A
        LCALL     `??osal_msg_send::?relay`; Banked call to: osal_msg_send
        SJMP      ??touchLinkInitiator_event_loop_1
//  592   }
//  593 
//  594   if ( events & TOUCHLINK_TL_SCAN_BASE_EVT )
??touchLinkInitiator_event_loop_0:
        MOV       A,R2
        ANL       A,#0x20
        JNZ       $+5
        LJMP      ??touchLinkInitiator_event_loop_6 & 0xFFFF
//  595   {
//  596     if ( ( ( scanReqChannels == TOUCHLINK_SCAN_PRIMARY_CHANNELS ) && ( numScanReqSent < TOUCHLINK_INITIATOR_NUM_SCAN_REQ_PRIMARY  ) ) ||
//  597          ( ( scanReqChannels == TOUCHLINK_SCAN_SECONDARY_CHANNELS ) && ( numScanReqSent < TOUCHLINK_INITIATOR_NUM_SCAN_REQ_EXTENDED ) ) )
        MOV       A,R2
        XRL       A,#0x20
        MOV       R6,A
        MOV       DPTR,#scanReqChannels
        MOVX      A,@DPTR
        XRL       A,#0x1
        JNZ       ??touchLinkInitiator_event_loop_7
        MOV       DPTR,#numScanReqSent
        MOVX      A,@DPTR
        CLR       C
        SUBB      A,#0x8
        JC        ??touchLinkInitiator_event_loop_8
        MOV       DPTR,#bdbAttributes + 14
        MOVX      A,@DPTR
        JNZ       ??touchLinkInitiator_event_loop_9
//  598     {
//  599       // Send another Scan Request on the next channel
//  600       initiatorSendScanReq( FALSE );
//  601     }
//  602     else // Channels scan is complete
//  603     {
//  604       if ( ( scanReqChannels == TOUCHLINK_SCAN_PRIMARY_CHANNELS ) && ( bdbAttributes.bdbNodeIsOnANetwork == FALSE ) )
//  605       {
//  606         // Extended scan is required, lets scan secondary channels
//  607         scanReqChannels = TOUCHLINK_SCAN_SECONDARY_CHANNELS;
        MOV       DPTR,#scanReqChannels
        MOV       A,#0x2
        MOVX      @DPTR,A
//  608 
//  609         // Send another Scan Request on the next channel
//  610         initiatorSendScanReq( FALSE );
        ; Setup parameters for call to function initiatorSendScanReq
        SJMP      ??touchLinkInitiator_event_loop_8
//  611       }
??touchLinkInitiator_event_loop_7:
        MOVX      A,@DPTR
        XRL       A,#0x2
        JNZ       ??touchLinkInitiator_event_loop_9
        MOV       DPTR,#numScanReqSent
        MOVX      A,@DPTR
        CLR       C
        SUBB      A,#0x14
        JNC       ??touchLinkInitiator_event_loop_9
??touchLinkInitiator_event_loop_8:
        ; Setup parameters for call to function initiatorSendScanReq
        MOV       R1,#0x0
        LCALL     `??initiatorSendScanReq::?relay`; Banked call to: initiatorSendScanReq
        LJMP      ??touchLinkInitiator_event_loop_10 & 0xFFFF
//  612       // See if we've received any Scan Responses back
//  613       else if ( ( selectedTarget.lastRssi != TOUCHLINK_WORST_RSSI )
//  614                && ( selectedTarget.scanRsp.deviceInfo.endpoint != DEV_INFO_INVALID_EP ) )
??touchLinkInitiator_event_loop_9:
        MOV       DPTR,#selectedTarget + 53
        MOVX      A,@DPTR
        XRL       A,#0xba
        JNZ       $+5
        LJMP      ??touchLinkInitiator_event_loop_11 & 0xFFFF
        MOV       DPTR,#selectedTarget + 31
        MOVX      A,@DPTR
        XRL       A,#0xfe
        JNZ       $+5
        LJMP      ??touchLinkInitiator_event_loop_11 & 0xFFFF
//  615       {
//  616         // Make sure the responder is not a factory new initiator if this device is also 
//  617         // factory new
//  618         if ( ( selectedTarget.scanRsp.touchLinkInitiator == FALSE ) ||
//  619              ( bdbAttributes.bdbNodeIsOnANetwork == TRUE ) )
        MOV       DPTR,#selectedTarget + 7
        MOVX      A,@DPTR
        ANL       A,#0x10
        JZ        ??touchLinkInitiator_event_loop_12
        MOV       DPTR,#bdbAttributes + 14
        MOVX      A,@DPTR
        XRL       A,#0x1
        JZ        $+5
        LJMP      ??touchLinkInitiator_event_loop_10 & 0xFFFF
//  620         {
//  621           bdbTLIdentifyReq_t req;
//  622 
//  623           // Tune to the channel that the Scan Response was heard on
//  624           touchLink_SetChannel( selectedTarget.rxChannel );
??touchLinkInitiator_event_loop_12:
        ; Setup parameters for call to function touchLink_SetChannel
        LCALL     ?Subroutine17 & 0xFFFF
//  625 
//  626           req.transID = selectedTarget.scanRsp.transID;
??CrossCallReturnLabel_180:
        MOV       DPTR,#selectedTarget
        LCALL     ?XLOAD_R0123
        MOV       A,#0x8
        LCALL     ?XSTACK_DISP0_8
        LCALL     ?XSTORE_R0123
//  627           req.IdDuration = BDB_TL_IDENTIFY_TIME;
        MOV       A,#0xc
        LCALL     ?XSTACK_DISP0_8
        MOV       A,#-0x1
        MOVX      @DPTR,A
        INC       DPTR
        MOVX      @DPTR,A
//  628           
//  629           if ( touchlinkFNReset == TRUE )
        MOV       DPTR,#touchlinkFNReset
        MOVX      A,@DPTR
        XRL       A,#0x1
        JNZ       ??touchLinkInitiator_event_loop_13
//  630           {
//  631             osal_set_event( touchLinkInitiator_TaskID, TOUCHLINK_CFG_TARGET_EVT );
        ; Setup parameters for call to function osal_set_event
        MOV       R2,#0x40
        MOV       R3,#0x0
        LJMP      ??touchLinkInitiator_event_loop_14 & 0xFFFF
//  632             return ( events ^ TOUCHLINK_TL_SCAN_BASE_EVT );
//  633           }
//  634           
//  635           bdbTL_Send_IndentifyReq( TOUCHLINK_INTERNAL_ENDPOINT, &(selectedTarget.srcAddr), &req, initiatorSeqNum++ );
??touchLinkInitiator_event_loop_13:
        LCALL     ??Subroutine51_0 & 0xFFFF
??CrossCallReturnLabel_102:
        LCALL     ?PUSH_XSTACK_I_ONE
          CFI CFA_XSP16 add(XSP16, 76)
        MOV       A,#0x9
        LCALL     ?XSTACK_DISP102_8
        MOV       R2,#(selectedTarget + 38) & 0xff
        MOV       R3,#((selectedTarget + 38) >> 8) & 0xff
        MOV       R1,#0xd
        LCALL     `??bdbTL_Send_IndentifyReq::?relay`; Banked call to: bdbTL_Send_IndentifyReq
        MOV       A,#0x1
        LCALL     ?DEALLOC_XSTACK8
          CFI CFA_XSP16 add(XSP16, 75)
//  636 
//  637 #if ZSTACK_ROUTER_BUILD
//  638           uint8 i = 0;
        MOV       R1,#0x0
        SJMP      ??touchLinkInitiator_event_loop_15
//  639             
//  640           while ( !CHECK_BIT ( selectedTarget.scanRsp.keyBitmask , i ) ) 
//  641           {
//  642             i++;
??touchLinkInitiator_event_loop_16:
        INC       R1
//  643           }
??touchLinkInitiator_event_loop_15:
        MOV       DPTR,#selectedTarget + 9
        LCALL     ?Subroutine20 & 0xFFFF
??CrossCallReturnLabel_13:
        MOV       A,R1
        MOV       R0,#?V0
        LCALL     ?US_SHR
        MOV       A,?V0
        MOV       C,0xE0 /* A   */.0
        JNC       ??touchLinkInitiator_event_loop_16
//  644     
//  645           initiatorNwkParams.keyIndex = i;
        MOV       A,R1
        MOV       DPTR,#initiatorNwkParams + 8
        MOVX      @DPTR,A
//  646           zTouchLinkNwkStartRtr = TRUE;
        MOV       DPTR,#zTouchLinkNwkStartRtr
        MOV       A,#0x1
        MOVX      @DPTR,A
//  647           // Disabe other TouchLink events
//  648           osal_set_event( touchLinkInitiator_TaskID, TOUCHLINK_DISABLE_RX_EVT );
        ; Setup parameters for call to function osal_set_event
        LCALL     ?Subroutine10 & 0xFFFF
//  649 #endif
//  650           osal_start_timerEx( touchLinkInitiator_TaskID, TOUCHLINK_CFG_TARGET_EVT, TOUCHLINK_INITIATOR_IDENTIFY_INTERVAL );
??CrossCallReturnLabel_169:
        ; Setup parameters for call to function osal_start_timerEx
        MOV       DPTR,#__Constant_1f4
        LCALL     ?PUSH_XSTACK8_X_FOUR
          CFI CFA_XSP16 add(XSP16, 79)
        MOV       R2,#0x40
        LCALL     ??Subroutine58_0 & 0xFFFF
//  651         }
//  652         // else wait for touch-link commands from the other initiator
//  653       }
??CrossCallReturnLabel_114:
        LCALL     ?DEALLOC_XSTACK8
          CFI CFA_XSP16 add(XSP16, 75)
        SJMP      ??CrossCallReturnLabel_30
//  654       else
//  655       {
//  656         // We did not manage to select any target
//  657         // Let's just go back to our initial configuration
//  658         osal_set_event( touchLinkInitiator_TaskID, TOUCHLINK_DISABLE_RX_EVT );
??touchLinkInitiator_event_loop_11:
        ; Setup parameters for call to function osal_set_event
        LCALL     ?Subroutine10 & 0xFFFF
//  659         bdbAttributes.bdbCommissioningStatus = BDB_COMMISSIONING_TL_NO_SCAN_RESPONSE;
??CrossCallReturnLabel_170:
        MOV       DPTR,#bdbAttributes + 10
        MOV       A,#0x5
        LCALL     ?Subroutine30 & 0xFFFF
//  660         bdb_reportCommissioningState( BDB_COMMISSIONING_STATE_TL, FALSE );
//  661       }
//  662     }
//  663 
//  664     // return unprocessed events
//  665     return ( events ^ TOUCHLINK_TL_SCAN_BASE_EVT );
??CrossCallReturnLabel_30:
        LJMP      ??touchLinkInitiator_event_loop_10 & 0xFFFF
//  666   }
//  667 
//  668   if ( events & TOUCHLINK_CFG_TARGET_EVT )
??touchLinkInitiator_event_loop_6:
        MOV       A,R2
        ANL       A,#0x40
        JNZ       $+5
        LJMP      ??touchLinkInitiator_event_loop_17 & 0xFFFF
//  669   {
//  670     ZStatus_t status = ZFailure;
//  671 
//  672     bdbTLIdentifyReq_t req;
//  673 
//  674     req.transID = selectedTarget.scanRsp.transID;
        MOV       DPTR,#selectedTarget
        LCALL     ?XLOAD_R0123
        MOV       A,#0x8
        LCALL     ?XSTACK_DISP0_8
        LCALL     ?XSTORE_R0123
//  675     req.IdDuration = 0x00;
        MOV       A,#0xc
        LCALL     ?XSTACK_DISP0_8
        CLR       A
        MOVX      @DPTR,A
        INC       DPTR
        MOVX      @DPTR,A
//  676     uint8 tcExtAddr[Z_EXTADDR_LEN];
//  677     uint8 DistributedSecurityNwkAddress[Z_EXTADDR_LEN] = { 0xFF, 0xFF, 0xFF, 0xFF, 0xFF, 0xFF, 0xFF, 0xFF };
        MOV       DPTR,#`?<Constant {255, 255, 255, 255, 255, 255, 255,`
        MOV       A,#0x33
        LCALL     ?XSTACK_DISP102_8
        MOV       A,#0x8
        LCALL     ?MOVE_LONG8_XDATA_XDATA
//  678         
//  679     if ( zTouchLinkNwkStartRtr == FALSE )
        MOV       DPTR,#zTouchLinkNwkStartRtr
        MOVX      A,@DPTR
        JNZ       ??touchLinkInitiator_event_loop_18
//  680     {
//  681       // Send an Identify stop Request
//  682       bdbTL_Send_IndentifyReq( TOUCHLINK_INTERNAL_ENDPOINT, &(selectedTarget.srcAddr), &req, initiatorSeqNum++ );
        LCALL     ??Subroutine51_0 & 0xFFFF
//  683     }
??CrossCallReturnLabel_103:
        LCALL     ?PUSH_XSTACK_I_ONE
          CFI CFA_XSP16 add(XSP16, 76)
        MOV       A,#0x9
        LCALL     ?XSTACK_DISP102_8
        MOV       R2,#(selectedTarget + 38) & 0xff
        MOV       R3,#((selectedTarget + 38) >> 8) & 0xff
        MOV       R1,#0xd
        LCALL     `??bdbTL_Send_IndentifyReq::?relay`; Banked call to: bdbTL_Send_IndentifyReq
        MOV       A,#0x1
        LCALL     ?DEALLOC_XSTACK8
          CFI CFA_XSP16 add(XSP16, 75)
//  684     
//  685    // See if the target is part of our network
//  686     if ( !TOUCHLINK_SAME_NWK( selectedTarget.scanRsp.PANID, selectedTarget.scanRsp.extendedPANID ) )
??touchLinkInitiator_event_loop_18:
        MOV       A,R6
        XRL       A,#0x40
        MOV       R6,A
        MOV       DPTR,#_NIB + 33
        LCALL     ??Subroutine63_0 & 0xFFFF
??CrossCallReturnLabel_134:
        MOV       DPTR,#selectedTarget + 25
        MOVX      A,@DPTR
        XRL       A,R0
        JNZ       ??touchLinkInitiator_event_loop_19
        INC       DPTR
        MOVX      A,@DPTR
        XRL       A,R1
??touchLinkInitiator_event_loop_19:
        JNZ       ??touchLinkInitiator_event_loop_20
        ; Setup parameters for call to function sAddrExtCmp
        MOV       R4,#(selectedTarget + 15) & 0xff
        MOV       R5,#((selectedTarget + 15) >> 8) & 0xff
        MOV       R2,#(_NIB + 53) & 0xff
        MOV       R3,#((_NIB + 53) >> 8) & 0xff
        LCALL     `??sAddrExtCmp::?relay`; Banked call to: sAddrExtCmp
        MOV       A,R1
        JZ        $+5
        LJMP      ??touchLinkInitiator_event_loop_21 & 0xFFFF
//  687     {
//  688       // If the local device is not the trust center, always return TRUE
//  689       status = APSME_GetRequest( apsTrustCenterAddress, 0, tcExtAddr );
??touchLinkInitiator_event_loop_20:
        ; Setup parameters for call to function APSME_GetRequest
        MOV       A,#0x2b
        LCALL     ?XSTACK_DISP102_8
        MOV       R2,#0x0
        MOV       R3,#0x0
        MOV       R1,#-0x55
        LCALL     `??APSME_GetRequest::?relay`; Banked call to: APSME_GetRequest
        MOV       A,R1
        MOV       R0,A
//  690         
//  691       // Notify BDB state machine
//  692       if ( bdbAttributes.bdbNodeIsOnANetwork == TRUE )
        MOV       DPTR,#bdbAttributes + 14
        MOVX      A,@DPTR
        XRL       A,#0x1
        JNZ       ??touchLinkInitiator_event_loop_22
//  693       {
//  694         if ( ( status == ZSuccess ) && ( !osal_ExtAddrEqual( DistributedSecurityNwkAddress, tcExtAddr ) ) )
        MOV       A,R1
        JNZ       ??touchLinkInitiator_event_loop_22
        ; Setup parameters for call to function sAddrExtCmp
        MOV       A,#0x2b
        LCALL     ?XSTACK_DISP102_8
        MOV       A,#0x33
        LCALL     ?XSTACK_DISP101_8
        LCALL     `??sAddrExtCmp::?relay`; Banked call to: sAddrExtCmp
        MOV       A,R1
        JNZ       ??touchLinkInitiator_event_loop_22
//  695         {
//  696           bdbAttributes.bdbCommissioningStatus = BDB_COMMISSIONING_TL_NOT_PERMITTED;
        MOV       DPTR,#bdbAttributes + 10
        MOV       A,#0x6
        SJMP      ??touchLinkInitiator_event_loop_23
//  697           bdb_reportCommissioningState( BDB_COMMISSIONING_STATE_TL, FALSE );
//  698           return ( events ^ TOUCHLINK_CFG_TARGET_EVT );
//  699         }
//  700       }
//  701             
//  702       // verify address ranges split possible if required
//  703       if ( !touchLink_IsValidSplitFreeRanges( selectedTarget.scanRsp.totalGrpIDs ) )
??touchLinkInitiator_event_loop_22:
        ; Setup parameters for call to function touchLink_IsValidSplitFreeRanges
        MOV       DPTR,#selectedTarget + 30
        MOVX      A,@DPTR
        MOV       R1,A
        LCALL     `??touchLink_IsValidSplitFreeRanges::?relay`; Banked call to: touchLink_IsValidSplitFreeRanges
        MOV       A,R1
        JNZ       ??touchLinkInitiator_event_loop_24
//  704       {
//  705         bdbAttributes.bdbCommissioningStatus = BDB_COMMISSIONING_TL_NOT_AA_CAPABLE;
        MOV       DPTR,#bdbAttributes + 10
        MOV       A,#0x4
??touchLinkInitiator_event_loop_23:
        MOVX      @DPTR,A
//  706         bdb_reportCommissioningState( BDB_COMMISSIONING_STATE_TL, FALSE );
        ; Setup parameters for call to function bdb_reportCommissioningState
        MOV       R2,#0x0
        LJMP      ??touchLinkInitiator_event_loop_25 & 0xFFFF
//  707         return ( events ^ TOUCHLINK_CFG_TARGET_EVT );
//  708       }
//  709       
//  710       if ( touchlinkFNReset == TRUE )
??touchLinkInitiator_event_loop_24:
        MOV       DPTR,#touchlinkFNReset
        MOVX      A,@DPTR
        XRL       A,#0x1
        JNZ       ??touchLinkInitiator_event_loop_26
//  711       {
//  712         touchlinkFNReset = FALSE;
        CLR       A
        MOVX      @DPTR,A
//  713         touchLinkInitiator_ResetToFNSelectedTarget( );
        ; Setup parameters for call to function touchLinkInitiator_ResetToFNSelectedTarget
        LCALL     `??touchLinkInitiator_ResetToFNSelectedTarget::?`; Banked call to: touchLinkInitiator_ResetToFNSelectedTarget
//  714         osal_set_event( touchLinkInitiator_TaskID, TOUCHLINK_DISABLE_RX_EVT );
        ; Setup parameters for call to function osal_set_event
        MOV       R2,#0x0
        MOV       R3,#0x2
        SJMP      ??touchLinkInitiator_event_loop_14
//  715         
//  716         return ( events ^ TOUCHLINK_CFG_TARGET_EVT );
//  717       }
//  718         
//  719       if ( bdbAttributes.bdbNodeIsOnANetwork == TRUE )
??touchLinkInitiator_event_loop_26:
        MOV       DPTR,#bdbAttributes + 14
        MOVX      A,@DPTR
        XRL       A,#0x1
        JNZ       ??touchLinkInitiator_event_loop_27
//  720       {
//  721         // Ask the target to join our network
//  722         osal_start_timerEx( touchLinkInitiator_TaskID, TOUCHLINK_NWK_FORMATION_SUCCESS_EVT, 50);
        ; Setup parameters for call to function osal_start_timerEx
        MOV       DPTR,#__Constant_32
        LCALL     ?PUSH_XSTACK8_X_FOUR
          CFI CFA_XSP16 add(XSP16, 79)
        MOV       R2,#0x0
        MOV       R3,#0x20
        LCALL     ??Subroutine59_0 & 0xFFFF
??CrossCallReturnLabel_118:
        LCALL     ?DEALLOC_XSTACK8
          CFI CFA_XSP16 add(XSP16, 75)
//  723         zTouchLinkNwkStartRtr = FALSE;
        MOV       DPTR,#zTouchLinkNwkStartRtr
        CLR       A
        MOVX      @DPTR,A
//  724         return ( events ^ TOUCHLINK_CFG_TARGET_EVT );
        LJMP      ??touchLinkInitiator_event_loop_10 & 0xFFFF
//  725       }
//  726       else if ( ZSTACK_ROUTER_BUILD == TRUE )
//  727       {
//  728         // Tune to the channel that the Scan Response was heard on
//  729         touchLink_SetChannel( selectedTarget.rxChannel );
??touchLinkInitiator_event_loop_27:
        ; Setup parameters for call to function touchLink_SetChannel
        LCALL     ?Subroutine17 & 0xFFFF
//  730         
//  731         // Try to form a new network
//  732         osal_set_event( touchLinkInitiator_TaskID, TOUCHLINK_NWK_RTR_START_EVT);
??CrossCallReturnLabel_181:
        ; Setup parameters for call to function osal_set_event
        MOV       R2,#0x0
        MOV       R3,#0x10
??touchLinkInitiator_event_loop_14:
        LCALL     ??Subroutine68_0 & 0xFFFF
//  733         return ( events ^ TOUCHLINK_CFG_TARGET_EVT );
??CrossCallReturnLabel_171:
        LJMP      ??touchLinkInitiator_event_loop_10 & 0xFFFF
//  734       }
//  735       else if ( ZSTACK_ROUTER_BUILD == FALSE )
//  736       {
//  737         if ( selectedTarget.scanRsp.zLogicalType == ZG_DEVICETYPE_ROUTER )
//  738         {
//  739           if ( bdbAttributes.bdbNodeIsOnANetwork == FALSE )
//  740           {
//  741             _NIB.nwkDevAddress = APL_FREE_NWK_ADDR_RANGE_BEGIN;
//  742           }
//  743           
//  744           // Must be the first light; ask the light to start the network
//  745           status = initiatorSendNwkStartReq( &(selectedTarget.scanRsp) );
//  746         }
//  747         else
//  748         {
//  749           // Notify the BDB state machine 
//  750           bdbAttributes.bdbCommissioningStatus = BDB_COMMISSIONING_NO_NETWORK;
//  751           bdb_reportCommissioningState( BDB_COMMISSIONING_STATE_TL, FALSE );
//  752           return ( events ^ TOUCHLINK_CFG_TARGET_EVT );
//  753         }
//  754       }
//  755     }
//  756     
//  757     else if ( _NIB.nwkUpdateId != selectedTarget.scanRsp.nwkUpdateId )
??touchLinkInitiator_event_loop_21:
        MOV       DPTR,#_NIB + 109
        MOVX      A,@DPTR
        MOV       R0,A
        MOV       DPTR,#selectedTarget + 23
        MOVX      A,@DPTR
        XRL       A,R0
        JNZ       $+5
        LJMP      ??touchLinkInitiator_event_loop_28 & 0xFFFF
//  758     {
//  759       // Set NWK task to run
//  760       nwk_setStateIdle( TRUE );
        ; Setup parameters for call to function nwk_setStateIdle
        MOV       R1,#0x1
        LCALL     `??nwk_setStateIdle::?relay`; Banked call to: nwk_setStateIdle
//  761       
//  762       // Target is already part of our network
//  763       if ( selectedTarget.scanRsp.nwkUpdateId > _NIB.nwkUpdateId )
        MOV       DPTR,#selectedTarget + 23
        MOVX      A,@DPTR
        MOV       R1,A
        MOV       DPTR,#_NIB + 109
        MOVX      A,@DPTR
        MOV       R0,A
        CLR       C
        SUBB      A,R1
        JNC       ??touchLinkInitiator_event_loop_29
//  764       {
//  765         // Update our network update id and logical channel
//  766         touchLink_ProcessNwkUpdate( selectedTarget.scanRsp.nwkUpdateId, selectedTarget.scanRsp.logicalChannel );
        ; Setup parameters for call to function touchLink_ProcessNwkUpdate
        MOV       DPTR,#selectedTarget + 24
        MOVX      A,@DPTR
        MOV       R2,A
        LCALL     `??touchLink_ProcessNwkUpdate::?relay`; Banked call to: touchLink_ProcessNwkUpdate
//  767 
//  768         // We're done here
//  769         status = ZSuccess;
        LJMP      ??touchLinkInitiator_event_loop_30 & 0xFFFF
//  770       }
//  771       else if ( selectedTarget.scanRsp.nwkUpdateId < _NIB.nwkUpdateId )
??touchLinkInitiator_event_loop_29:
        MOV       A,R1
        CLR       C
        SUBB      A,R0
        JC        $+5
        LJMP      ??touchLinkInitiator_event_loop_30 & 0xFFFF
//  772       {
//  773         // Inform the target to update its network update id and logical channel
//  774         initiatorSendNwkUpdateReq( &(selectedTarget.scanRsp) ); // there's no corresponding response!
        ; Setup parameters for call to function osal_mem_alloc
        MOV       R2,#0x12
        MOV       R3,#0x0
        LCALL     `??osal_mem_alloc::?relay`; Banked call to: osal_mem_alloc
        MOV       ?V0,R2
        MOV       ?V1,R3
        MOV       A,R2
        ORL       A,R3
        JNZ       $+5
        LJMP      ??touchLinkInitiator_event_loop_31 & 0xFFFF
        MOV       DPTR,#selectedTarget
        LCALL     ?XLOAD_R0123
        MOV       DPL,?V0
        MOV       DPH,?V1
        LCALL     ?XSTORE_R0123
        ; Setup parameters for call to function sAddrExtCpy
        MOV       R4,#(_NIB + 53) & 0xff
        MOV       R5,#((_NIB + 53) >> 8) & 0xff
        MOV       A,?V0
        ADD       A,#0x4
        MOV       R2,A
        CLR       A
        ADDC      A,?V1
        MOV       R3,A
        LCALL     `??sAddrExtCpy::?relay`; Banked call to: sAddrExtCpy
        MOV       DPTR,#_NIB + 109
        MOVX      A,@DPTR
        PUSH      A
          CFI CFA_SP SP+-1
        MOV       A,?V0
        ADD       A,#0xc
        MOV       DPL,A
        CLR       A
        ADDC      A,?V1
        MOV       DPH,A
        POP       A
          CFI CFA_SP SP+0
        MOVX      @DPTR,A
        MOV       DPTR,#_NIB + 22
        MOVX      A,@DPTR
        PUSH      A
          CFI CFA_SP SP+-1
        MOV       A,?V0
        ADD       A,#0xd
        MOV       DPL,A
        CLR       A
        ADDC      A,?V1
        MOV       DPH,A
        POP       A
          CFI CFA_SP SP+0
        MOVX      @DPTR,A
        MOV       DPTR,#_NIB + 33
        LCALL     ??Subroutine63_0 & 0xFFFF
??CrossCallReturnLabel_135:
        MOV       A,?V0
        ADD       A,#0xe
        MOV       DPL,A
        CLR       A
        ADDC      A,?V1
        LCALL     ??Subroutine48_0 & 0xFFFF
??CrossCallReturnLabel_95:
        MOV       DPTR,#selectedTarget + 27
        LCALL     ??Subroutine63_0 & 0xFFFF
??CrossCallReturnLabel_136:
        MOV       A,?V0
        ADD       A,#0x10
        MOV       DPL,A
        CLR       A
        ADDC      A,?V1
        MOV       DPH,A
        MOV       A,R0
        MOVX      @DPTR,A
        INC       DPTR
        MOV       A,R1
        LCALL     ?Subroutine27 & 0xFFFF
??CrossCallReturnLabel_23:
        MOV       ?V3,A
        MOV       R0,#?V3
        LCALL     ?PUSH_XSTACK_I_ONE
          CFI CFA_XSP16 add(XSP16, 76)
        MOV       R4,?V0
        MOV       R5,?V1
        MOV       R2,#(selectedTarget + 38) & 0xff
        MOV       R3,#((selectedTarget + 38) >> 8) & 0xff
        MOV       R1,#0xd
        LCALL     `??bdbTL_Send_NwkUpdateReq::?relay`; Banked call to: bdbTL_Send_NwkUpdateReq
        MOV       A,#0x1
        LCALL     ?DEALLOC_XSTACK8
          CFI CFA_XSP16 add(XSP16, 75)
        ; Setup parameters for call to function osal_mem_free
        MOV       R2,?V0
        MOV       R3,?V1
        LCALL     `??osal_mem_free::?relay`; Banked call to: osal_mem_free
//  775 
//  776         // Notify the application about this device
//  777         osal_set_event( touchLinkInitiator_TaskID, TOUCHLINK_NOTIFY_APP_EVT );
??touchLinkInitiator_event_loop_31:
        ; Setup parameters for call to function osal_set_event
        MOV       R2,#0x0
        MOV       R3,#0x8
        LCALL     ??Subroutine68_0 & 0xFFFF
//  778       }
//  779       
//  780       bdbAttributes.bdbCommissioningStatus = BDB_COMMISSIONING_SUCCESS;
??CrossCallReturnLabel_172:
        SJMP      ??touchLinkInitiator_event_loop_30
//  781       bdb_reportCommissioningState( BDB_COMMISSIONING_STATE_TL, TRUE );
//  782       return ( events ^ TOUCHLINK_CFG_TARGET_EVT );
//  783     }
//  784     
//  785     //we are touchlinking to a light in our network, just send application the device info
//  786     else if ( selectedTarget.scanRsp.touchLinkInitiator == FALSE )
??touchLinkInitiator_event_loop_28:
        MOV       DPTR,#selectedTarget + 7
        MOVX      A,@DPTR
        ANL       A,#0x10
        JNZ       ??touchLinkInitiator_event_loop_10
//  787     {
//  788       epInfoRec_t rec;
//  789       rec.nwkAddr = selectedTarget.scanRsp.nwkAddr;
        MOV       DPTR,#selectedTarget + 27
        LCALL     ?Subroutine14 & 0xFFFF
//  790       rec.endpoint = selectedTarget.scanRsp.deviceInfo.endpoint;
??CrossCallReturnLabel_7:
        PUSH      A
          CFI CFA_SP SP+-1
        MOV       A,#0x2
        LCALL     ?XSTACK_DISP0_8
        POP       A
          CFI CFA_SP SP+0
        MOVX      @DPTR,A
//  791       rec.profileID = selectedTarget.scanRsp.deviceInfo.profileID;
        MOV       DPTR,#selectedTarget + 32
        LCALL     ??Subroutine63_0 & 0xFFFF
??CrossCallReturnLabel_137:
        MOV       A,#0x3
        LCALL     ?XSTACK_DISP0_8
        LCALL     ?Subroutine25 & 0xFFFF
//  792       rec.deviceID = selectedTarget.scanRsp.deviceInfo.deviceID;
??CrossCallReturnLabel_130:
        MOV       A,#0x5
        LCALL     ?XSTACK_DISP0_8
        LCALL     ?Subroutine31 & 0xFFFF
//  793       rec.version = selectedTarget.scanRsp.deviceInfo.version;
??CrossCallReturnLabel_32:
        PUSH      A
          CFI CFA_SP SP+-1
        MOV       A,#0x7
        LCALL     ?XSTACK_DISP0_8
        POP       A
          CFI CFA_SP SP+0
        LCALL     ?Subroutine13 & 0xFFFF
//  794       // Notify the application
//  795       if ( pfnNotifyAppCB )
??CrossCallReturnLabel_124:
        JZ        ??touchLinkInitiator_event_loop_30
//  796       {
//  797         (*pfnNotifyAppCB)( &rec );
        ; Setup parameters for indirect call
        LCALL     ?Subroutine23 & 0xFFFF
//  798       }
??CrossCallReturnLabel_159:
        LCALL     ?CALL_IND
//  799       bdbAttributes.bdbCommissioningStatus = BDB_COMMISSIONING_SUCCESS;
??touchLinkInitiator_event_loop_30:
        MOV       DPTR,#bdbAttributes + 10
        CLR       A
        MOVX      @DPTR,A
//  800       bdb_reportCommissioningState( BDB_COMMISSIONING_STATE_TL, TRUE );
        ; Setup parameters for call to function bdb_reportCommissioningState
        MOV       R2,#0x1
??touchLinkInitiator_event_loop_25:
        MOV       R1,#0x2
        LCALL     `??bdb_reportCommissioningState::?relay`; Banked call to: bdb_reportCommissioningState
//  801     }
//  802 
//  803     // return unprocessed events
//  804     return ( events ^ TOUCHLINK_CFG_TARGET_EVT );
??touchLinkInitiator_event_loop_10:
        MOV       A,R6
        LJMP      ??touchLinkInitiator_event_loop_32 & 0xFFFF
//  805   }
//  806 
//  807   if ( events & TOUCHLINK_W4_NWK_START_RSP_EVT )
??touchLinkInitiator_event_loop_17:
        MOV       A,R2
        ANL       A,#0x80
        JNZ       $+5
        LJMP      ??touchLinkInitiator_event_loop_33 & 0xFFFF
//  808   {
//  809     bdbTLNwkStartRsp_t *pRsp = &(rxRsp.nwkStartRsp);
//  810 
//  811     // Look if we have a valid response
//  812     if ( ( pRsp->status == TOUCHLINK_NETWORK_START_RSP_STATUS_SUCCESS )
//  813        && ( ( nwk_ExtPANIDValid( pRsp->extendedPANID ) ) && ( touchLink_IsValidTransID( pRsp->transID ) ) ) )
        MOV       DPTR,#rxRsp + 4
        MOVX      A,@DPTR
        JNZ       ??touchLinkInitiator_event_loop_34
        ; Setup parameters for call to function nwk_ExtPANIDValid
        MOV       R2,#(rxRsp + 5) & 0xff
        MOV       R3,#((rxRsp + 5) >> 8) & 0xff
        LCALL     `??nwk_ExtPANIDValid::?relay`; Banked call to: nwk_ExtPANIDValid
        MOV       A,R1
        JZ        ??touchLinkInitiator_event_loop_34
        ; Setup parameters for call to function touchLink_IsValidTransID
        MOV       DPTR,#rxRsp
        LCALL     ?XLOAD_R2345
        LCALL     ?Subroutine34 & 0xFFFF
??CrossCallReturnLabel_36:
        JZ        ??touchLinkInitiator_event_loop_34
//  814     {
//  815       // Copy the new network parameters to NIB
//  816       touchLink_SetNIB( ( ZSTACK_ROUTER_BUILD ? NWK_ROUTER : NWK_REJOINING ),
//  817                   _NIB.nwkDevAddress, pRsp->extendedPANID,
//  818                   pRsp->logicalChannel, pRsp->panId, pRsp->nwkUpdateId );
        ; Setup parameters for call to function touchLink_SetNIB
        MOV       DPTR,#rxRsp + 13
        MOVX      A,@DPTR
        MOV       ?V0,A
        MOV       R0,#?V0
        LCALL     ?PUSH_XSTACK_I_ONE
          CFI CFA_XSP16 add(XSP16, 76)
        MOV       DPTR,#rxRsp + 15
        LCALL     ?PUSH_XSTACK8_X_TWO
          CFI CFA_XSP16 add(XSP16, 78)
        MOV       DPTR,#rxRsp + 14
        MOVX      A,@DPTR
        MOV       ?V0,A
        MOV       R0,#?V0
        LCALL     ?PUSH_XSTACK_I_ONE
          CFI CFA_XSP16 add(XSP16, 79)
        MOV       R4,#(rxRsp + 5) & 0xff
        MOV       R5,#((rxRsp + 5) >> 8) & 0xff
        MOV       DPTR,#_NIB + 20
        LCALL     ?Subroutine19 & 0xFFFF
??CrossCallReturnLabel_11:
        LCALL     ?DEALLOC_XSTACK8
          CFI CFA_XSP16 add(XSP16, 75)
//  819 
//  820       // Apply the received network key
//  821       touchLink_DecryptNwkKey( encKeySent, keyIndexSent, pRsp->transID, responseIDSent );
        ; Setup parameters for call to function touchLink_DecryptNwkKey
        MOV       DPTR,#responseIDSent
        LCALL     ?PUSH_XSTACK8_X_FOUR
          CFI CFA_XSP16 add(XSP16, 79)
        MOV       DPTR,#rxRsp
        LCALL     ?PUSH_XSTACK8_X_FOUR
          CFI CFA_XSP16 add(XSP16, 83)
        MOV       DPTR,#keyIndexSent
        MOVX      A,@DPTR
        MOV       R1,A
        MOV       R2,#encKeySent & 0xff
        MOV       R3,#(encKeySent >> 8) & 0xff
        LCALL     `??touchLink_DecryptNwkKey::?relay`; Banked call to: touchLink_DecryptNwkKey
        MOV       A,#0x8
        LCALL     ?DEALLOC_XSTACK8
          CFI CFA_XSP16 add(XSP16, 75)
//  822 
//  823       // This is not a usual Trust Center protected network
//  824       ZDSecMgrUpdateTCAddress( NULL );
        ; Setup parameters for call to function ZDSecMgrUpdateTCAddress
        MOV       R2,#0x0
        MOV       R3,#0x0
        LCALL     `??ZDSecMgrUpdateTCAddress::?relay`; Banked call to: ZDSecMgrUpdateTCAddress
//  825 
//  826       // Notify the application about this device
//  827       osal_set_event( touchLinkInitiator_TaskID, TOUCHLINK_NOTIFY_APP_EVT );
        ; Setup parameters for call to function osal_set_event
        MOV       R2,#0x0
        MOV       R3,#0x8
        LCALL     ??Subroutine68_0 & 0xFFFF
//  828 
//  829       // Wait at least BDBCTL_MIN_STARTUP_DELAY_TIME seconds to allow the
//  830       // target to start the network correctly. Join the target afterwards.
//  831       osal_start_timerEx( touchLinkInitiator_TaskID, TOUCHLINK_START_NWK_EVT, BDBCTL_MIN_STARTUP_DELAY_TIME );
??CrossCallReturnLabel_173:
        ; Setup parameters for call to function osal_start_timerEx
        MOV       DPTR,#__Constant_7d0
        LCALL     ?PUSH_XSTACK8_X_FOUR
          CFI CFA_XSP16 add(XSP16, 79)
        MOV       R2,#0x4
        LCALL     ??Subroutine58_0 & 0xFFFF
//  832     }
??CrossCallReturnLabel_115:
        LCALL     ?DEALLOC_XSTACK8
          CFI CFA_XSP16 add(XSP16, 75)
        SJMP      ??touchLinkInitiator_event_loop_35
//  833     else
//  834     {
//  835       // Notify the BDB state machine 
//  836       bdbAttributes.bdbCommissioningStatus = BDB_COMMISSIONING_NO_NETWORK;
??touchLinkInitiator_event_loop_34:
        MOV       DPTR,#bdbAttributes + 10
        MOV       A,#0x2
        MOVX      @DPTR,A
//  837       bdb_reportCommissioningState( BDB_COMMISSIONING_STATE_TL, FALSE );        
        ; Setup parameters for call to function bdb_reportCommissioningState
        MOV       R2,#0x0
        MOV       R1,A
        LCALL     `??bdb_reportCommissioningState::?relay`; Banked call to: bdb_reportCommissioningState
//  838     }
//  839 
//  840     // return unprocessed events
//  841     return ( events ^ TOUCHLINK_W4_NWK_START_RSP_EVT );
??touchLinkInitiator_event_loop_35:
        MOV       A,R6
        XRL       A,#0x80
        LJMP      ??touchLinkInitiator_event_loop_32 & 0xFFFF
//  842   }
//  843 
//  844   if ( events & TOUCHLINK_START_NWK_EVT )
??touchLinkInitiator_event_loop_33:
        MOV       A,R2
        ANL       A,#0x4
        JZ        ??touchLinkInitiator_event_loop_36
//  845   {
//  846     // Rejoins without NWK scan
//  847 
//  848     bdbTLNwkStartRsp_t *pRsp = &(rxRsp.nwkStartRsp);
//  849     bdbTLNwkRejoin_t rejoinInf;
//  850     
//  851     rejoinInf.panId = pRsp->panId;
        MOV       DPTR,#rxRsp + 15
        LCALL     ??Subroutine63_0 & 0xFFFF
??CrossCallReturnLabel_138:
        MOV       A,#0x1a
        LCALL     ?XSTACK_DISP0_8
        LCALL     ??Subroutine49_0 & 0xFFFF
//  852     rejoinInf.logicalChannel = pRsp->logicalChannel;
??CrossCallReturnLabel_87:
        MOV       DPTR,#rxRsp + 14
        MOVX      A,@DPTR
        PUSH      A
          CFI CFA_SP SP+-1
        MOV       A,#0x19
        LCALL     ?XSTACK_DISP0_8
        POP       A
          CFI CFA_SP SP+0
        MOVX      @DPTR,A
//  853     osal_memcpy( rejoinInf.extendedPANID, pRsp->extendedPANID, Z_EXTADDR_LEN);
        ; Setup parameters for call to function osal_memcpy
        MOV       ?V4,#(rxRsp + 5) & 0xff
        MOV       ?V5,#((rxRsp + 5) >> 8) & 0xff
        MOV       ?V6,#0x0
        MOV       R0,#?V4
        LCALL     ?PUSH_XSTACK_I_THREE
          CFI CFA_XSP16 add(XSP16, 78)
        MOV       R4,#0x8
        MOV       R5,#0x0
        MOV       A,#0x13
        LCALL     ?XSTACK_DISP101_8
        LCALL     `??osal_memcpy::?relay`; Banked call to: osal_memcpy
        MOV       A,#0x3
        LCALL     ?DEALLOC_XSTACK8
          CFI CFA_XSP16 add(XSP16, 75)
//  854     rejoinInf.nwkAddr = selectedTargetNwkAddr;
        MOV       DPTR,#selectedTargetNwkAddr
        LCALL     ??Subroutine63_0 & 0xFFFF
??CrossCallReturnLabel_139:
        MOV       A,#0x1c
        LCALL     ?XSTACK_DISP0_8
        LCALL     ??Subroutine49_0 & 0xFFFF
//  855     rejoinInf.nwkUpdateId = pRsp->nwkUpdateId;
??CrossCallReturnLabel_88:
        MOV       DPTR,#rxRsp + 13
        MOVX      A,@DPTR
        PUSH      A
          CFI CFA_SP SP+-1
        MOV       A,#0x18
        LCALL     ?XSTACK_DISP0_8
        POP       A
          CFI CFA_SP SP+0
        MOVX      @DPTR,A
//  856       
//  857     touchLink_DevRejoin( &rejoinInf );
        ; Setup parameters for call to function touchLink_DevRejoin
        MOV       A,#0x10
        LCALL     ?XSTACK_DISP101_8
        LCALL     `??touchLink_DevRejoin::?relay`; Banked call to: touchLink_DevRejoin
//  858 
//  859     // return unprocessed events
//  860     return ( events ^ TOUCHLINK_START_NWK_EVT );
        MOV       A,R6
        XRL       A,#0x4
        LJMP      ??touchLinkInitiator_event_loop_32 & 0xFFFF
//  861   }
//  862 
//  863   if ( events & TOUCHLINK_W4_NWK_JOIN_RSP_EVT )
??touchLinkInitiator_event_loop_36:
        MOV       A,R3
        ANL       A,#0x1
        JZ        ??touchLinkInitiator_event_loop_37
//  864   {
//  865     bdbTLNwkJoinRsp_t *pRsp = &(rxRsp.nwkJoinRsp);
//  866 
//  867     if ( pRsp->status == TOUCHLINK_NETWORK_JOIN_RSP_STATUS_SUCCESS )
        MOV       DPTR,#rxRsp + 4
        MOVX      A,@DPTR
        JNZ       ??touchLinkInitiator_event_loop_38
//  868     {
//  869       // Wait at least BDBCTL_MIN_STARTUP_DELAY_TIME seconds to allow the
//  870       // target to start operating on the network correctly. Notify the
//  871       // application afterwards.
//  872       osal_start_timerEx( touchLinkInitiator_TaskID, TOUCHLINK_NOTIFY_APP_EVT,
//  873                           BDBCTL_MIN_STARTUP_DELAY_TIME );
        ; Setup parameters for call to function osal_start_timerEx
        MOV       DPTR,#__Constant_7d0
        LCALL     ?PUSH_XSTACK8_X_FOUR
          CFI CFA_XSP16 add(XSP16, 79)
        MOV       R2,#0x0
        MOV       R3,#0x8
        LCALL     ??Subroutine59_0 & 0xFFFF
??CrossCallReturnLabel_119:
        LCALL     ?DEALLOC_XSTACK8
          CFI CFA_XSP16 add(XSP16, 75)
//  874       
//  875       // Establish bind links
//  876       if ( pRespondentHead != NULL )
        MOV       DPTR,#pRespondentHead
        LCALL     ??Subroutine62_0 & 0xFFFF
??CrossCallReturnLabel_127:
        JZ        ??touchLinkInitiator_event_loop_39
//  877       {
//  878         AddrMgrEntry_t entry;
//  879 
//  880         // add the device's address information
//  881         entry.user    = ADDRMGR_USER_BINDING;
        MOV       A,#0x1e
        LCALL     ?XSTACK_DISP0_8
        MOV       A,#0x4
        MOVX      @DPTR,A
//  882         entry.nwkAddr = selectedTargetNwkAddr;
        MOV       DPTR,#selectedTargetNwkAddr
        LCALL     ??Subroutine63_0 & 0xFFFF
??CrossCallReturnLabel_140:
        MOV       A,#0x1f
        LCALL     ?XSTACK_DISP0_8
        LCALL     ??Subroutine49_0 & 0xFFFF
//  883         osal_cpyExtAddr( entry.extAddr, selectedTargetIEEEAddr );
??CrossCallReturnLabel_89:
        ; Setup parameters for call to function sAddrExtCpy
        MOV       R4,#selectedTargetIEEEAddr & 0xff
        MOV       R5,#(selectedTargetIEEEAddr >> 8) & 0xff
        MOV       A,#0x21
        LCALL     ?XSTACK_DISP0_8
        MOV       R2,DPL
        MOV       R3,DPH
        LCALL     `??sAddrExtCpy::?relay`; Banked call to: sAddrExtCpy
//  884         AddrMgrEntryUpdate( &entry );
        ; Setup parameters for call to function AddrMgrEntryUpdate
        MOV       A,#0x1e
        LCALL     ?XSTACK_DISP101_8
        LCALL     `??AddrMgrEntryUpdate::?relay`; Banked call to: AddrMgrEntryUpdate
//  885         osal_start_timerEx( bdb_TaskID, BDB_RESPONDENT_PROCESS_TIMEOUT, SIMPLEDESC_RESPONSE_TIMEOUT );
        ; Setup parameters for call to function osal_start_timerEx
        MOV       DPTR,#__Constant_1388
        LCALL     ?PUSH_XSTACK8_X_FOUR
          CFI CFA_XSP16 add(XSP16, 79)
        MOV       R2,#0x0
        MOV       R3,#0x40
        MOV       DPTR,#bdb_TaskID
        LCALL     ??Subroutine60_0 & 0xFFFF
//  886       }
??CrossCallReturnLabel_123:
        LCALL     ?DEALLOC_XSTACK8
          CFI CFA_XSP16 add(XSP16, 75)
//  887       
//  888       // We're done with touch-link procedure here
//  889       initiatorSetNwkToInitState();
??touchLinkInitiator_event_loop_39:
        ; Setup parameters for call to function initiatorSetNwkToInitState
        LCALL     `??initiatorSetNwkToInitState::?relay`; Banked call to: initiatorSetNwkToInitState
//  890       //bdbAttributes.bdbCommissioningStatus = BDB_COMMISSIONING_SUCCESS;
//  891       //bdb_reportCommissioningState( BDB_COMMISSIONING_STATE_TL, TRUE );
//  892 
//  893       touchLink_UpdateNV( TOUCHLINK_UPDATE_NV_RANGES );
        ; Setup parameters for call to function touchLink_UpdateNV
        MOV       R1,#0x2
        LCALL     `??touchLink_UpdateNV::?relay`; Banked call to: touchLink_UpdateNV
//  894 
//  895       if ( ( POLL_RATE == 0 ) && ( selectedTarget.scanRsp.zLogicalType == ZG_DEVICETYPE_ENDDEVICE ) )
        SJMP      ??CrossCallReturnLabel_31
//  896       {
//  897         //allow to respond to TOUCHLINK commission utility commands after TL
//  898         NLME_SetPollRate( TOUCHLINK_INITIATOR_TEMP_POST_TL_POLL_RATE );
//  899         //polling should reset when TL life time expires
//  900       }
//  901     }
//  902     else 
//  903     {
//  904       touchLink_SendLeaveReq( );
??touchLinkInitiator_event_loop_38:
        ; Setup parameters for call to function touchLink_SendLeaveReq
        LCALL     `??touchLink_SendLeaveReq::?relay`; Banked call to: touchLink_SendLeaveReq
//  905       bdbAttributes.bdbCommissioningStatus = BDB_COMMISSIONING_TL_TARGET_FAILURE;
        MOV       DPTR,#bdbAttributes + 10
        MOV       A,#0x3
        LCALL     ?Subroutine30 & 0xFFFF
//  906       bdb_reportCommissioningState( BDB_COMMISSIONING_STATE_TL, FALSE );
//  907     }
//  908 
//  909     // return unprocessed events
//  910     return ( events ^ TOUCHLINK_W4_NWK_JOIN_RSP_EVT );
??CrossCallReturnLabel_31:
        MOV       A,R6
        MOV       R2,A
        MOV       A,R7
        XRL       A,#0x1
        LJMP      ??touchLinkInitiator_event_loop_5 & 0xFFFF
//  911   }
//  912 
//  913   if ( events & TOUCHLINK_NWK_JOIN_IND_EVT )
??touchLinkInitiator_event_loop_37:
        MOV       A,R2
        ANL       A,#0x2
        JZ        ??touchLinkInitiator_event_loop_40
//  914   {
//  915     // If not factory new, perform a Leave on our old network
//  916     if ( ( bdbAttributes.bdbNodeIsOnANetwork == TRUE ) && ( touchLink_SendLeaveReq( ) == ZSuccess ) )
        MOV       DPTR,#bdbAttributes + 14
        MOVX      A,@DPTR
        XRL       A,#0x1
        JNZ       ??touchLinkInitiator_event_loop_41
        ; Setup parameters for call to function touchLink_SendLeaveReq
        LCALL     `??touchLink_SendLeaveReq::?relay`; Banked call to: touchLink_SendLeaveReq
        MOV       A,R1
        JNZ       ??touchLinkInitiator_event_loop_41
//  917     {
//  918       // Wait for Leave confirmation before joining the new network
//  919       touchLinkLeaveInitiated = TOUCHLINK_LEAVE_TO_JOIN_NWK;
        MOV       DPTR,#touchLinkLeaveInitiated
        MOV       A,#0x1
        MOVX      @DPTR,A
        SJMP      ??CrossCallReturnLabel_174
//  920     }
//  921     else
//  922     {
//  923 #if ( ZSTACK_ROUTER_BUILD )
//  924       // Notify our task to join this network
//  925       osal_set_event( touchLinkInitiator_TaskID, TOUCHLINK_JOIN_NWK_ATTEMPT_EVT );
??touchLinkInitiator_event_loop_41:
        ; Setup parameters for call to function osal_set_event
        MOV       R2,#0x8
        MOV       R3,#0x0
        LCALL     ??Subroutine68_0 & 0xFFFF
//  926 #else
//  927       bdbTLNwkParams_t *pParams = &(joinReq.nwkParams);
//  928       
//  929       // Notify our task to join this network
//  930       // Perform Network Discovery to verify our new network parameters uniqeness
//  931       touchLink_PerformNetworkDisc( (uint32)1 << pParams->logicalChannel );
//  932 #endif
//  933     }
//  934 
//  935     // return unprocessed events
//  936     return ( events ^ TOUCHLINK_NWK_JOIN_IND_EVT );
??CrossCallReturnLabel_174:
        MOV       A,R6
        XRL       A,#0x2
        LJMP      ??touchLinkInitiator_event_loop_32 & 0xFFFF
//  937   }
//  938 
//  939   if ( events & TOUCHLINK_JOIN_NWK_ATTEMPT_EVT )
??touchLinkInitiator_event_loop_40:
        MOV       A,R2
        ANL       A,#0x8
        JZ        ??touchLinkInitiator_event_loop_42
//  940   {
//  941     // Join the network
//  942 #if ( ZSTACK_ROUTER_BUILD )
//  943     initiatorJoinNwk();
        ; Setup parameters for call to function touchLink_UpdateNV
        MOV       R1,#0x2
        LCALL     `??touchLink_UpdateNV::?relay`; Banked call to: touchLink_UpdateNV
        MOV       DPTR,#touchLinkLeaveInitiated
        CLR       A
        MOVX      @DPTR,A
        ; Setup parameters for call to function ZDApp_LeaveCtrlReset
        LCALL     `??ZDApp_LeaveCtrlReset::?relay`; Banked call to: ZDApp_LeaveCtrlReset
        ; Setup parameters for call to function touchLink_PermitJoin
        MOV       R1,#0x0
        LCALL     `??touchLink_PermitJoin::?relay`; Banked call to: touchLink_PermitJoin
        ; Setup parameters for call to function ZDOInitDeviceEx
        MOV       R1,#0x0
        MOV       R2,#0x0
        MOV       R3,#0x0
        LCALL     `??ZDOInitDeviceEx::?relay`; Banked call to: ZDOInitDeviceEx
        MOV       DPTR,#_NIB + 35
        MOV       A,#0x9
        MOVX      @DPTR,A
        ; Setup parameters for call to function initiatorReJoinNwk
        MOV       R1,#0x3
        LCALL     `??initiatorReJoinNwk::?relay`; Banked call to: initiatorReJoinNwk
//  944 #else
//  945     bdbTLNwkParams_t *pParams = &(joinReq.nwkParams);
//  946     
//  947     bdbTLNwkRejoin_t rejoinInf;
//  948          
//  949     rejoinInf.panId = pParams->panId;
//  950     rejoinInf.logicalChannel = pParams->logicalChannel;
//  951     osal_memcpy( rejoinInf.extendedPANID, pParams->extendedPANID, Z_EXTADDR_LEN);
//  952     rejoinInf.nwkAddr = pDiscoveredNwkParamList->chosenRouter;
//  953     rejoinInf.nwkUpdateId = joinReq.nwkUpdateId;
//  954       
//  955     touchLink_DevRejoin( &rejoinInf );
//  956 #endif
//  957     touchLink_FreeNwkParamList();
        ; Setup parameters for call to function touchLink_FreeNwkParamList
        LCALL     `??touchLink_FreeNwkParamList::?relay`; Banked call to: touchLink_FreeNwkParamList
//  958 
//  959     // return unprocessed events
//  960     return ( events ^ TOUCHLINK_JOIN_NWK_ATTEMPT_EVT );
        MOV       A,R6
        XRL       A,#0x8
        LJMP      ??touchLinkInitiator_event_loop_32 & 0xFFFF
//  961   }
//  962 
//  963   if ( events & TOUCHLINK_DISABLE_RX_EVT )
??touchLinkInitiator_event_loop_42:
        MOV       A,R3
        ANL       A,#0x2
        JZ        ??touchLinkInitiator_event_loop_43
//  964   {
//  965     // We're not asked to join a network
//  966     initiatorSetNwkToInitState();
        ; Setup parameters for call to function initiatorSetNwkToInitState
        LCALL     `??initiatorSetNwkToInitState::?relay`; Banked call to: initiatorSetNwkToInitState
//  967 
//  968     scanReqChannels = TOUCHLINK_SCAN_PRIMARY_CHANNELS;
        MOV       DPTR,#scanReqChannels
        MOV       A,#0x1
        MOVX      @DPTR,A
//  969     numScanReqSent = 0;
        MOV       DPTR,#numScanReqSent
        CLR       A
        MOVX      @DPTR,A
//  970     // Reset selected target
//  971     if ( zTouchLinkNwkStartRtr == FALSE )
        MOV       DPTR,#zTouchLinkNwkStartRtr
        MOVX      A,@DPTR
        JNZ       ??touchLinkInitiator_event_loop_44
//  972     {
//  973       initiatorClearSelectedTarget();
        ; Setup parameters for call to function initiatorClearSelectedTarget
        LCALL     `??initiatorClearSelectedTarget::?relay`; Banked call to: initiatorClearSelectedTarget
//  974     }
//  975 
//  976     // return unprocessed events
//  977     return ( events ^ TOUCHLINK_DISABLE_RX_EVT );
??touchLinkInitiator_event_loop_44:
        MOV       A,R6
        MOV       R2,A
        MOV       A,R7
        XRL       A,#0x2
        LJMP      ??touchLinkInitiator_event_loop_5 & 0xFFFF
//  978   }
//  979 
//  980   if ( events & TOUCHLINK_W4_REJOIN_EVT )
??touchLinkInitiator_event_loop_43:
        MOV       A,R3
        ANL       A,#0x4
        JZ        ??touchLinkInitiator_event_loop_45
//  981   {
//  982     // Stop joining cycle
//  983     ZDApp_StopJoiningCycle();
        ; Setup parameters for call to function ZDApp_StopJoiningCycle
        LCALL     `??ZDApp_StopJoiningCycle::?relay`; Banked call to: ZDApp_StopJoiningCycle
//  984 
//  985     // return unprocessed events
//  986     return ( events ^ TOUCHLINK_W4_REJOIN_EVT );
        MOV       A,R6
        MOV       R2,A
        MOV       A,R7
        XRL       A,#0x4
        LJMP      ??touchLinkInitiator_event_loop_5 & 0xFFFF
//  987   }
//  988 
//  989   if ( events & TOUCHLINK_NOTIFY_APP_EVT )
??touchLinkInitiator_event_loop_45:
        MOV       A,R3
        ANL       A,#0x8
        JZ        ??touchLinkInitiator_event_loop_46
//  990   {
//  991     ZDP_DeviceAnnce( NLME_GetShortAddr(), NLME_GetExtAddr(),
//  992                      ZDO_Config_Node_Descriptor.CapabilityFlags, 0 );
        ; Setup parameters for call to function NLME_GetExtAddr
        LCALL     `??NLME_GetExtAddr::?relay`; Banked call to: NLME_GetExtAddr
        MOV       ?V0,R2
        MOV       ?V1,R3
        ; Setup parameters for call to function NLME_GetShortAddr
        LCALL     `??NLME_GetShortAddr::?relay`; Banked call to: NLME_GetShortAddr
        ; Setup parameters for call to function ZDP_DeviceAnnce
        MOV       ?V3,#0x0
        MOV       R0,#?V3
        LCALL     ?PUSH_XSTACK_I_ONE
          CFI CFA_XSP16 add(XSP16, 76)
        MOV       DPTR,#ZDO_Config_Node_Descriptor + 2
        MOVX      A,@DPTR
        MOV       R1,A
        MOV       R4,?V0
        MOV       R5,?V1
        LCALL     `??ZDP_DeviceAnnce::?relay`; Banked call to: ZDP_DeviceAnnce
        MOV       A,#0x1
        LCALL     ?DEALLOC_XSTACK8
          CFI CFA_XSP16 add(XSP16, 75)
//  993     
//  994     if ( selectedTarget.lastRssi > TOUCHLINK_WORST_RSSI )
        MOV       DPTR,#selectedTarget + 53
        MOVX      A,@DPTR
        LCALL     ?Subroutine35 & 0xFFFF
??CrossCallReturnLabel_46:
        JC        ??touchLinkInitiator_event_loop_47
//  995     {
//  996       epInfoRec_t rec;
//  997       rec.nwkAddr = selectedTarget.newNwkAddr; // newly assigned network address
        MOV       DPTR,#selectedTarget + 50
        LCALL     ?Subroutine14 & 0xFFFF
//  998       rec.endpoint = selectedTarget.scanRsp.deviceInfo.endpoint;
??CrossCallReturnLabel_8:
        PUSH      A
          CFI CFA_SP SP+-1
        MOV       A,#0x2
        LCALL     ?XSTACK_DISP0_8
        POP       A
          CFI CFA_SP SP+0
        MOVX      @DPTR,A
//  999       rec.profileID = selectedTarget.scanRsp.deviceInfo.profileID;
        MOV       DPTR,#selectedTarget + 32
        LCALL     ??Subroutine63_0 & 0xFFFF
??CrossCallReturnLabel_141:
        MOV       A,#0x3
        LCALL     ?XSTACK_DISP0_8
        LCALL     ?Subroutine25 & 0xFFFF
// 1000       rec.deviceID = selectedTarget.scanRsp.deviceInfo.deviceID;
??CrossCallReturnLabel_131:
        MOV       A,#0x5
        LCALL     ?XSTACK_DISP0_8
        LCALL     ?Subroutine31 & 0xFFFF
// 1001       rec.version = selectedTarget.scanRsp.deviceInfo.version;
??CrossCallReturnLabel_33:
        PUSH      A
          CFI CFA_SP SP+-1
        MOV       A,#0x7
        LCALL     ?XSTACK_DISP0_8
        POP       A
          CFI CFA_SP SP+0
        LCALL     ?Subroutine13 & 0xFFFF
// 1002       // Notify the application
// 1003       if ( pfnNotifyAppCB )
??CrossCallReturnLabel_125:
        JZ        ??touchLinkInitiator_event_loop_47
// 1004       {
// 1005         (*pfnNotifyAppCB)( &rec );
        ; Setup parameters for indirect call
        LCALL     ?Subroutine23 & 0xFFFF
// 1006       }
// 1007     }
??CrossCallReturnLabel_160:
        LCALL     ?CALL_IND
// 1008     // return unprocessed events
// 1009     return ( events ^ TOUCHLINK_NOTIFY_APP_EVT );
??touchLinkInitiator_event_loop_47:
        MOV       A,R6
        MOV       R2,A
        MOV       A,R7
        XRL       A,#0x8
        LJMP      ??touchLinkInitiator_event_loop_5 & 0xFFFF
// 1010   }
// 1011   
// 1012   if ( events & TOUCHLINK_NWK_RTR_START_EVT )
??touchLinkInitiator_event_loop_46:
        MOV       A,R3
        ANL       A,#0x10
        JNZ       $+5
        LJMP      ??touchLinkInitiator_event_loop_48 & 0xFFFF
// 1013   {
// 1014     uint16 nwkAddr = INVALID_NODE_ADDR;
        MOV       A,#0xe
        LCALL     ?XSTACK_DISP0_8
        MOV       A,#-0x2
        MOVX      @DPTR,A
        INC       DPTR
        INC       A
        MOVX      @DPTR,A
// 1015     
// 1016     osal_nv_write( ZCD_NV_NIB, osal_offsetof( nwkIB_t, nwkDevAddress ),
// 1017                    sizeof( uint16), &nwkAddr );
        ; Setup parameters for call to function osal_nv_write
        MOV       A,#0xe
        LCALL     ?XSTACK_DISP100_8
        MOV       ?V0,R0
        MOV       ?V1,R1
        MOV       R0,#?V0
        LCALL     ?PUSH_XSTACK_I_TWO
          CFI CFA_XSP16 add(XSP16, 77)
        MOV       ?V0,#0x2
        MOV       ?V1,#0x0
        MOV       R0,#?V0
        LCALL     ?PUSH_XSTACK_I_TWO
          CFI CFA_XSP16 add(XSP16, 79)
        MOV       R4,#0x14
        MOV       R5,#0x0
        MOV       R2,#0x21
        MOV       R3,#0x0
        LCALL     `??osal_nv_write::?relay`; Banked call to: osal_nv_write
        MOV       A,#0x4
        LCALL     ?DEALLOC_XSTACK8
          CFI CFA_XSP16 add(XSP16, 75)
// 1018     
// 1019     // If the PAN Id, Extended PAN Id or Logical Channel are zero then
// 1020     // determine each of these parameters
// 1021     if ( !nwk_ExtPANIDValid( initiatorNwkParams.extendedPANID ) )
        ; Setup parameters for call to function nwk_ExtPANIDValid
        MOV       R2,#initiatorNwkParams & 0xff
        MOV       R3,#(initiatorNwkParams >> 8) & 0xff
        LCALL     `??nwk_ExtPANIDValid::?relay`; Banked call to: nwk_ExtPANIDValid
        MOV       A,R1
        JNZ       ??touchLinkInitiator_event_loop_49
// 1022     {
// 1023       touchLink_GenerateRandNum( initiatorNwkParams.extendedPANID, Z_EXTADDR_LEN );
        ; Setup parameters for call to function touchLink_GenerateRandNum
        MOV       R1,#0x8
        MOV       R2,#initiatorNwkParams & 0xff
        MOV       R3,#(initiatorNwkParams >> 8) & 0xff
        LCALL     `??touchLink_GenerateRandNum::?relay`; Banked call to: touchLink_GenerateRandNum
// 1024     }
// 1025 
// 1026     if ( initiatorNwkParams.panId == 0 )
??touchLinkInitiator_event_loop_49:
        MOV       DPTR,#initiatorNwkParams + 26
        LCALL     ??Subroutine62_0 & 0xFFFF
??CrossCallReturnLabel_128:
        JNZ       ??CrossCallReturnLabel_78
// 1027     {
// 1028       initiatorNwkParams.panId = osal_rand();
        ; Setup parameters for call to function osal_rand
        LCALL     `??osal_rand::?relay`; Banked call to: osal_rand
        MOV       DPTR,#initiatorNwkParams + 26
        LCALL     ?Subroutine26 & 0xFFFF
// 1029     }
// 1030 
// 1031     if ( initiatorNwkParams.logicalChannel == 0 )
??CrossCallReturnLabel_78:
        MOV       DPTR,#initiatorNwkParams + 25
        MOVX      A,@DPTR
        JNZ       ??touchLinkInitiator_event_loop_50
// 1032     {
// 1033       initiatorNwkParams.logicalChannel = touchLink_GetRandPrimaryChannel();
        ; Setup parameters for call to function touchLink_GetRandPrimaryChannel
        LCALL     `??touchLink_GetRandPrimaryChannel::?relay`; Banked call to: touchLink_GetRandPrimaryChannel
        MOV       A,R1
        MOV       DPTR,#initiatorNwkParams + 25
        MOVX      @DPTR,A
// 1034     }
// 1035 
// 1036     if ( selectedTarget.scanRsp.touchLinkAddressAssignment)
??touchLinkInitiator_event_loop_50:
        MOV       DPTR,#selectedTarget + 7
        MOVX      A,@DPTR
        ANL       A,#0x2
        JZ        ??touchLinkInitiator_event_loop_51
// 1037     {
// 1038       touchLink_GerFreeRanges( &initiatorNwkParams );
        ; Setup parameters for call to function touchLink_GerFreeRanges
        MOV       R2,#initiatorNwkParams & 0xff
        MOV       R3,#(initiatorNwkParams >> 8) & 0xff
        LCALL     `??touchLink_GerFreeRanges::?relay`; Banked call to: touchLink_GerFreeRanges
// 1039     }
// 1040 
// 1041     // Perform Network Discovery to verify our new network parameters uniqeness
// 1042     touchLink_PerformNetworkDisc( (uint32)1 << initiatorNwkParams.logicalChannel );
??touchLinkInitiator_event_loop_51:
        ; Setup parameters for call to function touchLink_PerformNetworkDisc
        MOV       ?V4,#0x1
        MOV       ?V5,#0x0
        MOV       ?V6,#0x0
        MOV       ?V7,#0x0
        MOV       DPTR,#initiatorNwkParams + 25
        MOVX      A,@DPTR
        MOV       R0,#?V4
        LCALL     ?L_SHL
        MOV       R2,?V4
        MOV       R3,?V5
        MOV       R4,?V6
        MOV       R5,?V7
        LCALL     `??touchLink_PerformNetworkDisc::?relay`; Banked call to: touchLink_PerformNetworkDisc
// 1043 
// 1044     // return unprocessed events
// 1045     return ( events ^ TOUCHLINK_NWK_RTR_START_EVT );
        MOV       A,R6
        MOV       R2,A
        MOV       A,R7
        XRL       A,#0x10
        LJMP      ??touchLinkInitiator_event_loop_5 & 0xFFFF
// 1046   }
// 1047   
// 1048   if ( events & TOUCHLINK_NWK_FORMATION_SUCCESS_EVT )
??touchLinkInitiator_event_loop_48:
        MOV       A,R3
        ANL       A,#0x20
        JZ        ??touchLinkInitiator_event_loop_52
// 1049   {
// 1050     if( bdbCommissioningProcedureState.bdbCommissioningState == BDB_COMMISSIONING_STATE_TL )
        MOV       DPTR,#bdbCommissioningProcedureState
        MOVX      A,@DPTR
        XRL       A,#0x2
        JNZ       ??touchLinkInitiator_event_loop_53
// 1051     {
// 1052       bdbTLNwkJoinRsp_t *pRsp = &(rxRsp.nwkJoinRsp);
// 1053       pRsp->status = TOUCHLINK_NETWORK_JOIN_RSP_STATUS_FAILURE;
        MOV       DPTR,#rxRsp + 4
        MOV       A,#0x1
        MOVX      @DPTR,A
// 1054       
// 1055       // Tune to the channel that the Scan Response was heard on
// 1056       touchLink_SetChannel( selectedTarget.rxChannel );
        ; Setup parameters for call to function touchLink_SetChannel
        LCALL     ?Subroutine17 & 0xFFFF
// 1057       
// 1058       if ( _NIB.nwkUpdateId <= selectedTarget.scanRsp.nwkUpdateId )
??CrossCallReturnLabel_182:
        MOV       DPTR,#selectedTarget + 23
        MOVX      A,@DPTR
        MOV       R1,A
        MOV       DPTR,#_NIB + 109
        MOVX      A,@DPTR
        MOV       R0,A
        MOV       A,R1
        CLR       C
        SUBB      A,R0
        JC        ??touchLinkInitiator_event_loop_54
// 1059       {
// 1060         NLME_SetUpdateID( selectedTarget.scanRsp.nwkUpdateId );
        ; Setup parameters for call to function NLME_SetUpdateID
        LCALL     `??NLME_SetUpdateID::?relay`; Banked call to: NLME_SetUpdateID
// 1061       }
// 1062       // Ask the target to join our network
// 1063       bdb_Initiator_SendNwkJoinReq( );
??touchLinkInitiator_event_loop_54:
        ; Setup parameters for call to function bdb_Initiator_SendNwkJoinReq
        LCALL     `??bdb_Initiator_SendNwkJoinReq::?relay`; Banked call to: bdb_Initiator_SendNwkJoinReq
// 1064       zTouchLinkNwkStartRtr = FALSE;
        MOV       DPTR,#zTouchLinkNwkStartRtr
        CLR       A
        MOVX      @DPTR,A
// 1065     }
// 1066     return ( events ^ TOUCHLINK_NWK_FORMATION_SUCCESS_EVT );
??touchLinkInitiator_event_loop_53:
        MOV       A,R6
        MOV       R2,A
        MOV       A,R7
        XRL       A,#0x20
        SJMP      ??touchLinkInitiator_event_loop_5
// 1067   }
// 1068 
// 1069   if ( events & TOUCHLINK_NWK_DISC_CNF_EVT )
??touchLinkInitiator_event_loop_52:
        MOV       A,R2
        MOV       C,0xE0 /* A   */.0
        JNC       ??touchLinkInitiator_event_loop_55
// 1070   {
// 1071 #if ZSTACK_ROUTER_BUILD
// 1072     if ( bdbAttributes.bdbNodeIsOnANetwork == FALSE )
        MOV       DPTR,#bdbAttributes + 14
        MOVX      A,@DPTR
        JNZ       ??touchLinkInitiator_event_loop_56
// 1073     {
// 1074       initiatorNwkParams.nwkAddr = APL_FREE_NWK_ADDR_RANGE_BEGIN;
        MOV       DPTR,#initiatorNwkParams + 28
        MOV       A,#0x1
        MOVX      @DPTR,A
        INC       DPTR
        CLR       A
        MOVX      @DPTR,A
// 1075     }
// 1076     // Copy in the encrypted network key
// 1077     touchLink_EncryptNwkKey( initiatorNwkParams.nwkKey, initiatorNwkParams.keyIndex, touchLinkTransID, touchLinkResponseID );
??touchLinkInitiator_event_loop_56:
        ; Setup parameters for call to function touchLink_EncryptNwkKey
        MOV       DPTR,#touchLinkResponseID
        LCALL     ?PUSH_XSTACK8_X_FOUR
          CFI CFA_XSP16 add(XSP16, 79)
        MOV       DPTR,#touchLinkTransID
        LCALL     ?PUSH_XSTACK8_X_FOUR
          CFI CFA_XSP16 add(XSP16, 83)
        MOV       DPTR,#initiatorNwkParams + 8
        MOVX      A,@DPTR
        MOV       R1,A
        MOV       R2,#(initiatorNwkParams + 9) & 0xff
        MOV       R3,#((initiatorNwkParams + 9) >> 8) & 0xff
        LCALL     `??touchLink_EncryptNwkKey::?relay`; Banked call to: touchLink_EncryptNwkKey
        MOV       A,#0x8
        LCALL     ?DEALLOC_XSTACK8
          CFI CFA_XSP16 add(XSP16, 75)
// 1078     // Start operating on the new network
// 1079     touchLinkStartRtr( &initiatorNwkParams, touchLinkTransID );
        ; Setup parameters for call to function touchLinkStartRtr
        MOV       DPTR,#touchLinkTransID
        LCALL     ?PUSH_XSTACK8_X_FOUR
          CFI CFA_XSP16 add(XSP16, 79)
        MOV       R2,#initiatorNwkParams & 0xff
        MOV       R3,#(initiatorNwkParams >> 8) & 0xff
        LCALL     `??touchLinkStartRtr::?relay`; Banked call to: touchLinkStartRtr
        MOV       A,#0x4
        LCALL     ?DEALLOC_XSTACK8
          CFI CFA_XSP16 add(XSP16, 75)
// 1080 #else
// 1081     // Join to the chosen network
// 1082     osal_set_event( touchLinkInitiator_TaskID, TOUCHLINK_JOIN_NWK_ATTEMPT_EVT );
// 1083 #endif
// 1084     // return unprocessed events
// 1085     return ( events ^ TOUCHLINK_NWK_DISC_CNF_EVT );
        MOV       A,R6
        XRL       A,#0x1
        SJMP      ??touchLinkInitiator_event_loop_32
// 1086   }
// 1087 
// 1088   if ( events & TOUCHLINK_TRANS_LIFETIME_EXPIRED_EVT )
??touchLinkInitiator_event_loop_55:
        ANL       A,#0x10
        JZ        ??touchLinkInitiator_event_loop_57
// 1089   {
// 1090     touchLinkTransID = 0;
        MOV       DPTR,#touchLinkTransID
        CLR       A
        MOVX      @DPTR,A
        INC       DPTR
        MOVX      @DPTR,A
        INC       DPTR
        MOVX      @DPTR,A
        INC       DPTR
        MOVX      @DPTR,A
// 1091     initiatorClearSelectedTarget();
        ; Setup parameters for call to function initiatorClearSelectedTarget
        LCALL     `??initiatorClearSelectedTarget::?relay`; Banked call to: initiatorClearSelectedTarget
// 1092     initiatorSetNwkToInitState();
        ; Setup parameters for call to function initiatorSetNwkToInitState
        LCALL     `??initiatorSetNwkToInitState::?relay`; Banked call to: initiatorSetNwkToInitState
// 1093 
// 1094     // return unprocessed events
// 1095     return ( events ^ TOUCHLINK_TRANS_LIFETIME_EXPIRED_EVT );
        MOV       A,R6
        XRL       A,#0x10
??touchLinkInitiator_event_loop_32:
        MOV       R2,A
        MOV       A,R7
??touchLinkInitiator_event_loop_5:
        MOV       R3,A
        SJMP      ??touchLinkInitiator_event_loop_58
// 1096   }
// 1097 
// 1098   // If reach here, the events are unknown
// 1099   // Discard or make more handlers
// 1100   return 0;
??touchLinkInitiator_event_loop_57:
        MOV       R2,#0x0
        MOV       R3,#0x0
??touchLinkInitiator_event_loop_58:
        MOV       A,#0x3b
        LJMP      ?Subroutine1 & 0xFFFF
// 1101 }
          CFI EndBlock cfiBlock24

        RSEG BANKED_CODE:HUGECODE:NOROOT(0)
?Subroutine31:
          CFI Block cfiCond25 Using cfiCommon0
          CFI Function touchLinkInitiator_event_loop
          CFI Conditional ??CrossCallReturnLabel_32
          CFI R6 load(1, XDATA, add(CFA_XSP16, literal(-16)))
          CFI VB load(1, XDATA, add(CFA_XSP16, literal(-15)))
          CFI V0 load(1, XDATA, add(CFA_XSP16, literal(-14)))
          CFI V1 load(1, XDATA, add(CFA_XSP16, literal(-13)))
          CFI V2 load(1, XDATA, add(CFA_XSP16, literal(-12)))
          CFI V3 load(1, XDATA, add(CFA_XSP16, literal(-11)))
          CFI V4 load(1, XDATA, add(CFA_XSP16, literal(-10)))
          CFI V5 load(1, XDATA, add(CFA_XSP16, literal(-9)))
          CFI V6 load(1, XDATA, add(CFA_XSP16, literal(-8)))
          CFI V7 load(1, XDATA, add(CFA_XSP16, literal(-7)))
          CFI R7 load(1, XDATA, add(CFA_XSP16, literal(-6)))
          CFI ?RET_LOW load(1, XDATA, add(CFA_XSP16, literal(-5)))
          CFI ?RET_HIGH load(1, XDATA, add(CFA_XSP16, literal(-4)))
          CFI ?BRET_EXT load(1, XDATA, add(CFA_XSP16, literal(-3)))
          CFI DPL0 load(1, XDATA, add(CFA_XSP16, literal(-2)))
          CFI DPH0 load(1, XDATA, add(CFA_XSP16, literal(-1)))
          CFI CFA_SP SP+-2
          CFI CFA_XSP16 add(XSP16, 75)
          CFI Block cfiCond26 Using cfiCommon0
          CFI (cfiCond26) Function touchLinkInitiator_event_loop
          CFI (cfiCond26) Conditional ??CrossCallReturnLabel_33
          CFI (cfiCond26) R6 load(1, XDATA, add(CFA_XSP16, literal(-16)))
          CFI (cfiCond26) VB load(1, XDATA, add(CFA_XSP16, literal(-15)))
          CFI (cfiCond26) V0 load(1, XDATA, add(CFA_XSP16, literal(-14)))
          CFI (cfiCond26) V1 load(1, XDATA, add(CFA_XSP16, literal(-13)))
          CFI (cfiCond26) V2 load(1, XDATA, add(CFA_XSP16, literal(-12)))
          CFI (cfiCond26) V3 load(1, XDATA, add(CFA_XSP16, literal(-11)))
          CFI (cfiCond26) V4 load(1, XDATA, add(CFA_XSP16, literal(-10)))
          CFI (cfiCond26) V5 load(1, XDATA, add(CFA_XSP16, literal(-9)))
          CFI (cfiCond26) V6 load(1, XDATA, add(CFA_XSP16, literal(-8)))
          CFI (cfiCond26) V7 load(1, XDATA, add(CFA_XSP16, literal(-7)))
          CFI (cfiCond26) R7 load(1, XDATA, add(CFA_XSP16, literal(-6)))
          CFI (cfiCond26) ?RET_LOW load(1, XDATA, add(CFA_XSP16, literal(-5)))
          CFI (cfiCond26) ?RET_HIGH load(1, XDATA, add(CFA_XSP16, literal(-4)))
          CFI (cfiCond26) ?BRET_EXT load(1, XDATA, add(CFA_XSP16, literal(-3)))
          CFI (cfiCond26) DPL0 load(1, XDATA, add(CFA_XSP16, literal(-2)))
          CFI (cfiCond26) DPH0 load(1, XDATA, add(CFA_XSP16, literal(-1)))
          CFI (cfiCond26) CFA_SP SP+-2
          CFI (cfiCond26) CFA_XSP16 add(XSP16, 75)
          CFI Block cfiPicker27 Using cfiCommon1
          CFI (cfiPicker27) NoFunction
          CFI (cfiPicker27) Picker
        MOV       A,R0
        MOVX      @DPTR,A
        INC       DPTR
        MOV       A,R1
        MOVX      @DPTR,A
        MOV       DPTR,#selectedTarget + 36
        MOVX      A,@DPTR
        RET
          CFI EndBlock cfiCond25
          CFI EndBlock cfiCond26
          CFI EndBlock cfiPicker27

        RSEG BANKED_CODE:HUGECODE:NOROOT(0)
?Subroutine30:
          CFI Block cfiCond28 Using cfiCommon0
          CFI Function touchLinkInitiator_event_loop
          CFI Conditional ??CrossCallReturnLabel_30
          CFI R6 load(1, XDATA, add(CFA_XSP16, literal(-16)))
          CFI VB load(1, XDATA, add(CFA_XSP16, literal(-15)))
          CFI V0 load(1, XDATA, add(CFA_XSP16, literal(-14)))
          CFI V1 load(1, XDATA, add(CFA_XSP16, literal(-13)))
          CFI V2 load(1, XDATA, add(CFA_XSP16, literal(-12)))
          CFI V3 load(1, XDATA, add(CFA_XSP16, literal(-11)))
          CFI V4 load(1, XDATA, add(CFA_XSP16, literal(-10)))
          CFI V5 load(1, XDATA, add(CFA_XSP16, literal(-9)))
          CFI V6 load(1, XDATA, add(CFA_XSP16, literal(-8)))
          CFI V7 load(1, XDATA, add(CFA_XSP16, literal(-7)))
          CFI R7 load(1, XDATA, add(CFA_XSP16, literal(-6)))
          CFI ?RET_LOW load(1, XDATA, add(CFA_XSP16, literal(-5)))
          CFI ?RET_HIGH load(1, XDATA, add(CFA_XSP16, literal(-4)))
          CFI ?BRET_EXT load(1, XDATA, add(CFA_XSP16, literal(-3)))
          CFI DPL0 load(1, XDATA, add(CFA_XSP16, literal(-2)))
          CFI DPH0 load(1, XDATA, add(CFA_XSP16, literal(-1)))
          CFI CFA_SP SP+-2
          CFI CFA_XSP16 add(XSP16, 75)
          CFI Block cfiCond29 Using cfiCommon0
          CFI (cfiCond29) Function touchLinkInitiator_event_loop
          CFI (cfiCond29) Conditional ??CrossCallReturnLabel_31
          CFI (cfiCond29) R6 load(1, XDATA, add(CFA_XSP16, literal(-16)))
          CFI (cfiCond29) VB load(1, XDATA, add(CFA_XSP16, literal(-15)))
          CFI (cfiCond29) V0 load(1, XDATA, add(CFA_XSP16, literal(-14)))
          CFI (cfiCond29) V1 load(1, XDATA, add(CFA_XSP16, literal(-13)))
          CFI (cfiCond29) V2 load(1, XDATA, add(CFA_XSP16, literal(-12)))
          CFI (cfiCond29) V3 load(1, XDATA, add(CFA_XSP16, literal(-11)))
          CFI (cfiCond29) V4 load(1, XDATA, add(CFA_XSP16, literal(-10)))
          CFI (cfiCond29) V5 load(1, XDATA, add(CFA_XSP16, literal(-9)))
          CFI (cfiCond29) V6 load(1, XDATA, add(CFA_XSP16, literal(-8)))
          CFI (cfiCond29) V7 load(1, XDATA, add(CFA_XSP16, literal(-7)))
          CFI (cfiCond29) R7 load(1, XDATA, add(CFA_XSP16, literal(-6)))
          CFI (cfiCond29) ?RET_LOW load(1, XDATA, add(CFA_XSP16, literal(-5)))
          CFI (cfiCond29) ?RET_HIGH load(1, XDATA, add(CFA_XSP16, literal(-4)))
          CFI (cfiCond29) ?BRET_EXT load(1, XDATA, add(CFA_XSP16, literal(-3)))
          CFI (cfiCond29) DPL0 load(1, XDATA, add(CFA_XSP16, literal(-2)))
          CFI (cfiCond29) DPH0 load(1, XDATA, add(CFA_XSP16, literal(-1)))
          CFI (cfiCond29) CFA_SP SP+-2
          CFI (cfiCond29) CFA_XSP16 add(XSP16, 75)
          CFI Block cfiPicker30 Using cfiCommon1
          CFI (cfiPicker30) NoFunction
          CFI (cfiPicker30) Picker
        MOVX      @DPTR,A
        ; Setup parameters for call to function bdb_reportCommissioningState
        ; Setup parameters for call to function bdb_reportCommissioningState
        MOV       R2,#0x0
        MOV       R1,#0x2
        LCALL     `??bdb_reportCommissioningState::?relay`; Banked call to: bdb_reportCommissioningState
        RET
          CFI EndBlock cfiCond28
          CFI EndBlock cfiCond29
          CFI EndBlock cfiPicker30

        RSEG BANKED_CODE:HUGECODE:NOROOT(0)
?Subroutine26:
          CFI Block cfiCond31 Using cfiCommon0
          CFI Function initiatorSelectNwkParams
          CFI Conditional ??CrossCallReturnLabel_76
          CFI DPL0 Frame(CFA_SP, 4)
          CFI DPH0 Frame(CFA_SP, 5)
          CFI CFA_SP SP+-7
          CFI Block cfiCond32 Using cfiCommon0
          CFI (cfiCond32) Function initiatorSelectNwkParams
          CFI (cfiCond32) Conditional ??CrossCallReturnLabel_77
          CFI (cfiCond32) DPL0 Frame(CFA_SP, 4)
          CFI (cfiCond32) DPH0 Frame(CFA_SP, 5)
          CFI (cfiCond32) CFA_SP SP+-7
          CFI Block cfiCond33 Using cfiCommon0
          CFI (cfiCond33) Function touchLinkInitiator_event_loop
          CFI (cfiCond33) Conditional ??CrossCallReturnLabel_78
          CFI (cfiCond33) R6 load(1, XDATA, add(CFA_XSP16, literal(-16)))
          CFI (cfiCond33) VB load(1, XDATA, add(CFA_XSP16, literal(-15)))
          CFI (cfiCond33) V0 load(1, XDATA, add(CFA_XSP16, literal(-14)))
          CFI (cfiCond33) V1 load(1, XDATA, add(CFA_XSP16, literal(-13)))
          CFI (cfiCond33) V2 load(1, XDATA, add(CFA_XSP16, literal(-12)))
          CFI (cfiCond33) V3 load(1, XDATA, add(CFA_XSP16, literal(-11)))
          CFI (cfiCond33) V4 load(1, XDATA, add(CFA_XSP16, literal(-10)))
          CFI (cfiCond33) V5 load(1, XDATA, add(CFA_XSP16, literal(-9)))
          CFI (cfiCond33) V6 load(1, XDATA, add(CFA_XSP16, literal(-8)))
          CFI (cfiCond33) V7 load(1, XDATA, add(CFA_XSP16, literal(-7)))
          CFI (cfiCond33) R7 load(1, XDATA, add(CFA_XSP16, literal(-6)))
          CFI (cfiCond33) ?RET_LOW load(1, XDATA, add(CFA_XSP16, literal(-5)))
          CFI (cfiCond33) ?RET_HIGH load(1, XDATA, add(CFA_XSP16, literal(-4)))
          CFI (cfiCond33) ?BRET_EXT load(1, XDATA, add(CFA_XSP16, literal(-3)))
          CFI (cfiCond33) DPL0 load(1, XDATA, add(CFA_XSP16, literal(-2)))
          CFI (cfiCond33) DPH0 load(1, XDATA, add(CFA_XSP16, literal(-1)))
          CFI (cfiCond33) CFA_SP SP+-2
          CFI (cfiCond33) CFA_XSP16 add(XSP16, 75)
          CFI Block cfiCond34 Using cfiCommon0
          CFI (cfiCond34) Function touchLinkInitiator_SendEPInfo
          CFI (cfiCond34) Conditional ??CrossCallReturnLabel_79
          CFI (cfiCond34) R6 load(1, XDATA, add(CFA_XSP16, literal(-12)))
          CFI (cfiCond34) VB load(1, XDATA, add(CFA_XSP16, literal(-11)))
          CFI (cfiCond34) V0 load(1, XDATA, add(CFA_XSP16, literal(-10)))
          CFI (cfiCond34) V1 load(1, XDATA, add(CFA_XSP16, literal(-9)))
          CFI (cfiCond34) V2 load(1, XDATA, add(CFA_XSP16, literal(-8)))
          CFI (cfiCond34) V3 load(1, XDATA, add(CFA_XSP16, literal(-7)))
          CFI (cfiCond34) R7 load(1, XDATA, add(CFA_XSP16, literal(-6)))
