///////////////////////////////////////////////////////////////////////////////
//
// IAR C/C++ Compiler V10.30.1.6000 for 8051              29/Jul/2020  20:16:05
// Copyright 2004-2018 IAR Systems AB.
// PC-locked license - IAR Embedded Workbench for 8051
//
//    Core               =  plain
//    Code model         =  banked
//    Data model         =  large
//    Calling convention =  xdata reentrant
//    Constant location  =  data_rom
//    Dptr setup         =  1,16
//                          
//    Source file        =  
//        D:\AA\Z-Stack 3.0.2\Components\stack\bdb\bdb_touchlink.c
//    Command line       =  
//        -f C:\Users\sunli\AppData\Local\Temp\EWC1E3.tmp ("D:\AA\Z-Stack
//        3.0.2\Components\stack\bdb\bdb_touchlink.c" -D SECURE=1 -D
//        TC_LINKKEY_JOIN -D NV_INIT -D NV_RESTORE -D xZTOOL_P1 -D xMT_TASK -D
//        xMT_APP_FUNC -D xMT_SYS_FUNC -D xMT_ZDO_FUNC -D xMT_ZDO_MGMT -D
//        xMT_APP_CNF_FUNC -D LCD_SUPPORTED=DEBUG -D MULTICAST_ENABLED=FALSE -D
//        ZCL_READ -D ZCL_DISCOVER -D ZCL_WRITE -D ZCL_BASIC -D ZCL_IDENTIFY -D
//        ZCL_ON_OFF -D ZCL_GROUPS -D BDB_TL_INITIATOR -D INTER_PAN -lC
//        "D:\AA\Z-Stack
//        3.0.2\Projects\zstack\HomeAutomation\SampleSwitch\CC2530DB\RouterEB\List"
//        -lA "D:\AA\Z-Stack
//        3.0.2\Projects\zstack\HomeAutomation\SampleSwitch\CC2530DB\RouterEB\List"
//        --diag_suppress Pe001,Pa010 -o "D:\AA\Z-Stack
//        3.0.2\Projects\zstack\HomeAutomation\SampleSwitch\CC2530DB\RouterEB\Obj"
//        -e --debug --core=plain --dptr=16,1 --data_model=large
//        --code_model=banked --calling_convention=xdata_reentrant
//        --place_constants=data_rom --nr_virtual_regs 16 -f "D:\AA\Z-Stack
//        3.0.2\Projects\zstack\HomeAutomation\SampleSwitch\CC2530DB\..\..\..\Tools\CC2530DB\f8wRouter.cfg"
//        (-DCPU32MHZ -DROOT=__near_func -DMAC_CFG_APP_PENDING_QUEUE=TRUE
//        -DMAC_CFG_TX_DATA_MAX=5 -DMAC_CFG_TX_MAX=8 -DMAC_CFG_RX_MAX=5
//        -DRTR_NWK) -f "D:\AA\Z-Stack
//        3.0.2\Projects\zstack\HomeAutomation\SampleSwitch\CC2530DB\..\..\..\Tools\CC2530DB\f8wConfig.cfg"
//        (-DZIGBEEPRO -DSECURE=1 -DZG_SECURE_DYNAMIC=0 -DREFLECTOR
//        -DDEFAULT_CHANLIST=0x00000800 -DZDAPP_CONFIG_PAN_ID=0xFFFF
//        -DNWK_START_DELAY=100 -DEXTENDED_JOINING_RANDOM_MASK=0x007F
//        -DBEACON_REQUEST_DELAY=100 -DBEACON_REQ_DELAY_MASK=0x00FF
//        -DLINK_STATUS_JITTER_MASK=0x007F -DROUTE_EXPIRY_TIME=30
//        -DAPSC_ACK_WAIT_DURATION_POLLED=3000 -DNWK_INDIRECT_MSG_TIMEOUT=7
//        -DMAX_RREQ_ENTRIES=8 -DAPSC_MAX_FRAME_RETRIES=3
//        -DNWK_MAX_DATA_RETRIES=2 -DMAX_POLL_FAILURE_RETRIES=2 -DMAX_BCAST=9
//        -DAPS_MAX_GROUPS=16 -DMAX_RTG_ENTRIES=40 -DNWK_MAX_BINDING_ENTRIES=4
//        -DMAX_BINDING_CLUSTER_IDS=4 -DDEFAULT_KEY={0}
//        -DMAC_MAX_FRAME_SIZE=116 -DZDNWKMGR_MIN_TRANSMISSIONS=20
//        "-DCONST=const __code" -DGENERIC=__generic -DRFD_RCVC_ALWAYS_ON=FALSE
//        -DPOLL_RATE=1000 -DQUEUED_POLL_RATE=100 -DRESPONSE_POLL_RATE=100
//        -DREJOIN_POLL_RATE=440 -DREJOIN_BACKOFF=900000 -DREJOIN_SCAN=900000
//        -DENABLE_LED4_DISABLE_S1) -f "D:\AA\Z-Stack
//        3.0.2\Projects\zstack\HomeAutomation\SampleSwitch\CC2530DB\..\..\..\Tools\CC2530DB\f8wZCL.cfg"
//        -I "D:\AA\Z-Stack
//        3.0.2\Projects\zstack\HomeAutomation\SampleSwitch\CC2530DB\" -I
//        "D:\AA\Z-Stack
//        3.0.2\Projects\zstack\HomeAutomation\SampleSwitch\CC2530DB\..\Source\"
//        -I "D:\AA\Z-Stack
//        3.0.2\Projects\zstack\HomeAutomation\SampleSwitch\CC2530DB\..\..\Source\"
//        -I "D:\AA\Z-Stack
//        3.0.2\Projects\zstack\HomeAutomation\SampleSwitch\CC2530DB\..\..\..\ZMain\TI2530DB\"
//        -I "D:\AA\Z-Stack
//        3.0.2\Projects\zstack\HomeAutomation\SampleSwitch\CC2530DB\..\..\..\..\..\Components\hal\include\"
//        -I "D:\AA\Z-Stack
//        3.0.2\Projects\zstack\HomeAutomation\SampleSwitch\CC2530DB\..\..\..\..\..\Components\hal\target\CC2530EB\"
//        -I "D:\AA\Z-Stack
//        3.0.2\Projects\zstack\HomeAutomation\SampleSwitch\CC2530DB\..\..\..\..\..\Components\mac\include\"
//        -I "D:\AA\Z-Stack
//        3.0.2\Projects\zstack\HomeAutomation\SampleSwitch\CC2530DB\..\..\..\..\..\Components\mac\high_level\"
//        -I "D:\AA\Z-Stack
//        3.0.2\Projects\zstack\HomeAutomation\SampleSwitch\CC2530DB\..\..\..\..\..\Components\mac\low_level\srf04\"
//        -I "D:\AA\Z-Stack
//        3.0.2\Projects\zstack\HomeAutomation\SampleSwitch\CC2530DB\..\..\..\..\..\Components\mac\low_level\srf04\single_chip\"
//        -I "D:\AA\Z-Stack
//        3.0.2\Projects\zstack\HomeAutomation\SampleSwitch\CC2530DB\..\..\..\..\..\Components\mt\"
//        -I "D:\AA\Z-Stack
//        3.0.2\Projects\zstack\HomeAutomation\SampleSwitch\CC2530DB\..\..\..\..\..\Components\osal\include\"
//        -I "D:\AA\Z-Stack
//        3.0.2\Projects\zstack\HomeAutomation\SampleSwitch\CC2530DB\..\..\..\..\..\Components\services\saddr\"
//        -I "D:\AA\Z-Stack
//        3.0.2\Projects\zstack\HomeAutomation\SampleSwitch\CC2530DB\..\..\..\..\..\Components\services\sdata\"
//        -I "D:\AA\Z-Stack
//        3.0.2\Projects\zstack\HomeAutomation\SampleSwitch\CC2530DB\..\..\..\..\..\Components\stack\af\"
//        -I "D:\AA\Z-Stack
//        3.0.2\Projects\zstack\HomeAutomation\SampleSwitch\CC2530DB\..\..\..\..\..\Components\stack\bdb\"
//        -I "D:\AA\Z-Stack
//        3.0.2\Projects\zstack\HomeAutomation\SampleSwitch\CC2530DB\..\..\..\..\..\Components\stack\gp\"
//        -I "D:\AA\Z-Stack
//        3.0.2\Projects\zstack\HomeAutomation\SampleSwitch\CC2530DB\..\..\..\..\..\Components\stack\nwk\"
//        -I "D:\AA\Z-Stack
//        3.0.2\Projects\zstack\HomeAutomation\SampleSwitch\CC2530DB\..\..\..\..\..\Components\stack\sapi\"
//        -I "D:\AA\Z-Stack
//        3.0.2\Projects\zstack\HomeAutomation\SampleSwitch\CC2530DB\..\..\..\..\..\Components\stack\sec\"
//        -I "D:\AA\Z-Stack
//        3.0.2\Projects\zstack\HomeAutomation\SampleSwitch\CC2530DB\..\..\..\..\..\Components\stack\sys\"
//        -I "D:\AA\Z-Stack
//        3.0.2\Projects\zstack\HomeAutomation\SampleSwitch\CC2530DB\..\..\..\..\..\Components\stack\zcl\"
//        -I "D:\AA\Z-Stack
//        3.0.2\Projects\zstack\HomeAutomation\SampleSwitch\CC2530DB\..\..\..\..\..\Components\stack\zdo\"
//        -I "D:\AA\Z-Stack
//        3.0.2\Projects\zstack\HomeAutomation\SampleSwitch\CC2530DB\..\..\..\..\..\Components\zmac\"
//        -I "D:\AA\Z-Stack
//        3.0.2\Projects\zstack\HomeAutomation\SampleSwitch\CC2530DB\..\..\..\..\..\Components\zmac\f8w\"
//        -Ohz --require_prototypes)
//    Locale             =  Chinese (Simplified)_CHN.936
//    List file          =  
//        D:\AA\Z-Stack
//        3.0.2\Projects\zstack\HomeAutomation\SampleSwitch\CC2530DB\RouterEB\List\bdb_touchlink.s51
//
///////////////////////////////////////////////////////////////////////////////

        NAME bdb_touchlink

        RTMODEL "__SystemLibrary", "CLib"
        RTMODEL "__calling_convention", "xdata_reentrant"
        RTMODEL "__code_model", "banked"
        RTMODEL "__core", "plain"
        RTMODEL "__data_model", "large"
        RTMODEL "__dptr_size", "16"
        RTMODEL "__extended_stack", "disabled"
        RTMODEL "__location_for_constants", "data"
        RTMODEL "__number_of_dptrs", "1"
        RTMODEL "__register_banks", "*"
        RTMODEL "__rt_version", "1"

        RSEG DOVERLAY:DATA:NOROOT(0)
        RSEG IOVERLAY:IDATA:NOROOT(0)
        RSEG ISTACK:IDATA:NOROOT(0)
        RSEG PSTACK:XDATA:NOROOT(0)
        RSEG XSTACK:XDATA:NOROOT(0)

        EXTERN ?V0
        EXTERN ?V1
        EXTERN ?V2
        EXTERN ?V3
        EXTERN ?V4
        EXTERN ?V5
        EXTERN ?V6
        EXTERN ?V7
        EXTERN ?V8
        EXTERN ?V9
        EXTERN ?V10
        EXTERN ?V11
        EXTERN ?V12
        EXTERN ?ALLOC_XSTACK8
        EXTERN ?BANKED_ENTER_XDATA
        EXTERN ?BANKED_LEAVE_XDATA
        EXTERN ?BDISPATCH
        EXTERN ?BRET
        EXTERN ?DEALLOC_XSTACK8
        EXTERN ?L_ADD
        EXTERN ?L_ADD_X
        EXTERN ?L_EQ_X
        EXTERN ?L_MOV_TO_X
        EXTERN ?L_MOV_X
        EXTERN ?L_SHL
        EXTERN ?MOVE_LONG8_XDATA_XDATA
        EXTERN ?PUSH_XSTACK8_X_FOUR
        EXTERN ?PUSH_XSTACK8_X_TWO
        EXTERN ?PUSH_XSTACK_I_ONE
        EXTERN ?PUSH_XSTACK_I_THREE
        EXTERN ?PUSH_XSTACK_I_TWO
        EXTERN ?S_SHL
        EXTERN ?UL_SHR
        EXTERN ?US_SWITCH_SPARSE
        EXTERN ?XLOAD_R0123
        EXTERN ?XSP
        EXTERN ?XSTACK_DISP0_8
        EXTERN ?XSTACK_DISP100_8
        EXTERN ?XSTACK_DISP101_8
        EXTERN ?XSTACK_DISP102_8
        EXTERN ?XSTORE_R0123
        EXTERN __INIT_XDATA_I
        EXTERN __INIT_XDATA_Z

        PUBLIC `??touchLinkStartRtr::?relay`
        FUNCTION `??touchLinkStartRtr::?relay`,0203H
        FUNCTION `??touchLink_BeaconIndCB::?relay`,0203H
        FUNCTION `??touchLink_BuildAesKey::?relay`,0203H
        PUBLIC `??touchLink_DecryptNwkKey::?relay`
        FUNCTION `??touchLink_DecryptNwkKey::?relay`,0203H
        PUBLIC `??touchLink_DevRejoin::?relay`
        FUNCTION `??touchLink_DevRejoin::?relay`,0203H
        PUBLIC `??touchLink_DeviceIsInitiator::?relay`
        FUNCTION `??touchLink_DeviceIsInitiator::?relay`,0203H
        PUBLIC `??touchLink_EncryptNwkKey::?relay`
        FUNCTION `??touchLink_EncryptNwkKey::?relay`,0203H
        PUBLIC `??touchLink_FreeNwkParamList::?relay`
        FUNCTION `??touchLink_FreeNwkParamList::?relay`,0203H
        PUBLIC `??touchLink_GenerateRandNum::?relay`
        FUNCTION `??touchLink_GenerateRandNum::?relay`,0203H
        PUBLIC `??touchLink_GerFreeRanges::?relay`
        FUNCTION `??touchLink_GerFreeRanges::?relay`,0203H
        PUBLIC `??touchLink_GetDeviceInitiator::?relay`
        FUNCTION `??touchLink_GetDeviceInitiator::?relay`,0203H
        PUBLIC `??touchLink_GetMsgRssi::?relay`
        FUNCTION `??touchLink_GetMsgRssi::?relay`,0203H
        PUBLIC `??touchLink_GetNumGrpIDs::?relay`
        FUNCTION `??touchLink_GetNumGrpIDs::?relay`,0203H
        PUBLIC `??touchLink_GetNumSubDevices::?relay`
        FUNCTION `??touchLink_GetNumSubDevices::?relay`,0203H
        PUBLIC `??touchLink_GetNwkKeyBitmask::?relay`
        FUNCTION `??touchLink_GetNwkKeyBitmask::?relay`,0203H
        PUBLIC `??touchLink_GetRandPrimaryChannel::?relay`
        FUNCTION `??touchLink_GetRandPrimaryChannel::?relay`,0203H
        PUBLIC `??touchLink_GetSubDeviceInfo::?relay`
        FUNCTION `??touchLink_GetSubDeviceInfo::?relay`,0203H
        PUBLIC `??touchLink_InitFreeRanges::?relay`
        FUNCTION `??touchLink_InitFreeRanges::?relay`,0203H
        PUBLIC `??touchLink_InitVariables::?relay`
        FUNCTION `??touchLink_InitVariables::?relay`,0203H
        PUBLIC `??touchLink_IsValidSplitFreeRanges::?relay`
        FUNCTION `??touchLink_IsValidSplitFreeRanges::?relay`,0203H
        PUBLIC `??touchLink_IsValidTransID::?relay`
        FUNCTION `??touchLink_IsValidTransID::?relay`,0203H
        PUBLIC `??touchLink_ItemInit::?relay`
        FUNCTION `??touchLink_ItemInit::?relay`,0203H
        PUBLIC `??touchLink_NewNwkUpdateId::?relay`
        FUNCTION `??touchLink_NewNwkUpdateId::?relay`,0203H
        FUNCTION `??touchLink_NwkDiscoveryCnfCB::?relay`,0203H
        PUBLIC `??touchLink_PerformNetworkDisc::?relay`
        FUNCTION `??touchLink_PerformNetworkDisc::?relay`,0203H
        PUBLIC `??touchLink_PermitJoin::?relay`
        FUNCTION `??touchLink_PermitJoin::?relay`,0203H
        PUBLIC `??touchLink_PopGrpIDRange::?relay`
        FUNCTION `??touchLink_PopGrpIDRange::?relay`,0203H
        PUBLIC `??touchLink_PopNwkAddress::?relay`
        FUNCTION `??touchLink_PopNwkAddress::?relay`,0203H
        PUBLIC `??touchLink_ProcessNwkUpdate::?relay`
        FUNCTION `??touchLink_ProcessNwkUpdate::?relay`,0203H
        PUBLIC `??touchLink_RouterProcessZDOMsg::?relay`
        FUNCTION `??touchLink_RouterProcessZDOMsg::?relay`,0203H
        PUBLIC `??touchLink_SendDeviceInfoRsp::?relay`
        FUNCTION `??touchLink_SendDeviceInfoRsp::?relay`,0203H
        PUBLIC `??touchLink_SendLeaveReq::?relay`
        FUNCTION `??touchLink_SendLeaveReq::?relay`,0203H
        PUBLIC `??touchLink_SetChannel::?relay`
        FUNCTION `??touchLink_SetChannel::?relay`,0203H
        PUBLIC `??touchLink_SetMacNwkParams::?relay`
        FUNCTION `??touchLink_SetMacNwkParams::?relay`,0203H
        PUBLIC `??touchLink_SetNIB::?relay`
        FUNCTION `??touchLink_SetNIB::?relay`,0203H
        PUBLIC `??touchLink_SetTouchLinkTaskId::?relay`
        FUNCTION `??touchLink_SetTouchLinkTaskId::?relay`,0203H
        PUBLIC `??touchLink_SplitFreeRanges::?relay`
        FUNCTION `??touchLink_SplitFreeRanges::?relay`,0203H
        PUBLIC `??touchLink_UpdateFreeRanges::?relay`
        FUNCTION `??touchLink_UpdateFreeRanges::?relay`,0203H
        PUBLIC `??touchLink_UpdateNV::?relay`
        FUNCTION `??touchLink_UpdateNV::?relay`,0203H
        PUBLIC `??touchLink_UpdateNwkKey::?relay`
        FUNCTION `??touchLink_UpdateNwkKey::?relay`,0203H
        PUBWEAK __Constant_1
        PUBLIC pDiscoveredNwkParamList
        PUBLIC touchLinkGrpIDsBegin
        PUBLIC touchLinkGrpIDsEnd
        PUBLIC touchLinkLastAcceptedTransID
        PUBLIC touchLinkLeaveInitiated
        PUBLIC touchLinkResponseID
        PUBLIC touchLinkStartRtr
        FUNCTION touchLinkStartRtr,0a1203H
        ARGFRAME XSTACK, 4, STACK
        LOCFRAME XSTACK, 17, STACK
        PUBLIC touchLinkSubDevicesTbl
        PUBLIC touchLinkTransID
        FUNCTION touchLink_BeaconIndCB,0a1603H
        ARGFRAME XSTACK, 0, STACK
        LOCFRAME ISTACK, 1, STACK
        LOCFRAME XSTACK, 18, STACK
        FUNCTION touchLink_BuildAesKey,080203H
        ARGFRAME XSTACK, 89, STACK
        ARGFRAME IOVERLAY, 0, STATIC
        ARGFRAME DOVERLAY, 0, STATIC
        LOCFRAME ISTACK, 1, STACK
        LOCFRAME XSTACK, 21, STACK
        PUBLIC touchLink_DecryptNwkKey
        FUNCTION touchLink_DecryptNwkKey,0a1203H
        ARGFRAME XSTACK, 17, STACK
        ARGFRAME IOVERLAY, 0, STATIC
        ARGFRAME DOVERLAY, 0, STATIC
        LOCFRAME XSTACK, 67, STACK
        PUBLIC touchLink_DevRejoin
        FUNCTION touchLink_DevRejoin,0a1203H
        ARGFRAME XSTACK, 0, STACK
        LOCFRAME ISTACK, 1, STACK
        LOCFRAME XSTACK, 18, STACK
        PUBLIC touchLink_DeviceIsInitiator
        FUNCTION touchLink_DeviceIsInitiator,0203H
        ARGFRAME XSTACK, 0, STACK
        LOCFRAME ISTACK, 2, STACK
        PUBLIC touchLink_EncryptNwkKey
        FUNCTION touchLink_EncryptNwkKey,0a1203H
        ARGFRAME XSTACK, 8, STACK
        LOCFRAME XSTACK, 89, STACK
        PUBLIC touchLink_FreeNwkParamList
        FUNCTION touchLink_FreeNwkParamList,021203H
        ARGFRAME XSTACK, 0, STACK
        LOCFRAME XSTACK, 9, STACK
        PUBLIC touchLink_GenerateRandNum
        FUNCTION touchLink_GenerateRandNum,0a1203H
        ARGFRAME XSTACK, 81, STACK
        ARGFRAME IOVERLAY, 0, STATIC
        ARGFRAME DOVERLAY, 0, STATIC
        LOCFRAME ISTACK, 1, STACK
        LOCFRAME XSTACK, 14, STACK
        PUBLIC touchLink_GerFreeRanges
        FUNCTION touchLink_GerFreeRanges,0203H
        ARGFRAME XSTACK, 0, STACK
        LOCFRAME ISTACK, 2, STACK
        PUBLIC touchLink_GetDeviceInitiator
        FUNCTION touchLink_GetDeviceInitiator,0203H
        ARGFRAME XSTACK, 0, STACK
        LOCFRAME ISTACK, 2, STACK
        PUBLIC touchLink_GetMsgRssi
        FUNCTION touchLink_GetMsgRssi,0a1203H
        ARGFRAME XSTACK, 0, STACK
        LOCFRAME XSTACK, 10, STACK
        PUBLIC touchLink_GetNumGrpIDs
        FUNCTION touchLink_GetNumGrpIDs,0203H
        ARGFRAME XSTACK, 0, STACK
        LOCFRAME ISTACK, 2, STACK
        PUBLIC touchLink_GetNumSubDevices
        FUNCTION touchLink_GetNumSubDevices,0203H
        ARGFRAME XSTACK, 17, STACK
        ARGFRAME IOVERLAY, 0, STATIC
        ARGFRAME DOVERLAY, 0, STATIC
        LOCFRAME ISTACK, 2, STACK
        PUBLIC touchLink_GetNwkKeyBitmask
        FUNCTION touchLink_GetNwkKeyBitmask,0203H
        ARGFRAME XSTACK, 0, STACK
        PUBLIC touchLink_GetRandPrimaryChannel
        FUNCTION touchLink_GetRandPrimaryChannel,021203H
        ARGFRAME XSTACK, 0, STACK
        LOCFRAME ISTACK, 2, STACK
        PUBLIC touchLink_GetSubDeviceInfo
        FUNCTION touchLink_GetSubDeviceInfo,0a1203H
        ARGFRAME XSTACK, 17, STACK
        ARGFRAME IOVERLAY, 0, STATIC
        ARGFRAME DOVERLAY, 0, STATIC
        LOCFRAME XSTACK, 14, STACK
        PUBLIC touchLink_InitFreeRanges
        FUNCTION touchLink_InitFreeRanges,0203H
        ARGFRAME XSTACK, 10, STACK
        ARGFRAME IOVERLAY, 0, STATIC
        ARGFRAME DOVERLAY, 0, STATIC
        LOCFRAME ISTACK, 2, STACK
        PUBLIC touchLink_InitVariables
        FUNCTION touchLink_InitVariables,0a1203H
        ARGFRAME XSTACK, 0, STACK
        LOCFRAME XSTACK, 14, STACK
        PUBLIC touchLink_IsValidSplitFreeRanges
        FUNCTION touchLink_IsValidSplitFreeRanges,0203H
        ARGFRAME XSTACK, 0, STACK
        LOCFRAME ISTACK, 4, STACK
        PUBLIC touchLink_IsValidTransID
        FUNCTION touchLink_IsValidTransID,080203H
        ARGFRAME XSTACK, 0, STACK
        LOCFRAME XSTACK, 12, STACK
        PUBLIC touchLink_ItemInit
        FUNCTION touchLink_ItemInit,0a1203H
        ARGFRAME XSTACK, 12, STACK
        ARGFRAME IOVERLAY, 0, STATIC
        ARGFRAME DOVERLAY, 0, STATIC
        LOCFRAME XSTACK, 16, STACK
        PUBLIC touchLink_NewNwkUpdateId
        FUNCTION touchLink_NewNwkUpdateId,0203H
        ARGFRAME XSTACK, 0, STACK
        LOCFRAME ISTACK, 1, STACK
        FUNCTION touchLink_NwkDiscoveryCnfCB,021603H
        ARGFRAME XSTACK, 0, STACK
        LOCFRAME ISTACK, 2, STACK
        PUBLIC touchLink_PerformNetworkDisc
        FUNCTION touchLink_PerformNetworkDisc,0a1203H
        ARGFRAME XSTACK, 0, STACK
        LOCFRAME XSTACK, 19, STACK
        PUBLIC touchLink_PermitJoin
        FUNCTION touchLink_PermitJoin,021203H
        ARGFRAME XSTACK, 0, STACK
        LOCFRAME XSTACK, 9, STACK
        PUBLIC touchLink_PopGrpIDRange
        FUNCTION touchLink_PopGrpIDRange,080203H
        ARGFRAME XSTACK, 0, STACK
        LOCFRAME ISTACK, 2, STACK
        LOCFRAME XSTACK, 10, STACK
        PUBLIC touchLink_PopNwkAddress
        FUNCTION touchLink_PopNwkAddress,0203H
        ARGFRAME XSTACK, 0, STACK
        LOCFRAME ISTACK, 4, STACK
        PUBLIC touchLink_ProcessNwkUpdate
        FUNCTION touchLink_ProcessNwkUpdate,0a1203H
        ARGFRAME XSTACK, 0, STACK
        LOCFRAME XSTACK, 12, STACK
        PUBLIC touchLink_RouterProcessZDOMsg
        FUNCTION touchLink_RouterProcessZDOMsg,0a1203H
        ARGFRAME XSTACK, 0, STACK
        LOCFRAME ISTACK, 1, STACK
        LOCFRAME XSTACK, 27, STACK
        PUBLIC touchLink_SendDeviceInfoRsp
        FUNCTION touchLink_SendDeviceInfoRsp,0a1203H
        ARGFRAME XSTACK, 4, STACK
        LOCFRAME ISTACK, 1, STACK
        LOCFRAME XSTACK, 18, STACK
        PUBLIC touchLink_SendLeaveReq
        FUNCTION touchLink_SendLeaveReq,021203H
        ARGFRAME XSTACK, 0, STACK
        LOCFRAME ISTACK, 2, STACK
        LOCFRAME XSTACK, 5, STACK
        PUBLIC touchLink_SetChannel
        FUNCTION touchLink_SetChannel,0a1203H
        ARGFRAME XSTACK, 13, STACK
        ARGFRAME IOVERLAY, 0, STATIC
        ARGFRAME DOVERLAY, 0, STATIC
        LOCFRAME ISTACK, 1, STACK
        LOCFRAME XSTACK, 13, STACK
        PUBLIC touchLink_SetMacNwkParams
        FUNCTION touchLink_SetMacNwkParams,021203H
        ARGFRAME XSTACK, 0, STACK
        LOCFRAME XSTACK, 13, STACK
        PUBLIC touchLink_SetNIB
        FUNCTION touchLink_SetNIB,0a1203H
        ARGFRAME XSTACK, 13, STACK
        ARGFRAME IOVERLAY, 0, STATIC
        ARGFRAME DOVERLAY, 0, STATIC
        LOCFRAME XSTACK, 16, STACK
        PUBLIC touchLink_SetTouchLinkTaskId
        FUNCTION touchLink_SetTouchLinkTaskId,021203H
        ARGFRAME XSTACK, 0, STACK
        LOCFRAME XSTACK, 9, STACK
        PUBLIC touchLink_SplitFreeRanges
        FUNCTION touchLink_SplitFreeRanges,080203H
        ARGFRAME XSTACK, 4, STACK
        LOCFRAME XSTACK, 18, STACK
        PUBLIC touchLink_UpdateFreeRanges
        FUNCTION touchLink_UpdateFreeRanges,0203H
        ARGFRAME XSTACK, 0, STACK
        LOCFRAME ISTACK, 2, STACK
        PUBLIC touchLink_UpdateNV
        FUNCTION touchLink_UpdateNV,0a1203H
        ARGFRAME XSTACK, 16, STACK
        ARGFRAME IOVERLAY, 0, STATIC
        ARGFRAME DOVERLAY, 0, STATIC
        LOCFRAME XSTACK, 14, STACK
        PUBLIC touchLink_UpdateNwkKey
        FUNCTION touchLink_UpdateNwkKey,0a1203H
        ARGFRAME XSTACK, 59, STACK
        ARGFRAME IOVERLAY, 0, STATIC
        ARGFRAME DOVERLAY, 0, STATIC
        LOCFRAME XSTACK, 12, STACK
        PUBLIC touchlinkDistNwk
        PUBLIC touchlinkFNReset
        
          CFI Names cfiNames0
          CFI StackFrame CFA_SP SP IDATA
          CFI StackFrame CFA_PSP16 PSP16 XDATA
          CFI StackFrame CFA_XSP16 XSP16 XDATA
          CFI StaticOverlayFrame CFA_IOVERLAY IOVERLAY
          CFI StaticOverlayFrame CFA_DOVERLAY DOVERLAY
          CFI Resource `PSW.CY`:1, `B.BR0`:1, `B.BR1`:1, `B.BR2`:1, `B.BR3`:1
          CFI Resource `B.BR4`:1, `B.BR5`:1, `B.BR6`:1, `B.BR7`:1, `VB.BR8`:1
          CFI Resource `VB.BR9`:1, `VB.BR10`:1, `VB.BR11`:1, `VB.BR12`:1
          CFI Resource `VB.BR13`:1, `VB.BR14`:1, `VB.BR15`:1, VB:8, B:8, A:8
          CFI Resource PSW:8, DPL0:8, DPH0:8, R0:8, R1:8, R2:8, R3:8, R4:8, R5:8
          CFI Resource R6:8, R7:8, V0:8, V1:8, V2:8, V3:8, V4:8, V5:8, V6:8, V7:8
          CFI Resource V8:8, V9:8, V10:8, V11:8, V12:8, V13:8, V14:8, V15:8, SP:8
          CFI Resource PSPH:8, PSPL:8, PSP16:16, XSPH:8, XSPL:8, XSP16:16
          CFI VirtualResource ?RET:24
          CFI Resource ?BRET_EXT:8
          CFI VirtualResource ?RET_HIGH:8, ?RET_LOW:8
          CFI ResourceParts PSP16 PSPH, PSPL
          CFI ResourceParts XSP16 XSPH, XSPL
          CFI ResourceParts ?RET ?BRET_EXT, ?RET_HIGH, ?RET_LOW
          CFI EndNames cfiNames0
        
          CFI Common cfiCommon0 Using cfiNames0
          CFI CodeAlign 1
          CFI DataAlign -1
          CFI ReturnAddress ?RET CODE
          CFI CFA_DOVERLAY Used
          CFI CFA_IOVERLAY Used
          CFI CFA_SP SP+-3
          CFI CFA_PSP16 PSP16+0
          CFI CFA_XSP16 XSP16+0
          CFI `PSW.CY` SameValue
          CFI `B.BR0` SameValue
          CFI `B.BR1` SameValue
          CFI `B.BR2` SameValue
          CFI `B.BR3` SameValue
          CFI `B.BR4` SameValue
          CFI `B.BR5` SameValue
          CFI `B.BR6` SameValue
          CFI `B.BR7` SameValue
          CFI `VB.BR8` SameValue
          CFI `VB.BR9` SameValue
          CFI `VB.BR10` SameValue
          CFI `VB.BR11` SameValue
          CFI `VB.BR12` SameValue
          CFI `VB.BR13` SameValue
          CFI `VB.BR14` SameValue
          CFI `VB.BR15` SameValue
          CFI VB SameValue
          CFI B Undefined
          CFI A Undefined
          CFI PSW SameValue
          CFI DPL0 SameValue
          CFI DPH0 SameValue
          CFI R0 Undefined
          CFI R1 Undefined
          CFI R2 Undefined
          CFI R3 Undefined
          CFI R4 Undefined
          CFI R5 Undefined
          CFI R6 SameValue
          CFI R7 SameValue
          CFI V0 SameValue
          CFI V1 SameValue
          CFI V2 SameValue
          CFI V3 SameValue
          CFI V4 SameValue
          CFI V5 SameValue
          CFI V6 SameValue
          CFI V7 SameValue
          CFI V8 SameValue
          CFI V9 SameValue
          CFI V10 SameValue
          CFI V11 SameValue
          CFI V12 SameValue
          CFI V13 SameValue
          CFI V14 SameValue
          CFI V15 SameValue
          CFI PSPH Undefined
          CFI PSPL Undefined
          CFI XSPH Undefined
          CFI XSPL Undefined
          CFI ?RET Concat
          CFI ?BRET_EXT Frame(CFA_SP, 3)
          CFI ?RET_HIGH Frame(CFA_SP, 2)
          CFI ?RET_LOW Frame(CFA_SP, 1)
          CFI EndCommon cfiCommon0
        
        
          CFI Common cfiCommon1 Using cfiNames0
          CFI CodeAlign 1
          CFI DataAlign -1
          CFI ReturnAddress ?RET CODE
          CFI CFA_DOVERLAY Used
          CFI CFA_IOVERLAY Used
          CFI CFA_SP SP+-2
          CFI CFA_PSP16 PSP16+0
          CFI CFA_XSP16 XSP16+0
          CFI `PSW.CY` SameValue
          CFI `B.BR0` SameValue
          CFI `B.BR1` SameValue
          CFI `B.BR2` SameValue
          CFI `B.BR3` SameValue
          CFI `B.BR4` SameValue
          CFI `B.BR5` SameValue
          CFI `B.BR6` SameValue
          CFI `B.BR7` SameValue
          CFI `VB.BR8` SameValue
          CFI `VB.BR9` SameValue
          CFI `VB.BR10` SameValue
          CFI `VB.BR11` SameValue
          CFI `VB.BR12` SameValue
          CFI `VB.BR13` SameValue
          CFI `VB.BR14` SameValue
          CFI `VB.BR15` SameValue
          CFI VB SameValue
          CFI B SameValue
          CFI A SameValue
          CFI PSW SameValue
          CFI DPL0 SameValue
          CFI DPH0 SameValue
          CFI R0 SameValue
          CFI R1 SameValue
          CFI R2 SameValue
          CFI R3 SameValue
          CFI R4 SameValue
          CFI R5 SameValue
          CFI R6 SameValue
          CFI R7 SameValue
          CFI V0 SameValue
          CFI V1 SameValue
          CFI V2 SameValue
          CFI V3 SameValue
          CFI V4 SameValue
          CFI V5 SameValue
          CFI V6 SameValue
          CFI V7 SameValue
          CFI V8 SameValue
          CFI V9 SameValue
          CFI V10 SameValue
          CFI V11 SameValue
          CFI V12 SameValue
          CFI V13 SameValue
          CFI V14 SameValue
          CFI V15 SameValue
          CFI PSPH Undefined
          CFI PSPL Undefined
          CFI XSPH Undefined
          CFI XSPL Undefined
          CFI ?RET Concat
          CFI ?BRET_EXT SameValue
          CFI ?RET_HIGH Frame(CFA_SP, 2)
          CFI ?RET_LOW Frame(CFA_SP, 1)
          CFI EndCommon cfiCommon1
        
AssocCount          SYMBOL "AssocCount"
`??AssocCount::?relay` SYMBOL "?relay", AssocCount
NLME_GetExtAddr     SYMBOL "NLME_GetExtAddr"
`??NLME_GetExtAddr::?relay` SYMBOL "?relay", NLME_GetExtAddr
NLME_LeaveReq       SYMBOL "NLME_LeaveReq"
`??NLME_LeaveReq::?relay` SYMBOL "?relay", NLME_LeaveReq
NLME_NwkDiscReq2    SYMBOL "NLME_NwkDiscReq2"
`??NLME_NwkDiscReq2::?relay` SYMBOL "?relay", NLME_NwkDiscReq2
NLME_NwkDiscTerm    SYMBOL "NLME_NwkDiscTerm"
`??NLME_NwkDiscTerm::?relay` SYMBOL "?relay", NLME_NwkDiscTerm
NLME_PermitJoiningRequest SYMBOL "NLME_PermitJoiningRequest"
`??NLME_PermitJoiningRequest::?relay` SYMBOL "?relay", NLME_PermitJoiningRequest
NLME_ReJoinRequest  SYMBOL "NLME_ReJoinRequest"
`??NLME_ReJoinRequest::?relay` SYMBOL "?relay", NLME_ReJoinRequest
NLME_SetBroadcastFilter SYMBOL "NLME_SetBroadcastFilter"
`??NLME_SetBroadcastFilter::?relay` SYMBOL "?relay", NLME_SetBroadcastFilter
NLME_SetUpdateID    SYMBOL "NLME_SetUpdateID"
`??NLME_SetUpdateID::?relay` SYMBOL "?relay", NLME_SetUpdateID
NLME_UpdateLinkStatus SYMBOL "NLME_UpdateLinkStatus"
`??NLME_UpdateLinkStatus::?relay` SYMBOL "?relay", NLME_UpdateLinkStatus
SSP_ReadNwkActiveKey SYMBOL "SSP_ReadNwkActiveKey"
`??SSP_ReadNwkActiveKey::?relay` SYMBOL "?relay", SSP_ReadNwkActiveKey
SSP_SwitchNwkKey    SYMBOL "SSP_SwitchNwkKey"
`??SSP_SwitchNwkKey::?relay` SYMBOL "?relay", SSP_SwitchNwkKey
SSP_UpdateNwkKey    SYMBOL "SSP_UpdateNwkKey"
`??SSP_UpdateNwkKey::?relay` SYMBOL "?relay", SSP_UpdateNwkKey
StubAPS_RegisterApp SYMBOL "StubAPS_RegisterApp"
`??StubAPS_RegisterApp::?relay` SYMBOL "?relay", StubAPS_RegisterApp
ZDApp_LeaveCtrlReset SYMBOL "ZDApp_LeaveCtrlReset"
`??ZDApp_LeaveCtrlReset::?relay` SYMBOL "?relay", ZDApp_LeaveCtrlReset
ZDApp_NwkStateUpdateCB SYMBOL "ZDApp_NwkStateUpdateCB"
`??ZDApp_NwkStateUpdateCB::?relay` SYMBOL "?relay", ZDApp_NwkStateUpdateCB
ZDApp_SaveNwkKey    SYMBOL "ZDApp_SaveNwkKey"
`??ZDApp_SaveNwkKey::?relay` SYMBOL "?relay", ZDApp_SaveNwkKey
ZDApp_SecInit       SYMBOL "ZDApp_SecInit"
`??ZDApp_SecInit::?relay` SYMBOL "?relay", ZDApp_SecInit
ZDOInitDeviceEx     SYMBOL "ZDOInitDeviceEx"
`??ZDOInitDeviceEx::?relay` SYMBOL "?relay", ZDOInitDeviceEx
ZDO_DeregisterForZdoCB SYMBOL "ZDO_DeregisterForZdoCB"
`??ZDO_DeregisterForZdoCB::?relay` SYMBOL "?relay", ZDO_DeregisterForZdoCB
ZDO_ParseDeviceAnnce SYMBOL "ZDO_ParseDeviceAnnce"
`??ZDO_ParseDeviceAnnce::?relay` SYMBOL "?relay", ZDO_ParseDeviceAnnce
ZDO_RegisterForZdoCB SYMBOL "ZDO_RegisterForZdoCB"
`??ZDO_RegisterForZdoCB::?relay` SYMBOL "?relay", ZDO_RegisterForZdoCB
ZDP_SendData        SYMBOL "ZDP_SendData"
`??ZDP_SendData::?relay` SYMBOL "?relay", ZDP_SendData
ZDSecMgrUpdateTCAddress SYMBOL "ZDSecMgrUpdateTCAddress"
`??ZDSecMgrUpdateTCAddress::?relay` SYMBOL "?relay", ZDSecMgrUpdateTCAddress
ZMacSetReq          SYMBOL "ZMacSetReq"
`??ZMacSetReq::?relay` SYMBOL "?relay", ZMacSetReq
afFindEndPointDesc  SYMBOL "afFindEndPointDesc"
`??afFindEndPointDesc::?relay` SYMBOL "?relay", afFindEndPointDesc
bdbTL_Send_DeviceInfoRsp SYMBOL "bdbTL_Send_DeviceInfoRsp"
`??bdbTL_Send_DeviceInfoRsp::?relay` SYMBOL "?relay", bdbTL_Send_DeviceInfoRsp
bdb_RegisterSimpleDescriptor SYMBOL "bdb_RegisterSimpleDescriptor"
`??bdb_RegisterSimpleDescriptor::?relay` SYMBOL "?relay", bdb_RegisterSimpleDescriptor
bdb_setChannel      SYMBOL "bdb_setChannel"
`??bdb_setChannel::?relay` SYMBOL "?relay", bdb_setChannel
nwkNeighborAdd      SYMBOL "nwkNeighborAdd"
`??nwkNeighborAdd::?relay` SYMBOL "?relay", nwkNeighborAdd
nwkNeighborGetLinkInfo SYMBOL "nwkNeighborGetLinkInfo"
`??nwkNeighborGetLinkInfo::?relay` SYMBOL "?relay", nwkNeighborGetLinkInfo
nwkTransmissionFailures SYMBOL "nwkTransmissionFailures"
`??nwkTransmissionFailures::?relay` SYMBOL "?relay", nwkTransmissionFailures
osal_mem_alloc      SYMBOL "osal_mem_alloc"
`??osal_mem_alloc::?relay` SYMBOL "?relay", osal_mem_alloc
osal_mem_free       SYMBOL "osal_mem_free"
`??osal_mem_free::?relay` SYMBOL "?relay", osal_mem_free
osal_memcpy         SYMBOL "osal_memcpy"
`??osal_memcpy::?relay` SYMBOL "?relay", osal_memcpy
osal_memset         SYMBOL "osal_memset"
`??osal_memset::?relay` SYMBOL "?relay", osal_memset
osal_nv_item_init   SYMBOL "osal_nv_item_init"
`??osal_nv_item_init::?relay` SYMBOL "?relay", osal_nv_item_init
osal_nv_read        SYMBOL "osal_nv_read"
`??osal_nv_read::?relay` SYMBOL "?relay", osal_nv_read
osal_nv_write       SYMBOL "osal_nv_write"
`??osal_nv_write::?relay` SYMBOL "?relay", osal_nv_write
osal_rand           SYMBOL "osal_rand"
`??osal_rand::?relay` SYMBOL "?relay", osal_rand
osal_set_event      SYMBOL "osal_set_event"
`??osal_set_event::?relay` SYMBOL "?relay", osal_set_event
sAddrExtCpy         SYMBOL "sAddrExtCpy"
`??sAddrExtCpy::?relay` SYMBOL "?relay", sAddrExtCpy
sspAesDecrypt       SYMBOL "sspAesDecrypt"
`??sspAesDecrypt::?relay` SYMBOL "?relay", sspAesDecrypt
sspAesEncrypt       SYMBOL "sspAesEncrypt"
`??sspAesEncrypt::?relay` SYMBOL "?relay", sspAesEncrypt
zcl_getRawAFMsg     SYMBOL "zcl_getRawAFMsg"
`??zcl_getRawAFMsg::?relay` SYMBOL "?relay", zcl_getRawAFMsg
zgWriteStartupOptions SYMBOL "zgWriteStartupOptions"
`??zgWriteStartupOptions::?relay` SYMBOL "?relay", zgWriteStartupOptions
touchLinkStartRtr   SYMBOL "touchLinkStartRtr"
`??touchLinkStartRtr::?relay` SYMBOL "?relay", touchLinkStartRtr
touchLink_DecryptNwkKey SYMBOL "touchLink_DecryptNwkKey"
`??touchLink_DecryptNwkKey::?relay` SYMBOL "?relay", touchLink_DecryptNwkKey
touchLink_DevRejoin SYMBOL "touchLink_DevRejoin"
`??touchLink_DevRejoin::?relay` SYMBOL "?relay", touchLink_DevRejoin
touchLink_DeviceIsInitiator SYMBOL "touchLink_DeviceIsInitiator"
`??touchLink_DeviceIsInitiator::?relay` SYMBOL "?relay", touchLink_DeviceIsInitiator
touchLink_EncryptNwkKey SYMBOL "touchLink_EncryptNwkKey"
`??touchLink_EncryptNwkKey::?relay` SYMBOL "?relay", touchLink_EncryptNwkKey
touchLink_FreeNwkParamList SYMBOL "touchLink_FreeNwkParamList"
`??touchLink_FreeNwkParamList::?relay` SYMBOL "?relay", touchLink_FreeNwkParamList
touchLink_GenerateRandNum SYMBOL "touchLink_GenerateRandNum"
`??touchLink_GenerateRandNum::?relay` SYMBOL "?relay", touchLink_GenerateRandNum
touchLink_GerFreeRanges SYMBOL "touchLink_GerFreeRanges"
`??touchLink_GerFreeRanges::?relay` SYMBOL "?relay", touchLink_GerFreeRanges
touchLink_GetDeviceInitiator SYMBOL "touchLink_GetDeviceInitiator"
`??touchLink_GetDeviceInitiator::?relay` SYMBOL "?relay", touchLink_GetDeviceInitiator
touchLink_GetMsgRssi SYMBOL "touchLink_GetMsgRssi"
`??touchLink_GetMsgRssi::?relay` SYMBOL "?relay", touchLink_GetMsgRssi
touchLink_GetNumGrpIDs SYMBOL "touchLink_GetNumGrpIDs"
`??touchLink_GetNumGrpIDs::?relay` SYMBOL "?relay", touchLink_GetNumGrpIDs
touchLink_GetNumSubDevices SYMBOL "touchLink_GetNumSubDevices"
`??touchLink_GetNumSubDevices::?relay` SYMBOL "?relay", touchLink_GetNumSubDevices
touchLink_GetNwkKeyBitmask SYMBOL "touchLink_GetNwkKeyBitmask"
`??touchLink_GetNwkKeyBitmask::?relay` SYMBOL "?relay", touchLink_GetNwkKeyBitmask
touchLink_GetRandPrimaryChannel SYMBOL "touchLink_GetRandPrimaryChannel"
`??touchLink_GetRandPrimaryChannel::?relay` SYMBOL "?relay", touchLink_GetRandPrimaryChannel
touchLink_GetSubDeviceInfo SYMBOL "touchLink_GetSubDeviceInfo"
`??touchLink_GetSubDeviceInfo::?relay` SYMBOL "?relay", touchLink_GetSubDeviceInfo
touchLink_InitFreeRanges SYMBOL "touchLink_InitFreeRanges"
`??touchLink_InitFreeRanges::?relay` SYMBOL "?relay", touchLink_InitFreeRanges
touchLink_InitVariables SYMBOL "touchLink_InitVariables"
`??touchLink_InitVariables::?relay` SYMBOL "?relay", touchLink_InitVariables
touchLink_IsValidSplitFreeRanges SYMBOL "touchLink_IsValidSplitFreeRanges"
`??touchLink_IsValidSplitFreeRanges::?relay` SYMBOL "?relay", touchLink_IsValidSplitFreeRanges
touchLink_IsValidTransID SYMBOL "touchLink_IsValidTransID"
`??touchLink_IsValidTransID::?relay` SYMBOL "?relay", touchLink_IsValidTransID
touchLink_ItemInit  SYMBOL "touchLink_ItemInit"
`??touchLink_ItemInit::?relay` SYMBOL "?relay", touchLink_ItemInit
touchLink_NewNwkUpdateId SYMBOL "touchLink_NewNwkUpdateId"
`??touchLink_NewNwkUpdateId::?relay` SYMBOL "?relay", touchLink_NewNwkUpdateId
touchLink_PerformNetworkDisc SYMBOL "touchLink_PerformNetworkDisc"
`??touchLink_PerformNetworkDisc::?relay` SYMBOL "?relay", touchLink_PerformNetworkDisc
touchLink_PermitJoin SYMBOL "touchLink_PermitJoin"
`??touchLink_PermitJoin::?relay` SYMBOL "?relay", touchLink_PermitJoin
touchLink_PopGrpIDRange SYMBOL "touchLink_PopGrpIDRange"
`??touchLink_PopGrpIDRange::?relay` SYMBOL "?relay", touchLink_PopGrpIDRange
touchLink_PopNwkAddress SYMBOL "touchLink_PopNwkAddress"
`??touchLink_PopNwkAddress::?relay` SYMBOL "?relay", touchLink_PopNwkAddress
touchLink_ProcessNwkUpdate SYMBOL "touchLink_ProcessNwkUpdate"
`??touchLink_ProcessNwkUpdate::?relay` SYMBOL "?relay", touchLink_ProcessNwkUpdate
touchLink_RouterProcessZDOMsg SYMBOL "touchLink_RouterProcessZDOMsg"
`??touchLink_RouterProcessZDOMsg::?relay` SYMBOL "?relay", touchLink_RouterProcessZDOMsg
touchLink_SendDeviceInfoRsp SYMBOL "touchLink_SendDeviceInfoRsp"
`??touchLink_SendDeviceInfoRsp::?relay` SYMBOL "?relay", touchLink_SendDeviceInfoRsp
touchLink_SendLeaveReq SYMBOL "touchLink_SendLeaveReq"
`??touchLink_SendLeaveReq::?relay` SYMBOL "?relay", touchLink_SendLeaveReq
touchLink_SetChannel SYMBOL "touchLink_SetChannel"
`??touchLink_SetChannel::?relay` SYMBOL "?relay", touchLink_SetChannel
touchLink_SetMacNwkParams SYMBOL "touchLink_SetMacNwkParams"
`??touchLink_SetMacNwkParams::?relay` SYMBOL "?relay", touchLink_SetMacNwkParams
touchLink_SetNIB    SYMBOL "touchLink_SetNIB"
`??touchLink_SetNIB::?relay` SYMBOL "?relay", touchLink_SetNIB
touchLink_SetTouchLinkTaskId SYMBOL "touchLink_SetTouchLinkTaskId"
`??touchLink_SetTouchLinkTaskId::?relay` SYMBOL "?relay", touchLink_SetTouchLinkTaskId
touchLink_SplitFreeRanges SYMBOL "touchLink_SplitFreeRanges"
`??touchLink_SplitFreeRanges::?relay` SYMBOL "?relay", touchLink_SplitFreeRanges
touchLink_UpdateFreeRanges SYMBOL "touchLink_UpdateFreeRanges"
`??touchLink_UpdateFreeRanges::?relay` SYMBOL "?relay", touchLink_UpdateFreeRanges
touchLink_UpdateNV  SYMBOL "touchLink_UpdateNV"
`??touchLink_UpdateNV::?relay` SYMBOL "?relay", touchLink_UpdateNV
touchLink_UpdateNwkKey SYMBOL "touchLink_UpdateNwkKey"
`??touchLink_UpdateNwkKey::?relay` SYMBOL "?relay", touchLink_UpdateNwkKey

        EXTERN `??AssocCount::?relay`
        FUNCTION `??AssocCount::?relay`,00H
        EXTERN `??NLME_GetExtAddr::?relay`
        FUNCTION `??NLME_GetExtAddr::?relay`,00H
        EXTERN `??NLME_LeaveReq::?relay`
        FUNCTION `??NLME_LeaveReq::?relay`,00H
        EXTERN `??NLME_NwkDiscReq2::?relay`
        FUNCTION `??NLME_NwkDiscReq2::?relay`,00H
        EXTERN `??NLME_NwkDiscTerm::?relay`
        FUNCTION `??NLME_NwkDiscTerm::?relay`,00H
        EXTERN `??NLME_PermitJoiningRequest::?relay`
        FUNCTION `??NLME_PermitJoiningRequest::?relay`,00H
        EXTERN `??NLME_ReJoinRequest::?relay`
        FUNCTION `??NLME_ReJoinRequest::?relay`,00H
        EXTERN `??NLME_SetBroadcastFilter::?relay`
        FUNCTION `??NLME_SetBroadcastFilter::?relay`,00H
        EXTERN `??NLME_SetUpdateID::?relay`
        FUNCTION `??NLME_SetUpdateID::?relay`,00H
        EXTERN `??NLME_UpdateLinkStatus::?relay`
        FUNCTION `??NLME_UpdateLinkStatus::?relay`,00H
        EXTERN `??SSP_ReadNwkActiveKey::?relay`
        FUNCTION `??SSP_ReadNwkActiveKey::?relay`,00H
        EXTERN `??SSP_SwitchNwkKey::?relay`
        FUNCTION `??SSP_SwitchNwkKey::?relay`,00H
        EXTERN `??SSP_UpdateNwkKey::?relay`
        FUNCTION `??SSP_UpdateNwkKey::?relay`,00H
        EXTERN `??StubAPS_RegisterApp::?relay`
        FUNCTION `??StubAPS_RegisterApp::?relay`,00H
        EXTERN `??ZDApp_LeaveCtrlReset::?relay`
        FUNCTION `??ZDApp_LeaveCtrlReset::?relay`,00H
        EXTERN `??ZDApp_NwkStateUpdateCB::?relay`
        FUNCTION `??ZDApp_NwkStateUpdateCB::?relay`,00H
        EXTERN `??ZDApp_SaveNwkKey::?relay`
        FUNCTION `??ZDApp_SaveNwkKey::?relay`,00H
        EXTERN `??ZDApp_SecInit::?relay`
        FUNCTION `??ZDApp_SecInit::?relay`,00H
        EXTERN `??ZDOInitDeviceEx::?relay`
        FUNCTION `??ZDOInitDeviceEx::?relay`,00H
        EXTERN `??ZDO_DeregisterForZdoCB::?relay`
        FUNCTION `??ZDO_DeregisterForZdoCB::?relay`,00H
        EXTERN `??ZDO_ParseDeviceAnnce::?relay`
        FUNCTION `??ZDO_ParseDeviceAnnce::?relay`,00H
        EXTERN `??ZDO_RegisterForZdoCB::?relay`
        FUNCTION `??ZDO_RegisterForZdoCB::?relay`,00H
        EXTERN `??ZDP_SendData::?relay`
        FUNCTION `??ZDP_SendData::?relay`,00H
        EXTERN `??ZDSecMgrUpdateTCAddress::?relay`
        FUNCTION `??ZDSecMgrUpdateTCAddress::?relay`,00H
        EXTERN `??ZMacSetReq::?relay`
        FUNCTION `??ZMacSetReq::?relay`,00H
        EXTERN `??afFindEndPointDesc::?relay`
        FUNCTION `??afFindEndPointDesc::?relay`,00H
        EXTERN `??bdbTL_Send_DeviceInfoRsp::?relay`
        FUNCTION `??bdbTL_Send_DeviceInfoRsp::?relay`,00H
        EXTERN `??bdb_RegisterSimpleDescriptor::?relay`
        FUNCTION `??bdb_RegisterSimpleDescriptor::?relay`,00H
        EXTERN `??bdb_setChannel::?relay`
        FUNCTION `??bdb_setChannel::?relay`,00H
        EXTERN `??nwkNeighborAdd::?relay`
        FUNCTION `??nwkNeighborAdd::?relay`,00H
        EXTERN `??nwkNeighborGetLinkInfo::?relay`
        FUNCTION `??nwkNeighborGetLinkInfo::?relay`,00H
        EXTERN `??nwkTransmissionFailures::?relay`
        FUNCTION `??nwkTransmissionFailures::?relay`,00H
        EXTERN `??osal_mem_alloc::?relay`
        FUNCTION `??osal_mem_alloc::?relay`,00H
        EXTERN `??osal_mem_free::?relay`
        FUNCTION `??osal_mem_free::?relay`,00H
        EXTERN `??osal_memcpy::?relay`
        FUNCTION `??osal_memcpy::?relay`,00H
        EXTERN `??osal_memset::?relay`
        FUNCTION `??osal_memset::?relay`,00H
        EXTERN `??osal_nv_item_init::?relay`
        FUNCTION `??osal_nv_item_init::?relay`,00H
        EXTERN `??osal_nv_read::?relay`
        FUNCTION `??osal_nv_read::?relay`,00H
        EXTERN `??osal_nv_write::?relay`
        FUNCTION `??osal_nv_write::?relay`,00H
        EXTERN `??osal_rand::?relay`
        FUNCTION `??osal_rand::?relay`,00H
        EXTERN `??osal_set_event::?relay`
        FUNCTION `??osal_set_event::?relay`,00H
        EXTERN `??sAddrExtCpy::?relay`
        FUNCTION `??sAddrExtCpy::?relay`,00H
        EXTERN `??sspAesDecrypt::?relay`
        FUNCTION `??sspAesDecrypt::?relay`,00H
        EXTERN `??sspAesEncrypt::?relay`
        FUNCTION `??sspAesEncrypt::?relay`,00H
        EXTERN `??zcl_getRawAFMsg::?relay`
        FUNCTION `??zcl_getRawAFMsg::?relay`,00H
        EXTERN `??zgWriteStartupOptions::?relay`
        FUNCTION `??zgWriteStartupOptions::?relay`,00H
        EXTERN AssocCount
        FUNCTION AssocCount,0202H
        ARGFRAME ISTACK, 0, STACK
        ARGFRAME PSTACK, 0, STACK
        ARGFRAME XSTACK, 22, STACK
        ARGFRAME IOVERLAY, 0, STATIC
        ARGFRAME DOVERLAY, 0, STATIC
        EXTERN NLME_GetExtAddr
        FUNCTION NLME_GetExtAddr,0202H
        ARGFRAME ISTACK, 0, STACK
        ARGFRAME PSTACK, 0, STACK
        ARGFRAME XSTACK, 17, STACK
        ARGFRAME IOVERLAY, 0, STATIC
        ARGFRAME DOVERLAY, 0, STATIC
        EXTERN NLME_LeaveReq
        FUNCTION NLME_LeaveReq,0202H
        ARGFRAME ISTACK, 2, STACK
        ARGFRAME PSTACK, 0, STACK
        ARGFRAME XSTACK, 5, STACK
        ARGFRAME IOVERLAY, 0, STATIC
        ARGFRAME DOVERLAY, 0, STATIC
        EXTERN NLME_NwkDiscReq2
        FUNCTION NLME_NwkDiscReq2,0202H
        ARGFRAME ISTACK, 0, STACK
        ARGFRAME PSTACK, 0, STACK
        ARGFRAME XSTACK, 19, STACK
        ARGFRAME IOVERLAY, 0, STATIC
        ARGFRAME DOVERLAY, 0, STATIC
        EXTERN NLME_NwkDiscTerm
        FUNCTION NLME_NwkDiscTerm,0202H
        ARGFRAME ISTACK, 2, STACK
        ARGFRAME PSTACK, 0, STACK
        ARGFRAME XSTACK, 19, STACK
        ARGFRAME IOVERLAY, 0, STATIC
        ARGFRAME DOVERLAY, 0, STATIC
        EXTERN NLME_PermitJoiningRequest
        FUNCTION NLME_PermitJoiningRequest,0202H
        ARGFRAME ISTACK, 0, STACK
        ARGFRAME PSTACK, 0, STACK
        ARGFRAME XSTACK, 22, STACK
        ARGFRAME IOVERLAY, 0, STATIC
        ARGFRAME DOVERLAY, 0, STATIC
        EXTERN NLME_ReJoinRequest
        FUNCTION NLME_ReJoinRequest,0202H
        ARGFRAME ISTACK, 0, STACK
        ARGFRAME PSTACK, 0, STACK
        ARGFRAME XSTACK, 15, STACK
        ARGFRAME IOVERLAY, 0, STATIC
        ARGFRAME DOVERLAY, 0, STATIC
        EXTERN NLME_SetBroadcastFilter
        FUNCTION NLME_SetBroadcastFilter,0202H
        ARGFRAME ISTACK, 0, STACK
        ARGFRAME PSTACK, 0, STACK
        ARGFRAME XSTACK, 10, STACK
        ARGFRAME IOVERLAY, 0, STATIC
        ARGFRAME DOVERLAY, 0, STATIC
        EXTERN NLME_SetUpdateID
        FUNCTION NLME_SetUpdateID,0202H
        ARGFRAME ISTACK, 0, STACK
        ARGFRAME PSTACK, 0, STACK
        ARGFRAME XSTACK, 16, STACK
        ARGFRAME IOVERLAY, 0, STATIC
        ARGFRAME DOVERLAY, 0, STATIC
        EXTERN NLME_UpdateLinkStatus
        FUNCTION NLME_UpdateLinkStatus,0202H
        ARGFRAME ISTACK, 0, STACK
        ARGFRAME PSTACK, 0, STACK
        ARGFRAME XSTACK, 22, STACK
        ARGFRAME IOVERLAY, 0, STATIC
        ARGFRAME DOVERLAY, 0, STATIC
        EXTERN NwkDescList
        EXTERN SSP_ReadNwkActiveKey
        FUNCTION SSP_ReadNwkActiveKey,0202H
        ARGFRAME ISTACK, 0, STACK
        ARGFRAME PSTACK, 0, STACK
        ARGFRAME XSTACK, 81, STACK
        ARGFRAME IOVERLAY, 0, STATIC
        ARGFRAME DOVERLAY, 0, STATIC
        EXTERN SSP_SwitchNwkKey
        FUNCTION SSP_SwitchNwkKey,0202H
        ARGFRAME ISTACK, 0, STACK
        ARGFRAME PSTACK, 0, STACK
        ARGFRAME XSTACK, 12, STACK
        ARGFRAME IOVERLAY, 0, STATIC
        ARGFRAME DOVERLAY, 0, STATIC
        EXTERN SSP_UpdateNwkKey
        FUNCTION SSP_UpdateNwkKey,0202H
        ARGFRAME ISTACK, 0, STACK
        ARGFRAME PSTACK, 0, STACK
        ARGFRAME XSTACK, 12, STACK
        ARGFRAME IOVERLAY, 0, STATIC
        ARGFRAME DOVERLAY, 0, STATIC
        EXTERN StubAPS_RegisterApp
        FUNCTION StubAPS_RegisterApp,0202H
        ARGFRAME ISTACK, 0, STACK
        ARGFRAME PSTACK, 0, STACK
        ARGFRAME XSTACK, 9, STACK
        ARGFRAME IOVERLAY, 0, STATIC
        ARGFRAME DOVERLAY, 0, STATIC
        EXTERN ZDApp_LeaveCtrlReset
        FUNCTION ZDApp_LeaveCtrlReset,0202H
        ARGFRAME ISTACK, 0, STACK
        ARGFRAME PSTACK, 0, STACK
        ARGFRAME XSTACK, 15, STACK
        ARGFRAME IOVERLAY, 0, STATIC
        ARGFRAME DOVERLAY, 0, STATIC
        EXTERN ZDApp_NwkStateUpdateCB
        FUNCTION ZDApp_NwkStateUpdateCB,0202H
        ARGFRAME ISTACK, 0, STACK
        ARGFRAME PSTACK, 0, STACK
        ARGFRAME XSTACK, 12, STACK
        ARGFRAME IOVERLAY, 0, STATIC
        ARGFRAME DOVERLAY, 0, STATIC
        EXTERN ZDApp_SaveNwkKey
        FUNCTION ZDApp_SaveNwkKey,0202H
        ARGFRAME ISTACK, 0, STACK
        ARGFRAME PSTACK, 0, STACK
        ARGFRAME XSTACK, 12, STACK
        ARGFRAME IOVERLAY, 0, STATIC
        ARGFRAME DOVERLAY, 0, STATIC
        EXTERN ZDApp_SecInit
        FUNCTION ZDApp_SecInit,0202H
        ARGFRAME ISTACK, 0, STACK
        ARGFRAME PSTACK, 0, STACK
        ARGFRAME XSTACK, 15, STACK
        ARGFRAME IOVERLAY, 0, STATIC
        ARGFRAME DOVERLAY, 0, STATIC
        EXTERN ZDOInitDeviceEx
        FUNCTION ZDOInitDeviceEx,0202H
        ARGFRAME ISTACK, 0, STACK
        ARGFRAME PSTACK, 0, STACK
        ARGFRAME XSTACK, 9, STACK
        ARGFRAME IOVERLAY, 0, STATIC
        ARGFRAME DOVERLAY, 0, STATIC
        EXTERN ZDO_Config_Node_Descriptor
        EXTERN ZDO_DeregisterForZdoCB
        FUNCTION ZDO_DeregisterForZdoCB,0202H
        ARGFRAME ISTACK, 2, STACK
        ARGFRAME PSTACK, 0, STACK
        ARGFRAME XSTACK, 0, STACK
        ARGFRAME IOVERLAY, 0, STATIC
        ARGFRAME DOVERLAY, 0, STATIC
        EXTERN ZDO_ParseDeviceAnnce
        FUNCTION ZDO_ParseDeviceAnnce,0202H
        ARGFRAME ISTACK, 0, STACK
        ARGFRAME PSTACK, 0, STACK
        ARGFRAME XSTACK, 22, STACK
        ARGFRAME IOVERLAY, 0, STATIC
        ARGFRAME DOVERLAY, 0, STATIC
        EXTERN ZDO_RegisterForZdoCB
        FUNCTION ZDO_RegisterForZdoCB,0202H
        ARGFRAME ISTACK, 0, STACK
        ARGFRAME PSTACK, 0, STACK
        ARGFRAME XSTACK, 19, STACK
        ARGFRAME IOVERLAY, 0, STATIC
        ARGFRAME DOVERLAY, 0, STATIC
        EXTERN ZDP_SendData
        FUNCTION ZDP_SendData,0202H
        ARGFRAME ISTACK, 0, STACK
        ARGFRAME PSTACK, 0, STACK
        ARGFRAME XSTACK, 27, STACK
        ARGFRAME IOVERLAY, 0, STATIC
        ARGFRAME DOVERLAY, 0, STATIC
        EXTERN ZDSecMgrUpdateTCAddress
        FUNCTION ZDSecMgrUpdateTCAddress,0202H
        ARGFRAME ISTACK, 0, STACK
        ARGFRAME PSTACK, 0, STACK
        ARGFRAME XSTACK, 9, STACK
        ARGFRAME IOVERLAY, 0, STATIC
        ARGFRAME DOVERLAY, 0, STATIC
        EXTERN ZMacSetReq
        FUNCTION ZMacSetReq,0202H
        ARGFRAME ISTACK, 0, STACK
        ARGFRAME PSTACK, 0, STACK
        ARGFRAME XSTACK, 13, STACK
        ARGFRAME IOVERLAY, 0, STATIC
        ARGFRAME DOVERLAY, 0, STATIC
        EXTERN _NIB
        EXTERN afFindEndPointDesc
        FUNCTION afFindEndPointDesc,0202H
        ARGFRAME ISTACK, 0, STACK
        ARGFRAME PSTACK, 0, STACK
        ARGFRAME XSTACK, 14, STACK
        ARGFRAME IOVERLAY, 0, STATIC
        ARGFRAME DOVERLAY, 0, STATIC
        EXTERN bdbAttributes
        EXTERN bdbTL_Send_DeviceInfoRsp
        FUNCTION bdbTL_Send_DeviceInfoRsp,0202H
        ARGFRAME ISTACK, 0, STACK
        ARGFRAME PSTACK, 0, STACK
        ARGFRAME XSTACK, 18, STACK
        ARGFRAME IOVERLAY, 0, STATIC
        ARGFRAME DOVERLAY, 0, STATIC
        EXTERN bdb_RegisterSimpleDescriptor
        FUNCTION bdb_RegisterSimpleDescriptor,0202H
        ARGFRAME ISTACK, 0, STACK
        ARGFRAME PSTACK, 0, STACK
        ARGFRAME XSTACK, 9, STACK
        ARGFRAME IOVERLAY, 0, STATIC
        ARGFRAME DOVERLAY, 0, STATIC
        EXTERN bdb_setChannel
        FUNCTION bdb_setChannel,0202H
        ARGFRAME ISTACK, 0, STACK
        ARGFRAME PSTACK, 0, STACK
        ARGFRAME XSTACK, 13, STACK
        ARGFRAME IOVERLAY, 0, STATIC
        ARGFRAME DOVERLAY, 0, STATIC
        EXTERN gMIN_TREE_LQI
        EXTERN gNWK_MAX_DEVICE_LIST
        EXTERN nwkFrameCounter
        EXTERN nwkNeighborAdd
        FUNCTION nwkNeighborAdd,0202H
        ARGFRAME ISTACK, 0, STACK
        ARGFRAME PSTACK, 0, STACK
        ARGFRAME XSTACK, 22, STACK
        ARGFRAME IOVERLAY, 0, STATIC
        ARGFRAME DOVERLAY, 0, STATIC
        EXTERN nwkNeighborGetLinkInfo
        FUNCTION nwkNeighborGetLinkInfo,0202H
        ARGFRAME ISTACK, 0, STACK
        ARGFRAME PSTACK, 0, STACK
        ARGFRAME XSTACK, 22, STACK
        ARGFRAME IOVERLAY, 0, STATIC
        ARGFRAME DOVERLAY, 0, STATIC
        EXTERN nwkTransmissionFailures
        FUNCTION nwkTransmissionFailures,0202H
        ARGFRAME ISTACK, 0, STACK
        ARGFRAME PSTACK, 0, STACK
        ARGFRAME XSTACK, 12, STACK
        ARGFRAME IOVERLAY, 0, STATIC
        ARGFRAME DOVERLAY, 0, STATIC
        EXTERN osal_mem_alloc
        FUNCTION osal_mem_alloc,0202H
        ARGFRAME ISTACK, 0, STACK
        ARGFRAME PSTACK, 0, STACK
        ARGFRAME XSTACK, 18, STACK
        ARGFRAME IOVERLAY, 0, STATIC
        ARGFRAME DOVERLAY, 0, STATIC
        EXTERN osal_mem_free
        FUNCTION osal_mem_free,0202H
        ARGFRAME ISTACK, 0, STACK
        ARGFRAME PSTACK, 0, STACK
        ARGFRAME XSTACK, 17, STACK
        ARGFRAME IOVERLAY, 0, STATIC
        ARGFRAME DOVERLAY, 0, STATIC
        EXTERN osal_memcpy
        FUNCTION osal_memcpy,0202H
        ARGFRAME ISTACK, 0, STACK
        ARGFRAME PSTACK, 0, STACK
        ARGFRAME XSTACK, 84, STACK
        ARGFRAME IOVERLAY, 0, STATIC
        ARGFRAME DOVERLAY, 0, STATIC
        EXTERN osal_memset
        FUNCTION osal_memset,0202H
        ARGFRAME ISTACK, 2, STACK
        ARGFRAME PSTACK, 0, STACK
        ARGFRAME XSTACK, 18, STACK
        ARGFRAME IOVERLAY, 0, STATIC
        ARGFRAME DOVERLAY, 0, STATIC
        EXTERN osal_nv_item_init
        FUNCTION osal_nv_item_init,0202H
        ARGFRAME ISTACK, 0, STACK
        ARGFRAME PSTACK, 0, STACK
        ARGFRAME XSTACK, 14, STACK
        ARGFRAME IOVERLAY, 0, STATIC
        ARGFRAME DOVERLAY, 0, STATIC
        EXTERN osal_nv_read
        FUNCTION osal_nv_read,0202H
        ARGFRAME ISTACK, 0, STACK
        ARGFRAME PSTACK, 0, STACK
        ARGFRAME XSTACK, 16, STACK
        ARGFRAME IOVERLAY, 0, STATIC
        ARGFRAME DOVERLAY, 0, STATIC
        EXTERN osal_nv_write
        FUNCTION osal_nv_write,0202H
        ARGFRAME ISTACK, 0, STACK
        ARGFRAME PSTACK, 0, STACK
        ARGFRAME XSTACK, 14, STACK
        ARGFRAME IOVERLAY, 0, STATIC
        ARGFRAME DOVERLAY, 0, STATIC
        EXTERN osal_rand
        FUNCTION osal_rand,0202H
        ARGFRAME ISTACK, 2, STACK
        ARGFRAME PSTACK, 0, STACK
        ARGFRAME XSTACK, 14, STACK
        ARGFRAME IOVERLAY, 0, STATIC
        ARGFRAME DOVERLAY, 0, STATIC
        EXTERN osal_set_event
        FUNCTION osal_set_event,0202H
        ARGFRAME ISTACK, 2, STACK
        ARGFRAME PSTACK, 0, STACK
        ARGFRAME XSTACK, 0, STACK
        ARGFRAME IOVERLAY, 0, STATIC
        ARGFRAME DOVERLAY, 0, STATIC
        EXTERN sAddrExtCpy
        FUNCTION sAddrExtCpy,0202H
        ARGFRAME ISTACK, 0, STACK
        ARGFRAME PSTACK, 0, STACK
        ARGFRAME XSTACK, 18, STACK
        ARGFRAME IOVERLAY, 0, STATIC
        ARGFRAME DOVERLAY, 0, STATIC
        EXTERN sspAesDecrypt
        FUNCTION sspAesDecrypt,0202H
        ARGFRAME ISTACK, 0, STACK
        ARGFRAME PSTACK, 0, STACK
        ARGFRAME XSTACK, 59, STACK
        ARGFRAME IOVERLAY, 0, STATIC
        ARGFRAME DOVERLAY, 0, STATIC
        EXTERN sspAesEncrypt
        FUNCTION sspAesEncrypt,0202H
        ARGFRAME ISTACK, 0, STACK
        ARGFRAME PSTACK, 0, STACK
        ARGFRAME XSTACK, 81, STACK
        ARGFRAME IOVERLAY, 0, STATIC
        ARGFRAME DOVERLAY, 0, STATIC
        EXTERN zcl_getRawAFMsg
        FUNCTION zcl_getRawAFMsg,0202H
        ARGFRAME ISTACK, 0, STACK
        ARGFRAME PSTACK, 0, STACK
        ARGFRAME XSTACK, 10, STACK
        ARGFRAME IOVERLAY, 0, STATIC
        ARGFRAME DOVERLAY, 0, STATIC
        EXTERN zgRouterOffAssocCleanup
        EXTERN zgWriteStartupOptions
        FUNCTION zgWriteStartupOptions,0202H
        ARGFRAME ISTACK, 0, STACK
        ARGFRAME PSTACK, 0, STACK
        ARGFRAME XSTACK, 10, STACK
        ARGFRAME IOVERLAY, 0, STATIC
        ARGFRAME DOVERLAY, 0, STATIC

// D:\AA\Z-Stack 3.0.2\Components\stack\bdb\bdb_touchlink.c
//    1 /**************************************************************************************************
//    2   Filename:       bdb_touchlink.c
//    3   Revised:        $Date: 2013-12-06 15:53:38 -0800 (Fri, 06 Dec 2013) $
//    4   Revision:       $Revision: 36460 $
//    5 
//    6   Description:    Zigbee Cluster Library - Light Link Profile.
//    7 
//    8 
//    9   Copyright 2011-2013 Texas Instruments Incorporated. All rights reserved.
//   10 
//   11   IMPORTANT: Your use of this Software is limited to those specific rights
//   12   granted under the terms of a software license agreement between the user
//   13   who downloaded the software, his/her employer (which must be your employer)
//   14   and Texas Instruments Incorporated (the "License").  You may not use this
//   15   Software unless you agree to abide by the terms of the License. The License
//   16   limits your use, and you acknowledge, that the Software may not be modified,
//   17   copied or distributed unless embedded on a Texas Instruments microcontroller
//   18   or used solely and exclusively in conjunction with a Texas Instruments radio
//   19   frequency transceiver, which is integrated into your product.  Other than for
//   20   the foregoing purpose, you may not use, reproduce, copy, prepare derivative
//   21   works of, modify, distribute, perform, display or sell this Software and/or
//   22   its documentation for any purpose.
//   23 
//   24   YOU FURTHER ACKNOWLEDGE AND AGREE THAT THE SOFTWARE AND DOCUMENTATION ARE
//   25   PROVIDED AS IS WITHOUT WARRANTY OF ANY KIND, EITHER EXPRESS OR IMPLIED,
//   26   INCLUDING WITHOUT LIMITATION, ANY WARRANTY OF MERCHANTABILITY, TITLE,
//   27   NON-INFRINGEMENT AND FITNESS FOR A PARTICULAR PURPOSE. IN NO EVENT SHALL
//   28   TEXAS INSTRUMENTS OR ITS LICENSORS BE LIABLE OR OBLIGATED UNDER CONTRACT,
//   29   NEGLIGENCE, STRICT LIABILITY, CONTRIBUTION, BREACH OF WARRANTY, OR OTHER
//   30   LEGAL EQUITABLE THEORY ANY DIRECT OR INDIRECT DAMAGES OR EXPENSES
//   31   INCLUDING BUT NOT LIMITED TO ANY INCIDENTAL, SPECIAL, INDIRECT, PUNITIVE
//   32   OR CONSEQUENTIAL DAMAGES, LOST PROFITS OR LOST DATA, COST OF PROCUREMENT
//   33   OF SUBSTITUTE GOODS, TECHNOLOGY, SERVICES, OR ANY CLAIMS BY THIRD PARTIES
//   34   (INCLUDING BUT NOT LIMITED TO ANY DEFENSE THEREOF), OR OTHER SIMILAR COSTS.
//   35 
//   36   Should you have any questions regarding your right to use this Software,
//   37   contact Texas Instruments Incorporated at www.TI.com.
//   38 **************************************************************************************************/
//   39 
//   40 /*********************************************************************
//   41  * INCLUDES
//   42  */
//   43 #include "OSAL_Nv.h"
//   44 #include "hal_aes.h"
//   45 #include "ssp_hash.h"
//   46 #include "nwk_util.h"
//   47 #include "ZDSecMgr.h"
//   48 #include "ZDObject.h"
//   49 
//   50 #if defined( INTER_PAN )
//   51   #include "stub_aps.h"
//   52 #if defined ( BDB_TL_INITIATOR )
//   53   #include "bdb_touchlink_initiator.h"
//   54 #endif // BDB_TL_INITIATOR
//   55 #if defined ( BDB_TL_TARGET )
//   56   #include "bdb_touchlink_target.h"
//   57 #endif // BDB_TL_TARGET
//   58 #endif
//   59 
//   60 #include "bdb.h"
//   61 #include "bdb_interface.h"
//   62 #include "bdb_tlCommissioning.h"
//   63 #include "bdb_touchlink.h"
//   64 
//   65 #if defined ( BDB_TL_TARGET ) || defined ( BDB_TL_INITIATOR )
//   66 
//   67 /*********************************************************************
//   68  * MACROS
//   69  */
//   70 #define TOUCHLINK_NEW_MIN( min, max )                  ( ( (uint32)(max) + (uint32)(min) + 1 ) / 2 )
//   71 
//   72 /*********************************************************************
//   73  * CONSTANTS
//   74  */
//   75 
//   76 #define TOUCHLINK_NUM_DEVICE_INFO_ENTRIES              5
//   77 
//   78 
//   79 /*********************************************************************
//   80  * TYPEDEFS
//   81  */
//   82 
//   83 /*********************************************************************
//   84  * GLOBAL VARIABLES
//   85  */
//   86 

        RSEG XDATA_Z:XDATA:NOROOT(0)
        DATA32
//   87 uint32 touchLinkLastAcceptedTransID;
touchLinkLastAcceptedTransID:
        DS 4
        REQUIRE __INIT_XDATA_Z
//   88    
//   89 // Used for Network Discovery

        RSEG XDATA_Z:XDATA:NOROOT(0)
        DATA16
//   90 touchLinkDiscoveredNwkParam_t *pDiscoveredNwkParamList = NULL;
pDiscoveredNwkParamList:
        DS 2
        REQUIRE __INIT_XDATA_Z
//   91 
//   92 // Current Touch Link Transaction ID

        RSEG XDATA_Z:XDATA:NOROOT(0)
        DATA32
//   93 uint32 touchLinkTransID;
touchLinkTransID:
        DS 4
        REQUIRE __INIT_XDATA_Z
//   94 
//   95 // Scan Response ID

        RSEG XDATA_Z:XDATA:NOROOT(0)
        DATA32
//   96 uint32 touchLinkResponseID;
touchLinkResponseID:
        DS 4
        REQUIRE __INIT_XDATA_Z
//   97 
//   98 // Our group ID range

        RSEG XDATA_Z:XDATA:NOROOT(0)
        DATA16
//   99 uint16 touchLinkGrpIDsBegin;
touchLinkGrpIDsBegin:
        DS 2
        REQUIRE __INIT_XDATA_Z

        RSEG XDATA_Z:XDATA:NOROOT(0)
        DATA16
//  100 uint16 touchLinkGrpIDsEnd;
touchLinkGrpIDsEnd:
        DS 2
        REQUIRE __INIT_XDATA_Z
//  101 
//  102 // Flag for leave

        RSEG XDATA_Z:XDATA:NOROOT(0)
        DATA8
//  103 uint8 touchLinkLeaveInitiated;
touchLinkLeaveInitiated:
        DS 1
        REQUIRE __INIT_XDATA_Z
//  104 
//  105 // Device Information Table

        RSEG XDATA_Z:XDATA:NOROOT(0)
        DATA8
//  106 bdbTLDeviceInfo_t *touchLinkSubDevicesTbl[5];
touchLinkSubDevicesTbl:
        DS 10
        REQUIRE __INIT_XDATA_Z
//  107 
//  108 // Touchlink distributed network flag

        RSEG XDATA_Z:XDATA:NOROOT(0)
        DATA8
//  109 bool touchlinkDistNwk = FALSE;
touchlinkDistNwk:
        DS 1
        REQUIRE __INIT_XDATA_Z
//  110 

        RSEG XDATA_Z:XDATA:NOROOT(0)
        DATA8
//  111 bool touchlinkFNReset;
touchlinkFNReset:
        DS 1
        REQUIRE __INIT_XDATA_Z
//  112 
//  113 /*********************************************************************
//  114  * EXTERNAL VARIABLES
//  115  */
//  116 
//  117 /*********************************************************************
//  118  * EXTERNAL FUNCTIONS
//  119  */
//  120 
//  121 /*********************************************************************
//  122  * LOCAL VARIABLES
//  123  */
//  124 // TOUCHLINK Profile attributes - Our free network address and group ID ranges

        RSEG XDATA_Z:XDATA:NOROOT(0)
        DATA16
//  125 static uint16 touchLinkFreeNwkAddrBegin;
touchLinkFreeNwkAddrBegin:
        DS 2
        REQUIRE __INIT_XDATA_Z

        RSEG XDATA_Z:XDATA:NOROOT(0)
        DATA16
//  126 static uint16 touchLinkFreeNwkAddrEnd;
touchLinkFreeNwkAddrEnd:
        DS 2
        REQUIRE __INIT_XDATA_Z

        RSEG XDATA_Z:XDATA:NOROOT(0)
        DATA16
//  127 static uint16 touchLinkFreeGrpIdBegin;
touchLinkFreeGrpIdBegin:
        DS 2
        REQUIRE __INIT_XDATA_Z

        RSEG XDATA_Z:XDATA:NOROOT(0)
        DATA16
//  128 static uint16 touchLinkFreeGrpIdEnd;
touchLinkFreeGrpIdEnd:
        DS 2
        REQUIRE __INIT_XDATA_Z
//  129 

        RSEG XDATA_Z:XDATA:NOROOT(0)
        DATA8
//  130 static bool touchLinkIsInitiator;
touchLinkIsInitiator:
        DS 1
        REQUIRE __INIT_XDATA_Z

        RSEG XDATA_Z:XDATA:NOROOT(0)
        DATA8
//  131 static uint8 touchLinkTaskId;
touchLinkTaskId:
        DS 1
        REQUIRE __INIT_XDATA_Z
//  132 
//  133 // This is the Cluster ID List and should be filled with Application
//  134 // specific cluster IDs.
//  135 #define TOUCHLINK_EP_MAX_INCLUSTERS       1

        RSEG XDATA_ROM_C:CONST:REORDER:NOROOT(0)
        DATA16
//  136 static const cId_t touchLink_EP_InClusterList[TOUCHLINK_EP_MAX_INCLUSTERS] =
touchLink_EP_InClusterList:
        DW 4096
//  137 {
//  138   ZCL_CLUSTER_ID_TOUCHLINK
//  139 };
//  140 
//  141 #define TOUCHLINK_EP_MAX_OUTCLUSTERS       1

        RSEG XDATA_ROM_C:CONST:REORDER:NOROOT(0)
        DATA16
//  142 static const cId_t touchLink_EP_OutClusterList[TOUCHLINK_EP_MAX_OUTCLUSTERS] =
touchLink_EP_OutClusterList:
        DW 4096
//  143 {
//  144   ZCL_CLUSTER_ID_TOUCHLINK
//  145 };
//  146 

        RSEG XDATA_I:XDATA:NOROOT(0)
//  147 static SimpleDescriptionFormat_t touchLink_EP_SimpleDesc =
touchLink_EP_SimpleDesc:
        DATA8
        DS 12
        REQUIRE `?<Initializer for touchLink_EP_SimpleDesc>`
        REQUIRE __INIT_XDATA_I
//  148 {
//  149   TOUCHLINK_INTERNAL_ENDPOINT,         //  int Endpoint;
//  150   TOUCHLINK_PROFILE_ID,                //  uint16 AppProfId[2];
//  151   TOUCHLINK_INTERNAL_DEVICE_ID,        //  uint16 AppDeviceId[2];
//  152   TOUCHLINK_DEVICE_VERSION,            //  int   AppDevVer:4;
//  153   TOUCHLINK_INTERNAL_FLAGS,            //  int   AppFlags:4;
//  154   TOUCHLINK_EP_MAX_INCLUSTERS,         //  byte  AppNumInClusters;
//  155   (cId_t *)touchLink_EP_InClusterList, //  byte *pAppInClusterList;
//  156   TOUCHLINK_EP_MAX_OUTCLUSTERS,        //  byte  AppNumInClusters;
//  157   (cId_t *)touchLink_EP_OutClusterList //  byte *pAppInClusterList;
//  158 };
//  159 
//  160 #if defined( INTER_PAN )
//  161 // Define endpoint structure to register with STUB APS for INTER-PAN support

        RSEG XDATA_I:XDATA:NOROOT(0)
//  162 static endPointDesc_t touchLink_EP =
touchLink_EP:
        DATA8
        DS 7
        REQUIRE `?<Initializer for touchLink_EP>`
        REQUIRE __INIT_XDATA_I
//  163 {
//  164   TOUCHLINK_INTERNAL_ENDPOINT,
//  165   0,
//  166   &touchLinkTaskId,
//  167   (SimpleDescriptionFormat_t *)NULL,  // No Simple description for this endpoint
//  168   (afNetworkLatencyReq_t)0            // No Network Latency req
//  169 };
//  170 #endif
//  171 
//  172 
//  173 /*********************************************************************
//  174  * LOCAL FUNCTIONS
//  175  */
//  176 static void touchLink_BuildAesKey( uint8 *pAesKey, uint32 transID, uint32 responseID, uint8 keyIndex );
//  177 void touchLink_ItemInit( uint16 id, uint16 len, void *pBuf );
//  178 static void *touchLink_BeaconIndCB ( void *param );
//  179 static void *touchLink_NwkDiscoveryCnfCB ( void *param );
//  180 static void touchLink_InitNV( void );
//  181 
//  182 /*********************************************************************
//  183  * PUBLIC FUNCTIONS
//  184  */
//  185 
//  186 /*********************************************************************
//  187  * @fn      touchLink_InitVariables
//  188  *
//  189  * @brief   Initialize the TOUCHLINK global and local variables.
//  190  *
//  191  * @param   initiator - if caller is Initiator
//  192  *
//  193  * @return  none
//  194  */

        RSEG BANKED_CODE:HUGECODE:NOROOT(0)
//  195 void touchLink_InitVariables( bool initiator )
touchLink_InitVariables:
          CFI Block cfiBlock0 Using cfiCommon0
          CFI Function touchLink_InitVariables
        CODE
//  196 {
        FUNCALL touchLink_InitVariables, osal_nv_write
        LOCFRAME ISTACK, 0, STACK
        LOCFRAME PSTACK, 0, STACK
        LOCFRAME XSTACK, 14, STACK
        LOCFRAME IOVERLAY, 0, STATIC
        LOCFRAME DOVERLAY, 0, STATIC
        ARGFRAME ISTACK, 0, STACK
        ARGFRAME PSTACK, 0, STACK
        ARGFRAME XSTACK, 14, STACK
        ARGFRAME IOVERLAY, 0, STATIC
        ARGFRAME DOVERLAY, 0, STATIC
        FUNCALL touchLink_InitVariables, touchLink_InitFreeRanges
        LOCFRAME ISTACK, 0, STACK
        LOCFRAME PSTACK, 0, STACK
        LOCFRAME XSTACK, 10, STACK
        LOCFRAME IOVERLAY, 0, STATIC
        LOCFRAME DOVERLAY, 0, STATIC
        ARGFRAME ISTACK, 0, STACK
        ARGFRAME PSTACK, 0, STACK
        ARGFRAME XSTACK, 10, STACK
        ARGFRAME IOVERLAY, 0, STATIC
        ARGFRAME DOVERLAY, 0, STATIC
        FUNCALL touchLink_InitVariables, touchLink_ItemInit
        LOCFRAME ISTACK, 0, STACK
        LOCFRAME PSTACK, 0, STACK
        LOCFRAME XSTACK, 12, STACK
        LOCFRAME IOVERLAY, 0, STATIC
        LOCFRAME DOVERLAY, 0, STATIC
        ARGFRAME ISTACK, 0, STACK
        ARGFRAME PSTACK, 0, STACK
        ARGFRAME XSTACK, 12, STACK
        ARGFRAME IOVERLAY, 0, STATIC
        ARGFRAME DOVERLAY, 0, STATIC
        FUNCALL touchLink_InitVariables, touchLink_ItemInit
        LOCFRAME ISTACK, 0, STACK
        LOCFRAME PSTACK, 0, STACK
        LOCFRAME XSTACK, 12, STACK
        LOCFRAME IOVERLAY, 0, STATIC
        LOCFRAME DOVERLAY, 0, STATIC
        ARGFRAME ISTACK, 0, STACK
        ARGFRAME PSTACK, 0, STACK
        ARGFRAME XSTACK, 12, STACK
        ARGFRAME IOVERLAY, 0, STATIC
        ARGFRAME DOVERLAY, 0, STATIC
        FUNCALL touchLink_InitVariables, touchLink_ItemInit
        LOCFRAME ISTACK, 0, STACK
        LOCFRAME PSTACK, 0, STACK
        LOCFRAME XSTACK, 12, STACK
        LOCFRAME IOVERLAY, 0, STATIC
        LOCFRAME DOVERLAY, 0, STATIC
        ARGFRAME ISTACK, 0, STACK
        ARGFRAME PSTACK, 0, STACK
        ARGFRAME XSTACK, 12, STACK
        ARGFRAME IOVERLAY, 0, STATIC
        ARGFRAME DOVERLAY, 0, STATIC
        FUNCALL touchLink_InitVariables, touchLink_ItemInit
        LOCFRAME ISTACK, 0, STACK
        LOCFRAME PSTACK, 0, STACK
        LOCFRAME XSTACK, 12, STACK
        LOCFRAME IOVERLAY, 0, STATIC
        LOCFRAME DOVERLAY, 0, STATIC
        ARGFRAME ISTACK, 0, STACK
        ARGFRAME PSTACK, 0, STACK
        ARGFRAME XSTACK, 12, STACK
        ARGFRAME IOVERLAY, 0, STATIC
        ARGFRAME DOVERLAY, 0, STATIC
        FUNCALL touchLink_InitVariables, touchLink_ItemInit
        LOCFRAME ISTACK, 0, STACK
        LOCFRAME PSTACK, 0, STACK
        LOCFRAME XSTACK, 12, STACK
        LOCFRAME IOVERLAY, 0, STATIC
        LOCFRAME DOVERLAY, 0, STATIC
        ARGFRAME ISTACK, 0, STACK
        ARGFRAME PSTACK, 0, STACK
        ARGFRAME XSTACK, 12, STACK
        ARGFRAME IOVERLAY, 0, STATIC
        ARGFRAME DOVERLAY, 0, STATIC
        FUNCALL touchLink_InitVariables, touchLink_ItemInit
        LOCFRAME ISTACK, 0, STACK
        LOCFRAME PSTACK, 0, STACK
        LOCFRAME XSTACK, 12, STACK
        LOCFRAME IOVERLAY, 0, STATIC
        LOCFRAME DOVERLAY, 0, STATIC
        ARGFRAME ISTACK, 0, STACK
        ARGFRAME PSTACK, 0, STACK
        ARGFRAME XSTACK, 12, STACK
        ARGFRAME IOVERLAY, 0, STATIC
        ARGFRAME DOVERLAY, 0, STATIC
        FUNCALL touchLink_InitVariables, osal_memset
        LOCFRAME ISTACK, 0, STACK
        LOCFRAME PSTACK, 0, STACK
        LOCFRAME XSTACK, 10, STACK
        LOCFRAME IOVERLAY, 0, STATIC
        LOCFRAME DOVERLAY, 0, STATIC
        ARGFRAME ISTACK, 0, STACK
        ARGFRAME PSTACK, 0, STACK
        ARGFRAME XSTACK, 10, STACK
        ARGFRAME IOVERLAY, 0, STATIC
        ARGFRAME DOVERLAY, 0, STATIC
        FUNCALL touchLink_InitVariables, NLME_SetBroadcastFilter
        LOCFRAME ISTACK, 0, STACK
        LOCFRAME PSTACK, 0, STACK
        LOCFRAME XSTACK, 10, STACK
        LOCFRAME IOVERLAY, 0, STATIC
        LOCFRAME DOVERLAY, 0, STATIC
        ARGFRAME ISTACK, 0, STACK
        ARGFRAME PSTACK, 0, STACK
        ARGFRAME XSTACK, 10, STACK
        ARGFRAME IOVERLAY, 0, STATIC
        ARGFRAME DOVERLAY, 0, STATIC
        REQUIRE ?V0
        REQUIRE ?V1
        MOV       A,#-0xa
        LCALL     ?BANKED_ENTER_XDATA
          CFI DPH0 load(1, XDATA, add(CFA_XSP16, literal(-1)))
          CFI DPL0 load(1, XDATA, add(CFA_XSP16, literal(-2)))
          CFI ?BRET_EXT load(1, XDATA, add(CFA_XSP16, literal(-3)))
          CFI ?RET_HIGH load(1, XDATA, add(CFA_XSP16, literal(-4)))
          CFI ?RET_LOW load(1, XDATA, add(CFA_XSP16, literal(-5)))
          CFI R7 load(1, XDATA, add(CFA_XSP16, literal(-6)))
          CFI V1 load(1, XDATA, add(CFA_XSP16, literal(-7)))
          CFI V0 load(1, XDATA, add(CFA_XSP16, literal(-8)))
          CFI VB load(1, XDATA, add(CFA_XSP16, literal(-9)))
          CFI R6 load(1, XDATA, add(CFA_XSP16, literal(-10)))
          CFI CFA_SP SP+0
          CFI CFA_XSP16 add(XSP16, 10)
        ; Saved register size: 10
        ; Auto size: 0
        MOV       A,R1
        MOV       R6,A
//  197   touchLinkTransID = 0;
        MOV       DPTR,#touchLinkTransID
        CLR       A
        MOVX      @DPTR,A
        INC       DPTR
        MOVX      @DPTR,A
        INC       DPTR
        MOVX      @DPTR,A
        INC       DPTR
        MOVX      @DPTR,A
//  198   touchLinkIsInitiator = initiator;
        MOV       A,R1
        MOV       DPTR,#touchLinkIsInitiator
        MOVX      @DPTR,A
//  199 
//  200   if ( bdbAttributes.bdbNodeIsOnANetwork == FALSE )
        MOV       DPTR,#bdbAttributes + 14
        MOVX      A,@DPTR
        JNZ       ??touchLink_InitVariables_0
//  201   {
//  202     _NIB.nwkDevAddress = INVALID_NODE_ADDR;
        MOV       DPTR,#_NIB + 20
        MOV       A,#-0x2
        MOVX      @DPTR,A
        INC       DPTR
        INC       A
        MOVX      @DPTR,A
//  203   }
//  204 
//  205   // verify groups communication is initiated by broadcasts rather than multicasts
//  206   _NIB.nwkUseMultiCast = FALSE;
??touchLink_InitVariables_0:
        MOV       DPTR,#_NIB + 100
        CLR       A
        MOVX      @DPTR,A
//  207   // detect and remove stored deprecated end device children after power up
//  208   zgRouterOffAssocCleanup = TRUE;
        MOV       DPTR,#zgRouterOffAssocCleanup
        INC       A
        MOVX      @DPTR,A
//  209   osal_nv_write(ZCD_NV_ROUTER_OFF_ASSOC_CLEANUP, 0, sizeof(zgRouterOffAssocCleanup), &zgRouterOffAssocCleanup);
        ; Setup parameters for call to function osal_nv_write
        MOV       ?V0,#zgRouterOffAssocCleanup & 0xff
        MOV       ?V1,#(zgRouterOffAssocCleanup >> 8) & 0xff
        MOV       R0,#?V0
        LCALL     ?PUSH_XSTACK_I_TWO
          CFI CFA_XSP16 add(XSP16, 12)
        MOV       ?V0,#0x1
        MOV       ?V1,#0x0
        MOV       R0,#?V0
        LCALL     ?PUSH_XSTACK_I_TWO
          CFI CFA_XSP16 add(XSP16, 14)
        MOV       R4,#0x0
        MOV       R5,#0x0
        MOV       R2,#0x3c
        LCALL     ?Subroutine31 & 0xFFFF
??CrossCallReturnLabel_49:
        LCALL     ?DEALLOC_XSTACK8
          CFI CFA_XSP16 add(XSP16, 10)
//  210 
//  211   touchLink_InitFreeRanges( initiator );
        ; Setup parameters for call to function touchLink_InitFreeRanges
        MOV       A,R6
        MOV       R1,A
        LCALL     `??touchLink_InitFreeRanges::?relay`; Banked call to: touchLink_InitFreeRanges
//  212 
//  213   touchLink_InitNV();
        ; Setup parameters for call to function touchLink_ItemInit
        MOV       ?V0,#touchLinkFreeNwkAddrBegin & 0xff
        MOV       ?V1,#(touchLinkFreeNwkAddrBegin >> 8) & 0xff
        MOV       R0,#?V0
        LCALL     ?PUSH_XSTACK_I_TWO
          CFI CFA_XSP16 add(XSP16, 12)
        MOV       R4,#0x2
        MOV       R5,#0x0
        MOV       R2,#-0x6e
        LCALL     ?Subroutine33 & 0xFFFF
??CrossCallReturnLabel_59:
        LCALL     ?DEALLOC_XSTACK8
          CFI CFA_XSP16 add(XSP16, 10)
        ; Setup parameters for call to function touchLink_ItemInit
        MOV       ?V0,#touchLinkFreeNwkAddrEnd & 0xff
        MOV       ?V1,#(touchLinkFreeNwkAddrEnd >> 8) & 0xff
        MOV       R0,#?V0
        LCALL     ?PUSH_XSTACK_I_TWO
          CFI CFA_XSP16 add(XSP16, 12)
        MOV       R4,#0x2
        MOV       R5,#0x0
        MOV       R2,#-0x6d
        LCALL     ?Subroutine33 & 0xFFFF
??CrossCallReturnLabel_60:
        LCALL     ?DEALLOC_XSTACK8
          CFI CFA_XSP16 add(XSP16, 10)
        ; Setup parameters for call to function touchLink_ItemInit
        MOV       ?V0,#touchLinkFreeGrpIdBegin & 0xff
        MOV       ?V1,#(touchLinkFreeGrpIdBegin >> 8) & 0xff
        MOV       R0,#?V0
        LCALL     ?PUSH_XSTACK_I_TWO
          CFI CFA_XSP16 add(XSP16, 12)
        MOV       R4,#0x2
        MOV       R5,#0x0
        MOV       R2,#-0x6c
        LCALL     ?Subroutine33 & 0xFFFF
??CrossCallReturnLabel_61:
        LCALL     ?DEALLOC_XSTACK8
          CFI CFA_XSP16 add(XSP16, 10)
        ; Setup parameters for call to function touchLink_ItemInit
        MOV       ?V0,#touchLinkFreeGrpIdEnd & 0xff
        MOV       ?V1,#(touchLinkFreeGrpIdEnd >> 8) & 0xff
        MOV       R0,#?V0
        LCALL     ?PUSH_XSTACK_I_TWO
          CFI CFA_XSP16 add(XSP16, 12)
        MOV       R4,#0x2
        MOV       R5,#0x0
        MOV       R2,#-0x6b
        LCALL     ?Subroutine33 & 0xFFFF
??CrossCallReturnLabel_62:
        LCALL     ?DEALLOC_XSTACK8
          CFI CFA_XSP16 add(XSP16, 10)
        ; Setup parameters for call to function touchLink_ItemInit
        MOV       ?V0,#touchLinkGrpIDsBegin & 0xff
        MOV       ?V1,#(touchLinkGrpIDsBegin >> 8) & 0xff
        MOV       R0,#?V0
        LCALL     ?PUSH_XSTACK_I_TWO
          CFI CFA_XSP16 add(XSP16, 12)
        MOV       R4,#0x2
        MOV       R5,#0x0
        MOV       R2,#-0x6a
        LCALL     ?Subroutine33 & 0xFFFF
??CrossCallReturnLabel_63:
        LCALL     ?DEALLOC_XSTACK8
          CFI CFA_XSP16 add(XSP16, 10)
        ; Setup parameters for call to function touchLink_ItemInit
        MOV       ?V0,#touchLinkGrpIDsEnd & 0xff
        MOV       ?V1,#(touchLinkGrpIDsEnd >> 8) & 0xff
        MOV       R0,#?V0
        LCALL     ?PUSH_XSTACK_I_TWO
          CFI CFA_XSP16 add(XSP16, 12)
        MOV       R4,#0x2
        MOV       R5,#0x0
        MOV       R2,#-0x69
        LCALL     ?Subroutine33 & 0xFFFF
??CrossCallReturnLabel_64:
        LCALL     ?DEALLOC_XSTACK8
          CFI CFA_XSP16 add(XSP16, 10)
//  214 
//  215   touchLinkLeaveInitiated = FALSE;
        MOV       DPTR,#touchLinkLeaveInitiated
        CLR       A
        MOVX      @DPTR,A
//  216 
//  217   // Initialize device info table
//  218   osal_memset( touchLinkSubDevicesTbl, 0, sizeof( touchLinkSubDevicesTbl ) );
        ; Setup parameters for call to function osal_memset
        MOV       R4,#0xa
        MOV       R5,A
        MOV       R1,A
        MOV       R2,#touchLinkSubDevicesTbl & 0xff
        MOV       R3,#(touchLinkSubDevicesTbl >> 8) & 0xff
        LCALL     `??osal_memset::?relay`; Banked call to: osal_memset
//  219   
//  220   touchLinkIsInitiator = FALSE;
        MOV       DPTR,#touchLinkIsInitiator
        CLR       A
        MOVX      @DPTR,A
//  221   
//  222   // set broadcast address mask to support broadcast filtering
//  223   NLME_SetBroadcastFilter( ZDO_Config_Node_Descriptor.CapabilityFlags );
        ; Setup parameters for call to function NLME_SetBroadcastFilter
        MOV       DPTR,#ZDO_Config_Node_Descriptor + 2
        MOVX      A,@DPTR
        MOV       R1,A
        LCALL     `??NLME_SetBroadcastFilter::?relay`; Banked call to: NLME_SetBroadcastFilter
//  224 }
        LJMP      ?Subroutine0 & 0xFFFF
          CFI EndBlock cfiBlock0

        RSEG BANKED_CODE:HUGECODE:NOROOT(0)
?Subroutine33:
          CFI Block cfiCond1 Using cfiCommon0
          CFI Function touchLink_InitVariables
          CFI Conditional ??CrossCallReturnLabel_59
          CFI R6 load(1, XDATA, add(CFA_XSP16, literal(-10)))
          CFI VB load(1, XDATA, add(CFA_XSP16, literal(-9)))
          CFI V0 load(1, XDATA, add(CFA_XSP16, literal(-8)))
          CFI V1 load(1, XDATA, add(CFA_XSP16, literal(-7)))
          CFI R7 load(1, XDATA, add(CFA_XSP16, literal(-6)))
          CFI ?RET_LOW load(1, XDATA, add(CFA_XSP16, literal(-5)))
          CFI ?RET_HIGH load(1, XDATA, add(CFA_XSP16, literal(-4)))
          CFI ?BRET_EXT load(1, XDATA, add(CFA_XSP16, literal(-3)))
          CFI DPL0 load(1, XDATA, add(CFA_XSP16, literal(-2)))
          CFI DPH0 load(1, XDATA, add(CFA_XSP16, literal(-1)))
          CFI CFA_SP SP+-2
          CFI CFA_XSP16 add(XSP16, 12)
          CFI Block cfiCond2 Using cfiCommon0
          CFI (cfiCond2) Function touchLink_InitVariables
          CFI (cfiCond2) Conditional ??CrossCallReturnLabel_60
          CFI (cfiCond2) R6 load(1, XDATA, add(CFA_XSP16, literal(-10)))
          CFI (cfiCond2) VB load(1, XDATA, add(CFA_XSP16, literal(-9)))
          CFI (cfiCond2) V0 load(1, XDATA, add(CFA_XSP16, literal(-8)))
          CFI (cfiCond2) V1 load(1, XDATA, add(CFA_XSP16, literal(-7)))
          CFI (cfiCond2) R7 load(1, XDATA, add(CFA_XSP16, literal(-6)))
          CFI (cfiCond2) ?RET_LOW load(1, XDATA, add(CFA_XSP16, literal(-5)))
          CFI (cfiCond2) ?RET_HIGH load(1, XDATA, add(CFA_XSP16, literal(-4)))
          CFI (cfiCond2) ?BRET_EXT load(1, XDATA, add(CFA_XSP16, literal(-3)))
          CFI (cfiCond2) DPL0 load(1, XDATA, add(CFA_XSP16, literal(-2)))
          CFI (cfiCond2) DPH0 load(1, XDATA, add(CFA_XSP16, literal(-1)))
          CFI (cfiCond2) CFA_SP SP+-2
          CFI (cfiCond2) CFA_XSP16 add(XSP16, 12)
          CFI Block cfiCond3 Using cfiCommon0
          CFI (cfiCond3) Function touchLink_InitVariables
          CFI (cfiCond3) Conditional ??CrossCallReturnLabel_61
          CFI (cfiCond3) R6 load(1, XDATA, add(CFA_XSP16, literal(-10)))
          CFI (cfiCond3) VB load(1, XDATA, add(CFA_XSP16, literal(-9)))
          CFI (cfiCond3) V0 load(1, XDATA, add(CFA_XSP16, literal(-8)))
          CFI (cfiCond3) V1 load(1, XDATA, add(CFA_XSP16, literal(-7)))
          CFI (cfiCond3) R7 load(1, XDATA, add(CFA_XSP16, literal(-6)))
          CFI (cfiCond3) ?RET_LOW load(1, XDATA, add(CFA_XSP16, literal(-5)))
          CFI (cfiCond3) ?RET_HIGH load(1, XDATA, add(CFA_XSP16, literal(-4)))
          CFI (cfiCond3) ?BRET_EXT load(1, XDATA, add(CFA_XSP16, literal(-3)))
          CFI (cfiCond3) DPL0 load(1, XDATA, add(CFA_XSP16, literal(-2)))
          CFI (cfiCond3) DPH0 load(1, XDATA, add(CFA_XSP16, literal(-1)))
          CFI (cfiCond3) CFA_SP SP+-2
          CFI (cfiCond3) CFA_XSP16 add(XSP16, 12)
          CFI Block cfiCond4 Using cfiCommon0
          CFI (cfiCond4) Function touchLink_InitVariables
          CFI (cfiCond4) Conditional ??CrossCallReturnLabel_62
          CFI (cfiCond4) R6 load(1, XDATA, add(CFA_XSP16, literal(-10)))
          CFI (cfiCond4) VB load(1, XDATA, add(CFA_XSP16, literal(-9)))
          CFI (cfiCond4) V0 load(1, XDATA, add(CFA_XSP16, literal(-8)))
          CFI (cfiCond4) V1 load(1, XDATA, add(CFA_XSP16, literal(-7)))
          CFI (cfiCond4) R7 load(1, XDATA, add(CFA_XSP16, literal(-6)))
          CFI (cfiCond4) ?RET_LOW load(1, XDATA, add(CFA_XSP16, literal(-5)))
          CFI (cfiCond4) ?RET_HIGH load(1, XDATA, add(CFA_XSP16, literal(-4)))
          CFI (cfiCond4) ?BRET_EXT load(1, XDATA, add(CFA_XSP16, literal(-3)))
          CFI (cfiCond4) DPL0 load(1, XDATA, add(CFA_XSP16, literal(-2)))
          CFI (cfiCond4) DPH0 load(1, XDATA, add(CFA_XSP16, literal(-1)))
          CFI (cfiCond4) CFA_SP SP+-2
          CFI (cfiCond4) CFA_XSP16 add(XSP16, 12)
          CFI Block cfiCond5 Using cfiCommon0
          CFI (cfiCond5) Function touchLink_InitVariables
          CFI (cfiCond5) Conditional ??CrossCallReturnLabel_63
          CFI (cfiCond5) R6 load(1, XDATA, add(CFA_XSP16, literal(-10)))
          CFI (cfiCond5) VB load(1, XDATA, add(CFA_XSP16, literal(-9)))
          CFI (cfiCond5) V0 load(1, XDATA, add(CFA_XSP16, literal(-8)))
          CFI (cfiCond5) V1 load(1, XDATA, add(CFA_XSP16, literal(-7)))
          CFI (cfiCond5) R7 load(1, XDATA, add(CFA_XSP16, literal(-6)))
          CFI (cfiCond5) ?RET_LOW load(1, XDATA, add(CFA_XSP16, literal(-5)))
          CFI (cfiCond5) ?RET_HIGH load(1, XDATA, add(CFA_XSP16, literal(-4)))
          CFI (cfiCond5) ?BRET_EXT load(1, XDATA, add(CFA_XSP16, literal(-3)))
          CFI (cfiCond5) DPL0 load(1, XDATA, add(CFA_XSP16, literal(-2)))
          CFI (cfiCond5) DPH0 load(1, XDATA, add(CFA_XSP16, literal(-1)))
          CFI (cfiCond5) CFA_SP SP+-2
          CFI (cfiCond5) CFA_XSP16 add(XSP16, 12)
          CFI Block cfiCond6 Using cfiCommon0
          CFI (cfiCond6) Function touchLink_InitVariables
          CFI (cfiCond6) Conditional ??CrossCallReturnLabel_64
          CFI (cfiCond6) R6 load(1, XDATA, add(CFA_XSP16, literal(-10)))
          CFI (cfiCond6) VB load(1, XDATA, add(CFA_XSP16, literal(-9)))
          CFI (cfiCond6) V0 load(1, XDATA, add(CFA_XSP16, literal(-8)))
          CFI (cfiCond6) V1 load(1, XDATA, add(CFA_XSP16, literal(-7)))
          CFI (cfiCond6) R7 load(1, XDATA, add(CFA_XSP16, literal(-6)))
          CFI (cfiCond6) ?RET_LOW load(1, XDATA, add(CFA_XSP16, literal(-5)))
          CFI (cfiCond6) ?RET_HIGH load(1, XDATA, add(CFA_XSP16, literal(-4)))
          CFI (cfiCond6) ?BRET_EXT load(1, XDATA, add(CFA_XSP16, literal(-3)))
          CFI (cfiCond6) DPL0 load(1, XDATA, add(CFA_XSP16, literal(-2)))
          CFI (cfiCond6) DPH0 load(1, XDATA, add(CFA_XSP16, literal(-1)))
          CFI (cfiCond6) CFA_SP SP+-2
          CFI (cfiCond6) CFA_XSP16 add(XSP16, 12)
          CFI Block cfiPicker7 Using cfiCommon1
          CFI (cfiPicker7) NoFunction
          CFI (cfiPicker7) Picker
        MOV       R3,#0x0
        LCALL     `??touchLink_ItemInit::?relay`; Banked call to: touchLink_ItemInit
        MOV       A,#0x2
        RET
          CFI EndBlock cfiCond1
          CFI EndBlock cfiCond2
          CFI EndBlock cfiCond3
          CFI EndBlock cfiCond4
          CFI EndBlock cfiCond5
          CFI EndBlock cfiCond6
          CFI EndBlock cfiPicker7
//  225 
//  226 /*********************************************************************
//  227  * @fn      touchLink_InitFreeRanges
//  228  *
//  229  * @brief   Initialize the TOUCHLINK free range global variables.
//  230  *
//  231  * @param   initiator - if caller is link initiator
//  232  *
//  233  * @return  none
//  234  */

        RSEG BANKED_CODE:HUGECODE:NOROOT(0)
//  235 void touchLink_InitFreeRanges( bool initiator )
touchLink_InitFreeRanges:
          CFI Block cfiBlock8 Using cfiCommon0
          CFI Function touchLink_InitFreeRanges
        CODE
//  236 {
        PUSH      DPL
          CFI DPL0 Frame(CFA_SP, 4)
          CFI CFA_SP SP+-4
        PUSH      DPH
          CFI DPH0 Frame(CFA_SP, 5)
          CFI CFA_SP SP+-5
        ; Saved register size: 2
        ; Auto size: 0
//  237   // Initialize our free network address and group ID ranges
//  238   if ( initiator )
        MOV       A,R1
        JZ        ??touchLink_InitFreeRanges_0
//  239   {
//  240     touchLinkFreeNwkAddrBegin = APL_FREE_NWK_ADDR_RANGE_BEGIN;
        MOV       DPTR,#touchLinkFreeNwkAddrBegin
        MOV       A,#0x1
        MOVX      @DPTR,A
        INC       DPTR
        CLR       A
        MOVX      @DPTR,A
//  241     touchLinkFreeNwkAddrEnd = APL_FREE_NWK_ADDR_RANGE_END;
        MOV       DPTR,#touchLinkFreeNwkAddrEnd
        MOV       A,#-0x9
        MOVX      @DPTR,A
        INC       DPTR
        MOV       A,#-0x1
        MOVX      @DPTR,A
//  242 
//  243     touchLinkFreeGrpIdBegin = APL_FREE_GROUP_ID_RANGE_BEGIN;
        MOV       DPTR,#touchLinkFreeGrpIdBegin
        MOV       A,#0x1
        MOVX      @DPTR,A
        INC       DPTR
        CLR       A
        MOVX      @DPTR,A
//  244     touchLinkFreeGrpIdEnd = APL_FREE_GROUP_ID_RANGE_END;
        MOV       DPTR,#touchLinkFreeGrpIdEnd
        MOV       A,#-0x1
        MOVX      @DPTR,A
        INC       DPTR
        DEC       A
        SJMP      ??touchLink_InitFreeRanges_1
//  245   }
//  246   else
//  247   {
//  248     touchLinkFreeNwkAddrBegin = touchLinkFreeNwkAddrEnd = 0;
??touchLink_InitFreeRanges_0:
        MOV       DPTR,#touchLinkFreeNwkAddrEnd
        CLR       A
        MOVX      @DPTR,A
        INC       DPTR
        MOVX      @DPTR,A
        MOV       DPTR,#touchLinkFreeNwkAddrBegin
        MOVX      @DPTR,A
        INC       DPTR
        MOVX      @DPTR,A
//  249     touchLinkFreeGrpIdBegin = touchLinkFreeGrpIdEnd = 0;
        MOV       DPTR,#touchLinkFreeGrpIdEnd
        MOVX      @DPTR,A
        INC       DPTR
        MOVX      @DPTR,A
        MOV       DPTR,#touchLinkFreeGrpIdBegin
        MOVX      @DPTR,A
        INC       DPTR
??touchLink_InitFreeRanges_1:
        MOVX      @DPTR,A
//  250   }
//  251 
//  252   // Initialize our local group ID range
//  253   touchLinkGrpIDsBegin = touchLinkGrpIDsEnd = 0;
        MOV       DPTR,#touchLinkGrpIDsEnd
        CLR       A
        MOVX      @DPTR,A
        INC       DPTR
        MOVX      @DPTR,A
        MOV       DPTR,#touchLinkGrpIDsBegin
        MOVX      @DPTR,A
        INC       DPTR
        LJMP      ??Subroutine45_0 & 0xFFFF
//  254 }
          CFI EndBlock cfiBlock8
//  255 
//  256 /*********************************************************************
//  257  * @fn      touchLink_UpdateFreeRanges
//  258  *
//  259  * @brief   Update the TOUCHLINK free range global variables.
//  260  *
//  261  * @param   pParams - new parameters
//  262  *
//  263  * @return  none
//  264  */

        RSEG BANKED_CODE:HUGECODE:NOROOT(0)
//  265 void touchLink_UpdateFreeRanges( bdbTLNwkParams_t *pParams )
touchLink_UpdateFreeRanges:
          CFI Block cfiBlock9 Using cfiCommon0
          CFI Function touchLink_UpdateFreeRanges
        CODE
//  266 {
        PUSH      DPL
          CFI DPL0 Frame(CFA_SP, 4)
          CFI CFA_SP SP+-4
        PUSH      DPH
          CFI DPH0 Frame(CFA_SP, 5)
          CFI CFA_SP SP+-5
        ; Saved register size: 2
        ; Auto size: 0
//  267   // Set our free network address and group ID ranges
//  268   touchLinkFreeNwkAddrBegin = pParams->freeNwkAddrBegin;
        MOV       A,R2
        ADD       A,#0x22
        LCALL     ?Subroutine26 & 0xFFFF
??CrossCallReturnLabel_112:
        MOV       DPTR,#touchLinkFreeNwkAddrBegin
        LCALL     ?Subroutine10 & 0xFFFF
//  269   touchLinkFreeNwkAddrEnd = pParams->freeNwkAddrEnd;
??CrossCallReturnLabel_8:
        ADD       A,#0x24
        LCALL     ?Subroutine26 & 0xFFFF
??CrossCallReturnLabel_113:
        MOV       DPTR,#touchLinkFreeNwkAddrEnd
        LCALL     ?Subroutine10 & 0xFFFF
//  270   touchLinkFreeGrpIdBegin = pParams->freeGrpIDBegin;
??CrossCallReturnLabel_9:
        ADD       A,#0x26
        LCALL     ?Subroutine26 & 0xFFFF
??CrossCallReturnLabel_114:
        MOV       DPTR,#touchLinkFreeGrpIdBegin
        LCALL     ?Subroutine10 & 0xFFFF
//  271   touchLinkFreeGrpIdEnd = pParams->freeGrpIDEnd;
??CrossCallReturnLabel_10:
        ADD       A,#0x28
        LCALL     ?Subroutine26 & 0xFFFF
??CrossCallReturnLabel_115:
        MOV       DPTR,#touchLinkFreeGrpIdEnd
        LCALL     ?Subroutine10 & 0xFFFF
//  272 
//  273   // Set our group ID range
//  274   touchLinkGrpIDsBegin = pParams->grpIDsBegin;
??CrossCallReturnLabel_11:
        ADD       A,#0x1e
        LCALL     ?Subroutine26 & 0xFFFF
??CrossCallReturnLabel_116:
        MOV       DPTR,#touchLinkGrpIDsBegin
        LCALL     ?Subroutine10 & 0xFFFF
//  275   touchLinkGrpIDsEnd = pParams->grpIDsEnd;
??CrossCallReturnLabel_12:
        ADD       A,#0x20
        LCALL     ?Subroutine26 & 0xFFFF
??CrossCallReturnLabel_117:
        MOV       DPTR,#touchLinkGrpIDsEnd
        LJMP      ?Subroutine1 & 0xFFFF
//  276 }
          CFI EndBlock cfiBlock9

        RSEG BANKED_CODE:HUGECODE:NOROOT(0)
?Subroutine10:
          CFI Block cfiCond10 Using cfiCommon0
          CFI Function touchLink_UpdateFreeRanges
          CFI Conditional ??CrossCallReturnLabel_8
          CFI DPL0 Frame(CFA_SP, 4)
          CFI DPH0 Frame(CFA_SP, 5)
          CFI CFA_SP SP+-7
          CFI Block cfiCond11 Using cfiCommon0
          CFI (cfiCond11) Function touchLink_UpdateFreeRanges
          CFI (cfiCond11) Conditional ??CrossCallReturnLabel_9
          CFI (cfiCond11) DPL0 Frame(CFA_SP, 4)
          CFI (cfiCond11) DPH0 Frame(CFA_SP, 5)
          CFI (cfiCond11) CFA_SP SP+-7
          CFI Block cfiCond12 Using cfiCommon0
          CFI (cfiCond12) Function touchLink_UpdateFreeRanges
          CFI (cfiCond12) Conditional ??CrossCallReturnLabel_10
          CFI (cfiCond12) DPL0 Frame(CFA_SP, 4)
          CFI (cfiCond12) DPH0 Frame(CFA_SP, 5)
          CFI (cfiCond12) CFA_SP SP+-7
          CFI Block cfiCond13 Using cfiCommon0
          CFI (cfiCond13) Function touchLink_UpdateFreeRanges
          CFI (cfiCond13) Conditional ??CrossCallReturnLabel_11
          CFI (cfiCond13) DPL0 Frame(CFA_SP, 4)
          CFI (cfiCond13) DPH0 Frame(CFA_SP, 5)
          CFI (cfiCond13) CFA_SP SP+-7
          CFI Block cfiCond14 Using cfiCommon0
          CFI (cfiCond14) Function touchLink_UpdateFreeRanges
          CFI (cfiCond14) Conditional ??CrossCallReturnLabel_12
          CFI (cfiCond14) DPL0 Frame(CFA_SP, 4)
          CFI (cfiCond14) DPH0 Frame(CFA_SP, 5)
          CFI (cfiCond14) CFA_SP SP+-7
          CFI Block cfiPicker15 Using cfiCommon1
          CFI (cfiPicker15) NoFunction
          CFI (cfiPicker15) Picker
        MOV       A,R0
        MOVX      @DPTR,A
        INC       DPTR
        MOV       A,R1
        MOVX      @DPTR,A
        MOV       A,R2
        RET
          CFI EndBlock cfiCond10
          CFI EndBlock cfiCond11
          CFI EndBlock cfiCond12
          CFI EndBlock cfiCond13
          CFI EndBlock cfiCond14
          CFI EndBlock cfiPicker15
//  277 
//  278 /*********************************************************************
//  279  * @fn      touchLink_GerFreeRanges
//  280  *
//  281  * @brief   Get the TOUCHLINK free range global variables.
//  282  *
//  283  * @param   pParams - parameter to get
//  284  *
//  285  * @return  none
//  286  */

        RSEG BANKED_CODE:HUGECODE:NOROOT(0)
//  287 void touchLink_GerFreeRanges( bdbTLNwkParams_t *pParams )
touchLink_GerFreeRanges:
          CFI Block cfiBlock16 Using cfiCommon0
          CFI Function touchLink_GerFreeRanges
        CODE
//  288 {
        PUSH      DPL
          CFI DPL0 Frame(CFA_SP, 4)
          CFI CFA_SP SP+-4
        PUSH      DPH
          CFI DPH0 Frame(CFA_SP, 5)
          CFI CFA_SP SP+-5
        ; Saved register size: 2
        ; Auto size: 0
//  289   // Set our free network address and group ID ranges
//  290   pParams->freeNwkAddrBegin = touchLinkFreeNwkAddrBegin;
        MOV       DPTR,#touchLinkFreeNwkAddrBegin
        LCALL     ?Subroutine25 & 0xFFFF
??CrossCallReturnLabel_40:
        ADD       A,#0x22
        MOV       DPL,A
        CLR       A
        ADDC      A,R3
        MOV       DPH,A
        MOV       A,R0
        MOVX      @DPTR,A
        INC       DPTR
        MOV       A,R1
        LCALL     ?Subroutine14 & 0xFFFF
//  291   pParams->freeNwkAddrEnd = touchLinkFreeNwkAddrEnd;
??CrossCallReturnLabel_17:
        MOV       A,R2
        ADD       A,#0x24
        MOV       DPL,A
        CLR       A
        ADDC      A,R3
        MOV       DPH,A
        MOV       A,R0
        LCALL     ?Subroutine16 & 0xFFFF
//  292   pParams->freeGrpIDBegin = touchLinkFreeGrpIdBegin;
??CrossCallReturnLabel_21:
        MOV       R0,A
        INC       DPTR
        MOVX      A,@DPTR
        MOV       R1,A
        MOV       A,R2
        ADD       A,#0x26
        MOV       DPL,A
        CLR       A
        ADDC      A,R3
        MOV       DPH,A
        LCALL     ?Subroutine9 & 0xFFFF
//  293   pParams->freeGrpIDEnd = touchLinkFreeGrpIdEnd;
??CrossCallReturnLabel_6:
        MOV       A,R2
        ADD       A,#0x28
        LCALL     ?Subroutine17 & 0xFFFF
//  294   
//  295     // Set our group ID range
//  296   pParams->grpIDsBegin = touchLinkGrpIDsBegin;
??CrossCallReturnLabel_104:
        MOV       DPTR,#touchLinkGrpIDsBegin
        LCALL     ?Subroutine25 & 0xFFFF
??CrossCallReturnLabel_41:
        ADD       A,#0x1e
        LCALL     ?Subroutine17 & 0xFFFF
//  297   pParams->grpIDsEnd = touchLinkGrpIDsEnd;
??CrossCallReturnLabel_105:
        MOV       DPTR,#touchLinkGrpIDsEnd
        LCALL     ?Subroutine25 & 0xFFFF
??CrossCallReturnLabel_42:
        ADD       A,#0x20
        MOV       DPL,A
        CLR       A
        ADDC      A,R3
        MOV       DPH,A
        LJMP      ?Subroutine1 & 0xFFFF
//  298 }
          CFI EndBlock cfiBlock16

        RSEG BANKED_CODE:HUGECODE:NOROOT(0)
?Subroutine25:
          CFI Block cfiCond17 Using cfiCommon0
          CFI Function touchLink_GerFreeRanges
          CFI Conditional ??CrossCallReturnLabel_40
          CFI DPL0 Frame(CFA_SP, 4)
          CFI DPH0 Frame(CFA_SP, 5)
          CFI CFA_SP SP+-7
          CFI Block cfiCond18 Using cfiCommon0
          CFI (cfiCond18) Function touchLink_GerFreeRanges
          CFI (cfiCond18) Conditional ??CrossCallReturnLabel_41
          CFI (cfiCond18) DPL0 Frame(CFA_SP, 4)
          CFI (cfiCond18) DPH0 Frame(CFA_SP, 5)
          CFI (cfiCond18) CFA_SP SP+-7
          CFI Block cfiCond19 Using cfiCommon0
          CFI (cfiCond19) Function touchLink_GerFreeRanges
          CFI (cfiCond19) Conditional ??CrossCallReturnLabel_42
          CFI (cfiCond19) DPL0 Frame(CFA_SP, 4)
          CFI (cfiCond19) DPH0 Frame(CFA_SP, 5)
          CFI (cfiCond19) CFA_SP SP+-7
          CFI Block cfiPicker20 Using cfiCommon1
          CFI (cfiPicker20) NoFunction
          CFI (cfiPicker20) Picker
        LCALL     ?Subroutine39 & 0xFFFF
??CrossCallReturnLabel_120:
        MOV       A,R2
        RET
          CFI EndBlock cfiCond17
          CFI EndBlock cfiCond18
          CFI EndBlock cfiCond19
          CFI EndBlock cfiPicker20
//  299 
//  300 /*********************************************************************
//  301  * @fn      touchLink_IsValidSplitFreeRanges
//  302  *
//  303  * @brief   Checks to see if the resulting two ranges are not smaller
//  304  *          than the threshold after division of a network address or
//  305  *          group ID range. The Initiator splits its own free range
//  306  *          in half and assigns the top half to the new device.
//  307  *
//  308  *          Note: A range (Nmin...Nmax) is split as follows:
//  309  *
//  310  *                N'min = (Nmax + Nmin + 1)/2
//  311  *                N'max = Nmax
//  312  *                Nmax = N'min - 1
//  313  *
//  314  * @param   totalGrpIDs - total number of group IDs needed
//  315  *
//  316  * @return  TRUE if split possible. FALSE, otherwise.
//  317  */

        RSEG BANKED_CODE:HUGECODE:NOROOT(0)
//  318 bool touchLink_IsValidSplitFreeRanges( uint8 totalGrpIDs )
touchLink_IsValidSplitFreeRanges:
          CFI Block cfiBlock21 Using cfiCommon0
          CFI Function touchLink_IsValidSplitFreeRanges
        CODE
//  319 {
        PUSH      DPL
          CFI DPL0 Frame(CFA_SP, 4)
          CFI CFA_SP SP+-4
        PUSH      DPH
          CFI DPH0 Frame(CFA_SP, 5)
          CFI CFA_SP SP+-5
        ; Saved register size: 2
        ; Auto size: 0
        MOV       A,R1
        MOV       R4,A
//  320   if ( ( touchLinkFreeNwkAddrBegin != 0 ) && ( touchLinkFreeGrpIdBegin != 0 ) )
        LCALL     ?Subroutine20 & 0xFFFF
??CrossCallReturnLabel_84:
        JZ        ??touchLink_IsValidSplitFreeRanges_0
        MOV       DPTR,#touchLinkFreeGrpIdBegin
        LCALL     ??Subroutine43_0 & 0xFFFF
??CrossCallReturnLabel_80:
        JZ        ??touchLink_IsValidSplitFreeRanges_0
//  321   {
//  322       return ( ( ( ( touchLinkFreeNwkAddrEnd - touchLinkFreeNwkAddrBegin ) / 2 ) >= APL_FREE_ADDR_THRESHOLD ) &&
//  323                ( ( ( touchLinkFreeGrpIdEnd - ( touchLinkFreeGrpIdBegin + totalGrpIDs - 1 ) ) / 2 ) >= APL_FREE_GROUP_ID_THRESHOLD ) );
        MOV       DPTR,#touchLinkFreeNwkAddrBegin
        LCALL     ??Subroutine53_0 & 0xFFFF
//  324 
//  325   }
??CrossCallReturnLabel_106:
        MOV       DPH,#(touchLinkFreeNwkAddrEnd >> 8) & 0xff
        MOV       DPL,#touchLinkFreeNwkAddrEnd & 0xff
        MOVX      A,@DPTR
        CLR       C
        SUBB      A,R0
        MOV       R0,A
        INC       DPTR
        MOVX      A,@DPTR
        SUBB      A,R1
        CLR       C
        RRC       A
        MOV       R1,A
        MOV       A,R0
        RRC       A
        CLR       C
        SUBB      A,#0xa
        MOV       A,R1
        SUBB      A,#0x0
        JC        ??touchLink_IsValidSplitFreeRanges_0
        MOV       DPTR,#touchLinkFreeGrpIdBegin
        LCALL     ??Subroutine53_0 & 0xFFFF
??CrossCallReturnLabel_107:
        MOV       DPH,#(touchLinkFreeGrpIdEnd >> 8) & 0xff
        MOV       DPL,#touchLinkFreeGrpIdEnd & 0xff
        MOVX      A,@DPTR
        CLR       C
        SUBB      A,R0
        MOV       R0,A
        INC       DPTR
        MOVX      A,@DPTR
        SUBB      A,R1
        MOV       R1,A
        MOV       A,R4
        MOV       R2,A
        MOV       A,R0
        CLR       C
        SUBB      A,R2
        MOV       R0,A
        MOV       A,R1
        SUBB      A,#0x0
        MOV       R1,A
        MOV       A,R0
        ADD       A,#0x1
        INC       R0
        JNC       ??touchLink_IsValidSplitFreeRanges_1
        INC       R1
??touchLink_IsValidSplitFreeRanges_1:
        MOV       A,R1
        CLR       C
        RRC       A
        MOV       R1,A
        MOV       A,R0
        RRC       A
        CLR       C
        SUBB      A,#0xa
        MOV       A,R1
        SUBB      A,#0x0
        JC        ??touchLink_IsValidSplitFreeRanges_0
        MOV       R1,#0x1
        SJMP      ??touchLink_IsValidSplitFreeRanges_2
//  326 
//  327   return ( FALSE );
??touchLink_IsValidSplitFreeRanges_0:
        MOV       R1,#0x0
??touchLink_IsValidSplitFreeRanges_2:
        LJMP      ??Subroutine46_0 & 0xFFFF
//  328 }
          CFI EndBlock cfiBlock21
//  329 
//  330 /*********************************************************************
//  331  * @fn      touchLink_SplitFreeRanges
//  332  *
//  333  * @brief   Split our own free network address and group ID ranges
//  334  *          in half and assign the top half to the new device.
//  335  *
//  336  *          Note: A range (Nmin...Nmax) is split as follows:
//  337  *
//  338  *                N'min = (Nmax + Nmin + 1)/2
//  339  *                N'max = Nmax
//  340  *                Nmax = N'min - 1
//  341  *
//  342  * output parameters
//  343  *
//  344  * @param   pAddrBegin - new address range begin
//  345  * @param   pAddrEnd - new address range end
//  346  * @param   pGrpIdBegin - new group id range begin
//  347  * @param   pGrpIdEnd - new group id range end
//  348  *
//  349  * @return  none
//  350  */

        RSEG BANKED_CODE:HUGECODE:NOROOT(0)
//  351 void touchLink_SplitFreeRanges( uint16 *pAddrBegin, uint16 *pAddrEnd,
touchLink_SplitFreeRanges:
          CFI Block cfiBlock22 Using cfiCommon0
          CFI Function touchLink_SplitFreeRanges
        CODE
//  352                         uint16 *pGrpIdBegin, uint16 *pGrpIdEnd )
//  353 {
        REQUIRE ?V0
        REQUIRE ?V1
        REQUIRE ?V2
        REQUIRE ?V3
        REQUIRE ?V4
        REQUIRE ?V5
        REQUIRE ?V6
        REQUIRE ?V7
        REQUIRE ?V8
        REQUIRE ?V9
        MOV       A,#-0x12
        LCALL     ?BANKED_ENTER_XDATA
          CFI DPH0 load(1, XDATA, add(CFA_XSP16, literal(-1)))
          CFI DPL0 load(1, XDATA, add(CFA_XSP16, literal(-2)))
          CFI ?BRET_EXT load(1, XDATA, add(CFA_XSP16, literal(-3)))
          CFI ?RET_HIGH load(1, XDATA, add(CFA_XSP16, literal(-4)))
          CFI ?RET_LOW load(1, XDATA, add(CFA_XSP16, literal(-5)))
          CFI R7 load(1, XDATA, add(CFA_XSP16, literal(-6)))
          CFI V9 load(1, XDATA, add(CFA_XSP16, literal(-7)))
          CFI V8 load(1, XDATA, add(CFA_XSP16, literal(-8)))
          CFI V7 load(1, XDATA, add(CFA_XSP16, literal(-9)))
          CFI V6 load(1, XDATA, add(CFA_XSP16, literal(-10)))
          CFI V5 load(1, XDATA, add(CFA_XSP16, literal(-11)))
          CFI V4 load(1, XDATA, add(CFA_XSP16, literal(-12)))
          CFI V3 load(1, XDATA, add(CFA_XSP16, literal(-13)))
          CFI V2 load(1, XDATA, add(CFA_XSP16, literal(-14)))
          CFI V1 load(1, XDATA, add(CFA_XSP16, literal(-15)))
          CFI V0 load(1, XDATA, add(CFA_XSP16, literal(-16)))
          CFI VB load(1, XDATA, add(CFA_XSP16, literal(-17)))
          CFI R6 load(1, XDATA, add(CFA_XSP16, literal(-18)))
          CFI CFA_SP SP+0
          CFI CFA_XSP16 add(XSP16, 18)
        ; Saved register size: 18
        ; Auto size: 0
        MOV       ?V8,R4
        MOV       ?V9,R5
        MOV       A,#0x12
        LCALL     ?XSTACK_DISP0_8
        MOVX      A,@DPTR
        MOV       R4,A
        INC       DPTR
        MOVX      A,@DPTR
        MOV       R5,A
        MOV       A,#0x14
        LCALL     ?XSTACK_DISP0_8
        LCALL     ?Subroutine24 & 0xFFFF
//  354   if ( ( touchLinkFreeNwkAddrBegin != 0 ) && ( touchLinkFreeGrpIdBegin != 0 ) )
??CrossCallReturnLabel_35:
        LCALL     ?Subroutine20 & 0xFFFF
??CrossCallReturnLabel_85:
        JNZ       $+5
        LJMP      ??touchLink_SplitFreeRanges_0 & 0xFFFF
        MOV       DPTR,#touchLinkFreeGrpIdBegin
        LCALL     ??Subroutine43_0 & 0xFFFF
??CrossCallReturnLabel_81:
        JNZ       $+5
        LJMP      ??touchLink_SplitFreeRanges_0 & 0xFFFF
//  355   {
//  356     *pAddrBegin = TOUCHLINK_NEW_MIN( touchLinkFreeNwkAddrBegin, touchLinkFreeNwkAddrEnd );
        MOV       DPTR,#touchLinkFreeNwkAddrEnd
        LCALL     ?Subroutine22 & 0xFFFF
??CrossCallReturnLabel_30:
        MOV       DPTR,#touchLinkFreeNwkAddrBegin
        LCALL     ?Subroutine40 & 0xFFFF
??CrossCallReturnLabel_73:
        CLR       A
        MOV       ?V2,A
        MOV       ?V3,A
        MOV       R0,#?V4
        MOV       R1,#?V0
        LCALL     ?L_ADD
        MOV       DPTR,#__Constant_1
        MOV       R0,#?V4
        LCALL     ?L_ADD_X
        MOV       A,#0x1
        MOV       R0,#?V4
        LCALL     ?UL_SHR
        MOV       DPL,R2
        MOV       DPH,R3
        MOV       A,?V4
        MOVX      @DPTR,A
        INC       DPTR
        MOV       A,?V5
        MOVX      @DPTR,A
//  357     *pGrpIdBegin = TOUCHLINK_NEW_MIN( touchLinkFreeGrpIdBegin, touchLinkFreeGrpIdEnd );
        MOV       DPTR,#touchLinkFreeGrpIdEnd
        LCALL     ?Subroutine22 & 0xFFFF
??CrossCallReturnLabel_31:
        MOV       DPTR,#touchLinkFreeGrpIdBegin
        LCALL     ?Subroutine40 & 0xFFFF
??CrossCallReturnLabel_74:
        MOV       R0,#?V4
        MOV       R1,#?V0
        LCALL     ?L_ADD
        MOV       DPTR,#__Constant_1
        MOV       R0,#?V4
        LCALL     ?L_ADD_X
        MOV       A,#0x1
        MOV       R0,#?V4
        LCALL     ?UL_SHR
        MOV       DPL,R4
        MOV       DPH,R5
        MOV       A,?V4
        MOVX      @DPTR,A
        INC       DPTR
        MOV       A,?V5
        LCALL     ?Subroutine14 & 0xFFFF
//  358 
//  359     *pAddrEnd = touchLinkFreeNwkAddrEnd;
??CrossCallReturnLabel_18:
        MOV       DPL,?V8
        MOV       DPH,?V9
        LCALL     ?Subroutine9 & 0xFFFF
//  360     *pGrpIdEnd = touchLinkFreeGrpIdEnd;
??CrossCallReturnLabel_7:
        MOV       DPL,R6
        MOV       DPH,R7
        MOV       A,R0
        MOVX      @DPTR,A
        INC       DPTR
        MOV       A,R1
        LCALL     ??Subroutine49_0 & 0xFFFF
//  361 
//  362     // Update our max
//  363     touchLinkFreeNwkAddrEnd = *pAddrBegin - 1;
??CrossCallReturnLabel_96:
        LCALL     ?Subroutine21 & 0xFFFF
??CrossCallReturnLabel_27:
        MOV       DPTR,#touchLinkFreeNwkAddrEnd
        LCALL     ??Subroutine51_0 & 0xFFFF
//  364     touchLinkFreeGrpIdEnd = *pGrpIdBegin - 1;
??CrossCallReturnLabel_100:
        MOV       DPL,R4
        MOV       DPH,R5
        LCALL     ?Subroutine21 & 0xFFFF
//  365   }
??CrossCallReturnLabel_28:
        MOV       DPTR,#touchLinkFreeGrpIdEnd
        MOV       A,R0
        MOVX      @DPTR,A
        INC       DPTR
        MOV       A,R1
        SJMP      ??touchLink_SplitFreeRanges_1
//  366   else
//  367   {
//  368     *pAddrBegin = *pAddrEnd = 0;
??touchLink_SplitFreeRanges_0:
        MOV       DPL,?V8
        MOV       DPH,?V9
        LCALL     ?Subroutine11 & 0xFFFF
??CrossCallReturnLabel_98:
        MOVX      @DPTR,A
        INC       DPTR
        MOVX      @DPTR,A
//  369     *pGrpIdBegin = *pGrpIdEnd = 0;
        MOV       DPL,R6
        MOV       DPH,R7
        MOVX      @DPTR,A
        INC       DPTR
        MOVX      @DPTR,A
        MOV       DPL,R4
        MOV       DPH,R5
        MOVX      @DPTR,A
        INC       DPTR
??touchLink_SplitFreeRanges_1:
        MOVX      @DPTR,A
//  370   }
//  371 }
          CFI EndBlock cfiBlock22
        REQUIRE ?Subroutine2
        ; // Fall through to label ?Subroutine2

        RSEG BANKED_CODE:HUGECODE:NOROOT(0)
?Subroutine2:
          CFI Block cfiBlock23 Using cfiCommon0
          CFI NoFunction
          CFI CFA_SP SP+0
          CFI CFA_XSP16 add(XSP16, 18)
          CFI VB load(1, XDATA, add(CFA_XSP16, literal(-17)))
          CFI DPL0 load(1, XDATA, add(CFA_XSP16, literal(-2)))
          CFI DPH0 load(1, XDATA, add(CFA_XSP16, literal(-1)))
          CFI R6 load(1, XDATA, add(CFA_XSP16, literal(-18)))
          CFI R7 load(1, XDATA, add(CFA_XSP16, literal(-6)))
          CFI V0 load(1, XDATA, add(CFA_XSP16, literal(-16)))
          CFI V1 load(1, XDATA, add(CFA_XSP16, literal(-15)))
          CFI V2 load(1, XDATA, add(CFA_XSP16, literal(-14)))
          CFI V3 load(1, XDATA, add(CFA_XSP16, literal(-13)))
          CFI V4 load(1, XDATA, add(CFA_XSP16, literal(-12)))
          CFI V5 load(1, XDATA, add(CFA_XSP16, literal(-11)))
          CFI V6 load(1, XDATA, add(CFA_XSP16, literal(-10)))
          CFI V7 load(1, XDATA, add(CFA_XSP16, literal(-9)))
          CFI V8 load(1, XDATA, add(CFA_XSP16, literal(-8)))
          CFI V9 load(1, XDATA, add(CFA_XSP16, literal(-7)))
          CFI ?BRET_EXT load(1, XDATA, add(CFA_XSP16, literal(-3)))
          CFI ?RET_HIGH load(1, XDATA, add(CFA_XSP16, literal(-4)))
          CFI ?RET_LOW load(1, XDATA, add(CFA_XSP16, literal(-5)))
        MOV       R7,#0xa
        LJMP      ?BANKED_LEAVE_XDATA
          CFI EndBlock cfiBlock23

        RSEG BANKED_CODE:HUGECODE:NOROOT(0)
?Subroutine22:
          CFI Block cfiCond24 Using cfiCommon0
          CFI Function touchLink_SplitFreeRanges
          CFI Conditional ??CrossCallReturnLabel_30
          CFI R6 load(1, XDATA, add(CFA_XSP16, literal(-18)))
          CFI VB load(1, XDATA, add(CFA_XSP16, literal(-17)))
          CFI V0 load(1, XDATA, add(CFA_XSP16, literal(-16)))
          CFI V1 load(1, XDATA, add(CFA_XSP16, literal(-15)))
          CFI V2 load(1, XDATA, add(CFA_XSP16, literal(-14)))
          CFI V3 load(1, XDATA, add(CFA_XSP16, literal(-13)))
          CFI V4 load(1, XDATA, add(CFA_XSP16, literal(-12)))
          CFI V5 load(1, XDATA, add(CFA_XSP16, literal(-11)))
          CFI V6 load(1, XDATA, add(CFA_XSP16, literal(-10)))
          CFI V7 load(1, XDATA, add(CFA_XSP16, literal(-9)))
          CFI V8 load(1, XDATA, add(CFA_XSP16, literal(-8)))
          CFI V9 load(1, XDATA, add(CFA_XSP16, literal(-7)))
          CFI R7 load(1, XDATA, add(CFA_XSP16, literal(-6)))
          CFI ?RET_LOW load(1, XDATA, add(CFA_XSP16, literal(-5)))
          CFI ?RET_HIGH load(1, XDATA, add(CFA_XSP16, literal(-4)))
          CFI ?BRET_EXT load(1, XDATA, add(CFA_XSP16, literal(-3)))
          CFI DPL0 load(1, XDATA, add(CFA_XSP16, literal(-2)))
          CFI DPH0 load(1, XDATA, add(CFA_XSP16, literal(-1)))
          CFI CFA_SP SP+-2
          CFI CFA_XSP16 add(XSP16, 18)
          CFI Block cfiCond25 Using cfiCommon0
          CFI (cfiCond25) Function touchLink_SplitFreeRanges
          CFI (cfiCond25) Conditional ??CrossCallReturnLabel_31
          CFI (cfiCond25) R6 load(1, XDATA, add(CFA_XSP16, literal(-18)))
          CFI (cfiCond25) VB load(1, XDATA, add(CFA_XSP16, literal(-17)))
          CFI (cfiCond25) V0 load(1, XDATA, add(CFA_XSP16, literal(-16)))
          CFI (cfiCond25) V1 load(1, XDATA, add(CFA_XSP16, literal(-15)))
          CFI (cfiCond25) V2 load(1, XDATA, add(CFA_XSP16, literal(-14)))
          CFI (cfiCond25) V3 load(1, XDATA, add(CFA_XSP16, literal(-13)))
          CFI (cfiCond25) V4 load(1, XDATA, add(CFA_XSP16, literal(-12)))
          CFI (cfiCond25) V5 load(1, XDATA, add(CFA_XSP16, literal(-11)))
          CFI (cfiCond25) V6 load(1, XDATA, add(CFA_XSP16, literal(-10)))
          CFI (cfiCond25) V7 load(1, XDATA, add(CFA_XSP16, literal(-9)))
          CFI (cfiCond25) V8 load(1, XDATA, add(CFA_XSP16, literal(-8)))
          CFI (cfiCond25) V9 load(1, XDATA, add(CFA_XSP16, literal(-7)))
          CFI (cfiCond25) R7 load(1, XDATA, add(CFA_XSP16, literal(-6)))
          CFI (cfiCond25) ?RET_LOW load(1, XDATA, add(CFA_XSP16, literal(-5)))
          CFI (cfiCond25) ?RET_HIGH load(1, XDATA, add(CFA_XSP16, literal(-4)))
          CFI (cfiCond25) ?BRET_EXT load(1, XDATA, add(CFA_XSP16, literal(-3)))
          CFI (cfiCond25) DPL0 load(1, XDATA, add(CFA_XSP16, literal(-2)))
          CFI (cfiCond25) DPH0 load(1, XDATA, add(CFA_XSP16, literal(-1)))
          CFI (cfiCond25) CFA_SP SP+-2
          CFI (cfiCond25) CFA_XSP16 add(XSP16, 18)
          CFI Block cfiPicker26 Using cfiCommon1
          CFI (cfiPicker26) NoFunction
          CFI (cfiPicker26) Picker
        MOVX      A,@DPTR
        MOV       ?V4,A
        INC       DPTR
        MOVX      A,@DPTR
        MOV       ?V5,A
        CLR       A
        MOV       ?V6,A
        MOV       ?V7,A
        RET
          CFI EndBlock cfiCond24
          CFI EndBlock cfiCond25
          CFI EndBlock cfiPicker26

        RSEG BANKED_CODE:HUGECODE:NOROOT(0)
?Subroutine14:
          CFI Block cfiCond27 Using cfiCommon0
          CFI Function touchLink_GerFreeRanges
          CFI Conditional ??CrossCallReturnLabel_17
          CFI DPL0 Frame(CFA_SP, 4)
          CFI DPH0 Frame(CFA_SP, 5)
          CFI CFA_SP SP+-7
          CFI Block cfiCond28 Using cfiCommon0
          CFI (cfiCond28) Function touchLink_SplitFreeRanges
          CFI (cfiCond28) Conditional ??CrossCallReturnLabel_18
          CFI (cfiCond28) R6 load(1, XDATA, add(CFA_XSP16, literal(-18)))
          CFI (cfiCond28) VB load(1, XDATA, add(CFA_XSP16, literal(-17)))
          CFI (cfiCond28) V0 load(1, XDATA, add(CFA_XSP16, literal(-16)))
          CFI (cfiCond28) V1 load(1, XDATA, add(CFA_XSP16, literal(-15)))
          CFI (cfiCond28) V2 load(1, XDATA, add(CFA_XSP16, literal(-14)))
          CFI (cfiCond28) V3 load(1, XDATA, add(CFA_XSP16, literal(-13)))
          CFI (cfiCond28) V4 load(1, XDATA, add(CFA_XSP16, literal(-12)))
          CFI (cfiCond28) V5 load(1, XDATA, add(CFA_XSP16, literal(-11)))
          CFI (cfiCond28) V6 load(1, XDATA, add(CFA_XSP16, literal(-10)))
          CFI (cfiCond28) V7 load(1, XDATA, add(CFA_XSP16, literal(-9)))
          CFI (cfiCond28) V8 load(1, XDATA, add(CFA_XSP16, literal(-8)))
          CFI (cfiCond28) V9 load(1, XDATA, add(CFA_XSP16, literal(-7)))
          CFI (cfiCond28) R7 load(1, XDATA, add(CFA_XSP16, literal(-6)))
          CFI (cfiCond28) ?RET_LOW load(1, XDATA, add(CFA_XSP16, literal(-5)))
          CFI (cfiCond28) ?RET_HIGH load(1, XDATA, add(CFA_XSP16, literal(-4)))
          CFI (cfiCond28) ?BRET_EXT load(1, XDATA, add(CFA_XSP16, literal(-3)))
          CFI (cfiCond28) DPL0 load(1, XDATA, add(CFA_XSP16, literal(-2)))
          CFI (cfiCond28) DPH0 load(1, XDATA, add(CFA_XSP16, literal(-1)))
          CFI (cfiCond28) CFA_SP SP+-2
          CFI (cfiCond28) CFA_XSP16 add(XSP16, 18)
          CFI Block cfiPicker29 Using cfiCommon1
          CFI (cfiPicker29) NoFunction
          CFI (cfiPicker29) Picker
        MOVX      @DPTR,A
        MOV       DPTR,#touchLinkFreeNwkAddrEnd
        LCALL     ?Subroutine39 & 0xFFFF
??CrossCallReturnLabel_119:
        RET
          CFI EndBlock cfiCond27
          CFI EndBlock cfiCond28
          CFI EndBlock cfiPicker29

        RSEG BANKED_CODE:HUGECODE:NOROOT(0)
?Subroutine9:
          CFI Block cfiCond30 Using cfiCommon0
          CFI Function touchLink_GerFreeRanges
          CFI Conditional ??CrossCallReturnLabel_6
          CFI DPL0 Frame(CFA_SP, 4)
          CFI DPH0 Frame(CFA_SP, 5)
          CFI CFA_SP SP+-7
          CFI Block cfiCond31 Using cfiCommon0
          CFI (cfiCond31) Function touchLink_SplitFreeRanges
          CFI (cfiCond31) Conditional ??CrossCallReturnLabel_7
          CFI (cfiCond31) R6 load(1, XDATA, add(CFA_XSP16, literal(-18)))
          CFI (cfiCond31) VB load(1, XDATA, add(CFA_XSP16, literal(-17)))
          CFI (cfiCond31) V0 load(1, XDATA, add(CFA_XSP16, literal(-16)))
          CFI (cfiCond31) V1 load(1, XDATA, add(CFA_XSP16, literal(-15)))
          CFI (cfiCond31) V2 load(1, XDATA, add(CFA_XSP16, literal(-14)))
          CFI (cfiCond31) V3 load(1, XDATA, add(CFA_XSP16, literal(-13)))
          CFI (cfiCond31) V4 load(1, XDATA, add(CFA_XSP16, literal(-12)))
          CFI (cfiCond31) V5 load(1, XDATA, add(CFA_XSP16, literal(-11)))
          CFI (cfiCond31) V6 load(1, XDATA, add(CFA_XSP16, literal(-10)))
          CFI (cfiCond31) V7 load(1, XDATA, add(CFA_XSP16, literal(-9)))
          CFI (cfiCond31) V8 load(1, XDATA, add(CFA_XSP16, literal(-8)))
          CFI (cfiCond31) V9 load(1, XDATA, add(CFA_XSP16, literal(-7)))
          CFI (cfiCond31) R7 load(1, XDATA, add(CFA_XSP16, literal(-6)))
          CFI (cfiCond31) ?RET_LOW load(1, XDATA, add(CFA_XSP16, literal(-5)))
          CFI (cfiCond31) ?RET_HIGH load(1, XDATA, add(CFA_XSP16, literal(-4)))
          CFI (cfiCond31) ?BRET_EXT load(1, XDATA, add(CFA_XSP16, literal(-3)))
          CFI (cfiCond31) DPL0 load(1, XDATA, add(CFA_XSP16, literal(-2)))
          CFI (cfiCond31) DPH0 load(1, XDATA, add(CFA_XSP16, literal(-1)))
          CFI (cfiCond31) CFA_SP SP+-2
          CFI (cfiCond31) CFA_XSP16 add(XSP16, 18)
          CFI Block cfiPicker32 Using cfiCommon1
          CFI (cfiPicker32) NoFunction
          CFI (cfiPicker32) Picker
        MOV       A,R0
        MOVX      @DPTR,A
        INC       DPTR
        MOV       A,R1
        MOVX      @DPTR,A
        MOV       DPTR,#touchLinkFreeGrpIdEnd
        LCALL     ?Subroutine39 & 0xFFFF
??CrossCallReturnLabel_118:
        RET
          CFI EndBlock cfiCond30
          CFI EndBlock cfiCond31
          CFI EndBlock cfiPicker32

        RSEG BANKED_CODE:HUGECODE:NOROOT(0)
?Subroutine39:
          CFI Block cfiCond33 Using cfiCommon0
          CFI Function touchLink_GerFreeRanges
          CFI Conditional ??CrossCallReturnLabel_120, ??CrossCallReturnLabel_40
          CFI DPL0 Frame(CFA_SP, 4)
          CFI DPH0 Frame(CFA_SP, 5)
          CFI CFA_SP SP+-9
          CFI Block cfiCond34 Using cfiCommon0
          CFI (cfiCond34) Function touchLink_GerFreeRanges
          CFI (cfiCond34) Conditional ??CrossCallReturnLabel_120, ??CrossCallReturnLabel_41
          CFI (cfiCond34) DPL0 Frame(CFA_SP, 4)
          CFI (cfiCond34) DPH0 Frame(CFA_SP, 5)
          CFI (cfiCond34) CFA_SP SP+-9
          CFI Block cfiCond35 Using cfiCommon0
          CFI (cfiCond35) Function touchLink_GerFreeRanges
          CFI (cfiCond35) Conditional ??CrossCallReturnLabel_120, ??CrossCallReturnLabel_42
          CFI (cfiCond35) DPL0 Frame(CFA_SP, 4)
          CFI (cfiCond35) DPH0 Frame(CFA_SP, 5)
          CFI (cfiCond35) CFA_SP SP+-9
          CFI Block cfiCond36 Using cfiCommon0
          CFI (cfiCond36) Function touchLink_GerFreeRanges
          CFI (cfiCond36) Conditional ??CrossCallReturnLabel_119, ??CrossCallReturnLabel_17
          CFI (cfiCond36) DPL0 Frame(CFA_SP, 4)
          CFI (cfiCond36) DPH0 Frame(CFA_SP, 5)
          CFI (cfiCond36) CFA_SP SP+-9
          CFI Block cfiCond37 Using cfiCommon0
          CFI (cfiCond37) Function touchLink_SplitFreeRanges
          CFI (cfiCond37) Conditional ??CrossCallReturnLabel_119, ??CrossCallReturnLabel_18
          CFI (cfiCond37) R6 load(1, XDATA, add(CFA_XSP16, literal(-18)))
          CFI (cfiCond37) VB load(1, XDATA, add(CFA_XSP16, literal(-17)))
          CFI (cfiCond37) V0 load(1, XDATA, add(CFA_XSP16, literal(-16)))
          CFI (cfiCond37) V1 load(1, XDATA, add(CFA_XSP16, literal(-15)))
          CFI (cfiCond37) V2 load(1, XDATA, add(CFA_XSP16, literal(-14)))
          CFI (cfiCond37) V3 load(1, XDATA, add(CFA_XSP16, literal(-13)))
          CFI (cfiCond37) V4 load(1, XDATA, add(CFA_XSP16, literal(-12)))
          CFI (cfiCond37) V5 load(1, XDATA, add(CFA_XSP16, literal(-11)))
          CFI (cfiCond37) V6 load(1, XDATA, add(CFA_XSP16, literal(-10)))
          CFI (cfiCond37) V7 load(1, XDATA, add(CFA_XSP16, literal(-9)))
          CFI (cfiCond37) V8 load(1, XDATA, add(CFA_XSP16, literal(-8)))
          CFI (cfiCond37) V9 load(1, XDATA, add(CFA_XSP16, literal(-7)))
          CFI (cfiCond37) R7 load(1, XDATA, add(CFA_XSP16, literal(-6)))
          CFI (cfiCond37) ?RET_LOW load(1, XDATA, add(CFA_XSP16, literal(-5)))
          CFI (cfiCond37) ?RET_HIGH load(1, XDATA, add(CFA_XSP16, literal(-4)))
          CFI (cfiCond37) ?BRET_EXT load(1, XDATA, add(CFA_XSP16, literal(-3)))
          CFI (cfiCond37) DPL0 load(1, XDATA, add(CFA_XSP16, literal(-2)))
          CFI (cfiCond37) DPH0 load(1, XDATA, add(CFA_XSP16, literal(-1)))
          CFI (cfiCond37) CFA_SP SP+-4
          CFI (cfiCond37) CFA_XSP16 add(XSP16, 18)
          CFI Block cfiCond38 Using cfiCommon0
          CFI (cfiCond38) Function touchLink_GerFreeRanges
          CFI (cfiCond38) Conditional ??CrossCallReturnLabel_118, ??CrossCallReturnLabel_6
          CFI (cfiCond38) DPL0 Frame(CFA_SP, 4)
          CFI (cfiCond38) DPH0 Frame(CFA_SP, 5)
          CFI (cfiCond38) CFA_SP SP+-9
          CFI Block cfiCond39 Using cfiCommon0
          CFI (cfiCond39) Function touchLink_SplitFreeRanges
          CFI (cfiCond39) Conditional ??CrossCallReturnLabel_118, ??CrossCallReturnLabel_7
          CFI (cfiCond39) R6 load(1, XDATA, add(CFA_XSP16, literal(-18)))
          CFI (cfiCond39) VB load(1, XDATA, add(CFA_XSP16, literal(-17)))
          CFI (cfiCond39) V0 load(1, XDATA, add(CFA_XSP16, literal(-16)))
          CFI (cfiCond39) V1 load(1, XDATA, add(CFA_XSP16, literal(-15)))
          CFI (cfiCond39) V2 load(1, XDATA, add(CFA_XSP16, literal(-14)))
          CFI (cfiCond39) V3 load(1, XDATA, add(CFA_XSP16, literal(-13)))
          CFI (cfiCond39) V4 load(1, XDATA, add(CFA_XSP16, literal(-12)))
          CFI (cfiCond39) V5 load(1, XDATA, add(CFA_XSP16, literal(-11)))
          CFI (cfiCond39) V6 load(1, XDATA, add(CFA_XSP16, literal(-10)))
          CFI (cfiCond39) V7 load(1, XDATA, add(CFA_XSP16, literal(-9)))
          CFI (cfiCond39) V8 load(1, XDATA, add(CFA_XSP16, literal(-8)))
          CFI (cfiCond39) V9 load(1, XDATA, add(CFA_XSP16, literal(-7)))
          CFI (cfiCond39) R7 load(1, XDATA, add(CFA_XSP16, literal(-6)))
          CFI (cfiCond39) ?RET_LOW load(1, XDATA, add(CFA_XSP16, literal(-5)))
          CFI (cfiCond39) ?RET_HIGH load(1, XDATA, add(CFA_XSP16, literal(-4)))
          CFI (cfiCond39) ?BRET_EXT load(1, XDATA, add(CFA_XSP16, literal(-3)))
          CFI (cfiCond39) DPL0 load(1, XDATA, add(CFA_XSP16, literal(-2)))
          CFI (cfiCond39) DPH0 load(1, XDATA, add(CFA_XSP16, literal(-1)))
          CFI (cfiCond39) CFA_SP SP+-4
          CFI (cfiCond39) CFA_XSP16 add(XSP16, 18)
          CFI Block cfiCond40 Using cfiCommon0
          CFI (cfiCond40) Function touchLink_IsValidSplitFreeRanges
          CFI (cfiCond40) Conditional ??CrossCallReturnLabel_121, ??CrossCallReturnLabel_84
          CFI (cfiCond40) DPL0 Frame(CFA_SP, 4)
          CFI (cfiCond40) DPH0 Frame(CFA_SP, 5)
          CFI (cfiCond40) CFA_SP SP+-9
          CFI Block cfiCond41 Using cfiCommon0
          CFI (cfiCond41) Function touchLink_SplitFreeRanges
          CFI (cfiCond41) Conditional ??CrossCallReturnLabel_121, ??CrossCallReturnLabel_85
          CFI (cfiCond41) R6 load(1, XDATA, add(CFA_XSP16, literal(-18)))
          CFI (cfiCond41) VB load(1, XDATA, add(CFA_XSP16, literal(-17)))
          CFI (cfiCond41) V0 load(1, XDATA, add(CFA_XSP16, literal(-16)))
          CFI (cfiCond41) V1 load(1, XDATA, add(CFA_XSP16, literal(-15)))
          CFI (cfiCond41) V2 load(1, XDATA, add(CFA_XSP16, literal(-14)))
          CFI (cfiCond41) V3 load(1, XDATA, add(CFA_XSP16, literal(-13)))
          CFI (cfiCond41) V4 load(1, XDATA, add(CFA_XSP16, literal(-12)))
          CFI (cfiCond41) V5 load(1, XDATA, add(CFA_XSP16, literal(-11)))
          CFI (cfiCond41) V6 load(1, XDATA, add(CFA_XSP16, literal(-10)))
          CFI (cfiCond41) V7 load(1, XDATA, add(CFA_XSP16, literal(-9)))
          CFI (cfiCond41) V8 load(1, XDATA, add(CFA_XSP16, literal(-8)))
          CFI (cfiCond41) V9 load(1, XDATA, add(CFA_XSP16, literal(-7)))
          CFI (cfiCond41) R7 load(1, XDATA, add(CFA_XSP16, literal(-6)))
          CFI (cfiCond41) ?RET_LOW load(1, XDATA, add(CFA_XSP16, literal(-5)))
          CFI (cfiCond41) ?RET_HIGH load(1, XDATA, add(CFA_XSP16, literal(-4)))
          CFI (cfiCond41) ?BRET_EXT load(1, XDATA, add(CFA_XSP16, literal(-3)))
          CFI (cfiCond41) DPL0 load(1, XDATA, add(CFA_XSP16, literal(-2)))
          CFI (cfiCond41) DPH0 load(1, XDATA, add(CFA_XSP16, literal(-1)))
          CFI (cfiCond41) CFA_SP SP+-4
          CFI (cfiCond41) CFA_XSP16 add(XSP16, 18)
          CFI Block cfiCond42 Using cfiCommon0
          CFI (cfiCond42) Function touchLink_PopNwkAddress
          CFI (cfiCond42) Conditional ??CrossCallReturnLabel_121, ??CrossCallReturnLabel_86
          CFI (cfiCond42) DPL0 Frame(CFA_SP, 4)
          CFI (cfiCond42) DPH0 Frame(CFA_SP, 5)
          CFI (cfiCond42) CFA_SP SP+-9
          CFI Block cfiCond43 Using cfiCommon0
          CFI (cfiCond43) Function touchLink_IsValidSplitFreeRanges
          CFI (cfiCond43) Conditional ??CrossCallReturnLabel_121, ??CrossCallReturnLabel_80
          CFI (cfiCond43) DPL0 Frame(CFA_SP, 4)
          CFI (cfiCond43) DPH0 Frame(CFA_SP, 5)
          CFI (cfiCond43) CFA_SP SP+-9
          CFI Block cfiCond44 Using cfiCommon0
          CFI (cfiCond44) Function touchLink_SplitFreeRanges
          CFI (cfiCond44) Conditional ??CrossCallReturnLabel_121, ??CrossCallReturnLabel_81
          CFI (cfiCond44) R6 load(1, XDATA, add(CFA_XSP16, literal(-18)))
          CFI (cfiCond44) VB load(1, XDATA, add(CFA_XSP16, literal(-17)))
          CFI (cfiCond44) V0 load(1, XDATA, add(CFA_XSP16, literal(-16)))
          CFI (cfiCond44) V1 load(1, XDATA, add(CFA_XSP16, literal(-15)))
          CFI (cfiCond44) V2 load(1, XDATA, add(CFA_XSP16, literal(-14)))
          CFI (cfiCond44) V3 load(1, XDATA, add(CFA_XSP16, literal(-13)))
          CFI (cfiCond44) V4 load(1, XDATA, add(CFA_XSP16, literal(-12)))
          CFI (cfiCond44) V5 load(1, XDATA, add(CFA_XSP16, literal(-11)))
          CFI (cfiCond44) V6 load(1, XDATA, add(CFA_XSP16, literal(-10)))
          CFI (cfiCond44) V7 load(1, XDATA, add(CFA_XSP16, literal(-9)))
          CFI (cfiCond44) V8 load(1, XDATA, add(CFA_XSP16, literal(-8)))
          CFI (cfiCond44) V9 load(1, XDATA, add(CFA_XSP16, literal(-7)))
          CFI (cfiCond44) R7 load(1, XDATA, add(CFA_XSP16, literal(-6)))
          CFI (cfiCond44) ?RET_LOW load(1, XDATA, add(CFA_XSP16, literal(-5)))
          CFI (cfiCond44) ?RET_HIGH load(1, XDATA, add(CFA_XSP16, literal(-4)))
          CFI (cfiCond44) ?BRET_EXT load(1, XDATA, add(CFA_XSP16, literal(-3)))
          CFI (cfiCond44) DPL0 load(1, XDATA, add(CFA_XSP16, literal(-2)))
          CFI (cfiCond44) DPH0 load(1, XDATA, add(CFA_XSP16, literal(-1)))
          CFI (cfiCond44) CFA_SP SP+-4
          CFI (cfiCond44) CFA_XSP16 add(XSP16, 18)
          CFI Block cfiCond45 Using cfiCommon0
          CFI (cfiCond45) Function touchLink_PopGrpIDRange
          CFI (cfiCond45) Conditional ??CrossCallReturnLabel_121, ??CrossCallReturnLabel_82
          CFI (cfiCond45) R6 load(1, XDATA, add(CFA_XSP16, literal(-10)))
          CFI (cfiCond45) VB load(1, XDATA, add(CFA_XSP16, literal(-9)))
          CFI (cfiCond45) V0 load(1, XDATA, add(CFA_XSP16, literal(-8)))
          CFI (cfiCond45) V1 load(1, XDATA, add(CFA_XSP16, literal(-7)))
          CFI (cfiCond45) R7 load(1, XDATA, add(CFA_XSP16, literal(-6)))
          CFI (cfiCond45) ?RET_LOW load(1, XDATA, add(CFA_XSP16, literal(-5)))
          CFI (cfiCond45) ?RET_HIGH load(1, XDATA, add(CFA_XSP16, literal(-4)))
          CFI (cfiCond45) ?BRET_EXT load(1, XDATA, add(CFA_XSP16, literal(-3)))
          CFI (cfiCond45) DPL0 load(1, XDATA, add(CFA_XSP16, literal(-2)))
          CFI (cfiCond45) DPH0 load(1, XDATA, add(CFA_XSP16, literal(-1)))
          CFI (cfiCond45) CFA_SP SP+-4
          CFI (cfiCond45) CFA_XSP16 add(XSP16, 10)
          CFI Block cfiCond46 Using cfiCommon0
          CFI (cfiCond46) Function touchLink_BeaconIndCB
          CFI (cfiCond46) Conditional ??CrossCallReturnLabel_121, ??CrossCallReturnLabel_83
          CFI (cfiCond46) R6 load(1, XDATA, add(CFA_XSP16, literal(-18)))
          CFI (cfiCond46) VB load(1, XDATA, add(CFA_XSP16, literal(-17)))
          CFI (cfiCond46) V0 load(1, XDATA, add(CFA_XSP16, literal(-16)))
          CFI (cfiCond46) V1 load(1, XDATA, add(CFA_XSP16, literal(-15)))
          CFI (cfiCond46) V2 load(1, XDATA, add(CFA_XSP16, literal(-14)))
          CFI (cfiCond46) V3 load(1, XDATA, add(CFA_XSP16, literal(-13)))
          CFI (cfiCond46) V4 load(1, XDATA, add(CFA_XSP16, literal(-12)))
          CFI (cfiCond46) V5 load(1, XDATA, add(CFA_XSP16, literal(-11)))
          CFI (cfiCond46) V6 load(1, XDATA, add(CFA_XSP16, literal(-10)))
          CFI (cfiCond46) V7 load(1, XDATA, add(CFA_XSP16, literal(-9)))
          CFI (cfiCond46) V8 load(1, XDATA, add(CFA_XSP16, literal(-8)))
          CFI (cfiCond46) V9 load(1, XDATA, add(CFA_XSP16, literal(-7)))
          CFI (cfiCond46) R7 load(1, XDATA, add(CFA_XSP16, literal(-6)))
          CFI (cfiCond46) ?RET_LOW load(1, XDATA, add(CFA_XSP16, literal(-5)))
          CFI (cfiCond46) ?RET_HIGH load(1, XDATA, add(CFA_XSP16, literal(-4)))
          CFI (cfiCond46) ?BRET_EXT load(1, XDATA, add(CFA_XSP16, literal(-3)))
          CFI (cfiCond46) DPL0 load(1, XDATA, add(CFA_XSP16, literal(-2)))
          CFI (cfiCond46) DPH0 load(1, XDATA, add(CFA_XSP16, literal(-1)))
          CFI (cfiCond46) CFA_SP SP+-4
          CFI (cfiCond46) CFA_XSP16 add(XSP16, 18)
          CFI Block cfiCond47 Using cfiCommon0
          CFI (cfiCond47) Function touchLink_UpdateFreeRanges
          CFI (cfiCond47) Conditional ??CrossCallReturnLabel_122, ??CrossCallReturnLabel_112
          CFI (cfiCond47) DPL0 Frame(CFA_SP, 4)
          CFI (cfiCond47) DPH0 Frame(CFA_SP, 5)
          CFI (cfiCond47) CFA_SP SP+-9
          CFI Block cfiCond48 Using cfiCommon0
          CFI (cfiCond48) Function touchLink_UpdateFreeRanges
          CFI (cfiCond48) Conditional ??CrossCallReturnLabel_122, ??CrossCallReturnLabel_113
          CFI (cfiCond48) DPL0 Frame(CFA_SP, 4)
          CFI (cfiCond48) DPH0 Frame(CFA_SP, 5)
          CFI (cfiCond48) CFA_SP SP+-9
          CFI Block cfiCond49 Using cfiCommon0
          CFI (cfiCond49) Function touchLink_UpdateFreeRanges
          CFI (cfiCond49) Conditional ??CrossCallReturnLabel_122, ??CrossCallReturnLabel_114
          CFI (cfiCond49) DPL0 Frame(CFA_SP, 4)
          CFI (cfiCond49) DPH0 Frame(CFA_SP, 5)
          CFI (cfiCond49) CFA_SP SP+-9
          CFI Block cfiCond50 Using cfiCommon0
          CFI (cfiCond50) Function touchLink_UpdateFreeRanges
          CFI (cfiCond50) Conditional ??CrossCallReturnLabel_122, ??CrossCallReturnLabel_115
          CFI (cfiCond50) DPL0 Frame(CFA_SP, 4)
          CFI (cfiCond50) DPH0 Frame(CFA_SP, 5)
          CFI (cfiCond50) CFA_SP SP+-9
          CFI Block cfiCond51 Using cfiCommon0
          CFI (cfiCond51) Function touchLink_UpdateFreeRanges
          CFI (cfiCond51) Conditional ??CrossCallReturnLabel_122, ??CrossCallReturnLabel_116
          CFI (cfiCond51) DPL0 Frame(CFA_SP, 4)
          CFI (cfiCond51) DPH0 Frame(CFA_SP, 5)
          CFI (cfiCond51) CFA_SP SP+-9
          CFI Block cfiCond52 Using cfiCommon0
          CFI (cfiCond52) Function touchLink_UpdateFreeRanges
          CFI (cfiCond52) Conditional ??CrossCallReturnLabel_122, ??CrossCallReturnLabel_117
          CFI (cfiCond52) DPL0 Frame(CFA_SP, 4)
          CFI (cfiCond52) DPH0 Frame(CFA_SP, 5)
          CFI (cfiCond52) CFA_SP SP+-9
          CFI Block cfiCond53 Using cfiCommon0
          CFI (cfiCond53) Function touchLink_DevRejoin
          CFI (cfiCond53) Conditional ??CrossCallReturnLabel_122, ??CrossCallReturnLabel_111
          CFI (cfiCond53) R6 load(1, XDATA, add(CFA_XSP16, literal(-15)))
          CFI (cfiCond53) VB load(1, XDATA, add(CFA_XSP16, literal(-14)))
          CFI (cfiCond53) V0 load(1, XDATA, add(CFA_XSP16, literal(-13)))
          CFI (cfiCond53) V1 load(1, XDATA, add(CFA_XSP16, literal(-12)))
          CFI (cfiCond53) V2 load(1, XDATA, add(CFA_XSP16, literal(-11)))
          CFI (cfiCond53) V3 load(1, XDATA, add(CFA_XSP16, literal(-10)))
          CFI (cfiCond53) V4 load(1, XDATA, add(CFA_XSP16, literal(-9)))
          CFI (cfiCond53) V5 load(1, XDATA, add(CFA_XSP16, literal(-8)))
          CFI (cfiCond53) V6 load(1, XDATA, add(CFA_XSP16, literal(-7)))
          CFI (cfiCond53) R7 load(1, XDATA, add(CFA_XSP16, literal(-6)))
          CFI (cfiCond53) ?RET_LOW load(1, XDATA, add(CFA_XSP16, literal(-5)))
          CFI (cfiCond53) ?RET_HIGH load(1, XDATA, add(CFA_XSP16, literal(-4)))
          CFI (cfiCond53) ?BRET_EXT load(1, XDATA, add(CFA_XSP16, literal(-3)))
          CFI (cfiCond53) DPL0 load(1, XDATA, add(CFA_XSP16, literal(-2)))
          CFI (cfiCond53) DPH0 load(1, XDATA, add(CFA_XSP16, literal(-1)))
          CFI (cfiCond53) CFA_SP SP+-4
          CFI (cfiCond53) CFA_XSP16 add(XSP16, 15)
          CFI Block cfiCond54 Using cfiCommon0
          CFI (cfiCond54) Function touchLink_IsValidSplitFreeRanges
          CFI (cfiCond54) Conditional ??CrossCallReturnLabel_122, ??CrossCallReturnLabel_106
          CFI (cfiCond54) DPL0 Frame(CFA_SP, 4)
          CFI (cfiCond54) DPH0 Frame(CFA_SP, 5)
          CFI (cfiCond54) CFA_SP SP+-9
          CFI Block cfiCond55 Using cfiCommon0
          CFI (cfiCond55) Function touchLink_IsValidSplitFreeRanges
          CFI (cfiCond55) Conditional ??CrossCallReturnLabel_122, ??CrossCallReturnLabel_107
          CFI (cfiCond55) DPL0 Frame(CFA_SP, 4)
          CFI (cfiCond55) DPH0 Frame(CFA_SP, 5)
          CFI (cfiCond55) CFA_SP SP+-9
          CFI Block cfiCond56 Using cfiCommon0
          CFI (cfiCond56) Function touchLink_SetNIB
          CFI (cfiCond56) Conditional ??CrossCallReturnLabel_122, ??CrossCallReturnLabel_108
          CFI (cfiCond56) R6 load(1, XDATA, add(CFA_XSP16, literal(-16)))
          CFI (cfiCond56) VB load(1, XDATA, add(CFA_XSP16, literal(-15)))
          CFI (cfiCond56) V0 load(1, XDATA, add(CFA_XSP16, literal(-14)))
          CFI (cfiCond56) V1 load(1, XDATA, add(CFA_XSP16, literal(-13)))
          CFI (cfiCond56) V2 load(1, XDATA, add(CFA_XSP16, literal(-12)))
          CFI (cfiCond56) V3 load(1, XDATA, add(CFA_XSP16, literal(-11)))
          CFI (cfiCond56) V4 load(1, XDATA, add(CFA_XSP16, literal(-10)))
          CFI (cfiCond56) V5 load(1, XDATA, add(CFA_XSP16, literal(-9)))
          CFI (cfiCond56) V6 load(1, XDATA, add(CFA_XSP16, literal(-8)))
          CFI (cfiCond56) V7 load(1, XDATA, add(CFA_XSP16, literal(-7)))
          CFI (cfiCond56) R7 load(1, XDATA, add(CFA_XSP16, literal(-6)))
          CFI (cfiCond56) ?RET_LOW load(1, XDATA, add(CFA_XSP16, literal(-5)))
          CFI (cfiCond56) ?RET_HIGH load(1, XDATA, add(CFA_XSP16, literal(-4)))
          CFI (cfiCond56) ?BRET_EXT load(1, XDATA, add(CFA_XSP16, literal(-3)))
          CFI (cfiCond56) DPL0 load(1, XDATA, add(CFA_XSP16, literal(-2)))
          CFI (cfiCond56) DPH0 load(1, XDATA, add(CFA_XSP16, literal(-1)))
          CFI (cfiCond56) CFA_SP SP+-4
          CFI (cfiCond56) CFA_XSP16 add(XSP16, 16)
          CFI Block cfiCond57 Using cfiCommon0
          CFI (cfiCond57) Function touchLink_BeaconIndCB
          CFI (cfiCond57) Conditional ??CrossCallReturnLabel_122, ??CrossCallReturnLabel_109
          CFI (cfiCond57) R6 load(1, XDATA, add(CFA_XSP16, literal(-18)))
          CFI (cfiCond57) VB load(1, XDATA, add(CFA_XSP16, literal(-17)))
          CFI (cfiCond57) V0 load(1, XDATA, add(CFA_XSP16, literal(-16)))
          CFI (cfiCond57) V1 load(1, XDATA, add(CFA_XSP16, literal(-15)))
          CFI (cfiCond57) V2 load(1, XDATA, add(CFA_XSP16, literal(-14)))
          CFI (cfiCond57) V3 load(1, XDATA, add(CFA_XSP16, literal(-13)))
          CFI (cfiCond57) V4 load(1, XDATA, add(CFA_XSP16, literal(-12)))
          CFI (cfiCond57) V5 load(1, XDATA, add(CFA_XSP16, literal(-11)))
          CFI (cfiCond57) V6 load(1, XDATA, add(CFA_XSP16, literal(-10)))
          CFI (cfiCond57) V7 load(1, XDATA, add(CFA_XSP16, literal(-9)))
          CFI (cfiCond57) V8 load(1, XDATA, add(CFA_XSP16, literal(-8)))
          CFI (cfiCond57) V9 load(1, XDATA, add(CFA_XSP16, literal(-7)))
          CFI (cfiCond57) R7 load(1, XDATA, add(CFA_XSP16, literal(-6)))
          CFI (cfiCond57) ?RET_LOW load(1, XDATA, add(CFA_XSP16, literal(-5)))
          CFI (cfiCond57) ?RET_HIGH load(1, XDATA, add(CFA_XSP16, literal(-4)))
          CFI (cfiCond57) ?BRET_EXT load(1, XDATA, add(CFA_XSP16, literal(-3)))
          CFI (cfiCond57) DPL0 load(1, XDATA, add(CFA_XSP16, literal(-2)))
          CFI (cfiCond57) DPH0 load(1, XDATA, add(CFA_XSP16, literal(-1)))
          CFI (cfiCond57) CFA_SP SP+-4
          CFI (cfiCond57) CFA_XSP16 add(XSP16, 18)
          CFI Block cfiCond58 Using cfiCommon0
          CFI (cfiCond58) Function touchLink_DevRejoin
          CFI (cfiCond58) Conditional ??CrossCallReturnLabel_122, ??CrossCallReturnLabel_110
          CFI (cfiCond58) R6 load(1, XDATA, add(CFA_XSP16, literal(-15)))
          CFI (cfiCond58) VB load(1, XDATA, add(CFA_XSP16, literal(-14)))
          CFI (cfiCond58) V0 load(1, XDATA, add(CFA_XSP16, literal(-13)))
          CFI (cfiCond58) V1 load(1, XDATA, add(CFA_XSP16, literal(-12)))
          CFI (cfiCond58) V2 load(1, XDATA, add(CFA_XSP16, literal(-11)))
          CFI (cfiCond58) V3 load(1, XDATA, add(CFA_XSP16, literal(-10)))
          CFI (cfiCond58) V4 load(1, XDATA, add(CFA_XSP16, literal(-9)))
          CFI (cfiCond58) V5 load(1, XDATA, add(CFA_XSP16, literal(-8)))
          CFI (cfiCond58) V6 load(1, XDATA, add(CFA_XSP16, literal(-7)))
          CFI (cfiCond58) R7 load(1, XDATA, add(CFA_XSP16, literal(-6)))
          CFI (cfiCond58) ?RET_LOW load(1, XDATA, add(CFA_XSP16, literal(-5)))
          CFI (cfiCond58) ?RET_HIGH load(1, XDATA, add(CFA_XSP16, literal(-4)))
          CFI (cfiCond58) ?BRET_EXT load(1, XDATA, add(CFA_XSP16, literal(-3)))
          CFI (cfiCond58) DPL0 load(1, XDATA, add(CFA_XSP16, literal(-2)))
          CFI (cfiCond58) DPH0 load(1, XDATA, add(CFA_XSP16, literal(-1)))
          CFI (cfiCond58) CFA_SP SP+-4
          CFI (cfiCond58) CFA_XSP16 add(XSP16, 15)
          CFI Block cfiPicker59 Using cfiCommon1
          CFI (cfiPicker59) NoFunction
          CFI (cfiPicker59) Picker
        MOVX      A,@DPTR
        MOV       R0,A
        INC       DPTR
        MOVX      A,@DPTR
        MOV       R1,A
        RET
          CFI EndBlock cfiCond33
          CFI EndBlock cfiCond34
          CFI EndBlock cfiCond35
          CFI EndBlock cfiCond36
          CFI EndBlock cfiCond37
          CFI EndBlock cfiCond38
          CFI EndBlock cfiCond39
          CFI EndBlock cfiCond40
          CFI EndBlock cfiCond41
          CFI EndBlock cfiCond42
          CFI EndBlock cfiCond43
          CFI EndBlock cfiCond44
          CFI EndBlock cfiCond45
          CFI EndBlock cfiCond46
          CFI EndBlock cfiCond47
          CFI EndBlock cfiCond48
          CFI EndBlock cfiCond49
          CFI EndBlock cfiCond50
          CFI EndBlock cfiCond51
          CFI EndBlock cfiCond52
          CFI EndBlock cfiCond53
          CFI EndBlock cfiCond54
          CFI EndBlock cfiCond55
          CFI EndBlock cfiCond56
          CFI EndBlock cfiCond57
          CFI EndBlock cfiCond58
          CFI EndBlock cfiPicker59
//  372 
//  373 /*********************************************************************
//  374  * @fn      touchLink_PopGrpIDRange
//  375  *
//  376  * @brief   Pop the requested number of group IDs out of the free group IDs range.
//  377  *
//  378  * input parameters
//  379  *
//  380  * @param   numGrpIDs - number of group IDs needed
//  381  *
//  382  * output parameters
//  383  *
//  384  * @param   pGrpIdBegin - new group id range begin, or 0 if unavaialable
//  385  * @param   pGrpIdEnd - new group id range end, , or 0 if unavaialable
//  386  *
//  387  * @return  none
//  388  */

        RSEG BANKED_CODE:HUGECODE:NOROOT(0)
//  389 void touchLink_PopGrpIDRange( uint8 numGrpIDs, uint16 *pGrpIDsBegin, uint16 *pGrpIDsEnd )
touchLink_PopGrpIDRange:
          CFI Block cfiBlock60 Using cfiCommon0
          CFI Function touchLink_PopGrpIDRange
        CODE
//  390 {
        REQUIRE ?V0
        REQUIRE ?V1
        MOV       A,#-0xa
        LCALL     ?BANKED_ENTER_XDATA
          CFI DPH0 load(1, XDATA, add(CFA_XSP16, literal(-1)))
          CFI DPL0 load(1, XDATA, add(CFA_XSP16, literal(-2)))
          CFI ?BRET_EXT load(1, XDATA, add(CFA_XSP16, literal(-3)))
          CFI ?RET_HIGH load(1, XDATA, add(CFA_XSP16, literal(-4)))
          CFI ?RET_LOW load(1, XDATA, add(CFA_XSP16, literal(-5)))
          CFI R7 load(1, XDATA, add(CFA_XSP16, literal(-6)))
          CFI V1 load(1, XDATA, add(CFA_XSP16, literal(-7)))
          CFI V0 load(1, XDATA, add(CFA_XSP16, literal(-8)))
          CFI VB load(1, XDATA, add(CFA_XSP16, literal(-9)))
          CFI R6 load(1, XDATA, add(CFA_XSP16, literal(-10)))
          CFI CFA_SP SP+0
          CFI CFA_XSP16 add(XSP16, 10)
        ; Saved register size: 10
        ; Auto size: 0
        MOV       ?V0,R1
//  391   if ( ( touchLinkFreeGrpIdBegin != 0 )
//  392        && ( touchLinkFreeGrpIdBegin <= touchLinkFreeGrpIdEnd )
//  393        && ( ( touchLinkFreeGrpIdEnd - touchLinkFreeGrpIdBegin ) >= numGrpIDs ) )
        MOV       DPTR,#touchLinkFreeGrpIdBegin
        LCALL     ??Subroutine43_0 & 0xFFFF
??CrossCallReturnLabel_82:
        JZ        ??touchLink_PopGrpIDRange_0
        MOV       DPH,#(touchLinkFreeGrpIdEnd >> 8) & 0xff
        MOV       DPL,#touchLinkFreeGrpIdEnd & 0xff
        CLR       C
        MOVX      A,@DPTR
        SUBB      A,R0
        INC       DPTR
        MOVX      A,@DPTR
        SUBB      A,R1
        JC        ??touchLink_PopGrpIDRange_0
        MOV       R0,?V0
        MOV       DPTR,#touchLinkFreeGrpIdBegin
        LCALL     ?Subroutine24 & 0xFFFF
??CrossCallReturnLabel_36:
        MOV       DPH,#(touchLinkFreeGrpIdEnd >> 8) & 0xff
        MOV       DPL,#touchLinkFreeGrpIdEnd & 0xff
        MOVX      A,@DPTR
        CLR       C
        SUBB      A,R6
        MOV       R6,A
        INC       DPTR
        MOVX      A,@DPTR
        SUBB      A,R7
        MOV       R7,A
        CLR       C
        MOV       A,R6
        SUBB      A,R0
        MOV       A,R7
        SUBB      A,#0x0
        JC        ??touchLink_PopGrpIDRange_0
//  394   {
//  395     *pGrpIDsBegin = touchLinkFreeGrpIdBegin;
        MOV       DPTR,#touchLinkFreeGrpIdBegin
        MOVX      A,@DPTR
        MOV       DPL,R2
        MOV       DPH,R3
        LCALL     ?Subroutine16 & 0xFFFF
//  396 
//  397     // Update min free group id
//  398     touchLinkFreeGrpIdBegin += numGrpIDs;
??CrossCallReturnLabel_22:
        ADD       A,R0
        MOVX      @DPTR,A
        INC       DPTR
        MOVX      A,@DPTR
        ADDC      A,#0x0
        MOVX      @DPTR,A
//  399 
//  400     *pGrpIDsEnd = touchLinkFreeGrpIdBegin - 1;
        MOV       DPTR,#touchLinkFreeGrpIdBegin
        LCALL     ?Subroutine21 & 0xFFFF
//  401   }
??CrossCallReturnLabel_29:
        MOV       DPL,R4
        MOV       DPH,R5
        MOV       A,R0
        MOVX      @DPTR,A
        INC       DPTR
        MOV       A,R1
        SJMP      ??touchLink_PopGrpIDRange_1
//  402   else
//  403   {
//  404     *pGrpIDsBegin = *pGrpIDsEnd = 0;
??touchLink_PopGrpIDRange_0:
        MOV       DPL,R4
        MOV       DPH,R5
        LCALL     ?Subroutine11 & 0xFFFF
//  405   }
??CrossCallReturnLabel_99:
        MOVX      @DPTR,A
        INC       DPTR
??touchLink_PopGrpIDRange_1:
        MOVX      @DPTR,A
//  406 }
        LJMP      ?Subroutine0 & 0xFFFF
          CFI EndBlock cfiBlock60

        RSEG BANKED_CODE:HUGECODE:NOROOT(0)
?Subroutine21:
          CFI Block cfiCond61 Using cfiCommon0
          CFI Function touchLink_SplitFreeRanges
          CFI Conditional ??CrossCallReturnLabel_27
          CFI R6 load(1, XDATA, add(CFA_XSP16, literal(-18)))
          CFI VB load(1, XDATA, add(CFA_XSP16, literal(-17)))
          CFI V0 load(1, XDATA, add(CFA_XSP16, literal(-16)))
          CFI V1 load(1, XDATA, add(CFA_XSP16, literal(-15)))
          CFI V2 load(1, XDATA, add(CFA_XSP16, literal(-14)))
          CFI V3 load(1, XDATA, add(CFA_XSP16, literal(-13)))
          CFI V4 load(1, XDATA, add(CFA_XSP16, literal(-12)))
          CFI V5 load(1, XDATA, add(CFA_XSP16, literal(-11)))
          CFI V6 load(1, XDATA, add(CFA_XSP16, literal(-10)))
          CFI V7 load(1, XDATA, add(CFA_XSP16, literal(-9)))
          CFI V8 load(1, XDATA, add(CFA_XSP16, literal(-8)))
          CFI V9 load(1, XDATA, add(CFA_XSP16, literal(-7)))
          CFI R7 load(1, XDATA, add(CFA_XSP16, literal(-6)))
          CFI ?RET_LOW load(1, XDATA, add(CFA_XSP16, literal(-5)))
          CFI ?RET_HIGH load(1, XDATA, add(CFA_XSP16, literal(-4)))
          CFI ?BRET_EXT load(1, XDATA, add(CFA_XSP16, literal(-3)))
          CFI DPL0 load(1, XDATA, add(CFA_XSP16, literal(-2)))
          CFI DPH0 load(1, XDATA, add(CFA_XSP16, literal(-1)))
          CFI CFA_SP SP+-2
          CFI CFA_XSP16 add(XSP16, 18)
          CFI Block cfiCond62 Using cfiCommon0
          CFI (cfiCond62) Function touchLink_SplitFreeRanges
          CFI (cfiCond62) Conditional ??CrossCallReturnLabel_28
          CFI (cfiCond62) R6 load(1, XDATA, add(CFA_XSP16, literal(-18)))
          CFI (cfiCond62) VB load(1, XDATA, add(CFA_XSP16, literal(-17)))
          CFI (cfiCond62) V0 load(1, XDATA, add(CFA_XSP16, literal(-16)))
          CFI (cfiCond62) V1 load(1, XDATA, add(CFA_XSP16, literal(-15)))
          CFI (cfiCond62) V2 load(1, XDATA, add(CFA_XSP16, literal(-14)))
          CFI (cfiCond62) V3 load(1, XDATA, add(CFA_XSP16, literal(-13)))
          CFI (cfiCond62) V4 load(1, XDATA, add(CFA_XSP16, literal(-12)))
          CFI (cfiCond62) V5 load(1, XDATA, add(CFA_XSP16, literal(-11)))
          CFI (cfiCond62) V6 load(1, XDATA, add(CFA_XSP16, literal(-10)))
          CFI (cfiCond62) V7 load(1, XDATA, add(CFA_XSP16, literal(-9)))
          CFI (cfiCond62) V8 load(1, XDATA, add(CFA_XSP16, literal(-8)))
          CFI (cfiCond62) V9 load(1, XDATA, add(CFA_XSP16, literal(-7)))
          CFI (cfiCond62) R7 load(1, XDATA, add(CFA_XSP16, literal(-6)))
          CFI (cfiCond62) ?RET_LOW load(1, XDATA, add(CFA_XSP16, literal(-5)))
          CFI (cfiCond62) ?RET_HIGH load(1, XDATA, add(CFA_XSP16, literal(-4)))
          CFI (cfiCond62) ?BRET_EXT load(1, XDATA, add(CFA_XSP16, literal(-3)))
          CFI (cfiCond62) DPL0 load(1, XDATA, add(CFA_XSP16, literal(-2)))
          CFI (cfiCond62) DPH0 load(1, XDATA, add(CFA_XSP16, literal(-1)))
          CFI (cfiCond62) CFA_SP SP+-2
          CFI (cfiCond62) CFA_XSP16 add(XSP16, 18)
          CFI Block cfiCond63 Using cfiCommon0
          CFI (cfiCond63) Function touchLink_PopGrpIDRange
          CFI (cfiCond63) Conditional ??CrossCallReturnLabel_29
          CFI (cfiCond63) R6 load(1, XDATA, add(CFA_XSP16, literal(-10)))
          CFI (cfiCond63) VB load(1, XDATA, add(CFA_XSP16, literal(-9)))
          CFI (cfiCond63) V0 load(1, XDATA, add(CFA_XSP16, literal(-8)))
          CFI (cfiCond63) V1 load(1, XDATA, add(CFA_XSP16, literal(-7)))
          CFI (cfiCond63) R7 load(1, XDATA, add(CFA_XSP16, literal(-6)))
          CFI (cfiCond63) ?RET_LOW load(1, XDATA, add(CFA_XSP16, literal(-5)))
          CFI (cfiCond63) ?RET_HIGH load(1, XDATA, add(CFA_XSP16, literal(-4)))
          CFI (cfiCond63) ?BRET_EXT load(1, XDATA, add(CFA_XSP16, literal(-3)))
          CFI (cfiCond63) DPL0 load(1, XDATA, add(CFA_XSP16, literal(-2)))
          CFI (cfiCond63) DPH0 load(1, XDATA, add(CFA_XSP16, literal(-1)))
          CFI (cfiCond63) CFA_SP SP+-2
          CFI (cfiCond63) CFA_XSP16 add(XSP16, 10)
          CFI Block cfiPicker64 Using cfiCommon1
          CFI (cfiPicker64) NoFunction
          CFI (cfiPicker64) Picker
        MOVX      A,@DPTR
        ADD       A,#-0x1
        MOV       R0,A
        INC       DPTR
        MOVX      A,@DPTR
        ADDC      A,#-0x1
        MOV       R1,A
        RET
          CFI EndBlock cfiCond61
          CFI EndBlock cfiCond62
          CFI EndBlock cfiCond63
          CFI EndBlock cfiPicker64

        RSEG BANKED_CODE:HUGECODE:NOROOT(0)
?Subroutine20:
          CFI Block cfiCond65 Using cfiCommon0
          CFI Function touchLink_IsValidSplitFreeRanges
          CFI Conditional ??CrossCallReturnLabel_84
          CFI DPL0 Frame(CFA_SP, 4)
          CFI DPH0 Frame(CFA_SP, 5)
          CFI CFA_SP SP+-7
          CFI Block cfiCond66 Using cfiCommon0
          CFI (cfiCond66) Function touchLink_SplitFreeRanges
          CFI (cfiCond66) Conditional ??CrossCallReturnLabel_85
          CFI (cfiCond66) R6 load(1, XDATA, add(CFA_XSP16, literal(-18)))
          CFI (cfiCond66) VB load(1, XDATA, add(CFA_XSP16, literal(-17)))
          CFI (cfiCond66) V0 load(1, XDATA, add(CFA_XSP16, literal(-16)))
          CFI (cfiCond66) V1 load(1, XDATA, add(CFA_XSP16, literal(-15)))
          CFI (cfiCond66) V2 load(1, XDATA, add(CFA_XSP16, literal(-14)))
          CFI (cfiCond66) V3 load(1, XDATA, add(CFA_XSP16, literal(-13)))
          CFI (cfiCond66) V4 load(1, XDATA, add(CFA_XSP16, literal(-12)))
          CFI (cfiCond66) V5 load(1, XDATA, add(CFA_XSP16, literal(-11)))
          CFI (cfiCond66) V6 load(1, XDATA, add(CFA_XSP16, literal(-10)))
          CFI (cfiCond66) V7 load(1, XDATA, add(CFA_XSP16, literal(-9)))
          CFI (cfiCond66) V8 load(1, XDATA, add(CFA_XSP16, literal(-8)))
          CFI (cfiCond66) V9 load(1, XDATA, add(CFA_XSP16, literal(-7)))
          CFI (cfiCond66) R7 load(1, XDATA, add(CFA_XSP16, literal(-6)))
          CFI (cfiCond66) ?RET_LOW load(1, XDATA, add(CFA_XSP16, literal(-5)))
          CFI (cfiCond66) ?RET_HIGH load(1, XDATA, add(CFA_XSP16, literal(-4)))
          CFI (cfiCond66) ?BRET_EXT load(1, XDATA, add(CFA_XSP16, literal(-3)))
          CFI (cfiCond66) DPL0 load(1, XDATA, add(CFA_XSP16, literal(-2)))
          CFI (cfiCond66) DPH0 load(1, XDATA, add(CFA_XSP16, literal(-1)))
          CFI (cfiCond66) CFA_SP SP+-2
          CFI (cfiCond66) CFA_XSP16 add(XSP16, 18)
          CFI Block cfiCond67 Using cfiCommon0
          CFI (cfiCond67) Function touchLink_PopNwkAddress
          CFI (cfiCond67) Conditional ??CrossCallReturnLabel_86
          CFI (cfiCond67) DPL0 Frame(CFA_SP, 4)
          CFI (cfiCond67) DPH0 Frame(CFA_SP, 5)
          CFI (cfiCond67) CFA_SP SP+-7
          CFI Block cfiPicker68 Using cfiCommon1
          CFI (cfiPicker68) NoFunction
          CFI (cfiPicker68) Picker
        MOV       DPTR,#touchLinkFreeNwkAddrBegin
          CFI EndBlock cfiCond65
          CFI EndBlock cfiCond66
          CFI EndBlock cfiCond67
          CFI EndBlock cfiPicker68
        REQUIRE ??Subroutine43_0
        ; // Fall through to label ??Subroutine43_0

        RSEG BANKED_CODE:HUGECODE:NOROOT(0)
??Subroutine43_0:
          CFI Block cfiCond69 Using cfiCommon0
          CFI Function touchLink_IsValidSplitFreeRanges
          CFI Conditional ??CrossCallReturnLabel_80
          CFI DPL0 Frame(CFA_SP, 4)
          CFI DPH0 Frame(CFA_SP, 5)
          CFI CFA_SP SP+-7
          CFI Block cfiCond70 Using cfiCommon0
          CFI (cfiCond70) Function touchLink_SplitFreeRanges
          CFI (cfiCond70) Conditional ??CrossCallReturnLabel_81
          CFI (cfiCond70) R6 load(1, XDATA, add(CFA_XSP16, literal(-18)))
          CFI (cfiCond70) VB load(1, XDATA, add(CFA_XSP16, literal(-17)))
          CFI (cfiCond70) V0 load(1, XDATA, add(CFA_XSP16, literal(-16)))
          CFI (cfiCond70) V1 load(1, XDATA, add(CFA_XSP16, literal(-15)))
          CFI (cfiCond70) V2 load(1, XDATA, add(CFA_XSP16, literal(-14)))
          CFI (cfiCond70) V3 load(1, XDATA, add(CFA_XSP16, literal(-13)))
          CFI (cfiCond70) V4 load(1, XDATA, add(CFA_XSP16, literal(-12)))
          CFI (cfiCond70) V5 load(1, XDATA, add(CFA_XSP16, literal(-11)))
          CFI (cfiCond70) V6 load(1, XDATA, add(CFA_XSP16, literal(-10)))
          CFI (cfiCond70) V7 load(1, XDATA, add(CFA_XSP16, literal(-9)))
          CFI (cfiCond70) V8 load(1, XDATA, add(CFA_XSP16, literal(-8)))
          CFI (cfiCond70) V9 load(1, XDATA, add(CFA_XSP16, literal(-7)))
          CFI (cfiCond70) R7 load(1, XDATA, add(CFA_XSP16, literal(-6)))
          CFI (cfiCond70) ?RET_LOW load(1, XDATA, add(CFA_XSP16, literal(-5)))
          CFI (cfiCond70) ?RET_HIGH load(1, XDATA, add(CFA_XSP16, literal(-4)))
          CFI (cfiCond70) ?BRET_EXT load(1, XDATA, add(CFA_XSP16, literal(-3)))
          CFI (cfiCond70) DPL0 load(1, XDATA, add(CFA_XSP16, literal(-2)))
          CFI (cfiCond70) DPH0 load(1, XDATA, add(CFA_XSP16, literal(-1)))
          CFI (cfiCond70) CFA_SP SP+-2
          CFI (cfiCond70) CFA_XSP16 add(XSP16, 18)
          CFI Block cfiCond71 Using cfiCommon0
          CFI (cfiCond71) Function touchLink_PopGrpIDRange
          CFI (cfiCond71) Conditional ??CrossCallReturnLabel_82
          CFI (cfiCond71) R6 load(1, XDATA, add(CFA_XSP16, literal(-10)))
          CFI (cfiCond71) VB load(1, XDATA, add(CFA_XSP16, literal(-9)))
          CFI (cfiCond71) V0 load(1, XDATA, add(CFA_XSP16, literal(-8)))
          CFI (cfiCond71) V1 load(1, XDATA, add(CFA_XSP16, literal(-7)))
          CFI (cfiCond71) R7 load(1, XDATA, add(CFA_XSP16, literal(-6)))
          CFI (cfiCond71) ?RET_LOW load(1, XDATA, add(CFA_XSP16, literal(-5)))
          CFI (cfiCond71) ?RET_HIGH load(1, XDATA, add(CFA_XSP16, literal(-4)))
          CFI (cfiCond71) ?BRET_EXT load(1, XDATA, add(CFA_XSP16, literal(-3)))
          CFI (cfiCond71) DPL0 load(1, XDATA, add(CFA_XSP16, literal(-2)))
          CFI (cfiCond71) DPH0 load(1, XDATA, add(CFA_XSP16, literal(-1)))
          CFI (cfiCond71) CFA_SP SP+-2
          CFI (cfiCond71) CFA_XSP16 add(XSP16, 10)
          CFI Block cfiCond72 Using cfiCommon0
          CFI (cfiCond72) Function touchLink_BeaconIndCB
          CFI (cfiCond72) Conditional ??CrossCallReturnLabel_83
          CFI (cfiCond72) R6 load(1, XDATA, add(CFA_XSP16, literal(-18)))
          CFI (cfiCond72) VB load(1, XDATA, add(CFA_XSP16, literal(-17)))
          CFI (cfiCond72) V0 load(1, XDATA, add(CFA_XSP16, literal(-16)))
          CFI (cfiCond72) V1 load(1, XDATA, add(CFA_XSP16, literal(-15)))
          CFI (cfiCond72) V2 load(1, XDATA, add(CFA_XSP16, literal(-14)))
          CFI (cfiCond72) V3 load(1, XDATA, add(CFA_XSP16, literal(-13)))
          CFI (cfiCond72) V4 load(1, XDATA, add(CFA_XSP16, literal(-12)))
          CFI (cfiCond72) V5 load(1, XDATA, add(CFA_XSP16, literal(-11)))
          CFI (cfiCond72) V6 load(1, XDATA, add(CFA_XSP16, literal(-10)))
          CFI (cfiCond72) V7 load(1, XDATA, add(CFA_XSP16, literal(-9)))
          CFI (cfiCond72) V8 load(1, XDATA, add(CFA_XSP16, literal(-8)))
          CFI (cfiCond72) V9 load(1, XDATA, add(CFA_XSP16, literal(-7)))
          CFI (cfiCond72) R7 load(1, XDATA, add(CFA_XSP16, literal(-6)))
          CFI (cfiCond72) ?RET_LOW load(1, XDATA, add(CFA_XSP16, literal(-5)))
          CFI (cfiCond72) ?RET_HIGH load(1, XDATA, add(CFA_XSP16, literal(-4)))
          CFI (cfiCond72) ?BRET_EXT load(1, XDATA, add(CFA_XSP16, literal(-3)))
          CFI (cfiCond72) DPL0 load(1, XDATA, add(CFA_XSP16, literal(-2)))
          CFI (cfiCond72) DPH0 load(1, XDATA, add(CFA_XSP16, literal(-1)))
          CFI (cfiCond72) CFA_SP SP+-2
          CFI (cfiCond72) CFA_XSP16 add(XSP16, 18)
          CFI Block cfiCond73 Using cfiCommon0
          CFI (cfiCond73) Function touchLink_IsValidSplitFreeRanges
          CFI (cfiCond73) Conditional ??CrossCallReturnLabel_84
          CFI (cfiCond73) DPL0 Frame(CFA_SP, 4)
          CFI (cfiCond73) DPH0 Frame(CFA_SP, 5)
          CFI (cfiCond73) CFA_SP SP+-7
          CFI Block cfiCond74 Using cfiCommon0
          CFI (cfiCond74) Function touchLink_SplitFreeRanges
          CFI (cfiCond74) Conditional ??CrossCallReturnLabel_85
          CFI (cfiCond74) R6 load(1, XDATA, add(CFA_XSP16, literal(-18)))
          CFI (cfiCond74) VB load(1, XDATA, add(CFA_XSP16, literal(-17)))
          CFI (cfiCond74) V0 load(1, XDATA, add(CFA_XSP16, literal(-16)))
          CFI (cfiCond74) V1 load(1, XDATA, add(CFA_XSP16, literal(-15)))
          CFI (cfiCond74) V2 load(1, XDATA, add(CFA_XSP16, literal(-14)))
          CFI (cfiCond74) V3 load(1, XDATA, add(CFA_XSP16, literal(-13)))
          CFI (cfiCond74) V4 load(1, XDATA, add(CFA_XSP16, literal(-12)))
          CFI (cfiCond74) V5 load(1, XDATA, add(CFA_XSP16, literal(-11)))
          CFI (cfiCond74) V6 load(1, XDATA, add(CFA_XSP16, literal(-10)))
          CFI (cfiCond74) V7 load(1, XDATA, add(CFA_XSP16, literal(-9)))
          CFI (cfiCond74) V8 load(1, XDATA, add(CFA_XSP16, literal(-8)))
          CFI (cfiCond74) V9 load(1, XDATA, add(CFA_XSP16, literal(-7)))
          CFI (cfiCond74) R7 load(1, XDATA, add(CFA_XSP16, literal(-6)))
          CFI (cfiCond74) ?RET_LOW load(1, XDATA, add(CFA_XSP16, literal(-5)))
          CFI (cfiCond74) ?RET_HIGH load(1, XDATA, add(CFA_XSP16, literal(-4)))
          CFI (cfiCond74) ?BRET_EXT load(1, XDATA, add(CFA_XSP16, literal(-3)))
          CFI (cfiCond74) DPL0 load(1, XDATA, add(CFA_XSP16, literal(-2)))
          CFI (cfiCond74) DPH0 load(1, XDATA, add(CFA_XSP16, literal(-1)))
          CFI (cfiCond74) CFA_SP SP+-2
          CFI (cfiCond74) CFA_XSP16 add(XSP16, 18)
          CFI Block cfiCond75 Using cfiCommon0
          CFI (cfiCond75) Function touchLink_PopNwkAddress
          CFI (cfiCond75) Conditional ??CrossCallReturnLabel_86
          CFI (cfiCond75) DPL0 Frame(CFA_SP, 4)
          CFI (cfiCond75) DPH0 Frame(CFA_SP, 5)
          CFI (cfiCond75) CFA_SP SP+-7
          CFI Block cfiPicker76 Using cfiCommon1
          CFI (cfiPicker76) NoFunction
          CFI (cfiPicker76) Picker
        LCALL     ?Subroutine39 & 0xFFFF
??CrossCallReturnLabel_121:
        MOV       A,R0
        ORL       A,R1
        RET
          CFI EndBlock cfiCond69
          CFI EndBlock cfiCond70
          CFI EndBlock cfiCond71
          CFI EndBlock cfiCond72
          CFI EndBlock cfiCond73
          CFI EndBlock cfiCond74
          CFI EndBlock cfiCond75
          CFI EndBlock cfiPicker76

        RSEG BANKED_CODE:HUGECODE:NOROOT(0)
?Subroutine16:
          CFI Block cfiCond77 Using cfiCommon0
          CFI Function touchLink_GerFreeRanges
          CFI Conditional ??CrossCallReturnLabel_21
          CFI DPL0 Frame(CFA_SP, 4)
          CFI DPH0 Frame(CFA_SP, 5)
          CFI CFA_SP SP+-7
          CFI Block cfiCond78 Using cfiCommon0
          CFI (cfiCond78) Function touchLink_PopGrpIDRange
          CFI (cfiCond78) Conditional ??CrossCallReturnLabel_22
          CFI (cfiCond78) R6 load(1, XDATA, add(CFA_XSP16, literal(-10)))
          CFI (cfiCond78) VB load(1, XDATA, add(CFA_XSP16, literal(-9)))
          CFI (cfiCond78) V0 load(1, XDATA, add(CFA_XSP16, literal(-8)))
          CFI (cfiCond78) V1 load(1, XDATA, add(CFA_XSP16, literal(-7)))
          CFI (cfiCond78) R7 load(1, XDATA, add(CFA_XSP16, literal(-6)))
          CFI (cfiCond78) ?RET_LOW load(1, XDATA, add(CFA_XSP16, literal(-5)))
          CFI (cfiCond78) ?RET_HIGH load(1, XDATA, add(CFA_XSP16, literal(-4)))
          CFI (cfiCond78) ?BRET_EXT load(1, XDATA, add(CFA_XSP16, literal(-3)))
          CFI (cfiCond78) DPL0 load(1, XDATA, add(CFA_XSP16, literal(-2)))
          CFI (cfiCond78) DPH0 load(1, XDATA, add(CFA_XSP16, literal(-1)))
          CFI (cfiCond78) CFA_SP SP+-2
          CFI (cfiCond78) CFA_XSP16 add(XSP16, 10)
          CFI Block cfiPicker79 Using cfiCommon1
          CFI (cfiPicker79) NoFunction
          CFI (cfiPicker79) Picker
        MOVX      @DPTR,A
        INC       DPTR
        MOV       A,R1
        MOVX      @DPTR,A
        MOV       DPTR,#touchLinkFreeGrpIdBegin
        MOVX      A,@DPTR
        RET
          CFI EndBlock cfiCond77
          CFI EndBlock cfiCond78
          CFI EndBlock cfiPicker79
//  407 
//  408 /*********************************************************************
//  409  * @fn      touchLink_PopNwkAddress
//  410  *
//  411  * @brief   Pop an avaialble short address out of the free network addresses range.
//  412  *
//  413  * @param   none
//  414  *
//  415  * @return  free address if available. 0, otherwise.
//  416  */

        RSEG BANKED_CODE:HUGECODE:NOROOT(0)
//  417 uint16 touchLink_PopNwkAddress( void )
touchLink_PopNwkAddress:
          CFI Block cfiBlock80 Using cfiCommon0
          CFI Function touchLink_PopNwkAddress
        CODE
//  418 {
        PUSH      DPL
          CFI DPL0 Frame(CFA_SP, 4)
          CFI CFA_SP SP+-4
        PUSH      DPH
          CFI DPH0 Frame(CFA_SP, 5)
          CFI CFA_SP SP+-5
        ; Saved register size: 2
        ; Auto size: 0
//  419   if ( ( touchLinkFreeNwkAddrBegin == 0 ) || ( touchLinkFreeNwkAddrBegin > touchLinkFreeNwkAddrEnd ) )
        LCALL     ?Subroutine20 & 0xFFFF
??CrossCallReturnLabel_86:
        JZ        ??touchLink_PopNwkAddress_0
        MOV       DPH,#(touchLinkFreeNwkAddrEnd >> 8) & 0xff
        MOV       DPL,#touchLinkFreeNwkAddrEnd & 0xff
        CLR       C
        MOVX      A,@DPTR
        SUBB      A,R0
        INC       DPTR
        MOVX      A,@DPTR
        SUBB      A,R1
        JNC       ??touchLink_PopNwkAddress_1
//  420   {
//  421     return ( 0 );
??touchLink_PopNwkAddress_0:
        MOV       R2,#0x0
        MOV       R3,#0x0
        SJMP      ??CrossCallReturnLabel_101
//  422   }
//  423 
//  424   return ( touchLinkFreeNwkAddrBegin++ );
??touchLink_PopNwkAddress_1:
        MOV       DPTR,#touchLinkFreeNwkAddrBegin
        LCALL     ??Subroutine44_0 & 0xFFFF
??CrossCallReturnLabel_87:
        MOV       A,R0
        ADD       A,#0x1
        INC       R0
        CLR       A
        ADDC      A,R3
        MOV       R1,A
        MOV       DPTR,#touchLinkFreeNwkAddrBegin
        LCALL     ??Subroutine51_0 & 0xFFFF
??CrossCallReturnLabel_101:
        SJMP      ??Subroutine46_0
//  425 }
          CFI EndBlock cfiBlock80
//  426 
//  427 /*********************************************************************
//  428  * @fn      touchLink_GetNumSubDevices
//  429  *
//  430  * @brief   Get the total number of sub-devices (endpoints) registered.
//  431  *
//  432  * @param   startIndex - starting index
//  433  *
//  434  * @return  number of sub-devices
//  435  */

        RSEG BANKED_CODE:HUGECODE:NOROOT(0)
//  436 uint8 touchLink_GetNumSubDevices( uint8 startIndex )
touchLink_GetNumSubDevices:
          CFI Block cfiBlock81 Using cfiCommon0
          CFI Function touchLink_GetNumSubDevices
        CODE
//  437 {
        PUSH      DPL
          CFI DPL0 Frame(CFA_SP, 4)
          CFI CFA_SP SP+-4
        PUSH      DPH
          CFI DPH0 Frame(CFA_SP, 5)
          CFI CFA_SP SP+-5
        ; Saved register size: 2
        ; Auto size: 0
        MOV       A,R1
//  438   uint8 numEPs = 0;
        MOV       R1,#0x0
//  439 
//  440   for ( uint8 i = startIndex; i < TOUCHLINK_NUM_DEVICE_INFO_ENTRIES; i++ )
        MOV       R0,A
        SJMP      ??touchLink_GetNumSubDevices_0
//  441   {
//  442     if ( touchLinkSubDevicesTbl[i] != NULL )
??touchLink_GetNumSubDevices_1:
        LCALL     ?Subroutine32 & 0xFFFF
??CrossCallReturnLabel_57:
        LCALL     ?Subroutine29 & 0xFFFF
??CrossCallReturnLabel_89:
        MOV       A,R2
        ORL       A,R3
        JZ        ??touchLink_GetNumSubDevices_2
//  443     numEPs++;
        INC       R1
//  444   }
??touchLink_GetNumSubDevices_2:
        INC       R0
??touchLink_GetNumSubDevices_0:
        MOV       A,R0
        CLR       C
        SUBB      A,#0x5
        JC        ??touchLink_GetNumSubDevices_1
//  445 
//  446   return ( numEPs );
        SJMP      ??Subroutine46_0
//  447 }
          CFI EndBlock cfiBlock81

        RSEG BANKED_CODE:HUGECODE:NOROOT(0)
?Subroutine29:
          CFI Block cfiCond82 Using cfiCommon0
          CFI Function touchLink_GetNumSubDevices
          CFI Conditional ??CrossCallReturnLabel_89
          CFI DPL0 Frame(CFA_SP, 4)
          CFI DPH0 Frame(CFA_SP, 5)
          CFI CFA_SP SP+-7
          CFI Block cfiCond83 Using cfiCommon0
          CFI (cfiCond83) Function touchLinkStartRtr
          CFI (cfiCond83) Conditional ??CrossCallReturnLabel_90
          CFI (cfiCond83) R6 load(1, XDATA, add(CFA_XSP16, literal(-9)))
          CFI (cfiCond83) VB load(1, XDATA, add(CFA_XSP16, literal(-8)))
          CFI (cfiCond83) V0 load(1, XDATA, add(CFA_XSP16, literal(-7)))
          CFI (cfiCond83) R7 load(1, XDATA, add(CFA_XSP16, literal(-6)))
          CFI (cfiCond83) ?RET_LOW load(1, XDATA, add(CFA_XSP16, literal(-5)))
          CFI (cfiCond83) ?RET_HIGH load(1, XDATA, add(CFA_XSP16, literal(-4)))
          CFI (cfiCond83) ?BRET_EXT load(1, XDATA, add(CFA_XSP16, literal(-3)))
          CFI (cfiCond83) DPL0 load(1, XDATA, add(CFA_XSP16, literal(-2)))
          CFI (cfiCond83) DPH0 load(1, XDATA, add(CFA_XSP16, literal(-1)))
          CFI (cfiCond83) CFA_SP SP+-2
          CFI (cfiCond83) CFA_XSP16 add(XSP16, 13)
          CFI Block cfiPicker84 Using cfiCommon1
          CFI (cfiPicker84) NoFunction
          CFI (cfiPicker84) Picker
        MOV       DPH,A
          CFI EndBlock cfiCond82
          CFI EndBlock cfiCond83
          CFI EndBlock cfiPicker84
        REQUIRE ??Subroutine44_0
        ; // Fall through to label ??Subroutine44_0

        RSEG BANKED_CODE:HUGECODE:NOROOT(0)
??Subroutine44_0:
          CFI Block cfiCond85 Using cfiCommon0
          CFI Function touchLink_PopNwkAddress
          CFI Conditional ??CrossCallReturnLabel_87
          CFI DPL0 Frame(CFA_SP, 4)
          CFI DPH0 Frame(CFA_SP, 5)
          CFI CFA_SP SP+-7
          CFI Block cfiCond86 Using cfiCommon0
          CFI (cfiCond86) Function touchLink_RouterProcessZDOMsg
          CFI (cfiCond86) Conditional ??CrossCallReturnLabel_88
          CFI (cfiCond86) R6 load(1, XDATA, add(CFA_XSP16, literal(-10)))
          CFI (cfiCond86) VB load(1, XDATA, add(CFA_XSP16, literal(-9)))
          CFI (cfiCond86) V0 load(1, XDATA, add(CFA_XSP16, literal(-8)))
          CFI (cfiCond86) V1 load(1, XDATA, add(CFA_XSP16, literal(-7)))
          CFI (cfiCond86) R7 load(1, XDATA, add(CFA_XSP16, literal(-6)))
          CFI (cfiCond86) ?RET_LOW load(1, XDATA, add(CFA_XSP16, literal(-5)))
          CFI (cfiCond86) ?RET_HIGH load(1, XDATA, add(CFA_XSP16, literal(-4)))
          CFI (cfiCond86) ?BRET_EXT load(1, XDATA, add(CFA_XSP16, literal(-3)))
          CFI (cfiCond86) DPL0 load(1, XDATA, add(CFA_XSP16, literal(-2)))
          CFI (cfiCond86) DPH0 load(1, XDATA, add(CFA_XSP16, literal(-1)))
          CFI (cfiCond86) CFA_SP SP+-2
          CFI (cfiCond86) CFA_XSP16 add(XSP16, 22)
          CFI Block cfiCond87 Using cfiCommon0
          CFI (cfiCond87) Function touchLink_GetNumSubDevices
          CFI (cfiCond87) Conditional ??CrossCallReturnLabel_89
          CFI (cfiCond87) DPL0 Frame(CFA_SP, 4)
          CFI (cfiCond87) DPH0 Frame(CFA_SP, 5)
          CFI (cfiCond87) CFA_SP SP+-7
          CFI Block cfiCond88 Using cfiCommon0
          CFI (cfiCond88) Function touchLinkStartRtr
          CFI (cfiCond88) Conditional ??CrossCallReturnLabel_90
          CFI (cfiCond88) R6 load(1, XDATA, add(CFA_XSP16, literal(-9)))
          CFI (cfiCond88) VB load(1, XDATA, add(CFA_XSP16, literal(-8)))
          CFI (cfiCond88) V0 load(1, XDATA, add(CFA_XSP16, literal(-7)))
          CFI (cfiCond88) R7 load(1, XDATA, add(CFA_XSP16, literal(-6)))
          CFI (cfiCond88) ?RET_LOW load(1, XDATA, add(CFA_XSP16, literal(-5)))
          CFI (cfiCond88) ?RET_HIGH load(1, XDATA, add(CFA_XSP16, literal(-4)))
          CFI (cfiCond88) ?BRET_EXT load(1, XDATA, add(CFA_XSP16, literal(-3)))
          CFI (cfiCond88) DPL0 load(1, XDATA, add(CFA_XSP16, literal(-2)))
          CFI (cfiCond88) DPH0 load(1, XDATA, add(CFA_XSP16, literal(-1)))
          CFI (cfiCond88) CFA_SP SP+-2
          CFI (cfiCond88) CFA_XSP16 add(XSP16, 13)
          CFI Block cfiPicker89 Using cfiCommon1
          CFI (cfiPicker89) NoFunction
          CFI (cfiPicker89) Picker
        MOVX      A,@DPTR
        MOV       R2,A
        INC       DPTR
        MOVX      A,@DPTR
        MOV       R3,A
        RET
          CFI EndBlock cfiCond85
          CFI EndBlock cfiCond86
          CFI EndBlock cfiCond87
          CFI EndBlock cfiCond88
          CFI EndBlock cfiPicker89

        RSEG BANKED_CODE:HUGECODE:NOROOT(0)
?Subroutine1:
          CFI Block cfiBlock90 Using cfiCommon0
          CFI NoFunction
          CFI CFA_SP SP+-5
          CFI DPL0 Frame(CFA_SP, 4)
          CFI DPH0 Frame(CFA_SP, 5)
        MOV       A,R0
        MOVX      @DPTR,A
        INC       DPTR
        MOV       A,R1
          CFI EndBlock cfiBlock90
        REQUIRE ??Subroutine45_0
        ; // Fall through to label ??Subroutine45_0

        RSEG BANKED_CODE:HUGECODE:NOROOT(0)
??Subroutine45_0:
          CFI Block cfiBlock91 Using cfiCommon0
          CFI NoFunction
          CFI CFA_SP SP+-5
          CFI DPL0 Frame(CFA_SP, 4)
          CFI DPH0 Frame(CFA_SP, 5)
        MOVX      @DPTR,A
          CFI EndBlock cfiBlock91
        REQUIRE ??Subroutine46_0
        ; // Fall through to label ??Subroutine46_0

        RSEG BANKED_CODE:HUGECODE:NOROOT(0)
??Subroutine46_0:
          CFI Block cfiBlock92 Using cfiCommon0
          CFI NoFunction
          CFI CFA_SP SP+-5
          CFI DPL0 Frame(CFA_SP, 4)
          CFI DPH0 Frame(CFA_SP, 5)
        POP       DPH
          CFI CFA_SP SP+-4
          CFI DPH0 SameValue
        POP       DPL
          CFI CFA_SP SP+-3
          CFI DPL0 SameValue
        LJMP      ?BRET
          CFI EndBlock cfiBlock92
//  448 
//  449 /*********************************************************************
//  450  * @fn      touchLink_GetNumGrpIDs
//  451  *
//  452  * @brief   Get the total number of group IDs required by this device.
//  453  *
//  454  * @param   none
//  455  *
//  456  * @return  number of group IDs
//  457  */

        RSEG BANKED_CODE:HUGECODE:NOROOT(0)
//  458 uint8 touchLink_GetNumGrpIDs( void )
touchLink_GetNumGrpIDs:
          CFI Block cfiBlock93 Using cfiCommon0
          CFI Function touchLink_GetNumGrpIDs
        CODE
//  459 {
        PUSH      DPL
          CFI DPL0 Frame(CFA_SP, 4)
          CFI CFA_SP SP+-4
        PUSH      DPH
          CFI DPH0 Frame(CFA_SP, 5)
          CFI CFA_SP SP+-5
        ; Saved register size: 2
        ; Auto size: 0
//  460   uint8 numGrpIDs = 0;
        MOV       R1,#0x0
//  461 
//  462   for ( uint8 i = 0; i < TOUCHLINK_NUM_DEVICE_INFO_ENTRIES; i++ )
        MOV       R0,#0x0
//  463   {
//  464     if ( touchLinkSubDevicesTbl[i] != NULL )
??touchLink_GetNumGrpIDs_0:
        LCALL     ?Subroutine32 & 0xFFFF
??CrossCallReturnLabel_58:
        MOV       DPH,A
        MOVX      A,@DPTR
        MOV       R2,A
        INC       DPTR
        MOVX      A,@DPTR
        MOV       DPL,R2
        MOV       DPH,A
        MOV       A,DPL
        ORL       A,DPH
        JZ        ??touchLink_GetNumGrpIDs_1
//  465     {
//  466       numGrpIDs += touchLinkSubDevicesTbl[i]->grpIdCnt;
        INC       DPTR
        INC       DPTR
        INC       DPTR
        INC       DPTR
        INC       DPTR
        INC       DPTR
        MOVX      A,@DPTR
        ADD       A,R1
        MOV       R1,A
//  467     }
//  468   }
??touchLink_GetNumGrpIDs_1:
        INC       R0
        MOV       A,R0
        CLR       C
        SUBB      A,#0x5
        JC        ??touchLink_GetNumGrpIDs_0
//  469 
//  470   return ( numGrpIDs );
        SJMP      ??Subroutine46_0
//  471 }
          CFI EndBlock cfiBlock93

        RSEG BANKED_CODE:HUGECODE:NOROOT(0)
?Subroutine32:
          CFI Block cfiCond94 Using cfiCommon0
          CFI Function touchLink_GetNumSubDevices
          CFI Conditional ??CrossCallReturnLabel_57
          CFI DPL0 Frame(CFA_SP, 4)
          CFI DPH0 Frame(CFA_SP, 5)
          CFI CFA_SP SP+-7
          CFI Block cfiCond95 Using cfiCommon0
          CFI (cfiCond95) Function touchLink_GetNumGrpIDs
          CFI (cfiCond95) Conditional ??CrossCallReturnLabel_58
          CFI (cfiCond95) DPL0 Frame(CFA_SP, 4)
          CFI (cfiCond95) DPH0 Frame(CFA_SP, 5)
          CFI (cfiCond95) CFA_SP SP+-7
          CFI Block cfiPicker96 Using cfiCommon1
          CFI (cfiPicker96) NoFunction
          CFI (cfiPicker96) Picker
        MOV       A,R0
        ADD       A,0xE0 /* A   */
        MOV       R2,A
        CLR       A
        RLC       A
        MOV       R3,A
        MOV       A,#touchLinkSubDevicesTbl & 0xff
        ADD       A,R2
        MOV       DPL,A
        MOV       A,#(touchLinkSubDevicesTbl >> 8) & 0xff
        ADDC      A,R3
        RET
          CFI EndBlock cfiCond94
          CFI EndBlock cfiCond95
          CFI EndBlock cfiPicker96
//  472 
//  473 /*********************************************************************
//  474  * @fn      touchLink_GetSubDeviceInfo
//  475  *
//  476  * @brief   Get the sub-device information.
//  477  *
//  478  * input parameter
//  479  *
//  480  * @param   index - index of sub-device
//  481  *
//  482  * output parameter
//  483  *
//  484  * @param   pInfo - sub-device info (to be returned)
//  485  *
//  486  * @return  none
//  487  */

        RSEG BANKED_CODE:HUGECODE:NOROOT(0)
//  488 void touchLink_GetSubDeviceInfo( uint8 index, bdbTLDeviceInfo_t *pInfo )
touchLink_GetSubDeviceInfo:
          CFI Block cfiBlock97 Using cfiCommon0
          CFI Function touchLink_GetSubDeviceInfo
        CODE
//  489 {
        FUNCALL touchLink_GetSubDeviceInfo, afFindEndPointDesc
        LOCFRAME ISTACK, 0, STACK
        LOCFRAME PSTACK, 0, STACK
        LOCFRAME XSTACK, 14, STACK
        LOCFRAME IOVERLAY, 0, STATIC
        LOCFRAME DOVERLAY, 0, STATIC
        ARGFRAME ISTACK, 0, STACK
        ARGFRAME PSTACK, 0, STACK
        ARGFRAME XSTACK, 14, STACK
        ARGFRAME IOVERLAY, 0, STATIC
        ARGFRAME DOVERLAY, 0, STATIC
        FUNCALL touchLink_GetSubDeviceInfo, osal_memset
        LOCFRAME ISTACK, 0, STACK
        LOCFRAME PSTACK, 0, STACK
        LOCFRAME XSTACK, 14, STACK
        LOCFRAME IOVERLAY, 0, STATIC
        LOCFRAME DOVERLAY, 0, STATIC
        ARGFRAME ISTACK, 0, STACK
        ARGFRAME PSTACK, 0, STACK
        ARGFRAME XSTACK, 14, STACK
        ARGFRAME IOVERLAY, 0, STATIC
        ARGFRAME DOVERLAY, 0, STATIC
        REQUIRE ?V0
        REQUIRE ?V1
        REQUIRE ?V2
        REQUIRE ?V4
        REQUIRE ?V5
        MOV       A,#-0xe
        LCALL     ?BANKED_ENTER_XDATA
          CFI DPH0 load(1, XDATA, add(CFA_XSP16, literal(-1)))
          CFI DPL0 load(1, XDATA, add(CFA_XSP16, literal(-2)))
          CFI ?BRET_EXT load(1, XDATA, add(CFA_XSP16, literal(-3)))
          CFI ?RET_HIGH load(1, XDATA, add(CFA_XSP16, literal(-4)))
          CFI ?RET_LOW load(1, XDATA, add(CFA_XSP16, literal(-5)))
          CFI R7 load(1, XDATA, add(CFA_XSP16, literal(-6)))
          CFI V5 load(1, XDATA, add(CFA_XSP16, literal(-7)))
          CFI V4 load(1, XDATA, add(CFA_XSP16, literal(-8)))
          CFI V3 load(1, XDATA, add(CFA_XSP16, literal(-9)))
          CFI V2 load(1, XDATA, add(CFA_XSP16, literal(-10)))
          CFI V1 load(1, XDATA, add(CFA_XSP16, literal(-11)))
          CFI V0 load(1, XDATA, add(CFA_XSP16, literal(-12)))
          CFI VB load(1, XDATA, add(CFA_XSP16, literal(-13)))
          CFI R6 load(1, XDATA, add(CFA_XSP16, literal(-14)))
          CFI CFA_SP SP+0
          CFI CFA_XSP16 add(XSP16, 14)
        ; Saved register size: 14
        ; Auto size: 0
        MOV       A,R2
        MOV       R6,A
        MOV       A,R3
        MOV       R7,A
//  490   if ( pInfo == NULL )
        MOV       A,R2
        ORL       A,R7
        JZ        ??touchLink_GetSubDeviceInfo_0
//  491   {
//  492     return;
//  493   }
//  494   if ( ( index < TOUCHLINK_NUM_DEVICE_INFO_ENTRIES ) &&
//  495        ( touchLinkSubDevicesTbl[index] != NULL ) )
        MOV       A,R1
        CLR       C
        SUBB      A,#0x5
        JNC       ??touchLink_GetSubDeviceInfo_1
        MOV       A,R1
        ADD       A,R1
        MOV       R0,A
        CLR       A
        RLC       A
        MOV       R1,A
        MOV       A,#touchLinkSubDevicesTbl & 0xff
        ADD       A,R0
        MOV       R0,A
        MOV       A,#(touchLinkSubDevicesTbl >> 8) & 0xff
        ADDC      A,R1
        MOV       ?V0,R0
        MOV       ?V1,A
        MOV       DPL,R0
        MOV       DPH,A
        MOVX      A,@DPTR
        MOV       R0,A
        INC       DPTR
        MOVX      A,@DPTR
        MOV       DPL,R0
        MOV       DPH,A
        MOV       A,DPL
        ORL       A,DPH
        JZ        ??touchLink_GetSubDeviceInfo_1
//  496   {
//  497     endPointDesc_t *epDesc = afFindEndPointDesc( touchLinkSubDevicesTbl[index]->endpoint );
//  498     if ( epDesc != NULL )
        ; Setup parameters for call to function afFindEndPointDesc
        MOVX      A,@DPTR
        MOV       R1,A
        LCALL     `??afFindEndPointDesc::?relay`; Banked call to: afFindEndPointDesc
        MOV       A,R2
        ORL       A,R3
        JZ        ??touchLink_GetSubDeviceInfo_0
//  499     {
//  500       // Copy sub-device info
//  501       *pInfo = *(touchLinkSubDevicesTbl[index]);
        MOV       DPL,?V0
        MOV       DPH,?V1
        LCALL     ?Subroutine30 & 0xFFFF
//  502     }
//  503   }
??CrossCallReturnLabel_47:
        MOV       A,R6
        MOV       R4,A
        MOV       A,R7
        MOV       R5,A
        MOV       A,#0x7
        LCALL     ?MOVE_LONG8_XDATA_XDATA
        SJMP      ??touchLink_GetSubDeviceInfo_0
//  504   else
//  505   {
//  506     osal_memset( pInfo, 0, sizeof( bdbTLDeviceInfo_t ) );
??touchLink_GetSubDeviceInfo_1:
        ; Setup parameters for call to function osal_memset
        MOV       R4,#0x7
        MOV       R5,#0x0
        MOV       R1,#0x0
        LCALL     `??osal_memset::?relay`; Banked call to: osal_memset
//  507   }
//  508 }
??touchLink_GetSubDeviceInfo_0:
          CFI EndBlock cfiBlock97
        REQUIRE ?Subroutine3
        ; // Fall through to label ?Subroutine3

        RSEG BANKED_CODE:HUGECODE:NOROOT(0)
?Subroutine3:
          CFI Block cfiBlock98 Using cfiCommon0
          CFI NoFunction
          CFI CFA_SP SP+0
          CFI CFA_XSP16 add(XSP16, 14)
          CFI VB load(1, XDATA, add(CFA_XSP16, literal(-13)))
          CFI DPL0 load(1, XDATA, add(CFA_XSP16, literal(-2)))
          CFI DPH0 load(1, XDATA, add(CFA_XSP16, literal(-1)))
          CFI R6 load(1, XDATA, add(CFA_XSP16, literal(-14)))
          CFI R7 load(1, XDATA, add(CFA_XSP16, literal(-6)))
          CFI V0 load(1, XDATA, add(CFA_XSP16, literal(-12)))
          CFI V1 load(1, XDATA, add(CFA_XSP16, literal(-11)))
          CFI V2 load(1, XDATA, add(CFA_XSP16, literal(-10)))
          CFI V3 load(1, XDATA, add(CFA_XSP16, literal(-9)))
          CFI V4 load(1, XDATA, add(CFA_XSP16, literal(-8)))
          CFI V5 load(1, XDATA, add(CFA_XSP16, literal(-7)))
          CFI ?BRET_EXT load(1, XDATA, add(CFA_XSP16, literal(-3)))
          CFI ?RET_HIGH load(1, XDATA, add(CFA_XSP16, literal(-4)))
          CFI ?RET_LOW load(1, XDATA, add(CFA_XSP16, literal(-5)))
        MOV       R7,#0x6
        LJMP      ?BANKED_LEAVE_XDATA
          CFI EndBlock cfiBlock98
//  509 
//  510 
//  511 /*********************************************************************
//  512  * @fn      touchLink_EncryptNwkKey
//  513  *
//  514  * @brief   Encrypt the current network key to be sent to a Target.
//  515  *          In case of Factory New device generate new key.
//  516  *
//  517  * output parameter
//  518  *
//  519  * @param   pNwkKey - pointer to encrypted network key
//  520  *
//  521  * input parameters
//  522  *
//  523  * @param   keyIndex - key index
//  524  * @param   transID - transaction id
//  525  * @param   responseID - response id
//  526  *
//  527  * @return  none
//  528  */

        RSEG BANKED_CODE:HUGECODE:NOROOT(0)
//  529 void touchLink_EncryptNwkKey( uint8 *pNwkKey, uint8 keyIndex, uint32 transID, uint32 responseID )
touchLink_EncryptNwkKey:
          CFI Block cfiBlock99 Using cfiCommon0
          CFI Function touchLink_EncryptNwkKey
        CODE
//  530 {
        FUNCALL touchLink_EncryptNwkKey, touchLink_GenerateRandNum
        LOCFRAME ISTACK, 0, STACK
        LOCFRAME PSTACK, 0, STACK
        LOCFRAME XSTACK, 81, STACK
        LOCFRAME IOVERLAY, 0, STATIC
        LOCFRAME DOVERLAY, 0, STATIC
        ARGFRAME ISTACK, 0, STACK
        ARGFRAME PSTACK, 0, STACK
        ARGFRAME XSTACK, 81, STACK
        ARGFRAME IOVERLAY, 0, STATIC
        ARGFRAME DOVERLAY, 0, STATIC
        FUNCALL touchLink_EncryptNwkKey, SSP_ReadNwkActiveKey
        LOCFRAME ISTACK, 0, STACK
        LOCFRAME PSTACK, 0, STACK
        LOCFRAME XSTACK, 81, STACK
        LOCFRAME IOVERLAY, 0, STATIC
        LOCFRAME DOVERLAY, 0, STATIC
        ARGFRAME ISTACK, 0, STACK
        ARGFRAME PSTACK, 0, STACK
        ARGFRAME XSTACK, 81, STACK
        ARGFRAME IOVERLAY, 0, STATIC
        ARGFRAME DOVERLAY, 0, STATIC
        FUNCALL touchLink_EncryptNwkKey, osal_memcpy
        LOCFRAME ISTACK, 0, STACK
        LOCFRAME PSTACK, 0, STACK
        LOCFRAME XSTACK, 84, STACK
        LOCFRAME IOVERLAY, 0, STATIC
        LOCFRAME DOVERLAY, 0, STATIC
        ARGFRAME ISTACK, 0, STACK
        ARGFRAME PSTACK, 0, STACK
        ARGFRAME XSTACK, 84, STACK
        ARGFRAME IOVERLAY, 0, STATIC
        ARGFRAME DOVERLAY, 0, STATIC
        FUNCALL touchLink_EncryptNwkKey, touchLink_BuildAesKey
        LOCFRAME ISTACK, 0, STACK
        LOCFRAME PSTACK, 0, STACK
        LOCFRAME XSTACK, 89, STACK
        LOCFRAME IOVERLAY, 0, STATIC
        LOCFRAME DOVERLAY, 0, STATIC
        ARGFRAME ISTACK, 0, STACK
        ARGFRAME PSTACK, 0, STACK
        ARGFRAME XSTACK, 89, STACK
        ARGFRAME IOVERLAY, 0, STATIC
        ARGFRAME DOVERLAY, 0, STATIC
        FUNCALL touchLink_EncryptNwkKey, sspAesEncrypt
        LOCFRAME ISTACK, 0, STACK
        LOCFRAME PSTACK, 0, STACK
        LOCFRAME XSTACK, 81, STACK
        LOCFRAME IOVERLAY, 0, STATIC
        LOCFRAME DOVERLAY, 0, STATIC
        ARGFRAME ISTACK, 0, STACK
        ARGFRAME PSTACK, 0, STACK
        ARGFRAME XSTACK, 81, STACK
        ARGFRAME IOVERLAY, 0, STATIC
        ARGFRAME DOVERLAY, 0, STATIC
        FUNCALL touchLink_EncryptNwkKey, sspAesEncrypt
        LOCFRAME ISTACK, 0, STACK
        LOCFRAME PSTACK, 0, STACK
        LOCFRAME XSTACK, 81, STACK
        LOCFRAME IOVERLAY, 0, STATIC
        LOCFRAME DOVERLAY, 0, STATIC
        ARGFRAME ISTACK, 0, STACK
        ARGFRAME PSTACK, 0, STACK
        ARGFRAME XSTACK, 81, STACK
        ARGFRAME IOVERLAY, 0, STATIC
        ARGFRAME DOVERLAY, 0, STATIC
        FUNCALL touchLink_EncryptNwkKey, osal_memcpy
        LOCFRAME ISTACK, 0, STACK
        LOCFRAME PSTACK, 0, STACK
        LOCFRAME XSTACK, 84, STACK
        LOCFRAME IOVERLAY, 0, STATIC
        LOCFRAME DOVERLAY, 0, STATIC
        ARGFRAME ISTACK, 0, STACK
        ARGFRAME PSTACK, 0, STACK
        ARGFRAME XSTACK, 84, STACK
        ARGFRAME IOVERLAY, 0, STATIC
        ARGFRAME DOVERLAY, 0, STATIC
        REQUIRE ?V0
        REQUIRE ?V1
        REQUIRE ?V2
        REQUIRE ?V3
        MOV       A,#-0xc
        LCALL     ?BANKED_ENTER_XDATA
          CFI DPH0 load(1, XDATA, add(CFA_XSP16, literal(-1)))
          CFI DPL0 load(1, XDATA, add(CFA_XSP16, literal(-2)))
          CFI ?BRET_EXT load(1, XDATA, add(CFA_XSP16, literal(-3)))
          CFI ?RET_HIGH load(1, XDATA, add(CFA_XSP16, literal(-4)))
          CFI ?RET_LOW load(1, XDATA, add(CFA_XSP16, literal(-5)))
          CFI R7 load(1, XDATA, add(CFA_XSP16, literal(-6)))
          CFI V3 load(1, XDATA, add(CFA_XSP16, literal(-7)))
          CFI V2 load(1, XDATA, add(CFA_XSP16, literal(-8)))
          CFI V1 load(1, XDATA, add(CFA_XSP16, literal(-9)))
          CFI V0 load(1, XDATA, add(CFA_XSP16, literal(-10)))
          CFI VB load(1, XDATA, add(CFA_XSP16, literal(-11)))
          CFI R6 load(1, XDATA, add(CFA_XSP16, literal(-12)))
          CFI CFA_SP SP+0
          CFI CFA_XSP16 add(XSP16, 12)
        ; Saved register size: 12
        ; Auto size: 69
        MOV       A,#-0x45
        LCALL     ?ALLOC_XSTACK8
          CFI CFA_XSP16 add(XSP16, 81)
        MOV       A,R2
        MOV       R6,A
        MOV       A,R3
        MOV       R7,A
        MOV       ?V3,R1
//  531   uint8 aesKeyKey[SEC_KEY_LEN] = TOUCHLINK_DEFAULT_AES_KEY;
        MOV       DPTR,#`?<Constant {80, 104, 76, 105, 234, 156, 209, 5`
        MOV       A,#0x10
        LCALL     ?XSTACK_DISP102_8
        MOV       A,#0x10
        LCALL     ?MOVE_LONG8_XDATA_XDATA
//  532   uint8 masterKey[SEC_KEY_LEN] = TOUCHLINK_ENC_KEY;
        MOV       DPTR,#`?<Constant {192, 193, 194, 195, 196, 197, 198,`
        MOV       A,#0x35
        LCALL     ?XSTACK_DISP102_8
        MOV       A,#0x10
        LCALL     ?MOVE_LONG8_XDATA_XDATA
//  533   uint8 nwkKey[SEC_KEY_LEN];
//  534 
//  535   if ( bdbAttributes.bdbNodeIsOnANetwork == FALSE )
        MOV       DPTR,#bdbAttributes + 14
        MOVX      A,@DPTR
        JNZ       ??touchLink_EncryptNwkKey_0
//  536   {
//  537     touchLink_GenerateRandNum( nwkKey, SEC_KEY_LEN );
        ; Setup parameters for call to function touchLink_GenerateRandNum
        MOV       R1,#0x10
        MOV       R2,?XSP + 0
        MOV       R3,?XSP + 1
        LCALL     `??touchLink_GenerateRandNum::?relay`; Banked call to: touchLink_GenerateRandNum
        SJMP      ??touchLink_EncryptNwkKey_1
//  538   }
//  539   else
//  540   {
//  541     nwkActiveKeyItems keyItems;
//  542     SSP_ReadNwkActiveKey( &keyItems );
??touchLink_EncryptNwkKey_0:
        ; Setup parameters for call to function SSP_ReadNwkActiveKey
        MOV       A,#0x20
        LCALL     ?XSTACK_DISP101_8
        LCALL     `??SSP_ReadNwkActiveKey::?relay`; Banked call to: SSP_ReadNwkActiveKey
//  543     osal_memcpy( nwkKey, keyItems.active.key , SEC_KEY_LEN);
        ; Setup parameters for call to function osal_memcpy
        MOV       A,#0x21
        LCALL     ?XSTACK_DISP0_8
        MOV       R1,DPL
        MOV       R2,DPH
        MOV       ?V0,R1
        MOV       ?V1,R2
        MOV       ?V2,#0x0
        MOV       R0,#?V0
        LCALL     ?PUSH_XSTACK_I_THREE
          CFI CFA_XSP16 add(XSP16, 84)
        MOV       R4,#0x10
        MOV       R5,#0x0
        MOV       A,#0x3
        LCALL     ?XSTACK_DISP101_8
        LCALL     ??Subroutine47_0 & 0xFFFF
//  544   }
??CrossCallReturnLabel_93:
        LCALL     ?DEALLOC_XSTACK8
          CFI CFA_XSP16 add(XSP16, 81)
//  545 
//  546   // Build the AES key
//  547   touchLink_BuildAesKey( aesKeyKey, transID, responseID, keyIndex );
??touchLink_EncryptNwkKey_1:
        ; Setup parameters for call to function touchLink_BuildAesKey
        MOV       A,#0x55
        LCALL     ?XSTACK_DISP0_8
        LCALL     ?PUSH_XSTACK8_X_FOUR
          CFI CFA_XSP16 add(XSP16, 85)
        MOV       A,#0x55
        LCALL     ?XSTACK_DISP0_8
        LCALL     ?PUSH_XSTACK8_X_FOUR
          CFI CFA_XSP16 add(XSP16, 89)
        MOV       R1,?V3
        MOV       A,#0x18
        LCALL     ?XSTACK_DISP101_8
        LCALL     `??touchLink_BuildAesKey::?relay`; Banked call to: touchLink_BuildAesKey
        MOV       A,#0x8
        LCALL     ?DEALLOC_XSTACK8
          CFI CFA_XSP16 add(XSP16, 81)
//  548 
//  549   if ( ( keyIndex == TOUCHLINK_KEY_INDEX_MASTER ) || ( keyIndex == TOUCHLINK_KEY_INDEX_CERT ) )
        MOV       A,#0x4
        XRL       A,?V3
        JZ        ??touchLink_EncryptNwkKey_2
        MOV       A,#0xf
        XRL       A,?V3
        JNZ       ??touchLink_EncryptNwkKey_3
//  550   {
//  551     // Encypt with the master key
//  552     sspAesEncrypt( masterKey, aesKeyKey );
??touchLink_EncryptNwkKey_2:
        ; Setup parameters for call to function sspAesEncrypt
        MOV       A,#0x10
        LCALL     ?XSTACK_DISP102_8
        MOV       A,#0x35
        LCALL     ?XSTACK_DISP101_8
        LCALL     `??sspAesEncrypt::?relay`; Banked call to: sspAesEncrypt
//  553   }
//  554   // Encrypt the network key with the AES key
//  555   sspAesEncrypt( aesKeyKey, nwkKey );
??touchLink_EncryptNwkKey_3:
        ; Setup parameters for call to function sspAesEncrypt
        MOV       R4,?XSP + 0
        MOV       R5,?XSP + 1
        MOV       A,#0x10
        LCALL     ?XSTACK_DISP101_8
        LCALL     `??sspAesEncrypt::?relay`; Banked call to: sspAesEncrypt
//  556 
//  557   // Copy in the encrypted network key
//  558   osal_memcpy( pNwkKey, nwkKey, SEC_KEY_LEN );
        ; Setup parameters for call to function osal_memcpy
        MOV       R0,?XSP + 0
        MOV       R1,?XSP + 1
        MOV       ?V0,R0
        MOV       ?V1,R1
        MOV       ?V2,#0x0
        MOV       R0,#?V0
        LCALL     ?PUSH_XSTACK_I_THREE
          CFI CFA_XSP16 add(XSP16, 84)
        MOV       R4,#0x10
        MOV       R5,#0x0
        MOV       A,R6
        MOV       R2,A
        MOV       A,R7
        LCALL     ?Subroutine34 & 0xFFFF
??CrossCallReturnLabel_91:
        LCALL     ?DEALLOC_XSTACK8
          CFI CFA_XSP16 add(XSP16, 81)
//  559 }
        MOV       A,#0x45
        LJMP      ?Subroutine4 & 0xFFFF
          CFI EndBlock cfiBlock99
//  560 
//  561 /*********************************************************************
//  562  * @fn      touchLink_DecryptNwkKey
//  563  *
//  564  * @brief   Decrypt the received network key and update.
//  565  *
//  566  * @param   pNwkKey - pointer to the encrypted network key
//  567  * @param   keyIndex - key index
//  568  * @param   transID - transaction id
//  569  * @param   responseID - response id
//  570  *
//  571  * @return  none
//  572  */

        RSEG BANKED_CODE:HUGECODE:NOROOT(0)
//  573 void touchLink_DecryptNwkKey( uint8 *pNwkKey, uint8 keyIndex, uint32 transID, uint32 responseID )
touchLink_DecryptNwkKey:
          CFI Block cfiBlock100 Using cfiCommon0
          CFI Function touchLink_DecryptNwkKey
        CODE
//  574 {
        FUNCALL touchLink_DecryptNwkKey, osal_memcpy
        LOCFRAME ISTACK, 0, STACK
        LOCFRAME PSTACK, 0, STACK
        LOCFRAME XSTACK, 62, STACK
        LOCFRAME IOVERLAY, 0, STATIC
        LOCFRAME DOVERLAY, 0, STATIC
        ARGFRAME ISTACK, 0, STACK
        ARGFRAME PSTACK, 0, STACK
        ARGFRAME XSTACK, 62, STACK
        ARGFRAME IOVERLAY, 0, STATIC
        ARGFRAME DOVERLAY, 0, STATIC
        FUNCALL touchLink_DecryptNwkKey, touchLink_BuildAesKey
        LOCFRAME ISTACK, 0, STACK
        LOCFRAME PSTACK, 0, STACK
        LOCFRAME XSTACK, 67, STACK
        LOCFRAME IOVERLAY, 0, STATIC
        LOCFRAME DOVERLAY, 0, STATIC
        ARGFRAME ISTACK, 0, STACK
        ARGFRAME PSTACK, 0, STACK
        ARGFRAME XSTACK, 67, STACK
        ARGFRAME IOVERLAY, 0, STATIC
        ARGFRAME DOVERLAY, 0, STATIC
        FUNCALL touchLink_DecryptNwkKey, sspAesEncrypt
        LOCFRAME ISTACK, 0, STACK
        LOCFRAME PSTACK, 0, STACK
        LOCFRAME XSTACK, 59, STACK
        LOCFRAME IOVERLAY, 0, STATIC
        LOCFRAME DOVERLAY, 0, STATIC
        ARGFRAME ISTACK, 0, STACK
        ARGFRAME PSTACK, 0, STACK
        ARGFRAME XSTACK, 59, STACK
        ARGFRAME IOVERLAY, 0, STATIC
        ARGFRAME DOVERLAY, 0, STATIC
        FUNCALL touchLink_DecryptNwkKey, sspAesDecrypt
        LOCFRAME ISTACK, 0, STACK
        LOCFRAME PSTACK, 0, STACK
        LOCFRAME XSTACK, 59, STACK
        LOCFRAME IOVERLAY, 0, STATIC
        LOCFRAME DOVERLAY, 0, STATIC
        ARGFRAME ISTACK, 0, STACK
        ARGFRAME PSTACK, 0, STACK
        ARGFRAME XSTACK, 59, STACK
        ARGFRAME IOVERLAY, 0, STATIC
        ARGFRAME DOVERLAY, 0, STATIC
        FUNCALL touchLink_DecryptNwkKey, touchLink_UpdateNwkKey
        LOCFRAME ISTACK, 0, STACK
        LOCFRAME PSTACK, 0, STACK
        LOCFRAME XSTACK, 59, STACK
        LOCFRAME IOVERLAY, 0, STATIC
        LOCFRAME DOVERLAY, 0, STATIC
        ARGFRAME ISTACK, 0, STACK
        ARGFRAME PSTACK, 0, STACK
        ARGFRAME XSTACK, 59, STACK
        ARGFRAME IOVERLAY, 0, STATIC
        ARGFRAME DOVERLAY, 0, STATIC
        REQUIRE ?V0
        REQUIRE ?V1
        REQUIRE ?V2
        MOV       A,#-0xb
        LCALL     ?BANKED_ENTER_XDATA
          CFI DPH0 load(1, XDATA, add(CFA_XSP16, literal(-1)))
          CFI DPL0 load(1, XDATA, add(CFA_XSP16, literal(-2)))
          CFI ?BRET_EXT load(1, XDATA, add(CFA_XSP16, literal(-3)))
          CFI ?RET_HIGH load(1, XDATA, add(CFA_XSP16, literal(-4)))
          CFI ?RET_LOW load(1, XDATA, add(CFA_XSP16, literal(-5)))
          CFI R7 load(1, XDATA, add(CFA_XSP16, literal(-6)))
          CFI V2 load(1, XDATA, add(CFA_XSP16, literal(-7)))
          CFI V1 load(1, XDATA, add(CFA_XSP16, literal(-8)))
          CFI V0 load(1, XDATA, add(CFA_XSP16, literal(-9)))
          CFI VB load(1, XDATA, add(CFA_XSP16, literal(-10)))
          CFI R6 load(1, XDATA, add(CFA_XSP16, literal(-11)))
          CFI CFA_SP SP+0
          CFI CFA_XSP16 add(XSP16, 11)
        ; Saved register size: 11
        ; Auto size: 48
        MOV       A,#-0x30
        LCALL     ?ALLOC_XSTACK8
          CFI CFA_XSP16 add(XSP16, 59)
        MOV       A,R1
        MOV       R6,A
//  575   uint8 aesKeyKey[SEC_KEY_LEN] = TOUCHLINK_DEFAULT_AES_KEY;
        MOV       DPTR,#`?<Constant {80, 104, 76, 105, 234, 156, 209, 5_1`
        MOV       A,#0x10
        LCALL     ?XSTACK_DISP102_8
        MOV       A,#0x10
        LCALL     ?MOVE_LONG8_XDATA_XDATA
//  576 
//  577   uint8 nwkKey[SEC_KEY_LEN];
//  578 
//  579   uint8 masterKey[SEC_KEY_LEN] = TOUCHLINK_ENC_KEY;
        MOV       DPTR,#`?<Constant {192, 193, 194, 195, 196, 197, 198,_1`
        MOV       A,#0x10
        LCALL     ?MOVE_LONG8_XDATA_XDATA
//  580 
//  581   // Copy in the encrypted network key
//  582   osal_memcpy( nwkKey, pNwkKey, SEC_KEY_LEN );
        ; Setup parameters for call to function osal_memcpy
        MOV       ?V0,R2
        MOV       ?V1,R3
        MOV       ?V2,A
        MOV       R0,#?V0
        LCALL     ?PUSH_XSTACK_I_THREE
          CFI CFA_XSP16 add(XSP16, 62)
        MOV       R4,#0x10
        MOV       R5,#0x0
        MOV       A,#0x3
        LCALL     ?XSTACK_DISP101_8
        LCALL     ??Subroutine47_0 & 0xFFFF
??CrossCallReturnLabel_94:
        LCALL     ?DEALLOC_XSTACK8
          CFI CFA_XSP16 add(XSP16, 59)
//  583 
//  584   touchLink_BuildAesKey( aesKeyKey, transID, responseID, keyIndex );
        ; Setup parameters for call to function touchLink_BuildAesKey
        MOV       A,#0x3f
        LCALL     ?XSTACK_DISP0_8
        LCALL     ?PUSH_XSTACK8_X_FOUR
          CFI CFA_XSP16 add(XSP16, 63)
        MOV       A,#0x3f
        LCALL     ?XSTACK_DISP0_8
        LCALL     ?PUSH_XSTACK8_X_FOUR
          CFI CFA_XSP16 add(XSP16, 67)
        MOV       A,R6
        MOV       R1,A
        MOV       A,#0x18
        LCALL     ?XSTACK_DISP101_8
        LCALL     `??touchLink_BuildAesKey::?relay`; Banked call to: touchLink_BuildAesKey
        MOV       A,#0x8
        LCALL     ?DEALLOC_XSTACK8
          CFI CFA_XSP16 add(XSP16, 59)
//  585 
//  586   if ( ( keyIndex == TOUCHLINK_KEY_INDEX_MASTER ) || ( keyIndex == TOUCHLINK_KEY_INDEX_CERT ) )
        MOV       A,#0x4
        XRL       A,R6
        JZ        ??touchLink_DecryptNwkKey_0
        MOV       A,#0xf
        XRL       A,R6
        JNZ       ??touchLink_DecryptNwkKey_1
//  587   {
//  588     //encypt with the master key
//  589     sspAesEncrypt( masterKey, aesKeyKey );
??touchLink_DecryptNwkKey_0:
        ; Setup parameters for call to function sspAesEncrypt
        MOV       A,#0x10
        LCALL     ?XSTACK_DISP102_8
        MOV       A,#0x20
        LCALL     ?XSTACK_DISP101_8
        LCALL     `??sspAesEncrypt::?relay`; Banked call to: sspAesEncrypt
//  590   }
//  591   // Decrypt the network key with the AES key
//  592   sspAesDecrypt( aesKeyKey, nwkKey );
??touchLink_DecryptNwkKey_1:
        ; Setup parameters for call to function sspAesDecrypt
        MOV       R4,?XSP + 0
        MOV       R5,?XSP + 1
        MOV       A,#0x10
        LCALL     ?XSTACK_DISP101_8
        LCALL     `??sspAesDecrypt::?relay`; Banked call to: sspAesDecrypt
//  593 
//  594   touchLink_UpdateNwkKey( nwkKey, keyIndex );
        ; Setup parameters for call to function touchLink_UpdateNwkKey
        MOV       A,R6
        MOV       R1,A
        MOV       R2,?XSP + 0
        MOV       R3,?XSP + 1
        LCALL     `??touchLink_UpdateNwkKey::?relay`; Banked call to: touchLink_UpdateNwkKey
//  595 }
        MOV       A,#0x30
        LCALL     ?DEALLOC_XSTACK8
          CFI CFA_XSP16 add(XSP16, 11)
        MOV       R7,#0x3
        LJMP      ?BANKED_LEAVE_XDATA
          CFI EndBlock cfiBlock100

        RSEG BANKED_CODE:HUGECODE:NOROOT(0)
?Subroutine34:
          CFI Block cfiCond101 Using cfiCommon0
          CFI Function touchLink_EncryptNwkKey
          CFI Conditional ??CrossCallReturnLabel_91
          CFI R6 load(1, XDATA, add(CFA_XSP16, literal(-12)))
          CFI VB load(1, XDATA, add(CFA_XSP16, literal(-11)))
          CFI V0 load(1, XDATA, add(CFA_XSP16, literal(-10)))
          CFI V1 load(1, XDATA, add(CFA_XSP16, literal(-9)))
          CFI V2 load(1, XDATA, add(CFA_XSP16, literal(-8)))
          CFI V3 load(1, XDATA, add(CFA_XSP16, literal(-7)))
          CFI R7 load(1, XDATA, add(CFA_XSP16, literal(-6)))
          CFI ?RET_LOW load(1, XDATA, add(CFA_XSP16, literal(-5)))
          CFI ?RET_HIGH load(1, XDATA, add(CFA_XSP16, literal(-4)))
          CFI ?BRET_EXT load(1, XDATA, add(CFA_XSP16, literal(-3)))
          CFI DPL0 load(1, XDATA, add(CFA_XSP16, literal(-2)))
          CFI DPH0 load(1, XDATA, add(CFA_XSP16, literal(-1)))
          CFI CFA_SP SP+-2
          CFI CFA_XSP16 add(XSP16, 84)
          CFI Block cfiCond102 Using cfiCommon0
          CFI (cfiCond102) Function touchLink_DevRejoin
          CFI (cfiCond102) Conditional ??CrossCallReturnLabel_92
          CFI (cfiCond102) R6 load(1, XDATA, add(CFA_XSP16, literal(-15)))
          CFI (cfiCond102) VB load(1, XDATA, add(CFA_XSP16, literal(-14)))
          CFI (cfiCond102) V0 load(1, XDATA, add(CFA_XSP16, literal(-13)))
          CFI (cfiCond102) V1 load(1, XDATA, add(CFA_XSP16, literal(-12)))
          CFI (cfiCond102) V2 load(1, XDATA, add(CFA_XSP16, literal(-11)))
          CFI (cfiCond102) V3 load(1, XDATA, add(CFA_XSP16, literal(-10)))
          CFI (cfiCond102) V4 load(1, XDATA, add(CFA_XSP16, literal(-9)))
          CFI (cfiCond102) V5 load(1, XDATA, add(CFA_XSP16, literal(-8)))
          CFI (cfiCond102) V6 load(1, XDATA, add(CFA_XSP16, literal(-7)))
          CFI (cfiCond102) R7 load(1, XDATA, add(CFA_XSP16, literal(-6)))
          CFI (cfiCond102) ?RET_LOW load(1, XDATA, add(CFA_XSP16, literal(-5)))
          CFI (cfiCond102) ?RET_HIGH load(1, XDATA, add(CFA_XSP16, literal(-4)))
          CFI (cfiCond102) ?BRET_EXT load(1, XDATA, add(CFA_XSP16, literal(-3)))
          CFI (cfiCond102) DPL0 load(1, XDATA, add(CFA_XSP16, literal(-2)))
          CFI (cfiCond102) DPH0 load(1, XDATA, add(CFA_XSP16, literal(-1)))
          CFI (cfiCond102) CFA_SP SP+-2
          CFI (cfiCond102) CFA_XSP16 add(XSP16, 18)
          CFI Block cfiPicker103 Using cfiCommon1
          CFI (cfiPicker103) NoFunction
          CFI (cfiPicker103) Picker
        MOV       R3,A
          CFI EndBlock cfiCond101
          CFI EndBlock cfiCond102
          CFI EndBlock cfiPicker103
        REQUIRE ??Subroutine47_0
        ; // Fall through to label ??Subroutine47_0

        RSEG BANKED_CODE:HUGECODE:NOROOT(0)
??Subroutine47_0:
          CFI Block cfiCond104 Using cfiCommon0
          CFI Function touchLink_EncryptNwkKey
          CFI Conditional ??CrossCallReturnLabel_93
          CFI R6 load(1, XDATA, add(CFA_XSP16, literal(-12)))
          CFI VB load(1, XDATA, add(CFA_XSP16, literal(-11)))
          CFI V0 load(1, XDATA, add(CFA_XSP16, literal(-10)))
          CFI V1 load(1, XDATA, add(CFA_XSP16, literal(-9)))
          CFI V2 load(1, XDATA, add(CFA_XSP16, literal(-8)))
          CFI V3 load(1, XDATA, add(CFA_XSP16, literal(-7)))
          CFI R7 load(1, XDATA, add(CFA_XSP16, literal(-6)))
          CFI ?RET_LOW load(1, XDATA, add(CFA_XSP16, literal(-5)))
          CFI ?RET_HIGH load(1, XDATA, add(CFA_XSP16, literal(-4)))
          CFI ?BRET_EXT load(1, XDATA, add(CFA_XSP16, literal(-3)))
          CFI DPL0 load(1, XDATA, add(CFA_XSP16, literal(-2)))
          CFI DPH0 load(1, XDATA, add(CFA_XSP16, literal(-1)))
          CFI CFA_SP SP+-2
          CFI CFA_XSP16 add(XSP16, 84)
          CFI Block cfiCond105 Using cfiCommon0
          CFI (cfiCond105) Function touchLink_DecryptNwkKey
          CFI (cfiCond105) Conditional ??CrossCallReturnLabel_94
          CFI (cfiCond105) R6 load(1, XDATA, add(CFA_XSP16, literal(-11)))
          CFI (cfiCond105) VB load(1, XDATA, add(CFA_XSP16, literal(-10)))
          CFI (cfiCond105) V0 load(1, XDATA, add(CFA_XSP16, literal(-9)))
          CFI (cfiCond105) V1 load(1, XDATA, add(CFA_XSP16, literal(-8)))
          CFI (cfiCond105) V2 load(1, XDATA, add(CFA_XSP16, literal(-7)))
          CFI (cfiCond105) R7 load(1, XDATA, add(CFA_XSP16, literal(-6)))
          CFI (cfiCond105) ?RET_LOW load(1, XDATA, add(CFA_XSP16, literal(-5)))
          CFI (cfiCond105) ?RET_HIGH load(1, XDATA, add(CFA_XSP16, literal(-4)))
          CFI (cfiCond105) ?BRET_EXT load(1, XDATA, add(CFA_XSP16, literal(-3)))
          CFI (cfiCond105) DPL0 load(1, XDATA, add(CFA_XSP16, literal(-2)))
          CFI (cfiCond105) DPH0 load(1, XDATA, add(CFA_XSP16, literal(-1)))
          CFI (cfiCond105) CFA_SP SP+-2
          CFI (cfiCond105) CFA_XSP16 add(XSP16, 62)
          CFI Block cfiCond106 Using cfiCommon0
          CFI (cfiCond106) Function touchLink_EncryptNwkKey
          CFI (cfiCond106) Conditional ??CrossCallReturnLabel_91
          CFI (cfiCond106) R6 load(1, XDATA, add(CFA_XSP16, literal(-12)))
          CFI (cfiCond106) VB load(1, XDATA, add(CFA_XSP16, literal(-11)))
          CFI (cfiCond106) V0 load(1, XDATA, add(CFA_XSP16, literal(-10)))
          CFI (cfiCond106) V1 load(1, XDATA, add(CFA_XSP16, literal(-9)))
          CFI (cfiCond106) V2 load(1, XDATA, add(CFA_XSP16, literal(-8)))
          CFI (cfiCond106) V3 load(1, XDATA, add(CFA_XSP16, literal(-7)))
          CFI (cfiCond106) R7 load(1, XDATA, add(CFA_XSP16, literal(-6)))
          CFI (cfiCond106) ?RET_LOW load(1, XDATA, add(CFA_XSP16, literal(-5)))
          CFI (cfiCond106) ?RET_HIGH load(1, XDATA, add(CFA_XSP16, literal(-4)))
          CFI (cfiCond106) ?BRET_EXT load(1, XDATA, add(CFA_XSP16, literal(-3)))
          CFI (cfiCond106) DPL0 load(1, XDATA, add(CFA_XSP16, literal(-2)))
          CFI (cfiCond106) DPH0 load(1, XDATA, add(CFA_XSP16, literal(-1)))
          CFI (cfiCond106) CFA_SP SP+-2
          CFI (cfiCond106) CFA_XSP16 add(XSP16, 84)
          CFI Block cfiCond107 Using cfiCommon0
          CFI (cfiCond107) Function touchLink_DevRejoin
          CFI (cfiCond107) Conditional ??CrossCallReturnLabel_92
          CFI (cfiCond107) R6 load(1, XDATA, add(CFA_XSP16, literal(-15)))
          CFI (cfiCond107) VB load(1, XDATA, add(CFA_XSP16, literal(-14)))
          CFI (cfiCond107) V0 load(1, XDATA, add(CFA_XSP16, literal(-13)))
          CFI (cfiCond107) V1 load(1, XDATA, add(CFA_XSP16, literal(-12)))
          CFI (cfiCond107) V2 load(1, XDATA, add(CFA_XSP16, literal(-11)))
          CFI (cfiCond107) V3 load(1, XDATA, add(CFA_XSP16, literal(-10)))
          CFI (cfiCond107) V4 load(1, XDATA, add(CFA_XSP16, literal(-9)))
          CFI (cfiCond107) V5 load(1, XDATA, add(CFA_XSP16, literal(-8)))
          CFI (cfiCond107) V6 load(1, XDATA, add(CFA_XSP16, literal(-7)))
          CFI (cfiCond107) R7 load(1, XDATA, add(CFA_XSP16, literal(-6)))
          CFI (cfiCond107) ?RET_LOW load(1, XDATA, add(CFA_XSP16, literal(-5)))
          CFI (cfiCond107) ?RET_HIGH load(1, XDATA, add(CFA_XSP16, literal(-4)))
          CFI (cfiCond107) ?BRET_EXT load(1, XDATA, add(CFA_XSP16, literal(-3)))
          CFI (cfiCond107) DPL0 load(1, XDATA, add(CFA_XSP16, literal(-2)))
          CFI (cfiCond107) DPH0 load(1, XDATA, add(CFA_XSP16, literal(-1)))
          CFI (cfiCond107) CFA_SP SP+-2
          CFI (cfiCond107) CFA_XSP16 add(XSP16, 18)
          CFI Block cfiPicker108 Using cfiCommon1
          CFI (cfiPicker108) NoFunction
          CFI (cfiPicker108) Picker
        LCALL     `??osal_memcpy::?relay`; Banked call to: osal_memcpy
        MOV       A,#0x3
        RET
          CFI EndBlock cfiCond104
          CFI EndBlock cfiCond105
          CFI EndBlock cfiCond106
          CFI EndBlock cfiCond107
          CFI EndBlock cfiPicker108
//  596 
//  597 /*********************************************************************
//  598  * @fn      touchLink_BuildAesKey
//  599  *
//  600  * @brief   Build an AES key using Transaction ID and Response ID.
//  601  *
//  602  * @param   pAesKey - pointer to AES to be built
//  603  * @param   transID - transaction id
//  604  * @param   responseID - response id
//  605  *
//  606  * @return  none
//  607  */

        RSEG BANKED_CODE:HUGECODE:NOROOT(0)
//  608 static void touchLink_BuildAesKey( uint8 *pAesKey, uint32 transID, uint32 responseID, uint8 keyIndex )
touchLink_BuildAesKey:
          CFI Block cfiBlock109 Using cfiCommon0
          CFI Function touchLink_BuildAesKey
        CODE
//  609 {
        REQUIRE ?V0
        REQUIRE ?V1
        REQUIRE ?V2
        REQUIRE ?V3
        REQUIRE ?V4
        REQUIRE ?V5
        REQUIRE ?V6
        REQUIRE ?V7
        REQUIRE ?V8
        REQUIRE ?V9
        REQUIRE ?V10
        REQUIRE ?V11
        REQUIRE ?V12
        MOV       A,#-0x15
        LCALL     ?BANKED_ENTER_XDATA
          CFI DPH0 load(1, XDATA, add(CFA_XSP16, literal(-1)))
          CFI DPL0 load(1, XDATA, add(CFA_XSP16, literal(-2)))
          CFI ?BRET_EXT load(1, XDATA, add(CFA_XSP16, literal(-3)))
          CFI ?RET_HIGH load(1, XDATA, add(CFA_XSP16, literal(-4)))
          CFI ?RET_LOW load(1, XDATA, add(CFA_XSP16, literal(-5)))
          CFI R7 load(1, XDATA, add(CFA_XSP16, literal(-6)))
          CFI V12 load(1, XDATA, add(CFA_XSP16, literal(-7)))
          CFI V11 load(1, XDATA, add(CFA_XSP16, literal(-8)))
          CFI V10 load(1, XDATA, add(CFA_XSP16, literal(-9)))
          CFI V9 load(1, XDATA, add(CFA_XSP16, literal(-10)))
          CFI V8 load(1, XDATA, add(CFA_XSP16, literal(-11)))
          CFI V7 load(1, XDATA, add(CFA_XSP16, literal(-12)))
          CFI V6 load(1, XDATA, add(CFA_XSP16, literal(-13)))
          CFI V5 load(1, XDATA, add(CFA_XSP16, literal(-14)))
          CFI V4 load(1, XDATA, add(CFA_XSP16, literal(-15)))
          CFI V3 load(1, XDATA, add(CFA_XSP16, literal(-16)))
          CFI V2 load(1, XDATA, add(CFA_XSP16, literal(-17)))
          CFI V1 load(1, XDATA, add(CFA_XSP16, literal(-18)))
          CFI V0 load(1, XDATA, add(CFA_XSP16, literal(-19)))
          CFI VB load(1, XDATA, add(CFA_XSP16, literal(-20)))
          CFI R6 load(1, XDATA, add(CFA_XSP16, literal(-21)))
          CFI CFA_SP SP+0
          CFI CFA_XSP16 add(XSP16, 21)
        ; Saved register size: 21
        ; Auto size: 0
        MOV       ?V12,R1
        MOV       A,#0x19
        LCALL     ?XSTACK_DISP0_8
        MOV       R0,#?V0
        LCALL     ?L_MOV_X
//  610 
//  611   if ( ( keyIndex == TOUCHLINK_KEY_INDEX_MASTER ) || ( keyIndex == TOUCHLINK_KEY_INDEX_CERT ) )
        MOV       A,?V1
        MOV       R7,A
        MOV       A,#0x15
        LCALL     ?XSTACK_DISP0_8
        MOV       R0,#?V4
        LCALL     ?L_MOV_X
        MOV       A,?V5
        MOV       R5,A
        MOV       ?V8,?V0
        MOV       ?V9,R7
        MOV       ?V10,?V2
        MOV       ?V11,?V3
        MOV       A,#0x10
        MOV       R0,#?V8
        LCALL     ?UL_SHR
        MOV       A,?V8
        MOV       R6,A
        MOV       ?V8,?V0
        MOV       ?V9,R7
        MOV       ?V10,A
        MOV       ?V11,?V3
        MOV       A,#0x18
        MOV       R0,#?V8
        LCALL     ?UL_SHR
        MOV       A,?V8
        MOV       R4,A
        MOV       ?V8,?V4
        MOV       ?V9,R5
        MOV       ?V10,?V6
        MOV       ?V11,?V7
        MOV       A,#0x10
        MOV       R0,#?V8
        LCALL     ?UL_SHR
        MOV       A,?V8
        MOV       R1,A
        MOV       ?V8,?V4
        MOV       ?V9,R5
        MOV       ?V10,A
        MOV       ?V11,?V7
        MOV       A,#0x18
        MOV       R0,#?V8
        LCALL     ?UL_SHR
        MOV       A,?V8
        MOV       R0,A
        MOV       A,#0x4
        XRL       A,?V12
        JZ        ??touchLink_BuildAesKey_0
        MOV       A,#0xf
        XRL       A,?V12
        JNZ       ??touchLink_BuildAesKey_1
//  612   {
//  613     // Copy transaction identifier to 1st byte
//  614     pAesKey[0] = BREAK_UINT32( transID, 3 );
??touchLink_BuildAesKey_0:
        MOV       A,R0
        MOV       DPL,R2
        MOV       DPH,R3
        MOVX      @DPTR,A
//  615     pAesKey[1] = BREAK_UINT32( transID, 2 );
        MOV       A,R1
        LCALL     ?Subroutine18 & 0xFFFF
//  616     pAesKey[2] = BREAK_UINT32( transID, 1 );
??CrossCallReturnLabel_23:
        MOVX      @DPTR,A
//  617     pAesKey[3] = BREAK_UINT32( transID, 0 );
        MOV       ?V8,?V4
        MOV       DPL,R2
        MOV       DPH,R3
        INC       DPTR
        INC       DPTR
        INC       DPTR
        MOV       A,?V8
        MOVX      @DPTR,A
//  618 
//  619     // Copy response identifier 3rd bute
//  620     pAesKey[8] = BREAK_UINT32( responseID, 3 );
        MOV       A,R4
        MOV       DPL,R2
        MOV       DPH,R3
        INC       DPTR
        INC       DPTR
        INC       DPTR
        INC       DPTR
        INC       DPTR
        INC       DPTR
        INC       DPTR
        INC       DPTR
        MOVX      @DPTR,A
//  621     pAesKey[9] = BREAK_UINT32( responseID, 2 );
        MOV       A,R6
        MOV       DPL,R2
        MOV       DPH,R3
        INC       DPTR
        INC       DPTR
        INC       DPTR
        INC       DPTR
        INC       DPTR
        INC       DPTR
        INC       DPTR
        INC       DPTR
        INC       DPTR
        MOVX      @DPTR,A
//  622     pAesKey[10] = BREAK_UINT32( responseID, 1 );
        MOV       A,R7
        MOV       DPL,R2
        MOV       DPH,R3
        INC       DPTR
        INC       DPTR
        INC       DPTR
        INC       DPTR
        INC       DPTR
        INC       DPTR
        INC       DPTR
        INC       DPTR
        INC       DPTR
        INC       DPTR
        MOVX      @DPTR,A
//  623     pAesKey[11] = BREAK_UINT32( responseID, 0 );
        MOV       ?V8,?V0
        MOV       A,R2
        ADD       A,#0xb
        MOV       DPL,A
        CLR       A
        ADDC      A,R3
        MOV       DPH,A
        MOV       A,?V8
        MOVX      @DPTR,A
//  624   }
//  625 
//  626   // Copy in the transaction identifier
//  627   pAesKey[4] = BREAK_UINT32( transID, 3 );
??touchLink_BuildAesKey_1:
        MOV       A,R0
        MOV       DPL,R2
        MOV       DPH,R3
        INC       DPTR
        INC       DPTR
        INC       DPTR
        INC       DPTR
        MOVX      @DPTR,A
//  628   pAesKey[5] = BREAK_UINT32( transID, 2 );
        MOV       A,R1
        MOV       DPL,R2
        MOV       DPH,R3
        INC       DPTR
        INC       DPTR
        INC       DPTR
        INC       DPTR
        LCALL     ?Subroutine18 & 0xFFFF
//  629   pAesKey[6] = BREAK_UINT32( transID, 1 );
??CrossCallReturnLabel_24:
        INC       DPTR
        INC       DPTR
        INC       DPTR
        LCALL     ??Subroutine48_0 & 0xFFFF
//  630   pAesKey[7] = BREAK_UINT32( transID, 0 );
??CrossCallReturnLabel_95:
        INC       DPTR
        INC       DPTR
        INC       DPTR
        INC       DPTR
        INC       DPTR
        INC       DPTR
        INC       DPTR
        MOV       A,?V4
        MOVX      @DPTR,A
//  631 
//  632   // Copy in the response identifier
//  633   pAesKey[12] = BREAK_UINT32( responseID, 3 );
        MOV       A,R2
        ADD       A,#0xc
        MOV       DPL,A
        CLR       A
        ADDC      A,R3
        MOV       DPH,A
        MOV       A,R4
        MOVX      @DPTR,A
//  634   pAesKey[13] = BREAK_UINT32( responseID, 2 );
        MOV       A,R2
        ADD       A,#0xd
        MOV       DPL,A
        CLR       A
        ADDC      A,R3
        MOV       DPH,A
        MOV       A,R6
        MOVX      @DPTR,A
//  635   pAesKey[14] = BREAK_UINT32( responseID, 1 );
        MOV       A,R2
        ADD       A,#0xe
        MOV       DPL,A
        CLR       A
        ADDC      A,R3
        MOV       DPH,A
        MOV       A,R7
        MOVX      @DPTR,A
//  636   pAesKey[15] = BREAK_UINT32( responseID, 0 );
        MOV       A,R2
        ADD       A,#0xf
        MOV       DPL,A
        CLR       A
        ADDC      A,R3
        MOV       DPH,A
        MOV       A,?V0
        MOVX      @DPTR,A
//  637 }
        MOV       R7,#0xd
        LJMP      ?BANKED_LEAVE_XDATA
          CFI EndBlock cfiBlock109

        RSEG BANKED_CODE:HUGECODE:NOROOT(0)
?Subroutine18:
          CFI Block cfiCond110 Using cfiCommon0
          CFI Function touchLink_BuildAesKey
          CFI Conditional ??CrossCallReturnLabel_23
          CFI R6 load(1, XDATA, add(CFA_XSP16, literal(-21)))
          CFI VB load(1, XDATA, add(CFA_XSP16, literal(-20)))
          CFI V0 load(1, XDATA, add(CFA_XSP16, literal(-19)))
          CFI V1 load(1, XDATA, add(CFA_XSP16, literal(-18)))
          CFI V2 load(1, XDATA, add(CFA_XSP16, literal(-17)))
          CFI V3 load(1, XDATA, add(CFA_XSP16, literal(-16)))
          CFI V4 load(1, XDATA, add(CFA_XSP16, literal(-15)))
          CFI V5 load(1, XDATA, add(CFA_XSP16, literal(-14)))
          CFI V6 load(1, XDATA, add(CFA_XSP16, literal(-13)))
          CFI V7 load(1, XDATA, add(CFA_XSP16, literal(-12)))
          CFI V8 load(1, XDATA, add(CFA_XSP16, literal(-11)))
          CFI V9 load(1, XDATA, add(CFA_XSP16, literal(-10)))
          CFI V10 load(1, XDATA, add(CFA_XSP16, literal(-9)))
          CFI V11 load(1, XDATA, add(CFA_XSP16, literal(-8)))
          CFI V12 load(1, XDATA, add(CFA_XSP16, literal(-7)))
          CFI R7 load(1, XDATA, add(CFA_XSP16, literal(-6)))
          CFI ?RET_LOW load(1, XDATA, add(CFA_XSP16, literal(-5)))
          CFI ?RET_HIGH load(1, XDATA, add(CFA_XSP16, literal(-4)))
          CFI ?BRET_EXT load(1, XDATA, add(CFA_XSP16, literal(-3)))
          CFI DPL0 load(1, XDATA, add(CFA_XSP16, literal(-2)))
          CFI DPH0 load(1, XDATA, add(CFA_XSP16, literal(-1)))
          CFI CFA_SP SP+-2
          CFI CFA_XSP16 add(XSP16, 21)
          CFI Block cfiCond111 Using cfiCommon0
          CFI (cfiCond111) Function touchLink_BuildAesKey
          CFI (cfiCond111) Conditional ??CrossCallReturnLabel_24
          CFI (cfiCond111) R6 load(1, XDATA, add(CFA_XSP16, literal(-21)))
          CFI (cfiCond111) VB load(1, XDATA, add(CFA_XSP16, literal(-20)))
          CFI (cfiCond111) V0 load(1, XDATA, add(CFA_XSP16, literal(-19)))
          CFI (cfiCond111) V1 load(1, XDATA, add(CFA_XSP16, literal(-18)))
          CFI (cfiCond111) V2 load(1, XDATA, add(CFA_XSP16, literal(-17)))
          CFI (cfiCond111) V3 load(1, XDATA, add(CFA_XSP16, literal(-16)))
          CFI (cfiCond111) V4 load(1, XDATA, add(CFA_XSP16, literal(-15)))
          CFI (cfiCond111) V5 load(1, XDATA, add(CFA_XSP16, literal(-14)))
          CFI (cfiCond111) V6 load(1, XDATA, add(CFA_XSP16, literal(-13)))
          CFI (cfiCond111) V7 load(1, XDATA, add(CFA_XSP16, literal(-12)))
          CFI (cfiCond111) V8 load(1, XDATA, add(CFA_XSP16, literal(-11)))
          CFI (cfiCond111) V9 load(1, XDATA, add(CFA_XSP16, literal(-10)))
          CFI (cfiCond111) V10 load(1, XDATA, add(CFA_XSP16, literal(-9)))
          CFI (cfiCond111) V11 load(1, XDATA, add(CFA_XSP16, literal(-8)))
          CFI (cfiCond111) V12 load(1, XDATA, add(CFA_XSP16, literal(-7)))
          CFI (cfiCond111) R7 load(1, XDATA, add(CFA_XSP16, literal(-6)))
          CFI (cfiCond111) ?RET_LOW load(1, XDATA, add(CFA_XSP16, literal(-5)))
          CFI (cfiCond111) ?RET_HIGH load(1, XDATA, add(CFA_XSP16, literal(-4)))
          CFI (cfiCond111) ?BRET_EXT load(1, XDATA, add(CFA_XSP16, literal(-3)))
          CFI (cfiCond111) DPL0 load(1, XDATA, add(CFA_XSP16, literal(-2)))
          CFI (cfiCond111) DPH0 load(1, XDATA, add(CFA_XSP16, literal(-1)))
          CFI (cfiCond111) CFA_SP SP+-2
          CFI (cfiCond111) CFA_XSP16 add(XSP16, 21)
          CFI Block cfiPicker112 Using cfiCommon1
          CFI (cfiPicker112) NoFunction
          CFI (cfiPicker112) Picker
        INC       DPTR
        MOVX      @DPTR,A
        MOV       A,R5
        MOV       DPL,R2
        MOV       DPH,R3
        INC       DPTR
        INC       DPTR
        RET
          CFI EndBlock cfiCond110
          CFI EndBlock cfiCond111
          CFI EndBlock cfiPicker112

        RSEG BANKED_CODE:HUGECODE:NOROOT(0)
?Subroutine11:
          CFI Block cfiCond113 Using cfiCommon0
          CFI Function touchLink_SplitFreeRanges
          CFI Conditional ??CrossCallReturnLabel_98
          CFI R6 load(1, XDATA, add(CFA_XSP16, literal(-18)))
          CFI VB load(1, XDATA, add(CFA_XSP16, literal(-17)))
          CFI V0 load(1, XDATA, add(CFA_XSP16, literal(-16)))
          CFI V1 load(1, XDATA, add(CFA_XSP16, literal(-15)))
          CFI V2 load(1, XDATA, add(CFA_XSP16, literal(-14)))
          CFI V3 load(1, XDATA, add(CFA_XSP16, literal(-13)))
          CFI V4 load(1, XDATA, add(CFA_XSP16, literal(-12)))
          CFI V5 load(1, XDATA, add(CFA_XSP16, literal(-11)))
          CFI V6 load(1, XDATA, add(CFA_XSP16, literal(-10)))
          CFI V7 load(1, XDATA, add(CFA_XSP16, literal(-9)))
          CFI V8 load(1, XDATA, add(CFA_XSP16, literal(-8)))
          CFI V9 load(1, XDATA, add(CFA_XSP16, literal(-7)))
          CFI R7 load(1, XDATA, add(CFA_XSP16, literal(-6)))
          CFI ?RET_LOW load(1, XDATA, add(CFA_XSP16, literal(-5)))
          CFI ?RET_HIGH load(1, XDATA, add(CFA_XSP16, literal(-4)))
          CFI ?BRET_EXT load(1, XDATA, add(CFA_XSP16, literal(-3)))
          CFI DPL0 load(1, XDATA, add(CFA_XSP16, literal(-2)))
          CFI DPH0 load(1, XDATA, add(CFA_XSP16, literal(-1)))
          CFI CFA_SP SP+-2
          CFI CFA_XSP16 add(XSP16, 18)
          CFI Block cfiCond114 Using cfiCommon0
          CFI (cfiCond114) Function touchLink_PopGrpIDRange
          CFI (cfiCond114) Conditional ??CrossCallReturnLabel_99
          CFI (cfiCond114) R6 load(1, XDATA, add(CFA_XSP16, literal(-10)))
          CFI (cfiCond114) VB load(1, XDATA, add(CFA_XSP16, literal(-9)))
          CFI (cfiCond114) V0 load(1, XDATA, add(CFA_XSP16, literal(-8)))
          CFI (cfiCond114) V1 load(1, XDATA, add(CFA_XSP16, literal(-7)))
          CFI (cfiCond114) R7 load(1, XDATA, add(CFA_XSP16, literal(-6)))
          CFI (cfiCond114) ?RET_LOW load(1, XDATA, add(CFA_XSP16, literal(-5)))
          CFI (cfiCond114) ?RET_HIGH load(1, XDATA, add(CFA_XSP16, literal(-4)))
          CFI (cfiCond114) ?BRET_EXT load(1, XDATA, add(CFA_XSP16, literal(-3)))
          CFI (cfiCond114) DPL0 load(1, XDATA, add(CFA_XSP16, literal(-2)))
          CFI (cfiCond114) DPH0 load(1, XDATA, add(CFA_XSP16, literal(-1)))
          CFI (cfiCond114) CFA_SP SP+-2
          CFI (cfiCond114) CFA_XSP16 add(XSP16, 10)
          CFI Block cfiPicker115 Using cfiCommon1
          CFI (cfiPicker115) NoFunction
          CFI (cfiPicker115) Picker
        CLR       A
        MOVX      @DPTR,A
          CFI EndBlock cfiCond113
          CFI EndBlock cfiCond114
          CFI EndBlock cfiPicker115
        REQUIRE ??Subroutine48_0
        ; // Fall through to label ??Subroutine48_0

        RSEG BANKED_CODE:HUGECODE:NOROOT(0)
??Subroutine48_0:
          CFI Block cfiCond116 Using cfiCommon0
          CFI Function touchLink_BuildAesKey
          CFI Conditional ??CrossCallReturnLabel_95
          CFI R6 load(1, XDATA, add(CFA_XSP16, literal(-21)))
          CFI VB load(1, XDATA, add(CFA_XSP16, literal(-20)))
          CFI V0 load(1, XDATA, add(CFA_XSP16, literal(-19)))
          CFI V1 load(1, XDATA, add(CFA_XSP16, literal(-18)))
          CFI V2 load(1, XDATA, add(CFA_XSP16, literal(-17)))
          CFI V3 load(1, XDATA, add(CFA_XSP16, literal(-16)))
          CFI V4 load(1, XDATA, add(CFA_XSP16, literal(-15)))
          CFI V5 load(1, XDATA, add(CFA_XSP16, literal(-14)))
          CFI V6 load(1, XDATA, add(CFA_XSP16, literal(-13)))
          CFI V7 load(1, XDATA, add(CFA_XSP16, literal(-12)))
          CFI V8 load(1, XDATA, add(CFA_XSP16, literal(-11)))
          CFI V9 load(1, XDATA, add(CFA_XSP16, literal(-10)))
          CFI V10 load(1, XDATA, add(CFA_XSP16, literal(-9)))
          CFI V11 load(1, XDATA, add(CFA_XSP16, literal(-8)))
          CFI V12 load(1, XDATA, add(CFA_XSP16, literal(-7)))
          CFI R7 load(1, XDATA, add(CFA_XSP16, literal(-6)))
          CFI ?RET_LOW load(1, XDATA, add(CFA_XSP16, literal(-5)))
          CFI ?RET_HIGH load(1, XDATA, add(CFA_XSP16, literal(-4)))
          CFI ?BRET_EXT load(1, XDATA, add(CFA_XSP16, literal(-3)))
          CFI DPL0 load(1, XDATA, add(CFA_XSP16, literal(-2)))
          CFI DPH0 load(1, XDATA, add(CFA_XSP16, literal(-1)))
          CFI CFA_SP SP+-2
          CFI CFA_XSP16 add(XSP16, 21)
          CFI Block cfiCond117 Using cfiCommon0
          CFI (cfiCond117) Function touchLink_SplitFreeRanges
          CFI (cfiCond117) Conditional ??CrossCallReturnLabel_98
          CFI (cfiCond117) R6 load(1, XDATA, add(CFA_XSP16, literal(-18)))
          CFI (cfiCond117) VB load(1, XDATA, add(CFA_XSP16, literal(-17)))
          CFI (cfiCond117) V0 load(1, XDATA, add(CFA_XSP16, literal(-16)))
          CFI (cfiCond117) V1 load(1, XDATA, add(CFA_XSP16, literal(-15)))
          CFI (cfiCond117) V2 load(1, XDATA, add(CFA_XSP16, literal(-14)))
          CFI (cfiCond117) V3 load(1, XDATA, add(CFA_XSP16, literal(-13)))
          CFI (cfiCond117) V4 load(1, XDATA, add(CFA_XSP16, literal(-12)))
          CFI (cfiCond117) V5 load(1, XDATA, add(CFA_XSP16, literal(-11)))
          CFI (cfiCond117) V6 load(1, XDATA, add(CFA_XSP16, literal(-10)))
          CFI (cfiCond117) V7 load(1, XDATA, add(CFA_XSP16, literal(-9)))
          CFI (cfiCond117) V8 load(1, XDATA, add(CFA_XSP16, literal(-8)))
          CFI (cfiCond117) V9 load(1, XDATA, add(CFA_XSP16, literal(-7)))
          CFI (cfiCond117) R7 load(1, XDATA, add(CFA_XSP16, literal(-6)))
          CFI (cfiCond117) ?RET_LOW load(1, XDATA, add(CFA_XSP16, literal(-5)))
          CFI (cfiCond117) ?RET_HIGH load(1, XDATA, add(CFA_XSP16, literal(-4)))
          CFI (cfiCond117) ?BRET_EXT load(1, XDATA, add(CFA_XSP16, literal(-3)))
          CFI (cfiCond117) DPL0 load(1, XDATA, add(CFA_XSP16, literal(-2)))
          CFI (cfiCond117) DPH0 load(1, XDATA, add(CFA_XSP16, literal(-1)))
          CFI (cfiCond117) CFA_SP SP+-2
          CFI (cfiCond117) CFA_XSP16 add(XSP16, 18)
          CFI Block cfiCond118 Using cfiCommon0
          CFI (cfiCond118) Function touchLink_PopGrpIDRange
          CFI (cfiCond118) Conditional ??CrossCallReturnLabel_99
          CFI (cfiCond118) R6 load(1, XDATA, add(CFA_XSP16, literal(-10)))
          CFI (cfiCond118) VB load(1, XDATA, add(CFA_XSP16, literal(-9)))
          CFI (cfiCond118) V0 load(1, XDATA, add(CFA_XSP16, literal(-8)))
          CFI (cfiCond118) V1 load(1, XDATA, add(CFA_XSP16, literal(-7)))
          CFI (cfiCond118) R7 load(1, XDATA, add(CFA_XSP16, literal(-6)))
          CFI (cfiCond118) ?RET_LOW load(1, XDATA, add(CFA_XSP16, literal(-5)))
          CFI (cfiCond118) ?RET_HIGH load(1, XDATA, add(CFA_XSP16, literal(-4)))
          CFI (cfiCond118) ?BRET_EXT load(1, XDATA, add(CFA_XSP16, literal(-3)))
          CFI (cfiCond118) DPL0 load(1, XDATA, add(CFA_XSP16, literal(-2)))
          CFI (cfiCond118) DPH0 load(1, XDATA, add(CFA_XSP16, literal(-1)))
          CFI (cfiCond118) CFA_SP SP+-2
          CFI (cfiCond118) CFA_XSP16 add(XSP16, 10)
          CFI Block cfiPicker119 Using cfiCommon1
          CFI (cfiPicker119) NoFunction
          CFI (cfiPicker119) Picker
        INC       DPTR
          CFI EndBlock cfiCond116
          CFI EndBlock cfiCond117
          CFI EndBlock cfiCond118
          CFI EndBlock cfiPicker119
        REQUIRE ??Subroutine49_0
        ; // Fall through to label ??Subroutine49_0

        RSEG BANKED_CODE:HUGECODE:NOROOT(0)
??Subroutine49_0:
          CFI Block cfiCond120 Using cfiCommon0
          CFI Function touchLink_SplitFreeRanges
          CFI Conditional ??CrossCallReturnLabel_96
          CFI R6 load(1, XDATA, add(CFA_XSP16, literal(-18)))
          CFI VB load(1, XDATA, add(CFA_XSP16, literal(-17)))
          CFI V0 load(1, XDATA, add(CFA_XSP16, literal(-16)))
          CFI V1 load(1, XDATA, add(CFA_XSP16, literal(-15)))
          CFI V2 load(1, XDATA, add(CFA_XSP16, literal(-14)))
          CFI V3 load(1, XDATA, add(CFA_XSP16, literal(-13)))
          CFI V4 load(1, XDATA, add(CFA_XSP16, literal(-12)))
          CFI V5 load(1, XDATA, add(CFA_XSP16, literal(-11)))
          CFI V6 load(1, XDATA, add(CFA_XSP16, literal(-10)))
          CFI V7 load(1, XDATA, add(CFA_XSP16, literal(-9)))
          CFI V8 load(1, XDATA, add(CFA_XSP16, literal(-8)))
          CFI V9 load(1, XDATA, add(CFA_XSP16, literal(-7)))
          CFI R7 load(1, XDATA, add(CFA_XSP16, literal(-6)))
          CFI ?RET_LOW load(1, XDATA, add(CFA_XSP16, literal(-5)))
          CFI ?RET_HIGH load(1, XDATA, add(CFA_XSP16, literal(-4)))
          CFI ?BRET_EXT load(1, XDATA, add(CFA_XSP16, literal(-3)))
          CFI DPL0 load(1, XDATA, add(CFA_XSP16, literal(-2)))
          CFI DPH0 load(1, XDATA, add(CFA_XSP16, literal(-1)))
          CFI CFA_SP SP+-2
          CFI CFA_XSP16 add(XSP16, 18)
          CFI Block cfiCond121 Using cfiCommon0
          CFI (cfiCond121) Function touchLink_RouterProcessZDOMsg
          CFI (cfiCond121) Conditional ??CrossCallReturnLabel_97
          CFI (cfiCond121) R6 load(1, XDATA, add(CFA_XSP16, literal(-10)))
          CFI (cfiCond121) VB load(1, XDATA, add(CFA_XSP16, literal(-9)))
          CFI (cfiCond121) V0 load(1, XDATA, add(CFA_XSP16, literal(-8)))
          CFI (cfiCond121) V1 load(1, XDATA, add(CFA_XSP16, literal(-7)))
          CFI (cfiCond121) R7 load(1, XDATA, add(CFA_XSP16, literal(-6)))
          CFI (cfiCond121) ?RET_LOW load(1, XDATA, add(CFA_XSP16, literal(-5)))
          CFI (cfiCond121) ?RET_HIGH load(1, XDATA, add(CFA_XSP16, literal(-4)))
          CFI (cfiCond121) ?BRET_EXT load(1, XDATA, add(CFA_XSP16, literal(-3)))
          CFI (cfiCond121) DPL0 load(1, XDATA, add(CFA_XSP16, literal(-2)))
          CFI (cfiCond121) DPH0 load(1, XDATA, add(CFA_XSP16, literal(-1)))
          CFI (cfiCond121) CFA_SP SP+-2
          CFI (cfiCond121) CFA_XSP16 add(XSP16, 22)
          CFI Block cfiCond122 Using cfiCommon0
          CFI (cfiCond122) Function touchLink_BuildAesKey
          CFI (cfiCond122) Conditional ??CrossCallReturnLabel_95
          CFI (cfiCond122) R6 load(1, XDATA, add(CFA_XSP16, literal(-21)))
          CFI (cfiCond122) VB load(1, XDATA, add(CFA_XSP16, literal(-20)))
          CFI (cfiCond122) V0 load(1, XDATA, add(CFA_XSP16, literal(-19)))
          CFI (cfiCond122) V1 load(1, XDATA, add(CFA_XSP16, literal(-18)))
          CFI (cfiCond122) V2 load(1, XDATA, add(CFA_XSP16, literal(-17)))
          CFI (cfiCond122) V3 load(1, XDATA, add(CFA_XSP16, literal(-16)))
          CFI (cfiCond122) V4 load(1, XDATA, add(CFA_XSP16, literal(-15)))
          CFI (cfiCond122) V5 load(1, XDATA, add(CFA_XSP16, literal(-14)))
          CFI (cfiCond122) V6 load(1, XDATA, add(CFA_XSP16, literal(-13)))
          CFI (cfiCond122) V7 load(1, XDATA, add(CFA_XSP16, literal(-12)))
          CFI (cfiCond122) V8 load(1, XDATA, add(CFA_XSP16, literal(-11)))
          CFI (cfiCond122) V9 load(1, XDATA, add(CFA_XSP16, literal(-10)))
          CFI (cfiCond122) V10 load(1, XDATA, add(CFA_XSP16, literal(-9)))
          CFI (cfiCond122) V11 load(1, XDATA, add(CFA_XSP16, literal(-8)))
          CFI (cfiCond122) V12 load(1, XDATA, add(CFA_XSP16, literal(-7)))
          CFI (cfiCond122) R7 load(1, XDATA, add(CFA_XSP16, literal(-6)))
          CFI (cfiCond122) ?RET_LOW load(1, XDATA, add(CFA_XSP16, literal(-5)))
          CFI (cfiCond122) ?RET_HIGH load(1, XDATA, add(CFA_XSP16, literal(-4)))
          CFI (cfiCond122) ?BRET_EXT load(1, XDATA, add(CFA_XSP16, literal(-3)))
          CFI (cfiCond122) DPL0 load(1, XDATA, add(CFA_XSP16, literal(-2)))
          CFI (cfiCond122) DPH0 load(1, XDATA, add(CFA_XSP16, literal(-1)))
          CFI (cfiCond122) CFA_SP SP+-2
          CFI (cfiCond122) CFA_XSP16 add(XSP16, 21)
          CFI Block cfiCond123 Using cfiCommon0
          CFI (cfiCond123) Function touchLink_SplitFreeRanges
          CFI (cfiCond123) Conditional ??CrossCallReturnLabel_98
          CFI (cfiCond123) R6 load(1, XDATA, add(CFA_XSP16, literal(-18)))
          CFI (cfiCond123) VB load(1, XDATA, add(CFA_XSP16, literal(-17)))
          CFI (cfiCond123) V0 load(1, XDATA, add(CFA_XSP16, literal(-16)))
          CFI (cfiCond123) V1 load(1, XDATA, add(CFA_XSP16, literal(-15)))
          CFI (cfiCond123) V2 load(1, XDATA, add(CFA_XSP16, literal(-14)))
          CFI (cfiCond123) V3 load(1, XDATA, add(CFA_XSP16, literal(-13)))
          CFI (cfiCond123) V4 load(1, XDATA, add(CFA_XSP16, literal(-12)))
          CFI (cfiCond123) V5 load(1, XDATA, add(CFA_XSP16, literal(-11)))
          CFI (cfiCond123) V6 load(1, XDATA, add(CFA_XSP16, literal(-10)))
          CFI (cfiCond123) V7 load(1, XDATA, add(CFA_XSP16, literal(-9)))
          CFI (cfiCond123) V8 load(1, XDATA, add(CFA_XSP16, literal(-8)))
          CFI (cfiCond123) V9 load(1, XDATA, add(CFA_XSP16, literal(-7)))
          CFI (cfiCond123) R7 load(1, XDATA, add(CFA_XSP16, literal(-6)))
          CFI (cfiCond123) ?RET_LOW load(1, XDATA, add(CFA_XSP16, literal(-5)))
          CFI (cfiCond123) ?RET_HIGH load(1, XDATA, add(CFA_XSP16, literal(-4)))
          CFI (cfiCond123) ?BRET_EXT load(1, XDATA, add(CFA_XSP16, literal(-3)))
          CFI (cfiCond123) DPL0 load(1, XDATA, add(CFA_XSP16, literal(-2)))
          CFI (cfiCond123) DPH0 load(1, XDATA, add(CFA_XSP16, literal(-1)))
          CFI (cfiCond123) CFA_SP SP+-2
          CFI (cfiCond123) CFA_XSP16 add(XSP16, 18)
          CFI Block cfiCond124 Using cfiCommon0
          CFI (cfiCond124) Function touchLink_PopGrpIDRange
          CFI (cfiCond124) Conditional ??CrossCallReturnLabel_99
          CFI (cfiCond124) R6 load(1, XDATA, add(CFA_XSP16, literal(-10)))
          CFI (cfiCond124) VB load(1, XDATA, add(CFA_XSP16, literal(-9)))
          CFI (cfiCond124) V0 load(1, XDATA, add(CFA_XSP16, literal(-8)))
          CFI (cfiCond124) V1 load(1, XDATA, add(CFA_XSP16, literal(-7)))
          CFI (cfiCond124) R7 load(1, XDATA, add(CFA_XSP16, literal(-6)))
          CFI (cfiCond124) ?RET_LOW load(1, XDATA, add(CFA_XSP16, literal(-5)))
          CFI (cfiCond124) ?RET_HIGH load(1, XDATA, add(CFA_XSP16, literal(-4)))
          CFI (cfiCond124) ?BRET_EXT load(1, XDATA, add(CFA_XSP16, literal(-3)))
          CFI (cfiCond124) DPL0 load(1, XDATA, add(CFA_XSP16, literal(-2)))
          CFI (cfiCond124) DPH0 load(1, XDATA, add(CFA_XSP16, literal(-1)))
          CFI (cfiCond124) CFA_SP SP+-2
          CFI (cfiCond124) CFA_XSP16 add(XSP16, 10)
          CFI Block cfiPicker125 Using cfiCommon1
          CFI (cfiPicker125) NoFunction
          CFI (cfiPicker125) Picker
        MOVX      @DPTR,A
        MOV       DPL,R2
        MOV       DPH,R3
        RET
          CFI EndBlock cfiCond120
          CFI EndBlock cfiCond121
          CFI EndBlock cfiCond122
          CFI EndBlock cfiCond123
          CFI EndBlock cfiCond124
          CFI EndBlock cfiPicker125
//  638 
//  639 /*********************************************************************
//  640  * @fn      touchLink_UpdateNwkKey
//  641  *
//  642  * @brief   Update the network key.
//  643  *
//  644  * @param   pNwkParams - pointer to new network key
//  645  * @param   keyIndex - key index
//  646  *
//  647  * @return  none
//  648  */

        RSEG BANKED_CODE:HUGECODE:NOROOT(0)
//  649 void touchLink_UpdateNwkKey( uint8 *pNwkKey, uint8 keyIndex )
touchLink_UpdateNwkKey:
          CFI Block cfiBlock126 Using cfiCommon0
          CFI Function touchLink_UpdateNwkKey
        CODE
//  650 {
        FUNCALL touchLink_UpdateNwkKey, SSP_UpdateNwkKey
        LOCFRAME ISTACK, 0, STACK
        LOCFRAME PSTACK, 0, STACK
        LOCFRAME XSTACK, 12, STACK
        LOCFRAME IOVERLAY, 0, STATIC
        LOCFRAME DOVERLAY, 0, STATIC
        ARGFRAME ISTACK, 0, STACK
        ARGFRAME PSTACK, 0, STACK
        ARGFRAME XSTACK, 12, STACK
        ARGFRAME IOVERLAY, 0, STATIC
        ARGFRAME DOVERLAY, 0, STATIC
        FUNCALL touchLink_UpdateNwkKey, SSP_SwitchNwkKey
        LOCFRAME ISTACK, 0, STACK
        LOCFRAME PSTACK, 0, STACK
        LOCFRAME XSTACK, 12, STACK
        LOCFRAME IOVERLAY, 0, STATIC
        LOCFRAME DOVERLAY, 0, STATIC
        ARGFRAME ISTACK, 0, STACK
        ARGFRAME PSTACK, 0, STACK
        ARGFRAME XSTACK, 12, STACK
        ARGFRAME IOVERLAY, 0, STATIC
        ARGFRAME DOVERLAY, 0, STATIC
        FUNCALL touchLink_UpdateNwkKey, ZDApp_SaveNwkKey
        LOCFRAME ISTACK, 0, STACK
        LOCFRAME PSTACK, 0, STACK
        LOCFRAME XSTACK, 12, STACK
        LOCFRAME IOVERLAY, 0, STATIC
        LOCFRAME DOVERLAY, 0, STATIC
        ARGFRAME ISTACK, 0, STACK
        ARGFRAME PSTACK, 0, STACK
        ARGFRAME XSTACK, 12, STACK
        ARGFRAME IOVERLAY, 0, STATIC
        ARGFRAME DOVERLAY, 0, STATIC
        REQUIRE ?V0
        REQUIRE ?V1
        REQUIRE ?V2
        REQUIRE ?V3
        MOV       A,#-0xc
        LCALL     ?BANKED_ENTER_XDATA
          CFI DPH0 load(1, XDATA, add(CFA_XSP16, literal(-1)))
          CFI DPL0 load(1, XDATA, add(CFA_XSP16, literal(-2)))
          CFI ?BRET_EXT load(1, XDATA, add(CFA_XSP16, literal(-3)))
          CFI ?RET_HIGH load(1, XDATA, add(CFA_XSP16, literal(-4)))
          CFI ?RET_LOW load(1, XDATA, add(CFA_XSP16, literal(-5)))
          CFI R7 load(1, XDATA, add(CFA_XSP16, literal(-6)))
          CFI V3 load(1, XDATA, add(CFA_XSP16, literal(-7)))
          CFI V2 load(1, XDATA, add(CFA_XSP16, literal(-8)))
          CFI V1 load(1, XDATA, add(CFA_XSP16, literal(-9)))
          CFI V0 load(1, XDATA, add(CFA_XSP16, literal(-10)))
          CFI VB load(1, XDATA, add(CFA_XSP16, literal(-11)))
          CFI R6 load(1, XDATA, add(CFA_XSP16, literal(-12)))
          CFI CFA_SP SP+0
          CFI CFA_XSP16 add(XSP16, 12)
        ; Saved register size: 12
        ; Auto size: 0
//  651   uint32 nwkFrameCounterTmp;
//  652   (void)keyIndex;
//  653 
//  654   // To prevent Framecounter out of sync issues, store the lastkey
//  655   nwkFrameCounterTmp = nwkFrameCounter;  // (Global in SSP).
        MOV       DPTR,#nwkFrameCounter
        MOV       R0,#?V0
        LCALL     ?L_MOV_X
//  656 
//  657   // Update the network key
//  658   SSP_UpdateNwkKey( pNwkKey, 0 );
        ; Setup parameters for call to function SSP_UpdateNwkKey
        MOV       R1,#0x0
        LCALL     `??SSP_UpdateNwkKey::?relay`; Banked call to: SSP_UpdateNwkKey
//  659 
//  660   SSP_SwitchNwkKey( 0 );
        ; Setup parameters for call to function SSP_SwitchNwkKey
        MOV       R1,#0x0
        LCALL     `??SSP_SwitchNwkKey::?relay`; Banked call to: SSP_SwitchNwkKey
//  661 
//  662   nwkFrameCounter  = nwkFrameCounterTmp; // restore
        MOV       DPTR,#nwkFrameCounter
        MOV       R0,#?V0
        LCALL     ?L_MOV_TO_X
//  663 
//  664   // Save off the security
//  665   ZDApp_SaveNwkKey();
        ; Setup parameters for call to function ZDApp_SaveNwkKey
        LCALL     `??ZDApp_SaveNwkKey::?relay`; Banked call to: ZDApp_SaveNwkKey
//  666 }
        SJMP      ??Subroutine50_0
          CFI EndBlock cfiBlock126

        RSEG BANKED_CODE:HUGECODE:NOROOT(0)
?Subroutine4:
          CFI Block cfiBlock127 Using cfiCommon0
          CFI NoFunction
          CFI CFA_SP SP+0
          CFI CFA_XSP16 add(XSP16, 81)
          CFI VB load(1, XDATA, add(CFA_XSP16, literal(-11)))
          CFI DPL0 load(1, XDATA, add(CFA_XSP16, literal(-2)))
          CFI DPH0 load(1, XDATA, add(CFA_XSP16, literal(-1)))
          CFI R6 load(1, XDATA, add(CFA_XSP16, literal(-12)))
          CFI R7 load(1, XDATA, add(CFA_XSP16, literal(-6)))
          CFI V0 load(1, XDATA, add(CFA_XSP16, literal(-10)))
          CFI V1 load(1, XDATA, add(CFA_XSP16, literal(-9)))
          CFI V2 load(1, XDATA, add(CFA_XSP16, literal(-8)))
          CFI V3 load(1, XDATA, add(CFA_XSP16, literal(-7)))
          CFI ?BRET_EXT load(1, XDATA, add(CFA_XSP16, literal(-3)))
          CFI ?RET_HIGH load(1, XDATA, add(CFA_XSP16, literal(-4)))
          CFI ?RET_LOW load(1, XDATA, add(CFA_XSP16, literal(-5)))
          CFI Invalid
        LCALL     ?DEALLOC_XSTACK8
          CFI EndBlock cfiBlock127
        REQUIRE ??Subroutine50_0
        ; // Fall through to label ??Subroutine50_0

        RSEG BANKED_CODE:HUGECODE:NOROOT(0)
??Subroutine50_0:
          CFI Block cfiBlock128 Using cfiCommon0
          CFI NoFunction
          CFI CFA_SP SP+0
          CFI CFA_XSP16 add(XSP16, 12)
          CFI VB load(1, XDATA, add(CFA_XSP16, literal(-11)))
          CFI DPL0 load(1, XDATA, add(CFA_XSP16, literal(-2)))
          CFI DPH0 load(1, XDATA, add(CFA_XSP16, literal(-1)))
          CFI R6 load(1, XDATA, add(CFA_XSP16, literal(-12)))
          CFI R7 load(1, XDATA, add(CFA_XSP16, literal(-6)))
          CFI V0 load(1, XDATA, add(CFA_XSP16, literal(-10)))
          CFI V1 load(1, XDATA, add(CFA_XSP16, literal(-9)))
          CFI V2 load(1, XDATA, add(CFA_XSP16, literal(-8)))
          CFI V3 load(1, XDATA, add(CFA_XSP16, literal(-7)))
          CFI ?BRET_EXT load(1, XDATA, add(CFA_XSP16, literal(-3)))
          CFI ?RET_HIGH load(1, XDATA, add(CFA_XSP16, literal(-4)))
          CFI ?RET_LOW load(1, XDATA, add(CFA_XSP16, literal(-5)))
        MOV       R7,#0x4
        LJMP      ?BANKED_LEAVE_XDATA
          CFI EndBlock cfiBlock128
//  667 
//  668 /*********************************************************************
//  669  * @fn      touchLink_GetNwkKeyBitmask
//  670  *
//  671  * @brief   Get the supported network key bitmask.
//  672  *
//  673  * @param   none
//  674  *
//  675  * @return  network key bitmask
//  676  */

        RSEG BANKED_CODE:HUGECODE:NOROOT(0)
//  677 uint16 touchLink_GetNwkKeyBitmask( void )
touchLink_GetNwkKeyBitmask:
          CFI Block cfiBlock129 Using cfiCommon0
          CFI Function touchLink_GetNwkKeyBitmask
        CODE
//  678 {
        ; Saved register size: 0
        ; Auto size: 0
//  679   return ( (uint16)1 << TOUCHLINK_KEY_INDEX );
        MOV       R2,#0x0
        MOV       R3,#-0x80
        LJMP      ?BRET
//  680 }
          CFI EndBlock cfiBlock129
//  681 
//  682 /*********************************************************************
//  683  * @fn      touchLink_GenerateRandNum
//  684  *
//  685  * @brief   Fill buffer with random bytes.
//  686  *
//  687  * input parameter
//  688  *
//  689  * @param   numSize - size of buffer in bytes
//  690  *
//  691  * output parameter
//  692  *
//  693  * @param   pNum - pointer to buffer to be filled with random values
//  694  *
//  695  * @return  none
//  696  */

        RSEG BANKED_CODE:HUGECODE:NOROOT(0)
//  697 void touchLink_GenerateRandNum( uint8 *pNum, uint8 numSize )
touchLink_GenerateRandNum:
          CFI Block cfiBlock130 Using cfiCommon0
          CFI Function touchLink_GenerateRandNum
        CODE
//  698 {
        FUNCALL touchLink_GenerateRandNum, osal_rand
        LOCFRAME ISTACK, 0, STACK
        LOCFRAME PSTACK, 0, STACK
        LOCFRAME XSTACK, 14, STACK
        LOCFRAME IOVERLAY, 0, STATIC
        LOCFRAME DOVERLAY, 0, STATIC
        ARGFRAME ISTACK, 0, STACK
        ARGFRAME PSTACK, 0, STACK
        ARGFRAME XSTACK, 14, STACK
        ARGFRAME IOVERLAY, 0, STATIC
        ARGFRAME DOVERLAY, 0, STATIC
        FUNCALL touchLink_GenerateRandNum, osal_rand
        LOCFRAME ISTACK, 0, STACK
        LOCFRAME PSTACK, 0, STACK
        LOCFRAME XSTACK, 14, STACK
        LOCFRAME IOVERLAY, 0, STATIC
        LOCFRAME DOVERLAY, 0, STATIC
        ARGFRAME ISTACK, 0, STACK
        ARGFRAME PSTACK, 0, STACK
        ARGFRAME XSTACK, 14, STACK
        ARGFRAME IOVERLAY, 0, STATIC
        ARGFRAME DOVERLAY, 0, STATIC
        REQUIRE ?V0
        REQUIRE ?V1
        REQUIRE ?V2
        REQUIRE ?V4
        REQUIRE ?V5
        MOV       A,#-0xe
        LCALL     ?BANKED_ENTER_XDATA
          CFI DPH0 load(1, XDATA, add(CFA_XSP16, literal(-1)))
          CFI DPL0 load(1, XDATA, add(CFA_XSP16, literal(-2)))
          CFI ?BRET_EXT load(1, XDATA, add(CFA_XSP16, literal(-3)))
          CFI ?RET_HIGH load(1, XDATA, add(CFA_XSP16, literal(-4)))
          CFI ?RET_LOW load(1, XDATA, add(CFA_XSP16, literal(-5)))
          CFI R7 load(1, XDATA, add(CFA_XSP16, literal(-6)))
          CFI V5 load(1, XDATA, add(CFA_XSP16, literal(-7)))
          CFI V4 load(1, XDATA, add(CFA_XSP16, literal(-8)))
          CFI V3 load(1, XDATA, add(CFA_XSP16, literal(-9)))
          CFI V2 load(1, XDATA, add(CFA_XSP16, literal(-10)))
          CFI V1 load(1, XDATA, add(CFA_XSP16, literal(-11)))
          CFI V0 load(1, XDATA, add(CFA_XSP16, literal(-12)))
          CFI VB load(1, XDATA, add(CFA_XSP16, literal(-13)))
          CFI R6 load(1, XDATA, add(CFA_XSP16, literal(-14)))
          CFI CFA_SP SP+0
          CFI CFA_XSP16 add(XSP16, 14)
        ; Saved register size: 14
        ; Auto size: 0
        MOV       A,R2
        MOV       R6,A
        MOV       A,R3
        MOV       R7,A
        MOV       ?V2,R1
//  699   if ( pNum && numSize )
        MOV       A,R2
        ORL       A,R7
        JZ        ??touchLink_GenerateRandNum_0
        MOV       A,R1
        JZ        ??touchLink_GenerateRandNum_0
//  700   {
//  701     uint8 lastByte = ( numSize - 1 );
        MOV       A,#-0x1
        ADD       A,R1
        MOV       ?V1,A
//  702     for ( uint8 i = 0; i < lastByte; i += 2 )
        MOV       ?V0,#0x0
        SJMP      ??touchLink_GenerateRandNum_1
//  703     {
//  704       uint16 rand = osal_rand();
??touchLink_GenerateRandNum_2:
        ; Setup parameters for call to function osal_rand
        LCALL     `??osal_rand::?relay`; Banked call to: osal_rand
        MOV       ?V4,R2
//  705       pNum[i]   = LO_UINT16( rand );
        MOV       R2,?V0
        MOV       A,R6
        ADD       A,R2
        MOV       DPL,A
        CLR       A
        ADDC      A,R7
        MOV       DPH,A
        MOV       A,?V4
        MOVX      @DPTR,A
//  706       pNum[i+1] = HI_UINT16( rand );
        INC       DPTR
        MOV       A,R3
        MOVX      @DPTR,A
//  707     }
        MOV       A,#0x2
        ADD       A,R2
        MOV       ?V0,A
??touchLink_GenerateRandNum_1:
        MOV       A,?V0
        CLR       C
        SUBB      A,?V1
        JC        ??touchLink_GenerateRandNum_2
//  708 
//  709     // In case the number is odd
//  710     if ( numSize % 2 )
        MOV       A,?V2
        MOV       C,0xE0 /* A   */.0
        JNC       ??touchLink_GenerateRandNum_0
//  711     {
//  712       pNum[lastByte] = LO_UINT16( osal_rand() );
        ; Setup parameters for call to function osal_rand
        LCALL     `??osal_rand::?relay`; Banked call to: osal_rand
        MOV       R0,?V1
        MOV       A,R6
        ADD       A,R0
        MOV       DPL,A
        CLR       A
        ADDC      A,R7
        MOV       DPH,A
        MOV       A,R2
        MOVX      @DPTR,A
//  713     }
//  714   }
//  715 }
??touchLink_GenerateRandNum_0:
        LJMP      ?Subroutine3 & 0xFFFF
          CFI EndBlock cfiBlock130
//  716 
//  717 /*********************************************************************
//  718  * @fn      touchLink_GetRandPrimaryChannel
//  719  *
//  720  * @brief   Get randomly chosen TOUCHLINK primary channel.
//  721  *
//  722  * @return  channel
//  723  */

        RSEG BANKED_CODE:HUGECODE:NOROOT(0)
//  724 uint8 touchLink_GetRandPrimaryChannel()
touchLink_GetRandPrimaryChannel:
          CFI Block cfiBlock131 Using cfiCommon0
          CFI Function touchLink_GetRandPrimaryChannel
        CODE
//  725 {
        FUNCALL touchLink_GetRandPrimaryChannel, osal_rand
        LOCFRAME ISTACK, 2, STACK
        LOCFRAME PSTACK, 0, STACK
        LOCFRAME XSTACK, 0, STACK
        LOCFRAME IOVERLAY, 0, STATIC
        LOCFRAME DOVERLAY, 0, STATIC
        ARGFRAME ISTACK, 2, STACK
        ARGFRAME PSTACK, 0, STACK
        ARGFRAME XSTACK, 0, STACK
        ARGFRAME IOVERLAY, 0, STATIC
        ARGFRAME DOVERLAY, 0, STATIC
        PUSH      DPL
          CFI DPL0 Frame(CFA_SP, 4)
          CFI CFA_SP SP+-4
        PUSH      DPH
          CFI DPH0 Frame(CFA_SP, 5)
          CFI CFA_SP SP+-5
        ; Saved register size: 2
        ; Auto size: 0
//  726   uint8 channel = osal_rand() & 0x1F;
        ; Setup parameters for call to function osal_rand
        LCALL     `??osal_rand::?relay`; Banked call to: osal_rand
        MOV       A,R2
        ANL       A,#0x1f
        MOV       R1,A
//  727   if ( channel <= TOUCHLINK_FIRST_CHANNEL )
        CLR       C
        SUBB      A,#0xc
        JNC       ??touchLink_GetRandPrimaryChannel_0
//  728   {
//  729     channel = TOUCHLINK_FIRST_CHANNEL;
        MOV       R1,#0xb
        SJMP      ??touchLink_GetRandPrimaryChannel_1
//  730   }
//  731   else if ( channel <= TOUCHLINK_SECOND_CHANNEL )
??touchLink_GetRandPrimaryChannel_0:
        MOV       A,R1
        CLR       C
        SUBB      A,#0x10
        JNC       ??touchLink_GetRandPrimaryChannel_2
//  732   {
//  733     channel = TOUCHLINK_SECOND_CHANNEL;
        MOV       R1,#0xf
        SJMP      ??touchLink_GetRandPrimaryChannel_1
//  734   }
//  735   else if ( channel <= TOUCHLINK_THIRD_CHANNEL )
??touchLink_GetRandPrimaryChannel_2:
        MOV       A,R1
        CLR       C
        SUBB      A,#0x15
        JNC       ??touchLink_GetRandPrimaryChannel_3
//  736   {
//  737     channel = TOUCHLINK_THIRD_CHANNEL;
        MOV       R1,#0x14
        SJMP      ??touchLink_GetRandPrimaryChannel_1
//  738   }
//  739   else
//  740   {
//  741     channel = TOUCHLINK_FOURTH_CHANNEL;
??touchLink_GetRandPrimaryChannel_3:
        MOV       R1,#0x19
//  742   }
//  743 #ifdef TOUCHLINK_DEV_SELECT_FIRST_CHANNEL
//  744 #warning The device will always select the first primary channel
//  745   channel = TOUCHLINK_FIRST_CHANNEL;
//  746 #endif
//  747   return channel;
??touchLink_GetRandPrimaryChannel_1:
        LJMP      ??Subroutine46_0 & 0xFFFF
//  748 }
          CFI EndBlock cfiBlock131
//  749 
//  750 /*********************************************************************
//  751  * @fn      touchLink_SetNIB
//  752  *
//  753  * @brief   Copy new Network Parameters to the NIB.
//  754  *
//  755  * @param   nwkState - network state
//  756  * @param   nwkAddr - short address
//  757  * @param   pExtendedPANID - pointer to extended PAN ID
//  758  * @param   logicalChannel - channel
//  759  * @param   panId - PAN identifier
//  760  * @param   nwkUpdateId - nwtwork update identifier
//  761  *
//  762  * @return      void
//  763  */

        RSEG BANKED_CODE:HUGECODE:NOROOT(0)
//  764 void touchLink_SetNIB( nwk_states_t nwkState, uint16 nwkAddr, uint8 *pExtendedPANID,
touchLink_SetNIB:
          CFI Block cfiBlock132 Using cfiCommon0
          CFI Function touchLink_SetNIB
        CODE
//  765                  uint8 logicalChannel, uint16 panId, uint8 nwkUpdateId )
//  766 {
        FUNCALL touchLink_SetNIB, NLME_SetUpdateID
        LOCFRAME ISTACK, 0, STACK
        LOCFRAME PSTACK, 0, STACK
        LOCFRAME XSTACK, 16, STACK
        LOCFRAME IOVERLAY, 0, STATIC
        LOCFRAME DOVERLAY, 0, STATIC
        ARGFRAME ISTACK, 0, STACK
        ARGFRAME PSTACK, 0, STACK
        ARGFRAME XSTACK, 16, STACK
        ARGFRAME IOVERLAY, 0, STATIC
        ARGFRAME DOVERLAY, 0, STATIC
        FUNCALL touchLink_SetNIB, sAddrExtCpy
        LOCFRAME ISTACK, 0, STACK
        LOCFRAME PSTACK, 0, STACK
        LOCFRAME XSTACK, 16, STACK
        LOCFRAME IOVERLAY, 0, STATIC
        LOCFRAME DOVERLAY, 0, STATIC
        ARGFRAME ISTACK, 0, STACK
        ARGFRAME PSTACK, 0, STACK
        ARGFRAME XSTACK, 16, STACK
        ARGFRAME IOVERLAY, 0, STATIC
        ARGFRAME DOVERLAY, 0, STATIC
        FUNCALL touchLink_SetNIB, touchLink_UpdateNV
        LOCFRAME ISTACK, 0, STACK
        LOCFRAME PSTACK, 0, STACK
        LOCFRAME XSTACK, 16, STACK
        LOCFRAME IOVERLAY, 0, STATIC
        LOCFRAME DOVERLAY, 0, STATIC
        ARGFRAME ISTACK, 0, STACK
        ARGFRAME PSTACK, 0, STACK
        ARGFRAME XSTACK, 16, STACK
        ARGFRAME IOVERLAY, 0, STATIC
        ARGFRAME DOVERLAY, 0, STATIC
        REQUIRE ?V0
        REQUIRE ?V4
        REQUIRE ?V5
        REQUIRE ?V6
        REQUIRE ?V7
        MOV       A,#-0x10
        LCALL     ?BANKED_ENTER_XDATA
          CFI DPH0 load(1, XDATA, add(CFA_XSP16, literal(-1)))
          CFI DPL0 load(1, XDATA, add(CFA_XSP16, literal(-2)))
          CFI ?BRET_EXT load(1, XDATA, add(CFA_XSP16, literal(-3)))
          CFI ?RET_HIGH load(1, XDATA, add(CFA_XSP16, literal(-4)))
          CFI ?RET_LOW load(1, XDATA, add(CFA_XSP16, literal(-5)))
          CFI R7 load(1, XDATA, add(CFA_XSP16, literal(-6)))
          CFI V7 load(1, XDATA, add(CFA_XSP16, literal(-7)))
          CFI V6 load(1, XDATA, add(CFA_XSP16, literal(-8)))
          CFI V5 load(1, XDATA, add(CFA_XSP16, literal(-9)))
          CFI V4 load(1, XDATA, add(CFA_XSP16, literal(-10)))
          CFI V3 load(1, XDATA, add(CFA_XSP16, literal(-11)))
          CFI V2 load(1, XDATA, add(CFA_XSP16, literal(-12)))
          CFI V1 load(1, XDATA, add(CFA_XSP16, literal(-13)))
          CFI V0 load(1, XDATA, add(CFA_XSP16, literal(-14)))
          CFI VB load(1, XDATA, add(CFA_XSP16, literal(-15)))
          CFI R6 load(1, XDATA, add(CFA_XSP16, literal(-16)))
          CFI CFA_SP SP+0
          CFI CFA_XSP16 add(XSP16, 16)
        ; Saved register size: 16
        ; Auto size: 0
        MOV       ?V0,R1
        MOV       A,R4
        MOV       R6,A
        MOV       A,R5
        MOV       R7,A
//  767   // Copy the new network parameters to NIB
//  768   _NIB.nwkState = nwkState;
        MOV       A,R1
        MOV       DPTR,#_NIB + 35
        MOVX      @DPTR,A
//  769   _NIB.nwkDevAddress = nwkAddr;
        MOV       DPTR,#_NIB + 20
        MOV       A,R2
        MOVX      @DPTR,A
        INC       DPTR
        MOV       A,R3
        MOVX      @DPTR,A
        MOV       A,#0x10
        LCALL     ?XSTACK_DISP0_8
        MOVX      A,@DPTR
        MOV       R0,A
//  770   _NIB.nwkLogicalChannel = logicalChannel;
        MOV       DPTR,#_NIB + 22
        MOVX      @DPTR,A
//  771   _NIB.nwkCoordAddress = INVALID_NODE_ADDR;
        INC       DPTR
        MOV       A,#-0x2
        MOVX      @DPTR,A
        INC       DPTR
        INC       A
        MOVX      @DPTR,A
//  772   _NIB.channelList = (uint32)1 << logicalChannel;
        MOV       ?V4,#0x1
        MOV       ?V5,#0x0
        MOV       ?V6,#0x0
        MOV       ?V7,#0x0
        MOV       A,R0
        MOV       R0,#?V4
        LCALL     ?L_SHL
        MOV       DPTR,#_NIB + 36
        MOV       R0,#?V4
        LCALL     ?L_MOV_TO_X
//  773   _NIB.nwkPanId = panId;
        MOV       A,#0x11
        LCALL     ?XSTACK_DISP0_8
        LCALL     ??Subroutine53_0 & 0xFFFF
??CrossCallReturnLabel_108:
        MOV       DPTR,#_NIB + 33
        LCALL     ??Subroutine51_0 & 0xFFFF
//  774   _NIB.nodeDepth = 1;
??CrossCallReturnLabel_102:
        MOV       DPTR,#_NIB + 52
        MOV       A,#0x1
        MOVX      @DPTR,A
//  775   _NIB.MaxRouters = (uint8)gNWK_MAX_DEVICE_LIST;
        MOV       DPTR,#gNWK_MAX_DEVICE_LIST
        CLR       A
        MOVC      A,@A+DPTR
        MOV       DPTR,#_NIB + 5
        MOVX      @DPTR,A
//  776   _NIB.MaxChildren = (uint8)gNWK_MAX_DEVICE_LIST;
        MOV       DPTR,#gNWK_MAX_DEVICE_LIST
        CLR       A
        MOVC      A,@A+DPTR
        MOV       DPTR,#_NIB + 3
        MOVX      @DPTR,A
//  777   _NIB.allocatedRouterAddresses = 1;
        MOV       DPTR,#_NIB + 44
        MOV       A,#0x1
        LCALL     ?Subroutine15 & 0xFFFF
//  778   _NIB.allocatedEndDeviceAddresses = 1;
??CrossCallReturnLabel_19:
        INC       DPTR
        INC       A
        LCALL     ?Subroutine15 & 0xFFFF
??CrossCallReturnLabel_20:
        MOV       A,#0x13
        LCALL     ?XSTACK_DISP0_8
        MOVX      A,@DPTR
        MOV       R1,A
//  779 
//  780   if ( _NIB.nwkUpdateId != nwkUpdateId )
        MOV       DPTR,#_NIB + 109
        MOVX      A,@DPTR
        XRL       A,R1
        JZ        ??touchLink_SetNIB_0
//  781   {
//  782     NLME_SetUpdateID( nwkUpdateId );
        ; Setup parameters for call to function NLME_SetUpdateID
        LCALL     `??NLME_SetUpdateID::?relay`; Banked call to: NLME_SetUpdateID
//  783   }
//  784 
//  785   osal_cpyExtAddr( _NIB.extendedPANID, pExtendedPANID );
??touchLink_SetNIB_0:
        ; Setup parameters for call to function sAddrExtCpy
        MOV       A,R6
        MOV       R4,A
        MOV       A,R7
        MOV       R5,A
        MOV       R2,#(_NIB + 53) & 0xff
        MOV       R3,#((_NIB + 53) >> 8) & 0xff
        LCALL     `??sAddrExtCpy::?relay`; Banked call to: sAddrExtCpy
//  786 
//  787   // Save the NIB
//  788   if ( ( nwkState == NWK_ROUTER ) || ( nwkState == NWK_ENDDEVICE ) )
        MOV       A,#0x8
        XRL       A,?V0
        JZ        ??touchLink_SetNIB_1
        MOV       A,#0x4
        XRL       A,?V0
        JNZ       ??touchLink_SetNIB_2
//  789   {
//  790     touchLink_UpdateNV( TOUCHLINK_UPDATE_NV_NIB );
??touchLink_SetNIB_1:
        ; Setup parameters for call to function touchLink_UpdateNV
        MOV       R1,#0x1
        LCALL     `??touchLink_UpdateNV::?relay`; Banked call to: touchLink_UpdateNV
//  791   }
//  792   // else will be updated when ED joins its parent
//  793 }
??touchLink_SetNIB_2:
        MOV       R7,#0x8
        LJMP      ?BANKED_LEAVE_XDATA
          CFI EndBlock cfiBlock132

        RSEG BANKED_CODE:HUGECODE:NOROOT(0)
?Subroutine17:
          CFI Block cfiCond133 Using cfiCommon0
          CFI Function touchLink_GerFreeRanges
          CFI Conditional ??CrossCallReturnLabel_104
          CFI DPL0 Frame(CFA_SP, 4)
          CFI DPH0 Frame(CFA_SP, 5)
          CFI CFA_SP SP+-7
          CFI Block cfiCond134 Using cfiCommon0
          CFI (cfiCond134) Function touchLink_GerFreeRanges
          CFI (cfiCond134) Conditional ??CrossCallReturnLabel_105
          CFI (cfiCond134) DPL0 Frame(CFA_SP, 4)
          CFI (cfiCond134) DPH0 Frame(CFA_SP, 5)
          CFI (cfiCond134) CFA_SP SP+-7
          CFI Block cfiPicker135 Using cfiCommon1
          CFI (cfiPicker135) NoFunction
          CFI (cfiPicker135) Picker
        MOV       DPL,A
        CLR       A
        ADDC      A,R3
        MOV       DPH,A
          CFI EndBlock cfiCond133
          CFI EndBlock cfiCond134
          CFI EndBlock cfiPicker135
        REQUIRE ??Subroutine51_0
        ; // Fall through to label ??Subroutine51_0

        RSEG BANKED_CODE:HUGECODE:NOROOT(0)
??Subroutine51_0:
          CFI Block cfiCond136 Using cfiCommon0
          CFI Function touchLink_SplitFreeRanges
          CFI Conditional ??CrossCallReturnLabel_100
          CFI R6 load(1, XDATA, add(CFA_XSP16, literal(-18)))
          CFI VB load(1, XDATA, add(CFA_XSP16, literal(-17)))
          CFI V0 load(1, XDATA, add(CFA_XSP16, literal(-16)))
          CFI V1 load(1, XDATA, add(CFA_XSP16, literal(-15)))
          CFI V2 load(1, XDATA, add(CFA_XSP16, literal(-14)))
          CFI V3 load(1, XDATA, add(CFA_XSP16, literal(-13)))
          CFI V4 load(1, XDATA, add(CFA_XSP16, literal(-12)))
          CFI V5 load(1, XDATA, add(CFA_XSP16, literal(-11)))
          CFI V6 load(1, XDATA, add(CFA_XSP16, literal(-10)))
          CFI V7 load(1, XDATA, add(CFA_XSP16, literal(-9)))
          CFI V8 load(1, XDATA, add(CFA_XSP16, literal(-8)))
          CFI V9 load(1, XDATA, add(CFA_XSP16, literal(-7)))
          CFI R7 load(1, XDATA, add(CFA_XSP16, literal(-6)))
          CFI ?RET_LOW load(1, XDATA, add(CFA_XSP16, literal(-5)))
          CFI ?RET_HIGH load(1, XDATA, add(CFA_XSP16, literal(-4)))
          CFI ?BRET_EXT load(1, XDATA, add(CFA_XSP16, literal(-3)))
          CFI DPL0 load(1, XDATA, add(CFA_XSP16, literal(-2)))
          CFI DPH0 load(1, XDATA, add(CFA_XSP16, literal(-1)))
          CFI CFA_SP SP+-2
          CFI CFA_XSP16 add(XSP16, 18)
          CFI Block cfiCond137 Using cfiCommon0
          CFI (cfiCond137) Function touchLink_PopNwkAddress
          CFI (cfiCond137) Conditional ??CrossCallReturnLabel_101
          CFI (cfiCond137) DPL0 Frame(CFA_SP, 4)
          CFI (cfiCond137) DPH0 Frame(CFA_SP, 5)
          CFI (cfiCond137) CFA_SP SP+-7
          CFI Block cfiCond138 Using cfiCommon0
          CFI (cfiCond138) Function touchLink_SetNIB
          CFI (cfiCond138) Conditional ??CrossCallReturnLabel_102
          CFI (cfiCond138) R6 load(1, XDATA, add(CFA_XSP16, literal(-16)))
          CFI (cfiCond138) VB load(1, XDATA, add(CFA_XSP16, literal(-15)))
          CFI (cfiCond138) V0 load(1, XDATA, add(CFA_XSP16, literal(-14)))
          CFI (cfiCond138) V1 load(1, XDATA, add(CFA_XSP16, literal(-13)))
          CFI (cfiCond138) V2 load(1, XDATA, add(CFA_XSP16, literal(-12)))
          CFI (cfiCond138) V3 load(1, XDATA, add(CFA_XSP16, literal(-11)))
          CFI (cfiCond138) V4 load(1, XDATA, add(CFA_XSP16, literal(-10)))
          CFI (cfiCond138) V5 load(1, XDATA, add(CFA_XSP16, literal(-9)))
          CFI (cfiCond138) V6 load(1, XDATA, add(CFA_XSP16, literal(-8)))
          CFI (cfiCond138) V7 load(1, XDATA, add(CFA_XSP16, literal(-7)))
          CFI (cfiCond138) R7 load(1, XDATA, add(CFA_XSP16, literal(-6)))
          CFI (cfiCond138) ?RET_LOW load(1, XDATA, add(CFA_XSP16, literal(-5)))
          CFI (cfiCond138) ?RET_HIGH load(1, XDATA, add(CFA_XSP16, literal(-4)))
          CFI (cfiCond138) ?BRET_EXT load(1, XDATA, add(CFA_XSP16, literal(-3)))
          CFI (cfiCond138) DPL0 load(1, XDATA, add(CFA_XSP16, literal(-2)))
          CFI (cfiCond138) DPH0 load(1, XDATA, add(CFA_XSP16, literal(-1)))
          CFI (cfiCond138) CFA_SP SP+-2
          CFI (cfiCond138) CFA_XSP16 add(XSP16, 16)
          CFI Block cfiCond139 Using cfiCommon0
          CFI (cfiCond139) Function touchLink_BeaconIndCB
          CFI (cfiCond139) Conditional ??CrossCallReturnLabel_103
          CFI (cfiCond139) R6 load(1, XDATA, add(CFA_XSP16, literal(-18)))
          CFI (cfiCond139) VB load(1, XDATA, add(CFA_XSP16, literal(-17)))
          CFI (cfiCond139) V0 load(1, XDATA, add(CFA_XSP16, literal(-16)))
          CFI (cfiCond139) V1 load(1, XDATA, add(CFA_XSP16, literal(-15)))
          CFI (cfiCond139) V2 load(1, XDATA, add(CFA_XSP16, literal(-14)))
          CFI (cfiCond139) V3 load(1, XDATA, add(CFA_XSP16, literal(-13)))
          CFI (cfiCond139) V4 load(1, XDATA, add(CFA_XSP16, literal(-12)))
          CFI (cfiCond139) V5 load(1, XDATA, add(CFA_XSP16, literal(-11)))
          CFI (cfiCond139) V6 load(1, XDATA, add(CFA_XSP16, literal(-10)))
          CFI (cfiCond139) V7 load(1, XDATA, add(CFA_XSP16, literal(-9)))
          CFI (cfiCond139) V8 load(1, XDATA, add(CFA_XSP16, literal(-8)))
          CFI (cfiCond139) V9 load(1, XDATA, add(CFA_XSP16, literal(-7)))
          CFI (cfiCond139) R7 load(1, XDATA, add(CFA_XSP16, literal(-6)))
          CFI (cfiCond139) ?RET_LOW load(1, XDATA, add(CFA_XSP16, literal(-5)))
          CFI (cfiCond139) ?RET_HIGH load(1, XDATA, add(CFA_XSP16, literal(-4)))
          CFI (cfiCond139) ?BRET_EXT load(1, XDATA, add(CFA_XSP16, literal(-3)))
          CFI (cfiCond139) DPL0 load(1, XDATA, add(CFA_XSP16, literal(-2)))
          CFI (cfiCond139) DPH0 load(1, XDATA, add(CFA_XSP16, literal(-1)))
          CFI (cfiCond139) CFA_SP SP+-2
          CFI (cfiCond139) CFA_XSP16 add(XSP16, 18)
          CFI Block cfiCond140 Using cfiCommon0
          CFI (cfiCond140) Function touchLink_GerFreeRanges
          CFI (cfiCond140) Conditional ??CrossCallReturnLabel_104
          CFI (cfiCond140) DPL0 Frame(CFA_SP, 4)
          CFI (cfiCond140) DPH0 Frame(CFA_SP, 5)
          CFI (cfiCond140) CFA_SP SP+-7
          CFI Block cfiCond141 Using cfiCommon0
          CFI (cfiCond141) Function touchLink_GerFreeRanges
          CFI (cfiCond141) Conditional ??CrossCallReturnLabel_105
          CFI (cfiCond141) DPL0 Frame(CFA_SP, 4)
          CFI (cfiCond141) DPH0 Frame(CFA_SP, 5)
          CFI (cfiCond141) CFA_SP SP+-7
          CFI Block cfiPicker142 Using cfiCommon1
          CFI (cfiPicker142) NoFunction
          CFI (cfiPicker142) Picker
        MOV       A,R0
        MOVX      @DPTR,A
        INC       DPTR
        MOV       A,R1
        MOVX      @DPTR,A
        RET
          CFI EndBlock cfiCond136
          CFI EndBlock cfiCond137
          CFI EndBlock cfiCond138
          CFI EndBlock cfiCond139
          CFI EndBlock cfiCond140
          CFI EndBlock cfiCond141
          CFI EndBlock cfiPicker142

        RSEG BANKED_CODE:HUGECODE:NOROOT(0)
?Subroutine15:
          CFI Block cfiCond143 Using cfiCommon0
          CFI Function touchLink_SetNIB
          CFI Conditional ??CrossCallReturnLabel_19
          CFI R6 load(1, XDATA, add(CFA_XSP16, literal(-16)))
          CFI VB load(1, XDATA, add(CFA_XSP16, literal(-15)))
          CFI V0 load(1, XDATA, add(CFA_XSP16, literal(-14)))
          CFI V1 load(1, XDATA, add(CFA_XSP16, literal(-13)))
          CFI V2 load(1, XDATA, add(CFA_XSP16, literal(-12)))
          CFI V3 load(1, XDATA, add(CFA_XSP16, literal(-11)))
          CFI V4 load(1, XDATA, add(CFA_XSP16, literal(-10)))
          CFI V5 load(1, XDATA, add(CFA_XSP16, literal(-9)))
          CFI V6 load(1, XDATA, add(CFA_XSP16, literal(-8)))
          CFI V7 load(1, XDATA, add(CFA_XSP16, literal(-7)))
          CFI R7 load(1, XDATA, add(CFA_XSP16, literal(-6)))
          CFI ?RET_LOW load(1, XDATA, add(CFA_XSP16, literal(-5)))
          CFI ?RET_HIGH load(1, XDATA, add(CFA_XSP16, literal(-4)))
          CFI ?BRET_EXT load(1, XDATA, add(CFA_XSP16, literal(-3)))
          CFI DPL0 load(1, XDATA, add(CFA_XSP16, literal(-2)))
          CFI DPH0 load(1, XDATA, add(CFA_XSP16, literal(-1)))
          CFI CFA_SP SP+-2
          CFI CFA_XSP16 add(XSP16, 16)
          CFI Block cfiCond144 Using cfiCommon0
          CFI (cfiCond144) Function touchLink_SetNIB
          CFI (cfiCond144) Conditional ??CrossCallReturnLabel_20
          CFI (cfiCond144) R6 load(1, XDATA, add(CFA_XSP16, literal(-16)))
          CFI (cfiCond144) VB load(1, XDATA, add(CFA_XSP16, literal(-15)))
          CFI (cfiCond144) V0 load(1, XDATA, add(CFA_XSP16, literal(-14)))
          CFI (cfiCond144) V1 load(1, XDATA, add(CFA_XSP16, literal(-13)))
          CFI (cfiCond144) V2 load(1, XDATA, add(CFA_XSP16, literal(-12)))
          CFI (cfiCond144) V3 load(1, XDATA, add(CFA_XSP16, literal(-11)))
          CFI (cfiCond144) V4 load(1, XDATA, add(CFA_XSP16, literal(-10)))
          CFI (cfiCond144) V5 load(1, XDATA, add(CFA_XSP16, literal(-9)))
          CFI (cfiCond144) V6 load(1, XDATA, add(CFA_XSP16, literal(-8)))
          CFI (cfiCond144) V7 load(1, XDATA, add(CFA_XSP16, literal(-7)))
          CFI (cfiCond144) R7 load(1, XDATA, add(CFA_XSP16, literal(-6)))
          CFI (cfiCond144) ?RET_LOW load(1, XDATA, add(CFA_XSP16, literal(-5)))
          CFI (cfiCond144) ?RET_HIGH load(1, XDATA, add(CFA_XSP16, literal(-4)))
          CFI (cfiCond144) ?BRET_EXT load(1, XDATA, add(CFA_XSP16, literal(-3)))
          CFI (cfiCond144) DPL0 load(1, XDATA, add(CFA_XSP16, literal(-2)))
          CFI (cfiCond144) DPH0 load(1, XDATA, add(CFA_XSP16, literal(-1)))
          CFI (cfiCond144) CFA_SP SP+-2
          CFI (cfiCond144) CFA_XSP16 add(XSP16, 16)
          CFI Block cfiPicker145 Using cfiCommon1
          CFI (cfiPicker145) NoFunction
          CFI (cfiPicker145) Picker
        MOVX      @DPTR,A
        INC       DPTR
        CLR       A
        MOVX      @DPTR,A
        INC       DPTR
        MOVX      @DPTR,A
        INC       DPTR
        MOVX      @DPTR,A
        RET
          CFI EndBlock cfiCond143
          CFI EndBlock cfiCond144
          CFI EndBlock cfiPicker145
//  794 
//  795 /*********************************************************************
//  796  * @fn      touchLink_ProcessNwkUpdate
//  797  *
//  798  * @brief   Update our local network update id and logical channel.
//  799  *
//  800  * @param   nwkUpdateId - new network update id
//  801  * @param   logicalChannel - new logical channel
//  802  *
//  803  * @return  void
//  804  */

        RSEG BANKED_CODE:HUGECODE:NOROOT(0)
//  805 void touchLink_ProcessNwkUpdate( uint8 nwkUpdateId, uint8 logicalChannel )
touchLink_ProcessNwkUpdate:
          CFI Block cfiBlock146 Using cfiCommon0
          CFI Function touchLink_ProcessNwkUpdate
        CODE
//  806 {
        FUNCALL touchLink_ProcessNwkUpdate, NLME_SetUpdateID
        LOCFRAME ISTACK, 0, STACK
        LOCFRAME PSTACK, 0, STACK
        LOCFRAME XSTACK, 12, STACK
        LOCFRAME IOVERLAY, 0, STATIC
        LOCFRAME DOVERLAY, 0, STATIC
        ARGFRAME ISTACK, 0, STACK
        ARGFRAME PSTACK, 0, STACK
        ARGFRAME XSTACK, 12, STACK
        ARGFRAME IOVERLAY, 0, STATIC
        ARGFRAME DOVERLAY, 0, STATIC
        FUNCALL touchLink_ProcessNwkUpdate, touchLink_SetChannel
        LOCFRAME ISTACK, 0, STACK
        LOCFRAME PSTACK, 0, STACK
        LOCFRAME XSTACK, 12, STACK
        LOCFRAME IOVERLAY, 0, STATIC
        LOCFRAME DOVERLAY, 0, STATIC
        ARGFRAME ISTACK, 0, STACK
        ARGFRAME PSTACK, 0, STACK
        ARGFRAME XSTACK, 12, STACK
        ARGFRAME IOVERLAY, 0, STATIC
        ARGFRAME DOVERLAY, 0, STATIC
        FUNCALL touchLink_ProcessNwkUpdate, ZDApp_NwkStateUpdateCB
        LOCFRAME ISTACK, 0, STACK
        LOCFRAME PSTACK, 0, STACK
        LOCFRAME XSTACK, 12, STACK
        LOCFRAME IOVERLAY, 0, STATIC
        LOCFRAME DOVERLAY, 0, STATIC
        ARGFRAME ISTACK, 0, STACK
        ARGFRAME PSTACK, 0, STACK
        ARGFRAME XSTACK, 12, STACK
        ARGFRAME IOVERLAY, 0, STATIC
        ARGFRAME DOVERLAY, 0, STATIC
        FUNCALL touchLink_ProcessNwkUpdate, touchLink_UpdateNV
        LOCFRAME ISTACK, 0, STACK
        LOCFRAME PSTACK, 0, STACK
        LOCFRAME XSTACK, 12, STACK
        LOCFRAME IOVERLAY, 0, STATIC
        LOCFRAME DOVERLAY, 0, STATIC
        ARGFRAME ISTACK, 0, STACK
        ARGFRAME PSTACK, 0, STACK
        ARGFRAME XSTACK, 12, STACK
        ARGFRAME IOVERLAY, 0, STATIC
        ARGFRAME DOVERLAY, 0, STATIC
        FUNCALL touchLink_ProcessNwkUpdate, nwkTransmissionFailures
        LOCFRAME ISTACK, 0, STACK
        LOCFRAME PSTACK, 0, STACK
        LOCFRAME XSTACK, 12, STACK
        LOCFRAME IOVERLAY, 0, STATIC
        LOCFRAME DOVERLAY, 0, STATIC
        ARGFRAME ISTACK, 0, STACK
        ARGFRAME PSTACK, 0, STACK
        ARGFRAME XSTACK, 12, STACK
        ARGFRAME IOVERLAY, 0, STATIC
        ARGFRAME DOVERLAY, 0, STATIC
        REQUIRE ?V0
        REQUIRE ?V1
        REQUIRE ?V2
        REQUIRE ?V3
        MOV       A,#-0xc
        LCALL     ?BANKED_ENTER_XDATA
          CFI DPH0 load(1, XDATA, add(CFA_XSP16, literal(-1)))
          CFI DPL0 load(1, XDATA, add(CFA_XSP16, literal(-2)))
          CFI ?BRET_EXT load(1, XDATA, add(CFA_XSP16, literal(-3)))
          CFI ?RET_HIGH load(1, XDATA, add(CFA_XSP16, literal(-4)))
          CFI ?RET_LOW load(1, XDATA, add(CFA_XSP16, literal(-5)))
          CFI R7 load(1, XDATA, add(CFA_XSP16, literal(-6)))
          CFI V3 load(1, XDATA, add(CFA_XSP16, literal(-7)))
          CFI V2 load(1, XDATA, add(CFA_XSP16, literal(-8)))
          CFI V1 load(1, XDATA, add(CFA_XSP16, literal(-9)))
          CFI V0 load(1, XDATA, add(CFA_XSP16, literal(-10)))
          CFI VB load(1, XDATA, add(CFA_XSP16, literal(-11)))
          CFI R6 load(1, XDATA, add(CFA_XSP16, literal(-12)))
          CFI CFA_SP SP+0
          CFI CFA_XSP16 add(XSP16, 12)
        ; Saved register size: 12
        ; Auto size: 0
        MOV       A,R2
        MOV       R6,A
//  807   // Update the network update id
//  808   NLME_SetUpdateID( nwkUpdateId );
        ; Setup parameters for call to function NLME_SetUpdateID
        LCALL     `??NLME_SetUpdateID::?relay`; Banked call to: NLME_SetUpdateID
//  809 
//  810   // Switch channel
//  811   if ( _NIB.nwkLogicalChannel != logicalChannel )
        MOV       DPTR,#_NIB + 22
        MOVX      A,@DPTR
        XRL       A,R6
        JZ        ??touchLink_ProcessNwkUpdate_0
//  812   {
//  813     _NIB.nwkLogicalChannel = logicalChannel;
        MOV       A,R6
        MOVX      @DPTR,A
//  814     touchLink_SetChannel( logicalChannel );
        ; Setup parameters for call to function touchLink_SetChannel
        MOV       R1,A
        LCALL     `??touchLink_SetChannel::?relay`; Banked call to: touchLink_SetChannel
//  815   }
//  816 
//  817   // Update channel list
//  818   _NIB.channelList = (uint32)1 << logicalChannel;
??touchLink_ProcessNwkUpdate_0:
        MOV       ?V0,#0x1
        MOV       ?V1,#0x0
        MOV       ?V2,#0x0
        MOV       ?V3,#0x0
        MOV       A,R6
        MOV       R0,#?V0
        LCALL     ?L_SHL
        MOV       DPTR,#_NIB + 36
        MOV       R0,#?V0
        LCALL     ?L_MOV_TO_X
//  819 
//  820   // Our Channel has been changed -- notify to save info into NV
//  821   ZDApp_NwkStateUpdateCB();
        ; Setup parameters for call to function ZDApp_NwkStateUpdateCB
        LCALL     `??ZDApp_NwkStateUpdateCB::?relay`; Banked call to: ZDApp_NwkStateUpdateCB
//  822   touchLink_UpdateNV( TOUCHLINK_UPDATE_NV_NIB );
        ; Setup parameters for call to function touchLink_UpdateNV
        MOV       R1,#0x1
        LCALL     `??touchLink_UpdateNV::?relay`; Banked call to: touchLink_UpdateNV
//  823 
//  824   // Reset the total transmit count and the transmit failure counters
//  825   _NIB.nwkTotalTransmissions = 0;
        MOV       DPTR,#_NIB + 107
        CLR       A
        MOVX      @DPTR,A
        INC       DPTR
        MOVX      @DPTR,A
//  826   nwkTransmissionFailures( TRUE );
        ; Setup parameters for call to function nwkTransmissionFailures
        MOV       R1,#0x1
        LCALL     `??nwkTransmissionFailures::?relay`; Banked call to: nwkTransmissionFailures
//  827 }
        LJMP      ??Subroutine50_0 & 0xFFFF
          CFI EndBlock cfiBlock146
//  828 
//  829 /*********************************************************************
//  830  * @fn      touchLink_UpdateNV
//  831  *
//  832  * @brief   Updates NV with NIB and free ranges items
//  833  *
//  834  * @param   enables - specifies what to update
//  835  *
//  836  * @return  none
//  837  */

        RSEG BANKED_CODE:HUGECODE:NOROOT(0)
//  838 void touchLink_UpdateNV( uint8 enables )
touchLink_UpdateNV:
          CFI Block cfiBlock147 Using cfiCommon0
          CFI Function touchLink_UpdateNV
        CODE
//  839 {
        FUNCALL touchLink_UpdateNV, osal_nv_write
        LOCFRAME ISTACK, 0, STACK
        LOCFRAME PSTACK, 0, STACK
        LOCFRAME XSTACK, 14, STACK
        LOCFRAME IOVERLAY, 0, STATIC
        LOCFRAME DOVERLAY, 0, STATIC
        ARGFRAME ISTACK, 0, STACK
        ARGFRAME PSTACK, 0, STACK
        ARGFRAME XSTACK, 14, STACK
        ARGFRAME IOVERLAY, 0, STATIC
        ARGFRAME DOVERLAY, 0, STATIC
        FUNCALL touchLink_UpdateNV, zgWriteStartupOptions
        LOCFRAME ISTACK, 0, STACK
        LOCFRAME PSTACK, 0, STACK
        LOCFRAME XSTACK, 10, STACK
        LOCFRAME IOVERLAY, 0, STATIC
        LOCFRAME DOVERLAY, 0, STATIC
        ARGFRAME ISTACK, 0, STACK
        ARGFRAME PSTACK, 0, STACK
        ARGFRAME XSTACK, 10, STACK
        ARGFRAME IOVERLAY, 0, STATIC
        ARGFRAME DOVERLAY, 0, STATIC
        FUNCALL touchLink_UpdateNV, osal_nv_write
        LOCFRAME ISTACK, 0, STACK
        LOCFRAME PSTACK, 0, STACK
        LOCFRAME XSTACK, 14, STACK
        LOCFRAME IOVERLAY, 0, STATIC
        LOCFRAME DOVERLAY, 0, STATIC
        ARGFRAME ISTACK, 0, STACK
        ARGFRAME PSTACK, 0, STACK
        ARGFRAME XSTACK, 14, STACK
        ARGFRAME IOVERLAY, 0, STATIC
        ARGFRAME DOVERLAY, 0, STATIC
        FUNCALL touchLink_UpdateNV, osal_nv_write
        LOCFRAME ISTACK, 0, STACK
        LOCFRAME PSTACK, 0, STACK
        LOCFRAME XSTACK, 14, STACK
        LOCFRAME IOVERLAY, 0, STATIC
        LOCFRAME DOVERLAY, 0, STATIC
        ARGFRAME ISTACK, 0, STACK
        ARGFRAME PSTACK, 0, STACK
        ARGFRAME XSTACK, 14, STACK
        ARGFRAME IOVERLAY, 0, STATIC
        ARGFRAME DOVERLAY, 0, STATIC
        FUNCALL touchLink_UpdateNV, osal_nv_write
        LOCFRAME ISTACK, 0, STACK
        LOCFRAME PSTACK, 0, STACK
        LOCFRAME XSTACK, 14, STACK
        LOCFRAME IOVERLAY, 0, STATIC
        LOCFRAME DOVERLAY, 0, STATIC
        ARGFRAME ISTACK, 0, STACK
        ARGFRAME PSTACK, 0, STACK
        ARGFRAME XSTACK, 14, STACK
        ARGFRAME IOVERLAY, 0, STATIC
        ARGFRAME DOVERLAY, 0, STATIC
        FUNCALL touchLink_UpdateNV, osal_nv_write
        LOCFRAME ISTACK, 0, STACK
        LOCFRAME PSTACK, 0, STACK
        LOCFRAME XSTACK, 14, STACK
        LOCFRAME IOVERLAY, 0, STATIC
        LOCFRAME DOVERLAY, 0, STATIC
        ARGFRAME ISTACK, 0, STACK
        ARGFRAME PSTACK, 0, STACK
        ARGFRAME XSTACK, 14, STACK
        ARGFRAME IOVERLAY, 0, STATIC
        ARGFRAME DOVERLAY, 0, STATIC
        FUNCALL touchLink_UpdateNV, osal_nv_write
        LOCFRAME ISTACK, 0, STACK
        LOCFRAME PSTACK, 0, STACK
        LOCFRAME XSTACK, 14, STACK
        LOCFRAME IOVERLAY, 0, STATIC
        LOCFRAME DOVERLAY, 0, STATIC
        ARGFRAME ISTACK, 0, STACK
        ARGFRAME PSTACK, 0, STACK
        ARGFRAME XSTACK, 14, STACK
        ARGFRAME IOVERLAY, 0, STATIC
        ARGFRAME DOVERLAY, 0, STATIC
        FUNCALL touchLink_UpdateNV, osal_nv_write
        LOCFRAME ISTACK, 0, STACK
        LOCFRAME PSTACK, 0, STACK
        LOCFRAME XSTACK, 14, STACK
        LOCFRAME IOVERLAY, 0, STATIC
        LOCFRAME DOVERLAY, 0, STATIC
        ARGFRAME ISTACK, 0, STACK
        ARGFRAME PSTACK, 0, STACK
        ARGFRAME XSTACK, 14, STACK
        ARGFRAME IOVERLAY, 0, STATIC
        ARGFRAME DOVERLAY, 0, STATIC
        REQUIRE ?V0
        REQUIRE ?V1
        MOV       A,#-0xa
        LCALL     ?BANKED_ENTER_XDATA
          CFI DPH0 load(1, XDATA, add(CFA_XSP16, literal(-1)))
          CFI DPL0 load(1, XDATA, add(CFA_XSP16, literal(-2)))
          CFI ?BRET_EXT load(1, XDATA, add(CFA_XSP16, literal(-3)))
          CFI ?RET_HIGH load(1, XDATA, add(CFA_XSP16, literal(-4)))
          CFI ?RET_LOW load(1, XDATA, add(CFA_XSP16, literal(-5)))
          CFI R7 load(1, XDATA, add(CFA_XSP16, literal(-6)))
          CFI V1 load(1, XDATA, add(CFA_XSP16, literal(-7)))
          CFI V0 load(1, XDATA, add(CFA_XSP16, literal(-8)))
          CFI VB load(1, XDATA, add(CFA_XSP16, literal(-9)))
          CFI R6 load(1, XDATA, add(CFA_XSP16, literal(-10)))
          CFI CFA_SP SP+0
          CFI CFA_XSP16 add(XSP16, 10)
        ; Saved register size: 10
        ; Auto size: 0
        MOV       A,R1
        MOV       R6,A
//  840 #if defined ( NV_RESTORE )
//  841 
//  842  #if defined ( NV_TURN_OFF_RADIO )
//  843   // Turn off the radio's receiver during an NV update
//  844   uint8 RxOnIdle;
//  845   uint8 x = FALSE;
//  846   ZMacGetReq( ZMacRxOnIdle, &RxOnIdle );
//  847   ZMacSetReq( ZMacRxOnIdle, &x );
//  848  #endif
//  849 
//  850   if ( enables & TOUCHLINK_UPDATE_NV_NIB )
        MOV       C,0xE0 /* A   */.0
        JNC       ??touchLink_UpdateNV_0
//  851   {
//  852     // Update NIB in NV
//  853     osal_nv_write( ZCD_NV_NIB, 0, sizeof( nwkIB_t ), &_NIB );
        ; Setup parameters for call to function osal_nv_write
        MOV       ?V0,#_NIB & 0xff
        MOV       ?V1,#(_NIB >> 8) & 0xff
        MOV       R0,#?V0
        LCALL     ?PUSH_XSTACK_I_TWO
          CFI CFA_XSP16 add(XSP16, 12)
        MOV       ?V0,#0x6e
        MOV       ?V1,#0x0
        MOV       R0,#?V0
        LCALL     ?PUSH_XSTACK_I_TWO
          CFI CFA_XSP16 add(XSP16, 14)
        MOV       R4,#0x0
        MOV       R5,#0x0
        MOV       R2,#0x21
        LCALL     ?Subroutine31 & 0xFFFF
??CrossCallReturnLabel_50:
        LCALL     ?DEALLOC_XSTACK8
          CFI CFA_XSP16 add(XSP16, 10)
//  854 
//  855     // Reset the NV startup option to resume from NV by clearing
//  856     // the "New" join option.
//  857     zgWriteStartupOptions( ZG_STARTUP_CLEAR, ZCD_STARTOPT_DEFAULT_NETWORK_STATE );
        ; Setup parameters for call to function zgWriteStartupOptions
        MOV       R2,#0x2
        MOV       R1,#0x0
        LCALL     `??zgWriteStartupOptions::?relay`; Banked call to: zgWriteStartupOptions
//  858   }
//  859 
//  860   if ( enables & TOUCHLINK_UPDATE_NV_RANGES )
??touchLink_UpdateNV_0:
        MOV       A,R6
        MOV       C,0xE0 /* A   */.1
        JC        $+5
        LJMP      ??touchLink_UpdateNV_1 & 0xFFFF
//  861   {
//  862     // Store our free network address and group ID ranges
//  863     osal_nv_write( ZCD_NV_MIN_FREE_NWK_ADDR, 0, sizeof( touchLinkFreeNwkAddrBegin ), &touchLinkFreeNwkAddrBegin );
        ; Setup parameters for call to function osal_nv_write
        MOV       ?V0,#touchLinkFreeNwkAddrBegin & 0xff
        MOV       ?V1,#(touchLinkFreeNwkAddrBegin >> 8) & 0xff
        MOV       R0,#?V0
        LCALL     ?PUSH_XSTACK_I_TWO
          CFI CFA_XSP16 add(XSP16, 12)
        MOV       ?V0,#0x2
        MOV       ?V1,#0x0
        MOV       R0,#?V0
        LCALL     ?PUSH_XSTACK_I_TWO
          CFI CFA_XSP16 add(XSP16, 14)
        MOV       R4,#0x0
        MOV       R5,#0x0
        MOV       R2,#-0x6e
        LCALL     ?Subroutine31 & 0xFFFF
??CrossCallReturnLabel_51:
        LCALL     ?DEALLOC_XSTACK8
          CFI CFA_XSP16 add(XSP16, 10)
//  864     osal_nv_write( ZCD_NV_MAX_FREE_NWK_ADDR, 0, sizeof( touchLinkFreeNwkAddrEnd ), &touchLinkFreeNwkAddrEnd );
        ; Setup parameters for call to function osal_nv_write
        MOV       ?V0,#touchLinkFreeNwkAddrEnd & 0xff
        MOV       ?V1,#(touchLinkFreeNwkAddrEnd >> 8) & 0xff
        MOV       R0,#?V0
        LCALL     ?PUSH_XSTACK_I_TWO
          CFI CFA_XSP16 add(XSP16, 12)
        MOV       ?V0,#0x2
        MOV       ?V1,#0x0
        MOV       R0,#?V0
        LCALL     ?PUSH_XSTACK_I_TWO
          CFI CFA_XSP16 add(XSP16, 14)
        MOV       R4,#0x0
        MOV       R5,#0x0
        MOV       R2,#-0x6d
        LCALL     ?Subroutine31 & 0xFFFF
??CrossCallReturnLabel_52:
        LCALL     ?DEALLOC_XSTACK8
          CFI CFA_XSP16 add(XSP16, 10)
//  865     osal_nv_write( ZCD_NV_MIN_FREE_GRP_ID, 0, sizeof( touchLinkFreeGrpIdBegin ), &touchLinkFreeGrpIdBegin );
        ; Setup parameters for call to function osal_nv_write
        MOV       ?V0,#touchLinkFreeGrpIdBegin & 0xff
        MOV       ?V1,#(touchLinkFreeGrpIdBegin >> 8) & 0xff
        MOV       R0,#?V0
        LCALL     ?PUSH_XSTACK_I_TWO
          CFI CFA_XSP16 add(XSP16, 12)
        MOV       ?V0,#0x2
        MOV       ?V1,#0x0
        MOV       R0,#?V0
        LCALL     ?PUSH_XSTACK_I_TWO
          CFI CFA_XSP16 add(XSP16, 14)
        MOV       R4,#0x0
        MOV       R5,#0x0
        MOV       R2,#-0x6c
        LCALL     ?Subroutine31 & 0xFFFF
??CrossCallReturnLabel_53:
        LCALL     ?DEALLOC_XSTACK8
          CFI CFA_XSP16 add(XSP16, 10)
//  866     osal_nv_write( ZCD_NV_MAX_FREE_GRP_ID, 0, sizeof( touchLinkFreeGrpIdEnd ), &touchLinkFreeGrpIdEnd );
        ; Setup parameters for call to function osal_nv_write
        MOV       ?V0,#touchLinkFreeGrpIdEnd & 0xff
        MOV       ?V1,#(touchLinkFreeGrpIdEnd >> 8) & 0xff
        MOV       R0,#?V0
        LCALL     ?PUSH_XSTACK_I_TWO
          CFI CFA_XSP16 add(XSP16, 12)
        MOV       ?V0,#0x2
        MOV       ?V1,#0x0
        MOV       R0,#?V0
        LCALL     ?PUSH_XSTACK_I_TWO
          CFI CFA_XSP16 add(XSP16, 14)
        MOV       R4,#0x0
        MOV       R5,#0x0
        MOV       R2,#-0x6b
        LCALL     ?Subroutine31 & 0xFFFF
??CrossCallReturnLabel_54:
        LCALL     ?DEALLOC_XSTACK8
          CFI CFA_XSP16 add(XSP16, 10)
//  867 
//  868     // Store our group ID range
//  869     osal_nv_write( ZCD_NV_MIN_GRP_IDS, 0, sizeof( touchLinkGrpIDsBegin ), &touchLinkGrpIDsBegin );
        ; Setup parameters for call to function osal_nv_write
        MOV       ?V0,#touchLinkGrpIDsBegin & 0xff
        MOV       ?V1,#(touchLinkGrpIDsBegin >> 8) & 0xff
        MOV       R0,#?V0
        LCALL     ?PUSH_XSTACK_I_TWO
          CFI CFA_XSP16 add(XSP16, 12)
        MOV       ?V0,#0x2
        MOV       ?V1,#0x0
        MOV       R0,#?V0
        LCALL     ?PUSH_XSTACK_I_TWO
          CFI CFA_XSP16 add(XSP16, 14)
        MOV       R4,#0x0
        MOV       R5,#0x0
        MOV       R2,#-0x6a
        LCALL     ?Subroutine31 & 0xFFFF
??CrossCallReturnLabel_55:
        LCALL     ?DEALLOC_XSTACK8
          CFI CFA_XSP16 add(XSP16, 10)
//  870     osal_nv_write( ZCD_NV_MAX_GRP_IDS, 0, sizeof( touchLinkGrpIDsEnd ), &touchLinkGrpIDsEnd );
        ; Setup parameters for call to function osal_nv_write
        MOV       ?V0,#touchLinkGrpIDsEnd & 0xff
        MOV       ?V1,#(touchLinkGrpIDsEnd >> 8) & 0xff
        MOV       R0,#?V0
        LCALL     ?PUSH_XSTACK_I_TWO
          CFI CFA_XSP16 add(XSP16, 12)
        MOV       ?V0,#0x2
        MOV       ?V1,#0x0
        MOV       R0,#?V0
        LCALL     ?PUSH_XSTACK_I_TWO
          CFI CFA_XSP16 add(XSP16, 14)
        MOV       R4,#0x0
        MOV       R5,#0x0
        MOV       R2,#-0x69
        LCALL     ?Subroutine31 & 0xFFFF
//  871   }
??CrossCallReturnLabel_56:
        LCALL     ?DEALLOC_XSTACK8
          CFI CFA_XSP16 add(XSP16, 10)
//  872 
//  873  #if defined ( NV_TURN_OFF_RADIO )
//  874   ZMacSetReq( ZMacRxOnIdle, &RxOnIdle );
//  875  #endif
//  876 
//  877 #endif // NV_RESTORE
//  878 }
??touchLink_UpdateNV_1:
          CFI EndBlock cfiBlock147
        REQUIRE ?Subroutine0
        ; // Fall through to label ?Subroutine0

        RSEG BANKED_CODE:HUGECODE:NOROOT(0)
?Subroutine0:
          CFI Block cfiBlock148 Using cfiCommon0
          CFI NoFunction
          CFI CFA_SP SP+0
          CFI CFA_XSP16 add(XSP16, 10)
          CFI VB load(1, XDATA, add(CFA_XSP16, literal(-9)))
          CFI DPL0 load(1, XDATA, add(CFA_XSP16, literal(-2)))
          CFI DPH0 load(1, XDATA, add(CFA_XSP16, literal(-1)))
          CFI R6 load(1, XDATA, add(CFA_XSP16, literal(-10)))
          CFI R7 load(1, XDATA, add(CFA_XSP16, literal(-6)))
          CFI V0 load(1, XDATA, add(CFA_XSP16, literal(-8)))
          CFI V1 load(1, XDATA, add(CFA_XSP16, literal(-7)))
          CFI ?BRET_EXT load(1, XDATA, add(CFA_XSP16, literal(-3)))
          CFI ?RET_HIGH load(1, XDATA, add(CFA_XSP16, literal(-4)))
          CFI ?RET_LOW load(1, XDATA, add(CFA_XSP16, literal(-5)))
        MOV       R7,#0x2
        LJMP      ?BANKED_LEAVE_XDATA
          CFI EndBlock cfiBlock148

        RSEG BANKED_CODE:HUGECODE:NOROOT(0)
?Subroutine31:
          CFI Block cfiCond149 Using cfiCommon0
          CFI Function touchLink_InitVariables
          CFI Conditional ??CrossCallReturnLabel_49
          CFI R6 load(1, XDATA, add(CFA_XSP16, literal(-10)))
          CFI VB load(1, XDATA, add(CFA_XSP16, literal(-9)))
          CFI V0 load(1, XDATA, add(CFA_XSP16, literal(-8)))
          CFI V1 load(1, XDATA, add(CFA_XSP16, literal(-7)))
          CFI R7 load(1, XDATA, add(CFA_XSP16, literal(-6)))
          CFI ?RET_LOW load(1, XDATA, add(CFA_XSP16, literal(-5)))
          CFI ?RET_HIGH load(1, XDATA, add(CFA_XSP16, literal(-4)))
          CFI ?BRET_EXT load(1, XDATA, add(CFA_XSP16, literal(-3)))
          CFI DPL0 load(1, XDATA, add(CFA_XSP16, literal(-2)))
          CFI DPH0 load(1, XDATA, add(CFA_XSP16, literal(-1)))
          CFI CFA_SP SP+-2
          CFI CFA_XSP16 add(XSP16, 14)
          CFI Block cfiCond150 Using cfiCommon0
          CFI (cfiCond150) Function touchLink_UpdateNV
          CFI (cfiCond150) Conditional ??CrossCallReturnLabel_50
          CFI (cfiCond150) R6 load(1, XDATA, add(CFA_XSP16, literal(-10)))
          CFI (cfiCond150) VB load(1, XDATA, add(CFA_XSP16, literal(-9)))
          CFI (cfiCond150) V0 load(1, XDATA, add(CFA_XSP16, literal(-8)))
          CFI (cfiCond150) V1 load(1, XDATA, add(CFA_XSP16, literal(-7)))
          CFI (cfiCond150) R7 load(1, XDATA, add(CFA_XSP16, literal(-6)))
          CFI (cfiCond150) ?RET_LOW load(1, XDATA, add(CFA_XSP16, literal(-5)))
          CFI (cfiCond150) ?RET_HIGH load(1, XDATA, add(CFA_XSP16, literal(-4)))
          CFI (cfiCond150) ?BRET_EXT load(1, XDATA, add(CFA_XSP16, literal(-3)))
          CFI (cfiCond150) DPL0 load(1, XDATA, add(CFA_XSP16, literal(-2)))
          CFI (cfiCond150) DPH0 load(1, XDATA, add(CFA_XSP16, literal(-1)))
          CFI (cfiCond150) CFA_SP SP+-2
          CFI (cfiCond150) CFA_XSP16 add(XSP16, 14)
          CFI Block cfiCond151 Using cfiCommon0
          CFI (cfiCond151) Function touchLink_UpdateNV
          CFI (cfiCond151) Conditional ??CrossCallReturnLabel_51
          CFI (cfiCond151) R6 load(1, XDATA, add(CFA_XSP16, literal(-10)))
          CFI (cfiCond151) VB load(1, XDATA, add(CFA_XSP16, literal(-9)))
          CFI (cfiCond151) V0 load(1, XDATA, add(CFA_XSP16, literal(-8)))
          CFI (cfiCond151) V1 load(1, XDATA, add(CFA_XSP16, literal(-7)))
          CFI (cfiCond151) R7 load(1, XDATA, add(CFA_XSP16, literal(-6)))
          CFI (cfiCond151) ?RET_LOW load(1, XDATA, add(CFA_XSP16, literal(-5)))
          CFI (cfiCond151) ?RET_HIGH load(1, XDATA, add(CFA_XSP16, literal(-4)))
          CFI (cfiCond151) ?BRET_EXT load(1, XDATA, add(CFA_XSP16, literal(-3)))
          CFI (cfiCond151) DPL0 load(1, XDATA, add(CFA_XSP16, literal(-2)))
          CFI (cfiCond151) DPH0 load(1, XDATA, add(CFA_XSP16, literal(-1)))
          CFI (cfiCond151) CFA_SP SP+-2
          CFI (cfiCond151) CFA_XSP16 add(XSP16, 14)
          CFI Block cfiCond152 Using cfiCommon0
          CFI (cfiCond152) Function touchLink_UpdateNV
          CFI (cfiCond152) Conditional ??CrossCallReturnLabel_52
          CFI (cfiCond152) R6 load(1, XDATA, add(CFA_XSP16, literal(-10)))
          CFI (cfiCond152) VB load(1, XDATA, add(CFA_XSP16, literal(-9)))
          CFI (cfiCond152) V0 load(1, XDATA, add(CFA_XSP16, literal(-8)))
          CFI (cfiCond152) V1 load(1, XDATA, add(CFA_XSP16, literal(-7)))
          CFI (cfiCond152) R7 load(1, XDATA, add(CFA_XSP16, literal(-6)))
          CFI (cfiCond152) ?RET_LOW load(1, XDATA, add(CFA_XSP16, literal(-5)))
          CFI (cfiCond152) ?RET_HIGH load(1, XDATA, add(CFA_XSP16, literal(-4)))
          CFI (cfiCond152) ?BRET_EXT load(1, XDATA, add(CFA_XSP16, literal(-3)))
          CFI (cfiCond152) DPL0 load(1, XDATA, add(CFA_XSP16, literal(-2)))
          CFI (cfiCond152) DPH0 load(1, XDATA, add(CFA_XSP16, literal(-1)))
          CFI (cfiCond152) CFA_SP SP+-2
          CFI (cfiCond152) CFA_XSP16 add(XSP16, 14)
          CFI Block cfiCond153 Using cfiCommon0
          CFI (cfiCond153) Function touchLink_UpdateNV
          CFI (cfiCond153) Conditional ??CrossCallReturnLabel_53
          CFI (cfiCond153) R6 load(1, XDATA, add(CFA_XSP16, literal(-10)))
          CFI (cfiCond153) VB load(1, XDATA, add(CFA_XSP16, literal(-9)))
          CFI (cfiCond153) V0 load(1, XDATA, add(CFA_XSP16, literal(-8)))
          CFI (cfiCond153) V1 load(1, XDATA, add(CFA_XSP16, literal(-7)))
          CFI (cfiCond153) R7 load(1, XDATA, add(CFA_XSP16, literal(-6)))
          CFI (cfiCond153) ?RET_LOW load(1, XDATA, add(CFA_XSP16, literal(-5)))
          CFI (cfiCond153) ?RET_HIGH load(1, XDATA, add(CFA_XSP16, literal(-4)))
          CFI (cfiCond153) ?BRET_EXT load(1, XDATA, add(CFA_XSP16, literal(-3)))
          CFI (cfiCond153) DPL0 load(1, XDATA, add(CFA_XSP16, literal(-2)))
          CFI (cfiCond153) DPH0 load(1, XDATA, add(CFA_XSP16, literal(-1)))
          CFI (cfiCond153) CFA_SP SP+-2
          CFI (cfiCond153) CFA_XSP16 add(XSP16, 14)
          CFI Block cfiCond154 Using cfiCommon0
          CFI (cfiCond154) Function touchLink_UpdateNV
          CFI (cfiCond154) Conditional ??CrossCallReturnLabel_54
          CFI (cfiCond154) R6 load(1, XDATA, add(CFA_XSP16, literal(-10)))
          CFI (cfiCond154) VB load(1, XDATA, add(CFA_XSP16, literal(-9)))
          CFI (cfiCond154) V0 load(1, XDATA, add(CFA_XSP16, literal(-8)))
          CFI (cfiCond154) V1 load(1, XDATA, add(CFA_XSP16, literal(-7)))
          CFI (cfiCond154) R7 load(1, XDATA, add(CFA_XSP16, literal(-6)))
          CFI (cfiCond154) ?RET_LOW load(1, XDATA, add(CFA_XSP16, literal(-5)))
          CFI (cfiCond154) ?RET_HIGH load(1, XDATA, add(CFA_XSP16, literal(-4)))
          CFI (cfiCond154) ?BRET_EXT load(1, XDATA, add(CFA_XSP16, literal(-3)))
          CFI (cfiCond154) DPL0 load(1, XDATA, add(CFA_XSP16, literal(-2)))
          CFI (cfiCond154) DPH0 load(1, XDATA, add(CFA_XSP16, literal(-1)))
          CFI (cfiCond154) CFA_SP SP+-2
          CFI (cfiCond154) CFA_XSP16 add(XSP16, 14)
          CFI Block cfiCond155 Using cfiCommon0
          CFI (cfiCond155) Function touchLink_UpdateNV
          CFI (cfiCond155) Conditional ??CrossCallReturnLabel_55
          CFI (cfiCond155) R6 load(1, XDATA, add(CFA_XSP16, literal(-10)))
          CFI (cfiCond155) VB load(1, XDATA, add(CFA_XSP16, literal(-9)))
          CFI (cfiCond155) V0 load(1, XDATA, add(CFA_XSP16, literal(-8)))
          CFI (cfiCond155) V1 load(1, XDATA, add(CFA_XSP16, literal(-7)))
          CFI (cfiCond155) R7 load(1, XDATA, add(CFA_XSP16, literal(-6)))
          CFI (cfiCond155) ?RET_LOW load(1, XDATA, add(CFA_XSP16, literal(-5)))
          CFI (cfiCond155) ?RET_HIGH load(1, XDATA, add(CFA_XSP16, literal(-4)))
          CFI (cfiCond155) ?BRET_EXT load(1, XDATA, add(CFA_XSP16, literal(-3)))
          CFI (cfiCond155) DPL0 load(1, XDATA, add(CFA_XSP16, literal(-2)))
          CFI (cfiCond155) DPH0 load(1, XDATA, add(CFA_XSP16, literal(-1)))
          CFI (cfiCond155) CFA_SP SP+-2
          CFI (cfiCond155) CFA_XSP16 add(XSP16, 14)
          CFI Block cfiCond156 Using cfiCommon0
          CFI (cfiCond156) Function touchLink_UpdateNV
          CFI (cfiCond156) Conditional ??CrossCallReturnLabel_56
          CFI (cfiCond156) R6 load(1, XDATA, add(CFA_XSP16, literal(-10)))
          CFI (cfiCond156) VB load(1, XDATA, add(CFA_XSP16, literal(-9)))
          CFI (cfiCond156) V0 load(1, XDATA, add(CFA_XSP16, literal(-8)))
          CFI (cfiCond156) V1 load(1, XDATA, add(CFA_XSP16, literal(-7)))
          CFI (cfiCond156) R7 load(1, XDATA, add(CFA_XSP16, literal(-6)))
          CFI (cfiCond156) ?RET_LOW load(1, XDATA, add(CFA_XSP16, literal(-5)))
          CFI (cfiCond156) ?RET_HIGH load(1, XDATA, add(CFA_XSP16, literal(-4)))
          CFI (cfiCond156) ?BRET_EXT load(1, XDATA, add(CFA_XSP16, literal(-3)))
          CFI (cfiCond156) DPL0 load(1, XDATA, add(CFA_XSP16, literal(-2)))
          CFI (cfiCond156) DPH0 load(1, XDATA, add(CFA_XSP16, literal(-1)))
          CFI (cfiCond156) CFA_SP SP+-2
          CFI (cfiCond156) CFA_XSP16 add(XSP16, 14)
          CFI Block cfiPicker157 Using cfiCommon1
          CFI (cfiPicker157) NoFunction
          CFI (cfiPicker157) Picker
        MOV       R3,#0x0
        LCALL     `??osal_nv_write::?relay`; Banked call to: osal_nv_write
        MOV       A,#0x4
        RET
          CFI EndBlock cfiCond149
          CFI EndBlock cfiCond150
          CFI EndBlock cfiCond151
          CFI EndBlock cfiCond152
          CFI EndBlock cfiCond153
          CFI EndBlock cfiCond154
          CFI EndBlock cfiCond155
          CFI EndBlock cfiCond156
          CFI EndBlock cfiPicker157
//  879 
//  880 /*********************************************************************
//  881  * @fn          touchLink_InitNV
//  882  *
//  883  * @brief       Initialize free range RAM variables from NV. If NV items
//  884  *              don't exist, then the NV is initialize with what is in
//  885  *              RAM variables.
//  886  *
//  887  * @param       none
//  888  *
//  889  * @return      none
//  890  */
//  891 static void touchLink_InitNV( void )
//  892 {
//  893   // Initialize our free network address and group ID ranges
//  894   touchLink_ItemInit( ZCD_NV_MIN_FREE_NWK_ADDR, sizeof( touchLinkFreeNwkAddrBegin ), &touchLinkFreeNwkAddrBegin );
//  895   touchLink_ItemInit( ZCD_NV_MAX_FREE_NWK_ADDR, sizeof( touchLinkFreeNwkAddrEnd ), &touchLinkFreeNwkAddrEnd );
//  896   touchLink_ItemInit( ZCD_NV_MIN_FREE_GRP_ID, sizeof( touchLinkFreeGrpIdBegin ), &touchLinkFreeGrpIdBegin );
//  897   touchLink_ItemInit( ZCD_NV_MAX_FREE_GRP_ID, sizeof( touchLinkFreeGrpIdEnd ), &touchLinkFreeGrpIdEnd );
//  898 
//  899   // Initialize our group ID range
//  900   touchLink_ItemInit( ZCD_NV_MIN_GRP_IDS, sizeof( touchLinkGrpIDsBegin ), &touchLinkGrpIDsBegin );
//  901   touchLink_ItemInit( ZCD_NV_MAX_GRP_IDS, sizeof( touchLinkGrpIDsEnd ), &touchLinkGrpIDsEnd );
//  902 }
//  903 
//  904 /*********************************************************************
//  905  * @fn      touchLink_ItemInit
//  906  *
//  907  * @brief   Initialize an NV item. If the item doesn't exist in NV memory,
//  908  *          write the default (value passed in) into NV memory. But if
//  909  *          it exists, set the item to the value stored in NV memory.
//  910  *
//  911  * @param   id - item id
//  912  * @param   len - item len
//  913  * @param   buf - pointer to the item
//  914  *
//  915  * @return  none
//  916  */

        RSEG BANKED_CODE:HUGECODE:NOROOT(0)
//  917 void touchLink_ItemInit( uint16 id, uint16 len, void *pBuf )
touchLink_ItemInit:
          CFI Block cfiBlock158 Using cfiCommon0
          CFI Function touchLink_ItemInit
        CODE
//  918 {
        FUNCALL touchLink_ItemInit, osal_nv_item_init
        LOCFRAME ISTACK, 0, STACK
        LOCFRAME PSTACK, 0, STACK
        LOCFRAME XSTACK, 14, STACK
        LOCFRAME IOVERLAY, 0, STATIC
        LOCFRAME DOVERLAY, 0, STATIC
        ARGFRAME ISTACK, 0, STACK
        ARGFRAME PSTACK, 0, STACK
        ARGFRAME XSTACK, 14, STACK
        ARGFRAME IOVERLAY, 0, STATIC
        ARGFRAME DOVERLAY, 0, STATIC
        FUNCALL touchLink_ItemInit, osal_nv_read
        LOCFRAME ISTACK, 0, STACK
        LOCFRAME PSTACK, 0, STACK
        LOCFRAME XSTACK, 16, STACK
        LOCFRAME IOVERLAY, 0, STATIC
        LOCFRAME DOVERLAY, 0, STATIC
        ARGFRAME ISTACK, 0, STACK
        ARGFRAME PSTACK, 0, STACK
        ARGFRAME XSTACK, 16, STACK
        ARGFRAME IOVERLAY, 0, STATIC
        ARGFRAME DOVERLAY, 0, STATIC
        REQUIRE ?V0
        REQUIRE ?V1
        REQUIRE ?V2
        REQUIRE ?V3
        MOV       A,#-0xc
        LCALL     ?BANKED_ENTER_XDATA
          CFI DPH0 load(1, XDATA, add(CFA_XSP16, literal(-1)))
          CFI DPL0 load(1, XDATA, add(CFA_XSP16, literal(-2)))
          CFI ?BRET_EXT load(1, XDATA, add(CFA_XSP16, literal(-3)))
          CFI ?RET_HIGH load(1, XDATA, add(CFA_XSP16, literal(-4)))
          CFI ?RET_LOW load(1, XDATA, add(CFA_XSP16, literal(-5)))
          CFI R7 load(1, XDATA, add(CFA_XSP16, literal(-6)))
          CFI V3 load(1, XDATA, add(CFA_XSP16, literal(-7)))
          CFI V2 load(1, XDATA, add(CFA_XSP16, literal(-8)))
          CFI V1 load(1, XDATA, add(CFA_XSP16, literal(-9)))
          CFI V0 load(1, XDATA, add(CFA_XSP16, literal(-10)))
          CFI VB load(1, XDATA, add(CFA_XSP16, literal(-11)))
          CFI R6 load(1, XDATA, add(CFA_XSP16, literal(-12)))
          CFI CFA_SP SP+0
          CFI CFA_XSP16 add(XSP16, 12)
        ; Saved register size: 12
        ; Auto size: 0
        MOV       A,R2
        MOV       R6,A
        MOV       A,R3
        MOV       R7,A
        MOV       ?V2,R4
        MOV       ?V3,R5
        MOV       A,#0xc
        LCALL     ?XSTACK_DISP0_8
        LCALL     ?Subroutine27 & 0xFFFF
//  919 #if defined ( NV_RESTORE )
//  920   // If the item doesn't exist in NV memory, create and initialize
//  921   // it with the value passed in.
//  922   if ( osal_nv_item_init( id, len, pBuf ) == ZSuccess )
??CrossCallReturnLabel_43:
        LCALL     ?PUSH_XSTACK_I_TWO
          CFI CFA_XSP16 add(XSP16, 14)
        LCALL     `??osal_nv_item_init::?relay`; Banked call to: osal_nv_item_init
        MOV       A,#0x2
        LCALL     ?DEALLOC_XSTACK8
          CFI CFA_XSP16 add(XSP16, 12)
        MOV       A,R1
        JNZ       ??touchLink_ItemInit_0
//  923   {
//  924     // The item already exists in NV memory, read it from NV memory
//  925     osal_nv_read( id, 0, len, pBuf );
        ; Setup parameters for call to function osal_nv_read
        MOV       R0,#?V0
        LCALL     ?PUSH_XSTACK_I_TWO
          CFI CFA_XSP16 add(XSP16, 14)
        MOV       R0,#?V2
        LCALL     ?PUSH_XSTACK_I_TWO
          CFI CFA_XSP16 add(XSP16, 16)
        MOV       R4,#0x0
        MOV       R5,#0x0
        MOV       A,R6
        MOV       R2,A
        MOV       A,R7
        MOV       R3,A
        LCALL     `??osal_nv_read::?relay`; Banked call to: osal_nv_read
        MOV       A,#0x4
        LCALL     ?DEALLOC_XSTACK8
          CFI CFA_XSP16 add(XSP16, 12)
//  926   }
//  927 #endif // NV_RESTORE
//  928 }
??touchLink_ItemInit_0:
        LJMP      ??Subroutine50_0 & 0xFFFF
          CFI EndBlock cfiBlock158
//  929 
//  930 /*********************************************************************
//  931  * @fn      touchLink_SetMacNwkParams
//  932  *
//  933  * @brief   Configure MAC with our Network Parameters.
//  934  *
//  935  * @param   nwkAddr - network address
//  936  * @param   panId - PAN identifier
//  937  * @param   channel
//  938  *
//  939  * @return  void
//  940  */

        RSEG BANKED_CODE:HUGECODE:NOROOT(0)
//  941 void touchLink_SetMacNwkParams( uint16 nwkAddr, uint16 panId, uint8 channel )
touchLink_SetMacNwkParams:
          CFI Block cfiBlock159 Using cfiCommon0
          CFI Function touchLink_SetMacNwkParams
        CODE
//  942 {
        FUNCALL touchLink_SetMacNwkParams, ZMacSetReq
        LOCFRAME ISTACK, 0, STACK
        LOCFRAME PSTACK, 0, STACK
        LOCFRAME XSTACK, 13, STACK
        LOCFRAME IOVERLAY, 0, STATIC
        LOCFRAME DOVERLAY, 0, STATIC
        ARGFRAME ISTACK, 0, STACK
        ARGFRAME PSTACK, 0, STACK
        ARGFRAME XSTACK, 13, STACK
        ARGFRAME IOVERLAY, 0, STATIC
        ARGFRAME DOVERLAY, 0, STATIC
        FUNCALL touchLink_SetMacNwkParams, ZMacSetReq
        LOCFRAME ISTACK, 0, STACK
        LOCFRAME PSTACK, 0, STACK
        LOCFRAME XSTACK, 13, STACK
        LOCFRAME IOVERLAY, 0, STATIC
        LOCFRAME DOVERLAY, 0, STATIC
        ARGFRAME ISTACK, 0, STACK
        ARGFRAME PSTACK, 0, STACK
        ARGFRAME XSTACK, 13, STACK
        ARGFRAME IOVERLAY, 0, STATIC
        ARGFRAME DOVERLAY, 0, STATIC
        FUNCALL touchLink_SetMacNwkParams, touchLink_SetChannel
        LOCFRAME ISTACK, 0, STACK
        LOCFRAME PSTACK, 0, STACK
        LOCFRAME XSTACK, 13, STACK
        LOCFRAME IOVERLAY, 0, STATIC
        LOCFRAME DOVERLAY, 0, STATIC
        ARGFRAME ISTACK, 0, STACK
        ARGFRAME PSTACK, 0, STACK
        ARGFRAME XSTACK, 13, STACK
        ARGFRAME IOVERLAY, 0, STATIC
        ARGFRAME DOVERLAY, 0, STATIC
        MOV       A,#-0x9
        LCALL     ?BANKED_ENTER_XDATA
          CFI DPH0 load(1, XDATA, add(CFA_XSP16, literal(-1)))
          CFI DPL0 load(1, XDATA, add(CFA_XSP16, literal(-2)))
          CFI ?BRET_EXT load(1, XDATA, add(CFA_XSP16, literal(-3)))
          CFI ?RET_HIGH load(1, XDATA, add(CFA_XSP16, literal(-4)))
          CFI ?RET_LOW load(1, XDATA, add(CFA_XSP16, literal(-5)))
          CFI R7 load(1, XDATA, add(CFA_XSP16, literal(-6)))
          CFI V0 load(1, XDATA, add(CFA_XSP16, literal(-7)))
          CFI VB load(1, XDATA, add(CFA_XSP16, literal(-8)))
          CFI R6 load(1, XDATA, add(CFA_XSP16, literal(-9)))
          CFI CFA_SP SP+0
          CFI CFA_XSP16 add(XSP16, 9)
        ; Saved register size: 9
        ; Auto size: 4
        MOV       A,#-0x4
        LCALL     ?ALLOC_XSTACK8
          CFI CFA_XSP16 add(XSP16, 13)
        MOV       A,#0x2
        LCALL     ?XSTACK_DISP0_8
        MOV       A,R2
        MOVX      @DPTR,A
        INC       DPTR
        MOV       A,R3
        MOVX      @DPTR,A
        MOV       DPL,?XSP + 0
        MOV       DPH,?XSP + 1
        MOV       A,R4
        MOVX      @DPTR,A
        INC       DPTR
        MOV       A,R5
        MOVX      @DPTR,A
        MOV       A,R1
        MOV       R6,A
//  943   // Set our short address
//  944   ZMacSetReq( ZMacShortAddress, (byte*)&nwkAddr );
        ; Setup parameters for call to function ZMacSetReq
        MOV       A,#0x2
        LCALL     ?XSTACK_DISP101_8
        MOV       R1,#0x53
        LCALL     `??ZMacSetReq::?relay`; Banked call to: ZMacSetReq
//  945 
//  946   // Set our PAN ID
//  947   ZMacSetReq( ZMacPanId, (byte*)&panId );
        ; Setup parameters for call to function ZMacSetReq
        MOV       R2,?XSP + 0
        MOV       R3,?XSP + 1
        MOV       R1,#0x50
        LCALL     `??ZMacSetReq::?relay`; Banked call to: ZMacSetReq
//  948 
//  949   // Tune to the selected logical channel
//  950   touchLink_SetChannel( channel );
        ; Setup parameters for call to function touchLink_SetChannel
        MOV       A,R6
        MOV       R1,A
        LCALL     `??touchLink_SetChannel::?relay`; Banked call to: touchLink_SetChannel
//  951 }
        MOV       A,#0x4
        LCALL     ?DEALLOC_XSTACK8
          CFI CFA_XSP16 add(XSP16, 9)
        LJMP      ?Subroutine5 & 0xFFFF
          CFI EndBlock cfiBlock159
//  952 
//  953 /*********************************************************************
//  954  * @fn      touchLink_SetChannel
//  955  *
//  956  * @brief   Set our channel.
//  957  *
//  958  * @param   channel - new channel to change to
//  959  *
//  960  * @return  void
//  961  */

        RSEG BANKED_CODE:HUGECODE:NOROOT(0)
//  962 void touchLink_SetChannel( uint8 channel )
touchLink_SetChannel:
          CFI Block cfiBlock160 Using cfiCommon0
          CFI Function touchLink_SetChannel
        CODE
//  963 {
        FUNCALL touchLink_SetChannel, bdb_setChannel
        LOCFRAME ISTACK, 0, STACK
        LOCFRAME PSTACK, 0, STACK
        LOCFRAME XSTACK, 13, STACK
        LOCFRAME IOVERLAY, 0, STATIC
        LOCFRAME DOVERLAY, 0, STATIC
        ARGFRAME ISTACK, 0, STACK
        ARGFRAME PSTACK, 0, STACK
        ARGFRAME XSTACK, 13, STACK
        ARGFRAME IOVERLAY, 0, STATIC
        ARGFRAME DOVERLAY, 0, STATIC
        FUNCALL touchLink_SetChannel, ZMacSetReq
        LOCFRAME ISTACK, 0, STACK
        LOCFRAME PSTACK, 0, STACK
        LOCFRAME XSTACK, 13, STACK
        LOCFRAME IOVERLAY, 0, STATIC
        LOCFRAME DOVERLAY, 0, STATIC
        ARGFRAME ISTACK, 0, STACK
        ARGFRAME PSTACK, 0, STACK
        ARGFRAME XSTACK, 13, STACK
        ARGFRAME IOVERLAY, 0, STATIC
        ARGFRAME DOVERLAY, 0, STATIC
        REQUIRE ?V0
        REQUIRE ?V1
        REQUIRE ?V2
        REQUIRE ?V3
        MOV       A,#-0xc
        LCALL     ?BANKED_ENTER_XDATA
          CFI DPH0 load(1, XDATA, add(CFA_XSP16, literal(-1)))
          CFI DPL0 load(1, XDATA, add(CFA_XSP16, literal(-2)))
          CFI ?BRET_EXT load(1, XDATA, add(CFA_XSP16, literal(-3)))
          CFI ?RET_HIGH load(1, XDATA, add(CFA_XSP16, literal(-4)))
          CFI ?RET_LOW load(1, XDATA, add(CFA_XSP16, literal(-5)))
          CFI R7 load(1, XDATA, add(CFA_XSP16, literal(-6)))
          CFI V3 load(1, XDATA, add(CFA_XSP16, literal(-7)))
          CFI V2 load(1, XDATA, add(CFA_XSP16, literal(-8)))
          CFI V1 load(1, XDATA, add(CFA_XSP16, literal(-9)))
          CFI V0 load(1, XDATA, add(CFA_XSP16, literal(-10)))
          CFI VB load(1, XDATA, add(CFA_XSP16, literal(-11)))
          CFI R6 load(1, XDATA, add(CFA_XSP16, literal(-12)))
          CFI CFA_SP SP+0
          CFI CFA_XSP16 add(XSP16, 12)
        ; Saved register size: 12
        ; Auto size: 1
        MOV       A,#-0x1
        LCALL     ?ALLOC_XSTACK8
          CFI CFA_XSP16 add(XSP16, 13)
        MOV       A,R1
        MOV       DPL,?XSP + 0
        MOV       DPH,?XSP + 1
        MOVX      @DPTR,A
//  964   bdb_setChannel( (uint32) ( 1L << channel ) );
        ; Setup parameters for call to function bdb_setChannel
        MOV       ?V0,#0x1
        MOV       ?V1,#0x0
        MOV       ?V2,#0x0
        MOV       ?V3,#0x0
        MOV       R0,#?V0
        LCALL     ?L_SHL
        MOV       R2,?V0
        MOV       R3,?V1
        MOV       R4,?V2
        MOV       R5,?V3
        LCALL     `??bdb_setChannel::?relay`; Banked call to: bdb_setChannel
//  965 
//  966   // Set the new channel
//  967   ZMacSetReq( ZMacChannel, &channel );
        ; Setup parameters for call to function ZMacSetReq
        MOV       R2,?XSP + 0
        MOV       R3,?XSP + 1
        MOV       R1,#-0x1f
        LCALL     `??ZMacSetReq::?relay`; Banked call to: ZMacSetReq
//  968 }
        MOV       A,#0x1
        LJMP      ?Subroutine4 & 0xFFFF
          CFI EndBlock cfiBlock160
//  969 
//  970 /*********************************************************************
//  971  * @fn      touchLink_SendDeviceInfoRsp
//  972  *
//  973  * @brief   Send out a Device Information Response command.
//  974  *
//  975  * @param   srcEP - sender's endpoint
//  976  * @param   dstAddr - destination address
//  977  * @param   startIndex - start index
//  978  * @param   transID - received transaction id
//  979  * @param   seqNum - received sequence number
//  980  *
//  981  * @return  ZStatus_t
//  982  */

        RSEG BANKED_CODE:HUGECODE:NOROOT(0)
//  983 uint8 touchLink_SendDeviceInfoRsp( uint8 srcEP, afAddrType_t *dstAddr, uint8 startIndex,
touchLink_SendDeviceInfoRsp:
          CFI Block cfiBlock161 Using cfiCommon0
          CFI Function touchLink_SendDeviceInfoRsp
        CODE
//  984                              uint32 transID, uint8 seqNum )
//  985 {
        FUNCALL touchLink_SendDeviceInfoRsp, touchLink_GetNumSubDevices
        LOCFRAME ISTACK, 0, STACK
        LOCFRAME PSTACK, 0, STACK
        LOCFRAME XSTACK, 17, STACK
        LOCFRAME IOVERLAY, 0, STATIC
        LOCFRAME DOVERLAY, 0, STATIC
        ARGFRAME ISTACK, 0, STACK
        ARGFRAME PSTACK, 0, STACK
        ARGFRAME XSTACK, 17, STACK
        ARGFRAME IOVERLAY, 0, STATIC
        ARGFRAME DOVERLAY, 0, STATIC
        FUNCALL touchLink_SendDeviceInfoRsp, osal_mem_alloc
        LOCFRAME ISTACK, 0, STACK
        LOCFRAME PSTACK, 0, STACK
        LOCFRAME XSTACK, 17, STACK
        LOCFRAME IOVERLAY, 0, STATIC
        LOCFRAME DOVERLAY, 0, STATIC
        ARGFRAME ISTACK, 0, STACK
        ARGFRAME PSTACK, 0, STACK
        ARGFRAME XSTACK, 17, STACK
        ARGFRAME IOVERLAY, 0, STATIC
        ARGFRAME DOVERLAY, 0, STATIC
        FUNCALL touchLink_SendDeviceInfoRsp, touchLink_GetNumSubDevices
        LOCFRAME ISTACK, 0, STACK
        LOCFRAME PSTACK, 0, STACK
        LOCFRAME XSTACK, 17, STACK
        LOCFRAME IOVERLAY, 0, STATIC
        LOCFRAME DOVERLAY, 0, STATIC
        ARGFRAME ISTACK, 0, STACK
        ARGFRAME PSTACK, 0, STACK
        ARGFRAME XSTACK, 17, STACK
        ARGFRAME IOVERLAY, 0, STATIC
        ARGFRAME DOVERLAY, 0, STATIC
        FUNCALL touchLink_SendDeviceInfoRsp, NLME_GetExtAddr
        LOCFRAME ISTACK, 0, STACK
        LOCFRAME PSTACK, 0, STACK
        LOCFRAME XSTACK, 17, STACK
        LOCFRAME IOVERLAY, 0, STATIC
        LOCFRAME DOVERLAY, 0, STATIC
        ARGFRAME ISTACK, 0, STACK
        ARGFRAME PSTACK, 0, STACK
        ARGFRAME XSTACK, 17, STACK
        ARGFRAME IOVERLAY, 0, STATIC
        ARGFRAME DOVERLAY, 0, STATIC
        FUNCALL touchLink_SendDeviceInfoRsp, sAddrExtCpy
        LOCFRAME ISTACK, 0, STACK
        LOCFRAME PSTACK, 0, STACK
        LOCFRAME XSTACK, 17, STACK
        LOCFRAME IOVERLAY, 0, STATIC
        LOCFRAME DOVERLAY, 0, STATIC
        ARGFRAME ISTACK, 0, STACK
        ARGFRAME PSTACK, 0, STACK
        ARGFRAME XSTACK, 17, STACK
        ARGFRAME IOVERLAY, 0, STATIC
        ARGFRAME DOVERLAY, 0, STATIC
        FUNCALL touchLink_SendDeviceInfoRsp, touchLink_GetSubDeviceInfo
        LOCFRAME ISTACK, 0, STACK
        LOCFRAME PSTACK, 0, STACK
        LOCFRAME XSTACK, 17, STACK
        LOCFRAME IOVERLAY, 0, STATIC
        LOCFRAME DOVERLAY, 0, STATIC
        ARGFRAME ISTACK, 0, STACK
        ARGFRAME PSTACK, 0, STACK
        ARGFRAME XSTACK, 17, STACK
        ARGFRAME IOVERLAY, 0, STATIC
        ARGFRAME DOVERLAY, 0, STATIC
        FUNCALL touchLink_SendDeviceInfoRsp, bdbTL_Send_DeviceInfoRsp
        LOCFRAME ISTACK, 0, STACK
        LOCFRAME PSTACK, 0, STACK
        LOCFRAME XSTACK, 18, STACK
        LOCFRAME IOVERLAY, 0, STATIC
        LOCFRAME DOVERLAY, 0, STATIC
        ARGFRAME ISTACK, 0, STACK
        ARGFRAME PSTACK, 0, STACK
        ARGFRAME XSTACK, 18, STACK
        ARGFRAME IOVERLAY, 0, STATIC
        ARGFRAME DOVERLAY, 0, STATIC
        FUNCALL touchLink_SendDeviceInfoRsp, osal_mem_free
        LOCFRAME ISTACK, 0, STACK
        LOCFRAME PSTACK, 0, STACK
        LOCFRAME XSTACK, 17, STACK
        LOCFRAME IOVERLAY, 0, STATIC
        LOCFRAME DOVERLAY, 0, STATIC
        ARGFRAME ISTACK, 0, STACK
        ARGFRAME PSTACK, 0, STACK
        ARGFRAME XSTACK, 17, STACK
        ARGFRAME IOVERLAY, 0, STATIC
        ARGFRAME DOVERLAY, 0, STATIC
        REQUIRE ?V0
        REQUIRE ?V1
        REQUIRE ?V2
        REQUIRE ?V3
        REQUIRE ?V4
        REQUIRE ?V5
        REQUIRE ?V6
        REQUIRE ?V7
        REQUIRE ?V8
        MOV       A,#-0x11
        LCALL     ?BANKED_ENTER_XDATA
          CFI DPH0 load(1, XDATA, add(CFA_XSP16, literal(-1)))
          CFI DPL0 load(1, XDATA, add(CFA_XSP16, literal(-2)))
          CFI ?BRET_EXT load(1, XDATA, add(CFA_XSP16, literal(-3)))
          CFI ?RET_HIGH load(1, XDATA, add(CFA_XSP16, literal(-4)))
          CFI ?RET_LOW load(1, XDATA, add(CFA_XSP16, literal(-5)))
          CFI R7 load(1, XDATA, add(CFA_XSP16, literal(-6)))
          CFI V8 load(1, XDATA, add(CFA_XSP16, literal(-7)))
          CFI V7 load(1, XDATA, add(CFA_XSP16, literal(-8)))
          CFI V6 load(1, XDATA, add(CFA_XSP16, literal(-9)))
          CFI V5 load(1, XDATA, add(CFA_XSP16, literal(-10)))
          CFI V4 load(1, XDATA, add(CFA_XSP16, literal(-11)))
          CFI V3 load(1, XDATA, add(CFA_XSP16, literal(-12)))
          CFI V2 load(1, XDATA, add(CFA_XSP16, literal(-13)))
          CFI V1 load(1, XDATA, add(CFA_XSP16, literal(-14)))
          CFI V0 load(1, XDATA, add(CFA_XSP16, literal(-15)))
          CFI VB load(1, XDATA, add(CFA_XSP16, literal(-16)))
          CFI R6 load(1, XDATA, add(CFA_XSP16, literal(-17)))
          CFI CFA_SP SP+0
          CFI CFA_XSP16 add(XSP16, 17)
        ; Saved register size: 17
        ; Auto size: 0
        MOV       ?V4,R1
        MOV       ?V6,R2
        MOV       ?V7,R3
        MOV       ?V1,R4
        MOV       ?V5,R5
//  986   bdbTLDeviceInfoRsp_t *pRsp;
//  987   uint8 cnt;
//  988   uint8 rspLen;
//  989   uint8 status = ZSuccess;
//  990 
//  991   cnt = touchLink_GetNumSubDevices( startIndex );
        ; Setup parameters for call to function touchLink_GetNumSubDevices
        MOV       R1,?V1
        LCALL     `??touchLink_GetNumSubDevices::?relay`; Banked call to: touchLink_GetNumSubDevices
        MOV       A,R1
        MOV       ?V0,A
//  992   if ( cnt > TOUCHLINK_DEVICE_INFO_RSP_REC_COUNT_MAX )
        CLR       C
        SUBB      A,#0x6
        JC        ??touchLink_SendDeviceInfoRsp_0
//  993   {
//  994     cnt = TOUCHLINK_DEVICE_INFO_RSP_REC_COUNT_MAX; // should be between 0x00-0x05
        MOV       ?V0,#0x5
//  995   }
//  996 
//  997   rspLen = sizeof( bdbTLDeviceInfoRsp_t ) + ( cnt * sizeof( devInfoRec_t ) );
//  998 
//  999   pRsp = (bdbTLDeviceInfoRsp_t *)osal_mem_alloc( rspLen );
??touchLink_SendDeviceInfoRsp_0:
        ; Setup parameters for call to function osal_mem_alloc
        MOV       A,?V0
        SWAP      A
        ANL       A,#0xf0
        ADD       A,#0x17
        MOV       R2,A
        MOV       R3,#0x0
        LCALL     `??osal_mem_alloc::?relay`; Banked call to: osal_mem_alloc
        MOV       ?V2,R2
        MOV       ?V3,R3
        MOV       R6,?V2
        MOV       R7,?V3
// 1000   if ( pRsp )
        MOV       A,R2
        ORL       A,R7
        JNZ       $+5
        LJMP      ??touchLink_SendDeviceInfoRsp_1 & 0xFFFF
// 1001   {
// 1002     pRsp->transID = transID;
        MOV       A,#0x11
        LCALL     ?XSTACK_DISP0_8
        LCALL     ?XLOAD_R0123
        MOV       DPL,R6
        MOV       DPH,R7
        LCALL     ?XSTORE_R0123
// 1003 
// 1004     pRsp->numSubDevices = touchLink_GetNumSubDevices( 0 );
        ; Setup parameters for call to function touchLink_GetNumSubDevices
        MOV       R1,#0x0
        LCALL     `??touchLink_GetNumSubDevices::?relay`; Banked call to: touchLink_GetNumSubDevices
        MOV       A,R1
        MOV       DPL,R6
        MOV       DPH,R7
        INC       DPTR
        INC       DPTR
        INC       DPTR
        INC       DPTR
        LCALL     ?Subroutine41 & 0xFFFF
// 1005     pRsp->startIndex = startIndex;
??CrossCallReturnLabel_76:
        MOV       A,?V1
        LCALL     ?Subroutine12 & 0xFFFF
// 1006     pRsp->cnt = cnt;
??CrossCallReturnLabel_13:
        MOV       A,?V0
        MOVX      @DPTR,A
// 1007 
// 1008     for ( uint8 i = 0; i < cnt; i++ )
        MOV       ?V8,#0x0
        SJMP      ??touchLink_SendDeviceInfoRsp_2
// 1009     {
// 1010       devInfoRec_t *pRec = &(pRsp->devInfoRec[i]);
??touchLink_SendDeviceInfoRsp_3:
        MOV       A,?V8
        MOV       ?V2,A
        MOV       ?V3,#0x0
        MOV       A,#0x4
        MOV       R0,#?V2
        LCALL     ?S_SHL
        MOV       A,R6
        ADD       A,?V2
        MOV       R0,A
        MOV       A,R7
        ADDC      A,?V3
        MOV       R1,A
        MOV       A,R0
        ADD       A,#0x7
        MOV       ?V2,A
        CLR       A
        ADDC      A,R1
        MOV       ?V3,A
// 1011 
// 1012       osal_cpyExtAddr( pRec->ieeeAddr, NLME_GetExtAddr() );
        ; Setup parameters for call to function sAddrExtCpy
        ; Setup parameters for call to function NLME_GetExtAddr
        LCALL     `??NLME_GetExtAddr::?relay`; Banked call to: NLME_GetExtAddr
        MOV       A,R2
        MOV       R4,A
        MOV       A,R3
        MOV       R5,A
        MOV       R2,?V2
        MOV       R3,?V3
        LCALL     `??sAddrExtCpy::?relay`; Banked call to: sAddrExtCpy
// 1013 
// 1014       touchLink_GetSubDeviceInfo( startIndex + i, &(pRec->deviceInfo) );
        ; Setup parameters for call to function touchLink_GetSubDeviceInfo
        MOV       A,?V2
        ADD       A,#0x8
        MOV       R2,A
        CLR       A
        ADDC      A,?V3
        MOV       R3,A
        MOV       A,?V1
        ADD       A,?V8
        MOV       R1,A
        LCALL     `??touchLink_GetSubDeviceInfo::?relay`; Banked call to: touchLink_GetSubDeviceInfo
// 1015 
// 1016       pRec->sort = 0;
        MOV       A,?V2
        ADD       A,#0xf
        MOV       DPL,A
        CLR       A
        ADDC      A,?V3
        MOV       DPH,A
        CLR       A
        MOVX      @DPTR,A
// 1017     }
        INC       ?V8
??touchLink_SendDeviceInfoRsp_2:
        MOV       A,?V8
        CLR       C
        SUBB      A,?V0
        JC        ??touchLink_SendDeviceInfoRsp_3
// 1018 
// 1019     // Send a response back
// 1020     status = bdbTL_Send_DeviceInfoRsp( srcEP, dstAddr, pRsp, seqNum );
        ; Setup parameters for call to function bdbTL_Send_DeviceInfoRsp
        MOV       A,?V5
        MOV       ?V0,A
        MOV       R0,#?V0
        LCALL     ?PUSH_XSTACK_I_ONE
          CFI CFA_XSP16 add(XSP16, 18)
        MOV       A,R6
        MOV       R4,A
        MOV       A,R7
        MOV       R5,A
        MOV       R2,?V6
        MOV       R3,?V7
        MOV       R1,?V4
        LCALL     `??bdbTL_Send_DeviceInfoRsp::?relay`; Banked call to: bdbTL_Send_DeviceInfoRsp
        MOV       A,#0x1
        LCALL     ?DEALLOC_XSTACK8
          CFI CFA_XSP16 add(XSP16, 17)
        MOV       A,R1
        MOV       ?V0,A
// 1021 
// 1022     osal_mem_free( pRsp );
        ; Setup parameters for call to function osal_mem_free
        MOV       A,R6
        MOV       R2,A
        MOV       A,R7
        MOV       R3,A
        LCALL     `??osal_mem_free::?relay`; Banked call to: osal_mem_free
        SJMP      ??touchLink_SendDeviceInfoRsp_4
// 1023   }
// 1024   else
// 1025   {
// 1026     status = ZMemError;
??touchLink_SendDeviceInfoRsp_1:
        MOV       ?V0,#0x10
// 1027   }
// 1028 
// 1029   return ( status );
??touchLink_SendDeviceInfoRsp_4:
        MOV       R1,?V0
        MOV       R7,#0x9
        LJMP      ?BANKED_LEAVE_XDATA
// 1030 }
          CFI EndBlock cfiBlock161
// 1031 
// 1032 /*********************************************************************
// 1033  * @fn      touchLink_SendLeaveReq
// 1034  *
// 1035  * @brief   Send out a Leave Request command.
// 1036  *
// 1037  * @param   void
// 1038  *
// 1039  * @return  ZStatus_t
// 1040  */

        RSEG BANKED_CODE:HUGECODE:NOROOT(0)
// 1041 ZStatus_t touchLink_SendLeaveReq( void )
touchLink_SendLeaveReq:
          CFI Block cfiBlock162 Using cfiCommon0
          CFI Function touchLink_SendLeaveReq
        CODE
// 1042 {
        FUNCALL touchLink_SendLeaveReq, osal_memset
        LOCFRAME ISTACK, 2, STACK
        LOCFRAME PSTACK, 0, STACK
        LOCFRAME XSTACK, 5, STACK
        LOCFRAME IOVERLAY, 0, STATIC
        LOCFRAME DOVERLAY, 0, STATIC
        ARGFRAME ISTACK, 2, STACK
        ARGFRAME PSTACK, 0, STACK
        ARGFRAME XSTACK, 5, STACK
        ARGFRAME IOVERLAY, 0, STATIC
        ARGFRAME DOVERLAY, 0, STATIC
        FUNCALL touchLink_SendLeaveReq, NLME_LeaveReq
        LOCFRAME ISTACK, 2, STACK
        LOCFRAME PSTACK, 0, STACK
        LOCFRAME XSTACK, 5, STACK
        LOCFRAME IOVERLAY, 0, STATIC
        LOCFRAME DOVERLAY, 0, STATIC
        ARGFRAME ISTACK, 2, STACK
        ARGFRAME PSTACK, 0, STACK
        ARGFRAME XSTACK, 5, STACK
        ARGFRAME IOVERLAY, 0, STATIC
        ARGFRAME DOVERLAY, 0, STATIC
        PUSH      DPL
          CFI DPL0 Frame(CFA_SP, 4)
          CFI CFA_SP SP+-4
        PUSH      DPH
          CFI DPH0 Frame(CFA_SP, 5)
          CFI CFA_SP SP+-5
        ; Saved register size: 2
        ; Auto size: 5
        MOV       A,#-0x5
        LCALL     ?ALLOC_XSTACK8
          CFI CFA_XSP16 add(XSP16, 5)
// 1043   NLME_LeaveReq_t leaveReq;
// 1044   
// 1045   // Set every field to 0
// 1046   osal_memset( &leaveReq, 0, sizeof( NLME_LeaveReq_t ) );
        ; Setup parameters for call to function osal_memset
        MOV       R4,#0x5
        MOV       R5,#0x0
        MOV       R1,#0x0
        MOV       R2,?XSP + 0
        MOV       R3,?XSP + 1
        LCALL     `??osal_memset::?relay`; Banked call to: osal_memset
// 1047   
// 1048   // Send out our leave
// 1049   return ( NLME_LeaveReq( &leaveReq ) );
        ; Setup parameters for call to function NLME_LeaveReq
        MOV       R2,?XSP + 0
        MOV       R3,?XSP + 1
        LCALL     `??NLME_LeaveReq::?relay`; Banked call to: NLME_LeaveReq
        MOV       A,#0x5
        LCALL     ?DEALLOC_XSTACK8
          CFI CFA_XSP16 XSP16+0
        LJMP      ??Subroutine46_0 & 0xFFFF
// 1050 }
          CFI EndBlock cfiBlock162
// 1051 
// 1052 /*********************************************************************
// 1053  * @fn      touchLink_GetMsgRssi
// 1054  *
// 1055  * @brief   Get the RSSI of the message just received through a ZCL callback.
// 1056  *
// 1057  * @param   none
// 1058  *
// 1059  * @return  RSSI if AF message was received, TOUCHLINK_WORST_RSSI otherwise.
// 1060  */

        RSEG BANKED_CODE:HUGECODE:NOROOT(0)
// 1061 int8 touchLink_GetMsgRssi( void )
touchLink_GetMsgRssi:
          CFI Block cfiBlock163 Using cfiCommon0
          CFI Function touchLink_GetMsgRssi
        CODE
// 1062 {
        FUNCALL touchLink_GetMsgRssi, zcl_getRawAFMsg
        LOCFRAME ISTACK, 0, STACK
        LOCFRAME PSTACK, 0, STACK
        LOCFRAME XSTACK, 10, STACK
        LOCFRAME IOVERLAY, 0, STATIC
        LOCFRAME DOVERLAY, 0, STATIC
        ARGFRAME ISTACK, 0, STACK
        ARGFRAME PSTACK, 0, STACK
        ARGFRAME XSTACK, 10, STACK
        ARGFRAME IOVERLAY, 0, STATIC
        ARGFRAME DOVERLAY, 0, STATIC
        REQUIRE ?V0
        REQUIRE ?V1
        MOV       A,#-0xa
        LCALL     ?BANKED_ENTER_XDATA
          CFI DPH0 load(1, XDATA, add(CFA_XSP16, literal(-1)))
          CFI DPL0 load(1, XDATA, add(CFA_XSP16, literal(-2)))
          CFI ?BRET_EXT load(1, XDATA, add(CFA_XSP16, literal(-3)))
          CFI ?RET_HIGH load(1, XDATA, add(CFA_XSP16, literal(-4)))
          CFI ?RET_LOW load(1, XDATA, add(CFA_XSP16, literal(-5)))
          CFI R7 load(1, XDATA, add(CFA_XSP16, literal(-6)))
          CFI V1 load(1, XDATA, add(CFA_XSP16, literal(-7)))
          CFI V0 load(1, XDATA, add(CFA_XSP16, literal(-8)))
          CFI VB load(1, XDATA, add(CFA_XSP16, literal(-9)))
          CFI R6 load(1, XDATA, add(CFA_XSP16, literal(-10)))
          CFI CFA_SP SP+0
          CFI CFA_XSP16 add(XSP16, 10)
        ; Saved register size: 10
        ; Auto size: 0
// 1063   afIncomingMSGPacket_t *pAF = zcl_getRawAFMsg();
        ; Setup parameters for call to function zcl_getRawAFMsg
        LCALL     `??zcl_getRawAFMsg::?relay`; Banked call to: zcl_getRawAFMsg
        MOV       ?V1,R3
        MOV       R1,?V1
// 1064 
// 1065   if ( pAF != NULL )
        MOV       A,R2
        ORL       A,R1
        JZ        ??touchLink_GetMsgRssi_0
// 1066   {
// 1067     return ( pAF->rssi );
        MOV       A,R2
        ADD       A,#0x18
        MOV       DPL,A
        CLR       A
        ADDC      A,R1
        MOV       DPH,A
        MOVX      A,@DPTR
        MOV       R1,A
        SJMP      ??touchLink_GetMsgRssi_1
// 1068   }
// 1069 
// 1070   return ( TOUCHLINK_WORST_RSSI );
??touchLink_GetMsgRssi_0:
        MOV       R1,#-0x46
??touchLink_GetMsgRssi_1:
        LJMP      ?Subroutine0 & 0xFFFF
// 1071 }
          CFI EndBlock cfiBlock163
// 1072 
// 1073 /*********************************************************************
// 1074  * @fn      touchLink_NewNwkUpdateId
// 1075  *
// 1076  * @brief   Determine the new network update id. The nwkUpdateId attribute
// 1077  *          can take the value of 0x00 - 0xff and may wrap around so care
// 1078  *          must be taken when comparing for newness.
// 1079  *
// 1080  * @param   ID1 - first nwk update id
// 1081  * @param   ID2 - second nwk update id
// 1082  *
// 1083  * @return  new nwk update ID
// 1084  */

        RSEG BANKED_CODE:HUGECODE:NOROOT(0)
// 1085 uint8 touchLink_NewNwkUpdateId( uint8 ID1, uint8 ID2 )
touchLink_NewNwkUpdateId:
          CFI Block cfiBlock164 Using cfiCommon0
          CFI Function touchLink_NewNwkUpdateId
        CODE
// 1086 {
        MOV       A,R6
          CFI R6 A
        PUSH      A
          CFI R6 Frame(CFA_SP, 4)
          CFI CFA_SP SP+-4
        ; Saved register size: 1
        ; Auto size: 0
        MOV       A,R1
        MOV       R6,A
// 1087   if ( ( (ID1 >= ID2) && ((ID1 - ID2) > 200) )
// 1088       || ( (ID1 < ID2) && ((ID2 - ID1) > 200) ) )
        MOV       A,R2
        MOV       R4,A
        MOV       A,R1
        MOV       R0,A
        CLR       C
        SUBB      A,R2
        JC        ??touchLink_NewNwkUpdateId_0
        MOV       A,R1
        CLR       C
        SUBB      A,R4
        LCALL     ?Subroutine36 & 0xFFFF
??CrossCallReturnLabel_67:
        JNC       ??touchLink_NewNwkUpdateId_1
        MOV       A,R6
??touchLink_NewNwkUpdateId_2:
        MOV       R3,A
        MOV       A,R3
??touchLink_NewNwkUpdateId_3:
        MOV       R1,A
        POP       A
          CFI R6 A
          CFI CFA_SP SP+-3
        MOV       R6,A
          CFI R6 SameValue
        LJMP      ?BRET
          CFI R6 Frame(CFA_SP, 4)
          CFI CFA_SP SP+-4
??touchLink_NewNwkUpdateId_0:
        MOV       A,R2
        CLR       C
        SUBB      A,R0
        LCALL     ?Subroutine36 & 0xFFFF
??CrossCallReturnLabel_68:
        JC        ??touchLink_NewNwkUpdateId_4
        MOV       A,R6
        SJMP      ??touchLink_NewNwkUpdateId_3
??touchLink_NewNwkUpdateId_1:
        MOV       A,R2
        SJMP      ??touchLink_NewNwkUpdateId_3
??touchLink_NewNwkUpdateId_4:
        MOV       A,R2
        SJMP      ??touchLink_NewNwkUpdateId_2
// 1089   {
// 1090     return ( MIN( ID1, ID2 ) );
// 1091   }
// 1092 
// 1093   return ( MAX( ID1, ID2 ) );
// 1094 }
          CFI EndBlock cfiBlock164

        RSEG BANKED_CODE:HUGECODE:NOROOT(0)
?Subroutine36:
          CFI Block cfiCond165 Using cfiCommon0
          CFI Function touchLink_NewNwkUpdateId
          CFI Conditional ??CrossCallReturnLabel_67
          CFI R6 Frame(CFA_SP, 4)
          CFI CFA_SP SP+-6
          CFI Block cfiCond166 Using cfiCommon0
          CFI (cfiCond166) Function touchLink_NewNwkUpdateId
          CFI (cfiCond166) Conditional ??CrossCallReturnLabel_68
          CFI (cfiCond166) R6 Frame(CFA_SP, 4)
          CFI (cfiCond166) CFA_SP SP+-6
          CFI Block cfiPicker167 Using cfiCommon1
          CFI (cfiPicker167) NoFunction
          CFI (cfiPicker167) Picker
        MOV       R0,A
        SUBB      A,0xE0 /* A   */
        MOV       R1,A
        CLR       C
        MOV       A,R0
        SUBB      A,#-0x37
        MOV       A,R1
        SUBB      A,#0x0
        MOV       C,0xD0 /* PSW */.2
        XRL       A,PSW
        RLC       A
        RET
          CFI EndBlock cfiCond165
          CFI EndBlock cfiCond166
          CFI EndBlock cfiPicker167
// 1095 
// 1096 /*********************************************************************
// 1097  * @fn      touchLink_SetTouchLinkTaskId
// 1098  *
// 1099  * @brief   Register Target/Initiator taskID for commissioning events
// 1100  *
// 1101  * @param   taskID
// 1102  *
// 1103  * @return  none
// 1104  */

        RSEG BANKED_CODE:HUGECODE:NOROOT(0)
// 1105 void touchLink_SetTouchLinkTaskId( uint8 taskID )
touchLink_SetTouchLinkTaskId:
          CFI Block cfiBlock168 Using cfiCommon0
          CFI Function touchLink_SetTouchLinkTaskId
        CODE
// 1106 {
        FUNCALL touchLink_SetTouchLinkTaskId, bdb_RegisterSimpleDescriptor
        LOCFRAME ISTACK, 0, STACK
        LOCFRAME PSTACK, 0, STACK
        LOCFRAME XSTACK, 9, STACK
        LOCFRAME IOVERLAY, 0, STATIC
        LOCFRAME DOVERLAY, 0, STATIC
        ARGFRAME ISTACK, 0, STACK
        ARGFRAME PSTACK, 0, STACK
        ARGFRAME XSTACK, 9, STACK
        ARGFRAME IOVERLAY, 0, STATIC
        ARGFRAME DOVERLAY, 0, STATIC
        FUNCALL touchLink_SetTouchLinkTaskId, StubAPS_RegisterApp
        LOCFRAME ISTACK, 0, STACK
        LOCFRAME PSTACK, 0, STACK
        LOCFRAME XSTACK, 9, STACK
        LOCFRAME IOVERLAY, 0, STATIC
        LOCFRAME DOVERLAY, 0, STATIC
        ARGFRAME ISTACK, 0, STACK
        ARGFRAME PSTACK, 0, STACK
        ARGFRAME XSTACK, 9, STACK
        ARGFRAME IOVERLAY, 0, STATIC
        ARGFRAME DOVERLAY, 0, STATIC
        MOV       A,#-0x9
        LCALL     ?BANKED_ENTER_XDATA
          CFI DPH0 load(1, XDATA, add(CFA_XSP16, literal(-1)))
          CFI DPL0 load(1, XDATA, add(CFA_XSP16, literal(-2)))
          CFI ?BRET_EXT load(1, XDATA, add(CFA_XSP16, literal(-3)))
          CFI ?RET_HIGH load(1, XDATA, add(CFA_XSP16, literal(-4)))
          CFI ?RET_LOW load(1, XDATA, add(CFA_XSP16, literal(-5)))
          CFI R7 load(1, XDATA, add(CFA_XSP16, literal(-6)))
          CFI V0 load(1, XDATA, add(CFA_XSP16, literal(-7)))
          CFI VB load(1, XDATA, add(CFA_XSP16, literal(-8)))
          CFI R6 load(1, XDATA, add(CFA_XSP16, literal(-9)))
          CFI CFA_SP SP+0
          CFI CFA_XSP16 add(XSP16, 9)
        ; Saved register size: 9
        ; Auto size: 0
        MOV       A,R1
// 1107   touchLinkTaskId = taskID;
        MOV       DPTR,#touchLinkTaskId
        MOVX      @DPTR,A
// 1108 
// 1109   // register internal EP for TOUCHLINK messages
// 1110   bdb_RegisterSimpleDescriptor( &touchLink_EP_SimpleDesc );
        ; Setup parameters for call to function bdb_RegisterSimpleDescriptor
        MOV       R2,#touchLink_EP_SimpleDesc & 0xff
        MOV       R3,#(touchLink_EP_SimpleDesc >> 8) & 0xff
        LCALL     `??bdb_RegisterSimpleDescriptor::?relay`; Banked call to: bdb_RegisterSimpleDescriptor
// 1111 
// 1112 #if defined( INTER_PAN )
// 1113   // Register with Stub APS
// 1114   StubAPS_RegisterApp( &touchLink_EP );
        ; Setup parameters for call to function StubAPS_RegisterApp
        MOV       R2,#touchLink_EP & 0xff
        MOV       R3,#(touchLink_EP >> 8) & 0xff
        LCALL     `??StubAPS_RegisterApp::?relay`; Banked call to: StubAPS_RegisterApp
// 1115 #endif // INTER_PAN
// 1116 }
        LJMP      ?Subroutine5 & 0xFFFF
          CFI EndBlock cfiBlock168
// 1117 
// 1118 /*********************************************************************
// 1119  * @fn      touchLink_PerformNetworkDisc
// 1120  *
// 1121  * @brief   Perform a Network Discovery scan.
// 1122  *          Scan results will be stored locally to analyze.
// 1123  *
// 1124  * @param   scanChannelList - channels to perform discovery scan
// 1125  *
// 1126  * @return  void
// 1127  */

        RSEG BANKED_CODE:HUGECODE:NOROOT(0)
// 1128 void touchLink_PerformNetworkDisc( uint32 scanChannelList )
touchLink_PerformNetworkDisc:
          CFI Block cfiBlock169 Using cfiCommon0
          CFI Function touchLink_PerformNetworkDisc
        CODE
// 1129 {
        FUNCALL touchLink_PerformNetworkDisc, NLME_NwkDiscReq2
        LOCFRAME ISTACK, 0, STACK
        LOCFRAME PSTACK, 0, STACK
        LOCFRAME XSTACK, 19, STACK
        LOCFRAME IOVERLAY, 0, STATIC
        LOCFRAME DOVERLAY, 0, STATIC
        ARGFRAME ISTACK, 0, STACK
        ARGFRAME PSTACK, 0, STACK
        ARGFRAME XSTACK, 19, STACK
        ARGFRAME IOVERLAY, 0, STATIC
        ARGFRAME DOVERLAY, 0, STATIC
        FUNCALL touchLink_PerformNetworkDisc, ZDO_RegisterForZdoCB
        LOCFRAME ISTACK, 0, STACK
        LOCFRAME PSTACK, 0, STACK
        LOCFRAME XSTACK, 19, STACK
        LOCFRAME IOVERLAY, 0, STATIC
        LOCFRAME DOVERLAY, 0, STATIC
        ARGFRAME ISTACK, 0, STACK
        ARGFRAME PSTACK, 0, STACK
        ARGFRAME XSTACK, 19, STACK
        ARGFRAME IOVERLAY, 0, STATIC
        ARGFRAME DOVERLAY, 0, STATIC
        FUNCALL touchLink_PerformNetworkDisc, ZDO_RegisterForZdoCB
        LOCFRAME ISTACK, 0, STACK
        LOCFRAME PSTACK, 0, STACK
        LOCFRAME XSTACK, 19, STACK
        LOCFRAME IOVERLAY, 0, STATIC
        LOCFRAME DOVERLAY, 0, STATIC
        ARGFRAME ISTACK, 0, STACK
        ARGFRAME PSTACK, 0, STACK
        ARGFRAME XSTACK, 19, STACK
        ARGFRAME IOVERLAY, 0, STATIC
        ARGFRAME DOVERLAY, 0, STATIC
        FUNCALL touchLink_PerformNetworkDisc, NLME_NwkDiscTerm
        LOCFRAME ISTACK, 0, STACK
        LOCFRAME PSTACK, 0, STACK
        LOCFRAME XSTACK, 19, STACK
        LOCFRAME IOVERLAY, 0, STATIC
        LOCFRAME DOVERLAY, 0, STATIC
        ARGFRAME ISTACK, 0, STACK
        ARGFRAME PSTACK, 0, STACK
        ARGFRAME XSTACK, 19, STACK
        ARGFRAME IOVERLAY, 0, STATIC
        ARGFRAME DOVERLAY, 0, STATIC
        REQUIRE ?V0
        REQUIRE ?V1
        REQUIRE ?V2
        REQUIRE ?V3
        MOV       A,#-0xc
        LCALL     ?BANKED_ENTER_XDATA
          CFI DPH0 load(1, XDATA, add(CFA_XSP16, literal(-1)))
          CFI DPL0 load(1, XDATA, add(CFA_XSP16, literal(-2)))
          CFI ?BRET_EXT load(1, XDATA, add(CFA_XSP16, literal(-3)))
          CFI ?RET_HIGH load(1, XDATA, add(CFA_XSP16, literal(-4)))
          CFI ?RET_LOW load(1, XDATA, add(CFA_XSP16, literal(-5)))
          CFI R7 load(1, XDATA, add(CFA_XSP16, literal(-6)))
          CFI V3 load(1, XDATA, add(CFA_XSP16, literal(-7)))
          CFI V2 load(1, XDATA, add(CFA_XSP16, literal(-8)))
          CFI V1 load(1, XDATA, add(CFA_XSP16, literal(-9)))
          CFI V0 load(1, XDATA, add(CFA_XSP16, literal(-10)))
          CFI VB load(1, XDATA, add(CFA_XSP16, literal(-11)))
          CFI R6 load(1, XDATA, add(CFA_XSP16, literal(-12)))
          CFI CFA_SP SP+0
          CFI CFA_XSP16 add(XSP16, 12)
        ; Saved register size: 12
        ; Auto size: 7
        MOV       A,#-0x7
        LCALL     ?ALLOC_XSTACK8
          CFI CFA_XSP16 add(XSP16, 19)
        MOV       ?V0,R2
        MOV       ?V1,R3
        MOV       ?V2,R4
        MOV       ?V3,R5
// 1130   NLME_ScanFields_t scan;
// 1131 
// 1132   scan.channels = scanChannelList;
        MOV       DPL,?XSP + 0
        MOV       DPH,?XSP + 1
        MOV       R0,#?V0
        LCALL     ?L_MOV_TO_X
// 1133   scan.duration = BEACON_ORDER_240_MSEC;
        MOV       A,#0x4
        LCALL     ?XSTACK_DISP0_8
        MOV       A,#0x4
        MOVX      @DPTR,A
// 1134   scan.scanType = ZMAC_ACTIVE_SCAN;
        INC       A
        LCALL     ?XSTACK_DISP0_8
        MOV       A,#0x1
        MOVX      @DPTR,A
// 1135   scan.scanApp  = NLME_DISC_SCAN;
        MOV       A,#0x6
        LCALL     ?XSTACK_DISP0_8
        MOV       A,#0x1
        MOVX      @DPTR,A
// 1136 
// 1137   if ( NLME_NwkDiscReq2( &scan ) == ZSuccess )
        ; Setup parameters for call to function NLME_NwkDiscReq2
        MOV       R2,?XSP + 0
        MOV       R3,?XSP + 1
        LCALL     `??NLME_NwkDiscReq2::?relay`; Banked call to: NLME_NwkDiscReq2
        MOV       A,R1
        JNZ       ??touchLink_PerformNetworkDisc_0
// 1138   {
// 1139     // Register ZDO callback to handle the network discovery confirm and
// 1140     // beacon notification confirm
// 1141     ZDO_RegisterForZdoCB( ZDO_NWK_DISCOVERY_CNF_CBID, touchLink_NwkDiscoveryCnfCB );
        ; Setup parameters for call to function ZDO_RegisterForZdoCB
        MOV       R2,#`??touchLink_NwkDiscoveryCnfCB::?relay` & 0xff
        MOV       R3,#(`??touchLink_NwkDiscoveryCnfCB::?relay` >> 8) & 0xff
        MOV       R1,#0x2
        LCALL     `??ZDO_RegisterForZdoCB::?relay`; Banked call to: ZDO_RegisterForZdoCB
// 1142     ZDO_RegisterForZdoCB( ZDO_BEACON_NOTIFY_IND_CBID, touchLink_BeaconIndCB );
        ; Setup parameters for call to function ZDO_RegisterForZdoCB
        MOV       R2,#`??touchLink_BeaconIndCB::?relay` & 0xff
        MOV       R3,#(`??touchLink_BeaconIndCB::?relay` >> 8) & 0xff
        MOV       R1,#0x3
        LCALL     `??ZDO_RegisterForZdoCB::?relay`; Banked call to: ZDO_RegisterForZdoCB
        SJMP      ??touchLink_PerformNetworkDisc_1
// 1143   }
// 1144   else
// 1145   {
// 1146     NLME_NwkDiscTerm();
??touchLink_PerformNetworkDisc_0:
        ; Setup parameters for call to function NLME_NwkDiscTerm
        LCALL     `??NLME_NwkDiscTerm::?relay`; Banked call to: NLME_NwkDiscTerm
// 1147   }
// 1148 }
??touchLink_PerformNetworkDisc_1:
        MOV       A,#0x7
        LJMP      ?Subroutine4 & 0xFFFF
          CFI EndBlock cfiBlock169
// 1149 
// 1150 /*********************************************************************
// 1151  * @fn      touchLink_BeaconIndCB
// 1152  *
// 1153  * @brief   Process the incoming beacon indication.
// 1154  *
// 1155  * @param   param -  pointer to a parameter and a structure of parameters
// 1156  *
// 1157  * @return  void
// 1158  */

        RSEG BANKED_CODE:HUGECODE:NOROOT(0)
// 1159 static void *touchLink_BeaconIndCB ( void *param )
touchLink_BeaconIndCB:
          CFI Block cfiBlock170 Using cfiCommon0
          CFI Function touchLink_BeaconIndCB
        CODE
// 1160 {
        FUNCALL touchLink_BeaconIndCB, osal_mem_alloc
        LOCFRAME ISTACK, 0, STACK
        LOCFRAME PSTACK, 0, STACK
        LOCFRAME XSTACK, 18, STACK
        LOCFRAME IOVERLAY, 0, STATIC
        LOCFRAME DOVERLAY, 0, STATIC
        ARGFRAME ISTACK, 0, STACK
        ARGFRAME PSTACK, 0, STACK
        ARGFRAME XSTACK, 18, STACK
        ARGFRAME IOVERLAY, 0, STATIC
        ARGFRAME DOVERLAY, 0, STATIC
        FUNCALL touchLink_BeaconIndCB, osal_memset
        LOCFRAME ISTACK, 0, STACK
        LOCFRAME PSTACK, 0, STACK
        LOCFRAME XSTACK, 18, STACK
        LOCFRAME IOVERLAY, 0, STATIC
        LOCFRAME DOVERLAY, 0, STATIC
        ARGFRAME ISTACK, 0, STACK
        ARGFRAME PSTACK, 0, STACK
        ARGFRAME XSTACK, 18, STACK
        ARGFRAME IOVERLAY, 0, STATIC
        ARGFRAME DOVERLAY, 0, STATIC
        FUNCALL touchLink_BeaconIndCB, sAddrExtCpy
        LOCFRAME ISTACK, 0, STACK
        LOCFRAME PSTACK, 0, STACK
        LOCFRAME XSTACK, 18, STACK
        LOCFRAME IOVERLAY, 0, STATIC
        LOCFRAME DOVERLAY, 0, STATIC
        ARGFRAME ISTACK, 0, STACK
        ARGFRAME PSTACK, 0, STACK
        ARGFRAME XSTACK, 18, STACK
        ARGFRAME IOVERLAY, 0, STATIC
        ARGFRAME DOVERLAY, 0, STATIC
        FUNCALL touchLink_BeaconIndCB, osal_memset
        LOCFRAME ISTACK, 0, STACK
        LOCFRAME PSTACK, 0, STACK
        LOCFRAME XSTACK, 18, STACK
        LOCFRAME IOVERLAY, 0, STATIC
        LOCFRAME DOVERLAY, 0, STATIC
        ARGFRAME ISTACK, 0, STACK
        ARGFRAME PSTACK, 0, STACK
        ARGFRAME XSTACK, 18, STACK
        ARGFRAME IOVERLAY, 0, STATIC
        ARGFRAME DOVERLAY, 0, STATIC
        REQUIRE ?V0
        REQUIRE ?V1
        REQUIRE ?V2
        REQUIRE ?V3
        REQUIRE ?V4
        REQUIRE ?V5
        REQUIRE ?V6
        REQUIRE ?V7
        REQUIRE ?V8
        REQUIRE ?V9
        MOV       A,#-0x12
        LCALL     ?BANKED_ENTER_XDATA
          CFI DPH0 load(1, XDATA, add(CFA_XSP16, literal(-1)))
          CFI DPL0 load(1, XDATA, add(CFA_XSP16, literal(-2)))
          CFI ?BRET_EXT load(1, XDATA, add(CFA_XSP16, literal(-3)))
          CFI ?RET_HIGH load(1, XDATA, add(CFA_XSP16, literal(-4)))
          CFI ?RET_LOW load(1, XDATA, add(CFA_XSP16, literal(-5)))
          CFI R7 load(1, XDATA, add(CFA_XSP16, literal(-6)))
          CFI V9 load(1, XDATA, add(CFA_XSP16, literal(-7)))
          CFI V8 load(1, XDATA, add(CFA_XSP16, literal(-8)))
          CFI V7 load(1, XDATA, add(CFA_XSP16, literal(-9)))
          CFI V6 load(1, XDATA, add(CFA_XSP16, literal(-10)))
          CFI V5 load(1, XDATA, add(CFA_XSP16, literal(-11)))
          CFI V4 load(1, XDATA, add(CFA_XSP16, literal(-12)))
          CFI V3 load(1, XDATA, add(CFA_XSP16, literal(-13)))
          CFI V2 load(1, XDATA, add(CFA_XSP16, literal(-14)))
          CFI V1 load(1, XDATA, add(CFA_XSP16, literal(-15)))
          CFI V0 load(1, XDATA, add(CFA_XSP16, literal(-16)))
          CFI VB load(1, XDATA, add(CFA_XSP16, literal(-17)))
          CFI R6 load(1, XDATA, add(CFA_XSP16, literal(-18)))
          CFI CFA_SP SP+0
          CFI CFA_XSP16 add(XSP16, 18)
        ; Saved register size: 18
        ; Auto size: 0
        MOV       ?V0,R2
        MOV       ?V1,R3
// 1161   NLME_beaconInd_t *pBeacon = param;
// 1162   touchLinkDiscoveredNwkParam_t *pParam = pDiscoveredNwkParamList;
        MOV       DPTR,#pDiscoveredNwkParamList
        LCALL     ?Subroutine24 & 0xFFFF
// 1163   touchLinkDiscoveredNwkParam_t *pLastParam;
// 1164   uint8 found = FALSE;
??CrossCallReturnLabel_37:
        MOV       A,R2
        ADD       A,#0x4
        MOV       ?V4,A
        CLR       A
        ADDC      A,?V1
        MOV       ?V5,A
        MOV       A,R2
        ADD       A,#0x2
        MOV       ?V2,A
        CLR       A
        ADDC      A,?V1
        MOV       ?V3,A
        SJMP      ??CrossCallReturnLabel_38
// 1165 
// 1166 
// 1167   // Add the network parameter to the Network Parameter List
// 1168   while ( pParam != NULL )
// 1169   {
// 1170     if ( ( pParam->PANID == pBeacon->panID ) &&
// 1171         ( pParam->logicalChannel == pBeacon->logicalChannel ) )
??touchLink_BeaconIndCB_0:
        MOV       DPL,R6
        MOV       DPH,R7
        INC       DPTR
        INC       DPTR
        LCALL     ??Subroutine53_0 & 0xFFFF
??CrossCallReturnLabel_109:
        MOV       DPL,?V2
        MOV       DPH,?V3
        MOVX      A,@DPTR
        XRL       A,R0
        JNZ       ??touchLink_BeaconIndCB_1
        INC       DPTR
        MOVX      A,@DPTR
        XRL       A,R1
??touchLink_BeaconIndCB_1:
        JNZ       ??touchLink_BeaconIndCB_2
        MOV       DPL,R6
        MOV       DPH,R7
        INC       DPTR
        INC       DPTR
        INC       DPTR
        INC       DPTR
        MOVX      A,@DPTR
        MOV       R0,A
        MOV       DPL,?V4
        MOV       DPH,?V5
        MOVX      A,@DPTR
        XRL       A,R0
        JZ        ??touchLink_BeaconIndCB_3
// 1172     {
// 1173       found = TRUE;
// 1174       break;
// 1175     }
// 1176     
// 1177     pLastParam = pParam;
??touchLink_BeaconIndCB_2:
        MOV       ?V6,R6
        MOV       ?V7,R7
// 1178     pParam = pParam->nextParam;
        MOV       DPL,R6
        MOV       DPH,R7
        LCALL     ?Subroutine24 & 0xFFFF
// 1179   }
??CrossCallReturnLabel_38:
        MOV       A,R6
        ORL       A,R7
        JNZ       ??touchLink_BeaconIndCB_0
// 1180   
// 1181   // If no existing parameter found, make a new one and add to the list
// 1182   if ( found == FALSE )
// 1183   {
// 1184     pParam = osal_mem_alloc( sizeof( touchLinkDiscoveredNwkParam_t ) );
        ; Setup parameters for call to function osal_mem_alloc
        MOV       R2,#0x13
        MOV       R3,#0x0
        LCALL     `??osal_mem_alloc::?relay`; Banked call to: osal_mem_alloc
        MOV       ?V8,R2
        MOV       ?V9,R3
        MOV       R6,?V8
        MOV       R7,?V9
// 1185     if ( pParam == NULL )
        MOV       A,R2
        ORL       A,R7
        JNZ       $+5
        LJMP      ??touchLink_BeaconIndCB_4 & 0xFFFF
// 1186     {
// 1187       // Memory alloc failed, discard this beacon
// 1188       return ( NULL );
// 1189     }
// 1190     
// 1191     // Clear the network descriptor
// 1192     osal_memset( pParam, 0, sizeof( touchLinkDiscoveredNwkParam_t )  );
        ; Setup parameters for call to function osal_memset
        MOV       R4,#0x13
        MOV       R5,#0x0
        MOV       R1,#0x0
        LCALL     `??osal_memset::?relay`; Banked call to: osal_memset
// 1193     
// 1194     // Initialize the descriptor
// 1195     pParam->chosenRouter = INVALID_NODE_ADDR;
        LCALL     ?Subroutine35 & 0xFFFF
??CrossCallReturnLabel_65:
        MOV       A,#-0x2
        MOVX      @DPTR,A
        INC       DPTR
        INC       A
        MOVX      @DPTR,A
// 1196     pParam->chosenRouterDepth = 0xFF;
        MOV       A,R6
        ADD       A,#0x10
        MOV       DPL,A
        CLR       A
        ADDC      A,R7
        MOV       DPH,A
        MOV       A,#-0x1
        MOVX      @DPTR,A
// 1197     
// 1198     // Save new entry into the descriptor list
// 1199     if ( pDiscoveredNwkParamList == NULL )
        MOV       DPTR,#pDiscoveredNwkParamList
        LCALL     ??Subroutine43_0 & 0xFFFF
??CrossCallReturnLabel_83:
        JNZ       ??touchLink_BeaconIndCB_5
// 1200     {
// 1201       // First element in the list
// 1202       pDiscoveredNwkParamList = pParam;
        MOV       DPTR,#pDiscoveredNwkParamList
        SJMP      ??touchLink_BeaconIndCB_6
// 1203     }
// 1204     else
// 1205     {
// 1206       // Last element in the list
// 1207       pLastParam->nextParam = pParam;
??touchLink_BeaconIndCB_5:
        MOV       DPL,?V6
        MOV       DPH,?V7
??touchLink_BeaconIndCB_6:
        MOV       A,R6
        MOVX      @DPTR,A
        INC       DPTR
        MOV       A,R7
        MOVX      @DPTR,A
// 1208     }
// 1209   }
// 1210   
// 1211   // Update the descriptor with the incoming beacon
// 1212   pParam->logicalChannel = pBeacon->logicalChannel;
??touchLink_BeaconIndCB_3:
        MOV       DPL,?V4
        MOV       DPH,?V5
        MOVX      A,@DPTR
        MOV       DPL,R6
        MOV       DPH,R7
        INC       DPTR
        INC       DPTR
        INC       DPTR
        INC       DPTR
        LCALL     ?Subroutine19 & 0xFFFF
// 1213   pParam->PANID          = pBeacon->panID;
??CrossCallReturnLabel_25:
        MOV       R0,A
        INC       DPTR
        MOVX      A,@DPTR
        MOV       R1,A
        MOV       DPL,R6
        MOV       DPH,R7
        INC       DPTR
        INC       DPTR
        LCALL     ??Subroutine51_0 & 0xFFFF
// 1214   
// 1215   // Save the extended PAN ID from the beacon payload only if 1.1 version network
// 1216   if ( pBeacon->protocolVersion != ZB_PROT_V1_0 )
??CrossCallReturnLabel_103:
        MOV       A,R6
        ADD       A,#0x5
        MOV       R2,A
        CLR       A
        ADDC      A,R7
        MOV       R3,A
        MOV       DPL,?V0
        MOV       DPH,?V1
        INC       DPTR
        INC       DPTR
        INC       DPTR
        INC       DPTR
        INC       DPTR
        INC       DPTR
        INC       DPTR
        INC       DPTR
        MOVX      A,@DPTR
        XRL       A,#0x1
        JZ        ??touchLink_BeaconIndCB_7
// 1217   {
// 1218     osal_cpyExtAddr( pParam->extendedPANID, pBeacon->extendedPanID );
        ; Setup parameters for call to function sAddrExtCpy
        MOV       A,?V0
        ADD       A,#0xd
        MOV       R4,A
        CLR       A
        ADDC      A,?V1
        MOV       R5,A
        LCALL     `??sAddrExtCpy::?relay`; Banked call to: sAddrExtCpy
        SJMP      ??touchLink_BeaconIndCB_8
// 1219   }
// 1220   else
// 1221   {
// 1222     osal_memset( pParam->extendedPANID, 0xFF, Z_EXTADDR_LEN );
??touchLink_BeaconIndCB_7:
        ; Setup parameters for call to function osal_memset
        MOV       R4,#0x8
        MOV       R5,#0x0
        MOV       R1,#-0x1
        LCALL     `??osal_memset::?relay`; Banked call to: osal_memset
// 1223   }
// 1224   
// 1225   // check if this device is a better choice to join...
// 1226   // ...dont bother checking assocPermit flag is doing a rejoin
// 1227   if ( pBeacon->LQI > gMIN_TREE_LQI )
??touchLink_BeaconIndCB_8:
        MOV       A,?V0
        ADD       A,#0xa
        MOV       R0,A
        CLR       A
        ADDC      A,?V1
        MOV       R1,A
        MOV       DPL,R0
        MOV       DPH,A
        MOVX      A,@DPTR
        MOV       R2,A
        MOV       DPTR,#gMIN_TREE_LQI
        MOVX      A,@DPTR
        CLR       C
        SUBB      A,R2
        JC        $+5
        LJMP      ??touchLink_BeaconIndCB_4 & 0xFFFF
// 1228   {
// 1229     uint8 selected = FALSE;
// 1230     uint8 capacity = FALSE;
// 1231     
// 1232     if ( _NIB.spare3 == ZIGBEEPRO )
        MOV       A,?V0
        ADD       A,#0x6
        MOV       R2,A
        CLR       A
        ADDC      A,?V1
        MOV       R3,A
        MOV       A,R6
        ADD       A,#0x10
        MOV       R4,A
        CLR       A
        ADDC      A,R7
        MOV       R5,A
        MOV       A,?V0
        ADD       A,#0xb
        MOV       ?V2,A
        CLR       A
        ADDC      A,?V1
        MOV       ?V3,A
        MOV       A,R6
        ADD       A,#0xf
        MOV       ?V4,A
        CLR       A
        ADDC      A,R7
        MOV       ?V5,A
        MOV       DPTR,#_NIB + 96
        MOVX      A,@DPTR
        XRL       A,#0x1
        JNZ       ??touchLink_BeaconIndCB_9
// 1233     {
// 1234       if ( ((pBeacon->LQI   > pParam->chosenRouterLinkQuality) &&
// 1235             (pBeacon->depth < MAX_NODE_DEPTH)) ||
// 1236           ((pBeacon->LQI   == pParam->chosenRouterLinkQuality) &&
// 1237            (pBeacon->depth < pParam->chosenRouterDepth)) )
        MOV       DPL,R0
        MOV       DPH,R1
        MOVX      A,@DPTR
        MOV       ?V7,A
        MOV       DPL,?V4
        MOV       DPH,?V5
        MOVX      A,@DPTR
        MOV       ?V6,A
        CLR       C
        SUBB      A,?V7
        JNC       ??touchLink_BeaconIndCB_10
        MOV       DPL,?V2
        MOV       DPH,?V3
        MOVX      A,@DPTR
        CLR       C
        SUBB      A,#0x14
        JC        ??touchLink_BeaconIndCB_11
??touchLink_BeaconIndCB_10:
        MOV       A,?V6
        XRL       A,?V7
        JNZ       ??touchLink_BeaconIndCB_12
// 1238       {
// 1239         selected = TRUE;
// 1240       }
// 1241     }
// 1242     else
// 1243     {
// 1244       if ( pBeacon->depth < pParam->chosenRouterDepth )
??touchLink_BeaconIndCB_9:
        MOV       DPL,R4
        MOV       DPH,R5
        MOVX      A,@DPTR
        MOV       ?V6,A
        MOV       DPL,?V2
        MOV       DPH,?V3
        MOVX      A,@DPTR
        CLR       C
        SUBB      A,?V6
        JNC       ??touchLink_BeaconIndCB_12
// 1245       {
// 1246         selected = TRUE;
// 1247       }
// 1248     }
// 1249     
// 1250     capacity = pBeacon->routerCapacity;
// 1251     
// 1252     if ( (capacity) && (selected) )
??touchLink_BeaconIndCB_11:
        MOV       DPL,R2
        MOV       DPH,R3
        MOVX      A,@DPTR
        JZ        ??touchLink_BeaconIndCB_12
// 1253     {
// 1254       // this is the new chosen router for joining...
// 1255       pParam->chosenRouter            = pBeacon->sourceAddr;
        MOV       DPL,?V0
        MOV       DPH,?V1
        MOVX      A,@DPTR
        MOV       ?V6,A
        INC       DPTR
        MOVX      A,@DPTR
        MOV       ?V7,A
        LCALL     ?Subroutine35 & 0xFFFF
??CrossCallReturnLabel_66:
        MOV       A,?V6
        MOVX      @DPTR,A
        INC       DPTR
        MOV       A,?V7
        MOVX      @DPTR,A
// 1256       pParam->chosenRouterLinkQuality = pBeacon->LQI;
        MOV       DPL,R0
        MOV       DPH,R1
        MOVX      A,@DPTR
        MOV       DPL,?V4
        MOV       DPH,?V5
        LCALL     ?Subroutine19 & 0xFFFF
// 1257       pParam->chosenRouterDepth       = pBeacon->depth;
// 1258     }
??CrossCallReturnLabel_26:
        MOV       DPL,R4
        MOV       DPH,R5
        MOVX      @DPTR,A
// 1259     
// 1260     if ( pBeacon->deviceCapacity )
??touchLink_BeaconIndCB_12:
        MOV       DPL,?V0
        MOV       DPH,?V1
        INC       DPTR
        INC       DPTR
        INC       DPTR
        INC       DPTR
        INC       DPTR
        INC       DPTR
        INC       DPTR
        MOVX      A,@DPTR
        JZ        ??touchLink_BeaconIndCB_13
// 1261       pParam->deviceCapacity = 1;
        MOV       A,R6
        ADD       A,#0x12
        MOV       DPL,A
        CLR       A
        ADDC      A,R7
        MOV       DPH,A
        MOV       A,#0x1
        MOVX      @DPTR,A
// 1262     
// 1263     if ( pBeacon->routerCapacity )
??touchLink_BeaconIndCB_13:
        MOV       DPL,R2
        MOV       DPH,R3
        MOVX      A,@DPTR
        JZ        ??touchLink_BeaconIndCB_4
// 1264       pParam->routerCapacity = 1;
        MOV       A,R6
        ADD       A,#0x11
        MOV       DPL,A
        CLR       A
        ADDC      A,R7
        MOV       DPH,A
        MOV       A,#0x1
        MOVX      @DPTR,A
// 1265   }
// 1266     
// 1267   return ( NULL );
??touchLink_BeaconIndCB_4:
        MOV       R2,#0x0
        MOV       R3,#0x0
        LJMP      ?Subroutine2 & 0xFFFF
// 1268 }
          CFI EndBlock cfiBlock170

        RSEG BANKED_CODE:HUGECODE:NOROOT(0)
?Subroutine35:
          CFI Block cfiCond171 Using cfiCommon0
          CFI Function touchLink_BeaconIndCB
          CFI Conditional ??CrossCallReturnLabel_65
          CFI R6 load(1, XDATA, add(CFA_XSP16, literal(-18)))
          CFI VB load(1, XDATA, add(CFA_XSP16, literal(-17)))
          CFI V0 load(1, XDATA, add(CFA_XSP16, literal(-16)))
          CFI V1 load(1, XDATA, add(CFA_XSP16, literal(-15)))
          CFI V2 load(1, XDATA, add(CFA_XSP16, literal(-14)))
          CFI V3 load(1, XDATA, add(CFA_XSP16, literal(-13)))
          CFI V4 load(1, XDATA, add(CFA_XSP16, literal(-12)))
          CFI V5 load(1, XDATA, add(CFA_XSP16, literal(-11)))
          CFI V6 load(1, XDATA, add(CFA_XSP16, literal(-10)))
          CFI V7 load(1, XDATA, add(CFA_XSP16, literal(-9)))
          CFI V8 load(1, XDATA, add(CFA_XSP16, literal(-8)))
          CFI V9 load(1, XDATA, add(CFA_XSP16, literal(-7)))
          CFI R7 load(1, XDATA, add(CFA_XSP16, literal(-6)))
          CFI ?RET_LOW load(1, XDATA, add(CFA_XSP16, literal(-5)))
          CFI ?RET_HIGH load(1, XDATA, add(CFA_XSP16, literal(-4)))
          CFI ?BRET_EXT load(1, XDATA, add(CFA_XSP16, literal(-3)))
          CFI DPL0 load(1, XDATA, add(CFA_XSP16, literal(-2)))
          CFI DPH0 load(1, XDATA, add(CFA_XSP16, literal(-1)))
          CFI CFA_SP SP+-2
          CFI CFA_XSP16 add(XSP16, 18)
          CFI Block cfiCond172 Using cfiCommon0
          CFI (cfiCond172) Function touchLink_BeaconIndCB
          CFI (cfiCond172) Conditional ??CrossCallReturnLabel_66
          CFI (cfiCond172) R6 load(1, XDATA, add(CFA_XSP16, literal(-18)))
          CFI (cfiCond172) VB load(1, XDATA, add(CFA_XSP16, literal(-17)))
          CFI (cfiCond172) V0 load(1, XDATA, add(CFA_XSP16, literal(-16)))
          CFI (cfiCond172) V1 load(1, XDATA, add(CFA_XSP16, literal(-15)))
          CFI (cfiCond172) V2 load(1, XDATA, add(CFA_XSP16, literal(-14)))
          CFI (cfiCond172) V3 load(1, XDATA, add(CFA_XSP16, literal(-13)))
          CFI (cfiCond172) V4 load(1, XDATA, add(CFA_XSP16, literal(-12)))
          CFI (cfiCond172) V5 load(1, XDATA, add(CFA_XSP16, literal(-11)))
          CFI (cfiCond172) V6 load(1, XDATA, add(CFA_XSP16, literal(-10)))
          CFI (cfiCond172) V7 load(1, XDATA, add(CFA_XSP16, literal(-9)))
          CFI (cfiCond172) V8 load(1, XDATA, add(CFA_XSP16, literal(-8)))
          CFI (cfiCond172) V9 load(1, XDATA, add(CFA_XSP16, literal(-7)))
          CFI (cfiCond172) R7 load(1, XDATA, add(CFA_XSP16, literal(-6)))
          CFI (cfiCond172) ?RET_LOW load(1, XDATA, add(CFA_XSP16, literal(-5)))
          CFI (cfiCond172) ?RET_HIGH load(1, XDATA, add(CFA_XSP16, literal(-4)))
          CFI (cfiCond172) ?BRET_EXT load(1, XDATA, add(CFA_XSP16, literal(-3)))
          CFI (cfiCond172) DPL0 load(1, XDATA, add(CFA_XSP16, literal(-2)))
          CFI (cfiCond172) DPH0 load(1, XDATA, add(CFA_XSP16, literal(-1)))
          CFI (cfiCond172) CFA_SP SP+-2
          CFI (cfiCond172) CFA_XSP16 add(XSP16, 18)
          CFI Block cfiPicker173 Using cfiCommon1
          CFI (cfiPicker173) NoFunction
          CFI (cfiPicker173) Picker
        MOV       A,R6
        ADD       A,#0xd
        MOV       DPL,A
        CLR       A
        ADDC      A,R7
        MOV       DPH,A
        RET
          CFI EndBlock cfiCond171
          CFI EndBlock cfiCond172
          CFI EndBlock cfiPicker173

        RSEG BANKED_CODE:HUGECODE:NOROOT(0)
?Subroutine26:
          CFI Block cfiCond174 Using cfiCommon0
          CFI Function touchLink_UpdateFreeRanges
          CFI Conditional ??CrossCallReturnLabel_112
          CFI DPL0 Frame(CFA_SP, 4)
          CFI DPH0 Frame(CFA_SP, 5)
          CFI CFA_SP SP+-7
          CFI Block cfiCond175 Using cfiCommon0
          CFI (cfiCond175) Function touchLink_UpdateFreeRanges
          CFI (cfiCond175) Conditional ??CrossCallReturnLabel_113
          CFI (cfiCond175) DPL0 Frame(CFA_SP, 4)
          CFI (cfiCond175) DPH0 Frame(CFA_SP, 5)
          CFI (cfiCond175) CFA_SP SP+-7
          CFI Block cfiCond176 Using cfiCommon0
          CFI (cfiCond176) Function touchLink_UpdateFreeRanges
          CFI (cfiCond176) Conditional ??CrossCallReturnLabel_114
          CFI (cfiCond176) DPL0 Frame(CFA_SP, 4)
          CFI (cfiCond176) DPH0 Frame(CFA_SP, 5)
          CFI (cfiCond176) CFA_SP SP+-7
          CFI Block cfiCond177 Using cfiCommon0
          CFI (cfiCond177) Function touchLink_UpdateFreeRanges
          CFI (cfiCond177) Conditional ??CrossCallReturnLabel_115
          CFI (cfiCond177) DPL0 Frame(CFA_SP, 4)
          CFI (cfiCond177) DPH0 Frame(CFA_SP, 5)
          CFI (cfiCond177) CFA_SP SP+-7
          CFI Block cfiCond178 Using cfiCommon0
          CFI (cfiCond178) Function touchLink_UpdateFreeRanges
          CFI (cfiCond178) Conditional ??CrossCallReturnLabel_116
          CFI (cfiCond178) DPL0 Frame(CFA_SP, 4)
          CFI (cfiCond178) DPH0 Frame(CFA_SP, 5)
          CFI (cfiCond178) CFA_SP SP+-7
          CFI Block cfiCond179 Using cfiCommon0
          CFI (cfiCond179) Function touchLink_UpdateFreeRanges
          CFI (cfiCond179) Conditional ??CrossCallReturnLabel_117
          CFI (cfiCond179) DPL0 Frame(CFA_SP, 4)
          CFI (cfiCond179) DPH0 Frame(CFA_SP, 5)
          CFI (cfiCond179) CFA_SP SP+-7
          CFI Block cfiPicker180 Using cfiCommon1
          CFI (cfiPicker180) NoFunction
          CFI (cfiPicker180) Picker
        MOV       DPL,A
        CLR       A
        ADDC      A,R3
          CFI EndBlock cfiCond174
          CFI EndBlock cfiCond175
          CFI EndBlock cfiCond176
          CFI EndBlock cfiCond177
          CFI EndBlock cfiCond178
          CFI EndBlock cfiCond179
          CFI EndBlock cfiPicker180
        REQUIRE ??Subroutine52_0
        ; // Fall through to label ??Subroutine52_0

        RSEG BANKED_CODE:HUGECODE:NOROOT(0)
??Subroutine52_0:
          CFI Block cfiCond181 Using cfiCommon0
          CFI Function touchLink_DevRejoin
          CFI Conditional ??CrossCallReturnLabel_111
          CFI R6 load(1, XDATA, add(CFA_XSP16, literal(-15)))
          CFI VB load(1, XDATA, add(CFA_XSP16, literal(-14)))
          CFI V0 load(1, XDATA, add(CFA_XSP16, literal(-13)))
          CFI V1 load(1, XDATA, add(CFA_XSP16, literal(-12)))
          CFI V2 load(1, XDATA, add(CFA_XSP16, literal(-11)))
          CFI V3 load(1, XDATA, add(CFA_XSP16, literal(-10)))
          CFI V4 load(1, XDATA, add(CFA_XSP16, literal(-9)))
          CFI V5 load(1, XDATA, add(CFA_XSP16, literal(-8)))
          CFI V6 load(1, XDATA, add(CFA_XSP16, literal(-7)))
          CFI R7 load(1, XDATA, add(CFA_XSP16, literal(-6)))
          CFI ?RET_LOW load(1, XDATA, add(CFA_XSP16, literal(-5)))
          CFI ?RET_HIGH load(1, XDATA, add(CFA_XSP16, literal(-4)))
          CFI ?BRET_EXT load(1, XDATA, add(CFA_XSP16, literal(-3)))
          CFI DPL0 load(1, XDATA, add(CFA_XSP16, literal(-2)))
          CFI DPH0 load(1, XDATA, add(CFA_XSP16, literal(-1)))
          CFI CFA_SP SP+-2
          CFI CFA_XSP16 add(XSP16, 15)
          CFI Block cfiCond182 Using cfiCommon0
          CFI (cfiCond182) Function touchLink_UpdateFreeRanges
          CFI (cfiCond182) Conditional ??CrossCallReturnLabel_112
          CFI (cfiCond182) DPL0 Frame(CFA_SP, 4)
          CFI (cfiCond182) DPH0 Frame(CFA_SP, 5)
          CFI (cfiCond182) CFA_SP SP+-7
          CFI Block cfiCond183 Using cfiCommon0
          CFI (cfiCond183) Function touchLink_UpdateFreeRanges
          CFI (cfiCond183) Conditional ??CrossCallReturnLabel_113
          CFI (cfiCond183) DPL0 Frame(CFA_SP, 4)
          CFI (cfiCond183) DPH0 Frame(CFA_SP, 5)
          CFI (cfiCond183) CFA_SP SP+-7
          CFI Block cfiCond184 Using cfiCommon0
          CFI (cfiCond184) Function touchLink_UpdateFreeRanges
          CFI (cfiCond184) Conditional ??CrossCallReturnLabel_114
          CFI (cfiCond184) DPL0 Frame(CFA_SP, 4)
          CFI (cfiCond184) DPH0 Frame(CFA_SP, 5)
          CFI (cfiCond184) CFA_SP SP+-7
          CFI Block cfiCond185 Using cfiCommon0
          CFI (cfiCond185) Function touchLink_UpdateFreeRanges
          CFI (cfiCond185) Conditional ??CrossCallReturnLabel_115
          CFI (cfiCond185) DPL0 Frame(CFA_SP, 4)
          CFI (cfiCond185) DPH0 Frame(CFA_SP, 5)
          CFI (cfiCond185) CFA_SP SP+-7
          CFI Block cfiCond186 Using cfiCommon0
          CFI (cfiCond186) Function touchLink_UpdateFreeRanges
          CFI (cfiCond186) Conditional ??CrossCallReturnLabel_116
          CFI (cfiCond186) DPL0 Frame(CFA_SP, 4)
          CFI (cfiCond186) DPH0 Frame(CFA_SP, 5)
          CFI (cfiCond186) CFA_SP SP+-7
          CFI Block cfiCond187 Using cfiCommon0
          CFI (cfiCond187) Function touchLink_UpdateFreeRanges
          CFI (cfiCond187) Conditional ??CrossCallReturnLabel_117
          CFI (cfiCond187) DPL0 Frame(CFA_SP, 4)
          CFI (cfiCond187) DPH0 Frame(CFA_SP, 5)
          CFI (cfiCond187) CFA_SP SP+-7
          CFI Block cfiPicker188 Using cfiCommon1
          CFI (cfiPicker188) NoFunction
          CFI (cfiPicker188) Picker
        MOV       DPH,A
          CFI EndBlock cfiCond181
          CFI EndBlock cfiCond182
          CFI EndBlock cfiCond183
          CFI EndBlock cfiCond184
          CFI EndBlock cfiCond185
          CFI EndBlock cfiCond186
          CFI EndBlock cfiCond187
          CFI EndBlock cfiPicker188
        REQUIRE ??Subroutine53_0
        ; // Fall through to label ??Subroutine53_0

        RSEG BANKED_CODE:HUGECODE:NOROOT(0)
??Subroutine53_0:
          CFI Block cfiCond189 Using cfiCommon0
          CFI Function touchLink_IsValidSplitFreeRanges
          CFI Conditional ??CrossCallReturnLabel_106
          CFI DPL0 Frame(CFA_SP, 4)
          CFI DPH0 Frame(CFA_SP, 5)
          CFI CFA_SP SP+-7
          CFI Block cfiCond190 Using cfiCommon0
          CFI (cfiCond190) Function touchLink_IsValidSplitFreeRanges
          CFI (cfiCond190) Conditional ??CrossCallReturnLabel_107
          CFI (cfiCond190) DPL0 Frame(CFA_SP, 4)
          CFI (cfiCond190) DPH0 Frame(CFA_SP, 5)
          CFI (cfiCond190) CFA_SP SP+-7
          CFI Block cfiCond191 Using cfiCommon0
          CFI (cfiCond191) Function touchLink_SetNIB
          CFI (cfiCond191) Conditional ??CrossCallReturnLabel_108
          CFI (cfiCond191) R6 load(1, XDATA, add(CFA_XSP16, literal(-16)))
          CFI (cfiCond191) VB load(1, XDATA, add(CFA_XSP16, literal(-15)))
          CFI (cfiCond191) V0 load(1, XDATA, add(CFA_XSP16, literal(-14)))
          CFI (cfiCond191) V1 load(1, XDATA, add(CFA_XSP16, literal(-13)))
          CFI (cfiCond191) V2 load(1, XDATA, add(CFA_XSP16, literal(-12)))
          CFI (cfiCond191) V3 load(1, XDATA, add(CFA_XSP16, literal(-11)))
          CFI (cfiCond191) V4 load(1, XDATA, add(CFA_XSP16, literal(-10)))
          CFI (cfiCond191) V5 load(1, XDATA, add(CFA_XSP16, literal(-9)))
          CFI (cfiCond191) V6 load(1, XDATA, add(CFA_XSP16, literal(-8)))
          CFI (cfiCond191) V7 load(1, XDATA, add(CFA_XSP16, literal(-7)))
          CFI (cfiCond191) R7 load(1, XDATA, add(CFA_XSP16, literal(-6)))
          CFI (cfiCond191) ?RET_LOW load(1, XDATA, add(CFA_XSP16, literal(-5)))
          CFI (cfiCond191) ?RET_HIGH load(1, XDATA, add(CFA_XSP16, literal(-4)))
          CFI (cfiCond191) ?BRET_EXT load(1, XDATA, add(CFA_XSP16, literal(-3)))
          CFI (cfiCond191) DPL0 load(1, XDATA, add(CFA_XSP16, literal(-2)))
          CFI (cfiCond191) DPH0 load(1, XDATA, add(CFA_XSP16, literal(-1)))
          CFI (cfiCond191) CFA_SP SP+-2
          CFI (cfiCond191) CFA_XSP16 add(XSP16, 16)
          CFI Block cfiCond192 Using cfiCommon0
          CFI (cfiCond192) Function touchLink_BeaconIndCB
          CFI (cfiCond192) Conditional ??CrossCallReturnLabel_109
          CFI (cfiCond192) R6 load(1, XDATA, add(CFA_XSP16, literal(-18)))
          CFI (cfiCond192) VB load(1, XDATA, add(CFA_XSP16, literal(-17)))
          CFI (cfiCond192) V0 load(1, XDATA, add(CFA_XSP16, literal(-16)))
          CFI (cfiCond192) V1 load(1, XDATA, add(CFA_XSP16, literal(-15)))
          CFI (cfiCond192) V2 load(1, XDATA, add(CFA_XSP16, literal(-14)))
          CFI (cfiCond192) V3 load(1, XDATA, add(CFA_XSP16, literal(-13)))
          CFI (cfiCond192) V4 load(1, XDATA, add(CFA_XSP16, literal(-12)))
          CFI (cfiCond192) V5 load(1, XDATA, add(CFA_XSP16, literal(-11)))
          CFI (cfiCond192) V6 load(1, XDATA, add(CFA_XSP16, literal(-10)))
          CFI (cfiCond192) V7 load(1, XDATA, add(CFA_XSP16, literal(-9)))
          CFI (cfiCond192) V8 load(1, XDATA, add(CFA_XSP16, literal(-8)))
          CFI (cfiCond192) V9 load(1, XDATA, add(CFA_XSP16, literal(-7)))
          CFI (cfiCond192) R7 load(1, XDATA, add(CFA_XSP16, literal(-6)))
          CFI (cfiCond192) ?RET_LOW load(1, XDATA, add(CFA_XSP16, literal(-5)))
          CFI (cfiCond192) ?RET_HIGH load(1, XDATA, add(CFA_XSP16, literal(-4)))
          CFI (cfiCond192) ?BRET_EXT load(1, XDATA, add(CFA_XSP16, literal(-3)))
          CFI (cfiCond192) DPL0 load(1, XDATA, add(CFA_XSP16, literal(-2)))
          CFI (cfiCond192) DPH0 load(1, XDATA, add(CFA_XSP16, literal(-1)))
          CFI (cfiCond192) CFA_SP SP+-2
          CFI (cfiCond192) CFA_XSP16 add(XSP16, 18)
          CFI Block cfiCond193 Using cfiCommon0
          CFI (cfiCond193) Function touchLink_DevRejoin
          CFI (cfiCond193) Conditional ??CrossCallReturnLabel_110
          CFI (cfiCond193) R6 load(1, XDATA, add(CFA_XSP16, literal(-15)))
          CFI (cfiCond193) VB load(1, XDATA, add(CFA_XSP16, literal(-14)))
          CFI (cfiCond193) V0 load(1, XDATA, add(CFA_XSP16, literal(-13)))
          CFI (cfiCond193) V1 load(1, XDATA, add(CFA_XSP16, literal(-12)))
          CFI (cfiCond193) V2 load(1, XDATA, add(CFA_XSP16, literal(-11)))
          CFI (cfiCond193) V3 load(1, XDATA, add(CFA_XSP16, literal(-10)))
          CFI (cfiCond193) V4 load(1, XDATA, add(CFA_XSP16, literal(-9)))
          CFI (cfiCond193) V5 load(1, XDATA, add(CFA_XSP16, literal(-8)))
          CFI (cfiCond193) V6 load(1, XDATA, add(CFA_XSP16, literal(-7)))
          CFI (cfiCond193) R7 load(1, XDATA, add(CFA_XSP16, literal(-6)))
          CFI (cfiCond193) ?RET_LOW load(1, XDATA, add(CFA_XSP16, literal(-5)))
          CFI (cfiCond193) ?RET_HIGH load(1, XDATA, add(CFA_XSP16, literal(-4)))
          CFI (cfiCond193) ?BRET_EXT load(1, XDATA, add(CFA_XSP16, literal(-3)))
          CFI (cfiCond193) DPL0 load(1, XDATA, add(CFA_XSP16, literal(-2)))
          CFI (cfiCond193) DPH0 load(1, XDATA, add(CFA_XSP16, literal(-1)))
          CFI (cfiCond193) CFA_SP SP+-2
          CFI (cfiCond193) CFA_XSP16 add(XSP16, 15)
          CFI Block cfiCond194 Using cfiCommon0
          CFI (cfiCond194) Function touchLink_DevRejoin
          CFI (cfiCond194) Conditional ??CrossCallReturnLabel_111
          CFI (cfiCond194) R6 load(1, XDATA, add(CFA_XSP16, literal(-15)))
          CFI (cfiCond194) VB load(1, XDATA, add(CFA_XSP16, literal(-14)))
          CFI (cfiCond194) V0 load(1, XDATA, add(CFA_XSP16, literal(-13)))
          CFI (cfiCond194) V1 load(1, XDATA, add(CFA_XSP16, literal(-12)))
          CFI (cfiCond194) V2 load(1, XDATA, add(CFA_XSP16, literal(-11)))
          CFI (cfiCond194) V3 load(1, XDATA, add(CFA_XSP16, literal(-10)))
          CFI (cfiCond194) V4 load(1, XDATA, add(CFA_XSP16, literal(-9)))
          CFI (cfiCond194) V5 load(1, XDATA, add(CFA_XSP16, literal(-8)))
          CFI (cfiCond194) V6 load(1, XDATA, add(CFA_XSP16, literal(-7)))
          CFI (cfiCond194) R7 load(1, XDATA, add(CFA_XSP16, literal(-6)))
          CFI (cfiCond194) ?RET_LOW load(1, XDATA, add(CFA_XSP16, literal(-5)))
          CFI (cfiCond194) ?RET_HIGH load(1, XDATA, add(CFA_XSP16, literal(-4)))
          CFI (cfiCond194) ?BRET_EXT load(1, XDATA, add(CFA_XSP16, literal(-3)))
          CFI (cfiCond194) DPL0 load(1, XDATA, add(CFA_XSP16, literal(-2)))
          CFI (cfiCond194) DPH0 load(1, XDATA, add(CFA_XSP16, literal(-1)))
          CFI (cfiCond194) CFA_SP SP+-2
          CFI (cfiCond194) CFA_XSP16 add(XSP16, 15)
          CFI Block cfiCond195 Using cfiCommon0
          CFI (cfiCond195) Function touchLink_UpdateFreeRanges
          CFI (cfiCond195) Conditional ??CrossCallReturnLabel_112
          CFI (cfiCond195) DPL0 Frame(CFA_SP, 4)
          CFI (cfiCond195) DPH0 Frame(CFA_SP, 5)
          CFI (cfiCond195) CFA_SP SP+-7
          CFI Block cfiCond196 Using cfiCommon0
          CFI (cfiCond196) Function touchLink_UpdateFreeRanges
          CFI (cfiCond196) Conditional ??CrossCallReturnLabel_113
          CFI (cfiCond196) DPL0 Frame(CFA_SP, 4)
          CFI (cfiCond196) DPH0 Frame(CFA_SP, 5)
          CFI (cfiCond196) CFA_SP SP+-7
          CFI Block cfiCond197 Using cfiCommon0
          CFI (cfiCond197) Function touchLink_UpdateFreeRanges
          CFI (cfiCond197) Conditional ??CrossCallReturnLabel_114
          CFI (cfiCond197) DPL0 Frame(CFA_SP, 4)
          CFI (cfiCond197) DPH0 Frame(CFA_SP, 5)
          CFI (cfiCond197) CFA_SP SP+-7
          CFI Block cfiCond198 Using cfiCommon0
          CFI (cfiCond198) Function touchLink_UpdateFreeRanges
          CFI (cfiCond198) Conditional ??CrossCallReturnLabel_115
          CFI (cfiCond198) DPL0 Frame(CFA_SP, 4)
          CFI (cfiCond198) DPH0 Frame(CFA_SP, 5)
          CFI (cfiCond198) CFA_SP SP+-7
          CFI Block cfiCond199 Using cfiCommon0
          CFI (cfiCond199) Function touchLink_UpdateFreeRanges
          CFI (cfiCond199) Conditional ??CrossCallReturnLabel_116
          CFI (cfiCond199) DPL0 Frame(CFA_SP, 4)
          CFI (cfiCond199) DPH0 Frame(CFA_SP, 5)
          CFI (cfiCond199) CFA_SP SP+-7
          CFI Block cfiCond200 Using cfiCommon0
          CFI (cfiCond200) Function touchLink_UpdateFreeRanges
          CFI (cfiCond200) Conditional ??CrossCallReturnLabel_117
          CFI (cfiCond200) DPL0 Frame(CFA_SP, 4)
          CFI (cfiCond200) DPH0 Frame(CFA_SP, 5)
          CFI (cfiCond200) CFA_SP SP+-7
          CFI Block cfiPicker201 Using cfiCommon1
          CFI (cfiPicker201) NoFunction
          CFI (cfiPicker201) Picker
        LCALL     ?Subroutine39 & 0xFFFF
??CrossCallReturnLabel_122:
        RET
          CFI EndBlock cfiCond189
          CFI EndBlock cfiCond190
          CFI EndBlock cfiCond191
          CFI EndBlock cfiCond192
          CFI EndBlock cfiCond193
          CFI EndBlock cfiCond194
          CFI EndBlock cfiCond195
          CFI EndBlock cfiCond196
          CFI EndBlock cfiCond197
          CFI EndBlock cfiCond198
          CFI EndBlock cfiCond199
          CFI EndBlock cfiCond200
          CFI EndBlock cfiPicker201

        RSEG BANKED_CODE:HUGECODE:NOROOT(0)
?Subroutine24:
          CFI Block cfiCond202 Using cfiCommon0
          CFI Function touchLink_SplitFreeRanges
          CFI Conditional ??CrossCallReturnLabel_35
          CFI R6 load(1, XDATA, add(CFA_XSP16, literal(-18)))
          CFI VB load(1, XDATA, add(CFA_XSP16, literal(-17)))
          CFI V0 load(1, XDATA, add(CFA_XSP16, literal(-16)))
          CFI V1 load(1, XDATA, add(CFA_XSP16, literal(-15)))
          CFI V2 load(1, XDATA, add(CFA_XSP16, literal(-14)))
          CFI V3 load(1, XDATA, add(CFA_XSP16, literal(-13)))
          CFI V4 load(1, XDATA, add(CFA_XSP16, literal(-12)))
          CFI V5 load(1, XDATA, add(CFA_XSP16, literal(-11)))
          CFI V6 load(1, XDATA, add(CFA_XSP16, literal(-10)))
          CFI V7 load(1, XDATA, add(CFA_XSP16, literal(-9)))
          CFI V8 load(1, XDATA, add(CFA_XSP16, literal(-8)))
          CFI V9 load(1, XDATA, add(CFA_XSP16, literal(-7)))
          CFI R7 load(1, XDATA, add(CFA_XSP16, literal(-6)))
          CFI ?RET_LOW load(1, XDATA, add(CFA_XSP16, literal(-5)))
          CFI ?RET_HIGH load(1, XDATA, add(CFA_XSP16, literal(-4)))
          CFI ?BRET_EXT load(1, XDATA, add(CFA_XSP16, literal(-3)))
          CFI DPL0 load(1, XDATA, add(CFA_XSP16, literal(-2)))
          CFI DPH0 load(1, XDATA, add(CFA_XSP16, literal(-1)))
          CFI CFA_SP SP+-2
          CFI CFA_XSP16 add(XSP16, 18)
          CFI Block cfiCond203 Using cfiCommon0
          CFI (cfiCond203) Function touchLink_PopGrpIDRange
          CFI (cfiCond203) Conditional ??CrossCallReturnLabel_36
          CFI (cfiCond203) R6 load(1, XDATA, add(CFA_XSP16, literal(-10)))
          CFI (cfiCond203) VB load(1, XDATA, add(CFA_XSP16, literal(-9)))
          CFI (cfiCond203) V0 load(1, XDATA, add(CFA_XSP16, literal(-8)))
          CFI (cfiCond203) V1 load(1, XDATA, add(CFA_XSP16, literal(-7)))
          CFI (cfiCond203) R7 load(1, XDATA, add(CFA_XSP16, literal(-6)))
          CFI (cfiCond203) ?RET_LOW load(1, XDATA, add(CFA_XSP16, literal(-5)))
          CFI (cfiCond203) ?RET_HIGH load(1, XDATA, add(CFA_XSP16, literal(-4)))
          CFI (cfiCond203) ?BRET_EXT load(1, XDATA, add(CFA_XSP16, literal(-3)))
          CFI (cfiCond203) DPL0 load(1, XDATA, add(CFA_XSP16, literal(-2)))
          CFI (cfiCond203) DPH0 load(1, XDATA, add(CFA_XSP16, literal(-1)))
          CFI (cfiCond203) CFA_SP SP+-2
          CFI (cfiCond203) CFA_XSP16 add(XSP16, 10)
          CFI Block cfiCond204 Using cfiCommon0
          CFI (cfiCond204) Function touchLink_BeaconIndCB
          CFI (cfiCond204) Conditional ??CrossCallReturnLabel_37
          CFI (cfiCond204) R6 load(1, XDATA, add(CFA_XSP16, literal(-18)))
          CFI (cfiCond204) VB load(1, XDATA, add(CFA_XSP16, literal(-17)))
          CFI (cfiCond204) V0 load(1, XDATA, add(CFA_XSP16, literal(-16)))
          CFI (cfiCond204) V1 load(1, XDATA, add(CFA_XSP16, literal(-15)))
          CFI (cfiCond204) V2 load(1, XDATA, add(CFA_XSP16, literal(-14)))
          CFI (cfiCond204) V3 load(1, XDATA, add(CFA_XSP16, literal(-13)))
          CFI (cfiCond204) V4 load(1, XDATA, add(CFA_XSP16, literal(-12)))
          CFI (cfiCond204) V5 load(1, XDATA, add(CFA_XSP16, literal(-11)))
          CFI (cfiCond204) V6 load(1, XDATA, add(CFA_XSP16, literal(-10)))
          CFI (cfiCond204) V7 load(1, XDATA, add(CFA_XSP16, literal(-9)))
          CFI (cfiCond204) V8 load(1, XDATA, add(CFA_XSP16, literal(-8)))
          CFI (cfiCond204) V9 load(1, XDATA, add(CFA_XSP16, literal(-7)))
          CFI (cfiCond204) R7 load(1, XDATA, add(CFA_XSP16, literal(-6)))
          CFI (cfiCond204) ?RET_LOW load(1, XDATA, add(CFA_XSP16, literal(-5)))
          CFI (cfiCond204) ?RET_HIGH load(1, XDATA, add(CFA_XSP16, literal(-4)))
          CFI (cfiCond204) ?BRET_EXT load(1, XDATA, add(CFA_XSP16, literal(-3)))
          CFI (cfiCond204) DPL0 load(1, XDATA, add(CFA_XSP16, literal(-2)))
          CFI (cfiCond204) DPH0 load(1, XDATA, add(CFA_XSP16, literal(-1)))
          CFI (cfiCond204) CFA_SP SP+-2
          CFI (cfiCond204) CFA_XSP16 add(XSP16, 18)
          CFI Block cfiCond205 Using cfiCommon0
          CFI (cfiCond205) Function touchLink_BeaconIndCB
          CFI (cfiCond205) Conditional ??CrossCallReturnLabel_38
          CFI (cfiCond205) R6 load(1, XDATA, add(CFA_XSP16, literal(-18)))
          CFI (cfiCond205) VB load(1, XDATA, add(CFA_XSP16, literal(-17)))
          CFI (cfiCond205) V0 load(1, XDATA, add(CFA_XSP16, literal(-16)))
          CFI (cfiCond205) V1 load(1, XDATA, add(CFA_XSP16, literal(-15)))
          CFI (cfiCond205) V2 load(1, XDATA, add(CFA_XSP16, literal(-14)))
          CFI (cfiCond205) V3 load(1, XDATA, add(CFA_XSP16, literal(-13)))
          CFI (cfiCond205) V4 load(1, XDATA, add(CFA_XSP16, literal(-12)))
          CFI (cfiCond205) V5 load(1, XDATA, add(CFA_XSP16, literal(-11)))
          CFI (cfiCond205) V6 load(1, XDATA, add(CFA_XSP16, literal(-10)))
          CFI (cfiCond205) V7 load(1, XDATA, add(CFA_XSP16, literal(-9)))
          CFI (cfiCond205) V8 load(1, XDATA, add(CFA_XSP16, literal(-8)))
          CFI (cfiCond205) V9 load(1, XDATA, add(CFA_XSP16, literal(-7)))
          CFI (cfiCond205) R7 load(1, XDATA, add(CFA_XSP16, literal(-6)))
          CFI (cfiCond205) ?RET_LOW load(1, XDATA, add(CFA_XSP16, literal(-5)))
          CFI (cfiCond205) ?RET_HIGH load(1, XDATA, add(CFA_XSP16, literal(-4)))
          CFI (cfiCond205) ?BRET_EXT load(1, XDATA, add(CFA_XSP16, literal(-3)))
          CFI (cfiCond205) DPL0 load(1, XDATA, add(CFA_XSP16, literal(-2)))
          CFI (cfiCond205) DPH0 load(1, XDATA, add(CFA_XSP16, literal(-1)))
          CFI (cfiCond205) CFA_SP SP+-2
          CFI (cfiCond205) CFA_XSP16 add(XSP16, 18)
          CFI Block cfiCond206 Using cfiCommon0
          CFI (cfiCond206) Function touchLink_FreeNwkParamList
          CFI (cfiCond206) Conditional ??CrossCallReturnLabel_39
          CFI (cfiCond206) R6 load(1, XDATA, add(CFA_XSP16, literal(-9)))
          CFI (cfiCond206) VB load(1, XDATA, add(CFA_XSP16, literal(-8)))
          CFI (cfiCond206) V0 load(1, XDATA, add(CFA_XSP16, literal(-7)))
          CFI (cfiCond206) R7 load(1, XDATA, add(CFA_XSP16, literal(-6)))
          CFI (cfiCond206) ?RET_LOW load(1, XDATA, add(CFA_XSP16, literal(-5)))
          CFI (cfiCond206) ?RET_HIGH load(1, XDATA, add(CFA_XSP16, literal(-4)))
          CFI (cfiCond206) ?BRET_EXT load(1, XDATA, add(CFA_XSP16, literal(-3)))
          CFI (cfiCond206) DPL0 load(1, XDATA, add(CFA_XSP16, literal(-2)))
          CFI (cfiCond206) DPH0 load(1, XDATA, add(CFA_XSP16, literal(-1)))
          CFI (cfiCond206) CFA_SP SP+-2
          CFI (cfiCond206) CFA_XSP16 add(XSP16, 9)
          CFI Block cfiPicker207 Using cfiCommon1
          CFI (cfiPicker207) NoFunction
          CFI (cfiPicker207) Picker
        MOVX      A,@DPTR
        MOV       R6,A
        INC       DPTR
        MOVX      A,@DPTR
        MOV       R7,A
        RET
          CFI EndBlock cfiCond202
          CFI EndBlock cfiCond203
          CFI EndBlock cfiCond204
          CFI EndBlock cfiCond205
          CFI EndBlock cfiCond206
          CFI EndBlock cfiPicker207

        RSEG BANKED_CODE:HUGECODE:NOROOT(0)
?Subroutine19:
          CFI Block cfiCond208 Using cfiCommon0
          CFI Function touchLink_BeaconIndCB
          CFI Conditional ??CrossCallReturnLabel_25
          CFI R6 load(1, XDATA, add(CFA_XSP16, literal(-18)))
          CFI VB load(1, XDATA, add(CFA_XSP16, literal(-17)))
          CFI V0 load(1, XDATA, add(CFA_XSP16, literal(-16)))
          CFI V1 load(1, XDATA, add(CFA_XSP16, literal(-15)))
          CFI V2 load(1, XDATA, add(CFA_XSP16, literal(-14)))
          CFI V3 load(1, XDATA, add(CFA_XSP16, literal(-13)))
          CFI V4 load(1, XDATA, add(CFA_XSP16, literal(-12)))
          CFI V5 load(1, XDATA, add(CFA_XSP16, literal(-11)))
          CFI V6 load(1, XDATA, add(CFA_XSP16, literal(-10)))
          CFI V7 load(1, XDATA, add(CFA_XSP16, literal(-9)))
          CFI V8 load(1, XDATA, add(CFA_XSP16, literal(-8)))
          CFI V9 load(1, XDATA, add(CFA_XSP16, literal(-7)))
          CFI R7 load(1, XDATA, add(CFA_XSP16, literal(-6)))
          CFI ?RET_LOW load(1, XDATA, add(CFA_XSP16, literal(-5)))
          CFI ?RET_HIGH load(1, XDATA, add(CFA_XSP16, literal(-4)))
          CFI ?BRET_EXT load(1, XDATA, add(CFA_XSP16, literal(-3)))
          CFI DPL0 load(1, XDATA, add(CFA_XSP16, literal(-2)))
          CFI DPH0 load(1, XDATA, add(CFA_XSP16, literal(-1)))
          CFI CFA_SP SP+-2
          CFI CFA_XSP16 add(XSP16, 18)
          CFI Block cfiCond209 Using cfiCommon0
          CFI (cfiCond209) Function touchLink_BeaconIndCB
          CFI (cfiCond209) Conditional ??CrossCallReturnLabel_26
          CFI (cfiCond209) R6 load(1, XDATA, add(CFA_XSP16, literal(-18)))
          CFI (cfiCond209) VB load(1, XDATA, add(CFA_XSP16, literal(-17)))
          CFI (cfiCond209) V0 load(1, XDATA, add(CFA_XSP16, literal(-16)))
          CFI (cfiCond209) V1 load(1, XDATA, add(CFA_XSP16, literal(-15)))
          CFI (cfiCond209) V2 load(1, XDATA, add(CFA_XSP16, literal(-14)))
          CFI (cfiCond209) V3 load(1, XDATA, add(CFA_XSP16, literal(-13)))
          CFI (cfiCond209) V4 load(1, XDATA, add(CFA_XSP16, literal(-12)))
          CFI (cfiCond209) V5 load(1, XDATA, add(CFA_XSP16, literal(-11)))
          CFI (cfiCond209) V6 load(1, XDATA, add(CFA_XSP16, literal(-10)))
          CFI (cfiCond209) V7 load(1, XDATA, add(CFA_XSP16, literal(-9)))
          CFI (cfiCond209) V8 load(1, XDATA, add(CFA_XSP16, literal(-8)))
          CFI (cfiCond209) V9 load(1, XDATA, add(CFA_XSP16, literal(-7)))
          CFI (cfiCond209) R7 load(1, XDATA, add(CFA_XSP16, literal(-6)))
          CFI (cfiCond209) ?RET_LOW load(1, XDATA, add(CFA_XSP16, literal(-5)))
          CFI (cfiCond209) ?RET_HIGH load(1, XDATA, add(CFA_XSP16, literal(-4)))
          CFI (cfiCond209) ?BRET_EXT load(1, XDATA, add(CFA_XSP16, literal(-3)))
          CFI (cfiCond209) DPL0 load(1, XDATA, add(CFA_XSP16, literal(-2)))
          CFI (cfiCond209) DPH0 load(1, XDATA, add(CFA_XSP16, literal(-1)))
          CFI (cfiCond209) CFA_SP SP+-2
          CFI (cfiCond209) CFA_XSP16 add(XSP16, 18)
          CFI Block cfiPicker210 Using cfiCommon1
          CFI (cfiPicker210) NoFunction
          CFI (cfiPicker210) Picker
        MOVX      @DPTR,A
        MOV       DPL,?V2
        MOV       DPH,?V3
        MOVX      A,@DPTR
        RET
          CFI EndBlock cfiCond208
          CFI EndBlock cfiCond209
          CFI EndBlock cfiPicker210
// 1269 
// 1270 /*********************************************************************
// 1271  * @fn      touchLink_NwkDiscoveryCnfCB
// 1272  *
// 1273  * @brief   Send an event to inform the target the completion of
// 1274  *          network discovery scan
// 1275  *
// 1276  * @param   param - pointer to a parameter and a structure of parameters
// 1277  *
// 1278  * @return  void
// 1279  */

        RSEG BANKED_CODE:HUGECODE:NOROOT(0)
// 1280 static void *touchLink_NwkDiscoveryCnfCB ( void *param )
touchLink_NwkDiscoveryCnfCB:
          CFI Block cfiBlock211 Using cfiCommon0
          CFI Function touchLink_NwkDiscoveryCnfCB
        CODE
// 1281 {
        FUNCALL touchLink_NwkDiscoveryCnfCB, ZDO_DeregisterForZdoCB
        LOCFRAME ISTACK, 2, STACK
        LOCFRAME PSTACK, 0, STACK
        LOCFRAME XSTACK, 0, STACK
        LOCFRAME IOVERLAY, 0, STATIC
        LOCFRAME DOVERLAY, 0, STATIC
        ARGFRAME ISTACK, 2, STACK
        ARGFRAME PSTACK, 0, STACK
        ARGFRAME XSTACK, 0, STACK
        ARGFRAME IOVERLAY, 0, STATIC
        ARGFRAME DOVERLAY, 0, STATIC
        FUNCALL touchLink_NwkDiscoveryCnfCB, ZDO_DeregisterForZdoCB
        LOCFRAME ISTACK, 2, STACK
        LOCFRAME PSTACK, 0, STACK
        LOCFRAME XSTACK, 0, STACK
        LOCFRAME IOVERLAY, 0, STATIC
        LOCFRAME DOVERLAY, 0, STATIC
        ARGFRAME ISTACK, 2, STACK
        ARGFRAME PSTACK, 0, STACK
        ARGFRAME XSTACK, 0, STACK
        ARGFRAME IOVERLAY, 0, STATIC
        ARGFRAME DOVERLAY, 0, STATIC
        FUNCALL touchLink_NwkDiscoveryCnfCB, NLME_NwkDiscTerm
        LOCFRAME ISTACK, 2, STACK
        LOCFRAME PSTACK, 0, STACK
        LOCFRAME XSTACK, 0, STACK
        LOCFRAME IOVERLAY, 0, STATIC
        LOCFRAME DOVERLAY, 0, STATIC
        ARGFRAME ISTACK, 2, STACK
        ARGFRAME PSTACK, 0, STACK
        ARGFRAME XSTACK, 0, STACK
        ARGFRAME IOVERLAY, 0, STATIC
        ARGFRAME DOVERLAY, 0, STATIC
        FUNCALL touchLink_NwkDiscoveryCnfCB, osal_set_event
        LOCFRAME ISTACK, 2, STACK
        LOCFRAME PSTACK, 0, STACK
        LOCFRAME XSTACK, 0, STACK
        LOCFRAME IOVERLAY, 0, STATIC
        LOCFRAME DOVERLAY, 0, STATIC
        ARGFRAME ISTACK, 2, STACK
        ARGFRAME PSTACK, 0, STACK
        ARGFRAME XSTACK, 0, STACK
        ARGFRAME IOVERLAY, 0, STATIC
        ARGFRAME DOVERLAY, 0, STATIC
        PUSH      DPL
          CFI DPL0 Frame(CFA_SP, 4)
          CFI CFA_SP SP+-4
        PUSH      DPH
          CFI DPH0 Frame(CFA_SP, 5)
          CFI CFA_SP SP+-5
        ; Saved register size: 2
        ; Auto size: 0
// 1282 #if ( BDB_TOUCHLINK_CAPABILITY_ENABLED == TRUE )
// 1283   // Scan completed. De-register the callbacks with ZDO
// 1284   ZDO_DeregisterForZdoCB( ZDO_NWK_DISCOVERY_CNF_CBID );
        ; Setup parameters for call to function ZDO_DeregisterForZdoCB
        MOV       R1,#0x2
        LCALL     `??ZDO_DeregisterForZdoCB::?relay`; Banked call to: ZDO_DeregisterForZdoCB
// 1285   ZDO_DeregisterForZdoCB( ZDO_BEACON_NOTIFY_IND_CBID );
        ; Setup parameters for call to function ZDO_DeregisterForZdoCB
        MOV       R1,#0x3
        LCALL     `??ZDO_DeregisterForZdoCB::?relay`; Banked call to: ZDO_DeregisterForZdoCB
// 1286 
// 1287   NLME_NwkDiscTerm();
        ; Setup parameters for call to function NLME_NwkDiscTerm
        LCALL     `??NLME_NwkDiscTerm::?relay`; Banked call to: NLME_NwkDiscTerm
// 1288 
// 1289   if ( pDiscoveredNwkParamList != NULL )
// 1290   {
// 1291     // proceed to join the network, otherwise
// 1292     // Notify our task
// 1293     osal_set_event( touchLinkTaskId, TOUCHLINK_NWK_DISC_CNF_EVT );
// 1294   }
// 1295   else
// 1296   {
// 1297     // no suitable network in secondary channel list, then just wait for touchlink
// 1298 #if ( ZSTACK_ROUTER_BUILD )
// 1299     // Try to create a new distributed network
// 1300     osal_set_event( touchLinkTaskId, TOUCHLINK_NWK_DISC_CNF_EVT );
        ; Setup parameters for call to function osal_set_event
        MOV       R2,#0x1
        MOV       R3,#0x0
        MOV       DPTR,#touchLinkTaskId
        MOVX      A,@DPTR
        MOV       R1,A
        LCALL     `??osal_set_event::?relay`; Banked call to: osal_set_event
// 1301 #elif ( ZSTACK_END_DEVICE_BUILD )
// 1302     // Notify the BDB state machine 
// 1303     bdbAttributes.bdbCommissioningStatus = BDB_COMMISSIONING_NO_NETWORK;
// 1304     bdb_reportCommissioningState( BDB_COMMISSIONING_STATE_TL, FALSE );
// 1305     // No parent to join in 
// 1306     bdbCommissioningProcedureState.bdbCommissioningState = BDB_PARENT_LOST;
// 1307     NLME_OrphanStateSet( );
// 1308     bdb_ZedAttemptRecoverNwk( );
// 1309 #endif
// 1310   }
// 1311 
// 1312 #else
// 1313   (void)touchLinkTaskId;
// 1314   (void)param;
// 1315 #endif
// 1316   return ( NULL );
        MOV       R2,#0x0
        MOV       R3,#0x0
        LJMP      ??Subroutine46_0 & 0xFFFF
// 1317 }
          CFI EndBlock cfiBlock211
// 1318 
// 1319 /****************************************************************************
// 1320  * @fn      touchLink_FreeNwkParamList
// 1321  *
// 1322  * @brief   This function frees any network discovery data.
// 1323  *
// 1324  * @param   none
// 1325  *
// 1326  * @return  none
// 1327  */

        RSEG BANKED_CODE:HUGECODE:NOROOT(0)
// 1328 void touchLink_FreeNwkParamList( void )
touchLink_FreeNwkParamList:
          CFI Block cfiBlock212 Using cfiCommon0
          CFI Function touchLink_FreeNwkParamList
        CODE
// 1329 {
        FUNCALL touchLink_FreeNwkParamList, osal_mem_free
        LOCFRAME ISTACK, 0, STACK
        LOCFRAME PSTACK, 0, STACK
        LOCFRAME XSTACK, 9, STACK
        LOCFRAME IOVERLAY, 0, STATIC
        LOCFRAME DOVERLAY, 0, STATIC
        ARGFRAME ISTACK, 0, STACK
        ARGFRAME PSTACK, 0, STACK
        ARGFRAME XSTACK, 9, STACK
        ARGFRAME IOVERLAY, 0, STATIC
        ARGFRAME DOVERLAY, 0, STATIC
        MOV       A,#-0x9
        LCALL     ?BANKED_ENTER_XDATA
          CFI DPH0 load(1, XDATA, add(CFA_XSP16, literal(-1)))
          CFI DPL0 load(1, XDATA, add(CFA_XSP16, literal(-2)))
          CFI ?BRET_EXT load(1, XDATA, add(CFA_XSP16, literal(-3)))
          CFI ?RET_HIGH load(1, XDATA, add(CFA_XSP16, literal(-4)))
          CFI ?RET_LOW load(1, XDATA, add(CFA_XSP16, literal(-5)))
          CFI R7 load(1, XDATA, add(CFA_XSP16, literal(-6)))
          CFI V0 load(1, XDATA, add(CFA_XSP16, literal(-7)))
          CFI VB load(1, XDATA, add(CFA_XSP16, literal(-8)))
          CFI R6 load(1, XDATA, add(CFA_XSP16, literal(-9)))
          CFI CFA_SP SP+0
          CFI CFA_XSP16 add(XSP16, 9)
        ; Saved register size: 9
        ; Auto size: 0
// 1330   touchLinkDiscoveredNwkParam_t *pParam = pDiscoveredNwkParamList;
        MOV       DPTR,#pDiscoveredNwkParamList
        MOVX      A,@DPTR
        MOV       R2,A
        INC       DPTR
        MOVX      A,@DPTR
        SJMP      ??touchLink_FreeNwkParamList_0
// 1331   touchLinkDiscoveredNwkParam_t *pNextParam;
// 1332 
// 1333   // deallocate the pDiscoveredNwkParamList memory
// 1334   while ( pParam != NULL )
// 1335   {
// 1336     pNextParam = pParam->nextParam;
??touchLink_FreeNwkParamList_1:
        MOV       DPL,R2
        MOV       DPH,R3
        LCALL     ?Subroutine24 & 0xFFFF
// 1337 
// 1338     osal_mem_free( pParam );
??CrossCallReturnLabel_39:
        ; Setup parameters for call to function osal_mem_free
        LCALL     `??osal_mem_free::?relay`; Banked call to: osal_mem_free
// 1339 
// 1340     pParam = pNextParam;
        MOV       A,R6
        MOV       R2,A
        MOV       A,R7
??touchLink_FreeNwkParamList_0:
        MOV       R3,A
// 1341   }
        MOV       A,R2
        ORL       A,R3
        JNZ       ??touchLink_FreeNwkParamList_1
// 1342 
// 1343   pDiscoveredNwkParamList = NULL;
        MOV       DPTR,#pDiscoveredNwkParamList
        CLR       A
        MOVX      @DPTR,A
        INC       DPTR
        MOVX      @DPTR,A
// 1344 }
          CFI EndBlock cfiBlock212
        REQUIRE ?Subroutine5
        ; // Fall through to label ?Subroutine5

        RSEG BANKED_CODE:HUGECODE:NOROOT(0)
?Subroutine5:
          CFI Block cfiBlock213 Using cfiCommon0
          CFI NoFunction
          CFI CFA_SP SP+0
          CFI CFA_XSP16 add(XSP16, 9)
          CFI VB load(1, XDATA, add(CFA_XSP16, literal(-8)))
          CFI DPL0 load(1, XDATA, add(CFA_XSP16, literal(-2)))
          CFI DPH0 load(1, XDATA, add(CFA_XSP16, literal(-1)))
          CFI R6 load(1, XDATA, add(CFA_XSP16, literal(-9)))
          CFI R7 load(1, XDATA, add(CFA_XSP16, literal(-6)))
          CFI V0 load(1, XDATA, add(CFA_XSP16, literal(-7)))
          CFI ?BRET_EXT load(1, XDATA, add(CFA_XSP16, literal(-3)))
          CFI ?RET_HIGH load(1, XDATA, add(CFA_XSP16, literal(-4)))
          CFI ?RET_LOW load(1, XDATA, add(CFA_XSP16, literal(-5)))
        MOV       R7,#0x1
        LJMP      ?BANKED_LEAVE_XDATA
          CFI EndBlock cfiBlock213
// 1345 
// 1346 /****************************************************************************
// 1347  * @fn      touchLink_IsValidTransID
// 1348  *
// 1349  * @brief   Transaction ID Filter for Touch-Link received commands.
// 1350  *
// 1351  * @param   transID - received transaction ID
// 1352  *
// 1353  * @return  FALSE if not matching current or transaction expired
// 1354  */

        RSEG BANKED_CODE:HUGECODE:NOROOT(0)
// 1355 bool touchLink_IsValidTransID( uint32 transID )
touchLink_IsValidTransID:
          CFI Block cfiBlock214 Using cfiCommon0
          CFI Function touchLink_IsValidTransID
        CODE
// 1356 {
        REQUIRE ?V0
        REQUIRE ?V1
        REQUIRE ?V2
        REQUIRE ?V3
        MOV       A,#-0xc
        LCALL     ?BANKED_ENTER_XDATA
          CFI DPH0 load(1, XDATA, add(CFA_XSP16, literal(-1)))
          CFI DPL0 load(1, XDATA, add(CFA_XSP16, literal(-2)))
          CFI ?BRET_EXT load(1, XDATA, add(CFA_XSP16, literal(-3)))
          CFI ?RET_HIGH load(1, XDATA, add(CFA_XSP16, literal(-4)))
          CFI ?RET_LOW load(1, XDATA, add(CFA_XSP16, literal(-5)))
          CFI R7 load(1, XDATA, add(CFA_XSP16, literal(-6)))
          CFI V3 load(1, XDATA, add(CFA_XSP16, literal(-7)))
          CFI V2 load(1, XDATA, add(CFA_XSP16, literal(-8)))
          CFI V1 load(1, XDATA, add(CFA_XSP16, literal(-9)))
          CFI V0 load(1, XDATA, add(CFA_XSP16, literal(-10)))
          CFI VB load(1, XDATA, add(CFA_XSP16, literal(-11)))
          CFI R6 load(1, XDATA, add(CFA_XSP16, literal(-12)))
          CFI CFA_SP SP+0
          CFI CFA_XSP16 add(XSP16, 12)
        ; Saved register size: 12
        ; Auto size: 0
        MOV       ?V0,R2
        MOV       ?V1,R3
        MOV       ?V2,R4
        MOV       ?V3,R5
// 1357   if ( ( touchLinkTransID == 0 ) || ( ( touchLinkTransID != transID ) && ( touchLinkLastAcceptedTransID != transID ) ) )
        MOV       DPTR,#touchLinkTransID
        LCALL     ?XLOAD_R0123
        MOV       A,R0
        ORL       A,R1
        ORL       A,R2
        ORL       A,R3
        JZ        ??touchLink_IsValidTransID_0
        MOV       DPTR,#touchLinkTransID
        MOV       R0,#?V0
        LCALL     ?L_EQ_X
        JZ        ??touchLink_IsValidTransID_1
        MOV       DPTR,#touchLinkLastAcceptedTransID
        MOV       R0,#?V0
        LCALL     ?L_EQ_X
        JZ        ??touchLink_IsValidTransID_1
// 1358   {
// 1359     return ( FALSE );
??touchLink_IsValidTransID_0:
        MOV       R1,#0x0
        SJMP      ??touchLink_IsValidTransID_2
// 1360   }
// 1361   return ( TRUE );
??touchLink_IsValidTransID_1:
        MOV       R1,#0x1
??touchLink_IsValidTransID_2:
        LJMP      ??Subroutine50_0 & 0xFFFF
// 1362 }
          CFI EndBlock cfiBlock214
// 1363 
// 1364 /*********************************************************************
// 1365  * @fn      touchLink_RouterProcessZDOMsg
// 1366  *
// 1367  * @brief   Process incoming ZDO messages (for routers)
// 1368  *
// 1369  * @param   inMsg - message to process
// 1370  *
// 1371  * @return  none
// 1372  */

        RSEG BANKED_CODE:HUGECODE:NOROOT(0)
// 1373 void touchLink_RouterProcessZDOMsg( zdoIncomingMsg_t *inMsg )
touchLink_RouterProcessZDOMsg:
          CFI Block cfiBlock215 Using cfiCommon0
          CFI Function touchLink_RouterProcessZDOMsg
        CODE
// 1374 {
        FUNCALL touchLink_RouterProcessZDOMsg, ZDO_ParseDeviceAnnce
        LOCFRAME ISTACK, 0, STACK
        LOCFRAME PSTACK, 0, STACK
        LOCFRAME XSTACK, 22, STACK
        LOCFRAME IOVERLAY, 0, STATIC
        LOCFRAME DOVERLAY, 0, STATIC
        ARGFRAME ISTACK, 0, STACK
        ARGFRAME PSTACK, 0, STACK
        ARGFRAME XSTACK, 22, STACK
        ARGFRAME IOVERLAY, 0, STATIC
        ARGFRAME DOVERLAY, 0, STATIC
        FUNCALL touchLink_RouterProcessZDOMsg, nwkNeighborGetLinkInfo
        LOCFRAME ISTACK, 0, STACK
        LOCFRAME PSTACK, 0, STACK
        LOCFRAME XSTACK, 22, STACK
        LOCFRAME IOVERLAY, 0, STATIC
        LOCFRAME DOVERLAY, 0, STATIC
        ARGFRAME ISTACK, 0, STACK
        ARGFRAME PSTACK, 0, STACK
        ARGFRAME XSTACK, 22, STACK
        ARGFRAME IOVERLAY, 0, STATIC
        ARGFRAME DOVERLAY, 0, STATIC
        FUNCALL touchLink_RouterProcessZDOMsg, nwkNeighborAdd
        LOCFRAME ISTACK, 0, STACK
        LOCFRAME PSTACK, 0, STACK
        LOCFRAME XSTACK, 22, STACK
        LOCFRAME IOVERLAY, 0, STATIC
        LOCFRAME DOVERLAY, 0, STATIC
        ARGFRAME ISTACK, 0, STACK
        ARGFRAME PSTACK, 0, STACK
        ARGFRAME XSTACK, 22, STACK
        ARGFRAME IOVERLAY, 0, STATIC
        ARGFRAME DOVERLAY, 0, STATIC
        FUNCALL touchLink_RouterProcessZDOMsg, nwkNeighborGetLinkInfo
        LOCFRAME ISTACK, 0, STACK
        LOCFRAME PSTACK, 0, STACK
        LOCFRAME XSTACK, 22, STACK
        LOCFRAME IOVERLAY, 0, STATIC
        LOCFRAME DOVERLAY, 0, STATIC
        ARGFRAME ISTACK, 0, STACK
        ARGFRAME PSTACK, 0, STACK
        ARGFRAME XSTACK, 22, STACK
        ARGFRAME IOVERLAY, 0, STATIC
        ARGFRAME DOVERLAY, 0, STATIC
        FUNCALL touchLink_RouterProcessZDOMsg, AssocCount
        LOCFRAME ISTACK, 0, STACK
        LOCFRAME PSTACK, 0, STACK
        LOCFRAME XSTACK, 22, STACK
        LOCFRAME IOVERLAY, 0, STATIC
        LOCFRAME DOVERLAY, 0, STATIC
        ARGFRAME ISTACK, 0, STACK
        ARGFRAME PSTACK, 0, STACK
        ARGFRAME XSTACK, 22, STACK
        ARGFRAME IOVERLAY, 0, STATIC
        ARGFRAME DOVERLAY, 0, STATIC
        FUNCALL touchLink_RouterProcessZDOMsg, NLME_UpdateLinkStatus
        LOCFRAME ISTACK, 0, STACK
        LOCFRAME PSTACK, 0, STACK
        LOCFRAME XSTACK, 22, STACK
        LOCFRAME IOVERLAY, 0, STATIC
        LOCFRAME DOVERLAY, 0, STATIC
        ARGFRAME ISTACK, 0, STACK
        ARGFRAME PSTACK, 0, STACK
        ARGFRAME XSTACK, 22, STACK
        ARGFRAME IOVERLAY, 0, STATIC
        ARGFRAME DOVERLAY, 0, STATIC
        FUNCALL touchLink_RouterProcessZDOMsg, NLME_PermitJoiningRequest
        LOCFRAME ISTACK, 0, STACK
        LOCFRAME PSTACK, 0, STACK
        LOCFRAME XSTACK, 22, STACK
        LOCFRAME IOVERLAY, 0, STATIC
        LOCFRAME DOVERLAY, 0, STATIC
        ARGFRAME ISTACK, 0, STACK
        ARGFRAME PSTACK, 0, STACK
        ARGFRAME XSTACK, 22, STACK
        ARGFRAME IOVERLAY, 0, STATIC
        ARGFRAME DOVERLAY, 0, STATIC
        FUNCALL touchLink_RouterProcessZDOMsg, ZDP_SendData
        LOCFRAME ISTACK, 0, STACK
        LOCFRAME PSTACK, 0, STACK
        LOCFRAME XSTACK, 27, STACK
        LOCFRAME IOVERLAY, 0, STATIC
        LOCFRAME DOVERLAY, 0, STATIC
        ARGFRAME ISTACK, 0, STACK
        ARGFRAME PSTACK, 0, STACK
        ARGFRAME XSTACK, 27, STACK
        ARGFRAME IOVERLAY, 0, STATIC
        ARGFRAME DOVERLAY, 0, STATIC
        REQUIRE ?V0
        REQUIRE ?V1
        MOV       A,#-0xa
        LCALL     ?BANKED_ENTER_XDATA
          CFI DPH0 load(1, XDATA, add(CFA_XSP16, literal(-1)))
          CFI DPL0 load(1, XDATA, add(CFA_XSP16, literal(-2)))
          CFI ?BRET_EXT load(1, XDATA, add(CFA_XSP16, literal(-3)))
          CFI ?RET_HIGH load(1, XDATA, add(CFA_XSP16, literal(-4)))
          CFI ?RET_LOW load(1, XDATA, add(CFA_XSP16, literal(-5)))
          CFI R7 load(1, XDATA, add(CFA_XSP16, literal(-6)))
          CFI V1 load(1, XDATA, add(CFA_XSP16, literal(-7)))
          CFI V0 load(1, XDATA, add(CFA_XSP16, literal(-8)))
          CFI VB load(1, XDATA, add(CFA_XSP16, literal(-9)))
          CFI R6 load(1, XDATA, add(CFA_XSP16, literal(-10)))
          CFI CFA_SP SP+0
          CFI CFA_XSP16 add(XSP16, 10)
        ; Saved register size: 10
        ; Auto size: 12
        MOV       A,#-0xc
        LCALL     ?ALLOC_XSTACK8
          CFI CFA_XSP16 add(XSP16, 22)
        MOV       A,R2
        MOV       R6,A
        MOV       A,R3
        MOV       R7,A
// 1375   ZDO_DeviceAnnce_t devAnnce;
// 1376 
// 1377   switch ( inMsg->clusterID )
        MOV       A,R2
        ADD       A,#0xc
        MOV       DPL,A
        CLR       A
        ADDC      A,R7
        MOV       DPH,A
        LCALL     ?Subroutine27 & 0xFFFF
??CrossCallReturnLabel_44:
        LCALL     ?US_SWITCH_SPARSE
`?<Jumptable for touchLink_RouterProcessZDOMsg>_0`:
        DATA
        DATA16
        DATA
        DATA16
        DATA
        DATA16
        DW        0
        DATA
        DATA16
        DATA
        DATA16
        DATA
        DATA16
        DW        2
        DATA
        DATA16
        DATA
        DATA16
        DATA
        DATA16
        DW        19
        DATA
        DATA16
        DATA
        DATA16
        DATA
        DATA16
        DW        ??touchLink_RouterProcessZDOMsg_0
        DATA
        DATA16
        DATA
        DATA16
        DATA
        DATA16
        DW        54
        DATA
        DATA16
        DATA
        DATA16
        DATA
        DATA16
        DW        ??touchLink_RouterProcessZDOMsg_1
        DATA
        DATA16
        DATA
        DATA16
        DW        ??touchLink_RouterProcessZDOMsg_2
        CODE
// 1378   {
// 1379     case Device_annce:
// 1380       {
// 1381         // all devices should send link status, including the one sending it
// 1382         ZDO_ParseDeviceAnnce( inMsg, &devAnnce );
??touchLink_RouterProcessZDOMsg_0:
        ; Setup parameters for call to function ZDO_ParseDeviceAnnce
        MOV       A,#0x1
        LCALL     ?XSTACK_DISP102_8
        LCALL     `??ZDO_ParseDeviceAnnce::?relay`; Banked call to: ZDO_ParseDeviceAnnce
// 1383 
// 1384         linkInfo_t *linkInfo;
// 1385 
// 1386         // check if entry exists
// 1387         linkInfo = nwkNeighborGetLinkInfo( devAnnce.nwkAddr, _NIB.nwkPanId );
// 1388 
// 1389         // if not, look for a vacant entry to add this node...
// 1390         if ( linkInfo == NULL )
        ; Setup parameters for call to function nwkNeighborGetLinkInfo
        LCALL     ?Subroutine23 & 0xFFFF
??CrossCallReturnLabel_32:
        LCALL     ?XSTACK_DISP0_8
        LCALL     ?Subroutine28 & 0xFFFF
??CrossCallReturnLabel_45:
        MOV       A,R2
        ORL       A,R3
        JZ        $+5
        LJMP      ??touchLink_RouterProcessZDOMsg_2 & 0xFFFF
// 1391         {
// 1392           nwkNeighborAdd( devAnnce.nwkAddr, _NIB.nwkPanId, DEF_LQI );
        ; Setup parameters for call to function nwkNeighborAdd
        MOV       R1,#-0x56
        LCALL     ?Subroutine23 & 0xFFFF
??CrossCallReturnLabel_33:
        LCALL     ?XSTACK_DISP0_8
        LCALL     ??Subroutine44_0 & 0xFFFF
??CrossCallReturnLabel_88:
        LCALL     `??nwkNeighborAdd::?relay`; Banked call to: nwkNeighborAdd
// 1393           linkInfo = nwkNeighborGetLinkInfo( devAnnce.nwkAddr, _NIB.nwkPanId );
        ; Setup parameters for call to function nwkNeighborGetLinkInfo
        LCALL     ?Subroutine23 & 0xFFFF
??CrossCallReturnLabel_34:
        LCALL     ?XSTACK_DISP0_8
        LCALL     ?Subroutine28 & 0xFFFF
// 1394           linkInfo->txCost = DEF_LINK_COST;
??CrossCallReturnLabel_46:
        MOV       DPL,R2
        MOV       DPH,R3
        INC       DPTR
        MOV       A,#0x1
        LCALL     ??Subroutine49_0 & 0xFFFF
// 1395           linkInfo->rxLqi = MIN_LQI_COST_1; 
??CrossCallReturnLabel_97:
        INC       DPTR
        INC       DPTR
        MOV       A,#0xc
        MOVX      @DPTR,A
// 1396   
// 1397           // if we have end device childs, send link status
// 1398           if ( AssocCount(CHILD_RFD, CHILD_RFD_RX_IDLE) > 0 )
        ; Setup parameters for call to function AssocCount
        MOV       R2,#0x2
        MOV       R1,#0x1
        LCALL     `??AssocCount::?relay`; Banked call to: AssocCount
        MOV       A,R2
        ORL       A,R3
        JZ        ??touchLink_RouterProcessZDOMsg_2
// 1399           {
// 1400             NLME_UpdateLinkStatus();
        ; Setup parameters for call to function NLME_UpdateLinkStatus
        LCALL     `??NLME_UpdateLinkStatus::?relay`; Banked call to: NLME_UpdateLinkStatus
        SJMP      ??touchLink_RouterProcessZDOMsg_2
// 1401           }
// 1402         }
// 1403       }
// 1404       break;
// 1405 
// 1406     case Mgmt_Permit_Join_req:
// 1407       {
// 1408         uint8 duration = inMsg->asdu[ZDP_MGMT_PERMIT_JOIN_REQ_DURATION];
// 1409         ZStatus_t stat = NLME_PermitJoiningRequest( duration );
??touchLink_RouterProcessZDOMsg_1:
        ; Setup parameters for call to function NLME_PermitJoiningRequest
        MOV       A,R2
        ADD       A,#0x13
        MOV       DPL,A
        CLR       A
        ADDC      A,R7
        MOV       DPH,A
        LCALL     ?Subroutine30 & 0xFFFF
??CrossCallReturnLabel_48:
        MOVX      A,@DPTR
        MOV       R1,A
        LCALL     `??NLME_PermitJoiningRequest::?relay`; Banked call to: NLME_PermitJoiningRequest
        MOV       A,R1
        MOV       DPL,?XSP + 0
        MOV       DPH,?XSP + 1
        MOVX      @DPTR,A
// 1410         // Send a response if unicast
// 1411         if ( !inMsg->wasBroadcast )
        MOV       A,R6
        ADD       A,#0xb
        MOV       DPL,A
        CLR       A
        ADDC      A,R7
        MOV       DPH,A
        MOVX      A,@DPTR
        JNZ       ??touchLink_RouterProcessZDOMsg_2
// 1412         {
// 1413           ZDP_MgmtPermitJoinRsp( inMsg->TransSeq, &(inMsg->srcAddr), stat, false );
        ; Setup parameters for call to function ZDP_SendData
        MOV       ?V0,#0x0
        MOV       R0,#?V0
        LCALL     ?PUSH_XSTACK_I_ONE
          CFI CFA_XSP16 add(XSP16, 23)
        MOV       A,#0x1
        LCALL     ?XSTACK_DISP100_8
        MOV       ?V0,R0
        MOV       ?V1,R1
        MOV       R0,#?V0
        LCALL     ?PUSH_XSTACK_I_TWO
          CFI CFA_XSP16 add(XSP16, 25)
        MOV       ?V0,#0x36
        MOV       ?V1,#-0x80
        MOV       R0,#?V0
        LCALL     ?PUSH_XSTACK_I_TWO
          CFI CFA_XSP16 add(XSP16, 27)
        MOV       R1,#0x1
        MOV       A,R6
        ADD       A,#0x2
        MOV       R4,A
        CLR       A
        ADDC      A,R7
        MOV       R5,A
        MOV       A,R6
        ADD       A,#0xf
        MOV       R2,A
        CLR       A
        ADDC      A,R7
        MOV       R3,A
        LCALL     `??ZDP_SendData::?relay`; Banked call to: ZDP_SendData
        MOV       A,#0x5
        LCALL     ?DEALLOC_XSTACK8
          CFI CFA_XSP16 add(XSP16, 22)
// 1414         }
// 1415       }
// 1416       break;
// 1417 
// 1418     default:
// 1419       break;
// 1420   }
// 1421 }
??touchLink_RouterProcessZDOMsg_2:
        MOV       A,#0xc
        LCALL     ?DEALLOC_XSTACK8
          CFI CFA_XSP16 add(XSP16, 10)
        LJMP      ?Subroutine0 & 0xFFFF
          CFI EndBlock cfiBlock215

        RSEG BANKED_CODE:HUGECODE:NOROOT(0)
?Subroutine30:
          CFI Block cfiCond216 Using cfiCommon0
          CFI Function touchLink_GetSubDeviceInfo
          CFI Conditional ??CrossCallReturnLabel_47
          CFI R6 load(1, XDATA, add(CFA_XSP16, literal(-14)))
          CFI VB load(1, XDATA, add(CFA_XSP16, literal(-13)))
          CFI V0 load(1, XDATA, add(CFA_XSP16, literal(-12)))
          CFI V1 load(1, XDATA, add(CFA_XSP16, literal(-11)))
          CFI V2 load(1, XDATA, add(CFA_XSP16, literal(-10)))
          CFI V3 load(1, XDATA, add(CFA_XSP16, literal(-9)))
          CFI V4 load(1, XDATA, add(CFA_XSP16, literal(-8)))
          CFI V5 load(1, XDATA, add(CFA_XSP16, literal(-7)))
          CFI R7 load(1, XDATA, add(CFA_XSP16, literal(-6)))
          CFI ?RET_LOW load(1, XDATA, add(CFA_XSP16, literal(-5)))
          CFI ?RET_HIGH load(1, XDATA, add(CFA_XSP16, literal(-4)))
          CFI ?BRET_EXT load(1, XDATA, add(CFA_XSP16, literal(-3)))
          CFI DPL0 load(1, XDATA, add(CFA_XSP16, literal(-2)))
          CFI DPH0 load(1, XDATA, add(CFA_XSP16, literal(-1)))
          CFI CFA_SP SP+-2
          CFI CFA_XSP16 add(XSP16, 14)
          CFI Block cfiCond217 Using cfiCommon0
          CFI (cfiCond217) Function touchLink_RouterProcessZDOMsg
          CFI (cfiCond217) Conditional ??CrossCallReturnLabel_48
          CFI (cfiCond217) R6 load(1, XDATA, add(CFA_XSP16, literal(-10)))
          CFI (cfiCond217) VB load(1, XDATA, add(CFA_XSP16, literal(-9)))
          CFI (cfiCond217) V0 load(1, XDATA, add(CFA_XSP16, literal(-8)))
          CFI (cfiCond217) V1 load(1, XDATA, add(CFA_XSP16, literal(-7)))
          CFI (cfiCond217) R7 load(1, XDATA, add(CFA_XSP16, literal(-6)))
          CFI (cfiCond217) ?RET_LOW load(1, XDATA, add(CFA_XSP16, literal(-5)))
          CFI (cfiCond217) ?RET_HIGH load(1, XDATA, add(CFA_XSP16, literal(-4)))
          CFI (cfiCond217) ?BRET_EXT load(1, XDATA, add(CFA_XSP16, literal(-3)))
          CFI (cfiCond217) DPL0 load(1, XDATA, add(CFA_XSP16, literal(-2)))
          CFI (cfiCond217) DPH0 load(1, XDATA, add(CFA_XSP16, literal(-1)))
          CFI (cfiCond217) CFA_SP SP+-2
          CFI (cfiCond217) CFA_XSP16 add(XSP16, 22)
          CFI Block cfiPicker218 Using cfiCommon1
          CFI (cfiPicker218) NoFunction
          CFI (cfiPicker218) Picker
        MOVX      A,@DPTR
        MOV       R0,A
        INC       DPTR
        MOVX      A,@DPTR
        MOV       DPH,A
        MOV       DPL,R0
        RET
          CFI EndBlock cfiCond216
          CFI EndBlock cfiCond217
          CFI EndBlock cfiPicker218

        RSEG BANKED_CODE:HUGECODE:NOROOT(0)
?Subroutine28:
          CFI Block cfiCond219 Using cfiCommon0
          CFI Function touchLink_RouterProcessZDOMsg
          CFI Conditional ??CrossCallReturnLabel_45
          CFI R6 load(1, XDATA, add(CFA_XSP16, literal(-10)))
          CFI VB load(1, XDATA, add(CFA_XSP16, literal(-9)))
          CFI V0 load(1, XDATA, add(CFA_XSP16, literal(-8)))
          CFI V1 load(1, XDATA, add(CFA_XSP16, literal(-7)))
          CFI R7 load(1, XDATA, add(CFA_XSP16, literal(-6)))
          CFI ?RET_LOW load(1, XDATA, add(CFA_XSP16, literal(-5)))
          CFI ?RET_HIGH load(1, XDATA, add(CFA_XSP16, literal(-4)))
          CFI ?BRET_EXT load(1, XDATA, add(CFA_XSP16, literal(-3)))
          CFI DPL0 load(1, XDATA, add(CFA_XSP16, literal(-2)))
          CFI DPH0 load(1, XDATA, add(CFA_XSP16, literal(-1)))
          CFI CFA_SP SP+-2
          CFI CFA_XSP16 add(XSP16, 22)
          CFI Block cfiCond220 Using cfiCommon0
          CFI (cfiCond220) Function touchLink_RouterProcessZDOMsg
          CFI (cfiCond220) Conditional ??CrossCallReturnLabel_46
          CFI (cfiCond220) R6 load(1, XDATA, add(CFA_XSP16, literal(-10)))
          CFI (cfiCond220) VB load(1, XDATA, add(CFA_XSP16, literal(-9)))
          CFI (cfiCond220) V0 load(1, XDATA, add(CFA_XSP16, literal(-8)))
          CFI (cfiCond220) V1 load(1, XDATA, add(CFA_XSP16, literal(-7)))
          CFI (cfiCond220) R7 load(1, XDATA, add(CFA_XSP16, literal(-6)))
          CFI (cfiCond220) ?RET_LOW load(1, XDATA, add(CFA_XSP16, literal(-5)))
          CFI (cfiCond220) ?RET_HIGH load(1, XDATA, add(CFA_XSP16, literal(-4)))
          CFI (cfiCond220) ?BRET_EXT load(1, XDATA, add(CFA_XSP16, literal(-3)))
          CFI (cfiCond220) DPL0 load(1, XDATA, add(CFA_XSP16, literal(-2)))
          CFI (cfiCond220) DPH0 load(1, XDATA, add(CFA_XSP16, literal(-1)))
          CFI (cfiCond220) CFA_SP SP+-2
          CFI (cfiCond220) CFA_XSP16 add(XSP16, 22)
          CFI Block cfiPicker221 Using cfiCommon1
          CFI (cfiPicker221) NoFunction
          CFI (cfiPicker221) Picker
        MOVX      A,@DPTR
        MOV       R2,A
        INC       DPTR
        MOVX      A,@DPTR
        MOV       R3,A
        LCALL     `??nwkNeighborGetLinkInfo::?relay`; Banked call to: nwkNeighborGetLinkInfo
        RET
          CFI EndBlock cfiCond219
          CFI EndBlock cfiCond220
          CFI EndBlock cfiPicker221

        RSEG BANKED_CODE:HUGECODE:NOROOT(0)
?Subroutine27:
          CFI Block cfiCond222 Using cfiCommon0
          CFI Function touchLink_ItemInit
          CFI Conditional ??CrossCallReturnLabel_43
          CFI R6 load(1, XDATA, add(CFA_XSP16, literal(-12)))
          CFI VB load(1, XDATA, add(CFA_XSP16, literal(-11)))
          CFI V0 load(1, XDATA, add(CFA_XSP16, literal(-10)))
          CFI V1 load(1, XDATA, add(CFA_XSP16, literal(-9)))
          CFI V2 load(1, XDATA, add(CFA_XSP16, literal(-8)))
          CFI V3 load(1, XDATA, add(CFA_XSP16, literal(-7)))
          CFI R7 load(1, XDATA, add(CFA_XSP16, literal(-6)))
          CFI ?RET_LOW load(1, XDATA, add(CFA_XSP16, literal(-5)))
          CFI ?RET_HIGH load(1, XDATA, add(CFA_XSP16, literal(-4)))
          CFI ?BRET_EXT load(1, XDATA, add(CFA_XSP16, literal(-3)))
          CFI DPL0 load(1, XDATA, add(CFA_XSP16, literal(-2)))
          CFI DPH0 load(1, XDATA, add(CFA_XSP16, literal(-1)))
          CFI CFA_SP SP+-2
          CFI CFA_XSP16 add(XSP16, 12)
          CFI Block cfiCond223 Using cfiCommon0
          CFI (cfiCond223) Function touchLink_RouterProcessZDOMsg
          CFI (cfiCond223) Conditional ??CrossCallReturnLabel_44
          CFI (cfiCond223) R6 load(1, XDATA, add(CFA_XSP16, literal(-10)))
          CFI (cfiCond223) VB load(1, XDATA, add(CFA_XSP16, literal(-9)))
          CFI (cfiCond223) V0 load(1, XDATA, add(CFA_XSP16, literal(-8)))
          CFI (cfiCond223) V1 load(1, XDATA, add(CFA_XSP16, literal(-7)))
          CFI (cfiCond223) R7 load(1, XDATA, add(CFA_XSP16, literal(-6)))
          CFI (cfiCond223) ?RET_LOW load(1, XDATA, add(CFA_XSP16, literal(-5)))
          CFI (cfiCond223) ?RET_HIGH load(1, XDATA, add(CFA_XSP16, literal(-4)))
          CFI (cfiCond223) ?BRET_EXT load(1, XDATA, add(CFA_XSP16, literal(-3)))
          CFI (cfiCond223) DPL0 load(1, XDATA, add(CFA_XSP16, literal(-2)))
          CFI (cfiCond223) DPH0 load(1, XDATA, add(CFA_XSP16, literal(-1)))
          CFI (cfiCond223) CFA_SP SP+-2
          CFI (cfiCond223) CFA_XSP16 add(XSP16, 22)
          CFI Block cfiPicker224 Using cfiCommon1
          CFI (cfiPicker224) NoFunction
          CFI (cfiPicker224) Picker
        LCALL     ?Subroutine40 & 0xFFFF
??CrossCallReturnLabel_75:
        ; Setup parameters for call to function osal_nv_item_init
        MOV       R0,#?V0
        RET
          CFI EndBlock cfiCond222
          CFI EndBlock cfiCond223
          CFI EndBlock cfiPicker224

        RSEG BANKED_CODE:HUGECODE:NOROOT(0)
?Subroutine40:
          CFI Block cfiCond225 Using cfiCommon0
          CFI Function touchLink_SplitFreeRanges
          CFI Conditional ??CrossCallReturnLabel_73
          CFI R6 load(1, XDATA, add(CFA_XSP16, literal(-18)))
          CFI VB load(1, XDATA, add(CFA_XSP16, literal(-17)))
          CFI V0 load(1, XDATA, add(CFA_XSP16, literal(-16)))
          CFI V1 load(1, XDATA, add(CFA_XSP16, literal(-15)))
          CFI V2 load(1, XDATA, add(CFA_XSP16, literal(-14)))
          CFI V3 load(1, XDATA, add(CFA_XSP16, literal(-13)))
          CFI V4 load(1, XDATA, add(CFA_XSP16, literal(-12)))
          CFI V5 load(1, XDATA, add(CFA_XSP16, literal(-11)))
          CFI V6 load(1, XDATA, add(CFA_XSP16, literal(-10)))
          CFI V7 load(1, XDATA, add(CFA_XSP16, literal(-9)))
          CFI V8 load(1, XDATA, add(CFA_XSP16, literal(-8)))
          CFI V9 load(1, XDATA, add(CFA_XSP16, literal(-7)))
          CFI R7 load(1, XDATA, add(CFA_XSP16, literal(-6)))
          CFI ?RET_LOW load(1, XDATA, add(CFA_XSP16, literal(-5)))
          CFI ?RET_HIGH load(1, XDATA, add(CFA_XSP16, literal(-4)))
          CFI ?BRET_EXT load(1, XDATA, add(CFA_XSP16, literal(-3)))
          CFI DPL0 load(1, XDATA, add(CFA_XSP16, literal(-2)))
          CFI DPH0 load(1, XDATA, add(CFA_XSP16, literal(-1)))
          CFI CFA_SP SP+-2
          CFI CFA_XSP16 add(XSP16, 18)
          CFI Block cfiCond226 Using cfiCommon0
          CFI (cfiCond226) Function touchLink_SplitFreeRanges
          CFI (cfiCond226) Conditional ??CrossCallReturnLabel_74
          CFI (cfiCond226) R6 load(1, XDATA, add(CFA_XSP16, literal(-18)))
          CFI (cfiCond226) VB load(1, XDATA, add(CFA_XSP16, literal(-17)))
          CFI (cfiCond226) V0 load(1, XDATA, add(CFA_XSP16, literal(-16)))
          CFI (cfiCond226) V1 load(1, XDATA, add(CFA_XSP16, literal(-15)))
          CFI (cfiCond226) V2 load(1, XDATA, add(CFA_XSP16, literal(-14)))
          CFI (cfiCond226) V3 load(1, XDATA, add(CFA_XSP16, literal(-13)))
          CFI (cfiCond226) V4 load(1, XDATA, add(CFA_XSP16, literal(-12)))
          CFI (cfiCond226) V5 load(1, XDATA, add(CFA_XSP16, literal(-11)))
          CFI (cfiCond226) V6 load(1, XDATA, add(CFA_XSP16, literal(-10)))
          CFI (cfiCond226) V7 load(1, XDATA, add(CFA_XSP16, literal(-9)))
          CFI (cfiCond226) V8 load(1, XDATA, add(CFA_XSP16, literal(-8)))
          CFI (cfiCond226) V9 load(1, XDATA, add(CFA_XSP16, literal(-7)))
          CFI (cfiCond226) R7 load(1, XDATA, add(CFA_XSP16, literal(-6)))
          CFI (cfiCond226) ?RET_LOW load(1, XDATA, add(CFA_XSP16, literal(-5)))
          CFI (cfiCond226) ?RET_HIGH load(1, XDATA, add(CFA_XSP16, literal(-4)))
          CFI (cfiCond226) ?BRET_EXT load(1, XDATA, add(CFA_XSP16, literal(-3)))
          CFI (cfiCond226) DPL0 load(1, XDATA, add(CFA_XSP16, literal(-2)))
          CFI (cfiCond226) DPH0 load(1, XDATA, add(CFA_XSP16, literal(-1)))
          CFI (cfiCond226) CFA_SP SP+-2
          CFI (cfiCond226) CFA_XSP16 add(XSP16, 18)
          CFI Block cfiCond227 Using cfiCommon0
          CFI (cfiCond227) Function touchLink_ItemInit
          CFI (cfiCond227) Conditional ??CrossCallReturnLabel_75, ??CrossCallReturnLabel_43
          CFI (cfiCond227) R6 load(1, XDATA, add(CFA_XSP16, literal(-12)))
          CFI (cfiCond227) VB load(1, XDATA, add(CFA_XSP16, literal(-11)))
          CFI (cfiCond227) V0 load(1, XDATA, add(CFA_XSP16, literal(-10)))
          CFI (cfiCond227) V1 load(1, XDATA, add(CFA_XSP16, literal(-9)))
          CFI (cfiCond227) V2 load(1, XDATA, add(CFA_XSP16, literal(-8)))
          CFI (cfiCond227) V3 load(1, XDATA, add(CFA_XSP16, literal(-7)))
          CFI (cfiCond227) R7 load(1, XDATA, add(CFA_XSP16, literal(-6)))
          CFI (cfiCond227) ?RET_LOW load(1, XDATA, add(CFA_XSP16, literal(-5)))
          CFI (cfiCond227) ?RET_HIGH load(1, XDATA, add(CFA_XSP16, literal(-4)))
          CFI (cfiCond227) ?BRET_EXT load(1, XDATA, add(CFA_XSP16, literal(-3)))
          CFI (cfiCond227) DPL0 load(1, XDATA, add(CFA_XSP16, literal(-2)))
          CFI (cfiCond227) DPH0 load(1, XDATA, add(CFA_XSP16, literal(-1)))
          CFI (cfiCond227) CFA_SP SP+-4
          CFI (cfiCond227) CFA_XSP16 add(XSP16, 12)
          CFI Block cfiCond228 Using cfiCommon0
          CFI (cfiCond228) Function touchLink_RouterProcessZDOMsg
          CFI (cfiCond228) Conditional ??CrossCallReturnLabel_75, ??CrossCallReturnLabel_44
          CFI (cfiCond228) R6 load(1, XDATA, add(CFA_XSP16, literal(-10)))
          CFI (cfiCond228) VB load(1, XDATA, add(CFA_XSP16, literal(-9)))
          CFI (cfiCond228) V0 load(1, XDATA, add(CFA_XSP16, literal(-8)))
          CFI (cfiCond228) V1 load(1, XDATA, add(CFA_XSP16, literal(-7)))
          CFI (cfiCond228) R7 load(1, XDATA, add(CFA_XSP16, literal(-6)))
          CFI (cfiCond228) ?RET_LOW load(1, XDATA, add(CFA_XSP16, literal(-5)))
          CFI (cfiCond228) ?RET_HIGH load(1, XDATA, add(CFA_XSP16, literal(-4)))
          CFI (cfiCond228) ?BRET_EXT load(1, XDATA, add(CFA_XSP16, literal(-3)))
          CFI (cfiCond228) DPL0 load(1, XDATA, add(CFA_XSP16, literal(-2)))
          CFI (cfiCond228) DPH0 load(1, XDATA, add(CFA_XSP16, literal(-1)))
          CFI (cfiCond228) CFA_SP SP+-4
          CFI (cfiCond228) CFA_XSP16 add(XSP16, 22)
          CFI Block cfiPicker229 Using cfiCommon1
          CFI (cfiPicker229) NoFunction
          CFI (cfiPicker229) Picker
        MOVX      A,@DPTR
        MOV       ?V0,A
        INC       DPTR
        MOVX      A,@DPTR
        MOV       ?V1,A
        RET
          CFI EndBlock cfiCond225
          CFI EndBlock cfiCond226
          CFI EndBlock cfiCond227
          CFI EndBlock cfiCond228
          CFI EndBlock cfiPicker229

        RSEG BANKED_CODE:HUGECODE:NOROOT(0)
?Subroutine23:
          CFI Block cfiCond230 Using cfiCommon0
          CFI Function touchLink_RouterProcessZDOMsg
          CFI Conditional ??CrossCallReturnLabel_32
          CFI R6 load(1, XDATA, add(CFA_XSP16, literal(-10)))
          CFI VB load(1, XDATA, add(CFA_XSP16, literal(-9)))
          CFI V0 load(1, XDATA, add(CFA_XSP16, literal(-8)))
          CFI V1 load(1, XDATA, add(CFA_XSP16, literal(-7)))
          CFI R7 load(1, XDATA, add(CFA_XSP16, literal(-6)))
          CFI ?RET_LOW load(1, XDATA, add(CFA_XSP16, literal(-5)))
          CFI ?RET_HIGH load(1, XDATA, add(CFA_XSP16, literal(-4)))
          CFI ?BRET_EXT load(1, XDATA, add(CFA_XSP16, literal(-3)))
          CFI DPL0 load(1, XDATA, add(CFA_XSP16, literal(-2)))
          CFI DPH0 load(1, XDATA, add(CFA_XSP16, literal(-1)))
          CFI CFA_SP SP+-2
          CFI CFA_XSP16 add(XSP16, 22)
          CFI Block cfiCond231 Using cfiCommon0
          CFI (cfiCond231) Function touchLink_RouterProcessZDOMsg
          CFI (cfiCond231) Conditional ??CrossCallReturnLabel_33
          CFI (cfiCond231) R6 load(1, XDATA, add(CFA_XSP16, literal(-10)))
          CFI (cfiCond231) VB load(1, XDATA, add(CFA_XSP16, literal(-9)))
          CFI (cfiCond231) V0 load(1, XDATA, add(CFA_XSP16, literal(-8)))
          CFI (cfiCond231) V1 load(1, XDATA, add(CFA_XSP16, literal(-7)))
          CFI (cfiCond231) R7 load(1, XDATA, add(CFA_XSP16, literal(-6)))
          CFI (cfiCond231) ?RET_LOW load(1, XDATA, add(CFA_XSP16, literal(-5)))
          CFI (cfiCond231) ?RET_HIGH load(1, XDATA, add(CFA_XSP16, literal(-4)))
          CFI (cfiCond231) ?BRET_EXT load(1, XDATA, add(CFA_XSP16, literal(-3)))
          CFI (cfiCond231) DPL0 load(1, XDATA, add(CFA_XSP16, literal(-2)))
          CFI (cfiCond231) DPH0 load(1, XDATA, add(CFA_XSP16, literal(-1)))
          CFI (cfiCond231) CFA_SP SP+-2
          CFI (cfiCond231) CFA_XSP16 add(XSP16, 22)
          CFI Block cfiCond232 Using cfiCommon0
          CFI (cfiCond232) Function touchLink_RouterProcessZDOMsg
          CFI (cfiCond232) Conditional ??CrossCallReturnLabel_34
          CFI (cfiCond232) R6 load(1, XDATA, add(CFA_XSP16, literal(-10)))
          CFI (cfiCond232) VB load(1, XDATA, add(CFA_XSP16, literal(-9)))
          CFI (cfiCond232) V0 load(1, XDATA, add(CFA_XSP16, literal(-8)))
          CFI (cfiCond232) V1 load(1, XDATA, add(CFA_XSP16, literal(-7)))
          CFI (cfiCond232) R7 load(1, XDATA, add(CFA_XSP16, literal(-6)))
          CFI (cfiCond232) ?RET_LOW load(1, XDATA, add(CFA_XSP16, literal(-5)))
          CFI (cfiCond232) ?RET_HIGH load(1, XDATA, add(CFA_XSP16, literal(-4)))
          CFI (cfiCond232) ?BRET_EXT load(1, XDATA, add(CFA_XSP16, literal(-3)))
          CFI (cfiCond232) DPL0 load(1, XDATA, add(CFA_XSP16, literal(-2)))
          CFI (cfiCond232) DPH0 load(1, XDATA, add(CFA_XSP16, literal(-1)))
          CFI (cfiCond232) CFA_SP SP+-2
          CFI (cfiCond232) CFA_XSP16 add(XSP16, 22)
          CFI Block cfiPicker233 Using cfiCommon1
          CFI (cfiPicker233) NoFunction
          CFI (cfiPicker233) Picker
        MOV       DPTR,#_NIB + 33
        MOVX      A,@DPTR
        MOV       R4,A
        INC       DPTR
        MOVX      A,@DPTR
        MOV       R5,A
        MOV       A,#0x1
        RET
          CFI EndBlock cfiCond230
          CFI EndBlock cfiCond231
          CFI EndBlock cfiCond232
          CFI EndBlock cfiPicker233
// 1422 
// 1423 /*********************************************************************
// 1424  * @fn      touchLink_PermitJoin
// 1425  *
// 1426  * @brief   Set the router permit join flag, to allow or deny classical
// 1427  *          commissioning by other ZigBee devices.
// 1428  *
// 1429  * @param   duration - enable up to aplcMaxPermitJoinDuration seconds,
// 1430  *                     0 to disable
// 1431  *
// 1432  * @return  status
// 1433  */

        RSEG BANKED_CODE:HUGECODE:NOROOT(0)
// 1434 ZStatus_t touchLink_PermitJoin( uint8 duration )
touchLink_PermitJoin:
          CFI Block cfiBlock234 Using cfiCommon0
          CFI Function touchLink_PermitJoin
        CODE
// 1435 {
        FUNCALL touchLink_PermitJoin, NLME_PermitJoiningRequest
        LOCFRAME ISTACK, 0, STACK
        LOCFRAME PSTACK, 0, STACK
        LOCFRAME XSTACK, 9, STACK
        LOCFRAME IOVERLAY, 0, STATIC
        LOCFRAME DOVERLAY, 0, STATIC
        ARGFRAME ISTACK, 0, STACK
        ARGFRAME PSTACK, 0, STACK
        ARGFRAME XSTACK, 9, STACK
        ARGFRAME IOVERLAY, 0, STATIC
        ARGFRAME DOVERLAY, 0, STATIC
        MOV       A,#-0x9
        LCALL     ?BANKED_ENTER_XDATA
          CFI DPH0 load(1, XDATA, add(CFA_XSP16, literal(-1)))
          CFI DPL0 load(1, XDATA, add(CFA_XSP16, literal(-2)))
          CFI ?BRET_EXT load(1, XDATA, add(CFA_XSP16, literal(-3)))
          CFI ?RET_HIGH load(1, XDATA, add(CFA_XSP16, literal(-4)))
          CFI ?RET_LOW load(1, XDATA, add(CFA_XSP16, literal(-5)))
          CFI R7 load(1, XDATA, add(CFA_XSP16, literal(-6)))
          CFI V0 load(1, XDATA, add(CFA_XSP16, literal(-7)))
          CFI VB load(1, XDATA, add(CFA_XSP16, literal(-8)))
          CFI R6 load(1, XDATA, add(CFA_XSP16, literal(-9)))
          CFI CFA_SP SP+0
          CFI CFA_XSP16 add(XSP16, 9)
        ; Saved register size: 9
        ; Auto size: 0
        MOV       A,R1
        MOV       R6,A
// 1436   if ( duration > APLC_MAX_PERMIT_JOIN_DURATION )
        CLR       C
        SUBB      A,#0x3d
        JC        ??touchLink_PermitJoin_0
// 1437   {
// 1438     duration = APLC_MAX_PERMIT_JOIN_DURATION;
        MOV       R6,#0x3c
// 1439   }
// 1440   return NLME_PermitJoiningRequest( duration );
??touchLink_PermitJoin_0:
        ; Setup parameters for call to function NLME_PermitJoiningRequest
        MOV       A,R6
        MOV       R1,A
        LCALL     `??NLME_PermitJoiningRequest::?relay`; Banked call to: NLME_PermitJoiningRequest
        LJMP      ?Subroutine5 & 0xFFFF
// 1441 }
          CFI EndBlock cfiBlock234
// 1442 
// 1443 /*********************************************************************
// 1444  * @fn      targetStartRtr
// 1445  *
// 1446  * @brief   Start operating on the new network.
// 1447  *
// 1448  * @param   pParams - pointer to received network parameters
// 1449  * @param   transID - transaction id
// 1450  *
// 1451  * @return  none
// 1452  */

        RSEG BANKED_CODE:HUGECODE:NOROOT(0)
// 1453 void touchLinkStartRtr( bdbTLNwkParams_t *pParams, uint32 transID )
touchLinkStartRtr:
          CFI Block cfiBlock235 Using cfiCommon0
          CFI Function touchLinkStartRtr
        CODE
// 1454 {
        FUNCALL touchLinkStartRtr, touchLink_SetNIB
        LOCFRAME ISTACK, 0, STACK
        LOCFRAME PSTACK, 0, STACK
        LOCFRAME XSTACK, 13, STACK
        LOCFRAME IOVERLAY, 0, STATIC
        LOCFRAME DOVERLAY, 0, STATIC
        ARGFRAME ISTACK, 0, STACK
        ARGFRAME PSTACK, 0, STACK
        ARGFRAME XSTACK, 13, STACK
        ARGFRAME IOVERLAY, 0, STATIC
        ARGFRAME DOVERLAY, 0, STATIC
        FUNCALL touchLinkStartRtr, touchLink_DecryptNwkKey
        LOCFRAME ISTACK, 0, STACK
        LOCFRAME PSTACK, 0, STACK
        LOCFRAME XSTACK, 17, STACK
        LOCFRAME IOVERLAY, 0, STATIC
        LOCFRAME DOVERLAY, 0, STATIC
        ARGFRAME ISTACK, 0, STACK
        ARGFRAME PSTACK, 0, STACK
        ARGFRAME XSTACK, 17, STACK
        ARGFRAME IOVERLAY, 0, STATIC
        ARGFRAME DOVERLAY, 0, STATIC
        FUNCALL touchLinkStartRtr, ZDSecMgrUpdateTCAddress
        LOCFRAME ISTACK, 0, STACK
        LOCFRAME PSTACK, 0, STACK
        LOCFRAME XSTACK, 9, STACK
        LOCFRAME IOVERLAY, 0, STATIC
        LOCFRAME DOVERLAY, 0, STATIC
        ARGFRAME ISTACK, 0, STACK
        ARGFRAME PSTACK, 0, STACK
        ARGFRAME XSTACK, 9, STACK
        ARGFRAME IOVERLAY, 0, STATIC
        ARGFRAME DOVERLAY, 0, STATIC
        FUNCALL touchLinkStartRtr, NLME_PermitJoiningRequest
        LOCFRAME ISTACK, 0, STACK
        LOCFRAME PSTACK, 0, STACK
        LOCFRAME XSTACK, 9, STACK
        LOCFRAME IOVERLAY, 0, STATIC
        LOCFRAME DOVERLAY, 0, STATIC
        ARGFRAME ISTACK, 0, STACK
        ARGFRAME PSTACK, 0, STACK
        ARGFRAME XSTACK, 9, STACK
        ARGFRAME IOVERLAY, 0, STATIC
        ARGFRAME DOVERLAY, 0, STATIC
        FUNCALL touchLinkStartRtr, touchLink_UpdateNV
        LOCFRAME ISTACK, 0, STACK
        LOCFRAME PSTACK, 0, STACK
        LOCFRAME XSTACK, 9, STACK
        LOCFRAME IOVERLAY, 0, STATIC
        LOCFRAME DOVERLAY, 0, STATIC
        ARGFRAME ISTACK, 0, STACK
        ARGFRAME PSTACK, 0, STACK
        ARGFRAME XSTACK, 9, STACK
        ARGFRAME IOVERLAY, 0, STATIC
        ARGFRAME DOVERLAY, 0, STATIC
        FUNCALL touchLinkStartRtr, ZDApp_LeaveCtrlReset
        LOCFRAME ISTACK, 0, STACK
        LOCFRAME PSTACK, 0, STACK
        LOCFRAME XSTACK, 9, STACK
        LOCFRAME IOVERLAY, 0, STATIC
        LOCFRAME DOVERLAY, 0, STATIC
        ARGFRAME ISTACK, 0, STACK
        ARGFRAME PSTACK, 0, STACK
        ARGFRAME XSTACK, 9, STACK
        ARGFRAME IOVERLAY, 0, STATIC
        ARGFRAME DOVERLAY, 0, STATIC
        FUNCALL touchLinkStartRtr, ZDOInitDeviceEx
        LOCFRAME ISTACK, 0, STACK
        LOCFRAME PSTACK, 0, STACK
        LOCFRAME XSTACK, 9, STACK
        LOCFRAME IOVERLAY, 0, STATIC
        LOCFRAME DOVERLAY, 0, STATIC
        ARGFRAME ISTACK, 0, STACK
        ARGFRAME PSTACK, 0, STACK
        ARGFRAME XSTACK, 9, STACK
        ARGFRAME IOVERLAY, 0, STATIC
        ARGFRAME DOVERLAY, 0, STATIC
        REQUIRE ?V0
        MOV       A,#-0x9
        LCALL     ?BANKED_ENTER_XDATA
          CFI DPH0 load(1, XDATA, add(CFA_XSP16, literal(-1)))
          CFI DPL0 load(1, XDATA, add(CFA_XSP16, literal(-2)))
          CFI ?BRET_EXT load(1, XDATA, add(CFA_XSP16, literal(-3)))
          CFI ?RET_HIGH load(1, XDATA, add(CFA_XSP16, literal(-4)))
          CFI ?RET_LOW load(1, XDATA, add(CFA_XSP16, literal(-5)))
          CFI R7 load(1, XDATA, add(CFA_XSP16, literal(-6)))
          CFI V0 load(1, XDATA, add(CFA_XSP16, literal(-7)))
          CFI VB load(1, XDATA, add(CFA_XSP16, literal(-8)))
          CFI R6 load(1, XDATA, add(CFA_XSP16, literal(-9)))
          CFI CFA_SP SP+0
          CFI CFA_XSP16 add(XSP16, 9)
        ; Saved register size: 9
        ; Auto size: 0
        MOV       A,R2
        MOV       R6,A
        MOV       A,R3
        MOV       R7,A
// 1455   // Copy the new network parameters to
// 1456   touchLink_SetNIB( NWK_ROUTER, pParams->nwkAddr, pParams->extendedPANID,
// 1457               pParams->logicalChannel, pParams->panId, _NIB.nwkUpdateId );
        ; Setup parameters for call to function touchLink_SetNIB
        MOV       DPTR,#_NIB + 109
        MOVX      A,@DPTR
        MOV       ?V0,A
        MOV       R0,#?V0
        LCALL     ?PUSH_XSTACK_I_ONE
          CFI CFA_XSP16 add(XSP16, 10)
        MOV       A,R2
        ADD       A,#0x1a
        MOV       DPL,A
        CLR       A
        ADDC      A,R7
        MOV       DPH,A
        LCALL     ?PUSH_XSTACK8_X_TWO
          CFI CFA_XSP16 add(XSP16, 12)
        MOV       A,R2
        ADD       A,#0x19
        MOV       DPL,A
        CLR       A
        ADDC      A,R7
        MOV       DPH,A
        MOVX      A,@DPTR
        MOV       ?V0,A
        MOV       R0,#?V0
        LCALL     ?PUSH_XSTACK_I_ONE
          CFI CFA_XSP16 add(XSP16, 13)
        MOV       A,R2
        MOV       R4,A
        MOV       A,R3
        MOV       R5,A
        MOV       A,R2
        ADD       A,#0x1c
        MOV       DPL,A
        CLR       A
        ADDC      A,R7
        LCALL     ?Subroutine29 & 0xFFFF
??CrossCallReturnLabel_90:
        MOV       R1,#0x8
        LCALL     `??touchLink_SetNIB::?relay`; Banked call to: touchLink_SetNIB
        MOV       A,#0x4
        LCALL     ?DEALLOC_XSTACK8
          CFI CFA_XSP16 add(XSP16, 9)
// 1458 
// 1459   // Apply the received network key
// 1460   touchLink_DecryptNwkKey( pParams->nwkKey, pParams->keyIndex, transID, touchLinkResponseID );
        ; Setup parameters for call to function touchLink_DecryptNwkKey
        MOV       DPTR,#touchLinkResponseID
        LCALL     ?PUSH_XSTACK8_X_FOUR
          CFI CFA_XSP16 add(XSP16, 13)
        MOV       A,#0xd
        LCALL     ?XSTACK_DISP0_8
        LCALL     ?PUSH_XSTACK8_X_FOUR
          CFI CFA_XSP16 add(XSP16, 17)
        MOV       DPL,R6
        MOV       DPH,R7
        INC       DPTR
        INC       DPTR
        INC       DPTR
        INC       DPTR
        INC       DPTR
        INC       DPTR
        INC       DPTR
        INC       DPTR
        MOVX      A,@DPTR
        MOV       R1,A
        MOV       A,R6
        ADD       A,#0x9
        MOV       R2,A
        CLR       A
        ADDC      A,R7
        MOV       R3,A
        LCALL     `??touchLink_DecryptNwkKey::?relay`; Banked call to: touchLink_DecryptNwkKey
        MOV       A,#0x8
        LCALL     ?DEALLOC_XSTACK8
          CFI CFA_XSP16 add(XSP16, 9)
// 1461 
// 1462   // setting apsTrustCenterAddress to 0xffffffff
// 1463   ZDSecMgrUpdateTCAddress( NULL );
        ; Setup parameters for call to function ZDSecMgrUpdateTCAddress
        MOV       R2,#0x0
        MOV       R3,#0x0
        LCALL     `??ZDSecMgrUpdateTCAddress::?relay`; Banked call to: ZDSecMgrUpdateTCAddress
// 1464 
// 1465   NLME_PermitJoiningRequest(0);
        ; Setup parameters for call to function NLME_PermitJoiningRequest
        MOV       R1,#0x0
        LCALL     `??NLME_PermitJoiningRequest::?relay`; Banked call to: NLME_PermitJoiningRequest
// 1466   
// 1467   // Touchlink distributed network flag
// 1468   touchlinkDistNwk = TRUE;
        MOV       DPTR,#touchlinkDistNwk
        MOV       A,#0x1
        LCALL     ?Subroutine7 & 0xFFFF
// 1469 
// 1470   // Use the new free ranges
// 1471   //touchLink_UpdateFreeRanges( pParams );
// 1472 
// 1473   // Save free ranges
// 1474   touchLink_UpdateNV( TOUCHLINK_UPDATE_NV_RANGES );
// 1475 
// 1476   // In case we're here after a leave
// 1477   touchLinkLeaveInitiated = FALSE;
// 1478 
// 1479   // Clear leave control logic
// 1480   ZDApp_LeaveCtrlReset();
// 1481 
// 1482   // Start operating on the new network
// 1483   ZDOInitDeviceEx( 0, 1 );
??CrossCallReturnLabel_2:
        ; Setup parameters for call to function ZDOInitDeviceEx
        MOV       R1,#0x1
        MOV       R2,#0x0
        MOV       R3,#0x0
        LCALL     `??ZDOInitDeviceEx::?relay`; Banked call to: ZDOInitDeviceEx
// 1484 }
        LJMP      ?Subroutine5 & 0xFFFF
          CFI EndBlock cfiBlock235
// 1485 
// 1486 /*********************************************************************
// 1487  * @fn      touchLink_DevRejoin
// 1488  *
// 1489  * @brief   Perform a network rejoin
// 1490  *
// 1491  * @param   rejoinInf - pointer to received network parameters
// 1492  *
// 1493  * @return  none
// 1494  */

        RSEG BANKED_CODE:HUGECODE:NOROOT(0)
// 1495 void touchLink_DevRejoin( bdbTLNwkRejoin_t *rejoinInf )
touchLink_DevRejoin:
          CFI Block cfiBlock236 Using cfiCommon0
          CFI Function touchLink_DevRejoin
        CODE
// 1496 {
        FUNCALL touchLink_DevRejoin, ZDApp_SecInit
        LOCFRAME ISTACK, 0, STACK
        LOCFRAME PSTACK, 0, STACK
        LOCFRAME XSTACK, 15, STACK
        LOCFRAME IOVERLAY, 0, STATIC
        LOCFRAME DOVERLAY, 0, STATIC
        ARGFRAME ISTACK, 0, STACK
        ARGFRAME PSTACK, 0, STACK
        ARGFRAME XSTACK, 15, STACK
        ARGFRAME IOVERLAY, 0, STATIC
        ARGFRAME DOVERLAY, 0, STATIC
        FUNCALL touchLink_DevRejoin, osal_mem_alloc
        LOCFRAME ISTACK, 0, STACK
        LOCFRAME PSTACK, 0, STACK
        LOCFRAME XSTACK, 15, STACK
        LOCFRAME IOVERLAY, 0, STATIC
        LOCFRAME DOVERLAY, 0, STATIC
        ARGFRAME ISTACK, 0, STACK
        ARGFRAME PSTACK, 0, STACK
        ARGFRAME XSTACK, 15, STACK
        ARGFRAME IOVERLAY, 0, STATIC
        ARGFRAME DOVERLAY, 0, STATIC
        FUNCALL touchLink_DevRejoin, osal_memcpy
        LOCFRAME ISTACK, 0, STACK
        LOCFRAME PSTACK, 0, STACK
        LOCFRAME XSTACK, 18, STACK
        LOCFRAME IOVERLAY, 0, STATIC
        LOCFRAME DOVERLAY, 0, STATIC
        ARGFRAME ISTACK, 0, STACK
        ARGFRAME PSTACK, 0, STACK
        ARGFRAME XSTACK, 18, STACK
        ARGFRAME IOVERLAY, 0, STATIC
        ARGFRAME DOVERLAY, 0, STATIC
        FUNCALL touchLink_DevRejoin, touchLink_UpdateNV
        LOCFRAME ISTACK, 0, STACK
        LOCFRAME PSTACK, 0, STACK
        LOCFRAME XSTACK, 15, STACK
        LOCFRAME IOVERLAY, 0, STATIC
        LOCFRAME DOVERLAY, 0, STATIC
        ARGFRAME ISTACK, 0, STACK
        ARGFRAME PSTACK, 0, STACK
        ARGFRAME XSTACK, 15, STACK
        ARGFRAME IOVERLAY, 0, STATIC
        ARGFRAME DOVERLAY, 0, STATIC
        FUNCALL touchLink_DevRejoin, ZDApp_LeaveCtrlReset
        LOCFRAME ISTACK, 0, STACK
        LOCFRAME PSTACK, 0, STACK
        LOCFRAME XSTACK, 15, STACK
        LOCFRAME IOVERLAY, 0, STATIC
        LOCFRAME DOVERLAY, 0, STATIC
        ARGFRAME ISTACK, 0, STACK
        ARGFRAME PSTACK, 0, STACK
        ARGFRAME XSTACK, 15, STACK
        ARGFRAME IOVERLAY, 0, STATIC
        ARGFRAME DOVERLAY, 0, STATIC
        FUNCALL touchLink_DevRejoin, NLME_ReJoinRequest
        LOCFRAME ISTACK, 0, STACK
        LOCFRAME PSTACK, 0, STACK
        LOCFRAME XSTACK, 15, STACK
        LOCFRAME IOVERLAY, 0, STATIC
        LOCFRAME DOVERLAY, 0, STATIC
        ARGFRAME ISTACK, 0, STACK
        ARGFRAME PSTACK, 0, STACK
        ARGFRAME XSTACK, 15, STACK
        ARGFRAME IOVERLAY, 0, STATIC
        ARGFRAME DOVERLAY, 0, STATIC
        REQUIRE ?V0
        REQUIRE ?V1
        REQUIRE ?V2
        REQUIRE ?V3
        REQUIRE ?V4
        REQUIRE ?V5
        REQUIRE ?V6
        MOV       A,#-0xf
        LCALL     ?BANKED_ENTER_XDATA
          CFI DPH0 load(1, XDATA, add(CFA_XSP16, literal(-1)))
          CFI DPL0 load(1, XDATA, add(CFA_XSP16, literal(-2)))
          CFI ?BRET_EXT load(1, XDATA, add(CFA_XSP16, literal(-3)))
          CFI ?RET_HIGH load(1, XDATA, add(CFA_XSP16, literal(-4)))
          CFI ?RET_LOW load(1, XDATA, add(CFA_XSP16, literal(-5)))
          CFI R7 load(1, XDATA, add(CFA_XSP16, literal(-6)))
          CFI V6 load(1, XDATA, add(CFA_XSP16, literal(-7)))
          CFI V5 load(1, XDATA, add(CFA_XSP16, literal(-8)))
          CFI V4 load(1, XDATA, add(CFA_XSP16, literal(-9)))
          CFI V3 load(1, XDATA, add(CFA_XSP16, literal(-10)))
          CFI V2 load(1, XDATA, add(CFA_XSP16, literal(-11)))
          CFI V1 load(1, XDATA, add(CFA_XSP16, literal(-12)))
          CFI V0 load(1, XDATA, add(CFA_XSP16, literal(-13)))
          CFI VB load(1, XDATA, add(CFA_XSP16, literal(-14)))
          CFI R6 load(1, XDATA, add(CFA_XSP16, literal(-15)))
          CFI CFA_SP SP+0
          CFI CFA_XSP16 add(XSP16, 15)
        ; Saved register size: 15
        ; Auto size: 0
        MOV       A,R2
        MOV       R6,A
        MOV       A,R3
        MOV       R7,A
// 1497     networkDesc_t *pNwkDesc = NULL;
// 1498      
// 1499     // Initialize the security for type of device
// 1500     ZDApp_SecInit( ZDO_INITDEV_RESTORED_NETWORK_STATE );
        ; Setup parameters for call to function ZDApp_SecInit
        MOV       R1,#0x0
        LCALL     `??ZDApp_SecInit::?relay`; Banked call to: ZDApp_SecInit
// 1501     
// 1502     pNwkDesc = (networkDesc_t *)osal_mem_alloc( sizeof( networkDesc_t ) );
        ; Setup parameters for call to function osal_mem_alloc
        MOV       R2,#0x16
        MOV       R3,#0x0
        LCALL     `??osal_mem_alloc::?relay`; Banked call to: osal_mem_alloc
        MOV       ?V0,R2
        MOV       ?V1,R3
// 1503     if( pNwkDesc == NULL )
        MOV       A,R2
        ORL       A,R3
        JNZ       $+5
        LJMP      ??touchLink_DevRejoin_0 & 0xFFFF
// 1504     {
// 1505       return;
// 1506     }
// 1507          
// 1508     NwkDescList = pNwkDesc;
        MOV       DPTR,#NwkDescList
        MOV       A,R2
        MOVX      @DPTR,A
        INC       DPTR
        MOV       A,R3
        LCALL     ?Subroutine12 & 0xFFFF
// 1509     pNwkDesc->panId = rejoinInf->panId;
??CrossCallReturnLabel_14:
        INC       DPTR
        INC       DPTR
        INC       DPTR
        INC       DPTR
        LCALL     ??Subroutine53_0 & 0xFFFF
??CrossCallReturnLabel_110:
        MOV       DPL,R2
        MOV       DPH,R3
        LCALL     ?Subroutine6 & 0xFFFF
// 1510     pNwkDesc->logicalChannel = rejoinInf->logicalChannel;
??CrossCallReturnLabel_0:
        INC       DPTR
        MOVX      A,@DPTR
        MOV       DPL,R2
        MOV       DPH,R3
        INC       DPTR
        INC       DPTR
        MOVX      @DPTR,A
// 1511     osal_memcpy( pNwkDesc->extendedPANID, rejoinInf->extendedPANID, Z_EXTADDR_LEN);
        ; Setup parameters for call to function osal_memcpy
        MOV       ?V4,R6
        MOV       ?V5,R7
        MOV       ?V6,#0x0
        MOV       R0,#?V4
        LCALL     ?PUSH_XSTACK_I_THREE
          CFI CFA_XSP16 add(XSP16, 18)
        MOV       R4,#0x8
        MOV       R5,#0x0
        MOV       A,R2
        ADD       A,#0xb
        MOV       R2,A
        CLR       A
        ADDC      A,?V1
        LCALL     ?Subroutine34 & 0xFFFF
??CrossCallReturnLabel_92:
        LCALL     ?DEALLOC_XSTACK8
          CFI CFA_XSP16 add(XSP16, 15)
// 1512     pNwkDesc->chosenRouterDepth = 1;
        MOV       DPL,?V0
        MOV       DPH,?V1
        INC       DPTR
        INC       DPTR
        INC       DPTR
        INC       DPTR
        INC       DPTR
        INC       DPTR
        INC       DPTR
        INC       DPTR
        INC       DPTR
        INC       DPTR
        MOV       A,#0x1
        LCALL     ?Subroutine42 & 0xFFFF
// 1513     pNwkDesc->routerCapacity = 1;
??CrossCallReturnLabel_78:
        LCALL     ?Subroutine13 & 0xFFFF
// 1514     pNwkDesc->deviceCapacity = 1;
??CrossCallReturnLabel_15:
        LCALL     ?Subroutine13 & 0xFFFF
// 1515     pNwkDesc->version = 2;
??CrossCallReturnLabel_16:
        INC       DPTR
        INC       A
        LCALL     ?Subroutine8 & 0xFFFF
// 1516     pNwkDesc->stackProfile = 2;
??CrossCallReturnLabel_4:
        LCALL     ?Subroutine8 & 0xFFFF
// 1517     pNwkDesc->chosenRouterLinkQuality = DEF_LQI;
??CrossCallReturnLabel_5:
        INC       DPTR
        INC       DPTR
        INC       DPTR
        MOV       A,#-0x56
        MOVX      @DPTR,A
// 1518     pNwkDesc->chosenRouter = rejoinInf->nwkAddr;
        MOV       A,R6
        ADD       A,#0xc
        MOV       DPL,A
        CLR       A
        ADDC      A,R7
        LCALL     ??Subroutine52_0 & 0xFFFF
??CrossCallReturnLabel_111:
        MOV       DPL,?V0
        MOV       DPH,?V1
        INC       DPTR
        INC       DPTR
        INC       DPTR
        INC       DPTR
        INC       DPTR
        INC       DPTR
        INC       DPTR
        LCALL     ?Subroutine6 & 0xFFFF
// 1519     pNwkDesc->updateId = rejoinInf->nwkUpdateId;
??CrossCallReturnLabel_1:
        MOVX      A,@DPTR
        PUSH      A
          CFI CFA_SP SP+-1
        MOV       A,?V0
        ADD       A,#0x13
        MOV       DPL,A
        CLR       A
        ADDC      A,?V1
        MOV       DPH,A
        POP       A
          CFI CFA_SP SP+0
        MOVX      @DPTR,A
// 1520     pNwkDesc->nextDesc = NULL;
        MOV       A,?V0
        ADD       A,#0x14
        MOV       DPL,A
        CLR       A
        ADDC      A,?V1
        MOV       DPH,A
        CLR       A
        MOVX      @DPTR,A
        INC       DPTR
        LCALL     ?Subroutine7 & 0xFFFF
// 1521     
// 1522     // Save free ranges
// 1523     touchLink_UpdateNV( TOUCHLINK_UPDATE_NV_RANGES );
// 1524 
// 1525     // In case we're here after a leave
// 1526     touchLinkLeaveInitiated = FALSE;
// 1527 
// 1528     // Clear leave control logic
// 1529     ZDApp_LeaveCtrlReset();
// 1530     
// 1531     // Let's join the network started by the target
// 1532     NLME_ReJoinRequest( rejoinInf->extendedPANID, _NIB.nwkLogicalChannel);
??CrossCallReturnLabel_3:
        ; Setup parameters for call to function NLME_ReJoinRequest
        MOV       DPTR,#_NIB + 22
        MOVX      A,@DPTR
        MOV       R1,A
        MOV       A,R6
        MOV       R2,A
        MOV       A,R7
        MOV       R3,A
        LCALL     `??NLME_ReJoinRequest::?relay`; Banked call to: NLME_ReJoinRequest
// 1533 }
??touchLink_DevRejoin_0:
        MOV       R7,#0x7
        LJMP      ?BANKED_LEAVE_XDATA
          CFI EndBlock cfiBlock236

        RSEG BANKED_CODE:HUGECODE:NOROOT(0)
?Subroutine13:
          CFI Block cfiCond237 Using cfiCommon0
          CFI Function touchLink_DevRejoin
          CFI Conditional ??CrossCallReturnLabel_15
          CFI R6 load(1, XDATA, add(CFA_XSP16, literal(-15)))
          CFI VB load(1, XDATA, add(CFA_XSP16, literal(-14)))
          CFI V0 load(1, XDATA, add(CFA_XSP16, literal(-13)))
          CFI V1 load(1, XDATA, add(CFA_XSP16, literal(-12)))
          CFI V2 load(1, XDATA, add(CFA_XSP16, literal(-11)))
          CFI V3 load(1, XDATA, add(CFA_XSP16, literal(-10)))
          CFI V4 load(1, XDATA, add(CFA_XSP16, literal(-9)))
          CFI V5 load(1, XDATA, add(CFA_XSP16, literal(-8)))
          CFI V6 load(1, XDATA, add(CFA_XSP16, literal(-7)))
          CFI R7 load(1, XDATA, add(CFA_XSP16, literal(-6)))
          CFI ?RET_LOW load(1, XDATA, add(CFA_XSP16, literal(-5)))
          CFI ?RET_HIGH load(1, XDATA, add(CFA_XSP16, literal(-4)))
          CFI ?BRET_EXT load(1, XDATA, add(CFA_XSP16, literal(-3)))
          CFI DPL0 load(1, XDATA, add(CFA_XSP16, literal(-2)))
          CFI DPH0 load(1, XDATA, add(CFA_XSP16, literal(-1)))
          CFI CFA_SP SP+-2
          CFI CFA_XSP16 add(XSP16, 15)
          CFI Block cfiCond238 Using cfiCommon0
          CFI (cfiCond238) Function touchLink_DevRejoin
          CFI (cfiCond238) Conditional ??CrossCallReturnLabel_16
          CFI (cfiCond238) R6 load(1, XDATA, add(CFA_XSP16, literal(-15)))
          CFI (cfiCond238) VB load(1, XDATA, add(CFA_XSP16, literal(-14)))
          CFI (cfiCond238) V0 load(1, XDATA, add(CFA_XSP16, literal(-13)))
          CFI (cfiCond238) V1 load(1, XDATA, add(CFA_XSP16, literal(-12)))
          CFI (cfiCond238) V2 load(1, XDATA, add(CFA_XSP16, literal(-11)))
          CFI (cfiCond238) V3 load(1, XDATA, add(CFA_XSP16, literal(-10)))
          CFI (cfiCond238) V4 load(1, XDATA, add(CFA_XSP16, literal(-9)))
          CFI (cfiCond238) V5 load(1, XDATA, add(CFA_XSP16, literal(-8)))
          CFI (cfiCond238) V6 load(1, XDATA, add(CFA_XSP16, literal(-7)))
          CFI (cfiCond238) R7 load(1, XDATA, add(CFA_XSP16, literal(-6)))
          CFI (cfiCond238) ?RET_LOW load(1, XDATA, add(CFA_XSP16, literal(-5)))
          CFI (cfiCond238) ?RET_HIGH load(1, XDATA, add(CFA_XSP16, literal(-4)))
          CFI (cfiCond238) ?BRET_EXT load(1, XDATA, add(CFA_XSP16, literal(-3)))
          CFI (cfiCond238) DPL0 load(1, XDATA, add(CFA_XSP16, literal(-2)))
          CFI (cfiCond238) DPH0 load(1, XDATA, add(CFA_XSP16, literal(-1)))
          CFI (cfiCond238) CFA_SP SP+-2
          CFI (cfiCond238) CFA_XSP16 add(XSP16, 15)
          CFI Block cfiPicker239 Using cfiCommon1
          CFI (cfiPicker239) NoFunction
          CFI (cfiPicker239) Picker
        LCALL     ?Subroutine38 & 0xFFFF
??CrossCallReturnLabel_71:
        RET
          CFI EndBlock cfiCond237
          CFI EndBlock cfiCond238
          CFI EndBlock cfiPicker239

        RSEG BANKED_CODE:HUGECODE:NOROOT(0)
?Subroutine38:
          CFI Block cfiCond240 Using cfiCommon0
          CFI Function touchLink_DevRejoin
          CFI Conditional ??CrossCallReturnLabel_71, ??CrossCallReturnLabel_15
          CFI R6 load(1, XDATA, add(CFA_XSP16, literal(-15)))
          CFI VB load(1, XDATA, add(CFA_XSP16, literal(-14)))
          CFI V0 load(1, XDATA, add(CFA_XSP16, literal(-13)))
          CFI V1 load(1, XDATA, add(CFA_XSP16, literal(-12)))
          CFI V2 load(1, XDATA, add(CFA_XSP16, literal(-11)))
          CFI V3 load(1, XDATA, add(CFA_XSP16, literal(-10)))
          CFI V4 load(1, XDATA, add(CFA_XSP16, literal(-9)))
          CFI V5 load(1, XDATA, add(CFA_XSP16, literal(-8)))
          CFI V6 load(1, XDATA, add(CFA_XSP16, literal(-7)))
          CFI R7 load(1, XDATA, add(CFA_XSP16, literal(-6)))
          CFI ?RET_LOW load(1, XDATA, add(CFA_XSP16, literal(-5)))
          CFI ?RET_HIGH load(1, XDATA, add(CFA_XSP16, literal(-4)))
          CFI ?BRET_EXT load(1, XDATA, add(CFA_XSP16, literal(-3)))
          CFI DPL0 load(1, XDATA, add(CFA_XSP16, literal(-2)))
          CFI DPH0 load(1, XDATA, add(CFA_XSP16, literal(-1)))
          CFI CFA_SP SP+-4
          CFI CFA_XSP16 add(XSP16, 15)
          CFI Block cfiCond241 Using cfiCommon0
          CFI (cfiCond241) Function touchLink_DevRejoin
          CFI (cfiCond241) Conditional ??CrossCallReturnLabel_71, ??CrossCallReturnLabel_16
          CFI (cfiCond241) R6 load(1, XDATA, add(CFA_XSP16, literal(-15)))
          CFI (cfiCond241) VB load(1, XDATA, add(CFA_XSP16, literal(-14)))
          CFI (cfiCond241) V0 load(1, XDATA, add(CFA_XSP16, literal(-13)))
          CFI (cfiCond241) V1 load(1, XDATA, add(CFA_XSP16, literal(-12)))
          CFI (cfiCond241) V2 load(1, XDATA, add(CFA_XSP16, literal(-11)))
          CFI (cfiCond241) V3 load(1, XDATA, add(CFA_XSP16, literal(-10)))
          CFI (cfiCond241) V4 load(1, XDATA, add(CFA_XSP16, literal(-9)))
          CFI (cfiCond241) V5 load(1, XDATA, add(CFA_XSP16, literal(-8)))
          CFI (cfiCond241) V6 load(1, XDATA, add(CFA_XSP16, literal(-7)))
          CFI (cfiCond241) R7 load(1, XDATA, add(CFA_XSP16, literal(-6)))
          CFI (cfiCond241) ?RET_LOW load(1, XDATA, add(CFA_XSP16, literal(-5)))
          CFI (cfiCond241) ?RET_HIGH load(1, XDATA, add(CFA_XSP16, literal(-4)))
          CFI (cfiCond241) ?BRET_EXT load(1, XDATA, add(CFA_XSP16, literal(-3)))
          CFI (cfiCond241) DPL0 load(1, XDATA, add(CFA_XSP16, literal(-2)))
          CFI (cfiCond241) DPH0 load(1, XDATA, add(CFA_XSP16, literal(-1)))
          CFI (cfiCond241) CFA_SP SP+-4
          CFI (cfiCond241) CFA_XSP16 add(XSP16, 15)
          CFI Block cfiCond242 Using cfiCommon0
          CFI (cfiCond242) Function touchLink_DevRejoin
          CFI (cfiCond242) Conditional ??CrossCallReturnLabel_72, ??CrossCallReturnLabel_4
          CFI (cfiCond242) R6 load(1, XDATA, add(CFA_XSP16, literal(-15)))
          CFI (cfiCond242) VB load(1, XDATA, add(CFA_XSP16, literal(-14)))
          CFI (cfiCond242) V0 load(1, XDATA, add(CFA_XSP16, literal(-13)))
          CFI (cfiCond242) V1 load(1, XDATA, add(CFA_XSP16, literal(-12)))
          CFI (cfiCond242) V2 load(1, XDATA, add(CFA_XSP16, literal(-11)))
          CFI (cfiCond242) V3 load(1, XDATA, add(CFA_XSP16, literal(-10)))
          CFI (cfiCond242) V4 load(1, XDATA, add(CFA_XSP16, literal(-9)))
          CFI (cfiCond242) V5 load(1, XDATA, add(CFA_XSP16, literal(-8)))
          CFI (cfiCond242) V6 load(1, XDATA, add(CFA_XSP16, literal(-7)))
          CFI (cfiCond242) R7 load(1, XDATA, add(CFA_XSP16, literal(-6)))
          CFI (cfiCond242) ?RET_LOW load(1, XDATA, add(CFA_XSP16, literal(-5)))
          CFI (cfiCond242) ?RET_HIGH load(1, XDATA, add(CFA_XSP16, literal(-4)))
          CFI (cfiCond242) ?BRET_EXT load(1, XDATA, add(CFA_XSP16, literal(-3)))
          CFI (cfiCond242) DPL0 load(1, XDATA, add(CFA_XSP16, literal(-2)))
          CFI (cfiCond242) DPH0 load(1, XDATA, add(CFA_XSP16, literal(-1)))
          CFI (cfiCond242) CFA_SP SP+-4
          CFI (cfiCond242) CFA_XSP16 add(XSP16, 15)
          CFI Block cfiCond243 Using cfiCommon0
          CFI (cfiCond243) Function touchLink_DevRejoin
          CFI (cfiCond243) Conditional ??CrossCallReturnLabel_72, ??CrossCallReturnLabel_5
          CFI (cfiCond243) R6 load(1, XDATA, add(CFA_XSP16, literal(-15)))
          CFI (cfiCond243) VB load(1, XDATA, add(CFA_XSP16, literal(-14)))
          CFI (cfiCond243) V0 load(1, XDATA, add(CFA_XSP16, literal(-13)))
          CFI (cfiCond243) V1 load(1, XDATA, add(CFA_XSP16, literal(-12)))
          CFI (cfiCond243) V2 load(1, XDATA, add(CFA_XSP16, literal(-11)))
          CFI (cfiCond243) V3 load(1, XDATA, add(CFA_XSP16, literal(-10)))
          CFI (cfiCond243) V4 load(1, XDATA, add(CFA_XSP16, literal(-9)))
          CFI (cfiCond243) V5 load(1, XDATA, add(CFA_XSP16, literal(-8)))
          CFI (cfiCond243) V6 load(1, XDATA, add(CFA_XSP16, literal(-7)))
          CFI (cfiCond243) R7 load(1, XDATA, add(CFA_XSP16, literal(-6)))
          CFI (cfiCond243) ?RET_LOW load(1, XDATA, add(CFA_XSP16, literal(-5)))
          CFI (cfiCond243) ?RET_HIGH load(1, XDATA, add(CFA_XSP16, literal(-4)))
          CFI (cfiCond243) ?BRET_EXT load(1, XDATA, add(CFA_XSP16, literal(-3)))
          CFI (cfiCond243) DPL0 load(1, XDATA, add(CFA_XSP16, literal(-2)))
          CFI (cfiCond243) DPH0 load(1, XDATA, add(CFA_XSP16, literal(-1)))
          CFI (cfiCond243) CFA_SP SP+-4
          CFI (cfiCond243) CFA_XSP16 add(XSP16, 15)
          CFI Block cfiPicker244 Using cfiCommon1
          CFI (cfiPicker244) NoFunction
          CFI (cfiPicker244) Picker
        LCALL     ?Subroutine42 & 0xFFFF
??CrossCallReturnLabel_79:
        INC       DPTR
        RET
          CFI EndBlock cfiCond240
          CFI EndBlock cfiCond241
          CFI EndBlock cfiCond242
          CFI EndBlock cfiCond243
          CFI EndBlock cfiPicker244

        RSEG BANKED_CODE:HUGECODE:NOROOT(0)
?Subroutine42:
          CFI Block cfiCond245 Using cfiCommon0
          CFI Function touchLink_DevRejoin
          CFI Conditional ??CrossCallReturnLabel_78
          CFI R6 load(1, XDATA, add(CFA_XSP16, literal(-15)))
          CFI VB load(1, XDATA, add(CFA_XSP16, literal(-14)))
          CFI V0 load(1, XDATA, add(CFA_XSP16, literal(-13)))
          CFI V1 load(1, XDATA, add(CFA_XSP16, literal(-12)))
          CFI V2 load(1, XDATA, add(CFA_XSP16, literal(-11)))
          CFI V3 load(1, XDATA, add(CFA_XSP16, literal(-10)))
          CFI V4 load(1, XDATA, add(CFA_XSP16, literal(-9)))
          CFI V5 load(1, XDATA, add(CFA_XSP16, literal(-8)))
          CFI V6 load(1, XDATA, add(CFA_XSP16, literal(-7)))
          CFI R7 load(1, XDATA, add(CFA_XSP16, literal(-6)))
          CFI ?RET_LOW load(1, XDATA, add(CFA_XSP16, literal(-5)))
          CFI ?RET_HIGH load(1, XDATA, add(CFA_XSP16, literal(-4)))
          CFI ?BRET_EXT load(1, XDATA, add(CFA_XSP16, literal(-3)))
          CFI DPL0 load(1, XDATA, add(CFA_XSP16, literal(-2)))
          CFI DPH0 load(1, XDATA, add(CFA_XSP16, literal(-1)))
          CFI CFA_SP SP+-2
          CFI CFA_XSP16 add(XSP16, 15)
          CFI Block cfiCond246 Using cfiCommon0
          CFI (cfiCond246) Function touchLink_DevRejoin
          CFI (cfiCond246) Conditional ??CrossCallReturnLabel_79, ??CrossCallReturnLabel_71, ??CrossCallReturnLabel_15
          CFI (cfiCond246) R6 load(1, XDATA, add(CFA_XSP16, literal(-15)))
          CFI (cfiCond246) VB load(1, XDATA, add(CFA_XSP16, literal(-14)))
          CFI (cfiCond246) V0 load(1, XDATA, add(CFA_XSP16, literal(-13)))
          CFI (cfiCond246) V1 load(1, XDATA, add(CFA_XSP16, literal(-12)))
          CFI (cfiCond246) V2 load(1, XDATA, add(CFA_XSP16, literal(-11)))
          CFI (cfiCond246) V3 load(1, XDATA, add(CFA_XSP16, literal(-10)))
          CFI (cfiCond246) V4 load(1, XDATA, add(CFA_XSP16, literal(-9)))
          CFI (cfiCond246) V5 load(1, XDATA, add(CFA_XSP16, literal(-8)))
          CFI (cfiCond246) V6 load(1, XDATA, add(CFA_XSP16, literal(-7)))
          CFI (cfiCond246) R7 load(1, XDATA, add(CFA_XSP16, literal(-6)))
          CFI (cfiCond246) ?RET_LOW load(1, XDATA, add(CFA_XSP16, literal(-5)))
          CFI (cfiCond246) ?RET_HIGH load(1, XDATA, add(CFA_XSP16, literal(-4)))
          CFI (cfiCond246) ?BRET_EXT load(1, XDATA, add(CFA_XSP16, literal(-3)))
          CFI (cfiCond246) DPL0 load(1, XDATA, add(CFA_XSP16, literal(-2)))
          CFI (cfiCond246) DPH0 load(1, XDATA, add(CFA_XSP16, literal(-1)))
          CFI (cfiCond246) CFA_SP SP+-6
          CFI (cfiCond246) CFA_XSP16 add(XSP16, 15)
          CFI Block cfiCond247 Using cfiCommon0
          CFI (cfiCond247) Function touchLink_DevRejoin
          CFI (cfiCond247) Conditional ??CrossCallReturnLabel_79, ??CrossCallReturnLabel_71, ??CrossCallReturnLabel_16
          CFI (cfiCond247) R6 load(1, XDATA, add(CFA_XSP16, literal(-15)))
          CFI (cfiCond247) VB load(1, XDATA, add(CFA_XSP16, literal(-14)))
          CFI (cfiCond247) V0 load(1, XDATA, add(CFA_XSP16, literal(-13)))
          CFI (cfiCond247) V1 load(1, XDATA, add(CFA_XSP16, literal(-12)))
          CFI (cfiCond247) V2 load(1, XDATA, add(CFA_XSP16, literal(-11)))
          CFI (cfiCond247) V3 load(1, XDATA, add(CFA_XSP16, literal(-10)))
          CFI (cfiCond247) V4 load(1, XDATA, add(CFA_XSP16, literal(-9)))
          CFI (cfiCond247) V5 load(1, XDATA, add(CFA_XSP16, literal(-8)))
          CFI (cfiCond247) V6 load(1, XDATA, add(CFA_XSP16, literal(-7)))
          CFI (cfiCond247) R7 load(1, XDATA, add(CFA_XSP16, literal(-6)))
          CFI (cfiCond247) ?RET_LOW load(1, XDATA, add(CFA_XSP16, literal(-5)))
          CFI (cfiCond247) ?RET_HIGH load(1, XDATA, add(CFA_XSP16, literal(-4)))
          CFI (cfiCond247) ?BRET_EXT load(1, XDATA, add(CFA_XSP16, literal(-3)))
          CFI (cfiCond247) DPL0 load(1, XDATA, add(CFA_XSP16, literal(-2)))
          CFI (cfiCond247) DPH0 load(1, XDATA, add(CFA_XSP16, literal(-1)))
          CFI (cfiCond247) CFA_SP SP+-6
          CFI (cfiCond247) CFA_XSP16 add(XSP16, 15)
          CFI Block cfiCond248 Using cfiCommon0
          CFI (cfiCond248) Function touchLink_DevRejoin
          CFI (cfiCond248) Conditional ??CrossCallReturnLabel_79, ??CrossCallReturnLabel_72, ??CrossCallReturnLabel_4
          CFI (cfiCond248) R6 load(1, XDATA, add(CFA_XSP16, literal(-15)))
          CFI (cfiCond248) VB load(1, XDATA, add(CFA_XSP16, literal(-14)))
          CFI (cfiCond248) V0 load(1, XDATA, add(CFA_XSP16, literal(-13)))
          CFI (cfiCond248) V1 load(1, XDATA, add(CFA_XSP16, literal(-12)))
          CFI (cfiCond248) V2 load(1, XDATA, add(CFA_XSP16, literal(-11)))
          CFI (cfiCond248) V3 load(1, XDATA, add(CFA_XSP16, literal(-10)))
          CFI (cfiCond248) V4 load(1, XDATA, add(CFA_XSP16, literal(-9)))
          CFI (cfiCond248) V5 load(1, XDATA, add(CFA_XSP16, literal(-8)))
          CFI (cfiCond248) V6 load(1, XDATA, add(CFA_XSP16, literal(-7)))
          CFI (cfiCond248) R7 load(1, XDATA, add(CFA_XSP16, literal(-6)))
          CFI (cfiCond248) ?RET_LOW load(1, XDATA, add(CFA_XSP16, literal(-5)))
          CFI (cfiCond248) ?RET_HIGH load(1, XDATA, add(CFA_XSP16, literal(-4)))
          CFI (cfiCond248) ?BRET_EXT load(1, XDATA, add(CFA_XSP16, literal(-3)))
          CFI (cfiCond248) DPL0 load(1, XDATA, add(CFA_XSP16, literal(-2)))
          CFI (cfiCond248) DPH0 load(1, XDATA, add(CFA_XSP16, literal(-1)))
          CFI (cfiCond248) CFA_SP SP+-6
          CFI (cfiCond248) CFA_XSP16 add(XSP16, 15)
          CFI Block cfiCond249 Using cfiCommon0
          CFI (cfiCond249) Function touchLink_DevRejoin
          CFI (cfiCond249) Conditional ??CrossCallReturnLabel_79, ??CrossCallReturnLabel_72, ??CrossCallReturnLabel_5
          CFI (cfiCond249) R6 load(1, XDATA, add(CFA_XSP16, literal(-15)))
          CFI (cfiCond249) VB load(1, XDATA, add(CFA_XSP16, literal(-14)))
          CFI (cfiCond249) V0 load(1, XDATA, add(CFA_XSP16, literal(-13)))
          CFI (cfiCond249) V1 load(1, XDATA, add(CFA_XSP16, literal(-12)))
          CFI (cfiCond249) V2 load(1, XDATA, add(CFA_XSP16, literal(-11)))
          CFI (cfiCond249) V3 load(1, XDATA, add(CFA_XSP16, literal(-10)))
          CFI (cfiCond249) V4 load(1, XDATA, add(CFA_XSP16, literal(-9)))
          CFI (cfiCond249) V5 load(1, XDATA, add(CFA_XSP16, literal(-8)))
          CFI (cfiCond249) V6 load(1, XDATA, add(CFA_XSP16, literal(-7)))
          CFI (cfiCond249) R7 load(1, XDATA, add(CFA_XSP16, literal(-6)))
          CFI (cfiCond249) ?RET_LOW load(1, XDATA, add(CFA_XSP16, literal(-5)))
          CFI (cfiCond249) ?RET_HIGH load(1, XDATA, add(CFA_XSP16, literal(-4)))
          CFI (cfiCond249) ?BRET_EXT load(1, XDATA, add(CFA_XSP16, literal(-3)))
          CFI (cfiCond249) DPL0 load(1, XDATA, add(CFA_XSP16, literal(-2)))
          CFI (cfiCond249) DPH0 load(1, XDATA, add(CFA_XSP16, literal(-1)))
          CFI (cfiCond249) CFA_SP SP+-6
          CFI (cfiCond249) CFA_XSP16 add(XSP16, 15)
          CFI Block cfiPicker250 Using cfiCommon1
          CFI (cfiPicker250) NoFunction
          CFI (cfiPicker250) Picker
        MOVX      @DPTR,A
        MOV       DPL,?V0
        MOV       DPH,?V1
        INC       DPTR
        INC       DPTR
        INC       DPTR
        RET
          CFI EndBlock cfiCond245
          CFI EndBlock cfiCond246
          CFI EndBlock cfiCond247
          CFI EndBlock cfiCond248
          CFI EndBlock cfiCond249
          CFI EndBlock cfiPicker250

        RSEG BANKED_CODE:HUGECODE:NOROOT(0)
?Subroutine12:
          CFI Block cfiCond251 Using cfiCommon0
          CFI Function touchLink_SendDeviceInfoRsp
          CFI Conditional ??CrossCallReturnLabel_13
          CFI R6 load(1, XDATA, add(CFA_XSP16, literal(-17)))
          CFI VB load(1, XDATA, add(CFA_XSP16, literal(-16)))
          CFI V0 load(1, XDATA, add(CFA_XSP16, literal(-15)))
          CFI V1 load(1, XDATA, add(CFA_XSP16, literal(-14)))
          CFI V2 load(1, XDATA, add(CFA_XSP16, literal(-13)))
          CFI V3 load(1, XDATA, add(CFA_XSP16, literal(-12)))
          CFI V4 load(1, XDATA, add(CFA_XSP16, literal(-11)))
          CFI V5 load(1, XDATA, add(CFA_XSP16, literal(-10)))
          CFI V6 load(1, XDATA, add(CFA_XSP16, literal(-9)))
          CFI V7 load(1, XDATA, add(CFA_XSP16, literal(-8)))
          CFI V8 load(1, XDATA, add(CFA_XSP16, literal(-7)))
          CFI R7 load(1, XDATA, add(CFA_XSP16, literal(-6)))
          CFI ?RET_LOW load(1, XDATA, add(CFA_XSP16, literal(-5)))
          CFI ?RET_HIGH load(1, XDATA, add(CFA_XSP16, literal(-4)))
          CFI ?BRET_EXT load(1, XDATA, add(CFA_XSP16, literal(-3)))
          CFI DPL0 load(1, XDATA, add(CFA_XSP16, literal(-2)))
          CFI DPH0 load(1, XDATA, add(CFA_XSP16, literal(-1)))
          CFI CFA_SP SP+-2
          CFI CFA_XSP16 add(XSP16, 17)
          CFI Block cfiCond252 Using cfiCommon0
          CFI (cfiCond252) Function touchLink_DevRejoin
          CFI (cfiCond252) Conditional ??CrossCallReturnLabel_14
          CFI (cfiCond252) R6 load(1, XDATA, add(CFA_XSP16, literal(-15)))
          CFI (cfiCond252) VB load(1, XDATA, add(CFA_XSP16, literal(-14)))
          CFI (cfiCond252) V0 load(1, XDATA, add(CFA_XSP16, literal(-13)))
          CFI (cfiCond252) V1 load(1, XDATA, add(CFA_XSP16, literal(-12)))
          CFI (cfiCond252) V2 load(1, XDATA, add(CFA_XSP16, literal(-11)))
          CFI (cfiCond252) V3 load(1, XDATA, add(CFA_XSP16, literal(-10)))
          CFI (cfiCond252) V4 load(1, XDATA, add(CFA_XSP16, literal(-9)))
          CFI (cfiCond252) V5 load(1, XDATA, add(CFA_XSP16, literal(-8)))
          CFI (cfiCond252) V6 load(1, XDATA, add(CFA_XSP16, literal(-7)))
          CFI (cfiCond252) R7 load(1, XDATA, add(CFA_XSP16, literal(-6)))
          CFI (cfiCond252) ?RET_LOW load(1, XDATA, add(CFA_XSP16, literal(-5)))
          CFI (cfiCond252) ?RET_HIGH load(1, XDATA, add(CFA_XSP16, literal(-4)))
          CFI (cfiCond252) ?BRET_EXT load(1, XDATA, add(CFA_XSP16, literal(-3)))
          CFI (cfiCond252) DPL0 load(1, XDATA, add(CFA_XSP16, literal(-2)))
          CFI (cfiCond252) DPH0 load(1, XDATA, add(CFA_XSP16, literal(-1)))
          CFI (cfiCond252) CFA_SP SP+-2
          CFI (cfiCond252) CFA_XSP16 add(XSP16, 15)
          CFI Block cfiPicker253 Using cfiCommon1
          CFI (cfiPicker253) NoFunction
          CFI (cfiPicker253) Picker
        LCALL     ?Subroutine37 & 0xFFFF
??CrossCallReturnLabel_69:
        RET
          CFI EndBlock cfiCond251
          CFI EndBlock cfiCond252
          CFI EndBlock cfiPicker253

        RSEG BANKED_CODE:HUGECODE:NOROOT(0)
?Subroutine37:
          CFI Block cfiCond254 Using cfiCommon0
          CFI Function touchLink_SendDeviceInfoRsp
          CFI Conditional ??CrossCallReturnLabel_69, ??CrossCallReturnLabel_13
          CFI R6 load(1, XDATA, add(CFA_XSP16, literal(-17)))
          CFI VB load(1, XDATA, add(CFA_XSP16, literal(-16)))
          CFI V0 load(1, XDATA, add(CFA_XSP16, literal(-15)))
          CFI V1 load(1, XDATA, add(CFA_XSP16, literal(-14)))
          CFI V2 load(1, XDATA, add(CFA_XSP16, literal(-13)))
          CFI V3 load(1, XDATA, add(CFA_XSP16, literal(-12)))
          CFI V4 load(1, XDATA, add(CFA_XSP16, literal(-11)))
          CFI V5 load(1, XDATA, add(CFA_XSP16, literal(-10)))
          CFI V6 load(1, XDATA, add(CFA_XSP16, literal(-9)))
          CFI V7 load(1, XDATA, add(CFA_XSP16, literal(-8)))
          CFI V8 load(1, XDATA, add(CFA_XSP16, literal(-7)))
          CFI R7 load(1, XDATA, add(CFA_XSP16, literal(-6)))
          CFI ?RET_LOW load(1, XDATA, add(CFA_XSP16, literal(-5)))
          CFI ?RET_HIGH load(1, XDATA, add(CFA_XSP16, literal(-4)))
          CFI ?BRET_EXT load(1, XDATA, add(CFA_XSP16, literal(-3)))
          CFI DPL0 load(1, XDATA, add(CFA_XSP16, literal(-2)))
          CFI DPH0 load(1, XDATA, add(CFA_XSP16, literal(-1)))
          CFI CFA_SP SP+-4
          CFI CFA_XSP16 add(XSP16, 17)
          CFI Block cfiCond255 Using cfiCommon0
          CFI (cfiCond255) Function touchLink_DevRejoin
          CFI (cfiCond255) Conditional ??CrossCallReturnLabel_69, ??CrossCallReturnLabel_14
          CFI (cfiCond255) R6 load(1, XDATA, add(CFA_XSP16, literal(-15)))
          CFI (cfiCond255) VB load(1, XDATA, add(CFA_XSP16, literal(-14)))
          CFI (cfiCond255) V0 load(1, XDATA, add(CFA_XSP16, literal(-13)))
          CFI (cfiCond255) V1 load(1, XDATA, add(CFA_XSP16, literal(-12)))
          CFI (cfiCond255) V2 load(1, XDATA, add(CFA_XSP16, literal(-11)))
          CFI (cfiCond255) V3 load(1, XDATA, add(CFA_XSP16, literal(-10)))
          CFI (cfiCond255) V4 load(1, XDATA, add(CFA_XSP16, literal(-9)))
          CFI (cfiCond255) V5 load(1, XDATA, add(CFA_XSP16, literal(-8)))
          CFI (cfiCond255) V6 load(1, XDATA, add(CFA_XSP16, literal(-7)))
          CFI (cfiCond255) R7 load(1, XDATA, add(CFA_XSP16, literal(-6)))
          CFI (cfiCond255) ?RET_LOW load(1, XDATA, add(CFA_XSP16, literal(-5)))
          CFI (cfiCond255) ?RET_HIGH load(1, XDATA, add(CFA_XSP16, literal(-4)))
          CFI (cfiCond255) ?BRET_EXT load(1, XDATA, add(CFA_XSP16, literal(-3)))
          CFI (cfiCond255) DPL0 load(1, XDATA, add(CFA_XSP16, literal(-2)))
          CFI (cfiCond255) DPH0 load(1, XDATA, add(CFA_XSP16, literal(-1)))
          CFI (cfiCond255) CFA_SP SP+-4
          CFI (cfiCond255) CFA_XSP16 add(XSP16, 15)
          CFI Block cfiCond256 Using cfiCommon0
          CFI (cfiCond256) Function touchLink_DevRejoin
          CFI (cfiCond256) Conditional ??CrossCallReturnLabel_70, ??CrossCallReturnLabel_0
          CFI (cfiCond256) R6 load(1, XDATA, add(CFA_XSP16, literal(-15)))
          CFI (cfiCond256) VB load(1, XDATA, add(CFA_XSP16, literal(-14)))
          CFI (cfiCond256) V0 load(1, XDATA, add(CFA_XSP16, literal(-13)))
          CFI (cfiCond256) V1 load(1, XDATA, add(CFA_XSP16, literal(-12)))
          CFI (cfiCond256) V2 load(1, XDATA, add(CFA_XSP16, literal(-11)))
          CFI (cfiCond256) V3 load(1, XDATA, add(CFA_XSP16, literal(-10)))
          CFI (cfiCond256) V4 load(1, XDATA, add(CFA_XSP16, literal(-9)))
          CFI (cfiCond256) V5 load(1, XDATA, add(CFA_XSP16, literal(-8)))
          CFI (cfiCond256) V6 load(1, XDATA, add(CFA_XSP16, literal(-7)))
          CFI (cfiCond256) R7 load(1, XDATA, add(CFA_XSP16, literal(-6)))
          CFI (cfiCond256) ?RET_LOW load(1, XDATA, add(CFA_XSP16, literal(-5)))
          CFI (cfiCond256) ?RET_HIGH load(1, XDATA, add(CFA_XSP16, literal(-4)))
          CFI (cfiCond256) ?BRET_EXT load(1, XDATA, add(CFA_XSP16, literal(-3)))
          CFI (cfiCond256) DPL0 load(1, XDATA, add(CFA_XSP16, literal(-2)))
          CFI (cfiCond256) DPH0 load(1, XDATA, add(CFA_XSP16, literal(-1)))
          CFI (cfiCond256) CFA_SP SP+-4
          CFI (cfiCond256) CFA_XSP16 add(XSP16, 15)
          CFI Block cfiCond257 Using cfiCommon0
          CFI (cfiCond257) Function touchLink_DevRejoin
          CFI (cfiCond257) Conditional ??CrossCallReturnLabel_70, ??CrossCallReturnLabel_1
          CFI (cfiCond257) R6 load(1, XDATA, add(CFA_XSP16, literal(-15)))
          CFI (cfiCond257) VB load(1, XDATA, add(CFA_XSP16, literal(-14)))
          CFI (cfiCond257) V0 load(1, XDATA, add(CFA_XSP16, literal(-13)))
          CFI (cfiCond257) V1 load(1, XDATA, add(CFA_XSP16, literal(-12)))
          CFI (cfiCond257) V2 load(1, XDATA, add(CFA_XSP16, literal(-11)))
          CFI (cfiCond257) V3 load(1, XDATA, add(CFA_XSP16, literal(-10)))
          CFI (cfiCond257) V4 load(1, XDATA, add(CFA_XSP16, literal(-9)))
          CFI (cfiCond257) V5 load(1, XDATA, add(CFA_XSP16, literal(-8)))
          CFI (cfiCond257) V6 load(1, XDATA, add(CFA_XSP16, literal(-7)))
          CFI (cfiCond257) R7 load(1, XDATA, add(CFA_XSP16, literal(-6)))
          CFI (cfiCond257) ?RET_LOW load(1, XDATA, add(CFA_XSP16, literal(-5)))
          CFI (cfiCond257) ?RET_HIGH load(1, XDATA, add(CFA_XSP16, literal(-4)))
          CFI (cfiCond257) ?BRET_EXT load(1, XDATA, add(CFA_XSP16, literal(-3)))
          CFI (cfiCond257) DPL0 load(1, XDATA, add(CFA_XSP16, literal(-2)))
          CFI (cfiCond257) DPH0 load(1, XDATA, add(CFA_XSP16, literal(-1)))
          CFI (cfiCond257) CFA_SP SP+-4
          CFI (cfiCond257) CFA_XSP16 add(XSP16, 15)
          CFI Block cfiPicker258 Using cfiCommon1
          CFI (cfiPicker258) NoFunction
          CFI (cfiPicker258) Picker
        LCALL     ?Subroutine41 & 0xFFFF
??CrossCallReturnLabel_77:
        INC       DPTR
        RET
          CFI EndBlock cfiCond254
          CFI EndBlock cfiCond255
          CFI EndBlock cfiCond256
          CFI EndBlock cfiCond257
          CFI EndBlock cfiPicker258

        RSEG BANKED_CODE:HUGECODE:NOROOT(0)
?Subroutine41:
          CFI Block cfiCond259 Using cfiCommon0
          CFI Function touchLink_SendDeviceInfoRsp
          CFI Conditional ??CrossCallReturnLabel_76
          CFI R6 load(1, XDATA, add(CFA_XSP16, literal(-17)))
          CFI VB load(1, XDATA, add(CFA_XSP16, literal(-16)))
          CFI V0 load(1, XDATA, add(CFA_XSP16, literal(-15)))
          CFI V1 load(1, XDATA, add(CFA_XSP16, literal(-14)))
          CFI V2 load(1, XDATA, add(CFA_XSP16, literal(-13)))
          CFI V3 load(1, XDATA, add(CFA_XSP16, literal(-12)))
          CFI V4 load(1, XDATA, add(CFA_XSP16, literal(-11)))
          CFI V5 load(1, XDATA, add(CFA_XSP16, literal(-10)))
          CFI V6 load(1, XDATA, add(CFA_XSP16, literal(-9)))
          CFI V7 load(1, XDATA, add(CFA_XSP16, literal(-8)))
          CFI V8 load(1, XDATA, add(CFA_XSP16, literal(-7)))
          CFI R7 load(1, XDATA, add(CFA_XSP16, literal(-6)))
          CFI ?RET_LOW load(1, XDATA, add(CFA_XSP16, literal(-5)))
          CFI ?RET_HIGH load(1, XDATA, add(CFA_XSP16, literal(-4)))
          CFI ?BRET_EXT load(1, XDATA, add(CFA_XSP16, literal(-3)))
          CFI DPL0 load(1, XDATA, add(CFA_XSP16, literal(-2)))
          CFI DPH0 load(1, XDATA, add(CFA_XSP16, literal(-1)))
          CFI CFA_SP SP+-2
          CFI CFA_XSP16 add(XSP16, 17)
          CFI Block cfiCond260 Using cfiCommon0
          CFI (cfiCond260) Function touchLink_SendDeviceInfoRsp
          CFI (cfiCond260) Conditional ??CrossCallReturnLabel_77, ??CrossCallReturnLabel_69, ??CrossCallReturnLabel_13
          CFI (cfiCond260) R6 load(1, XDATA, add(CFA_XSP16, literal(-17)))
          CFI (cfiCond260) VB load(1, XDATA, add(CFA_XSP16, literal(-16)))
          CFI (cfiCond260) V0 load(1, XDATA, add(CFA_XSP16, literal(-15)))
          CFI (cfiCond260) V1 load(1, XDATA, add(CFA_XSP16, literal(-14)))
          CFI (cfiCond260) V2 load(1, XDATA, add(CFA_XSP16, literal(-13)))
          CFI (cfiCond260) V3 load(1, XDATA, add(CFA_XSP16, literal(-12)))
          CFI (cfiCond260) V4 load(1, XDATA, add(CFA_XSP16, literal(-11)))
          CFI (cfiCond260) V5 load(1, XDATA, add(CFA_XSP16, literal(-10)))
          CFI (cfiCond260) V6 load(1, XDATA, add(CFA_XSP16, literal(-9)))
          CFI (cfiCond260) V7 load(1, XDATA, add(CFA_XSP16, literal(-8)))
          CFI (cfiCond260) V8 load(1, XDATA, add(CFA_XSP16, literal(-7)))
          CFI (cfiCond260) R7 load(1, XDATA, add(CFA_XSP16, literal(-6)))
          CFI (cfiCond260) ?RET_LOW load(1, XDATA, add(CFA_XSP16, literal(-5)))
          CFI (cfiCond260) ?RET_HIGH load(1, XDATA, add(CFA_XSP16, literal(-4)))
          CFI (cfiCond260) ?BRET_EXT load(1, XDATA, add(CFA_XSP16, literal(-3)))
          CFI (cfiCond260) DPL0 load(1, XDATA, add(CFA_XSP16, literal(-2)))
          CFI (cfiCond260) DPH0 load(1, XDATA, add(CFA_XSP16, literal(-1)))
          CFI (cfiCond260) CFA_SP SP+-6
          CFI (cfiCond260) CFA_XSP16 add(XSP16, 17)
          CFI Block cfiCond261 Using cfiCommon0
          CFI (cfiCond261) Function touchLink_DevRejoin
          CFI (cfiCond261) Conditional ??CrossCallReturnLabel_77, ??CrossCallReturnLabel_69, ??CrossCallReturnLabel_14
          CFI (cfiCond261) R6 load(1, XDATA, add(CFA_XSP16, literal(-15)))
          CFI (cfiCond261) VB load(1, XDATA, add(CFA_XSP16, literal(-14)))
          CFI (cfiCond261) V0 load(1, XDATA, add(CFA_XSP16, literal(-13)))
          CFI (cfiCond261) V1 load(1, XDATA, add(CFA_XSP16, literal(-12)))
          CFI (cfiCond261) V2 load(1, XDATA, add(CFA_XSP16, literal(-11)))
          CFI (cfiCond261) V3 load(1, XDATA, add(CFA_XSP16, literal(-10)))
          CFI (cfiCond261) V4 load(1, XDATA, add(CFA_XSP16, literal(-9)))
          CFI (cfiCond261) V5 load(1, XDATA, add(CFA_XSP16, literal(-8)))
          CFI (cfiCond261) V6 load(1, XDATA, add(CFA_XSP16, literal(-7)))
          CFI (cfiCond261) R7 load(1, XDATA, add(CFA_XSP16, literal(-6)))
          CFI (cfiCond261) ?RET_LOW load(1, XDATA, add(CFA_XSP16, literal(-5)))
          CFI (cfiCond261) ?RET_HIGH load(1, XDATA, add(CFA_XSP16, literal(-4)))
          CFI (cfiCond261) ?BRET_EXT load(1, XDATA, add(CFA_XSP16, literal(-3)))
          CFI (cfiCond261) DPL0 load(1, XDATA, add(CFA_XSP16, literal(-2)))
          CFI (cfiCond261) DPH0 load(1, XDATA, add(CFA_XSP16, literal(-1)))
          CFI (cfiCond261) CFA_SP SP+-6
          CFI (cfiCond261) CFA_XSP16 add(XSP16, 15)
          CFI Block cfiCond262 Using cfiCommon0
          CFI (cfiCond262) Function touchLink_DevRejoin
          CFI (cfiCond262) Conditional ??CrossCallReturnLabel_77, ??CrossCallReturnLabel_70, ??CrossCallReturnLabel_0
          CFI (cfiCond262) R6 load(1, XDATA, add(CFA_XSP16, literal(-15)))
          CFI (cfiCond262) VB load(1, XDATA, add(CFA_XSP16, literal(-14)))
          CFI (cfiCond262) V0 load(1, XDATA, add(CFA_XSP16, literal(-13)))
          CFI (cfiCond262) V1 load(1, XDATA, add(CFA_XSP16, literal(-12)))
          CFI (cfiCond262) V2 load(1, XDATA, add(CFA_XSP16, literal(-11)))
          CFI (cfiCond262) V3 load(1, XDATA, add(CFA_XSP16, literal(-10)))
          CFI (cfiCond262) V4 load(1, XDATA, add(CFA_XSP16, literal(-9)))
          CFI (cfiCond262) V5 load(1, XDATA, add(CFA_XSP16, literal(-8)))
          CFI (cfiCond262) V6 load(1, XDATA, add(CFA_XSP16, literal(-7)))
          CFI (cfiCond262) R7 load(1, XDATA, add(CFA_XSP16, literal(-6)))
          CFI (cfiCond262) ?RET_LOW load(1, XDATA, add(CFA_XSP16, literal(-5)))
          CFI (cfiCond262) ?RET_HIGH load(1, XDATA, add(CFA_XSP16, literal(-4)))
          CFI (cfiCond262) ?BRET_EXT load(1, XDATA, add(CFA_XSP16, literal(-3)))
          CFI (cfiCond262) DPL0 load(1, XDATA, add(CFA_XSP16, literal(-2)))
          CFI (cfiCond262) DPH0 load(1, XDATA, add(CFA_XSP16, literal(-1)))
          CFI (cfiCond262) CFA_SP SP+-6
          CFI (cfiCond262) CFA_XSP16 add(XSP16, 15)
          CFI Block cfiCond263 Using cfiCommon0
          CFI (cfiCond263) Function touchLink_DevRejoin
          CFI (cfiCond263) Conditional ??CrossCallReturnLabel_77, ??CrossCallReturnLabel_70, ??CrossCallReturnLabel_1
          CFI (cfiCond263) R6 load(1, XDATA, add(CFA_XSP16, literal(-15)))
          CFI (cfiCond263) VB load(1, XDATA, add(CFA_XSP16, literal(-14)))
          CFI (cfiCond263) V0 load(1, XDATA, add(CFA_XSP16, literal(-13)))
          CFI (cfiCond263) V1 load(1, XDATA, add(CFA_XSP16, literal(-12)))
          CFI (cfiCond263) V2 load(1, XDATA, add(CFA_XSP16, literal(-11)))
          CFI (cfiCond263) V3 load(1, XDATA, add(CFA_XSP16, literal(-10)))
          CFI (cfiCond263) V4 load(1, XDATA, add(CFA_XSP16, literal(-9)))
          CFI (cfiCond263) V5 load(1, XDATA, add(CFA_XSP16, literal(-8)))
          CFI (cfiCond263) V6 load(1, XDATA, add(CFA_XSP16, literal(-7)))
          CFI (cfiCond263) R7 load(1, XDATA, add(CFA_XSP16, literal(-6)))
          CFI (cfiCond263) ?RET_LOW load(1, XDATA, add(CFA_XSP16, literal(-5)))
          CFI (cfiCond263) ?RET_HIGH load(1, XDATA, add(CFA_XSP16, literal(-4)))
          CFI (cfiCond263) ?BRET_EXT load(1, XDATA, add(CFA_XSP16, literal(-3)))
          CFI (cfiCond263) DPL0 load(1, XDATA, add(CFA_XSP16, literal(-2)))
          CFI (cfiCond263) DPH0 load(1, XDATA, add(CFA_XSP16, literal(-1)))
          CFI (cfiCond263) CFA_SP SP+-6
          CFI (cfiCond263) CFA_XSP16 add(XSP16, 15)
          CFI Block cfiPicker264 Using cfiCommon1
          CFI (cfiPicker264) NoFunction
          CFI (cfiPicker264) Picker
        MOVX      @DPTR,A
        MOV       DPL,R6
        MOV       DPH,R7
        INC       DPTR
        INC       DPTR
        INC       DPTR
        INC       DPTR
        INC       DPTR
        RET
          CFI EndBlock cfiCond259
          CFI EndBlock cfiCond260
          CFI EndBlock cfiCond261
          CFI EndBlock cfiCond262
          CFI EndBlock cfiCond263
          CFI EndBlock cfiPicker264

        RSEG BANKED_CODE:HUGECODE:NOROOT(0)
?Subroutine8:
          CFI Block cfiCond265 Using cfiCommon0
          CFI Function touchLink_DevRejoin
          CFI Conditional ??CrossCallReturnLabel_4
          CFI R6 load(1, XDATA, add(CFA_XSP16, literal(-15)))
          CFI VB load(1, XDATA, add(CFA_XSP16, literal(-14)))
          CFI V0 load(1, XDATA, add(CFA_XSP16, literal(-13)))
          CFI V1 load(1, XDATA, add(CFA_XSP16, literal(-12)))
          CFI V2 load(1, XDATA, add(CFA_XSP16, literal(-11)))
          CFI V3 load(1, XDATA, add(CFA_XSP16, literal(-10)))
          CFI V4 load(1, XDATA, add(CFA_XSP16, literal(-9)))
          CFI V5 load(1, XDATA, add(CFA_XSP16, literal(-8)))
          CFI V6 load(1, XDATA, add(CFA_XSP16, literal(-7)))
          CFI R7 load(1, XDATA, add(CFA_XSP16, literal(-6)))
          CFI ?RET_LOW load(1, XDATA, add(CFA_XSP16, literal(-5)))
          CFI ?RET_HIGH load(1, XDATA, add(CFA_XSP16, literal(-4)))
          CFI ?BRET_EXT load(1, XDATA, add(CFA_XSP16, literal(-3)))
          CFI DPL0 load(1, XDATA, add(CFA_XSP16, literal(-2)))
          CFI DPH0 load(1, XDATA, add(CFA_XSP16, literal(-1)))
          CFI CFA_SP SP+-2
          CFI CFA_XSP16 add(XSP16, 15)
          CFI Block cfiCond266 Using cfiCommon0
          CFI (cfiCond266) Function touchLink_DevRejoin
          CFI (cfiCond266) Conditional ??CrossCallReturnLabel_5
          CFI (cfiCond266) R6 load(1, XDATA, add(CFA_XSP16, literal(-15)))
          CFI (cfiCond266) VB load(1, XDATA, add(CFA_XSP16, literal(-14)))
          CFI (cfiCond266) V0 load(1, XDATA, add(CFA_XSP16, literal(-13)))
          CFI (cfiCond266) V1 load(1, XDATA, add(CFA_XSP16, literal(-12)))
          CFI (cfiCond266) V2 load(1, XDATA, add(CFA_XSP16, literal(-11)))
          CFI (cfiCond266) V3 load(1, XDATA, add(CFA_XSP16, literal(-10)))
          CFI (cfiCond266) V4 load(1, XDATA, add(CFA_XSP16, literal(-9)))
          CFI (cfiCond266) V5 load(1, XDATA, add(CFA_XSP16, literal(-8)))
          CFI (cfiCond266) V6 load(1, XDATA, add(CFA_XSP16, literal(-7)))
          CFI (cfiCond266) R7 load(1, XDATA, add(CFA_XSP16, literal(-6)))
          CFI (cfiCond266) ?RET_LOW load(1, XDATA, add(CFA_XSP16, literal(-5)))
          CFI (cfiCond266) ?RET_HIGH load(1, XDATA, add(CFA_XSP16, literal(-4)))
          CFI (cfiCond266) ?BRET_EXT load(1, XDATA, add(CFA_XSP16, literal(-3)))
          CFI (cfiCond266) DPL0 load(1, XDATA, add(CFA_XSP16, literal(-2)))
          CFI (cfiCond266) DPH0 load(1, XDATA, add(CFA_XSP16, literal(-1)))
          CFI (cfiCond266) CFA_SP SP+-2
          CFI (cfiCond266) CFA_XSP16 add(XSP16, 15)
          CFI Block cfiPicker267 Using cfiCommon1
          CFI (cfiPicker267) NoFunction
          CFI (cfiPicker267) Picker
        LCALL     ?Subroutine38 & 0xFFFF
??CrossCallReturnLabel_72:
        INC       DPTR
        INC       DPTR
        RET
          CFI EndBlock cfiCond265
          CFI EndBlock cfiCond266
          CFI EndBlock cfiPicker267

        RSEG BANKED_CODE:HUGECODE:NOROOT(0)
?Subroutine7:
          CFI Block cfiCond268 Using cfiCommon0
          CFI Function touchLinkStartRtr
          CFI Conditional ??CrossCallReturnLabel_2
          CFI R6 load(1, XDATA, add(CFA_XSP16, literal(-9)))
          CFI VB load(1, XDATA, add(CFA_XSP16, literal(-8)))
          CFI V0 load(1, XDATA, add(CFA_XSP16, literal(-7)))
          CFI R7 load(1, XDATA, add(CFA_XSP16, literal(-6)))
          CFI ?RET_LOW load(1, XDATA, add(CFA_XSP16, literal(-5)))
          CFI ?RET_HIGH load(1, XDATA, add(CFA_XSP16, literal(-4)))
          CFI ?BRET_EXT load(1, XDATA, add(CFA_XSP16, literal(-3)))
          CFI DPL0 load(1, XDATA, add(CFA_XSP16, literal(-2)))
          CFI DPH0 load(1, XDATA, add(CFA_XSP16, literal(-1)))
          CFI CFA_SP SP+-2
          CFI CFA_XSP16 add(XSP16, 9)
          CFI Block cfiCond269 Using cfiCommon0
          CFI (cfiCond269) Function touchLink_DevRejoin
          CFI (cfiCond269) Conditional ??CrossCallReturnLabel_3
          CFI (cfiCond269) R6 load(1, XDATA, add(CFA_XSP16, literal(-15)))
          CFI (cfiCond269) VB load(1, XDATA, add(CFA_XSP16, literal(-14)))
          CFI (cfiCond269) V0 load(1, XDATA, add(CFA_XSP16, literal(-13)))
          CFI (cfiCond269) V1 load(1, XDATA, add(CFA_XSP16, literal(-12)))
          CFI (cfiCond269) V2 load(1, XDATA, add(CFA_XSP16, literal(-11)))
          CFI (cfiCond269) V3 load(1, XDATA, add(CFA_XSP16, literal(-10)))
          CFI (cfiCond269) V4 load(1, XDATA, add(CFA_XSP16, literal(-9)))
          CFI (cfiCond269) V5 load(1, XDATA, add(CFA_XSP16, literal(-8)))
          CFI (cfiCond269) V6 load(1, XDATA, add(CFA_XSP16, literal(-7)))
          CFI (cfiCond269) R7 load(1, XDATA, add(CFA_XSP16, literal(-6)))
          CFI (cfiCond269) ?RET_LOW load(1, XDATA, add(CFA_XSP16, literal(-5)))
          CFI (cfiCond269) ?RET_HIGH load(1, XDATA, add(CFA_XSP16, literal(-4)))
          CFI (cfiCond269) ?BRET_EXT load(1, XDATA, add(CFA_XSP16, literal(-3)))
          CFI (cfiCond269) DPL0 load(1, XDATA, add(CFA_XSP16, literal(-2)))
          CFI (cfiCond269) DPH0 load(1, XDATA, add(CFA_XSP16, literal(-1)))
          CFI (cfiCond269) CFA_SP SP+-2
          CFI (cfiCond269) CFA_XSP16 add(XSP16, 15)
          CFI Block cfiPicker270 Using cfiCommon1
          CFI (cfiPicker270) NoFunction
          CFI (cfiPicker270) Picker
        MOVX      @DPTR,A
        ; Setup parameters for call to function touchLink_UpdateNV
        ; Setup parameters for call to function touchLink_UpdateNV
        MOV       R1,#0x2
        LCALL     `??touchLink_UpdateNV::?relay`; Banked call to: touchLink_UpdateNV
        MOV       DPTR,#touchLinkLeaveInitiated
        CLR       A
        MOVX      @DPTR,A
        ; Setup parameters for call to function ZDApp_LeaveCtrlReset
        ; Setup parameters for call to function ZDApp_LeaveCtrlReset
        LCALL     `??ZDApp_LeaveCtrlReset::?relay`; Banked call to: ZDApp_LeaveCtrlReset
        RET
          CFI EndBlock cfiCond268
          CFI EndBlock cfiCond269
          CFI EndBlock cfiPicker270

        RSEG BANKED_CODE:HUGECODE:NOROOT(0)
?Subroutine6:
          CFI Block cfiCond271 Using cfiCommon0
          CFI Function touchLink_DevRejoin
          CFI Conditional ??CrossCallReturnLabel_0
          CFI R6 load(1, XDATA, add(CFA_XSP16, literal(-15)))
          CFI VB load(1, XDATA, add(CFA_XSP16, literal(-14)))
          CFI V0 load(1, XDATA, add(CFA_XSP16, literal(-13)))
          CFI V1 load(1, XDATA, add(CFA_XSP16, literal(-12)))
          CFI V2 load(1, XDATA, add(CFA_XSP16, literal(-11)))
          CFI V3 load(1, XDATA, add(CFA_XSP16, literal(-10)))
          CFI V4 load(1, XDATA, add(CFA_XSP16, literal(-9)))
          CFI V5 load(1, XDATA, add(CFA_XSP16, literal(-8)))
          CFI V6 load(1, XDATA, add(CFA_XSP16, literal(-7)))
          CFI R7 load(1, XDATA, add(CFA_XSP16, literal(-6)))
          CFI ?RET_LOW load(1, XDATA, add(CFA_XSP16, literal(-5)))
          CFI ?RET_HIGH load(1, XDATA, add(CFA_XSP16, literal(-4)))
          CFI ?BRET_EXT load(1, XDATA, add(CFA_XSP16, literal(-3)))
          CFI DPL0 load(1, XDATA, add(CFA_XSP16, literal(-2)))
          CFI DPH0 load(1, XDATA, add(CFA_XSP16, literal(-1)))
          CFI CFA_SP SP+-2
          CFI CFA_XSP16 add(XSP16, 15)
          CFI Block cfiCond272 Using cfiCommon0
          CFI (cfiCond272) Function touchLink_DevRejoin
          CFI (cfiCond272) Conditional ??CrossCallReturnLabel_1
          CFI (cfiCond272) R6 load(1, XDATA, add(CFA_XSP16, literal(-15)))
          CFI (cfiCond272) VB load(1, XDATA, add(CFA_XSP16, literal(-14)))
          CFI (cfiCond272) V0 load(1, XDATA, add(CFA_XSP16, literal(-13)))
          CFI (cfiCond272) V1 load(1, XDATA, add(CFA_XSP16, literal(-12)))
          CFI (cfiCond272) V2 load(1, XDATA, add(CFA_XSP16, literal(-11)))
          CFI (cfiCond272) V3 load(1, XDATA, add(CFA_XSP16, literal(-10)))
          CFI (cfiCond272) V4 load(1, XDATA, add(CFA_XSP16, literal(-9)))
          CFI (cfiCond272) V5 load(1, XDATA, add(CFA_XSP16, literal(-8)))
          CFI (cfiCond272) V6 load(1, XDATA, add(CFA_XSP16, literal(-7)))
          CFI (cfiCond272) R7 load(1, XDATA, add(CFA_XSP16, literal(-6)))
          CFI (cfiCond272) ?RET_LOW load(1, XDATA, add(CFA_XSP16, literal(-5)))
          CFI (cfiCond272) ?RET_HIGH load(1, XDATA, add(CFA_XSP16, literal(-4)))
          CFI (cfiCond272) ?BRET_EXT load(1, XDATA, add(CFA_XSP16, literal(-3)))
          CFI (cfiCond272) DPL0 load(1, XDATA, add(CFA_XSP16, literal(-2)))
          CFI (cfiCond272) DPH0 load(1, XDATA, add(CFA_XSP16, literal(-1)))
          CFI (cfiCond272) CFA_SP SP+-2
          CFI (cfiCond272) CFA_XSP16 add(XSP16, 15)
          CFI Block cfiPicker273 Using cfiCommon1
          CFI (cfiPicker273) NoFunction
          CFI (cfiPicker273) Picker
        MOV       A,R0
        MOVX      @DPTR,A
        INC       DPTR
        MOV       A,R1
        LCALL     ?Subroutine37 & 0xFFFF
??CrossCallReturnLabel_70:
        INC       DPTR
        INC       DPTR
        RET
          CFI EndBlock cfiCond271
          CFI EndBlock cfiCond272
          CFI EndBlock cfiPicker273
// 1534 
// 1535 /*********************************************************************
// 1536  * @fn      touchLink_DeviceIsInitiator
// 1537  *
// 1538  * @brief   Set device initiator flag.
// 1539  *
// 1540  * @param   initiator - new flag value
// 1541  *
// 1542  * @return  none
// 1543  */

        RSEG BANKED_CODE:HUGECODE:NOROOT(0)
// 1544 void touchLink_DeviceIsInitiator( bool initiator )
touchLink_DeviceIsInitiator:
          CFI Block cfiBlock274 Using cfiCommon0
          CFI Function touchLink_DeviceIsInitiator
        CODE
// 1545 {
        PUSH      DPL
          CFI DPL0 Frame(CFA_SP, 4)
          CFI CFA_SP SP+-4
        PUSH      DPH
          CFI DPH0 Frame(CFA_SP, 5)
          CFI CFA_SP SP+-5
        ; Saved register size: 2
        ; Auto size: 0
// 1546   touchLinkIsInitiator = initiator;
        MOV       A,R1
        MOV       DPTR,#touchLinkIsInitiator
        LJMP      ??Subroutine45_0 & 0xFFFF
// 1547 }
          CFI EndBlock cfiBlock274
// 1548 
// 1549 /*********************************************************************
// 1550  * @fn      touchLink_DeviceIsInitiator
// 1551  *
// 1552  * @brief   Get device initiator flag.
// 1553  *
// 1554  * @param   none
// 1555  *
// 1556  * @return  touchLinkIsInitiator - flag value
// 1557  */

        RSEG BANKED_CODE:HUGECODE:NOROOT(0)
// 1558 bool touchLink_GetDeviceInitiator( void )
touchLink_GetDeviceInitiator:
          CFI Block cfiBlock275 Using cfiCommon0
          CFI Function touchLink_GetDeviceInitiator
        CODE
// 1559 {
        PUSH      DPL
          CFI DPL0 Frame(CFA_SP, 4)
          CFI CFA_SP SP+-4
        PUSH      DPH
          CFI DPH0 Frame(CFA_SP, 5)
          CFI CFA_SP SP+-5
        ; Saved register size: 2
        ; Auto size: 0
// 1560   return touchLinkIsInitiator;
        MOV       DPTR,#touchLinkIsInitiator
        MOVX      A,@DPTR
        MOV       R1,A
        LJMP      ??Subroutine46_0 & 0xFFFF
// 1561 }
          CFI EndBlock cfiBlock275

        RSEG XDATA_ID:CODE:NOROOT(0)
`?<Initializer for touchLink_EP_SimpleDesc>`:
        DATA8
        DB 13
        DATA16
        DW 49246
        DW 57694
        DATA8
        DB 2
        DB 1
        DATA16
        DW touchLink_EP_InClusterList
        DATA8
        DB 1
        DATA16
        DW touchLink_EP_OutClusterList

        RSEG XDATA_ID:CODE:NOROOT(0)
`?<Initializer for touchLink_EP>`:
        DATA8
        DB 13
        DB 0
        DATA16
        DW touchLinkTaskId
        DW 0H
        DATA8
        DB 0

        RSEG BANK_RELAYS:CODE:REORDER:NOROOT(0)
`??touchLink_InitVariables::?relay`:
        CODE
        LCALL   ?BDISPATCH
        DATA24
        DC24    touchLink_InitVariables

        RSEG BANK_RELAYS:CODE:REORDER:NOROOT(0)
`??touchLink_InitFreeRanges::?relay`:
        CODE
        LCALL   ?BDISPATCH
        DATA24
        DC24    touchLink_InitFreeRanges

        RSEG BANK_RELAYS:CODE:REORDER:NOROOT(0)
`??touchLink_UpdateFreeRanges::?relay`:
        CODE
        LCALL   ?BDISPATCH
        DATA24
        DC24    touchLink_UpdateFreeRanges

        RSEG BANK_RELAYS:CODE:REORDER:NOROOT(0)
`??touchLink_GerFreeRanges::?relay`:
        CODE
        LCALL   ?BDISPATCH
        DATA24
        DC24    touchLink_GerFreeRanges

        RSEG BANK_RELAYS:CODE:REORDER:NOROOT(0)
`??touchLink_IsValidSplitFreeRanges::?relay`:
        CODE
        LCALL   ?BDISPATCH
        DATA24
        DC24    touchLink_IsValidSplitFreeRanges

        RSEG BANK_RELAYS:CODE:REORDER:NOROOT(0)
`??touchLink_SplitFreeRanges::?relay`:
        CODE
        LCALL   ?BDISPATCH
        DATA24
        DC24    touchLink_SplitFreeRanges

        RSEG BANK_RELAYS:CODE:REORDER:NOROOT(0)
`??touchLink_PopGrpIDRange::?relay`:
        CODE
        LCALL   ?BDISPATCH
        DATA24
        DC24    touchLink_PopGrpIDRange

        RSEG BANK_RELAYS:CODE:REORDER:NOROOT(0)
`??touchLink_PopNwkAddress::?relay`:
        CODE
        LCALL   ?BDISPATCH
        DATA24
        DC24    touchLink_PopNwkAddress

        RSEG BANK_RELAYS:CODE:REORDER:NOROOT(0)
`??touchLink_GetNumSubDevices::?relay`:
        CODE
        LCALL   ?BDISPATCH
        DATA24
        DC24    touchLink_GetNumSubDevices

        RSEG BANK_RELAYS:CODE:REORDER:NOROOT(0)
`??touchLink_GetNumGrpIDs::?relay`:
        CODE
        LCALL   ?BDISPATCH
        DATA24
        DC24    touchLink_GetNumGrpIDs

        RSEG BANK_RELAYS:CODE:REORDER:NOROOT(0)
`??touchLink_GetSubDeviceInfo::?relay`:
        CODE
        LCALL   ?BDISPATCH
        DATA24
        DC24    touchLink_GetSubDeviceInfo

        RSEG BANK_RELAYS:CODE:REORDER:NOROOT(0)
`??touchLink_EncryptNwkKey::?relay`:
        CODE
        LCALL   ?BDISPATCH
        DATA24
        DC24    touchLink_EncryptNwkKey

        RSEG BANK_RELAYS:CODE:REORDER:NOROOT(0)
`??touchLink_DecryptNwkKey::?relay`:
        CODE
        LCALL   ?BDISPATCH
        DATA24
        DC24    touchLink_DecryptNwkKey

        RSEG BANK_RELAYS:CODE:REORDER:NOROOT(0)
`??touchLink_BuildAesKey::?relay`:
        CODE
        LCALL   ?BDISPATCH
        DATA24
        DC24    touchLink_BuildAesKey

        RSEG BANK_RELAYS:CODE:REORDER:NOROOT(0)
`??touchLink_UpdateNwkKey::?relay`:
        CODE
        LCALL   ?BDISPATCH
        DATA24
        DC24    touchLink_UpdateNwkKey

        RSEG BANK_RELAYS:CODE:REORDER:NOROOT(0)
`??touchLink_GetNwkKeyBitmask::?relay`:
        CODE
        LCALL   ?BDISPATCH
        DATA24
        DC24    touchLink_GetNwkKeyBitmask

        RSEG BANK_RELAYS:CODE:REORDER:NOROOT(0)
`??touchLink_GenerateRandNum::?relay`:
        CODE
        LCALL   ?BDISPATCH
        DATA24
        DC24    touchLink_GenerateRandNum

        RSEG BANK_RELAYS:CODE:REORDER:NOROOT(0)
`??touchLink_GetRandPrimaryChannel::?relay`:
        CODE
        LCALL   ?BDISPATCH
        DATA24
        DC24    touchLink_GetRandPrimaryChannel

        RSEG BANK_RELAYS:CODE:REORDER:NOROOT(0)
`??touchLink_SetNIB::?relay`:
        CODE
        LCALL   ?BDISPATCH
        DATA24
        DC24    touchLink_SetNIB

        RSEG BANK_RELAYS:CODE:REORDER:NOROOT(0)
`??touchLink_ProcessNwkUpdate::?relay`:
        CODE
        LCALL   ?BDISPATCH
        DATA24
        DC24    touchLink_ProcessNwkUpdate

        RSEG BANK_RELAYS:CODE:REORDER:NOROOT(0)
`??touchLink_UpdateNV::?relay`:
        CODE
        LCALL   ?BDISPATCH
        DATA24
        DC24    touchLink_UpdateNV

        RSEG BANK_RELAYS:CODE:REORDER:NOROOT(0)
`??touchLink_ItemInit::?relay`:
        CODE
        LCALL   ?BDISPATCH
        DATA24
        DC24    touchLink_ItemInit

        RSEG BANK_RELAYS:CODE:REORDER:NOROOT(0)
`??touchLink_SetMacNwkParams::?relay`:
        CODE
        LCALL   ?BDISPATCH
        DATA24
        DC24    touchLink_SetMacNwkParams

        RSEG BANK_RELAYS:CODE:REORDER:NOROOT(0)
`??touchLink_SetChannel::?relay`:
        CODE
        LCALL   ?BDISPATCH
        DATA24
        DC24    touchLink_SetChannel

        RSEG BANK_RELAYS:CODE:REORDER:NOROOT(0)
`??touchLink_SendDeviceInfoRsp::?relay`:
        CODE
        LCALL   ?BDISPATCH
        DATA24
        DC24    touchLink_SendDeviceInfoRsp

        RSEG BANK_RELAYS:CODE:REORDER:NOROOT(0)
`??touchLink_SendLeaveReq::?relay`:
        CODE
        LCALL   ?BDISPATCH
        DATA24
        DC24    touchLink_SendLeaveReq

        RSEG BANK_RELAYS:CODE:REORDER:NOROOT(0)
`??touchLink_GetMsgRssi::?relay`:
        CODE
        LCALL   ?BDISPATCH
        DATA24
        DC24    touchLink_GetMsgRssi

        RSEG BANK_RELAYS:CODE:REORDER:NOROOT(0)
`??touchLink_NewNwkUpdateId::?relay`:
        CODE
        LCALL   ?BDISPATCH
        DATA24
        DC24    touchLink_NewNwkUpdateId

        RSEG BANK_RELAYS:CODE:REORDER:NOROOT(0)
`??touchLink_SetTouchLinkTaskId::?relay`:
        CODE
        LCALL   ?BDISPATCH
        DATA24
        DC24    touchLink_SetTouchLinkTaskId

        RSEG BANK_RELAYS:CODE:REORDER:NOROOT(0)
`??touchLink_PerformNetworkDisc::?relay`:
        CODE
        LCALL   ?BDISPATCH
        DATA24
        DC24    touchLink_PerformNetworkDisc

        RSEG BANK_RELAYS:CODE:REORDER:NOROOT(0)
`??touchLink_BeaconIndCB::?relay`:
        CODE
        LCALL   ?BDISPATCH
        DATA24
        DC24    touchLink_BeaconIndCB

        RSEG BANK_RELAYS:CODE:REORDER:NOROOT(0)
`??touchLink_NwkDiscoveryCnfCB::?relay`:
        CODE
        LCALL   ?BDISPATCH
        DATA24
        DC24    touchLink_NwkDiscoveryCnfCB

        RSEG BANK_RELAYS:CODE:REORDER:NOROOT(0)
`??touchLink_FreeNwkParamList::?relay`:
        CODE
        LCALL   ?BDISPATCH
        DATA24
        DC24    touchLink_FreeNwkParamList

        RSEG BANK_RELAYS:CODE:REORDER:NOROOT(0)
`??touchLink_IsValidTransID::?relay`:
        CODE
        LCALL   ?BDISPATCH
        DATA24
        DC24    touchLink_IsValidTransID

        RSEG BANK_RELAYS:CODE:REORDER:NOROOT(0)
`??touchLink_RouterProcessZDOMsg::?relay`:
        CODE
        LCALL   ?BDISPATCH
        DATA24
        DC24    touchLink_RouterProcessZDOMsg

        RSEG BANK_RELAYS:CODE:REORDER:NOROOT(0)
`??touchLink_PermitJoin::?relay`:
        CODE
        LCALL   ?BDISPATCH
        DATA24
        DC24    touchLink_PermitJoin

        RSEG BANK_RELAYS:CODE:REORDER:NOROOT(0)
`??touchLinkStartRtr::?relay`:
        CODE
        LCALL   ?BDISPATCH
        DATA24
        DC24    touchLinkStartRtr

        RSEG BANK_RELAYS:CODE:REORDER:NOROOT(0)
`??touchLink_DevRejoin::?relay`:
        CODE
        LCALL   ?BDISPATCH
        DATA24
        DC24    touchLink_DevRejoin

        RSEG BANK_RELAYS:CODE:REORDER:NOROOT(0)
`??touchLink_DeviceIsInitiator::?relay`:
        CODE
        LCALL   ?BDISPATCH
        DATA24
        DC24    touchLink_DeviceIsInitiator

        RSEG BANK_RELAYS:CODE:REORDER:NOROOT(0)
`??touchLink_GetDeviceInitiator::?relay`:
        CODE
        LCALL   ?BDISPATCH
        DATA24
        DC24    touchLink_GetDeviceInitiator

        RSEG XDATA_ROM_C:CONST:REORDER:NOROOT(0)
        DATA8
`?<Constant {80, 104, 76, 105, 234, 156, 209, 5`:
        DB 80
        DB 104
        DB 76
        DB 105
        DB 234
        DB 156
        DB 209
        DB 56
        DB 67
        DB 76
        DB 83
        DB 78
        DB 143
        DB 141
        DB 186
        DB 180

        RSEG XDATA_ROM_C:CONST:REORDER:NOROOT(0)
        DATA8
`?<Constant {192, 193, 194, 195, 196, 197, 198,`:
        DB 192
        DB 193
        DB 194
        DB 195
        DB 196
        DB 197
        DB 198
        DB 199
        DB 200
        DB 201
        DB 202
        DB 203
        DB 204
        DB 205
        DB 206
        DB 207

        RSEG XDATA_ROM_C:CONST:REORDER:NOROOT(0)
        DATA8
`?<Constant {80, 104, 76, 105, 234, 156, 209, 5_1`:
        DB 80
        DB 104
        DB 76
        DB 105
        DB 234
        DB 156
        DB 209
        DB 56
        DB 67
        DB 76
        DB 83
        DB 78
        DB 143
        DB 141
        DB 186
        DB 180

        RSEG XDATA_ROM_C:CONST:REORDER:NOROOT(0)
        DATA8
`?<Constant {192, 193, 194, 195, 196, 197, 198,_1`:
        DB 192
        DB 193
        DB 194
        DB 195
        DB 196
        DB 197
        DB 198
        DB 199
        DB 200
        DB 201
        DB 202
        DB 203
        DB 204
        DB 205
        DB 206
        DB 207

        RSEG XDATA_ROM_C:CONST:REORDER:NOROOT(0)
        DATA32
__Constant_1:
        DD 1

        END
// 1562 
// 1563 #endif // BDB_TL_TARGET || BDB_TL_INITIATOR
// 1564 
// 1565 /*********************************************************************
// 1566 *********************************************************************/
// 
// 4 749 bytes in segment BANKED_CODE
//   240 bytes in segment BANK_RELAYS
//    19 bytes in segment XDATA_I
//    19 bytes in segment XDATA_ID
//    72 bytes in segment XDATA_ROM_C
//    41 bytes in segment XDATA_Z
// 
//   259 bytes of CODE     memory
//    68 bytes of CONST    memory (+ 4 bytes shared)
// 4 749 bytes of HUGECODE memory
//    60 bytes of XDATA    memory
//
//Errors: none
//Warnings: none
