///////////////////////////////////////////////////////////////////////////////
//
// IAR C/C++ Compiler V10.30.1.6000 for 8051              29/Jul/2020  20:16:05
// Copyright 2004-2018 IAR Systems AB.
// PC-locked license - IAR Embedded Workbench for 8051
//
//    Core               =  plain
//    Code model         =  banked
//    Data model         =  large
//    Calling convention =  xdata reentrant
//    Constant location  =  data_rom
//    Dptr setup         =  1,16
//                          
//    Source file        =  
//        D:\AA\Z-Stack 3.0.2\Components\stack\bdb\bdb_touchlink_initiator.c
//    Command line       =  
//        -f C:\Users\sunli\AppData\Local\Temp\EWC1E4.tmp ("D:\AA\Z-Stack
//        3.0.2\Components\stack\bdb\bdb_touchlink_initiator.c" -D SECURE=1 -D
//        TC_LINKKEY_JOIN -D NV_INIT -D NV_RESTORE -D xZTOOL_P1 -D xMT_TASK -D
//        xMT_APP_FUNC -D xMT_SYS_FUNC -D xMT_ZDO_FUNC -D xMT_ZDO_MGMT -D
//        xMT_APP_CNF_FUNC -D LCD_SUPPORTED=DEBUG -D MULTICAST_ENABLED=FALSE -D
//        ZCL_READ -D ZCL_DISCOVER -D ZCL_WRITE -D ZCL_BASIC -D ZCL_IDENTIFY -D
//        ZCL_ON_OFF -D ZCL_GROUPS -D BDB_TL_INITIATOR -D INTER_PAN -lC
//        "D:\AA\Z-Stack
//        3.0.2\Projects\zstack\HomeAutomation\SampleSwitch\CC2530DB\RouterEB\List"
//        -lA "D:\AA\Z-Stack
//        3.0.2\Projects\zstack\HomeAutomation\SampleSwitch\CC2530DB\RouterEB\List"
//        --diag_suppress Pe001,Pa010 -o "D:\AA\Z-Stack
//        3.0.2\Projects\zstack\HomeAutomation\SampleSwitch\CC2530DB\RouterEB\Obj"
//        -e --debug --core=plain --dptr=16,1 --data_model=large
//        --code_model=banked --calling_convention=xdata_reentrant
//        --place_constants=data_rom --nr_virtual_regs 16 -f "D:\AA\Z-Stack
//        3.0.2\Projects\zstack\HomeAutomation\SampleSwitch\CC2530DB\..\..\..\Tools\CC2530DB\f8wRouter.cfg"
//        (-DCPU32MHZ -DROOT=__near_func -DMAC_CFG_APP_PENDING_QUEUE=TRUE
//        -DMAC_CFG_TX_DATA_MAX=5 -DMAC_CFG_TX_MAX=8 -DMAC_CFG_RX_MAX=5
//        -DRTR_NWK) -f "D:\AA\Z-Stack
//        3.0.2\Projects\zstack\HomeAutomation\SampleSwitch\CC2530DB\..\..\..\Tools\CC2530DB\f8wConfig.cfg"
//        (-DZIGBEEPRO -DSECURE=1 -DZG_SECURE_DYNAMIC=0 -DREFLECTOR
//        -DDEFAULT_CHANLIST=0x00000800 -DZDAPP_CONFIG_PAN_ID=0xFFFF
//        -DNWK_START_DELAY=100 -DEXTENDED_JOINING_RANDOM_MASK=0x007F
//        -DBEACON_REQUEST_DELAY=100 -DBEACON_REQ_DELAY_MASK=0x00FF
//        -DLINK_STATUS_JITTER_MASK=0x007F -DROUTE_EXPIRY_TIME=30
//        -DAPSC_ACK_WAIT_DURATION_POLLED=3000 -DNWK_INDIRECT_MSG_TIMEOUT=7
//        -DMAX_RREQ_ENTRIES=8 -DAPSC_MAX_FRAME_RETRIES=3
//        -DNWK_MAX_DATA_RETRIES=2 -DMAX_POLL_FAILURE_RETRIES=2 -DMAX_BCAST=9
//        -DAPS_MAX_GROUPS=16 -DMAX_RTG_ENTRIES=40 -DNWK_MAX_BINDING_ENTRIES=4
//        -DMAX_BINDING_CLUSTER_IDS=4 -DDEFAULT_KEY={0}
//        -DMAC_MAX_FRAME_SIZE=116 -DZDNWKMGR_MIN_TRANSMISSIONS=20
//        "-DCONST=const __code" -DGENERIC=__generic -DRFD_RCVC_ALWAYS_ON=FALSE
//        -DPOLL_RATE=1000 -DQUEUED_POLL_RATE=100 -DRESPONSE_POLL_RATE=100
//        -DREJOIN_POLL_RATE=440 -DREJOIN_BACKOFF=900000 -DREJOIN_SCAN=900000
//        -DENABLE_LED4_DISABLE_S1) -f "D:\AA\Z-Stack
//        3.0.2\Projects\zstack\HomeAutomation\SampleSwitch\CC2530DB\..\..\..\Tools\CC2530DB\f8wZCL.cfg"
//        -I "D:\AA\Z-Stack
//        3.0.2\Projects\zstack\HomeAutomation\SampleSwitch\CC2530DB\" -I
//        "D:\AA\Z-Stack
//        3.0.2\Projects\zstack\HomeAutomation\SampleSwitch\CC2530DB\..\Source\"
//        -I "D:\AA\Z-Stack
//        3.0.2\Projects\zstack\HomeAutomation\SampleSwitch\CC2530DB\..\..\Source\"
//        -I "D:\AA\Z-Stack
//        3.0.2\Projects\zstack\HomeAutomation\SampleSwitch\CC2530DB\..\..\..\ZMain\TI2530DB\"
//        -I "D:\AA\Z-Stack
//        3.0.2\Projects\zstack\HomeAutomation\SampleSwitch\CC2530DB\..\..\..\..\..\Components\hal\include\"
//        -I "D:\AA\Z-Stack
//        3.0.2\Projects\zstack\HomeAutomation\SampleSwitch\CC2530DB\..\..\..\..\..\Components\hal\target\CC2530EB\"
//        -I "D:\AA\Z-Stack
//        3.0.2\Projects\zstack\HomeAutomation\SampleSwitch\CC2530DB\..\..\..\..\..\Components\mac\include\"
//        -I "D:\AA\Z-Stack
//        3.0.2\Projects\zstack\HomeAutomation\SampleSwitch\CC2530DB\..\..\..\..\..\Components\mac\high_level\"
//        -I "D:\AA\Z-Stack
//        3.0.2\Projects\zstack\HomeAutomation\SampleSwitch\CC2530DB\..\..\..\..\..\Components\mac\low_level\srf04\"
//        -I "D:\AA\Z-Stack
//        3.0.2\Projects\zstack\HomeAutomation\SampleSwitch\CC2530DB\..\..\..\..\..\Components\mac\low_level\srf04\single_chip\"
//        -I "D:\AA\Z-Stack
//        3.0.2\Projects\zstack\HomeAutomation\SampleSwitch\CC2530DB\..\..\..\..\..\Components\mt\"
//        -I "D:\AA\Z-Stack
//        3.0.2\Projects\zstack\HomeAutomation\SampleSwitch\CC2530DB\..\..\..\..\..\Components\osal\include\"
//        -I "D:\AA\Z-Stack
//        3.0.2\Projects\zstack\HomeAutomation\SampleSwitch\CC2530DB\..\..\..\..\..\Components\services\saddr\"
//        -I "D:\AA\Z-Stack
//        3.0.2\Projects\zstack\HomeAutomation\SampleSwitch\CC2530DB\..\..\..\..\..\Components\services\sdata\"
//        -I "D:\AA\Z-Stack
//        3.0.2\Projects\zstack\HomeAutomation\SampleSwitch\CC2530DB\..\..\..\..\..\Components\stack\af\"
//        -I "D:\AA\Z-Stack
//        3.0.2\Projects\zstack\HomeAutomation\SampleSwitch\CC2530DB\..\..\..\..\..\Components\stack\bdb\"
//        -I "D:\AA\Z-Stack
//        3.0.2\Projects\zstack\HomeAutomation\SampleSwitch\CC2530DB\..\..\..\..\..\Components\stack\gp\"
//        -I "D:\AA\Z-Stack
//        3.0.2\Projects\zstack\HomeAutomation\SampleSwitch\CC2530DB\..\..\..\..\..\Components\stack\nwk\"
//        -I "D:\AA\Z-Stack
//        3.0.2\Projects\zstack\HomeAutomation\SampleSwitch\CC2530DB\..\..\..\..\..\Components\stack\sapi\"
//        -I "D:\AA\Z-Stack
//        3.0.2\Projects\zstack\HomeAutomation\SampleSwitch\CC2530DB\..\..\..\..\..\Components\stack\sec\"
//        -I "D:\AA\Z-Stack
//        3.0.2\Projects\zstack\HomeAutomation\SampleSwitch\CC2530DB\..\..\..\..\..\Components\stack\sys\"
//        -I "D:\AA\Z-Stack
//        3.0.2\Projects\zstack\HomeAutomation\SampleSwitch\CC2530DB\..\..\..\..\..\Components\stack\zcl\"
//        -I "D:\AA\Z-Stack
//        3.0.2\Projects\zstack\HomeAutomation\SampleSwitch\CC2530DB\..\..\..\..\..\Components\stack\zdo\"
//        -I "D:\AA\Z-Stack
//        3.0.2\Projects\zstack\HomeAutomation\SampleSwitch\CC2530DB\..\..\..\..\..\Components\zmac\"
//        -I "D:\AA\Z-Stack
//        3.0.2\Projects\zstack\HomeAutomation\SampleSwitch\CC2530DB\..\..\..\..\..\Components\zmac\f8w\"
//        -Ohz --require_prototypes)
//    Locale             =  Chinese (Simplified)_CHN.936
//    List file          =  
//        D:\AA\Z-Stack
//        3.0.2\Projects\zstack\HomeAutomation\SampleSwitch\CC2530DB\RouterEB\List\bdb_touchlink_initiator.s51
//
///////////////////////////////////////////////////////////////////////////////

        NAME bdb_touchlink_initiator

        RTMODEL "__SystemLibrary", "CLib"
        RTMODEL "__calling_convention", "xdata_reentrant"
        RTMODEL "__code_model", "banked"
        RTMODEL "__core", "plain"
        RTMODEL "__data_model", "large"
        RTMODEL "__dptr_size", "16"
        RTMODEL "__extended_stack", "disabled"
        RTMODEL "__location_for_constants", "data"
        RTMODEL "__number_of_dptrs", "1"
        RTMODEL "__register_banks", "*"
        RTMODEL "__rt_version", "1"

        RSEG DOVERLAY:DATA:NOROOT(0)
        RSEG IOVERLAY:IDATA:NOROOT(0)
        RSEG ISTACK:IDATA:NOROOT(0)
        RSEG PSTACK:XDATA:NOROOT(0)
        RSEG XSTACK:XDATA:NOROOT(0)

        EXTERN ?V0
        EXTERN ?V1
        EXTERN ?V2
        EXTERN ?V3
        EXTERN ?V4
        EXTERN ?V5
        EXTERN ?V6
        EXTERN ?V7
        EXTERN ?V8
        EXTERN ?V9
        EXTERN ?V10
        EXTERN ?V11
        EXTERN ?V12
        EXTERN ?V13
        EXTERN ?ALLOC_XSTACK8
        EXTERN ?BANKED_ENTER_XDATA
        EXTERN ?BANKED_LEAVE_XDATA
        EXTERN ?BDISPATCH
        EXTERN ?BRET
        EXTERN ?CALL_IND
        EXTERN ?DEALLOC_XSTACK8
        EXTERN ?L_ADD
        EXTERN ?L_EQ_X
        EXTERN ?L_MOV_TO_X
        EXTERN ?L_MOV_X
        EXTERN ?L_SHL
        EXTERN ?MOVE_LONG8_XDATA_XDATA
        EXTERN ?PUSH_XSTACK8_X_FOUR
        EXTERN ?PUSH_XSTACK8_X_TWO
        EXTERN ?PUSH_XSTACK_I_FOUR
        EXTERN ?PUSH_XSTACK_I_ONE
        EXTERN ?PUSH_XSTACK_I_THREE
        EXTERN ?PUSH_XSTACK_I_TWO
        EXTERN ?S_SHL
        EXTERN ?US_SHR
        EXTERN ?XLOAD_R0123
        EXTERN ?XLOAD_R2345
        EXTERN ?XSP
        EXTERN ?XSTACK_DISP0_8
        EXTERN ?XSTACK_DISP100_8
        EXTERN ?XSTACK_DISP101_8
        EXTERN ?XSTACK_DISP102_8
        EXTERN ?XSTORE_R0123
        EXTERN __INIT_XDATA_I
        EXTERN __INIT_XDATA_Z

        PUBLIC `??bdb_Initiator_SendNwkJoinReq::?relay`
        FUNCTION `??bdb_Initiator_SendNwkJoinReq::?relay`,0203H
        FUNCTION `??initiatorClearSelectedTarget::?relay`,0203H
        FUNCTION `??initiatorDeviceInfoReqCB::?relay`,0203H
        FUNCTION `??initiatorDeviceInfoRspCB::?relay`,0203H
        FUNCTION `??initiatorIdentifyReqCB::?relay`,0203H
        FUNCTION `??initiatorNwkJoinEDRspCB::?relay`,0203H
        FUNCTION `??initiatorNwkJoinReqCB::?relay`,0203H
        FUNCTION `??initiatorNwkJoinRtrRspCB::?relay`,0203H
        FUNCTION `??initiatorNwkStartRspCB::?relay`,0203H
        FUNCTION `??initiatorNwkUpdateReqCB::?relay`,0203H
        FUNCTION `??initiatorProcessStateChange::?relay`,0203H
        FUNCTION `??initiatorReJoinNwk::?relay`,0203H
        FUNCTION `??initiatorScanReqCB::?relay`,0203H
        FUNCTION `??initiatorScanRspCB::?relay`,0203H
        PUBLIC `??initiatorSelectNwkParams::?relay`
        FUNCTION `??initiatorSelectNwkParams::?relay`,0203H
        FUNCTION `??initiatorSendNwkJoinReq::?relay`,0203H
        FUNCTION `??initiatorSendScanReq::?relay`,0203H
        FUNCTION `??initiatorSetNwkToInitState::?relay`,0203H
        FUNCTION `??initiatorZdoLeaveCnfCB::?relay`,0203H
        PUBLIC `??touchLinkInitiator_AbortTL::?relay`
        FUNCTION `??touchLinkInitiator_AbortTL::?relay`,0203H
        PUBLIC `??touchLinkInitiator_ChannelChange::?relay`
        FUNCTION `??touchLinkInitiator_ChannelChange::?relay`,0203H
        PUBLIC `??touchLinkInitiator_Init::?relay`
        FUNCTION `??touchLinkInitiator_Init::?relay`,0203H
        PUBLIC `??touchLinkInitiator_InitDevice::?relay`
        FUNCTION `??touchLinkInitiator_InitDevice::?relay`,0203H
        PUBLIC `??touchLinkInitiator_PermitJoin::?relay`
        FUNCTION `??touchLinkInitiator_PermitJoin::?relay`,0203H
        PUBLIC `??touchLinkInitiator_RegisterForMsg::?relay`
        FUNCTION `??touchLinkInitiator_RegisterForMsg::?relay`,0203H
        PUBLIC `??touchLinkInitiator_RegisterNotifyTLCB::?relay`
        FUNCTION `??touchLinkInitiator_RegisterNotifyTLCB::?relay`,0203H
        PUBLIC `??touchLinkInitiator_RegisterSelectDiscDevCB::?`
        FUNCTION `??touchLinkInitiator_RegisterSelectDiscDevCB::?`,0203H
        PUBLIC `??touchLinkInitiator_ResetToFNProcedure::?relay`
        FUNCTION `??touchLinkInitiator_ResetToFNProcedure::?relay`,0203H
        PUBLIC `??touchLinkInitiator_ResetToFNSelectedTarget::?`
        FUNCTION `??touchLinkInitiator_ResetToFNSelectedTarget::?`,0203H
        PUBLIC `??touchLinkInitiator_SendEPInfo::?relay`
        FUNCTION `??touchLinkInitiator_SendEPInfo::?relay`,0203H
        PUBLIC `??touchLinkInitiator_StartDevDisc::?relay`
        FUNCTION `??touchLinkInitiator_StartDevDisc::?relay`,0203H
        PUBLIC `??touchLinkInitiator_event_loop::?relay`
        FUNCTION `??touchLinkInitiator_event_loop::?relay`,0203H
        FUNCTION `??touchLink_InitiatorSendScanRsp::?relay`,0203H
        PUBWEAK __Constant_0
        PUBWEAK __Constant_1388
        PUBWEAK __Constant_1f4
        PUBWEAK __Constant_1f40
        PUBWEAK __Constant_30d4
        PUBWEAK __Constant_32
        PUBWEAK __Constant_7d0
        PUBWEAK __Constant_fa
        PUBLIC bdb_Initiator_SendNwkJoinReq
        FUNCTION bdb_Initiator_SendNwkJoinReq,021203H
        ARGFRAME XSTACK, 75, STACK
        ARGFRAME IOVERLAY, 0, STATIC
        ARGFRAME DOVERLAY, 0, STATIC
        LOCFRAME ISTACK, 2, STACK
        FUNCTION initiatorClearSelectedTarget,021203H
        ARGFRAME XSTACK, 75, STACK
        ARGFRAME IOVERLAY, 0, STATIC
        ARGFRAME DOVERLAY, 0, STATIC
        LOCFRAME ISTACK, 2, STACK
        FUNCTION initiatorDeviceInfoReqCB,0a1603H
        ARGFRAME XSTACK, 0, STACK
        LOCFRAME XSTACK, 15, STACK
        FUNCTION initiatorDeviceInfoRspCB,0a1603H
        ARGFRAME XSTACK, 0, STACK
        LOCFRAME ISTACK, 2, STACK
        LOCFRAME XSTACK, 58, STACK
        FUNCTION initiatorIdentifyReqCB,0a1603H
        ARGFRAME XSTACK, 0, STACK
        LOCFRAME XSTACK, 10, STACK
        FUNCTION initiatorNwkJoinEDRspCB,0a1603H
        ARGFRAME XSTACK, 0, STACK
        LOCFRAME XSTACK, 14, STACK
        FUNCTION initiatorNwkJoinReqCB,0a1603H
        ARGFRAME XSTACK, 0, STACK
        LOCFRAME XSTACK, 41, STACK
        FUNCTION initiatorNwkJoinRtrRspCB,0a1603H
        ARGFRAME XSTACK, 0, STACK
        LOCFRAME XSTACK, 14, STACK
        FUNCTION initiatorNwkStartRspCB,021603H
        ARGFRAME XSTACK, 0, STACK
        LOCFRAME XSTACK, 9, STACK
        FUNCTION initiatorNwkUpdateReqCB,0a1603H
        ARGFRAME XSTACK, 0, STACK
        LOCFRAME XSTACK, 10, STACK
        FUNCTION initiatorProcessStateChange,0a1203H
        ARGFRAME XSTACK, 75, STACK
        ARGFRAME IOVERLAY, 0, STATIC
        ARGFRAME DOVERLAY, 0, STATIC
        LOCFRAME XSTACK, 14, STACK
        FUNCTION initiatorReJoinNwk,021203H
        ARGFRAME XSTACK, 75, STACK
        ARGFRAME IOVERLAY, 0, STATIC
        ARGFRAME DOVERLAY, 0, STATIC
        LOCFRAME XSTACK, 9, STACK
        FUNCTION initiatorScanReqCB,0a1603H
        ARGFRAME XSTACK, 0, STACK
        LOCFRAME XSTACK, 35, STACK
        FUNCTION initiatorScanRspCB,0a1603H
        ARGFRAME XSTACK, 0, STACK
        LOCFRAME ISTACK, 1, STACK
        LOCFRAME XSTACK, 18, STACK
        PUBLIC initiatorSelectNwkParams
        FUNCTION initiatorSelectNwkParams,021203H
        ARGFRAME XSTACK, 0, STACK
        ARGFRAME IOVERLAY, 0, STATIC
        ARGFRAME DOVERLAY, 0, STATIC
        LOCFRAME ISTACK, 2, STACK
        FUNCTION initiatorSendNwkJoinReq,0a1203H
        ARGFRAME XSTACK, 0, STACK
        ARGFRAME IOVERLAY, 0, STATIC
        ARGFRAME DOVERLAY, 0, STATIC
        LOCFRAME ISTACK, 1, STACK
        LOCFRAME XSTACK, 24, STACK
        FUNCTION initiatorSendScanReq,0a1203H
        ARGFRAME XSTACK, 75, STACK
        ARGFRAME IOVERLAY, 0, STATIC
        ARGFRAME DOVERLAY, 0, STATIC
        LOCFRAME XSTACK, 33, STACK
        FUNCTION initiatorSetNwkToInitState,0a1203H
        ARGFRAME XSTACK, 75, STACK
        ARGFRAME IOVERLAY, 0, STATIC
        ARGFRAME DOVERLAY, 0, STATIC
        LOCFRAME XSTACK, 12, STACK
        FUNCTION initiatorZdoLeaveCnfCB,021603H
        ARGFRAME XSTACK, 0, STACK
        LOCFRAME ISTACK, 2, STACK
        PUBLIC touchLinkInitiator_AbortTL
        FUNCTION touchLinkInitiator_AbortTL,021203H
        ARGFRAME XSTACK, 29, STACK
        ARGFRAME IOVERLAY, 0, STATIC
        ARGFRAME DOVERLAY, 0, STATIC
        LOCFRAME ISTACK, 2, STACK
        PUBLIC touchLinkInitiator_ChannelChange
        FUNCTION touchLinkInitiator_ChannelChange,0a1203H
        ARGFRAME XSTACK, 0, STACK
        LOCFRAME XSTACK, 27, STACK
        PUBLIC touchLinkInitiator_Init
        FUNCTION touchLinkInitiator_Init,021203H
        ARGFRAME XSTACK, 0, STACK
        LOCFRAME XSTACK, 9, STACK
        PUBLIC touchLinkInitiator_InitDevice
        FUNCTION touchLinkInitiator_InitDevice,021203H
        ARGFRAME XSTACK, 0, STACK
        LOCFRAME ISTACK, 2, STACK
        PUBLIC touchLinkInitiator_PermitJoin
        FUNCTION touchLinkInitiator_PermitJoin,021203H
        ARGFRAME XSTACK, 0, STACK
        LOCFRAME XSTACK, 9, STACK
        PUBLIC touchLinkInitiator_RegisterForMsg
        FUNCTION touchLinkInitiator_RegisterForMsg,0203H
        ARGFRAME XSTACK, 0, STACK
        LOCFRAME ISTACK, 2, STACK
        PUBLIC touchLinkInitiator_RegisterNotifyTLCB
        FUNCTION touchLinkInitiator_RegisterNotifyTLCB,0203H
        ARGFRAME XSTACK, 0, STACK
        LOCFRAME ISTACK, 2, STACK
        PUBLIC touchLinkInitiator_RegisterSelectDiscDevCB
        FUNCTION touchLinkInitiator_RegisterSelectDiscDevCB,0203H
        ARGFRAME XSTACK, 0, STACK
        LOCFRAME ISTACK, 2, STACK
        PUBLIC touchLinkInitiator_ResetToFNProcedure
        FUNCTION touchLinkInitiator_ResetToFNProcedure,021203H
        ARGFRAME XSTACK, 0, STACK
        LOCFRAME ISTACK, 2, STACK
        PUBLIC touchLinkInitiator_ResetToFNSelectedTarget
        FUNCTION touchLinkInitiator_ResetToFNSelectedTarget,0a1203H
        ARGFRAME XSTACK, 75, STACK
        ARGFRAME IOVERLAY, 0, STATIC
        ARGFRAME DOVERLAY, 0, STATIC
        LOCFRAME XSTACK, 14, STACK
        PUBLIC touchLinkInitiator_SendEPInfo
        FUNCTION touchLinkInitiator_SendEPInfo,0a1203H
        ARGFRAME XSTACK, 0, STACK
        LOCFRAME ISTACK, 1, STACK
        LOCFRAME XSTACK, 37, STACK
        PUBLIC touchLinkInitiator_StartDevDisc
        FUNCTION touchLinkInitiator_StartDevDisc,0a1203H
        ARGFRAME XSTACK, 0, STACK
        ARGFRAME IOVERLAY, 0, STATIC
        ARGFRAME DOVERLAY, 0, STATIC
        LOCFRAME XSTACK, 21, STACK
        PUBLIC touchLinkInitiator_TaskID
        PUBLIC touchLinkInitiator_event_loop
        FUNCTION touchLinkInitiator_event_loop,0a1203H
        ARGFRAME XSTACK, 0, STACK
        LOCFRAME ISTACK, 1, STACK
        LOCFRAME XSTACK, 83, STACK
        FUNCTION touchLink_InitiatorSendScanRsp,0a1203H
        ARGFRAME XSTACK, 35, STACK
        ARGFRAME IOVERLAY, 0, STATIC
        ARGFRAME DOVERLAY, 0, STATIC
        LOCFRAME ISTACK, 1, STACK
        LOCFRAME XSTACK, 26, STACK
        
          CFI Names cfiNames0
          CFI StackFrame CFA_SP SP IDATA
          CFI StackFrame CFA_PSP16 PSP16 XDATA
          CFI StackFrame CFA_XSP16 XSP16 XDATA
          CFI StaticOverlayFrame CFA_IOVERLAY IOVERLAY
          CFI StaticOverlayFrame CFA_DOVERLAY DOVERLAY
          CFI Resource `PSW.CY`:1, `B.BR0`:1, `B.BR1`:1, `B.BR2`:1, `B.BR3`:1
          CFI Resource `B.BR4`:1, `B.BR5`:1, `B.BR6`:1, `B.BR7`:1, `VB.BR8`:1
          CFI Resource `VB.BR9`:1, `VB.BR10`:1, `VB.BR11`:1, `VB.BR12`:1
          CFI Resource `VB.BR13`:1, `VB.BR14`:1, `VB.BR15`:1, VB:8, B:8, A:8
          CFI Resource PSW:8, DPL0:8, DPH0:8, R0:8, R1:8, R2:8, R3:8, R4:8, R5:8
          CFI Resource R6:8, R7:8, V0:8, V1:8, V2:8, V3:8, V4:8, V5:8, V6:8, V7:8
          CFI Resource V8:8, V9:8, V10:8, V11:8, V12:8, V13:8, V14:8, V15:8, SP:8
          CFI Resource PSPH:8, PSPL:8, PSP16:16, XSPH:8, XSPL:8, XSP16:16
          CFI VirtualResource ?RET:24
          CFI Resource ?BRET_EXT:8
          CFI VirtualResource ?RET_HIGH:8, ?RET_LOW:8
          CFI ResourceParts PSP16 PSPH, PSPL
          CFI ResourceParts XSP16 XSPH, XSPL
          CFI ResourceParts ?RET ?BRET_EXT, ?RET_HIGH, ?RET_LOW
          CFI EndNames cfiNames0
        
          CFI Common cfiCommon0 Using cfiNames0
          CFI CodeAlign 1
          CFI DataAlign -1
          CFI ReturnAddress ?RET CODE
          CFI CFA_DOVERLAY Used
          CFI CFA_IOVERLAY Used
          CFI CFA_SP SP+-3
          CFI CFA_PSP16 PSP16+0
          CFI CFA_XSP16 XSP16+0
          CFI `PSW.CY` SameValue
          CFI `B.BR0` SameValue
          CFI `B.BR1` SameValue
          CFI `B.BR2` SameValue
          CFI `B.BR3` SameValue
          CFI `B.BR4` SameValue
          CFI `B.BR5` SameValue
          CFI `B.BR6` SameValue
          CFI `B.BR7` SameValue
          CFI `VB.BR8` SameValue
          CFI `VB.BR9` SameValue
          CFI `VB.BR10` SameValue
          CFI `VB.BR11` SameValue
          CFI `VB.BR12` SameValue
          CFI `VB.BR13` SameValue
          CFI `VB.BR14` SameValue
          CFI `VB.BR15` SameValue
          CFI VB SameValue
          CFI B Undefined
          CFI A Undefined
          CFI PSW SameValue
          CFI DPL0 SameValue
          CFI DPH0 SameValue
          CFI R0 Undefined
          CFI R1 Undefined
          CFI R2 Undefined
          CFI R3 Undefined
          CFI R4 Undefined
          CFI R5 Undefined
          CFI R6 SameValue
          CFI R7 SameValue
          CFI V0 SameValue
          CFI V1 SameValue
          CFI V2 SameValue
          CFI V3 SameValue
          CFI V4 SameValue
          CFI V5 SameValue
          CFI V6 SameValue
          CFI V7 SameValue
          CFI V8 SameValue
          CFI V9 SameValue
          CFI V10 SameValue
          CFI V11 SameValue
          CFI V12 SameValue
          CFI V13 SameValue
          CFI V14 SameValue
          CFI V15 SameValue
          CFI PSPH Undefined
          CFI PSPL Undefined
          CFI XSPH Undefined
          CFI XSPL Undefined
          CFI ?RET Concat
          CFI ?BRET_EXT Frame(CFA_SP, 3)
          CFI ?RET_HIGH Frame(CFA_SP, 2)
          CFI ?RET_LOW Frame(CFA_SP, 1)
          CFI EndCommon cfiCommon0
        
        
          CFI Common cfiCommon1 Using cfiNames0
          CFI CodeAlign 1
          CFI DataAlign -1
          CFI ReturnAddress ?RET CODE
          CFI CFA_DOVERLAY Used
          CFI CFA_IOVERLAY Used
          CFI CFA_SP SP+-2
          CFI CFA_PSP16 PSP16+0
          CFI CFA_XSP16 XSP16+0
          CFI `PSW.CY` SameValue
          CFI `B.BR0` SameValue
          CFI `B.BR1` SameValue
          CFI `B.BR2` SameValue
          CFI `B.BR3` SameValue
          CFI `B.BR4` SameValue
          CFI `B.BR5` SameValue
          CFI `B.BR6` SameValue
          CFI `B.BR7` SameValue
          CFI `VB.BR8` SameValue
          CFI `VB.BR9` SameValue
          CFI `VB.BR10` SameValue
          CFI `VB.BR11` SameValue
          CFI `VB.BR12` SameValue
          CFI `VB.BR13` SameValue
          CFI `VB.BR14` SameValue
          CFI `VB.BR15` SameValue
          CFI VB SameValue
          CFI B SameValue
          CFI A SameValue
          CFI PSW SameValue
          CFI DPL0 SameValue
          CFI DPH0 SameValue
          CFI R0 SameValue
          CFI R1 SameValue
          CFI R2 SameValue
          CFI R3 SameValue
          CFI R4 SameValue
          CFI R5 SameValue
          CFI R6 SameValue
          CFI R7 SameValue
          CFI V0 SameValue
          CFI V1 SameValue
          CFI V2 SameValue
          CFI V3 SameValue
          CFI V4 SameValue
          CFI V5 SameValue
          CFI V6 SameValue
          CFI V7 SameValue
          CFI V8 SameValue
          CFI V9 SameValue
          CFI V10 SameValue
          CFI V11 SameValue
          CFI V12 SameValue
          CFI V13 SameValue
          CFI V14 SameValue
          CFI V15 SameValue
          CFI PSPH Undefined
          CFI PSPL Undefined
          CFI XSPH Undefined
          CFI XSPL Undefined
          CFI ?RET Concat
          CFI ?BRET_EXT SameValue
          CFI ?RET_HIGH Frame(CFA_SP, 2)
          CFI ?RET_LOW Frame(CFA_SP, 1)
          CFI EndCommon cfiCommon1
        
APSME_GetRequest    SYMBOL "APSME_GetRequest"
`??APSME_GetRequest::?relay` SYMBOL "?relay", APSME_GetRequest
AddrMgrEntryUpdate  SYMBOL "AddrMgrEntryUpdate"
`??AddrMgrEntryUpdate::?relay` SYMBOL "?relay", AddrMgrEntryUpdate
NLME_GetExtAddr     SYMBOL "NLME_GetExtAddr"
`??NLME_GetExtAddr::?relay` SYMBOL "?relay", NLME_GetExtAddr
NLME_GetShortAddr   SYMBOL "NLME_GetShortAddr"
`??NLME_GetShortAddr::?relay` SYMBOL "?relay", NLME_GetShortAddr
NLME_InitNV         SYMBOL "NLME_InitNV"
`??NLME_InitNV::?relay` SYMBOL "?relay", NLME_InitNV
NLME_SetPollRate    SYMBOL "NLME_SetPollRate"
`??NLME_SetPollRate::?relay` SYMBOL "?relay", NLME_SetPollRate
NLME_SetQueuedPollRate SYMBOL "NLME_SetQueuedPollRate"
`??NLME_SetQueuedPollRate::?relay` SYMBOL "?relay", NLME_SetQueuedPollRate
NLME_SetResponseRate SYMBOL "NLME_SetResponseRate"
`??NLME_SetResponseRate::?relay` SYMBOL "?relay", NLME_SetResponseRate
NLME_SetUpdateID    SYMBOL "NLME_SetUpdateID"
`??NLME_SetUpdateID::?relay` SYMBOL "?relay", NLME_SetUpdateID
ZDApp_LeaveCtrlReset SYMBOL "ZDApp_LeaveCtrlReset"
`??ZDApp_LeaveCtrlReset::?relay` SYMBOL "?relay", ZDApp_LeaveCtrlReset
ZDApp_StopJoiningCycle SYMBOL "ZDApp_StopJoiningCycle"
`??ZDApp_StopJoiningCycle::?relay` SYMBOL "?relay", ZDApp_StopJoiningCycle
ZDOInitDeviceEx     SYMBOL "ZDOInitDeviceEx"
`??ZDOInitDeviceEx::?relay` SYMBOL "?relay", ZDOInitDeviceEx
ZDO_RegisterForZDOMsg SYMBOL "ZDO_RegisterForZDOMsg"
`??ZDO_RegisterForZDOMsg::?relay` SYMBOL "?relay", ZDO_RegisterForZDOMsg
ZDO_RegisterForZdoCB SYMBOL "ZDO_RegisterForZdoCB"
`??ZDO_RegisterForZdoCB::?relay` SYMBOL "?relay", ZDO_RegisterForZdoCB
ZDP_DeviceAnnce     SYMBOL "ZDP_DeviceAnnce"
`??ZDP_DeviceAnnce::?relay` SYMBOL "?relay", ZDP_DeviceAnnce
ZDP_MgmtNwkUpdateReq SYMBOL "ZDP_MgmtNwkUpdateReq"
`??ZDP_MgmtNwkUpdateReq::?relay` SYMBOL "?relay", ZDP_MgmtNwkUpdateReq
ZDSecMgrUpdateTCAddress SYMBOL "ZDSecMgrUpdateTCAddress"
`??ZDSecMgrUpdateTCAddress::?relay` SYMBOL "?relay", ZDSecMgrUpdateTCAddress
ZMacGetReq          SYMBOL "ZMacGetReq"
`??ZMacGetReq::?relay` SYMBOL "?relay", ZMacGetReq
ZMacSetReq          SYMBOL "ZMacSetReq"
`??ZMacSetReq::?relay` SYMBOL "?relay", ZMacSetReq
bdbTL_RegisterInterPANCmdCallbacks SYMBOL "bdbTL_RegisterInterPANCmdCallbacks"
`??bdbTL_RegisterInterPANCmdCallbacks::?relay` SYMBOL "?relay", bdbTL_RegisterInterPANCmdCallbacks
bdbTL_Send_DeviceInfoReq SYMBOL "bdbTL_Send_DeviceInfoReq"
`??bdbTL_Send_DeviceInfoReq::?relay` SYMBOL "?relay", bdbTL_Send_DeviceInfoReq
bdbTL_Send_EndpointInfo SYMBOL "bdbTL_Send_EndpointInfo"
`??bdbTL_Send_EndpointInfo::?relay` SYMBOL "?relay", bdbTL_Send_EndpointInfo
bdbTL_Send_IndentifyReq SYMBOL "bdbTL_Send_IndentifyReq"
`??bdbTL_Send_IndentifyReq::?relay` SYMBOL "?relay", bdbTL_Send_IndentifyReq
bdbTL_Send_NwkJoinReq SYMBOL "bdbTL_Send_NwkJoinReq"
`??bdbTL_Send_NwkJoinReq::?relay` SYMBOL "?relay", bdbTL_Send_NwkJoinReq
bdbTL_Send_NwkJoinRsp SYMBOL "bdbTL_Send_NwkJoinRsp"
`??bdbTL_Send_NwkJoinRsp::?relay` SYMBOL "?relay", bdbTL_Send_NwkJoinRsp
bdbTL_Send_NwkUpdateReq SYMBOL "bdbTL_Send_NwkUpdateReq"
`??bdbTL_Send_NwkUpdateReq::?relay` SYMBOL "?relay", bdbTL_Send_NwkUpdateReq
bdbTL_Send_ResetToFNReq SYMBOL "bdbTL_Send_ResetToFNReq"
`??bdbTL_Send_ResetToFNReq::?relay` SYMBOL "?relay", bdbTL_Send_ResetToFNReq
bdbTL_Send_ScanReq  SYMBOL "bdbTL_Send_ScanReq"
`??bdbTL_Send_ScanReq::?relay` SYMBOL "?relay", bdbTL_Send_ScanReq
bdbTL_Send_ScanRsp  SYMBOL "bdbTL_Send_ScanRsp"
`??bdbTL_Send_ScanRsp::?relay` SYMBOL "?relay", bdbTL_Send_ScanRsp
bdb_AddRespondentNode SYMBOL "bdb_AddRespondentNode"
`??bdb_AddRespondentNode::?relay` SYMBOL "?relay", bdb_AddRespondentNode
bdb_ZclIdentifyCmdInd SYMBOL "bdb_ZclIdentifyCmdInd"
`??bdb_ZclIdentifyCmdInd::?relay` SYMBOL "?relay", bdb_ZclIdentifyCmdInd
bdb_reportCommissioningState SYMBOL "bdb_reportCommissioningState"
`??bdb_reportCommissioningState::?relay` SYMBOL "?relay", bdb_reportCommissioningState
bdb_setEpDescListToActiveEndpoint SYMBOL "bdb_setEpDescListToActiveEndpoint"
`??bdb_setEpDescListToActiveEndpoint::?relay` SYMBOL "?relay", bdb_setEpDescListToActiveEndpoint
bdb_setNodeIsOnANetwork SYMBOL "bdb_setNodeIsOnANetwork"
`??bdb_setNodeIsOnANetwork::?relay` SYMBOL "?relay", bdb_setNodeIsOnANetwork
bdb_zclRespondentListClean SYMBOL "bdb_zclRespondentListClean"
`??bdb_zclRespondentListClean::?relay` SYMBOL "?relay", bdb_zclRespondentListClean
nwkNeighborAdd      SYMBOL "nwkNeighborAdd"
`??nwkNeighborAdd::?relay` SYMBOL "?relay", nwkNeighborAdd
nwkNeighborGetLinkInfo SYMBOL "nwkNeighborGetLinkInfo"
`??nwkNeighborGetLinkInfo::?relay` SYMBOL "?relay", nwkNeighborGetLinkInfo
nwk_ExtPANIDValid   SYMBOL "nwk_ExtPANIDValid"
`??nwk_ExtPANIDValid::?relay` SYMBOL "?relay", nwk_ExtPANIDValid
nwk_setStateIdle    SYMBOL "nwk_setStateIdle"
`??nwk_setStateIdle::?relay` SYMBOL "?relay", nwk_setStateIdle
osal_clear_event    SYMBOL "osal_clear_event"
`??osal_clear_event::?relay` SYMBOL "?relay", osal_clear_event
osal_get_timeoutEx  SYMBOL "osal_get_timeoutEx"
`??osal_get_timeoutEx::?relay` SYMBOL "?relay", osal_get_timeoutEx
osal_mem_alloc      SYMBOL "osal_mem_alloc"
`??osal_mem_alloc::?relay` SYMBOL "?relay", osal_mem_alloc
osal_mem_free       SYMBOL "osal_mem_free"
`??osal_mem_free::?relay` SYMBOL "?relay", osal_mem_free
osal_memcmp         SYMBOL "osal_memcmp"
`??osal_memcmp::?relay` SYMBOL "?relay", osal_memcmp
osal_memcpy         SYMBOL "osal_memcpy"
`??osal_memcpy::?relay` SYMBOL "?relay", osal_memcpy
osal_memset         SYMBOL "osal_memset"
`??osal_memset::?relay` SYMBOL "?relay", osal_memset
osal_msg_deallocate SYMBOL "osal_msg_deallocate"
`??osal_msg_deallocate::?relay` SYMBOL "?relay", osal_msg_deallocate
osal_msg_receive    SYMBOL "osal_msg_receive"
`??osal_msg_receive::?relay` SYMBOL "?relay", osal_msg_receive
osal_msg_send       SYMBOL "osal_msg_send"
`??osal_msg_send::?relay` SYMBOL "?relay", osal_msg_send
osal_nv_write       SYMBOL "osal_nv_write"
`??osal_nv_write::?relay` SYMBOL "?relay", osal_nv_write
osal_rand           SYMBOL "osal_rand"
`??osal_rand::?relay` SYMBOL "?relay", osal_rand
osal_set_event      SYMBOL "osal_set_event"
`??osal_set_event::?relay` SYMBOL "?relay", osal_set_event
osal_start_timerEx  SYMBOL "osal_start_timerEx"
`??osal_start_timerEx::?relay` SYMBOL "?relay", osal_start_timerEx
osal_stop_timerEx   SYMBOL "osal_stop_timerEx"
`??osal_stop_timerEx::?relay` SYMBOL "?relay", osal_stop_timerEx
sAddrExtCmp         SYMBOL "sAddrExtCmp"
`??sAddrExtCmp::?relay` SYMBOL "?relay", sAddrExtCmp
sAddrExtCpy         SYMBOL "sAddrExtCpy"
`??sAddrExtCpy::?relay` SYMBOL "?relay", sAddrExtCpy
touchLinkStartRtr   SYMBOL "touchLinkStartRtr"
`??touchLinkStartRtr::?relay` SYMBOL "?relay", touchLinkStartRtr
touchLink_DecryptNwkKey SYMBOL "touchLink_DecryptNwkKey"
`??touchLink_DecryptNwkKey::?relay` SYMBOL "?relay", touchLink_DecryptNwkKey
touchLink_DevRejoin SYMBOL "touchLink_DevRejoin"
`??touchLink_DevRejoin::?relay` SYMBOL "?relay", touchLink_DevRejoin
touchLink_DeviceIsInitiator SYMBOL "touchLink_DeviceIsInitiator"
`??touchLink_DeviceIsInitiator::?relay` SYMBOL "?relay", touchLink_DeviceIsInitiator
touchLink_EncryptNwkKey SYMBOL "touchLink_EncryptNwkKey"
`??touchLink_EncryptNwkKey::?relay` SYMBOL "?relay", touchLink_EncryptNwkKey
touchLink_FreeNwkParamList SYMBOL "touchLink_FreeNwkParamList"
`??touchLink_FreeNwkParamList::?relay` SYMBOL "?relay", touchLink_FreeNwkParamList
touchLink_GenerateRandNum SYMBOL "touchLink_GenerateRandNum"
`??touchLink_GenerateRandNum::?relay` SYMBOL "?relay", touchLink_GenerateRandNum
touchLink_GerFreeRanges SYMBOL "touchLink_GerFreeRanges"
`??touchLink_GerFreeRanges::?relay` SYMBOL "?relay", touchLink_GerFreeRanges
touchLink_GetMsgRssi SYMBOL "touchLink_GetMsgRssi"
`??touchLink_GetMsgRssi::?relay` SYMBOL "?relay", touchLink_GetMsgRssi
touchLink_GetNumGrpIDs SYMBOL "touchLink_GetNumGrpIDs"
`??touchLink_GetNumGrpIDs::?relay` SYMBOL "?relay", touchLink_GetNumGrpIDs
touchLink_GetNumSubDevices SYMBOL "touchLink_GetNumSubDevices"
`??touchLink_GetNumSubDevices::?relay` SYMBOL "?relay", touchLink_GetNumSubDevices
touchLink_GetNwkKeyBitmask SYMBOL "touchLink_GetNwkKeyBitmask"
`??touchLink_GetNwkKeyBitmask::?relay` SYMBOL "?relay", touchLink_GetNwkKeyBitmask
touchLink_GetRandPrimaryChannel SYMBOL "touchLink_GetRandPrimaryChannel"
`??touchLink_GetRandPrimaryChannel::?relay` SYMBOL "?relay", touchLink_GetRandPrimaryChannel
touchLink_GetSubDeviceInfo SYMBOL "touchLink_GetSubDeviceInfo"
`??touchLink_GetSubDeviceInfo::?relay` SYMBOL "?relay", touchLink_GetSubDeviceInfo
touchLink_InitVariables SYMBOL "touchLink_InitVariables"
`??touchLink_InitVariables::?relay` SYMBOL "?relay", touchLink_InitVariables
touchLink_IsValidSplitFreeRanges SYMBOL "touchLink_IsValidSplitFreeRanges"
`??touchLink_IsValidSplitFreeRanges::?relay` SYMBOL "?relay", touchLink_IsValidSplitFreeRanges
touchLink_IsValidTransID SYMBOL "touchLink_IsValidTransID"
`??touchLink_IsValidTransID::?relay` SYMBOL "?relay", touchLink_IsValidTransID
touchLink_NewNwkUpdateId SYMBOL "touchLink_NewNwkUpdateId"
`??touchLink_NewNwkUpdateId::?relay` SYMBOL "?relay", touchLink_NewNwkUpdateId
touchLink_PerformNetworkDisc SYMBOL "touchLink_PerformNetworkDisc"
`??touchLink_PerformNetworkDisc::?relay` SYMBOL "?relay", touchLink_PerformNetworkDisc
touchLink_PermitJoin SYMBOL "touchLink_PermitJoin"
`??touchLink_PermitJoin::?relay` SYMBOL "?relay", touchLink_PermitJoin
touchLink_PopGrpIDRange SYMBOL "touchLink_PopGrpIDRange"
`??touchLink_PopGrpIDRange::?relay` SYMBOL "?relay", touchLink_PopGrpIDRange
touchLink_PopNwkAddress SYMBOL "touchLink_PopNwkAddress"
`??touchLink_PopNwkAddress::?relay` SYMBOL "?relay", touchLink_PopNwkAddress
touchLink_ProcessNwkUpdate SYMBOL "touchLink_ProcessNwkUpdate"
`??touchLink_ProcessNwkUpdate::?relay` SYMBOL "?relay", touchLink_ProcessNwkUpdate
touchLink_RouterProcessZDOMsg SYMBOL "touchLink_RouterProcessZDOMsg"
`??touchLink_RouterProcessZDOMsg::?relay` SYMBOL "?relay", touchLink_RouterProcessZDOMsg
touchLink_SendDeviceInfoRsp SYMBOL "touchLink_SendDeviceInfoRsp"
`??touchLink_SendDeviceInfoRsp::?relay` SYMBOL "?relay", touchLink_SendDeviceInfoRsp
touchLink_SendLeaveReq SYMBOL "touchLink_SendLeaveReq"
`??touchLink_SendLeaveReq::?relay` SYMBOL "?relay", touchLink_SendLeaveReq
touchLink_SetChannel SYMBOL "touchLink_SetChannel"
`??touchLink_SetChannel::?relay` SYMBOL "?relay", touchLink_SetChannel
touchLink_SetMacNwkParams SYMBOL "touchLink_SetMacNwkParams"
`??touchLink_SetMacNwkParams::?relay` SYMBOL "?relay", touchLink_SetMacNwkParams
touchLink_SetNIB    SYMBOL "touchLink_SetNIB"
`??touchLink_SetNIB::?relay` SYMBOL "?relay", touchLink_SetNIB
touchLink_SetTouchLinkTaskId SYMBOL "touchLink_SetTouchLinkTaskId"
`??touchLink_SetTouchLinkTaskId::?relay` SYMBOL "?relay", touchLink_SetTouchLinkTaskId
touchLink_SplitFreeRanges SYMBOL "touchLink_SplitFreeRanges"
`??touchLink_SplitFreeRanges::?relay` SYMBOL "?relay", touchLink_SplitFreeRanges
touchLink_UpdateNV  SYMBOL "touchLink_UpdateNV"
`??touchLink_UpdateNV::?relay` SYMBOL "?relay", touchLink_UpdateNV
zcl_registerForMsg  SYMBOL "zcl_registerForMsg"
`??zcl_registerForMsg::?relay` SYMBOL "?relay", zcl_registerForMsg
bdb_Initiator_SendNwkJoinReq SYMBOL "bdb_Initiator_SendNwkJoinReq"
`??bdb_Initiator_SendNwkJoinReq::?relay` SYMBOL "?relay", bdb_Initiator_SendNwkJoinReq
initiatorSelectNwkParams SYMBOL "initiatorSelectNwkParams"
`??initiatorSelectNwkParams::?relay` SYMBOL "?relay", initiatorSelectNwkParams
touchLinkInitiator_AbortTL SYMBOL "touchLinkInitiator_AbortTL"
`??touchLinkInitiator_AbortTL::?relay` SYMBOL "?relay", touchLinkInitiator_AbortTL
touchLinkInitiator_ChannelChange SYMBOL "touchLinkInitiator_ChannelChange"
`??touchLinkInitiator_ChannelChange::?relay` SYMBOL "?relay", touchLinkInitiator_ChannelChange
touchLinkInitiator_Init SYMBOL "touchLinkInitiator_Init"
`??touchLinkInitiator_Init::?relay` SYMBOL "?relay", touchLinkInitiator_Init
touchLinkInitiator_InitDevice SYMBOL "touchLinkInitiator_InitDevice"
`??touchLinkInitiator_InitDevice::?relay` SYMBOL "?relay", touchLinkInitiator_InitDevice
touchLinkInitiator_PermitJoin SYMBOL "touchLinkInitiator_PermitJoin"
`??touchLinkInitiator_PermitJoin::?relay` SYMBOL "?relay", touchLinkInitiator_PermitJoin
touchLinkInitiator_RegisterForMsg SYMBOL "touchLinkInitiator_RegisterForMsg"
`??touchLinkInitiator_RegisterForMsg::?relay` SYMBOL "?relay", touchLinkInitiator_RegisterForMsg
touchLinkInitiator_RegisterNotifyTLCB SYMBOL "touchLinkInitiator_RegisterNotifyTLCB"
`??touchLinkInitiator_RegisterNotifyTLCB::?relay` SYMBOL "?relay", touchLinkInitiator_RegisterNotifyTLCB
touchLinkInitiator_RegisterSelectDiscDevCB SYMBOL "touchLinkInitiator_RegisterSelectDiscDevCB"
`??touchLinkInitiator_RegisterSelectDiscDevCB::?` SYMBOL "?relay", touchLinkInitiator_RegisterSelectDiscDevCB
touchLinkInitiator_ResetToFNProcedure SYMBOL "touchLinkInitiator_ResetToFNProcedure"
`??touchLinkInitiator_ResetToFNProcedure::?relay` SYMBOL "?relay", touchLinkInitiator_ResetToFNProcedure
touchLinkInitiator_ResetToFNSelectedTarget SYMBOL "touchLinkInitiator_ResetToFNSelectedTarget"
`??touchLinkInitiator_ResetToFNSelectedTarget::?` SYMBOL "?relay", touchLinkInitiator_ResetToFNSelectedTarget
touchLinkInitiator_SendEPInfo SYMBOL "touchLinkInitiator_SendEPInfo"
`??touchLinkInitiator_SendEPInfo::?relay` SYMBOL "?relay", touchLinkInitiator_SendEPInfo
touchLinkInitiator_StartDevDisc SYMBOL "touchLinkInitiator_StartDevDisc"
`??touchLinkInitiator_StartDevDisc::?relay` SYMBOL "?relay", touchLinkInitiator_StartDevDisc
touchLinkInitiator_event_loop SYMBOL "touchLinkInitiator_event_loop"
`??touchLinkInitiator_event_loop::?relay` SYMBOL "?relay", touchLinkInitiator_event_loop

        EXTERN `??APSME_GetRequest::?relay`
        FUNCTION `??APSME_GetRequest::?relay`,00H
        EXTERN `??AddrMgrEntryUpdate::?relay`
        FUNCTION `??AddrMgrEntryUpdate::?relay`,00H
        EXTERN `??NLME_GetExtAddr::?relay`
        FUNCTION `??NLME_GetExtAddr::?relay`,00H
        EXTERN `??NLME_GetShortAddr::?relay`
        FUNCTION `??NLME_GetShortAddr::?relay`,00H
        EXTERN `??NLME_InitNV::?relay`
        FUNCTION `??NLME_InitNV::?relay`,00H
        EXTERN `??NLME_SetPollRate::?relay`
        FUNCTION `??NLME_SetPollRate::?relay`,00H
        EXTERN `??NLME_SetQueuedPollRate::?relay`
        FUNCTION `??NLME_SetQueuedPollRate::?relay`,00H
        EXTERN `??NLME_SetResponseRate::?relay`
        FUNCTION `??NLME_SetResponseRate::?relay`,00H
        EXTERN `??NLME_SetUpdateID::?relay`
        FUNCTION `??NLME_SetUpdateID::?relay`,00H
        EXTERN `??ZDApp_LeaveCtrlReset::?relay`
        FUNCTION `??ZDApp_LeaveCtrlReset::?relay`,00H
        EXTERN `??ZDApp_StopJoiningCycle::?relay`
        FUNCTION `??ZDApp_StopJoiningCycle::?relay`,00H
        EXTERN `??ZDOInitDeviceEx::?relay`
        FUNCTION `??ZDOInitDeviceEx::?relay`,00H
        EXTERN `??ZDO_RegisterForZDOMsg::?relay`
        FUNCTION `??ZDO_RegisterForZDOMsg::?relay`,00H
        EXTERN `??ZDO_RegisterForZdoCB::?relay`
        FUNCTION `??ZDO_RegisterForZdoCB::?relay`,00H
        EXTERN `??ZDP_DeviceAnnce::?relay`
        FUNCTION `??ZDP_DeviceAnnce::?relay`,00H
        EXTERN `??ZDP_MgmtNwkUpdateReq::?relay`
        FUNCTION `??ZDP_MgmtNwkUpdateReq::?relay`,00H
        EXTERN `??ZDSecMgrUpdateTCAddress::?relay`
        FUNCTION `??ZDSecMgrUpdateTCAddress::?relay`,00H
        EXTERN `??ZMacGetReq::?relay`
        FUNCTION `??ZMacGetReq::?relay`,00H
        EXTERN `??ZMacSetReq::?relay`
        FUNCTION `??ZMacSetReq::?relay`,00H
        EXTERN `??bdbTL_RegisterInterPANCmdCallbacks::?relay`
        FUNCTION `??bdbTL_RegisterInterPANCmdCallbacks::?relay`,00H
        EXTERN `??bdbTL_Send_DeviceInfoReq::?relay`
        FUNCTION `??bdbTL_Send_DeviceInfoReq::?relay`,00H
        EXTERN `??bdbTL_Send_EndpointInfo::?relay`
        FUNCTION `??bdbTL_Send_EndpointInfo::?relay`,00H
        EXTERN `??bdbTL_Send_IndentifyReq::?relay`
        FUNCTION `??bdbTL_Send_IndentifyReq::?relay`,00H
        EXTERN `??bdbTL_Send_NwkJoinReq::?relay`
        FUNCTION `??bdbTL_Send_NwkJoinReq::?relay`,00H
        EXTERN `??bdbTL_Send_NwkJoinRsp::?relay`
        FUNCTION `??bdbTL_Send_NwkJoinRsp::?relay`,00H
        EXTERN `??bdbTL_Send_NwkUpdateReq::?relay`
        FUNCTION `??bdbTL_Send_NwkUpdateReq::?relay`,00H
        EXTERN `??bdbTL_Send_ResetToFNReq::?relay`
        FUNCTION `??bdbTL_Send_ResetToFNReq::?relay`,00H
        EXTERN `??bdbTL_Send_ScanReq::?relay`
        FUNCTION `??bdbTL_Send_ScanReq::?relay`,00H
        EXTERN `??bdbTL_Send_ScanRsp::?relay`
        FUNCTION `??bdbTL_Send_ScanRsp::?relay`,00H
        EXTERN `??bdb_AddRespondentNode::?relay`
        FUNCTION `??bdb_AddRespondentNode::?relay`,00H
        EXTERN `??bdb_ZclIdentifyCmdInd::?relay`
        FUNCTION `??bdb_ZclIdentifyCmdInd::?relay`,00H
        EXTERN `??bdb_reportCommissioningState::?relay`
        FUNCTION `??bdb_reportCommissioningState::?relay`,00H
        EXTERN `??bdb_setEpDescListToActiveEndpoint::?relay`
        FUNCTION `??bdb_setEpDescListToActiveEndpoint::?relay`,00H
        EXTERN `??bdb_setNodeIsOnANetwork::?relay`
        FUNCTION `??bdb_setNodeIsOnANetwork::?relay`,00H
        EXTERN `??bdb_zclRespondentListClean::?relay`
        FUNCTION `??bdb_zclRespondentListClean::?relay`,00H
        EXTERN `??nwkNeighborAdd::?relay`
        FUNCTION `??nwkNeighborAdd::?relay`,00H
        EXTERN `??nwkNeighborGetLinkInfo::?relay`
        FUNCTION `??nwkNeighborGetLinkInfo::?relay`,00H
        EXTERN `??nwk_ExtPANIDValid::?relay`
        FUNCTION `??nwk_ExtPANIDValid::?relay`,00H
        EXTERN `??nwk_setStateIdle::?relay`
        FUNCTION `??nwk_setStateIdle::?relay`,00H
        EXTERN `??osal_clear_event::?relay`
        FUNCTION `??osal_clear_event::?relay`,00H
        EXTERN `??osal_get_timeoutEx::?relay`
        FUNCTION `??osal_get_timeoutEx::?relay`,00H
        EXTERN `??osal_mem_alloc::?relay`
        FUNCTION `??osal_mem_alloc::?relay`,00H
        EXTERN `??osal_mem_free::?relay`
        FUNCTION `??osal_mem_free::?relay`,00H
        EXTERN `??osal_memcmp::?relay`
        FUNCTION `??osal_memcmp::?relay`,00H
        EXTERN `??osal_memcpy::?relay`
        FUNCTION `??osal_memcpy::?relay`,00H
        EXTERN `??osal_memset::?relay`
        FUNCTION `??osal_memset::?relay`,00H
        EXTERN `??osal_msg_deallocate::?relay`
        FUNCTION `??osal_msg_deallocate::?relay`,00H
        EXTERN `??osal_msg_receive::?relay`
        FUNCTION `??osal_msg_receive::?relay`,00H
        EXTERN `??osal_msg_send::?relay`
        FUNCTION `??osal_msg_send::?relay`,00H
        EXTERN `??osal_nv_write::?relay`
        FUNCTION `??osal_nv_write::?relay`,00H
        EXTERN `??osal_rand::?relay`
        FUNCTION `??osal_rand::?relay`,00H
        EXTERN `??osal_set_event::?relay`
        FUNCTION `??osal_set_event::?relay`,00H
        EXTERN `??osal_start_timerEx::?relay`
        FUNCTION `??osal_start_timerEx::?relay`,00H
        EXTERN `??osal_stop_timerEx::?relay`
        FUNCTION `??osal_stop_timerEx::?relay`,00H
        EXTERN `??sAddrExtCmp::?relay`
        FUNCTION `??sAddrExtCmp::?relay`,00H
        EXTERN `??sAddrExtCpy::?relay`
        FUNCTION `??sAddrExtCpy::?relay`,00H
        EXTERN `??touchLinkStartRtr::?relay`
        FUNCTION `??touchLinkStartRtr::?relay`,00H
        EXTERN `??touchLink_DecryptNwkKey::?relay`
        FUNCTION `??touchLink_DecryptNwkKey::?relay`,00H
        EXTERN `??touchLink_DevRejoin::?relay`
        FUNCTION `??touchLink_DevRejoin::?relay`,00H
        EXTERN `??touchLink_DeviceIsInitiator::?relay`
        FUNCTION `??touchLink_DeviceIsInitiator::?relay`,00H
        EXTERN `??touchLink_EncryptNwkKey::?relay`
        FUNCTION `??touchLink_EncryptNwkKey::?relay`,00H
        EXTERN `??touchLink_FreeNwkParamList::?relay`
        FUNCTION `??touchLink_FreeNwkParamList::?relay`,00H
        EXTERN `??touchLink_GenerateRandNum::?relay`
        FUNCTION `??touchLink_GenerateRandNum::?relay`,00H
        EXTERN `??touchLink_GerFreeRanges::?relay`
        FUNCTION `??touchLink_GerFreeRanges::?relay`,00H
        EXTERN `??touchLink_GetMsgRssi::?relay`
        FUNCTION `??touchLink_GetMsgRssi::?relay`,00H
        EXTERN `??touchLink_GetNumGrpIDs::?relay`
        FUNCTION `??touchLink_GetNumGrpIDs::?relay`,00H
        EXTERN `??touchLink_GetNumSubDevices::?relay`
        FUNCTION `??touchLink_GetNumSubDevices::?relay`,00H
        EXTERN `??touchLink_GetNwkKeyBitmask::?relay`
        FUNCTION `??touchLink_GetNwkKeyBitmask::?relay`,00H
        EXTERN `??touchLink_GetRandPrimaryChannel::?relay`
        FUNCTION `??touchLink_GetRandPrimaryChannel::?relay`,00H
        EXTERN `??touchLink_GetSubDeviceInfo::?relay`
        FUNCTION `??touchLink_GetSubDeviceInfo::?relay`,00H
        EXTERN `??touchLink_InitVariables::?relay`
        FUNCTION `??touchLink_InitVariables::?relay`,00H
        EXTERN `??touchLink_IsValidSplitFreeRanges::?relay`
        FUNCTION `??touchLink_IsValidSplitFreeRanges::?relay`,00H
        EXTERN `??touchLink_IsValidTransID::?relay`
        FUNCTION `??touchLink_IsValidTransID::?relay`,00H
        EXTERN `??touchLink_NewNwkUpdateId::?relay`
        FUNCTION `??touchLink_NewNwkUpdateId::?relay`,00H
        EXTERN `??touchLink_PerformNetworkDisc::?relay`
        FUNCTION `??touchLink_PerformNetworkDisc::?relay`,00H
        EXTERN `??touchLink_PermitJoin::?relay`
        FUNCTION `??touchLink_PermitJoin::?relay`,00H
        EXTERN `??touchLink_PopGrpIDRange::?relay`
        FUNCTION `??touchLink_PopGrpIDRange::?relay`,00H
        EXTERN `??touchLink_PopNwkAddress::?relay`
        FUNCTION `??touchLink_PopNwkAddress::?relay`,00H
        EXTERN `??touchLink_ProcessNwkUpdate::?relay`
        FUNCTION `??touchLink_ProcessNwkUpdate::?relay`,00H
        EXTERN `??touchLink_RouterProcessZDOMsg::?relay`
        FUNCTION `??touchLink_RouterProcessZDOMsg::?relay`,00H
        EXTERN `??touchLink_SendDeviceInfoRsp::?relay`
        FUNCTION `??touchLink_SendDeviceInfoRsp::?relay`,00H
        EXTERN `??touchLink_SendLeaveReq::?relay`
        FUNCTION `??touchLink_SendLeaveReq::?relay`,00H
        EXTERN `??touchLink_SetChannel::?relay`
        FUNCTION `??touchLink_SetChannel::?relay`,00H
        EXTERN `??touchLink_SetMacNwkParams::?relay`
        FUNCTION `??touchLink_SetMacNwkParams::?relay`,00H
        EXTERN `??touchLink_SetNIB::?relay`
        FUNCTION `??touchLink_SetNIB::?relay`,00H
        EXTERN `??touchLink_SetTouchLinkTaskId::?relay`
        FUNCTION `??touchLink_SetTouchLinkTaskId::?relay`,00H
        EXTERN `??touchLink_SplitFreeRanges::?relay`
        FUNCTION `??touchLink_SplitFreeRanges::?relay`,00H
        EXTERN `??touchLink_UpdateNV::?relay`
        FUNCTION `??touchLink_UpdateNV::?relay`,00H
        EXTERN `??zcl_registerForMsg::?relay`
        FUNCTION `??zcl_registerForMsg::?relay`,00H
        EXTERN APSME_GetRequest
        FUNCTION APSME_GetRequest,0202H
        ARGFRAME ISTACK, 0, STACK
        ARGFRAME PSTACK, 0, STACK
        ARGFRAME XSTACK, 75, STACK
        ARGFRAME IOVERLAY, 0, STATIC
        ARGFRAME DOVERLAY, 0, STATIC
        EXTERN AddrMgrEntryUpdate
        FUNCTION AddrMgrEntryUpdate,0202H
        ARGFRAME ISTACK, 0, STACK
        ARGFRAME PSTACK, 0, STACK
        ARGFRAME XSTACK, 75, STACK
        ARGFRAME IOVERLAY, 0, STATIC
        ARGFRAME DOVERLAY, 0, STATIC
        EXTERN NLME_GetExtAddr
        FUNCTION NLME_GetExtAddr,0202H
        ARGFRAME ISTACK, 0, STACK
        ARGFRAME PSTACK, 0, STACK
        ARGFRAME XSTACK, 75, STACK
        ARGFRAME IOVERLAY, 0, STATIC
        ARGFRAME DOVERLAY, 0, STATIC
        EXTERN NLME_GetShortAddr
        FUNCTION NLME_GetShortAddr,0202H
        ARGFRAME ISTACK, 0, STACK
        ARGFRAME PSTACK, 0, STACK
        ARGFRAME XSTACK, 75, STACK
        ARGFRAME IOVERLAY, 0, STATIC
        ARGFRAME DOVERLAY, 0, STATIC
        EXTERN NLME_InitNV
        FUNCTION NLME_InitNV,0202H
        ARGFRAME ISTACK, 0, STACK
        ARGFRAME PSTACK, 0, STACK
        ARGFRAME XSTACK, 33, STACK
        ARGFRAME IOVERLAY, 0, STATIC
        ARGFRAME DOVERLAY, 0, STATIC
        EXTERN NLME_SetPollRate
        FUNCTION NLME_SetPollRate,0202H
        ARGFRAME ISTACK, 0, STACK
        ARGFRAME PSTACK, 0, STACK
        ARGFRAME XSTACK, 17, STACK
        ARGFRAME IOVERLAY, 0, STATIC
        ARGFRAME DOVERLAY, 0, STATIC
        EXTERN NLME_SetQueuedPollRate
        FUNCTION NLME_SetQueuedPollRate,0202H
        ARGFRAME ISTACK, 0, STACK
        ARGFRAME PSTACK, 0, STACK
        ARGFRAME XSTACK, 17, STACK
        ARGFRAME IOVERLAY, 0, STATIC
        ARGFRAME DOVERLAY, 0, STATIC
        EXTERN NLME_SetResponseRate
        FUNCTION NLME_SetResponseRate,0202H
        ARGFRAME ISTACK, 0, STACK
        ARGFRAME PSTACK, 0, STACK
        ARGFRAME XSTACK, 17, STACK
        ARGFRAME IOVERLAY, 0, STATIC
        ARGFRAME DOVERLAY, 0, STATIC
        EXTERN NLME_SetUpdateID
        FUNCTION NLME_SetUpdateID,0202H
        ARGFRAME ISTACK, 0, STACK
        ARGFRAME PSTACK, 0, STACK
        ARGFRAME XSTACK, 75, STACK
        ARGFRAME IOVERLAY, 0, STATIC
        ARGFRAME DOVERLAY, 0, STATIC
        EXTERN ZDAppTaskID
        EXTERN ZDApp_LeaveCtrlReset
        FUNCTION ZDApp_LeaveCtrlReset,0202H
        ARGFRAME ISTACK, 0, STACK
        ARGFRAME PSTACK, 0, STACK
        ARGFRAME XSTACK, 75, STACK
        ARGFRAME IOVERLAY, 0, STATIC
        ARGFRAME DOVERLAY, 0, STATIC
        EXTERN ZDApp_StopJoiningCycle
        FUNCTION ZDApp_StopJoiningCycle,0202H
        ARGFRAME ISTACK, 0, STACK
        ARGFRAME PSTACK, 0, STACK
        ARGFRAME XSTACK, 75, STACK
        ARGFRAME IOVERLAY, 0, STATIC
        ARGFRAME DOVERLAY, 0, STATIC
        EXTERN ZDOInitDeviceEx
        FUNCTION ZDOInitDeviceEx,0202H
        ARGFRAME ISTACK, 0, STACK
        ARGFRAME PSTACK, 0, STACK
        ARGFRAME XSTACK, 75, STACK
        ARGFRAME IOVERLAY, 0, STATIC
        ARGFRAME DOVERLAY, 0, STATIC
        EXTERN ZDO_Config_Node_Descriptor
        EXTERN ZDO_RegisterForZDOMsg
        FUNCTION ZDO_RegisterForZDOMsg,0202H
        ARGFRAME ISTACK, 0, STACK
        ARGFRAME PSTACK, 0, STACK
        ARGFRAME XSTACK, 9, STACK
        ARGFRAME IOVERLAY, 0, STATIC
        ARGFRAME DOVERLAY, 0, STATIC
        EXTERN ZDO_RegisterForZdoCB
        FUNCTION ZDO_RegisterForZdoCB,0202H
        ARGFRAME ISTACK, 0, STACK
        ARGFRAME PSTACK, 0, STACK
        ARGFRAME XSTACK, 9, STACK
        ARGFRAME IOVERLAY, 0, STATIC
        ARGFRAME DOVERLAY, 0, STATIC
        EXTERN ZDO_UseExtendedPANID
        EXTERN ZDP_DeviceAnnce
        FUNCTION ZDP_DeviceAnnce,0202H
        ARGFRAME ISTACK, 0, STACK
        ARGFRAME PSTACK, 0, STACK
        ARGFRAME XSTACK, 76, STACK
        ARGFRAME IOVERLAY, 0, STATIC
        ARGFRAME DOVERLAY, 0, STATIC
        EXTERN ZDP_MgmtNwkUpdateReq
        FUNCTION ZDP_MgmtNwkUpdateReq,0202H
        ARGFRAME ISTACK, 0, STACK
        ARGFRAME PSTACK, 0, STACK
        ARGFRAME XSTACK, 27, STACK
        ARGFRAME IOVERLAY, 0, STATIC
        ARGFRAME DOVERLAY, 0, STATIC
        EXTERN ZDSecMgrUpdateTCAddress
        FUNCTION ZDSecMgrUpdateTCAddress,0202H
        ARGFRAME ISTACK, 0, STACK
        ARGFRAME PSTACK, 0, STACK
        ARGFRAME XSTACK, 75, STACK
        ARGFRAME IOVERLAY, 0, STATIC
        ARGFRAME DOVERLAY, 0, STATIC
        EXTERN ZMacGetReq
        FUNCTION ZMacGetReq,0202H
        ARGFRAME ISTACK, 0, STACK
        ARGFRAME PSTACK, 0, STACK
        ARGFRAME XSTACK, 17, STACK
        ARGFRAME IOVERLAY, 0, STATIC
        ARGFRAME DOVERLAY, 0, STATIC
        EXTERN ZMacSetReq
        FUNCTION ZMacSetReq,0202H
        ARGFRAME ISTACK, 2, STACK
        ARGFRAME PSTACK, 0, STACK
        ARGFRAME XSTACK, 17, STACK
        ARGFRAME IOVERLAY, 0, STATIC
        ARGFRAME DOVERLAY, 0, STATIC
        EXTERN _NIB
        EXTERN _tmpRejoinState
        EXTERN bdbAttributes
        EXTERN bdbCommissioningProcedureState
        EXTERN bdbTL_RegisterInterPANCmdCallbacks
        FUNCTION bdbTL_RegisterInterPANCmdCallbacks,0202H
        ARGFRAME ISTACK, 0, STACK
        ARGFRAME PSTACK, 0, STACK
        ARGFRAME XSTACK, 9, STACK
        ARGFRAME IOVERLAY, 0, STATIC
        ARGFRAME DOVERLAY, 0, STATIC
        EXTERN bdbTL_Send_DeviceInfoReq
        FUNCTION bdbTL_Send_DeviceInfoReq,0202H
        ARGFRAME ISTACK, 0, STACK
        ARGFRAME PSTACK, 0, STACK
        ARGFRAME XSTACK, 18, STACK
        ARGFRAME IOVERLAY, 0, STATIC
        ARGFRAME DOVERLAY, 0, STATIC
        EXTERN bdbTL_Send_EndpointInfo
        FUNCTION bdbTL_Send_EndpointInfo,0202H
        ARGFRAME ISTACK, 0, STACK
        ARGFRAME PSTACK, 0, STACK
        ARGFRAME XSTACK, 37, STACK
        ARGFRAME IOVERLAY, 0, STATIC
        ARGFRAME DOVERLAY, 0, STATIC
        EXTERN bdbTL_Send_IndentifyReq
        FUNCTION bdbTL_Send_IndentifyReq,0202H
        ARGFRAME ISTACK, 0, STACK
        ARGFRAME PSTACK, 0, STACK
        ARGFRAME XSTACK, 76, STACK
        ARGFRAME IOVERLAY, 0, STATIC
        ARGFRAME DOVERLAY, 0, STATIC
        EXTERN bdbTL_Send_NwkJoinReq
        FUNCTION bdbTL_Send_NwkJoinReq,0202H
        ARGFRAME ISTACK, 0, STACK
        ARGFRAME PSTACK, 0, STACK
        ARGFRAME XSTACK, 18, STACK
        ARGFRAME IOVERLAY, 0, STATIC
        ARGFRAME DOVERLAY, 0, STATIC
        EXTERN bdbTL_Send_NwkJoinRsp
        FUNCTION bdbTL_Send_NwkJoinRsp,0202H
        ARGFRAME ISTACK, 0, STACK
        ARGFRAME PSTACK, 0, STACK
        ARGFRAME XSTACK, 35, STACK
        ARGFRAME IOVERLAY, 0, STATIC
        ARGFRAME DOVERLAY, 0, STATIC
        EXTERN bdbTL_Send_NwkUpdateReq
        FUNCTION bdbTL_Send_NwkUpdateReq,0202H
        ARGFRAME ISTACK, 0, STACK
        ARGFRAME PSTACK, 0, STACK
        ARGFRAME XSTACK, 76, STACK
        ARGFRAME IOVERLAY, 0, STATIC
        ARGFRAME DOVERLAY, 0, STATIC
        EXTERN bdbTL_Send_ResetToFNReq
        FUNCTION bdbTL_Send_ResetToFNReq,0202H
        ARGFRAME ISTACK, 0, STACK
        ARGFRAME PSTACK, 0, STACK
        ARGFRAME XSTACK, 14, STACK
        ARGFRAME IOVERLAY, 0, STATIC
        ARGFRAME DOVERLAY, 0, STATIC
        EXTERN bdbTL_Send_ScanReq
        FUNCTION bdbTL_Send_ScanReq,0202H
        ARGFRAME ISTACK, 0, STACK
        ARGFRAME PSTACK, 0, STACK
        ARGFRAME XSTACK, 30, STACK
        ARGFRAME IOVERLAY, 0, STATIC
        ARGFRAME DOVERLAY, 0, STATIC
        EXTERN bdbTL_Send_ScanRsp
        FUNCTION bdbTL_Send_ScanRsp,0202H
        ARGFRAME ISTACK, 0, STACK
        ARGFRAME PSTACK, 0, STACK
        ARGFRAME XSTACK, 23, STACK
        ARGFRAME IOVERLAY, 0, STATIC
        ARGFRAME DOVERLAY, 0, STATIC
        EXTERN bdb_AddRespondentNode
        FUNCTION bdb_AddRespondentNode,0202H
        ARGFRAME ISTACK, 0, STACK
        ARGFRAME PSTACK, 0, STACK
        ARGFRAME XSTACK, 58, STACK
        ARGFRAME IOVERLAY, 0, STATIC
        ARGFRAME DOVERLAY, 0, STATIC
        EXTERN bdb_TaskID
        EXTERN bdb_ZclIdentifyCmdInd
        FUNCTION bdb_ZclIdentifyCmdInd,0202H
        ARGFRAME ISTACK, 0, STACK
        ARGFRAME PSTACK, 0, STACK
        ARGFRAME XSTACK, 10, STACK
        ARGFRAME IOVERLAY, 0, STATIC
        ARGFRAME DOVERLAY, 0, STATIC
        EXTERN bdb_reportCommissioningState
        FUNCTION bdb_reportCommissioningState,0202H
        ARGFRAME ISTACK, 0, STACK
        ARGFRAME PSTACK, 0, STACK
        ARGFRAME XSTACK, 75, STACK
        ARGFRAME IOVERLAY, 0, STATIC
        ARGFRAME DOVERLAY, 0, STATIC
        EXTERN bdb_setEpDescListToActiveEndpoint
        FUNCTION bdb_setEpDescListToActiveEndpoint,0202H
        ARGFRAME ISTACK, 0, STACK
        ARGFRAME PSTACK, 0, STACK
        ARGFRAME XSTACK, 10, STACK
        ARGFRAME IOVERLAY, 0, STATIC
        ARGFRAME DOVERLAY, 0, STATIC
        EXTERN bdb_setNodeIsOnANetwork
        FUNCTION bdb_setNodeIsOnANetwork,0202H
        ARGFRAME ISTACK, 0, STACK
        ARGFRAME PSTACK, 0, STACK
        ARGFRAME XSTACK, 33, STACK
        ARGFRAME IOVERLAY, 0, STATIC
        ARGFRAME DOVERLAY, 0, STATIC
        EXTERN bdb_zclRespondentListClean
        FUNCTION bdb_zclRespondentListClean,0202H
        ARGFRAME ISTACK, 0, STACK
        ARGFRAME PSTACK, 0, STACK
        ARGFRAME XSTACK, 58, STACK
        ARGFRAME IOVERLAY, 0, STATIC
        ARGFRAME DOVERLAY, 0, STATIC
        EXTERN devStartMode
        EXTERN devState
        EXTERN nwkNeighborAdd
        FUNCTION nwkNeighborAdd,0202H
        ARGFRAME ISTACK, 0, STACK
        ARGFRAME PSTACK, 0, STACK
        ARGFRAME XSTACK, 10, STACK
        ARGFRAME IOVERLAY, 0, STATIC
        ARGFRAME DOVERLAY, 0, STATIC
        EXTERN nwkNeighborGetLinkInfo
        FUNCTION nwkNeighborGetLinkInfo,0202H
        ARGFRAME ISTACK, 0, STACK
        ARGFRAME PSTACK, 0, STACK
        ARGFRAME XSTACK, 10, STACK
        ARGFRAME IOVERLAY, 0, STATIC
        ARGFRAME DOVERLAY, 0, STATIC
        EXTERN nwk_ExtPANIDValid
        FUNCTION nwk_ExtPANIDValid,0202H
        ARGFRAME ISTACK, 0, STACK
        ARGFRAME PSTACK, 0, STACK
        ARGFRAME XSTACK, 75, STACK
        ARGFRAME IOVERLAY, 0, STATIC
        ARGFRAME DOVERLAY, 0, STATIC
        EXTERN nwk_setStateIdle
        FUNCTION nwk_setStateIdle,0202H
        ARGFRAME ISTACK, 2, STACK
        ARGFRAME PSTACK, 0, STACK
        ARGFRAME XSTACK, 75, STACK
        ARGFRAME IOVERLAY, 0, STATIC
        ARGFRAME DOVERLAY, 0, STATIC
        EXTERN osal_clear_event
        FUNCTION osal_clear_event,0202H
        ARGFRAME ISTACK, 0, STACK
        ARGFRAME PSTACK, 0, STACK
        ARGFRAME XSTACK, 17, STACK
        ARGFRAME IOVERLAY, 0, STATIC
        ARGFRAME DOVERLAY, 0, STATIC
        EXTERN osal_get_timeoutEx
        FUNCTION osal_get_timeoutEx,0202H
        ARGFRAME ISTACK, 2, STACK
        ARGFRAME PSTACK, 0, STACK
        ARGFRAME XSTACK, 31, STACK
        ARGFRAME IOVERLAY, 0, STATIC
        ARGFRAME DOVERLAY, 0, STATIC
        EXTERN osal_mem_alloc
        FUNCTION osal_mem_alloc,0202H
        ARGFRAME ISTACK, 0, STACK
        ARGFRAME PSTACK, 0, STACK
        ARGFRAME XSTACK, 75, STACK
        ARGFRAME IOVERLAY, 0, STATIC
        ARGFRAME DOVERLAY, 0, STATIC
        EXTERN osal_mem_free
        FUNCTION osal_mem_free,0202H
        ARGFRAME ISTACK, 0, STACK
        ARGFRAME PSTACK, 0, STACK
        ARGFRAME XSTACK, 75, STACK
        ARGFRAME IOVERLAY, 0, STATIC
        ARGFRAME DOVERLAY, 0, STATIC
        EXTERN osal_memcmp
        FUNCTION osal_memcmp,0202H
        ARGFRAME ISTACK, 0, STACK
        ARGFRAME PSTACK, 0, STACK
        ARGFRAME XSTACK, 14, STACK
        ARGFRAME IOVERLAY, 0, STATIC
        ARGFRAME DOVERLAY, 0, STATIC
        EXTERN osal_memcpy
        FUNCTION osal_memcpy,0202H
        ARGFRAME ISTACK, 0, STACK
        ARGFRAME PSTACK, 0, STACK
        ARGFRAME XSTACK, 78, STACK
        ARGFRAME IOVERLAY, 0, STATIC
        ARGFRAME DOVERLAY, 0, STATIC
        EXTERN osal_memset
        FUNCTION osal_memset,0202H
        ARGFRAME ISTACK, 2, STACK
        ARGFRAME PSTACK, 0, STACK
        ARGFRAME XSTACK, 58, STACK
        ARGFRAME IOVERLAY, 0, STATIC
        ARGFRAME DOVERLAY, 0, STATIC
        EXTERN osal_msg_deallocate
        FUNCTION osal_msg_deallocate,0202H
        ARGFRAME ISTACK, 0, STACK
        ARGFRAME PSTACK, 0, STACK
        ARGFRAME XSTACK, 75, STACK
        ARGFRAME IOVERLAY, 0, STATIC
        ARGFRAME DOVERLAY, 0, STATIC
        EXTERN osal_msg_receive
        FUNCTION osal_msg_receive,0202H
        ARGFRAME ISTACK, 0, STACK
        ARGFRAME PSTACK, 0, STACK
        ARGFRAME XSTACK, 75, STACK
        ARGFRAME IOVERLAY, 0, STATIC
        ARGFRAME DOVERLAY, 0, STATIC
        EXTERN osal_msg_send
        FUNCTION osal_msg_send,0202H
        ARGFRAME ISTACK, 0, STACK
        ARGFRAME PSTACK, 0, STACK
        ARGFRAME XSTACK, 75, STACK
        ARGFRAME IOVERLAY, 0, STATIC
        ARGFRAME DOVERLAY, 0, STATIC
        EXTERN osal_nv_write
        FUNCTION osal_nv_write,0202H
        ARGFRAME ISTACK, 0, STACK
        ARGFRAME PSTACK, 0, STACK
        ARGFRAME XSTACK, 79, STACK
        ARGFRAME IOVERLAY, 0, STATIC
        ARGFRAME DOVERLAY, 0, STATIC
        EXTERN osal_rand
        FUNCTION osal_rand,0202H
        ARGFRAME ISTACK, 2, STACK
        ARGFRAME PSTACK, 0, STACK
        ARGFRAME XSTACK, 75, STACK
        ARGFRAME IOVERLAY, 0, STATIC
        ARGFRAME DOVERLAY, 0, STATIC
        EXTERN osal_set_event
        FUNCTION osal_set_event,0202H
        ARGFRAME ISTACK, 2, STACK
        ARGFRAME PSTACK, 0, STACK
        ARGFRAME XSTACK, 75, STACK
        ARGFRAME IOVERLAY, 0, STATIC
        ARGFRAME DOVERLAY, 0, STATIC
        EXTERN osal_start_timerEx
        FUNCTION osal_start_timerEx,0202H
        ARGFRAME ISTACK, 0, STACK
        ARGFRAME PSTACK, 0, STACK
        ARGFRAME XSTACK, 79, STACK
        ARGFRAME IOVERLAY, 0, STATIC
        ARGFRAME DOVERLAY, 0, STATIC
        EXTERN osal_stop_timerEx
        FUNCTION osal_stop_timerEx,0202H
        ARGFRAME ISTACK, 2, STACK
        ARGFRAME PSTACK, 0, STACK
        ARGFRAME XSTACK, 33, STACK
        ARGFRAME IOVERLAY, 0, STATIC
        ARGFRAME DOVERLAY, 0, STATIC
        EXTERN pRespondentHead
        EXTERN sAddrExtCmp
        FUNCTION sAddrExtCmp,0202H
        ARGFRAME ISTACK, 0, STACK
        ARGFRAME PSTACK, 0, STACK
        ARGFRAME XSTACK, 75, STACK
        ARGFRAME IOVERLAY, 0, STATIC
        ARGFRAME DOVERLAY, 0, STATIC
        EXTERN sAddrExtCpy
        FUNCTION sAddrExtCpy,0202H
        ARGFRAME ISTACK, 0, STACK
        ARGFRAME PSTACK, 0, STACK
        ARGFRAME XSTACK, 75, STACK
        ARGFRAME IOVERLAY, 0, STATIC
        ARGFRAME DOVERLAY, 0, STATIC
        EXTERN touchLinkGrpIDsBegin
        EXTERN touchLinkGrpIDsEnd
        EXTERN touchLinkLastAcceptedTransID
        EXTERN touchLinkLeaveInitiated
        EXTERN touchLinkResponseID
        EXTERN touchLinkStartRtr
        FUNCTION touchLinkStartRtr,0202H
        ARGFRAME ISTACK, 0, STACK
        ARGFRAME PSTACK, 0, STACK
        ARGFRAME XSTACK, 79, STACK
        ARGFRAME IOVERLAY, 0, STATIC
        ARGFRAME DOVERLAY, 0, STATIC
        EXTERN touchLinkTransID
        EXTERN touchLink_DecryptNwkKey
        FUNCTION touchLink_DecryptNwkKey,0202H
        ARGFRAME ISTACK, 0, STACK
        ARGFRAME PSTACK, 0, STACK
        ARGFRAME XSTACK, 83, STACK
        ARGFRAME IOVERLAY, 0, STATIC
        ARGFRAME DOVERLAY, 0, STATIC
        EXTERN touchLink_DevRejoin
        FUNCTION touchLink_DevRejoin,0202H
        ARGFRAME ISTACK, 0, STACK
        ARGFRAME PSTACK, 0, STACK
        ARGFRAME XSTACK, 75, STACK
        ARGFRAME IOVERLAY, 0, STATIC
        ARGFRAME DOVERLAY, 0, STATIC
        EXTERN touchLink_DeviceIsInitiator
        FUNCTION touchLink_DeviceIsInitiator,0202H
        ARGFRAME ISTACK, 0, STACK
        ARGFRAME PSTACK, 0, STACK
        ARGFRAME XSTACK, 29, STACK
        ARGFRAME IOVERLAY, 0, STATIC
        ARGFRAME DOVERLAY, 0, STATIC
        EXTERN touchLink_EncryptNwkKey
        FUNCTION touchLink_EncryptNwkKey,0202H
        ARGFRAME ISTACK, 0, STACK
        ARGFRAME PSTACK, 0, STACK
        ARGFRAME XSTACK, 83, STACK
        ARGFRAME IOVERLAY, 0, STATIC
        ARGFRAME DOVERLAY, 0, STATIC
        EXTERN touchLink_FreeNwkParamList
        FUNCTION touchLink_FreeNwkParamList,0202H
        ARGFRAME ISTACK, 0, STACK
        ARGFRAME PSTACK, 0, STACK
        ARGFRAME XSTACK, 75, STACK
        ARGFRAME IOVERLAY, 0, STATIC
        ARGFRAME DOVERLAY, 0, STATIC
        EXTERN touchLink_GenerateRandNum
        FUNCTION touchLink_GenerateRandNum,0202H
        ARGFRAME ISTACK, 2, STACK
        ARGFRAME PSTACK, 0, STACK
        ARGFRAME XSTACK, 75, STACK
        ARGFRAME IOVERLAY, 0, STATIC
        ARGFRAME DOVERLAY, 0, STATIC
        EXTERN touchLink_GerFreeRanges
        FUNCTION touchLink_GerFreeRanges,0202H
        ARGFRAME ISTACK, 0, STACK
        ARGFRAME PSTACK, 0, STACK
        ARGFRAME XSTACK, 75, STACK
        ARGFRAME IOVERLAY, 0, STATIC
        ARGFRAME DOVERLAY, 0, STATIC
        EXTERN touchLink_GetMsgRssi
        FUNCTION touchLink_GetMsgRssi,0202H
        ARGFRAME ISTACK, 0, STACK
        ARGFRAME PSTACK, 0, STACK
        ARGFRAME XSTACK, 31, STACK
        ARGFRAME IOVERLAY, 0, STATIC
        ARGFRAME DOVERLAY, 0, STATIC
        EXTERN touchLink_GetNumGrpIDs
        FUNCTION touchLink_GetNumGrpIDs,0202H
        ARGFRAME ISTACK, 2, STACK
        ARGFRAME PSTACK, 0, STACK
        ARGFRAME XSTACK, 22, STACK
        ARGFRAME IOVERLAY, 0, STATIC
        ARGFRAME DOVERLAY, 0, STATIC
        EXTERN touchLink_GetNumSubDevices
        FUNCTION touchLink_GetNumSubDevices,0202H
        ARGFRAME ISTACK, 0, STACK
        ARGFRAME PSTACK, 0, STACK
        ARGFRAME XSTACK, 22, STACK
        ARGFRAME IOVERLAY, 0, STATIC
        ARGFRAME DOVERLAY, 0, STATIC
        EXTERN touchLink_GetNwkKeyBitmask
        FUNCTION touchLink_GetNwkKeyBitmask,0202H
        ARGFRAME ISTACK, 0, STACK
        ARGFRAME PSTACK, 0, STACK
        ARGFRAME XSTACK, 22, STACK
        ARGFRAME IOVERLAY, 0, STATIC
        ARGFRAME DOVERLAY, 0, STATIC
        EXTERN touchLink_GetRandPrimaryChannel
        FUNCTION touchLink_GetRandPrimaryChannel,0202H
        ARGFRAME ISTACK, 2, STACK
        ARGFRAME PSTACK, 0, STACK
        ARGFRAME XSTACK, 75, STACK
        ARGFRAME IOVERLAY, 0, STATIC
        ARGFRAME DOVERLAY, 0, STATIC
        EXTERN touchLink_GetSubDeviceInfo
        FUNCTION touchLink_GetSubDeviceInfo,0202H
        ARGFRAME ISTACK, 0, STACK
        ARGFRAME PSTACK, 0, STACK
        ARGFRAME XSTACK, 35, STACK
        ARGFRAME IOVERLAY, 0, STATIC
        ARGFRAME DOVERLAY, 0, STATIC
        EXTERN touchLink_InitVariables
        FUNCTION touchLink_InitVariables,0202H
        ARGFRAME ISTACK, 0, STACK
        ARGFRAME PSTACK, 0, STACK
        ARGFRAME XSTACK, 9, STACK
        ARGFRAME IOVERLAY, 0, STATIC
        ARGFRAME DOVERLAY, 0, STATIC
        EXTERN touchLink_IsValidSplitFreeRanges
        FUNCTION touchLink_IsValidSplitFreeRanges,0202H
        ARGFRAME ISTACK, 0, STACK
        ARGFRAME PSTACK, 0, STACK
        ARGFRAME XSTACK, 75, STACK
        ARGFRAME IOVERLAY, 0, STATIC
        ARGFRAME DOVERLAY, 0, STATIC
        EXTERN touchLink_IsValidTransID
        FUNCTION touchLink_IsValidTransID,0202H
        ARGFRAME ISTACK, 0, STACK
        ARGFRAME PSTACK, 0, STACK
        ARGFRAME XSTACK, 75, STACK
        ARGFRAME IOVERLAY, 0, STATIC
        ARGFRAME DOVERLAY, 0, STATIC
        EXTERN touchLink_NewNwkUpdateId
        FUNCTION touchLink_NewNwkUpdateId,0202H
        ARGFRAME ISTACK, 0, STACK
        ARGFRAME PSTACK, 0, STACK
        ARGFRAME XSTACK, 10, STACK
        ARGFRAME IOVERLAY, 0, STATIC
        ARGFRAME DOVERLAY, 0, STATIC
        EXTERN touchLink_PerformNetworkDisc
        FUNCTION touchLink_PerformNetworkDisc,0202H
        ARGFRAME ISTACK, 0, STACK
        ARGFRAME PSTACK, 0, STACK
        ARGFRAME XSTACK, 75, STACK
        ARGFRAME IOVERLAY, 0, STATIC
        ARGFRAME DOVERLAY, 0, STATIC
        EXTERN touchLink_PermitJoin
        FUNCTION touchLink_PermitJoin,0202H
        ARGFRAME ISTACK, 2, STACK
        ARGFRAME PSTACK, 0, STACK
        ARGFRAME XSTACK, 75, STACK
        ARGFRAME IOVERLAY, 0, STATIC
        ARGFRAME DOVERLAY, 0, STATIC
        EXTERN touchLink_PopGrpIDRange
        FUNCTION touchLink_PopGrpIDRange,0202H
        ARGFRAME ISTACK, 2, STACK
        ARGFRAME PSTACK, 0, STACK
        ARGFRAME XSTACK, 16, STACK
        ARGFRAME IOVERLAY, 0, STATIC
        ARGFRAME DOVERLAY, 0, STATIC
        EXTERN touchLink_PopNwkAddress
        FUNCTION touchLink_PopNwkAddress,0202H
        ARGFRAME ISTACK, 2, STACK
        ARGFRAME PSTACK, 0, STACK
        ARGFRAME XSTACK, 16, STACK
        ARGFRAME IOVERLAY, 0, STATIC
        ARGFRAME DOVERLAY, 0, STATIC
        EXTERN touchLink_ProcessNwkUpdate
        FUNCTION touchLink_ProcessNwkUpdate,0202H
        ARGFRAME ISTACK, 0, STACK
        ARGFRAME PSTACK, 0, STACK
        ARGFRAME XSTACK, 75, STACK
        ARGFRAME IOVERLAY, 0, STATIC
        ARGFRAME DOVERLAY, 0, STATIC
        EXTERN touchLink_RouterProcessZDOMsg
        FUNCTION touchLink_RouterProcessZDOMsg,0202H
        ARGFRAME ISTACK, 0, STACK
        ARGFRAME PSTACK, 0, STACK
        ARGFRAME XSTACK, 75, STACK
        ARGFRAME IOVERLAY, 0, STATIC
        ARGFRAME DOVERLAY, 0, STATIC
        EXTERN touchLink_SendDeviceInfoRsp
        FUNCTION touchLink_SendDeviceInfoRsp,0202H
        ARGFRAME ISTACK, 0, STACK
        ARGFRAME PSTACK, 0, STACK
        ARGFRAME XSTACK, 15, STACK
        ARGFRAME IOVERLAY, 0, STATIC
        ARGFRAME DOVERLAY, 0, STATIC
        EXTERN touchLink_SendLeaveReq
        FUNCTION touchLink_SendLeaveReq,0202H
        ARGFRAME ISTACK, 0, STACK
        ARGFRAME PSTACK, 0, STACK
        ARGFRAME XSTACK, 75, STACK
        ARGFRAME IOVERLAY, 0, STATIC
        ARGFRAME DOVERLAY, 0, STATIC
        EXTERN touchLink_SetChannel
        FUNCTION touchLink_SetChannel,0202H
        ARGFRAME ISTACK, 0, STACK
        ARGFRAME PSTACK, 0, STACK
        ARGFRAME XSTACK, 75, STACK
        ARGFRAME IOVERLAY, 0, STATIC
        ARGFRAME DOVERLAY, 0, STATIC
        EXTERN touchLink_SetMacNwkParams
        FUNCTION touchLink_SetMacNwkParams,0202H
        ARGFRAME ISTACK, 2, STACK
        ARGFRAME PSTACK, 0, STACK
        ARGFRAME XSTACK, 33, STACK
        ARGFRAME IOVERLAY, 0, STATIC
        ARGFRAME DOVERLAY, 0, STATIC
        EXTERN touchLink_SetNIB
        FUNCTION touchLink_SetNIB,0202H
        ARGFRAME ISTACK, 0, STACK
        ARGFRAME PSTACK, 0, STACK
        ARGFRAME XSTACK, 79, STACK
        ARGFRAME IOVERLAY, 0, STATIC
        ARGFRAME DOVERLAY, 0, STATIC
        EXTERN touchLink_SetTouchLinkTaskId
        FUNCTION touchLink_SetTouchLinkTaskId,0202H
        ARGFRAME ISTACK, 0, STACK
        ARGFRAME PSTACK, 0, STACK
        ARGFRAME XSTACK, 9, STACK
        ARGFRAME IOVERLAY, 0, STATIC
        ARGFRAME DOVERLAY, 0, STATIC
        EXTERN touchLink_SplitFreeRanges
        FUNCTION touchLink_SplitFreeRanges,0202H
        ARGFRAME ISTACK, 0, STACK
        ARGFRAME PSTACK, 0, STACK
        ARGFRAME XSTACK, 20, STACK
        ARGFRAME IOVERLAY, 0, STATIC
        ARGFRAME DOVERLAY, 0, STATIC
        EXTERN touchLink_UpdateNV
        FUNCTION touchLink_UpdateNV,0202H
        ARGFRAME ISTACK, 0, STACK
        ARGFRAME PSTACK, 0, STACK
        ARGFRAME XSTACK, 75, STACK
        ARGFRAME IOVERLAY, 0, STATIC
        ARGFRAME DOVERLAY, 0, STATIC
        EXTERN touchlinkDistNwk
        EXTERN touchlinkFNReset
        EXTERN zTouchLinkNwkStartRtr
        EXTERN zcl_registerForMsg
        FUNCTION zcl_registerForMsg,0202H
        ARGFRAME ISTACK, 0, STACK
        ARGFRAME PSTACK, 0, STACK
        ARGFRAME XSTACK, 9, STACK
        ARGFRAME IOVERLAY, 0, STATIC
        ARGFRAME DOVERLAY, 0, STATIC
        EXTERN zgConfigPANID
        EXTERN zgDefaultChannelList
        EXTERN zgDeviceLogicalType
        EXTERN zgPollRate
        EXTERN zgQueuedPollRate
        EXTERN zgResponsePollRate

// D:\AA\Z-Stack 3.0.2\Components\stack\bdb\bdb_touchlink_initiator.c
//    1 /**************************************************************************************************
//    2   Filename:       bdb_touchlink_initiator.c
//    3   Revised:        $Date: 2013-11-22 16:17:23 -0800 (Fri, 22 Nov 2013) $
//    4   Revision:       $Revision: 36220 $
//    5 
//    6   Description:    Zigbee Cluster Library - Light Link Initiator.
//    7 
//    8 
//    9   Copyright 2011-2013 Texas Instruments Incorporated. All rights reserved.
//   10 
//   11   IMPORTANT: Your use of this Software is limited to those specific rights
//   12   granted under the terms of a software license agreement between the user
//   13   who downloaded the software, his/her employer (which must be your employer)
//   14   and Texas Instruments Incorporated (the "License").  You may not use this
//   15   Software unless you agree to abide by the terms of the License. The License
//   16   limits your use, and you acknowledge, that the Software may not be modified,
//   17   copied or distributed unless embedded on a Texas Instruments microcontroller
//   18   or used solely and exclusively in conjunction with a Texas Instruments radio
//   19   frequency transceiver, which is integrated into your product.  Other than for
//   20   the foregoing purpose, you may not use, reproduce, copy, prepare derivative
//   21   works of, modify, distribute, perform, display or sell this Software and/or
//   22   its documentation for any purpose.
//   23 
//   24   YOU FURTHER ACKNOWLEDGE AND AGREE THAT THE SOFTWARE AND DOCUMENTATION ARE
//   25   PROVIDED AS IS WITHOUT WARRANTY OF ANY KIND, EITHER EXPRESS OR IMPLIED,
//   26   INCLUDING WITHOUT LIMITATION, ANY WARRANTY OF MERCHANTABILITY, TITLE,
//   27   NON-INFRINGEMENT AND FITNESS FOR A PARTICULAR PURPOSE. IN NO EVENT SHALL
//   28   TEXAS INSTRUMENTS OR ITS LICENSORS BE LIABLE OR OBLIGATED UNDER CONTRACT,
//   29   NEGLIGENCE, STRICT LIABILITY, CONTRIBUTION, BREACH OF WARRANTY, OR OTHER
//   30   LEGAL EQUITABLE THEORY ANY DIRECT OR INDIRECT DAMAGES OR EXPENSES
//   31   INCLUDING BUT NOT LIMITED TO ANY INCIDENTAL, SPECIAL, INDIRECT, PUNITIVE
//   32   OR CONSEQUENTIAL DAMAGES, LOST PROFITS OR LOST DATA, COST OF PROCUREMENT
//   33   OF SUBSTITUTE GOODS, TECHNOLOGY, SERVICES, OR ANY CLAIMS BY THIRD PARTIES
//   34   (INCLUDING BUT NOT LIMITED TO ANY DEFENSE THEREOF), OR OTHER SIMILAR COSTS.
//   35 
//   36   Should you have any questions regarding your right to use this Software,
//   37   contact Texas Instruments Incorporated at www.TI.com.
//   38 **************************************************************************************************/
//   39 
//   40 
//   41 /*********************************************************************
//   42  * INCLUDES
//   43  */
//   44 #include "ZComDef.h"
//   45 #include "OSAL.h"
//   46 #include "OSAL_Tasks.h"
//   47 #include "OSAL_Nv.h"
//   48 #include "AF.h"
//   49 #include "ZDApp.h"
//   50 #include "ZDSecMgr.h"
//   51 #include "ZDObject.h"
//   52 #include "nwk_util.h"
//   53 #include "ZGlobals.h"
//   54 #include "AddrMgr.h"
//   55 
//   56 #if defined ( POWER_SAVING )
//   57 #include "OSAL_PwrMgr.h"
//   58 #endif
//   59 
//   60 #include "stub_aps.h"
//   61 
//   62 #include "zcl.h"
//   63 #include "zcl_general.h"
//   64 #include "bdb.h"
//   65 #include "bdb_interface.h"
//   66 #include "bdb_tlCommissioning.h"
//   67 #include "bdb_touchlink.h"
//   68 
//   69 #include "bdb_touchlink_initiator.h"
//   70 #include "hal_lcd.h"
//   71 #include "hal_led.h"
//   72 
//   73 #if defined ( BDB_TL_INITIATOR )
//   74    
//   75 /*********************************************************************
//   76  * MACROS
//   77  */
//   78 
//   79 /*********************************************************************
//   80  * CONSTANTS
//   81  */
//   82 
//   83 #define TOUCHLINK_INITIATOR_REJOIN_TIMEOUT             2500 // 2.5 sec
//   84 
//   85 // for non-polling end-devices only
//   86 #define TOUCHLINK_INITIATOR_TEMP_POST_TL_POLL_RATE     1000
//   87 
//   88 #define DEV_INFO_INVALID_EP                            0xFE
//   89 
//   90 #define TOUCHLINK_INITIATOR_NUM_SCAN_REQ_PRIMARY       8  // 5 times on 1st channel, plus once for each remianing primary channel
//   91 #define TOUCHLINK_INITIATOR_NUM_SCAN_REQ_EXTENDED      20 // (TOUCHLINK_NUM_SCAN_REQ_PRIMARY + sizeof(TOUCHLINK_SECONDARY_CHANNELS_SET))
//   92 
//   93 /*********************************************************************
//   94  * TYPEDEFS
//   95  */
//   96 typedef union
//   97 {
//   98   bdbTLNwkStartRsp_t nwkStartRsp;
//   99   bdbTLNwkJoinRsp_t nwkJoinRsp;
//  100 } bdbTLRsp_t;
//  101 
//  102 typedef struct
//  103 {
//  104   bdbTLScanRsp_t scanRsp;
//  105   afAddrType_t srcAddr;
//  106   uint16 newNwkAddr;
//  107   uint8 rxChannel;  // channel scan response was heard on
//  108   int8 lastRssi;    // receieved RSSI
//  109 } targetCandidate_t;
//  110 
//  111 /*********************************************************************
//  112  * GLOBAL VARIABLES
//  113  */

        RSEG XDATA_Z:XDATA:NOROOT(0)
        DATA8
//  114 uint8 touchLinkInitiator_TaskID;
touchLinkInitiator_TaskID:
        DS 1
        REQUIRE __INIT_XDATA_Z
//  115 
//  116 /*********************************************************************
//  117  * EXTERNAL VARIABLES
//  118  */
//  119 extern devStartModes_t devStartMode;
//  120 extern uint8 _tmpRejoinState;
//  121 
//  122 /*********************************************************************
//  123  * EXTERNAL FUNCTIONS
//  124  */
//  125 extern void bdb_setNodeIsOnANetwork(bool isOnANetwork);
//  126 
//  127 /*********************************************************************
//  128  * LOCAL VARIABLES
//  129  */

        RSEG XDATA_Z:XDATA:NOROOT(0)
        DATA8
//  130 static uint8 initiatorSeqNum;
initiatorSeqNum:
        DS 1
        REQUIRE __INIT_XDATA_Z
//  131 
//  132 // Touch Link channel tracking

        RSEG XDATA_Z:XDATA:NOROOT(0)
        DATA8
//  133 static uint8 numScanReqSent;
numScanReqSent:
        DS 1
        REQUIRE __INIT_XDATA_Z

        RSEG XDATA_Z:XDATA:NOROOT(0)
        DATA8
//  134 static uint8 scanReqChannels;
scanReqChannels:
        DS 1
        REQUIRE __INIT_XDATA_Z
//  135 
//  136 // Network key sent to the target to start the network with

        RSEG XDATA_Z:XDATA:NOROOT(0)
        DATA8
//  137 static uint8 keyIndexSent;
keyIndexSent:
        DS 1
        REQUIRE __INIT_XDATA_Z

        RSEG XDATA_Z:XDATA:NOROOT(0)
        DATA8
//  138 static uint8 encKeySent[SEC_KEY_LEN];
encKeySent:
        DS 16
        REQUIRE __INIT_XDATA_Z

        RSEG XDATA_Z:XDATA:NOROOT(0)
        DATA32
//  139 static uint32 responseIDSent;
responseIDSent:
        DS 4
        REQUIRE __INIT_XDATA_Z
//  140 
//  141 // Info related to the received request
//  142 #if ZSTACK_END_DEVICE_BUILD
//  143 static bdbTLNwkJoinReq_t joinReq;
//  144 #endif
//  145 
//  146 // Info related to the received response

        RSEG XDATA_Z:XDATA:NOROOT(0)
        DATA8
//  147 static targetCandidate_t selectedTarget;
selectedTarget:
        DS 54
        REQUIRE __INIT_XDATA_Z

        RSEG XDATA_Z:XDATA:NOROOT(0)
        DATA16
//  148 static uint16 selectedTargetNwkAddr;
selectedTargetNwkAddr:
        DS 2
        REQUIRE __INIT_XDATA_Z

        RSEG XDATA_Z:XDATA:NOROOT(0)
        DATA8
//  149 static ZLongAddr_t selectedTargetIEEEAddr;
selectedTargetIEEEAddr:
        DS 8
        REQUIRE __INIT_XDATA_Z

        RSEG XDATA_Z:XDATA:NOROOT(0)
        DATA8
//  150 static bdbTLRsp_t rxRsp; // network start or join response
rxRsp:
        DS 17
        REQUIRE __INIT_XDATA_Z
//  151 

        RSEG XDATA_Z:XDATA:NOROOT(0)
        DATA8
//  152 static bdbTLNwkParams_t initiatorNwkParams = {0};
initiatorNwkParams:
        DS 42
        REQUIRE __INIT_XDATA_Z
//  153 
//  154 // Addresses used for sending/receiving messages

        RSEG XDATA_Z:XDATA:NOROOT(0)
        DATA8
//  155 static afAddrType_t bcastAddr;
bcastAddr:
        DS 12
        REQUIRE __INIT_XDATA_Z
//  156 

        RSEG XDATA_Z:XDATA:NOROOT(0)
        DATA16
//  157 static uint16 savedPollRate;
savedPollRate:
        DS 2
        REQUIRE __INIT_XDATA_Z

        RSEG XDATA_Z:XDATA:NOROOT(0)
        DATA16
//  158 static uint16 savedQueuedPollRate;
savedQueuedPollRate:
        DS 2
        REQUIRE __INIT_XDATA_Z

        RSEG XDATA_Z:XDATA:NOROOT(0)
        DATA16
//  159 static uint16 savedResponsePollRate;
savedResponsePollRate:
        DS 2
        REQUIRE __INIT_XDATA_Z

        RSEG XDATA_Z:XDATA:NOROOT(0)
        DATA8
//  160 static uint8 savedRxOnIdle;
savedRxOnIdle:
        DS 1
        REQUIRE __INIT_XDATA_Z
//  161 
//  162 // Application callback

        RSEG XDATA_Z:XDATA:NOROOT(0)
        DATA16
//  163 static touchLink_NotifyAppTLCB_t pfnNotifyAppCB = NULL;
pfnNotifyAppCB:
        DS 2
        REQUIRE __INIT_XDATA_Z

        RSEG XDATA_Z:XDATA:NOROOT(0)
        DATA16
//  164 static touchLink_SelectDiscDevCB_t pfnSelectDiscDevCB = NULL;
pfnSelectDiscDevCB:
        DS 2
        REQUIRE __INIT_XDATA_Z
//  165 

        RSEG XDATA_I:XDATA:NOROOT(0)
//  166 static uint8 initiatorRegisteredMsgAppTaskID = TASK_NO_TASK;
initiatorRegisteredMsgAppTaskID:
        DATA8
        DS 1
        REQUIRE `?<Initializer for initiatorRegisteredMsgAppTas`
        REQUIRE __INIT_XDATA_I
//  167 
//  168 /*********************************************************************
//  169  * GLOBAL FUNCTIONS
//  170  */
//  171 extern void touchLink_ItemInit( uint16 id, uint16 len, void *pBuf );
//  172 
//  173 /*********************************************************************
//  174  * LOCAL FUNCTIONS
//  175  */
//  176 
//  177 static ZStatus_t initiatorScanReqCB( afAddrType_t *srcAddr, bdbTLScanReq_t *pReq, uint8 seqNum );
//  178 static ZStatus_t initiatorDeviceInfoReqCB( afAddrType_t *srcAddr, bdbTLDeviceInfoReq_t *pReq, uint8 seqNum );
//  179 static ZStatus_t initiatorIdentifyReqCB( afAddrType_t *srcAddr, bdbTLIdentifyReq_t *pReq );
//  180 static ZStatus_t initiatorNwkJoinReqCB( afAddrType_t *srcAddr, bdbTLNwkJoinReq_t *pReq, uint8 seqNum );
//  181 static ZStatus_t initiatorNwkUpdateReqCB( afAddrType_t *srcAddr, bdbTLNwkUpdateReq_t *pReq );
//  182 static ZStatus_t initiatorScanRspCB( afAddrType_t *srcAddr, bdbTLScanRsp_t *pRsp );
//  183 static ZStatus_t initiatorDeviceInfoRspCB( afAddrType_t *srcAddr, bdbTLDeviceInfoRsp_t *pRsp );
//  184 static ZStatus_t initiatorNwkStartRspCB( afAddrType_t *srcAddr, bdbTLNwkStartRsp_t *pRsp );
//  185 static ZStatus_t initiatorNwkJoinRtrRspCB( afAddrType_t *srcAddr, bdbTLNwkJoinRsp_t *pRsp );
//  186 static ZStatus_t initiatorNwkJoinEDRspCB( afAddrType_t *srcAddr, bdbTLNwkJoinRsp_t *pRsp );
//  187 static void *initiatorZdoLeaveCnfCB( void *pParam );
//  188 static ZStatus_t touchLink_InitiatorSendScanRsp( uint8 srcEP, afAddrType_t *dstAddr, uint32 transID, uint8 seqNum );
//  189 static void initiatorProcessStateChange( devStates_t state );
//  190 static void initiatorSetNwkToInitState( void );
//  191 #if ( ZSTACK_ROUTER_BUILD )
//  192 static void initiatorJoinNwk( void );
//  193 #endif
//  194 static void initiatorReJoinNwk( devStartModes_t startMode );
//  195 static void initiatorSendScanReq( bool freshScan );
//  196 static ZStatus_t initiatorSendNwkStartReq( bdbTLScanRsp_t *pRsp );
//  197 static ZStatus_t initiatorSendNwkJoinReq( bdbTLScanRsp_t *pRsp );
//  198 static ZStatus_t initiatorSendNwkUpdateReq( bdbTLScanRsp_t *pRsp );
//  199 static void initiatorClearSelectedTarget( void );
//  200 
//  201 /*********************************************************************
//  202  * TOUCHLINK Initiator Callback Table
//  203  */
//  204 // Initiator Command Callbacks table

        RSEG XDATA_I:XDATA:NOROOT(0)
//  205 static bdbTL_InterPANCallbacks_t touchLinkInitiator_CmdCBs =
touchLinkInitiator_CmdCBs:
        DATA8
        DS 26
        REQUIRE `?<Initializer for touchLinkInitiator_CmdCBs>`
        REQUIRE __INIT_XDATA_I
//  206 {
//  207   // Received Server Commands
//  208   initiatorScanReqCB,       // Scan Request command
//  209   initiatorDeviceInfoReqCB, // Device Information Request command
//  210   initiatorIdentifyReqCB,   // Identify Request command
//  211   NULL,                     // Reset to Factory New Request command
//  212   NULL,                     // Network Start Request command
//  213 #if ( ZSTACK_ROUTER_BUILD )
//  214   initiatorNwkJoinReqCB,    // Network Join Router Request command
//  215   NULL,                     // Network Join End Device Request command
//  216 #else
//  217   NULL,                     // Network Join Router Request command
//  218   initiatorNwkJoinReqCB,    // Network Join End Device Request command
//  219 #endif
//  220   initiatorNwkUpdateReqCB,  // Network Update Request command
//  221 
//  222   // Received Client Commands
//  223   initiatorScanRspCB,       // Scan Response command
//  224   initiatorDeviceInfoRspCB, // Device Information Response command
//  225   initiatorNwkStartRspCB,   // Network Start Response command
//  226   initiatorNwkJoinRtrRspCB, // Network Join Router Response command
//  227   initiatorNwkJoinEDRspCB   // Network Join End Device Response command
//  228 };
//  229 
//  230 /*********************************************************************
//  231  * PUBLIC FUNCTIONS
//  232  */
//  233 
//  234 /*********************************************************************
//  235  * @fn      touchLinkInitiator_InitDevice
//  236  *
//  237  * @brief   Start the TOUCHLINK Initiator device in the network if it's not
//  238  *          factory new. Otherwise, determine the network parameters
//  239  *          and wait for a touchlink command.
//  240  *
//  241  * @param   none
//  242  *
//  243  * @return  status
//  244  */

        RSEG BANKED_CODE:HUGECODE:NOROOT(0)
//  245 ZStatus_t touchLinkInitiator_InitDevice( void )
touchLinkInitiator_InitDevice:
          CFI Block cfiBlock0 Using cfiCommon0
          CFI Function touchLinkInitiator_InitDevice
        CODE
//  246 {
        FUNCALL touchLinkInitiator_InitDevice, initiatorReJoinNwk
        LOCFRAME ISTACK, 2, STACK
        LOCFRAME PSTACK, 0, STACK
        LOCFRAME XSTACK, 0, STACK
        LOCFRAME IOVERLAY, 0, STATIC
        LOCFRAME DOVERLAY, 0, STATIC
        ARGFRAME ISTACK, 2, STACK
        ARGFRAME PSTACK, 0, STACK
        ARGFRAME XSTACK, 0, STACK
        ARGFRAME IOVERLAY, 0, STATIC
        ARGFRAME DOVERLAY, 0, STATIC
        FUNCALL touchLinkInitiator_InitDevice, initiatorSelectNwkParams
        LOCFRAME ISTACK, 2, STACK
        LOCFRAME PSTACK, 0, STACK
        LOCFRAME XSTACK, 0, STACK
        LOCFRAME IOVERLAY, 0, STATIC
        LOCFRAME DOVERLAY, 0, STATIC
        ARGFRAME ISTACK, 2, STACK
        ARGFRAME PSTACK, 0, STACK
        ARGFRAME XSTACK, 0, STACK
        ARGFRAME IOVERLAY, 0, STATIC
        ARGFRAME DOVERLAY, 0, STATIC
        FUNCALL touchLinkInitiator_InitDevice, ZMacSetReq
        LOCFRAME ISTACK, 2, STACK
        LOCFRAME PSTACK, 0, STACK
        LOCFRAME XSTACK, 0, STACK
        LOCFRAME IOVERLAY, 0, STATIC
        LOCFRAME DOVERLAY, 0, STATIC
        ARGFRAME ISTACK, 2, STACK
        ARGFRAME PSTACK, 0, STACK
        ARGFRAME XSTACK, 0, STACK
        ARGFRAME IOVERLAY, 0, STATIC
        ARGFRAME DOVERLAY, 0, STATIC
        FUNCALL touchLinkInitiator_InitDevice, touchLink_PermitJoin
        LOCFRAME ISTACK, 2, STACK
        LOCFRAME PSTACK, 0, STACK
        LOCFRAME XSTACK, 0, STACK
        LOCFRAME IOVERLAY, 0, STATIC
        LOCFRAME DOVERLAY, 0, STATIC
        ARGFRAME ISTACK, 2, STACK
        ARGFRAME PSTACK, 0, STACK
        ARGFRAME XSTACK, 0, STACK
        ARGFRAME IOVERLAY, 0, STATIC
        ARGFRAME DOVERLAY, 0, STATIC
        PUSH      DPL
          CFI DPL0 Frame(CFA_SP, 4)
          CFI CFA_SP SP+-4
        PUSH      DPH
          CFI DPH0 Frame(CFA_SP, 5)
          CFI CFA_SP SP+-5
        ; Saved register size: 2
        ; Auto size: 0
//  247   ZDO_Config_Node_Descriptor.LogicalType = zgDeviceLogicalType;
        MOV       DPTR,#zgDeviceLogicalType
        MOVX      A,@DPTR
        ANL       A,#0x7
        MOV       R0,A
        MOV       DPTR,#ZDO_Config_Node_Descriptor
        MOVX      A,@DPTR
        ANL       A,#0xf8
        ORL       A,R0
        MOVX      @DPTR,A
//  248   
//  249   // Is not factory new?
//  250   if ( bdbAttributes.bdbNodeIsOnANetwork == TRUE )
        MOV       DPTR,#bdbAttributes + 14
        MOVX      A,@DPTR
        XRL       A,#0x1
        JNZ       ??touchLinkInitiator_InitDevice_0
//  251   {
//  252     // Resume ZigBee functionality based on the info stored in NV
//  253     initiatorReJoinNwk( MODE_RESUME );
        ; Setup parameters for call to function initiatorReJoinNwk
        MOV       R1,#0x1
        LCALL     `??initiatorReJoinNwk::?relay`; Banked call to: initiatorReJoinNwk
        SJMP      ??touchLinkInitiator_InitDevice_1
//  254   }
//  255   else
//  256   {
//  257     initiatorSelectNwkParams();
??touchLinkInitiator_InitDevice_0:
        ; Setup parameters for call to function initiatorSelectNwkParams
        LCALL     `??initiatorSelectNwkParams::?relay`; Banked call to: initiatorSelectNwkParams
//  258   }
//  259 
//  260 #if defined ( POWER_SAVING )
//  261   osal_pwrmgr_device( PWRMGR_BATTERY );
//  262 #endif
//  263 
//  264 #if ( ZSTACK_ROUTER_BUILD )
//  265   // Enable our receiver
//  266   savedRxOnIdle = TRUE;
??touchLinkInitiator_InitDevice_1:
        MOV       DPTR,#savedRxOnIdle
        MOV       A,#0x1
        MOVX      @DPTR,A
//  267   ZMacSetReq( ZMacRxOnIdle, &savedRxOnIdle );
        ; Setup parameters for call to function ZMacSetReq
        MOV       R2,#savedRxOnIdle & 0xff
        MOV       R3,#(savedRxOnIdle >> 8) & 0xff
        MOV       R1,#0x52
        LCALL     `??ZMacSetReq::?relay`; Banked call to: ZMacSetReq
//  268   touchLink_PermitJoin(0);
        ; Setup parameters for call to function touchLink_PermitJoin
        MOV       R1,#0x0
        LCALL     `??touchLink_PermitJoin::?relay`; Banked call to: touchLink_PermitJoin
//  269 #endif
//  270 
//  271   return ( ZSuccess );
        MOV       R1,#0x0
        LJMP      ??Subroutine46_0 & 0xFFFF
//  272 }
          CFI EndBlock cfiBlock0
//  273 
//  274 /*********************************************************************
//  275  * @fn      touchLinkInitiator_RegisterNotifyTLCB
//  276  *
//  277  * @brief   Register an Application's Touch-Link Notify callback function.
//  278  *
//  279  * @param   pfnNotifyApp - application callback
//  280  *
//  281  * @return  none
//  282  */

        RSEG BANKED_CODE:HUGECODE:NOROOT(0)
//  283 void touchLinkInitiator_RegisterNotifyTLCB( touchLink_NotifyAppTLCB_t pfnNotifyApp )
touchLinkInitiator_RegisterNotifyTLCB:
          CFI Block cfiBlock1 Using cfiCommon0
          CFI Function touchLinkInitiator_RegisterNotifyTLCB
        CODE
//  284 {
        PUSH      DPL
          CFI DPL0 Frame(CFA_SP, 4)
          CFI CFA_SP SP+-4
        PUSH      DPH
          CFI DPH0 Frame(CFA_SP, 5)
          CFI CFA_SP SP+-5
        ; Saved register size: 2
        ; Auto size: 0
//  285   pfnNotifyAppCB = pfnNotifyApp;
        MOV       DPTR,#pfnNotifyAppCB
        LJMP      ?Subroutine0 & 0xFFFF
//  286 }
          CFI EndBlock cfiBlock1
//  287 
//  288 /*********************************************************************
//  289  * @fn      touchLinkInitiator_RegisterSelectDiscDevCB
//  290  *
//  291  * @brief   Register an Application's Selection callback function, to select
//  292  *          a target from the discovered devices during a Touch-link scan.
//  293  *
//  294  * @param   pfnSelectDiscDev - application callback
//  295  *
//  296  * @return  none
//  297  */

        RSEG BANKED_CODE:HUGECODE:NOROOT(0)
//  298 void touchLinkInitiator_RegisterSelectDiscDevCB( touchLink_SelectDiscDevCB_t pfnSelectDiscDev )
touchLinkInitiator_RegisterSelectDiscDevCB:
          CFI Block cfiBlock2 Using cfiCommon0
          CFI Function touchLinkInitiator_RegisterSelectDiscDevCB
        CODE
//  299 {
        PUSH      DPL
          CFI DPL0 Frame(CFA_SP, 4)
          CFI CFA_SP SP+-4
        PUSH      DPH
          CFI DPH0 Frame(CFA_SP, 5)
          CFI CFA_SP SP+-5
        ; Saved register size: 2
        ; Auto size: 0
//  300   pfnSelectDiscDevCB = pfnSelectDiscDev;
        MOV       DPTR,#pfnSelectDiscDevCB
        LJMP      ?Subroutine0 & 0xFFFF
//  301 }
          CFI EndBlock cfiBlock2
//  302 
//  303 /*********************************************************************
//  304  * @fn      touchLinkInitiator_StartDevDisc
//  305  *
//  306  * @brief   Start device discovery, scanning for other devices in the vicinity
//  307  *          of the originator (initiating first part of the Touch-Link process).
//  308  *          Device discovery shall only be initiated by address assignment capable
//  309  *          devices. To perform device discovery, the initiator shall broadcast
//  310  *          inter-PAN Scan Requests, spaced at an interval of
//  311  *          BDBCTL_SCAN_TIME_BASE_DURATION seconds.
//  312  *
//  313  * @param   none
//  314  *
//  315  * @return  status
//  316  */

        RSEG BANKED_CODE:HUGECODE:NOROOT(0)
//  317 ZStatus_t touchLinkInitiator_StartDevDisc( void )
touchLinkInitiator_StartDevDisc:
          CFI Block cfiBlock3 Using cfiCommon0
          CFI Function touchLinkInitiator_StartDevDisc
        CODE
//  318 {
        FUNCALL touchLinkInitiator_StartDevDisc, osal_clear_event
        LOCFRAME ISTACK, 0, STACK
        LOCFRAME PSTACK, 0, STACK
        LOCFRAME XSTACK, 17, STACK
        LOCFRAME IOVERLAY, 0, STATIC
        LOCFRAME DOVERLAY, 0, STATIC
        ARGFRAME ISTACK, 0, STACK
        ARGFRAME PSTACK, 0, STACK
        ARGFRAME XSTACK, 17, STACK
        ARGFRAME IOVERLAY, 0, STATIC
        ARGFRAME DOVERLAY, 0, STATIC
        FUNCALL touchLinkInitiator_StartDevDisc, ZDApp_StopJoiningCycle
        LOCFRAME ISTACK, 0, STACK
        LOCFRAME PSTACK, 0, STACK
        LOCFRAME XSTACK, 17, STACK
        LOCFRAME IOVERLAY, 0, STATIC
        LOCFRAME DOVERLAY, 0, STATIC
        ARGFRAME ISTACK, 0, STACK
        ARGFRAME PSTACK, 0, STACK
        ARGFRAME XSTACK, 17, STACK
        ARGFRAME IOVERLAY, 0, STATIC
        ARGFRAME DOVERLAY, 0, STATIC
        FUNCALL touchLinkInitiator_StartDevDisc, touchLinkInitiator_AbortTL
        LOCFRAME ISTACK, 0, STACK
        LOCFRAME PSTACK, 0, STACK
        LOCFRAME XSTACK, 17, STACK
        LOCFRAME IOVERLAY, 0, STATIC
        LOCFRAME DOVERLAY, 0, STATIC
        ARGFRAME ISTACK, 0, STACK
        ARGFRAME PSTACK, 0, STACK
        ARGFRAME XSTACK, 17, STACK
        ARGFRAME IOVERLAY, 0, STATIC
        ARGFRAME DOVERLAY, 0, STATIC
        FUNCALL touchLinkInitiator_StartDevDisc, osal_get_timeoutEx
        LOCFRAME ISTACK, 0, STACK
        LOCFRAME PSTACK, 0, STACK
        LOCFRAME XSTACK, 17, STACK
        LOCFRAME IOVERLAY, 0, STATIC
        LOCFRAME DOVERLAY, 0, STATIC
        ARGFRAME ISTACK, 0, STACK
        ARGFRAME PSTACK, 0, STACK
        ARGFRAME XSTACK, 17, STACK
        ARGFRAME IOVERLAY, 0, STATIC
        ARGFRAME DOVERLAY, 0, STATIC
        FUNCALL touchLinkInitiator_StartDevDisc, osal_rand
        LOCFRAME ISTACK, 0, STACK
        LOCFRAME PSTACK, 0, STACK
        LOCFRAME XSTACK, 17, STACK
        LOCFRAME IOVERLAY, 0, STATIC
        LOCFRAME DOVERLAY, 0, STATIC
        ARGFRAME ISTACK, 0, STACK
        ARGFRAME PSTACK, 0, STACK
        ARGFRAME XSTACK, 17, STACK
        ARGFRAME IOVERLAY, 0, STATIC
        ARGFRAME DOVERLAY, 0, STATIC
        FUNCALL touchLinkInitiator_StartDevDisc, osal_rand
        LOCFRAME ISTACK, 0, STACK
        LOCFRAME PSTACK, 0, STACK
        LOCFRAME XSTACK, 17, STACK
        LOCFRAME IOVERLAY, 0, STATIC
        LOCFRAME DOVERLAY, 0, STATIC
        ARGFRAME ISTACK, 0, STACK
        ARGFRAME PSTACK, 0, STACK
        ARGFRAME XSTACK, 17, STACK
        ARGFRAME IOVERLAY, 0, STATIC
        ARGFRAME DOVERLAY, 0, STATIC
        FUNCALL touchLinkInitiator_StartDevDisc, osal_start_timerEx
        LOCFRAME ISTACK, 0, STACK
        LOCFRAME PSTACK, 0, STACK
        LOCFRAME XSTACK, 21, STACK
        LOCFRAME IOVERLAY, 0, STATIC
        LOCFRAME DOVERLAY, 0, STATIC
        ARGFRAME ISTACK, 0, STACK
        ARGFRAME PSTACK, 0, STACK
        ARGFRAME XSTACK, 21, STACK
        ARGFRAME IOVERLAY, 0, STATIC
        ARGFRAME DOVERLAY, 0, STATIC
        FUNCALL touchLinkInitiator_StartDevDisc, NLME_SetPollRate
        LOCFRAME ISTACK, 0, STACK
        LOCFRAME PSTACK, 0, STACK
        LOCFRAME XSTACK, 17, STACK
        LOCFRAME IOVERLAY, 0, STATIC
        LOCFRAME DOVERLAY, 0, STATIC
        ARGFRAME ISTACK, 0, STACK
        ARGFRAME PSTACK, 0, STACK
        ARGFRAME XSTACK, 17, STACK
        ARGFRAME IOVERLAY, 0, STATIC
        ARGFRAME DOVERLAY, 0, STATIC
        FUNCALL touchLinkInitiator_StartDevDisc, NLME_SetQueuedPollRate
        LOCFRAME ISTACK, 0, STACK
        LOCFRAME PSTACK, 0, STACK
        LOCFRAME XSTACK, 17, STACK
        LOCFRAME IOVERLAY, 0, STATIC
        LOCFRAME DOVERLAY, 0, STATIC
        ARGFRAME ISTACK, 0, STACK
        ARGFRAME PSTACK, 0, STACK
        ARGFRAME XSTACK, 17, STACK
        ARGFRAME IOVERLAY, 0, STATIC
        ARGFRAME DOVERLAY, 0, STATIC
        FUNCALL touchLinkInitiator_StartDevDisc, NLME_SetResponseRate
        LOCFRAME ISTACK, 0, STACK
        LOCFRAME PSTACK, 0, STACK
        LOCFRAME XSTACK, 17, STACK
        LOCFRAME IOVERLAY, 0, STATIC
        LOCFRAME DOVERLAY, 0, STATIC
        ARGFRAME ISTACK, 0, STACK
        ARGFRAME PSTACK, 0, STACK
        ARGFRAME XSTACK, 17, STACK
        ARGFRAME IOVERLAY, 0, STATIC
        ARGFRAME DOVERLAY, 0, STATIC
        FUNCALL touchLinkInitiator_StartDevDisc, ZMacGetReq
        LOCFRAME ISTACK, 0, STACK
        LOCFRAME PSTACK, 0, STACK
        LOCFRAME XSTACK, 17, STACK
        LOCFRAME IOVERLAY, 0, STATIC
        LOCFRAME DOVERLAY, 0, STATIC
        ARGFRAME ISTACK, 0, STACK
        ARGFRAME PSTACK, 0, STACK
        ARGFRAME XSTACK, 17, STACK
        ARGFRAME IOVERLAY, 0, STATIC
        ARGFRAME DOVERLAY, 0, STATIC
        FUNCALL touchLinkInitiator_StartDevDisc, ZMacSetReq
        LOCFRAME ISTACK, 0, STACK
        LOCFRAME PSTACK, 0, STACK
        LOCFRAME XSTACK, 17, STACK
        LOCFRAME IOVERLAY, 0, STATIC
        LOCFRAME DOVERLAY, 0, STATIC
        ARGFRAME ISTACK, 0, STACK
        ARGFRAME PSTACK, 0, STACK
        ARGFRAME XSTACK, 17, STACK
        ARGFRAME IOVERLAY, 0, STATIC
        ARGFRAME DOVERLAY, 0, STATIC
        FUNCALL touchLinkInitiator_StartDevDisc, initiatorSendScanReq
        LOCFRAME ISTACK, 0, STACK
        LOCFRAME PSTACK, 0, STACK
        LOCFRAME XSTACK, 17, STACK
        LOCFRAME IOVERLAY, 0, STATIC
        LOCFRAME DOVERLAY, 0, STATIC
        ARGFRAME ISTACK, 0, STACK
        ARGFRAME PSTACK, 0, STACK
        ARGFRAME XSTACK, 17, STACK
        ARGFRAME IOVERLAY, 0, STATIC
        ARGFRAME DOVERLAY, 0, STATIC
        REQUIRE ?V0
        REQUIRE ?V1
        REQUIRE ?V2
        REQUIRE ?V3
        REQUIRE ?V4
        REQUIRE ?V5
        REQUIRE ?V6
        REQUIRE ?V7
        MOV       A,#-0x10
        LCALL     ?BANKED_ENTER_XDATA
          CFI DPH0 load(1, XDATA, add(CFA_XSP16, literal(-1)))
          CFI DPL0 load(1, XDATA, add(CFA_XSP16, literal(-2)))
          CFI ?BRET_EXT load(1, XDATA, add(CFA_XSP16, literal(-3)))
          CFI ?RET_HIGH load(1, XDATA, add(CFA_XSP16, literal(-4)))
          CFI ?RET_LOW load(1, XDATA, add(CFA_XSP16, literal(-5)))
          CFI R7 load(1, XDATA, add(CFA_XSP16, literal(-6)))
          CFI V7 load(1, XDATA, add(CFA_XSP16, literal(-7)))
          CFI V6 load(1, XDATA, add(CFA_XSP16, literal(-8)))
          CFI V5 load(1, XDATA, add(CFA_XSP16, literal(-9)))
          CFI V4 load(1, XDATA, add(CFA_XSP16, literal(-10)))
          CFI V3 load(1, XDATA, add(CFA_XSP16, literal(-11)))
          CFI V2 load(1, XDATA, add(CFA_XSP16, literal(-12)))
          CFI V1 load(1, XDATA, add(CFA_XSP16, literal(-13)))
          CFI V0 load(1, XDATA, add(CFA_XSP16, literal(-14)))
          CFI VB load(1, XDATA, add(CFA_XSP16, literal(-15)))
          CFI R6 load(1, XDATA, add(CFA_XSP16, literal(-16)))
          CFI CFA_SP SP+0
          CFI CFA_XSP16 add(XSP16, 16)
        ; Saved register size: 16
        ; Auto size: 1
        MOV       A,#-0x1
        LCALL     ?ALLOC_XSTACK8
          CFI CFA_XSP16 add(XSP16, 17)
//  319   osal_clear_event( ZDAppTaskID, ZDO_NETWORK_INIT ); // in case orphaned rejoin was called
        ; Setup parameters for call to function osal_clear_event
        MOV       R2,#0x1
        MOV       R3,#0x0
        MOV       DPTR,#ZDAppTaskID
        MOVX      A,@DPTR
        MOV       R1,A
        LCALL     `??osal_clear_event::?relay`; Banked call to: osal_clear_event
//  320   ZDApp_StopJoiningCycle();
        ; Setup parameters for call to function ZDApp_StopJoiningCycle
        LCALL     `??ZDApp_StopJoiningCycle::?relay`; Banked call to: ZDApp_StopJoiningCycle
//  321 
//  322   //abort any touchlink in progress and start the new dev discovery.
//  323   touchLinkInitiator_AbortTL();
        ; Setup parameters for call to function touchLinkInitiator_AbortTL
        LCALL     `??touchLinkInitiator_AbortTL::?relay`; Banked call to: touchLinkInitiator_AbortTL
//  324 
//  325   // To perform device discovery, switch to channel 11 and broadcast five
//  326   // consecutive inter-PAN Scan Requests. Then switch to each remaining
//  327   // TOUCHLINK channels in turn (i.e., 15, 20, and 25) and broadcast a single
//  328   // inter-PAN Scan Request on each channel.
//  329   if ( !osal_get_timeoutEx( touchLinkInitiator_TaskID, TOUCHLINK_TL_SCAN_BASE_EVT ) )
        ; Setup parameters for call to function osal_get_timeoutEx
        LCALL     ?Subroutine7 & 0xFFFF
??CrossCallReturnLabel_161:
        JZ        $+5
        LJMP      ??touchLinkInitiator_StartDevDisc_0 & 0xFFFF
//  330   {
//  331     uint8 x = TRUE;
        MOV       DPL,?XSP + 0
        MOV       DPH,?XSP + 1
        MOV       A,#0x1
        MOVX      @DPTR,A
//  332 
//  333     // Generate a new Transaction Id
//  334     touchLinkTransID = ( ( (uint32)osal_rand() ) << 16 ) + osal_rand();
        ; Setup parameters for call to function osal_rand
        LCALL     ?Subroutine33 & 0xFFFF
??CrossCallReturnLabel_34:
        MOV       A,#0x10
        MOV       R0,#?V4
        LCALL     ?L_SHL
        ; Setup parameters for call to function osal_rand
        LCALL     `??osal_rand::?relay`; Banked call to: osal_rand
        MOV       ?V0,R2
        MOV       ?V1,R3
        CLR       A
        MOV       ?V2,A
        MOV       ?V3,A
        MOV       R0,#?V4
        MOV       R1,#?V0
        LCALL     ?L_ADD
        MOV       DPTR,#touchLinkTransID
        MOV       R0,#?V4
        LCALL     ?L_MOV_TO_X
//  335     osal_start_timerEx( touchLinkInitiator_TaskID, TOUCHLINK_TRANS_LIFETIME_EXPIRED_EVT,
//  336                         BDBCTL_INTER_PAN_TRANS_ID_LIFETIME );
        ; Setup parameters for call to function osal_start_timerEx
        MOV       DPTR,#__Constant_1f40
        LCALL     ?PUSH_XSTACK8_X_FOUR
          CFI CFA_XSP16 add(XSP16, 21)
        LCALL     ?Subroutine6 & 0xFFFF
??CrossCallReturnLabel_112:
        LCALL     ?DEALLOC_XSTACK8
          CFI CFA_XSP16 add(XSP16, 17)
//  337 
//  338     if ( bdbAttributes.bdbNodeIsOnANetwork == TRUE )
        MOV       DPTR,#bdbAttributes + 14
        MOVX      A,@DPTR
        XRL       A,#0x1
        JNZ       ??touchLinkInitiator_StartDevDisc_1
//  339     {
//  340       // Turn off polling during touch-link procedure
//  341       savedPollRate = zgPollRate;
        MOV       DPTR,#zgPollRate
        MOV       R0,#?V0
        LCALL     ?L_MOV_X
        MOV       DPTR,#savedPollRate
        MOV       A,?V0
        MOVX      @DPTR,A
        INC       DPTR
        MOV       A,?V1
        MOVX      @DPTR,A
//  342       savedQueuedPollRate = zgQueuedPollRate;
        MOV       DPTR,#zgQueuedPollRate
        LCALL     ??Subroutine63_0 & 0xFFFF
??CrossCallReturnLabel_132:
        MOV       DPTR,#savedQueuedPollRate
        LCALL     ??Subroutine49_0 & 0xFFFF
//  343       savedResponsePollRate = zgResponsePollRate;
??CrossCallReturnLabel_85:
        MOV       DPTR,#zgResponsePollRate
        LCALL     ??Subroutine63_0 & 0xFFFF
??CrossCallReturnLabel_133:
        MOV       DPTR,#savedResponsePollRate
        LCALL     ??Subroutine49_0 & 0xFFFF
//  344 
//  345       NLME_SetPollRate( 0 );
??CrossCallReturnLabel_86:
        ; Setup parameters for call to function NLME_SetPollRate
        MOV       DPTR,#__Constant_0
        LCALL     ?XLOAD_R2345
        LCALL     `??NLME_SetPollRate::?relay`; Banked call to: NLME_SetPollRate
//  346       NLME_SetQueuedPollRate( 0 );
        ; Setup parameters for call to function NLME_SetQueuedPollRate
        MOV       R2,#0x0
        MOV       R3,#0x0
        LCALL     `??NLME_SetQueuedPollRate::?relay`; Banked call to: NLME_SetQueuedPollRate
//  347       NLME_SetResponseRate( 0 );
        ; Setup parameters for call to function NLME_SetResponseRate
        MOV       R2,#0x0
        MOV       R3,#0x0
        LCALL     `??NLME_SetResponseRate::?relay`; Banked call to: NLME_SetResponseRate
//  348     }
//  349 
//  350     // Remember current rx state
//  351     ZMacGetReq( ZMacRxOnIdle, &savedRxOnIdle );
??touchLinkInitiator_StartDevDisc_1:
        ; Setup parameters for call to function ZMacGetReq
        MOV       R2,#savedRxOnIdle & 0xff
        MOV       R3,#(savedRxOnIdle >> 8) & 0xff
        MOV       R1,#0x52
        LCALL     `??ZMacGetReq::?relay`; Banked call to: ZMacGetReq
//  352 
//  353     // MAC receiver should be on during touch-link procedure
//  354     ZMacSetReq( ZMacRxOnIdle, &x );
        ; Setup parameters for call to function ZMacSetReq
        MOV       R2,?XSP + 0
        MOV       R3,?XSP + 1
        MOV       R1,#0x52
        LCALL     `??ZMacSetReq::?relay`; Banked call to: ZMacSetReq
//  355 
//  356     scanReqChannels = TOUCHLINK_SCAN_PRIMARY_CHANNELS;
        MOV       DPTR,#scanReqChannels
        MOV       A,#0x1
        MOVX      @DPTR,A
//  357     numScanReqSent = 0;
        MOV       DPTR,#numScanReqSent
        CLR       A
        MOVX      @DPTR,A
//  358 
//  359     // Send out the first Scan Request
//  360     initiatorSendScanReq( TRUE );
        ; Setup parameters for call to function initiatorSendScanReq
        MOV       R1,#0x1
        LCALL     `??initiatorSendScanReq::?relay`; Banked call to: initiatorSendScanReq
//  361 
//  362     return ( ZSuccess );
        MOV       R1,#0x0
        SJMP      ??touchLinkInitiator_StartDevDisc_2
//  363   }
//  364 
//  365   return ( ZFailure );
??touchLinkInitiator_StartDevDisc_0:
        MOV       R1,#0x1
??touchLinkInitiator_StartDevDisc_2:
        MOV       A,#0x1
        LJMP      ?Subroutine1 & 0xFFFF
//  366 }
          CFI EndBlock cfiBlock3
//  367 
//  368 /*********************************************************************
//  369  * @fn      bdbTL_Send_IndentifyReq
//  370  *
//  371  * @brief   Call to send out a scan request for factory new procedure
//  372  *
//  373  * @param   
//  374  *
//  375  * @return 
//  376  */

        RSEG BANKED_CODE:HUGECODE:NOROOT(0)
//  377 void touchLinkInitiator_ResetToFNProcedure( void )
touchLinkInitiator_ResetToFNProcedure:
          CFI Block cfiBlock4 Using cfiCommon0
          CFI Function touchLinkInitiator_ResetToFNProcedure
        CODE
//  378 {
        FUNCALL touchLinkInitiator_ResetToFNProcedure, osal_get_timeoutEx
        LOCFRAME ISTACK, 2, STACK
        LOCFRAME PSTACK, 0, STACK
        LOCFRAME XSTACK, 0, STACK
        LOCFRAME IOVERLAY, 0, STATIC
        LOCFRAME DOVERLAY, 0, STATIC
        ARGFRAME ISTACK, 2, STACK
        ARGFRAME PSTACK, 0, STACK
        ARGFRAME XSTACK, 0, STACK
        ARGFRAME IOVERLAY, 0, STATIC
        ARGFRAME DOVERLAY, 0, STATIC
        FUNCALL touchLinkInitiator_ResetToFNProcedure, touchLinkInitiator_StartDevDisc
        LOCFRAME ISTACK, 2, STACK
        LOCFRAME PSTACK, 0, STACK
        LOCFRAME XSTACK, 0, STACK
        LOCFRAME IOVERLAY, 0, STATIC
        LOCFRAME DOVERLAY, 0, STATIC
        ARGFRAME ISTACK, 2, STACK
        ARGFRAME PSTACK, 0, STACK
        ARGFRAME XSTACK, 0, STACK
        ARGFRAME IOVERLAY, 0, STATIC
        ARGFRAME DOVERLAY, 0, STATIC
        PUSH      DPL
          CFI DPL0 Frame(CFA_SP, 4)
          CFI CFA_SP SP+-4
        PUSH      DPH
          CFI DPH0 Frame(CFA_SP, 5)
          CFI CFA_SP SP+-5
        ; Saved register size: 2
        ; Auto size: 0
//  379   if ( ( bdbCommissioningProcedureState.bdbCommissioningState == 0 ) || ( osal_get_timeoutEx( bdb_TaskID,BDB_CHANGE_COMMISSIONING_STATE ) == 0 ) )
        MOV       DPTR,#bdbCommissioningProcedureState
        MOVX      A,@DPTR
        JZ        ??touchLinkInitiator_ResetToFNProcedure_0
        ; Setup parameters for call to function osal_get_timeoutEx
        MOV       R2,#0x4
        MOV       R3,#0x0
        MOV       DPTR,#bdb_TaskID
        LCALL     ??Subroutine67_0 & 0xFFFF
??CrossCallReturnLabel_168:
        JNZ       ??touchLinkInitiator_ResetToFNProcedure_1
//  380   {
//  381     touchlinkFNReset = TRUE;
??touchLinkInitiator_ResetToFNProcedure_0:
        MOV       DPTR,#touchlinkFNReset
        MOV       A,#0x1
        MOVX      @DPTR,A
//  382     touchLinkInitiator_StartDevDisc( );
        ; Setup parameters for call to function touchLinkInitiator_StartDevDisc
        LCALL     `??touchLinkInitiator_StartDevDisc::?relay`; Banked call to: touchLinkInitiator_StartDevDisc
//  383   }
//  384 }
??touchLinkInitiator_ResetToFNProcedure_1:
        SJMP      ??Subroutine46_0
          CFI EndBlock cfiBlock4
//  385 
//  386 /*********************************************************************
//  387  * @fn      touchLinkInitiator_AbortTL
//  388  *
//  389  * @brief   Abort Touch-link device discovery.
//  390  *          Successful execution could be done before Network Start/Join
//  391  *          commands are sent. Until then, since no device parameters
//  392  *          such as network settings are altered, the Touch-Link is
//  393  *          still reversible.
//  394  *
//  395  * @param   none
//  396  *
//  397  * @return  status
//  398  */

        RSEG BANKED_CODE:HUGECODE:NOROOT(0)
//  399 ZStatus_t touchLinkInitiator_AbortTL( void )
touchLinkInitiator_AbortTL:
          CFI Block cfiBlock5 Using cfiCommon0
          CFI Function touchLinkInitiator_AbortTL
        CODE
//  400 {
        FUNCALL touchLinkInitiator_AbortTL, osal_stop_timerEx
        LOCFRAME ISTACK, 2, STACK
        LOCFRAME PSTACK, 0, STACK
        LOCFRAME XSTACK, 0, STACK
        LOCFRAME IOVERLAY, 0, STATIC
        LOCFRAME DOVERLAY, 0, STATIC
        ARGFRAME ISTACK, 2, STACK
        ARGFRAME PSTACK, 0, STACK
        ARGFRAME XSTACK, 0, STACK
        ARGFRAME IOVERLAY, 0, STATIC
        ARGFRAME DOVERLAY, 0, STATIC
        FUNCALL touchLinkInitiator_AbortTL, osal_stop_timerEx
        LOCFRAME ISTACK, 2, STACK
        LOCFRAME PSTACK, 0, STACK
        LOCFRAME XSTACK, 0, STACK
        LOCFRAME IOVERLAY, 0, STATIC
        LOCFRAME DOVERLAY, 0, STATIC
        ARGFRAME ISTACK, 2, STACK
        ARGFRAME PSTACK, 0, STACK
        ARGFRAME XSTACK, 0, STACK
        ARGFRAME IOVERLAY, 0, STATIC
        ARGFRAME DOVERLAY, 0, STATIC
        FUNCALL touchLinkInitiator_AbortTL, osal_stop_timerEx
        LOCFRAME ISTACK, 2, STACK
        LOCFRAME PSTACK, 0, STACK
        LOCFRAME XSTACK, 0, STACK
        LOCFRAME IOVERLAY, 0, STATIC
        LOCFRAME DOVERLAY, 0, STATIC
        ARGFRAME ISTACK, 2, STACK
        ARGFRAME PSTACK, 0, STACK
        ARGFRAME XSTACK, 0, STACK
        ARGFRAME IOVERLAY, 0, STATIC
        ARGFRAME DOVERLAY, 0, STATIC
        FUNCALL touchLinkInitiator_AbortTL, osal_stop_timerEx
        LOCFRAME ISTACK, 2, STACK
        LOCFRAME PSTACK, 0, STACK
        LOCFRAME XSTACK, 0, STACK
        LOCFRAME IOVERLAY, 0, STATIC
        LOCFRAME DOVERLAY, 0, STATIC
        ARGFRAME ISTACK, 2, STACK
        ARGFRAME PSTACK, 0, STACK
        ARGFRAME XSTACK, 0, STACK
        ARGFRAME IOVERLAY, 0, STATIC
        ARGFRAME DOVERLAY, 0, STATIC
        FUNCALL touchLinkInitiator_AbortTL, initiatorSetNwkToInitState
        LOCFRAME ISTACK, 2, STACK
        LOCFRAME PSTACK, 0, STACK
        LOCFRAME XSTACK, 0, STACK
        LOCFRAME IOVERLAY, 0, STATIC
        LOCFRAME DOVERLAY, 0, STATIC
        ARGFRAME ISTACK, 2, STACK
        ARGFRAME PSTACK, 0, STACK
        ARGFRAME XSTACK, 0, STACK
        ARGFRAME IOVERLAY, 0, STATIC
        ARGFRAME DOVERLAY, 0, STATIC
        FUNCALL touchLinkInitiator_AbortTL, initiatorClearSelectedTarget
        LOCFRAME ISTACK, 2, STACK
        LOCFRAME PSTACK, 0, STACK
        LOCFRAME XSTACK, 0, STACK
        LOCFRAME IOVERLAY, 0, STATIC
        LOCFRAME DOVERLAY, 0, STATIC
        ARGFRAME ISTACK, 2, STACK
        ARGFRAME PSTACK, 0, STACK
        ARGFRAME XSTACK, 0, STACK
        ARGFRAME IOVERLAY, 0, STATIC
        ARGFRAME DOVERLAY, 0, STATIC
        PUSH      DPL
          CFI DPL0 Frame(CFA_SP, 4)
          CFI CFA_SP SP+-4
        PUSH      DPH
          CFI DPH0 Frame(CFA_SP, 5)
          CFI CFA_SP SP+-5
        ; Saved register size: 2
        ; Auto size: 0
//  401   if ( ( osal_stop_timerEx( touchLinkInitiator_TaskID, TOUCHLINK_TL_SCAN_BASE_EVT ) == SUCCESS )
//  402        || ( osal_stop_timerEx( touchLinkInitiator_TaskID, TOUCHLINK_CFG_TARGET_EVT ) == SUCCESS )
//  403        || ( osal_stop_timerEx( touchLinkInitiator_TaskID, TOUCHLINK_W4_NWK_START_RSP_EVT ) == SUCCESS )
//  404        || ( osal_stop_timerEx( touchLinkInitiator_TaskID, TOUCHLINK_W4_NWK_JOIN_RSP_EVT ) == SUCCESS ) )
        ; Setup parameters for call to function osal_stop_timerEx
        MOV       R2,#0x20
        LCALL     ?Subroutine16 & 0xFFFF
??CrossCallReturnLabel_71:
        JZ        ??touchLinkInitiator_AbortTL_0
        ; Setup parameters for call to function osal_stop_timerEx
        MOV       R2,#0x40
        LCALL     ?Subroutine16 & 0xFFFF
??CrossCallReturnLabel_72:
        JZ        ??touchLinkInitiator_AbortTL_0
        ; Setup parameters for call to function osal_stop_timerEx
        MOV       R2,#-0x80
        LCALL     ?Subroutine16 & 0xFFFF
??CrossCallReturnLabel_73:
        JZ        ??touchLinkInitiator_AbortTL_0
        ; Setup parameters for call to function osal_stop_timerEx
        MOV       R2,#0x0
        MOV       R3,#0x1
        LCALL     ??Subroutine44_0 & 0xFFFF
??CrossCallReturnLabel_74:
        JNZ       ??touchLinkInitiator_AbortTL_1
//  405   {
//  406     initiatorSetNwkToInitState();
??touchLinkInitiator_AbortTL_0:
        ; Setup parameters for call to function initiatorSetNwkToInitState
        LCALL     `??initiatorSetNwkToInitState::?relay`; Banked call to: initiatorSetNwkToInitState
//  407     touchLinkTransID = 0;
        MOV       DPTR,#touchLinkTransID
        CLR       A
        MOVX      @DPTR,A
        INC       DPTR
        MOVX      @DPTR,A
        INC       DPTR
        MOVX      @DPTR,A
        INC       DPTR
        LCALL     ?Subroutine29 & 0xFFFF
//  408     numScanReqSent = 0;
//  409     initiatorClearSelectedTarget();
//  410     selectedTargetNwkAddr = 0;
??CrossCallReturnLabel_28:
        MOV       DPTR,#selectedTargetNwkAddr
        CLR       A
        MOVX      @DPTR,A
        INC       DPTR
        MOVX      @DPTR,A
//  411 
//  412     return ( ZSuccess );
        MOV       R1,A
        SJMP      ??touchLinkInitiator_AbortTL_2
//  413   }
//  414 
//  415   return ( ZFailure );
??touchLinkInitiator_AbortTL_1:
        MOV       R1,#0x1
??touchLinkInitiator_AbortTL_2:
        SJMP      ??Subroutine46_0
//  416 }
          CFI EndBlock cfiBlock5

        RSEG BANKED_CODE:HUGECODE:NOROOT(0)
?Subroutine16:
          CFI Block cfiCond6 Using cfiCommon0
          CFI Function touchLinkInitiator_AbortTL
          CFI Conditional ??CrossCallReturnLabel_71
          CFI DPL0 Frame(CFA_SP, 4)
          CFI DPH0 Frame(CFA_SP, 5)
          CFI CFA_SP SP+-7
          CFI Block cfiCond7 Using cfiCommon0
          CFI (cfiCond7) Function touchLinkInitiator_AbortTL
          CFI (cfiCond7) Conditional ??CrossCallReturnLabel_72
          CFI (cfiCond7) DPL0 Frame(CFA_SP, 4)
          CFI (cfiCond7) DPH0 Frame(CFA_SP, 5)
          CFI (cfiCond7) CFA_SP SP+-7
          CFI Block cfiCond8 Using cfiCommon0
          CFI (cfiCond8) Function touchLinkInitiator_AbortTL
          CFI (cfiCond8) Conditional ??CrossCallReturnLabel_73
          CFI (cfiCond8) DPL0 Frame(CFA_SP, 4)
          CFI (cfiCond8) DPH0 Frame(CFA_SP, 5)
          CFI (cfiCond8) CFA_SP SP+-7
          CFI Block cfiPicker9 Using cfiCommon1
          CFI (cfiPicker9) NoFunction
          CFI (cfiPicker9) Picker
        MOV       R3,#0x0
          CFI EndBlock cfiCond6
          CFI EndBlock cfiCond7
          CFI EndBlock cfiCond8
          CFI EndBlock cfiPicker9
        REQUIRE ??Subroutine44_0
        ; // Fall through to label ??Subroutine44_0

        RSEG BANKED_CODE:HUGECODE:NOROOT(0)
??Subroutine44_0:
          CFI Block cfiCond10 Using cfiCommon0
          CFI Function touchLinkInitiator_AbortTL
          CFI Conditional ??CrossCallReturnLabel_74
          CFI DPL0 Frame(CFA_SP, 4)
          CFI DPH0 Frame(CFA_SP, 5)
          CFI CFA_SP SP+-7
          CFI Block cfiCond11 Using cfiCommon0
          CFI (cfiCond11) Function touchLinkInitiator_AbortTL
          CFI (cfiCond11) Conditional ??CrossCallReturnLabel_71
          CFI (cfiCond11) DPL0 Frame(CFA_SP, 4)
          CFI (cfiCond11) DPH0 Frame(CFA_SP, 5)
          CFI (cfiCond11) CFA_SP SP+-7
          CFI Block cfiCond12 Using cfiCommon0
          CFI (cfiCond12) Function touchLinkInitiator_AbortTL
          CFI (cfiCond12) Conditional ??CrossCallReturnLabel_72
          CFI (cfiCond12) DPL0 Frame(CFA_SP, 4)
          CFI (cfiCond12) DPH0 Frame(CFA_SP, 5)
          CFI (cfiCond12) CFA_SP SP+-7
          CFI Block cfiCond13 Using cfiCommon0
          CFI (cfiCond13) Function touchLinkInitiator_AbortTL
          CFI (cfiCond13) Conditional ??CrossCallReturnLabel_73
          CFI (cfiCond13) DPL0 Frame(CFA_SP, 4)
          CFI (cfiCond13) DPH0 Frame(CFA_SP, 5)
          CFI (cfiCond13) CFA_SP SP+-7
          CFI Block cfiPicker14 Using cfiCommon1
          CFI (cfiPicker14) NoFunction
          CFI (cfiPicker14) Picker
        MOV       DPTR,#touchLinkInitiator_TaskID
        MOVX      A,@DPTR
        MOV       R1,A
        LCALL     `??osal_stop_timerEx::?relay`; Banked call to: osal_stop_timerEx
        MOV       A,R1
        RET
          CFI EndBlock cfiCond10
          CFI EndBlock cfiCond11
          CFI EndBlock cfiCond12
          CFI EndBlock cfiCond13
          CFI EndBlock cfiPicker14

        RSEG BANKED_CODE:HUGECODE:NOROOT(0)
?Subroutine0:
          CFI Block cfiBlock15 Using cfiCommon0
          CFI NoFunction
          CFI CFA_SP SP+-5
          CFI DPL0 Frame(CFA_SP, 4)
          CFI DPH0 Frame(CFA_SP, 5)
        MOV       A,R2
        MOVX      @DPTR,A
        INC       DPTR
        MOV       A,R3
          CFI EndBlock cfiBlock15
        REQUIRE ??Subroutine45_0
        ; // Fall through to label ??Subroutine45_0

        RSEG BANKED_CODE:HUGECODE:NOROOT(0)
??Subroutine45_0:
          CFI Block cfiBlock16 Using cfiCommon0
          CFI NoFunction
          CFI CFA_SP SP+-5
          CFI DPL0 Frame(CFA_SP, 4)
          CFI DPH0 Frame(CFA_SP, 5)
        MOVX      @DPTR,A
          CFI EndBlock cfiBlock16
        REQUIRE ??Subroutine46_0
        ; // Fall through to label ??Subroutine46_0

        RSEG BANKED_CODE:HUGECODE:NOROOT(0)
??Subroutine46_0:
          CFI Block cfiBlock17 Using cfiCommon0
          CFI NoFunction
          CFI CFA_SP SP+-5
          CFI DPL0 Frame(CFA_SP, 4)
          CFI DPH0 Frame(CFA_SP, 5)
        POP       DPH
          CFI CFA_SP SP+-4
          CFI DPH0 SameValue
        POP       DPL
          CFI CFA_SP SP+-3
          CFI DPL0 SameValue
        LJMP      ?BRET
          CFI EndBlock cfiBlock17
//  417 
//  418 /*********************************************************************
//  419  * @fn          touchLinkInitiator_Init
//  420  *
//  421  * @brief       Initialization function for the TOUCHLINK Initiator task.
//  422  *
//  423  * @param       task_id - TOUCHLINK Initiator task id
//  424  *
//  425  * @return      none
//  426  */

        RSEG BANKED_CODE:HUGECODE:NOROOT(0)
//  427 void touchLinkInitiator_Init( uint8 task_id )
touchLinkInitiator_Init:
          CFI Block cfiBlock18 Using cfiCommon0
          CFI Function touchLinkInitiator_Init
        CODE
//  428 {
        FUNCALL touchLinkInitiator_Init, touchLink_SetTouchLinkTaskId
        LOCFRAME ISTACK, 0, STACK
        LOCFRAME PSTACK, 0, STACK
        LOCFRAME XSTACK, 9, STACK
        LOCFRAME IOVERLAY, 0, STATIC
        LOCFRAME DOVERLAY, 0, STATIC
        ARGFRAME ISTACK, 0, STACK
        ARGFRAME PSTACK, 0, STACK
        ARGFRAME XSTACK, 9, STACK
        ARGFRAME IOVERLAY, 0, STATIC
        ARGFRAME DOVERLAY, 0, STATIC
        FUNCALL touchLinkInitiator_Init, touchLink_InitVariables
        LOCFRAME ISTACK, 0, STACK
        LOCFRAME PSTACK, 0, STACK
        LOCFRAME XSTACK, 9, STACK
        LOCFRAME IOVERLAY, 0, STATIC
        LOCFRAME DOVERLAY, 0, STATIC
        ARGFRAME ISTACK, 0, STACK
        ARGFRAME PSTACK, 0, STACK
        ARGFRAME XSTACK, 9, STACK
        ARGFRAME IOVERLAY, 0, STATIC
        ARGFRAME DOVERLAY, 0, STATIC
        FUNCALL touchLinkInitiator_Init, initiatorClearSelectedTarget
        LOCFRAME ISTACK, 0, STACK
        LOCFRAME PSTACK, 0, STACK
        LOCFRAME XSTACK, 9, STACK
        LOCFRAME IOVERLAY, 0, STATIC
        LOCFRAME DOVERLAY, 0, STATIC
        ARGFRAME ISTACK, 0, STACK
        ARGFRAME PSTACK, 0, STACK
        ARGFRAME XSTACK, 9, STACK
        ARGFRAME IOVERLAY, 0, STATIC
        ARGFRAME DOVERLAY, 0, STATIC
        FUNCALL touchLinkInitiator_Init, zcl_registerForMsg
        LOCFRAME ISTACK, 0, STACK
        LOCFRAME PSTACK, 0, STACK
        LOCFRAME XSTACK, 9, STACK
        LOCFRAME IOVERLAY, 0, STATIC
        LOCFRAME DOVERLAY, 0, STATIC
        ARGFRAME ISTACK, 0, STACK
        ARGFRAME PSTACK, 0, STACK
        ARGFRAME XSTACK, 9, STACK
        ARGFRAME IOVERLAY, 0, STATIC
        ARGFRAME DOVERLAY, 0, STATIC
        FUNCALL touchLinkInitiator_Init, bdbTL_RegisterInterPANCmdCallbacks
        LOCFRAME ISTACK, 0, STACK
        LOCFRAME PSTACK, 0, STACK
        LOCFRAME XSTACK, 9, STACK
        LOCFRAME IOVERLAY, 0, STATIC
        LOCFRAME DOVERLAY, 0, STATIC
        ARGFRAME ISTACK, 0, STACK
        ARGFRAME PSTACK, 0, STACK
        ARGFRAME XSTACK, 9, STACK
        ARGFRAME IOVERLAY, 0, STATIC
        ARGFRAME DOVERLAY, 0, STATIC
        FUNCALL touchLinkInitiator_Init, ZDO_RegisterForZdoCB
        LOCFRAME ISTACK, 0, STACK
        LOCFRAME PSTACK, 0, STACK
        LOCFRAME XSTACK, 9, STACK
        LOCFRAME IOVERLAY, 0, STATIC
        LOCFRAME DOVERLAY, 0, STATIC
        ARGFRAME ISTACK, 0, STACK
        ARGFRAME PSTACK, 0, STACK
        ARGFRAME XSTACK, 9, STACK
        ARGFRAME IOVERLAY, 0, STATIC
        ARGFRAME DOVERLAY, 0, STATIC
        FUNCALL touchLinkInitiator_Init, ZDO_RegisterForZDOMsg
        LOCFRAME ISTACK, 0, STACK
        LOCFRAME PSTACK, 0, STACK
        LOCFRAME XSTACK, 9, STACK
        LOCFRAME IOVERLAY, 0, STATIC
        LOCFRAME DOVERLAY, 0, STATIC
        ARGFRAME ISTACK, 0, STACK
        ARGFRAME PSTACK, 0, STACK
        ARGFRAME XSTACK, 9, STACK
        ARGFRAME IOVERLAY, 0, STATIC
        ARGFRAME DOVERLAY, 0, STATIC
        FUNCALL touchLinkInitiator_Init, ZDO_RegisterForZDOMsg
        LOCFRAME ISTACK, 0, STACK
        LOCFRAME PSTACK, 0, STACK
        LOCFRAME XSTACK, 9, STACK
        LOCFRAME IOVERLAY, 0, STATIC
        LOCFRAME DOVERLAY, 0, STATIC
        ARGFRAME ISTACK, 0, STACK
        ARGFRAME PSTACK, 0, STACK
        ARGFRAME XSTACK, 9, STACK
        ARGFRAME IOVERLAY, 0, STATIC
        ARGFRAME DOVERLAY, 0, STATIC
        MOV       A,#-0x9
        LCALL     ?BANKED_ENTER_XDATA
          CFI DPH0 load(1, XDATA, add(CFA_XSP16, literal(-1)))
          CFI DPL0 load(1, XDATA, add(CFA_XSP16, literal(-2)))
          CFI ?BRET_EXT load(1, XDATA, add(CFA_XSP16, literal(-3)))
          CFI ?RET_HIGH load(1, XDATA, add(CFA_XSP16, literal(-4)))
          CFI ?RET_LOW load(1, XDATA, add(CFA_XSP16, literal(-5)))
          CFI R7 load(1, XDATA, add(CFA_XSP16, literal(-6)))
          CFI V0 load(1, XDATA, add(CFA_XSP16, literal(-7)))
          CFI VB load(1, XDATA, add(CFA_XSP16, literal(-8)))
          CFI R6 load(1, XDATA, add(CFA_XSP16, literal(-9)))
          CFI CFA_SP SP+0
          CFI CFA_XSP16 add(XSP16, 9)
        ; Saved register size: 9
        ; Auto size: 0
        MOV       A,R1
//  429   // Save our own Task ID
//  430   touchLinkInitiator_TaskID = task_id;
        MOV       DPTR,#touchLinkInitiator_TaskID
        MOVX      @DPTR,A
//  431 
//  432   touchLink_SetTouchLinkTaskId( touchLinkInitiator_TaskID );
        ; Setup parameters for call to function touchLink_SetTouchLinkTaskId
        LCALL     `??touchLink_SetTouchLinkTaskId::?relay`; Banked call to: touchLink_SetTouchLinkTaskId
//  433 
//  434 
//  435   // Build a broadcast address for the Scan Request
//  436   bcastAddr.addrMode = afAddrBroadcast;
        MOV       DPTR,#bcastAddr + 8
        MOV       A,#0xf
        MOVX      @DPTR,A
//  437   bcastAddr.addr.shortAddr = NWK_BROADCAST_SHORTADDR_DEVALL;
        MOV       DPTR,#bcastAddr
        MOV       A,#-0x1
        MOVX      @DPTR,A
        INC       DPTR
        MOVX      @DPTR,A
//  438   bcastAddr.panId = 0xFFFF;
        MOV       DPTR,#bcastAddr + 10
        MOVX      @DPTR,A
        INC       DPTR
        MOVX      @DPTR,A
//  439   bcastAddr.endPoint = STUBAPS_INTER_PAN_EP;
        MOV       DPTR,#bcastAddr + 9
        DEC       A
        MOVX      @DPTR,A
//  440 
//  441   // Initialize TOUCHLINK common variables
//  442   touchLink_InitVariables( TRUE );
        ; Setup parameters for call to function touchLink_InitVariables
        MOV       R1,#0x1
        LCALL     `??touchLink_InitVariables::?relay`; Banked call to: touchLink_InitVariables
//  443 
//  444   savedPollRate = POLL_RATE;
        MOV       DPTR,#savedPollRate
        MOV       A,#-0x18
        MOVX      @DPTR,A
        INC       DPTR
        MOV       A,#0x3
        MOVX      @DPTR,A
//  445   savedQueuedPollRate = QUEUED_POLL_RATE;
        MOV       DPTR,#savedQueuedPollRate
        MOV       A,#0x64
        MOVX      @DPTR,A
        INC       DPTR
        CLR       A
        MOVX      @DPTR,A
//  446   savedResponsePollRate = RESPONSE_POLL_RATE;
        MOV       DPTR,#savedResponsePollRate
        MOV       A,#0x64
        MOVX      @DPTR,A
        INC       DPTR
        CLR       A
        LCALL     ?Subroutine29 & 0xFFFF
//  447 
//  448   numScanReqSent = 0;
//  449   initiatorClearSelectedTarget();
//  450   scanReqChannels = TOUCHLINK_SCAN_PRIMARY_CHANNELS;
??CrossCallReturnLabel_29:
        MOV       DPTR,#scanReqChannels
        MOV       A,#0x1
        MOVX      @DPTR,A
//  451 
//  452   initiatorSeqNum = 0;
        MOV       DPTR,#initiatorSeqNum
        CLR       A
        MOVX      @DPTR,A
//  453 
//  454   // Register to receive the unprocessed Foundation command/response messages
//  455   zcl_registerForMsg( touchLinkInitiator_TaskID );
        ; Setup parameters for call to function zcl_registerForMsg
        MOV       DPTR,#touchLinkInitiator_TaskID
        MOVX      A,@DPTR
        MOV       R1,A
        LCALL     `??zcl_registerForMsg::?relay`; Banked call to: zcl_registerForMsg
//  456 
//  457   // Register for TOUCHLINK Initiator callbacks (for Inter-PAN commands)
//  458   bdbTL_RegisterInterPANCmdCallbacks( &touchLinkInitiator_CmdCBs );
        ; Setup parameters for call to function bdbTL_RegisterInterPANCmdCallbacks
        MOV       R2,#touchLinkInitiator_CmdCBs & 0xff
        MOV       R3,#(touchLinkInitiator_CmdCBs >> 8) & 0xff
        LCALL     `??bdbTL_RegisterInterPANCmdCallbacks::?relay`; Banked call to: bdbTL_RegisterInterPANCmdCallbacks
//  459 
//  460   // Register for Initiator to receive Leave Confirm
//  461   ZDO_RegisterForZdoCB( ZDO_LEAVE_CNF_CBID, initiatorZdoLeaveCnfCB );
        ; Setup parameters for call to function ZDO_RegisterForZdoCB
        MOV       R2,#`??initiatorZdoLeaveCnfCB::?relay` & 0xff
        MOV       R3,#(`??initiatorZdoLeaveCnfCB::?relay` >> 8) & 0xff
        MOV       R1,#0x5
        LCALL     `??ZDO_RegisterForZdoCB::?relay`; Banked call to: ZDO_RegisterForZdoCB
//  462 
//  463 #if (ZSTACK_ROUTER_BUILD)
//  464   // Register to process ZDO messages
//  465   ZDO_RegisterForZDOMsg( touchLinkInitiator_TaskID, Mgmt_Permit_Join_req );
        ; Setup parameters for call to function ZDO_RegisterForZDOMsg
        MOV       R2,#0x36
        MOV       R3,#0x0
        MOV       DPTR,#touchLinkInitiator_TaskID
        MOVX      A,@DPTR
        MOV       R1,A
        LCALL     `??ZDO_RegisterForZDOMsg::?relay`; Banked call to: ZDO_RegisterForZDOMsg
//  466   ZDO_RegisterForZDOMsg( touchLinkInitiator_TaskID, Device_annce );
        ; Setup parameters for call to function ZDO_RegisterForZDOMsg
        MOV       R2,#0x13
        MOV       R3,#0x0
        MOV       DPTR,#touchLinkInitiator_TaskID
        MOVX      A,@DPTR
        MOV       R1,A
        LCALL     `??ZDO_RegisterForZDOMsg::?relay`; Banked call to: ZDO_RegisterForZDOMsg
//  467 #endif
//  468 
//  469 }
        LJMP      ??Subroutine54_0 & 0xFFFF
          CFI EndBlock cfiBlock18

        RSEG BANKED_CODE:HUGECODE:NOROOT(0)
?Subroutine29:
          CFI Block cfiCond19 Using cfiCommon0
          CFI Function touchLinkInitiator_AbortTL
          CFI Conditional ??CrossCallReturnLabel_28
          CFI DPL0 Frame(CFA_SP, 4)
          CFI DPH0 Frame(CFA_SP, 5)
          CFI CFA_SP SP+-7
          CFI Block cfiCond20 Using cfiCommon0
          CFI (cfiCond20) Function touchLinkInitiator_Init
          CFI (cfiCond20) Conditional ??CrossCallReturnLabel_29
          CFI (cfiCond20) R6 load(1, XDATA, add(CFA_XSP16, literal(-9)))
          CFI (cfiCond20) VB load(1, XDATA, add(CFA_XSP16, literal(-8)))
          CFI (cfiCond20) V0 load(1, XDATA, add(CFA_XSP16, literal(-7)))
          CFI (cfiCond20) R7 load(1, XDATA, add(CFA_XSP16, literal(-6)))
          CFI (cfiCond20) ?RET_LOW load(1, XDATA, add(CFA_XSP16, literal(-5)))
          CFI (cfiCond20) ?RET_HIGH load(1, XDATA, add(CFA_XSP16, literal(-4)))
          CFI (cfiCond20) ?BRET_EXT load(1, XDATA, add(CFA_XSP16, literal(-3)))
          CFI (cfiCond20) DPL0 load(1, XDATA, add(CFA_XSP16, literal(-2)))
          CFI (cfiCond20) DPH0 load(1, XDATA, add(CFA_XSP16, literal(-1)))
          CFI (cfiCond20) CFA_SP SP+-2
          CFI (cfiCond20) CFA_XSP16 add(XSP16, 9)
          CFI Block cfiPicker21 Using cfiCommon1
          CFI (cfiPicker21) NoFunction
          CFI (cfiPicker21) Picker
        MOVX      @DPTR,A
        MOV       DPTR,#numScanReqSent
        MOVX      @DPTR,A
        ; Setup parameters for call to function initiatorClearSelectedTarget
        ; Setup parameters for call to function initiatorClearSelectedTarget
        LCALL     `??initiatorClearSelectedTarget::?relay`; Banked call to: initiatorClearSelectedTarget
        RET
          CFI EndBlock cfiCond19
          CFI EndBlock cfiCond20
          CFI EndBlock cfiPicker21
//  470 
//  471 /*********************************************************************
//  472  * @fn      initiatorSelectNwkParams
//  473  *
//  474  * @brief   Select a unique PAN ID and Extended PAN ID when compared to
//  475  *          the PAN IDs and Extended PAN IDs of the networks detected
//  476  *          on the TOUCHLINK channels. The selected Extended PAN ID must be
//  477  *          a random number (and not equal to our IEEE address).
//  478  *
//  479  * @param   void
//  480  *
//  481  * @return  void
//  482  */

        RSEG BANKED_CODE:HUGECODE:NOROOT(0)
//  483 void initiatorSelectNwkParams( void )
initiatorSelectNwkParams:
          CFI Block cfiBlock22 Using cfiCommon0
          CFI Function initiatorSelectNwkParams
        CODE
//  484 {
        FUNCALL initiatorSelectNwkParams, touchLink_GetNumGrpIDs
        LOCFRAME ISTACK, 2, STACK
        LOCFRAME PSTACK, 0, STACK
        LOCFRAME XSTACK, 0, STACK
        LOCFRAME IOVERLAY, 0, STATIC
        LOCFRAME DOVERLAY, 0, STATIC
        ARGFRAME ISTACK, 2, STACK
        ARGFRAME PSTACK, 0, STACK
        ARGFRAME XSTACK, 0, STACK
        ARGFRAME IOVERLAY, 0, STATIC
        ARGFRAME DOVERLAY, 0, STATIC
        FUNCALL initiatorSelectNwkParams, touchLink_PopGrpIDRange
        LOCFRAME ISTACK, 2, STACK
        LOCFRAME PSTACK, 0, STACK
        LOCFRAME XSTACK, 0, STACK
        LOCFRAME IOVERLAY, 0, STATIC
        LOCFRAME DOVERLAY, 0, STATIC
        ARGFRAME ISTACK, 2, STACK
        ARGFRAME PSTACK, 0, STACK
        ARGFRAME XSTACK, 0, STACK
        ARGFRAME IOVERLAY, 0, STATIC
        ARGFRAME DOVERLAY, 0, STATIC
        FUNCALL initiatorSelectNwkParams, touchLink_GenerateRandNum
        LOCFRAME ISTACK, 2, STACK
        LOCFRAME PSTACK, 0, STACK
        LOCFRAME XSTACK, 0, STACK
        LOCFRAME IOVERLAY, 0, STATIC
        LOCFRAME DOVERLAY, 0, STATIC
        ARGFRAME ISTACK, 2, STACK
        ARGFRAME PSTACK, 0, STACK
        ARGFRAME XSTACK, 0, STACK
        ARGFRAME IOVERLAY, 0, STATIC
        ARGFRAME DOVERLAY, 0, STATIC
        FUNCALL initiatorSelectNwkParams, osal_rand
        LOCFRAME ISTACK, 2, STACK
        LOCFRAME PSTACK, 0, STACK
        LOCFRAME XSTACK, 0, STACK
        LOCFRAME IOVERLAY, 0, STATIC
        LOCFRAME DOVERLAY, 0, STATIC
        ARGFRAME ISTACK, 2, STACK
        ARGFRAME PSTACK, 0, STACK
        ARGFRAME XSTACK, 0, STACK
        ARGFRAME IOVERLAY, 0, STATIC
        ARGFRAME DOVERLAY, 0, STATIC
        FUNCALL initiatorSelectNwkParams, touchLink_GetRandPrimaryChannel
        LOCFRAME ISTACK, 2, STACK
        LOCFRAME PSTACK, 0, STACK
        LOCFRAME XSTACK, 0, STACK
        LOCFRAME IOVERLAY, 0, STATIC
        LOCFRAME DOVERLAY, 0, STATIC
        ARGFRAME ISTACK, 2, STACK
        ARGFRAME PSTACK, 0, STACK
        ARGFRAME XSTACK, 0, STACK
        ARGFRAME IOVERLAY, 0, STATIC
        ARGFRAME DOVERLAY, 0, STATIC
        FUNCALL initiatorSelectNwkParams, touchLink_PopNwkAddress
        LOCFRAME ISTACK, 2, STACK
        LOCFRAME PSTACK, 0, STACK
        LOCFRAME XSTACK, 0, STACK
        LOCFRAME IOVERLAY, 0, STATIC
        LOCFRAME DOVERLAY, 0, STATIC
        ARGFRAME ISTACK, 2, STACK
        ARGFRAME PSTACK, 0, STACK
        ARGFRAME XSTACK, 0, STACK
        ARGFRAME IOVERLAY, 0, STATIC
        ARGFRAME DOVERLAY, 0, STATIC
        FUNCALL initiatorSelectNwkParams, touchLink_SetMacNwkParams
        LOCFRAME ISTACK, 2, STACK
        LOCFRAME PSTACK, 0, STACK
        LOCFRAME XSTACK, 0, STACK
        LOCFRAME IOVERLAY, 0, STATIC
        LOCFRAME DOVERLAY, 0, STATIC
        ARGFRAME ISTACK, 2, STACK
        ARGFRAME PSTACK, 0, STACK
        ARGFRAME XSTACK, 0, STACK
        ARGFRAME IOVERLAY, 0, STATIC
        ARGFRAME DOVERLAY, 0, STATIC
        PUSH      DPL
          CFI DPL0 Frame(CFA_SP, 4)
          CFI CFA_SP SP+-4
        PUSH      DPH
          CFI DPH0 Frame(CFA_SP, 5)
          CFI CFA_SP SP+-5
        ; Saved register size: 2
        ; Auto size: 0
//  485   // Set our group ID range
//  486   touchLink_PopGrpIDRange( touchLink_GetNumGrpIDs(), &touchLinkGrpIDsBegin, &touchLinkGrpIDsEnd );
        ; Setup parameters for call to function touchLink_GetNumGrpIDs
        LCALL     `??touchLink_GetNumGrpIDs::?relay`; Banked call to: touchLink_GetNumGrpIDs
        MOV       A,R1
        MOV       R1,A
        ; Setup parameters for call to function touchLink_PopGrpIDRange
        MOV       R4,#touchLinkGrpIDsEnd & 0xff
        MOV       R5,#(touchLinkGrpIDsEnd >> 8) & 0xff
        MOV       R2,#touchLinkGrpIDsBegin & 0xff
        MOV       R3,#(touchLinkGrpIDsBegin >> 8) & 0xff
        LCALL     `??touchLink_PopGrpIDRange::?relay`; Banked call to: touchLink_PopGrpIDRange
//  487 
//  488   // Select a random Extended PAN ID
//  489   touchLink_GenerateRandNum( _NIB.extendedPANID, Z_EXTADDR_LEN );
        ; Setup parameters for call to function touchLink_GenerateRandNum
        MOV       R1,#0x8
        MOV       R2,#(_NIB + 53) & 0xff
        MOV       R3,#((_NIB + 53) >> 8) & 0xff
        LCALL     `??touchLink_GenerateRandNum::?relay`; Banked call to: touchLink_GenerateRandNum
//  490 
//  491   // Select a random PAN ID
//  492   _NIB.nwkPanId = osal_rand();
        ; Setup parameters for call to function osal_rand
        LCALL     `??osal_rand::?relay`; Banked call to: osal_rand
        MOV       DPTR,#_NIB + 33
        LCALL     ?Subroutine26 & 0xFFFF
//  493 
//  494   if ( _NIB.nwkLogicalChannel == 0 )
??CrossCallReturnLabel_76:
        MOV       DPTR,#_NIB + 22
        MOVX      A,@DPTR
        JNZ       ??initiatorSelectNwkParams_0
//  495   {
//  496     if (TOUCHLINK_FIXED_CHANNEL_ENABLE == TRUE )
//  497     {
//  498       // Use the fixed channel defined in bdb_interface
//  499       _NIB.nwkLogicalChannel = TOUCHLINK_FIXED_CHANNEL;
//  500     }
//  501     else
//  502     {
//  503       // Select randomly one of the TouchLink channels as our logical channel
//  504       _NIB.nwkLogicalChannel = touchLink_GetRandPrimaryChannel( );
        ; Setup parameters for call to function touchLink_GetRandPrimaryChannel
        LCALL     `??touchLink_GetRandPrimaryChannel::?relay`; Banked call to: touchLink_GetRandPrimaryChannel
        MOV       A,R1
        MOV       DPTR,#_NIB + 22
        MOVX      @DPTR,A
//  505     }
//  506   }
//  507   
//  508   selectedTargetNwkAddr = 0;
??initiatorSelectNwkParams_0:
        MOV       DPTR,#selectedTargetNwkAddr
        CLR       A
        MOVX      @DPTR,A
        INC       DPTR
        MOVX      @DPTR,A
//  509 
//  510   if ( devState != DEV_INIT )
        MOV       DPTR,#devState
        MOVX      A,@DPTR
        XRL       A,#0x1
        JZ        ??CrossCallReturnLabel_77
//  511   {
//  512     // Let's assume we're the first initiator
//  513     _NIB.nwkDevAddress = touchLink_PopNwkAddress();
        ; Setup parameters for call to function touchLink_PopNwkAddress
        LCALL     `??touchLink_PopNwkAddress::?relay`; Banked call to: touchLink_PopNwkAddress
        MOV       DPTR,#_NIB + 20
        LCALL     ?Subroutine26 & 0xFFFF
//  514   }
//  515 
//  516   // Configure MAC with our network parameters
//  517   touchLink_SetMacNwkParams( _NIB.nwkDevAddress, _NIB.nwkPanId, _NIB.nwkLogicalChannel );
??CrossCallReturnLabel_77:
        ; Setup parameters for call to function touchLink_SetMacNwkParams
        LCALL     ?Subroutine9 & 0xFFFF
//  518 }
??CrossCallReturnLabel_0:
        LJMP      ??Subroutine46_0 & 0xFFFF
          CFI EndBlock cfiBlock22
//  519 
//  520 /*********************************************************************
//  521  * @fn      touchLinkInitiator_RegisterForMsg
//  522  *
//  523  * @brief   Register application task to receive unprocessed messages
//  524  *          received by the initiator endpoint.
//  525  *
//  526  * @param   taskId - task Id of the Application where commands will be sent to
//  527  *
//  528  * @return  ZSuccess if task registration successful
//  529  *********************************************************************/

        RSEG BANKED_CODE:HUGECODE:NOROOT(0)
//  530 ZStatus_t touchLinkInitiator_RegisterForMsg( uint8 taskId )
touchLinkInitiator_RegisterForMsg:
          CFI Block cfiBlock23 Using cfiCommon0
          CFI Function touchLinkInitiator_RegisterForMsg
        CODE
//  531 {
        PUSH      DPL
          CFI DPL0 Frame(CFA_SP, 4)
          CFI CFA_SP SP+-4
        PUSH      DPH
          CFI DPH0 Frame(CFA_SP, 5)
          CFI CFA_SP SP+-5
        ; Saved register size: 2
        ; Auto size: 0
//  532   if ( initiatorRegisteredMsgAppTaskID == TASK_NO_TASK )
        MOV       DPTR,#initiatorRegisteredMsgAppTaskID
        MOVX      A,@DPTR
        CPL       A
        JNZ       ??touchLinkInitiator_RegisterForMsg_0
//  533   {
//  534     initiatorRegisteredMsgAppTaskID = taskId;
        MOV       A,R1
        MOVX      @DPTR,A
//  535     return ( ZSuccess );
        MOV       R1,#0x0
        SJMP      ??touchLinkInitiator_RegisterForMsg_1
//  536   }
//  537   return ( ZFailure );
??touchLinkInitiator_RegisterForMsg_0:
        MOV       R1,#0x1
??touchLinkInitiator_RegisterForMsg_1:
        LJMP      ??Subroutine46_0 & 0xFFFF
//  538 }
          CFI EndBlock cfiBlock23
//  539 
//  540 /*********************************************************************
//  541  * @fn          touchLinkInitiator_event_loop
//  542  *
//  543  * @brief       Event Loop Processor for TOUCHLINK Initiator.
//  544  *
//  545  * @param       task_id - task id
//  546  * @param       events - event bitmap
//  547  *
//  548  * @return      unprocessed events
//  549  */

        RSEG BANKED_CODE:HUGECODE:NOROOT(0)
//  550 uint16 touchLinkInitiator_event_loop( uint8 task_id, uint16 events )
touchLinkInitiator_event_loop:
          CFI Block cfiBlock24 Using cfiCommon0
          CFI Function touchLinkInitiator_event_loop
        CODE
//  551 {
        FUNCALL touchLinkInitiator_event_loop, osal_msg_receive
        LOCFRAME ISTACK, 0, STACK
        LOCFRAME PSTACK, 0, STACK
        LOCFRAME XSTACK, 75, STACK
        LOCFRAME IOVERLAY, 0, STATIC
        LOCFRAME DOVERLAY, 0, STATIC
        ARGFRAME ISTACK, 0, STACK
        ARGFRAME PSTACK, 0, STACK
        ARGFRAME XSTACK, 75, STACK
        ARGFRAME IOVERLAY, 0, STATIC
        ARGFRAME DOVERLAY, 0, STATIC
        FUNCALL touchLinkInitiator_event_loop, touchLink_RouterProcessZDOMsg
        LOCFRAME ISTACK, 0, STACK
        LOCFRAME PSTACK, 0, STACK
        LOCFRAME XSTACK, 75, STACK
        LOCFRAME IOVERLAY, 0, STATIC
        LOCFRAME DOVERLAY, 0, STATIC
        ARGFRAME ISTACK, 0, STACK
        ARGFRAME PSTACK, 0, STACK
        ARGFRAME XSTACK, 75, STACK
        ARGFRAME IOVERLAY, 0, STATIC
        ARGFRAME DOVERLAY, 0, STATIC
        FUNCALL touchLinkInitiator_event_loop, osal_msg_deallocate
        LOCFRAME ISTACK, 0, STACK
        LOCFRAME PSTACK, 0, STACK
        LOCFRAME XSTACK, 75, STACK
        LOCFRAME IOVERLAY, 0, STATIC
        LOCFRAME DOVERLAY, 0, STATIC
        ARGFRAME ISTACK, 0, STACK
        ARGFRAME PSTACK, 0, STACK
        ARGFRAME XSTACK, 75, STACK
        ARGFRAME IOVERLAY, 0, STATIC
        ARGFRAME DOVERLAY, 0, STATIC
        FUNCALL touchLinkInitiator_event_loop, initiatorProcessStateChange
        LOCFRAME ISTACK, 0, STACK
        LOCFRAME PSTACK, 0, STACK
        LOCFRAME XSTACK, 75, STACK
        LOCFRAME IOVERLAY, 0, STATIC
        LOCFRAME DOVERLAY, 0, STATIC
        ARGFRAME ISTACK, 0, STACK
        ARGFRAME PSTACK, 0, STACK
        ARGFRAME XSTACK, 75, STACK
        ARGFRAME IOVERLAY, 0, STATIC
        ARGFRAME DOVERLAY, 0, STATIC
        FUNCALL touchLinkInitiator_event_loop, osal_msg_send
        LOCFRAME ISTACK, 0, STACK
        LOCFRAME PSTACK, 0, STACK
        LOCFRAME XSTACK, 75, STACK
        LOCFRAME IOVERLAY, 0, STATIC
        LOCFRAME DOVERLAY, 0, STATIC
        ARGFRAME ISTACK, 0, STACK
        ARGFRAME PSTACK, 0, STACK
        ARGFRAME XSTACK, 75, STACK
        ARGFRAME IOVERLAY, 0, STATIC
        ARGFRAME DOVERLAY, 0, STATIC
        FUNCALL touchLinkInitiator_event_loop, initiatorSendScanReq
        LOCFRAME ISTACK, 0, STACK
        LOCFRAME PSTACK, 0, STACK
        LOCFRAME XSTACK, 75, STACK
        LOCFRAME IOVERLAY, 0, STATIC
        LOCFRAME DOVERLAY, 0, STATIC
        ARGFRAME ISTACK, 0, STACK
        ARGFRAME PSTACK, 0, STACK
        ARGFRAME XSTACK, 75, STACK
        ARGFRAME IOVERLAY, 0, STATIC
        ARGFRAME DOVERLAY, 0, STATIC
        FUNCALL touchLinkInitiator_event_loop, initiatorSendScanReq
        LOCFRAME ISTACK, 0, STACK
        LOCFRAME PSTACK, 0, STACK
        LOCFRAME XSTACK, 75, STACK
        LOCFRAME IOVERLAY, 0, STATIC
        LOCFRAME DOVERLAY, 0, STATIC
        ARGFRAME ISTACK, 0, STACK
        ARGFRAME PSTACK, 0, STACK
        ARGFRAME XSTACK, 75, STACK
        ARGFRAME IOVERLAY, 0, STATIC
        ARGFRAME DOVERLAY, 0, STATIC
        FUNCALL touchLinkInitiator_event_loop, touchLink_SetChannel
        LOCFRAME ISTACK, 0, STACK
        LOCFRAME PSTACK, 0, STACK
        LOCFRAME XSTACK, 75, STACK
        LOCFRAME IOVERLAY, 0, STATIC
        LOCFRAME DOVERLAY, 0, STATIC
        ARGFRAME ISTACK, 0, STACK
        ARGFRAME PSTACK, 0, STACK
        ARGFRAME XSTACK, 75, STACK
        ARGFRAME IOVERLAY, 0, STATIC
        ARGFRAME DOVERLAY, 0, STATIC
        FUNCALL touchLinkInitiator_event_loop, osal_set_event
        LOCFRAME ISTACK, 0, STACK
        LOCFRAME PSTACK, 0, STACK
        LOCFRAME XSTACK, 75, STACK
        LOCFRAME IOVERLAY, 0, STATIC
        LOCFRAME DOVERLAY, 0, STATIC
        ARGFRAME ISTACK, 0, STACK
        ARGFRAME PSTACK, 0, STACK
        ARGFRAME XSTACK, 75, STACK
        ARGFRAME IOVERLAY, 0, STATIC
        ARGFRAME DOVERLAY, 0, STATIC
        FUNCALL touchLinkInitiator_event_loop, bdbTL_Send_IndentifyReq
        LOCFRAME ISTACK, 0, STACK
        LOCFRAME PSTACK, 0, STACK
        LOCFRAME XSTACK, 76, STACK
        LOCFRAME IOVERLAY, 0, STATIC
        LOCFRAME DOVERLAY, 0, STATIC
        ARGFRAME ISTACK, 0, STACK
        ARGFRAME PSTACK, 0, STACK
        ARGFRAME XSTACK, 76, STACK
        ARGFRAME IOVERLAY, 0, STATIC
        ARGFRAME DOVERLAY, 0, STATIC
        FUNCALL touchLinkInitiator_event_loop, osal_set_event
        LOCFRAME ISTACK, 0, STACK
        LOCFRAME PSTACK, 0, STACK
        LOCFRAME XSTACK, 75, STACK
        LOCFRAME IOVERLAY, 0, STATIC
        LOCFRAME DOVERLAY, 0, STATIC
        ARGFRAME ISTACK, 0, STACK
        ARGFRAME PSTACK, 0, STACK
        ARGFRAME XSTACK, 75, STACK
        ARGFRAME IOVERLAY, 0, STATIC
        ARGFRAME DOVERLAY, 0, STATIC
        FUNCALL touchLinkInitiator_event_loop, osal_start_timerEx
        LOCFRAME ISTACK, 0, STACK
        LOCFRAME PSTACK, 0, STACK
        LOCFRAME XSTACK, 79, STACK
        LOCFRAME IOVERLAY, 0, STATIC
        LOCFRAME DOVERLAY, 0, STATIC
        ARGFRAME ISTACK, 0, STACK
        ARGFRAME PSTACK, 0, STACK
        ARGFRAME XSTACK, 79, STACK
        ARGFRAME IOVERLAY, 0, STATIC
        ARGFRAME DOVERLAY, 0, STATIC
        FUNCALL touchLinkInitiator_event_loop, osal_set_event
        LOCFRAME ISTACK, 0, STACK
        LOCFRAME PSTACK, 0, STACK
        LOCFRAME XSTACK, 75, STACK
        LOCFRAME IOVERLAY, 0, STATIC
        LOCFRAME DOVERLAY, 0, STATIC
        ARGFRAME ISTACK, 0, STACK
        ARGFRAME PSTACK, 0, STACK
        ARGFRAME XSTACK, 75, STACK
        ARGFRAME IOVERLAY, 0, STATIC
        ARGFRAME DOVERLAY, 0, STATIC
        FUNCALL touchLinkInitiator_event_loop, bdb_reportCommissioningState
        LOCFRAME ISTACK, 0, STACK
        LOCFRAME PSTACK, 0, STACK
        LOCFRAME XSTACK, 75, STACK
        LOCFRAME IOVERLAY, 0, STATIC
        LOCFRAME DOVERLAY, 0, STATIC
        ARGFRAME ISTACK, 0, STACK
        ARGFRAME PSTACK, 0, STACK
        ARGFRAME XSTACK, 75, STACK
        ARGFRAME IOVERLAY, 0, STATIC
        ARGFRAME DOVERLAY, 0, STATIC
        FUNCALL touchLinkInitiator_event_loop, bdbTL_Send_IndentifyReq
        LOCFRAME ISTACK, 0, STACK
        LOCFRAME PSTACK, 0, STACK
        LOCFRAME XSTACK, 76, STACK
        LOCFRAME IOVERLAY, 0, STATIC
        LOCFRAME DOVERLAY, 0, STATIC
        ARGFRAME ISTACK, 0, STACK
        ARGFRAME PSTACK, 0, STACK
        ARGFRAME XSTACK, 76, STACK
        ARGFRAME IOVERLAY, 0, STATIC
        ARGFRAME DOVERLAY, 0, STATIC
        FUNCALL touchLinkInitiator_event_loop, sAddrExtCmp
        LOCFRAME ISTACK, 0, STACK
        LOCFRAME PSTACK, 0, STACK
        LOCFRAME XSTACK, 75, STACK
        LOCFRAME IOVERLAY, 0, STATIC
        LOCFRAME DOVERLAY, 0, STATIC
        ARGFRAME ISTACK, 0, STACK
        ARGFRAME PSTACK, 0, STACK
        ARGFRAME XSTACK, 75, STACK
        ARGFRAME IOVERLAY, 0, STATIC
        ARGFRAME DOVERLAY, 0, STATIC
        FUNCALL touchLinkInitiator_event_loop, APSME_GetRequest
        LOCFRAME ISTACK, 0, STACK
        LOCFRAME PSTACK, 0, STACK
        LOCFRAME XSTACK, 75, STACK
        LOCFRAME IOVERLAY, 0, STATIC
        LOCFRAME DOVERLAY, 0, STATIC
        ARGFRAME ISTACK, 0, STACK
        ARGFRAME PSTACK, 0, STACK
        ARGFRAME XSTACK, 75, STACK
        ARGFRAME IOVERLAY, 0, STATIC
        ARGFRAME DOVERLAY, 0, STATIC
        FUNCALL touchLinkInitiator_event_loop, sAddrExtCmp
        LOCFRAME ISTACK, 0, STACK
        LOCFRAME PSTACK, 0, STACK
        LOCFRAME XSTACK, 75, STACK
        LOCFRAME IOVERLAY, 0, STATIC
        LOCFRAME DOVERLAY, 0, STATIC
        ARGFRAME ISTACK, 0, STACK
        ARGFRAME PSTACK, 0, STACK
        ARGFRAME XSTACK, 75, STACK
        ARGFRAME IOVERLAY, 0, STATIC
        ARGFRAME DOVERLAY, 0, STATIC
        FUNCALL touchLinkInitiator_event_loop, bdb_reportCommissioningState
        LOCFRAME ISTACK, 0, STACK
        LOCFRAME PSTACK, 0, STACK
        LOCFRAME XSTACK, 75, STACK
        LOCFRAME IOVERLAY, 0, STATIC
        LOCFRAME DOVERLAY, 0, STATIC
        ARGFRAME ISTACK, 0, STACK
        ARGFRAME PSTACK, 0, STACK
        ARGFRAME XSTACK, 75, STACK
        ARGFRAME IOVERLAY, 0, STATIC
        ARGFRAME DOVERLAY, 0, STATIC
        FUNCALL touchLinkInitiator_event_loop, touchLink_IsValidSplitFreeRanges
        LOCFRAME ISTACK, 0, STACK
        LOCFRAME PSTACK, 0, STACK
        LOCFRAME XSTACK, 75, STACK
        LOCFRAME IOVERLAY, 0, STATIC
        LOCFRAME DOVERLAY, 0, STATIC
        ARGFRAME ISTACK, 0, STACK
        ARGFRAME PSTACK, 0, STACK
        ARGFRAME XSTACK, 75, STACK
        ARGFRAME IOVERLAY, 0, STATIC
        ARGFRAME DOVERLAY, 0, STATIC
        FUNCALL touchLinkInitiator_event_loop, bdb_reportCommissioningState
        LOCFRAME ISTACK, 0, STACK
        LOCFRAME PSTACK, 0, STACK
        LOCFRAME XSTACK, 75, STACK
        LOCFRAME IOVERLAY, 0, STATIC
        LOCFRAME DOVERLAY, 0, STATIC
        ARGFRAME ISTACK, 0, STACK
        ARGFRAME PSTACK, 0, STACK
        ARGFRAME XSTACK, 75, STACK
        ARGFRAME IOVERLAY, 0, STATIC
        ARGFRAME DOVERLAY, 0, STATIC
        FUNCALL touchLinkInitiator_event_loop, touchLinkInitiator_ResetToFNSelectedTarget
        LOCFRAME ISTACK, 0, STACK
        LOCFRAME PSTACK, 0, STACK
        LOCFRAME XSTACK, 75, STACK
        LOCFRAME IOVERLAY, 0, STATIC
        LOCFRAME DOVERLAY, 0, STATIC
        ARGFRAME ISTACK, 0, STACK
        ARGFRAME PSTACK, 0, STACK
        ARGFRAME XSTACK, 75, STACK
        ARGFRAME IOVERLAY, 0, STATIC
        ARGFRAME DOVERLAY, 0, STATIC
        FUNCALL touchLinkInitiator_event_loop, osal_set_event
        LOCFRAME ISTACK, 0, STACK
        LOCFRAME PSTACK, 0, STACK
        LOCFRAME XSTACK, 75, STACK
        LOCFRAME IOVERLAY, 0, STATIC
        LOCFRAME DOVERLAY, 0, STATIC
        ARGFRAME ISTACK, 0, STACK
        ARGFRAME PSTACK, 0, STACK
        ARGFRAME XSTACK, 75, STACK
        ARGFRAME IOVERLAY, 0, STATIC
        ARGFRAME DOVERLAY, 0, STATIC
        FUNCALL touchLinkInitiator_event_loop, osal_start_timerEx
        LOCFRAME ISTACK, 0, STACK
        LOCFRAME PSTACK, 0, STACK
        LOCFRAME XSTACK, 79, STACK
        LOCFRAME IOVERLAY, 0, STATIC
        LOCFRAME DOVERLAY, 0, STATIC
        ARGFRAME ISTACK, 0, STACK
        ARGFRAME PSTACK, 0, STACK
        ARGFRAME XSTACK, 79, STACK
        ARGFRAME IOVERLAY, 0, STATIC
        ARGFRAME DOVERLAY, 0, STATIC
        FUNCALL touchLinkInitiator_event_loop, touchLink_SetChannel
        LOCFRAME ISTACK, 0, STACK
        LOCFRAME PSTACK, 0, STACK
        LOCFRAME XSTACK, 75, STACK
        LOCFRAME IOVERLAY, 0, STATIC
        LOCFRAME DOVERLAY, 0, STATIC
        ARGFRAME ISTACK, 0, STACK
        ARGFRAME PSTACK, 0, STACK
        ARGFRAME XSTACK, 75, STACK
        ARGFRAME IOVERLAY, 0, STATIC
        ARGFRAME DOVERLAY, 0, STATIC
        FUNCALL touchLinkInitiator_event_loop, osal_set_event
        LOCFRAME ISTACK, 0, STACK
        LOCFRAME PSTACK, 0, STACK
        LOCFRAME XSTACK, 75, STACK
        LOCFRAME IOVERLAY, 0, STATIC
        LOCFRAME DOVERLAY, 0, STATIC
        ARGFRAME ISTACK, 0, STACK
        ARGFRAME PSTACK, 0, STACK
        ARGFRAME XSTACK, 75, STACK
        ARGFRAME IOVERLAY, 0, STATIC
        ARGFRAME DOVERLAY, 0, STATIC
        FUNCALL touchLinkInitiator_event_loop, nwk_setStateIdle
        LOCFRAME ISTACK, 0, STACK
        LOCFRAME PSTACK, 0, STACK
        LOCFRAME XSTACK, 75, STACK
        LOCFRAME IOVERLAY, 0, STATIC
        LOCFRAME DOVERLAY, 0, STATIC
        ARGFRAME ISTACK, 0, STACK
        ARGFRAME PSTACK, 0, STACK
        ARGFRAME XSTACK, 75, STACK
        ARGFRAME IOVERLAY, 0, STATIC
        ARGFRAME DOVERLAY, 0, STATIC
        FUNCALL touchLinkInitiator_event_loop, touchLink_ProcessNwkUpdate
        LOCFRAME ISTACK, 0, STACK
        LOCFRAME PSTACK, 0, STACK
        LOCFRAME XSTACK, 75, STACK
        LOCFRAME IOVERLAY, 0, STATIC
        LOCFRAME DOVERLAY, 0, STATIC
        ARGFRAME ISTACK, 0, STACK
        ARGFRAME PSTACK, 0, STACK
        ARGFRAME XSTACK, 75, STACK
        ARGFRAME IOVERLAY, 0, STATIC
        ARGFRAME DOVERLAY, 0, STATIC
        FUNCALL touchLinkInitiator_event_loop, osal_mem_alloc
        LOCFRAME ISTACK, 0, STACK
        LOCFRAME PSTACK, 0, STACK
        LOCFRAME XSTACK, 75, STACK
        LOCFRAME IOVERLAY, 0, STATIC
        LOCFRAME DOVERLAY, 0, STATIC
        ARGFRAME ISTACK, 0, STACK
        ARGFRAME PSTACK, 0, STACK
        ARGFRAME XSTACK, 75, STACK
        ARGFRAME IOVERLAY, 0, STATIC
        ARGFRAME DOVERLAY, 0, STATIC
        FUNCALL touchLinkInitiator_event_loop, sAddrExtCpy
        LOCFRAME ISTACK, 0, STACK
        LOCFRAME PSTACK, 0, STACK
        LOCFRAME XSTACK, 75, STACK
        LOCFRAME IOVERLAY, 0, STATIC
        LOCFRAME DOVERLAY, 0, STATIC
        ARGFRAME ISTACK, 0, STACK
        ARGFRAME PSTACK, 0, STACK
        ARGFRAME XSTACK, 75, STACK
        ARGFRAME IOVERLAY, 0, STATIC
        ARGFRAME DOVERLAY, 0, STATIC
        FUNCALL touchLinkInitiator_event_loop, bdbTL_Send_NwkUpdateReq
        LOCFRAME ISTACK, 0, STACK
        LOCFRAME PSTACK, 0, STACK
        LOCFRAME XSTACK, 76, STACK
        LOCFRAME IOVERLAY, 0, STATIC
        LOCFRAME DOVERLAY, 0, STATIC
        ARGFRAME ISTACK, 0, STACK
        ARGFRAME PSTACK, 0, STACK
        ARGFRAME XSTACK, 76, STACK
        ARGFRAME IOVERLAY, 0, STATIC
        ARGFRAME DOVERLAY, 0, STATIC
        FUNCALL touchLinkInitiator_event_loop, osal_mem_free
        LOCFRAME ISTACK, 0, STACK
        LOCFRAME PSTACK, 0, STACK
        LOCFRAME XSTACK, 75, STACK
        LOCFRAME IOVERLAY, 0, STATIC
        LOCFRAME DOVERLAY, 0, STATIC
        ARGFRAME ISTACK, 0, STACK
        ARGFRAME PSTACK, 0, STACK
        ARGFRAME XSTACK, 75, STACK
        ARGFRAME IOVERLAY, 0, STATIC
        ARGFRAME DOVERLAY, 0, STATIC
        FUNCALL touchLinkInitiator_event_loop, osal_set_event
        LOCFRAME ISTACK, 0, STACK
        LOCFRAME PSTACK, 0, STACK
        LOCFRAME XSTACK, 75, STACK
        LOCFRAME IOVERLAY, 0, STATIC
        LOCFRAME DOVERLAY, 0, STATIC
        ARGFRAME ISTACK, 0, STACK
        ARGFRAME PSTACK, 0, STACK
        ARGFRAME XSTACK, 75, STACK
        ARGFRAME IOVERLAY, 0, STATIC
        ARGFRAME DOVERLAY, 0, STATIC
        FUNCALL touchLinkInitiator_event_loop, bdb_reportCommissioningState
        LOCFRAME ISTACK, 0, STACK
        LOCFRAME PSTACK, 0, STACK
        LOCFRAME XSTACK, 75, STACK
        LOCFRAME IOVERLAY, 0, STATIC
        LOCFRAME DOVERLAY, 0, STATIC
        ARGFRAME ISTACK, 0, STACK
        ARGFRAME PSTACK, 0, STACK
        ARGFRAME XSTACK, 75, STACK
        ARGFRAME IOVERLAY, 0, STATIC
        ARGFRAME DOVERLAY, 0, STATIC
        FUNCALL touchLinkInitiator_event_loop, bdb_reportCommissioningState
        LOCFRAME ISTACK, 0, STACK
        LOCFRAME PSTACK, 0, STACK
        LOCFRAME XSTACK, 75, STACK
        LOCFRAME IOVERLAY, 0, STATIC
        LOCFRAME DOVERLAY, 0, STATIC
        ARGFRAME ISTACK, 0, STACK
        ARGFRAME PSTACK, 0, STACK
        ARGFRAME XSTACK, 75, STACK
        ARGFRAME IOVERLAY, 0, STATIC
        ARGFRAME DOVERLAY, 0, STATIC
        FUNCALL touchLinkInitiator_event_loop, nwk_ExtPANIDValid
        LOCFRAME ISTACK, 0, STACK
        LOCFRAME PSTACK, 0, STACK
        LOCFRAME XSTACK, 75, STACK
        LOCFRAME IOVERLAY, 0, STATIC
        LOCFRAME DOVERLAY, 0, STATIC
        ARGFRAME ISTACK, 0, STACK
        ARGFRAME PSTACK, 0, STACK
        ARGFRAME XSTACK, 75, STACK
        ARGFRAME IOVERLAY, 0, STATIC
        ARGFRAME DOVERLAY, 0, STATIC
        FUNCALL touchLinkInitiator_event_loop, touchLink_IsValidTransID
        LOCFRAME ISTACK, 0, STACK
        LOCFRAME PSTACK, 0, STACK
        LOCFRAME XSTACK, 75, STACK
        LOCFRAME IOVERLAY, 0, STATIC
        LOCFRAME DOVERLAY, 0, STATIC
        ARGFRAME ISTACK, 0, STACK
        ARGFRAME PSTACK, 0, STACK
        ARGFRAME XSTACK, 75, STACK
        ARGFRAME IOVERLAY, 0, STATIC
        ARGFRAME DOVERLAY, 0, STATIC
        FUNCALL touchLinkInitiator_event_loop, touchLink_SetNIB
        LOCFRAME ISTACK, 0, STACK
        LOCFRAME PSTACK, 0, STACK
        LOCFRAME XSTACK, 79, STACK
        LOCFRAME IOVERLAY, 0, STATIC
        LOCFRAME DOVERLAY, 0, STATIC
        ARGFRAME ISTACK, 0, STACK
        ARGFRAME PSTACK, 0, STACK
        ARGFRAME XSTACK, 79, STACK
        ARGFRAME IOVERLAY, 0, STATIC
        ARGFRAME DOVERLAY, 0, STATIC
        FUNCALL touchLinkInitiator_event_loop, touchLink_DecryptNwkKey
        LOCFRAME ISTACK, 0, STACK
        LOCFRAME PSTACK, 0, STACK
        LOCFRAME XSTACK, 83, STACK
        LOCFRAME IOVERLAY, 0, STATIC
        LOCFRAME DOVERLAY, 0, STATIC
        ARGFRAME ISTACK, 0, STACK
        ARGFRAME PSTACK, 0, STACK
        ARGFRAME XSTACK, 83, STACK
        ARGFRAME IOVERLAY, 0, STATIC
        ARGFRAME DOVERLAY, 0, STATIC
        FUNCALL touchLinkInitiator_event_loop, ZDSecMgrUpdateTCAddress
        LOCFRAME ISTACK, 0, STACK
        LOCFRAME PSTACK, 0, STACK
        LOCFRAME XSTACK, 75, STACK
        LOCFRAME IOVERLAY, 0, STATIC
        LOCFRAME DOVERLAY, 0, STATIC
        ARGFRAME ISTACK, 0, STACK
        ARGFRAME PSTACK, 0, STACK
        ARGFRAME XSTACK, 75, STACK
        ARGFRAME IOVERLAY, 0, STATIC
        ARGFRAME DOVERLAY, 0, STATIC
        FUNCALL touchLinkInitiator_event_loop, osal_set_event
        LOCFRAME ISTACK, 0, STACK
        LOCFRAME PSTACK, 0, STACK
        LOCFRAME XSTACK, 75, STACK
        LOCFRAME IOVERLAY, 0, STATIC
        LOCFRAME DOVERLAY, 0, STATIC
        ARGFRAME ISTACK, 0, STACK
        ARGFRAME PSTACK, 0, STACK
        ARGFRAME XSTACK, 75, STACK
        ARGFRAME IOVERLAY, 0, STATIC
        ARGFRAME DOVERLAY, 0, STATIC
        FUNCALL touchLinkInitiator_event_loop, osal_start_timerEx
        LOCFRAME ISTACK, 0, STACK
        LOCFRAME PSTACK, 0, STACK
        LOCFRAME XSTACK, 79, STACK
        LOCFRAME IOVERLAY, 0, STATIC
        LOCFRAME DOVERLAY, 0, STATIC
        ARGFRAME ISTACK, 0, STACK
        ARGFRAME PSTACK, 0, STACK
        ARGFRAME XSTACK, 79, STACK
        ARGFRAME IOVERLAY, 0, STATIC
        ARGFRAME DOVERLAY, 0, STATIC
        FUNCALL touchLinkInitiator_event_loop, bdb_reportCommissioningState
        LOCFRAME ISTACK, 0, STACK
        LOCFRAME PSTACK, 0, STACK
        LOCFRAME XSTACK, 75, STACK
        LOCFRAME IOVERLAY, 0, STATIC
        LOCFRAME DOVERLAY, 0, STATIC
        ARGFRAME ISTACK, 0, STACK
        ARGFRAME PSTACK, 0, STACK
        ARGFRAME XSTACK, 75, STACK
        ARGFRAME IOVERLAY, 0, STATIC
        ARGFRAME DOVERLAY, 0, STATIC
        FUNCALL touchLinkInitiator_event_loop, osal_memcpy
        LOCFRAME ISTACK, 0, STACK
        LOCFRAME PSTACK, 0, STACK
        LOCFRAME XSTACK, 78, STACK
        LOCFRAME IOVERLAY, 0, STATIC
        LOCFRAME DOVERLAY, 0, STATIC
        ARGFRAME ISTACK, 0, STACK
        ARGFRAME PSTACK, 0, STACK
        ARGFRAME XSTACK, 78, STACK
        ARGFRAME IOVERLAY, 0, STATIC
        ARGFRAME DOVERLAY, 0, STATIC
        FUNCALL touchLinkInitiator_event_loop, touchLink_DevRejoin
        LOCFRAME ISTACK, 0, STACK
        LOCFRAME PSTACK, 0, STACK
        LOCFRAME XSTACK, 75, STACK
        LOCFRAME IOVERLAY, 0, STATIC
        LOCFRAME DOVERLAY, 0, STATIC
        ARGFRAME ISTACK, 0, STACK
        ARGFRAME PSTACK, 0, STACK
        ARGFRAME XSTACK, 75, STACK
        ARGFRAME IOVERLAY, 0, STATIC
        ARGFRAME DOVERLAY, 0, STATIC
        FUNCALL touchLinkInitiator_event_loop, osal_start_timerEx
        LOCFRAME ISTACK, 0, STACK
        LOCFRAME PSTACK, 0, STACK
        LOCFRAME XSTACK, 79, STACK
        LOCFRAME IOVERLAY, 0, STATIC
        LOCFRAME DOVERLAY, 0, STATIC
        ARGFRAME ISTACK, 0, STACK
        ARGFRAME PSTACK, 0, STACK
        ARGFRAME XSTACK, 79, STACK
        ARGFRAME IOVERLAY, 0, STATIC
        ARGFRAME DOVERLAY, 0, STATIC
        FUNCALL touchLinkInitiator_event_loop, sAddrExtCpy
        LOCFRAME ISTACK, 0, STACK
        LOCFRAME PSTACK, 0, STACK
        LOCFRAME XSTACK, 75, STACK
        LOCFRAME IOVERLAY, 0, STATIC
        LOCFRAME DOVERLAY, 0, STATIC
        ARGFRAME ISTACK, 0, STACK
        ARGFRAME PSTACK, 0, STACK
        ARGFRAME XSTACK, 75, STACK
        ARGFRAME IOVERLAY, 0, STATIC
        ARGFRAME DOVERLAY, 0, STATIC
        FUNCALL touchLinkInitiator_event_loop, AddrMgrEntryUpdate
        LOCFRAME ISTACK, 0, STACK
        LOCFRAME PSTACK, 0, STACK
        LOCFRAME XSTACK, 75, STACK
        LOCFRAME IOVERLAY, 0, STATIC
        LOCFRAME DOVERLAY, 0, STATIC
        ARGFRAME ISTACK, 0, STACK
        ARGFRAME PSTACK, 0, STACK
        ARGFRAME XSTACK, 75, STACK
        ARGFRAME IOVERLAY, 0, STATIC
        ARGFRAME DOVERLAY, 0, STATIC
        FUNCALL touchLinkInitiator_event_loop, osal_start_timerEx
        LOCFRAME ISTACK, 0, STACK
        LOCFRAME PSTACK, 0, STACK
        LOCFRAME XSTACK, 79, STACK
        LOCFRAME IOVERLAY, 0, STATIC
        LOCFRAME DOVERLAY, 0, STATIC
        ARGFRAME ISTACK, 0, STACK
        ARGFRAME PSTACK, 0, STACK
        ARGFRAME XSTACK, 79, STACK
        ARGFRAME IOVERLAY, 0, STATIC
        ARGFRAME DOVERLAY, 0, STATIC
        FUNCALL touchLinkInitiator_event_loop, initiatorSetNwkToInitState
        LOCFRAME ISTACK, 0, STACK
        LOCFRAME PSTACK, 0, STACK
        LOCFRAME XSTACK, 75, STACK
        LOCFRAME IOVERLAY, 0, STATIC
        LOCFRAME DOVERLAY, 0, STATIC
        ARGFRAME ISTACK, 0, STACK
        ARGFRAME PSTACK, 0, STACK
        ARGFRAME XSTACK, 75, STACK
        ARGFRAME IOVERLAY, 0, STATIC
        ARGFRAME DOVERLAY, 0, STATIC
        FUNCALL touchLinkInitiator_event_loop, touchLink_UpdateNV
        LOCFRAME ISTACK, 0, STACK
        LOCFRAME PSTACK, 0, STACK
        LOCFRAME XSTACK, 75, STACK
        LOCFRAME IOVERLAY, 0, STATIC
        LOCFRAME DOVERLAY, 0, STATIC
        ARGFRAME ISTACK, 0, STACK
        ARGFRAME PSTACK, 0, STACK
        ARGFRAME XSTACK, 75, STACK
        ARGFRAME IOVERLAY, 0, STATIC
        ARGFRAME DOVERLAY, 0, STATIC
        FUNCALL touchLinkInitiator_event_loop, touchLink_SendLeaveReq
        LOCFRAME ISTACK, 0, STACK
        LOCFRAME PSTACK, 0, STACK
        LOCFRAME XSTACK, 75, STACK
        LOCFRAME IOVERLAY, 0, STATIC
        LOCFRAME DOVERLAY, 0, STATIC
        ARGFRAME ISTACK, 0, STACK
        ARGFRAME PSTACK, 0, STACK
        ARGFRAME XSTACK, 75, STACK
        ARGFRAME IOVERLAY, 0, STATIC
        ARGFRAME DOVERLAY, 0, STATIC
        FUNCALL touchLinkInitiator_event_loop, bdb_reportCommissioningState
        LOCFRAME ISTACK, 0, STACK
        LOCFRAME PSTACK, 0, STACK
        LOCFRAME XSTACK, 75, STACK
        LOCFRAME IOVERLAY, 0, STATIC
        LOCFRAME DOVERLAY, 0, STATIC
        ARGFRAME ISTACK, 0, STACK
        ARGFRAME PSTACK, 0, STACK
        ARGFRAME XSTACK, 75, STACK
        ARGFRAME IOVERLAY, 0, STATIC
        ARGFRAME DOVERLAY, 0, STATIC
        FUNCALL touchLinkInitiator_event_loop, touchLink_SendLeaveReq
        LOCFRAME ISTACK, 0, STACK
        LOCFRAME PSTACK, 0, STACK
        LOCFRAME XSTACK, 75, STACK
        LOCFRAME IOVERLAY, 0, STATIC
        LOCFRAME DOVERLAY, 0, STATIC
        ARGFRAME ISTACK, 0, STACK
        ARGFRAME PSTACK, 0, STACK
        ARGFRAME XSTACK, 75, STACK
        ARGFRAME IOVERLAY, 0, STATIC
        ARGFRAME DOVERLAY, 0, STATIC
        FUNCALL touchLinkInitiator_event_loop, osal_set_event
        LOCFRAME ISTACK, 0, STACK
        LOCFRAME PSTACK, 0, STACK
        LOCFRAME XSTACK, 75, STACK
        LOCFRAME IOVERLAY, 0, STATIC
        LOCFRAME DOVERLAY, 0, STATIC
        ARGFRAME ISTACK, 0, STACK
        ARGFRAME PSTACK, 0, STACK
        ARGFRAME XSTACK, 75, STACK
        ARGFRAME IOVERLAY, 0, STATIC
        ARGFRAME DOVERLAY, 0, STATIC
        FUNCALL touchLinkInitiator_event_loop, touchLink_UpdateNV
        LOCFRAME ISTACK, 0, STACK
        LOCFRAME PSTACK, 0, STACK
        LOCFRAME XSTACK, 75, STACK
        LOCFRAME IOVERLAY, 0, STATIC
        LOCFRAME DOVERLAY, 0, STATIC
        ARGFRAME ISTACK, 0, STACK
        ARGFRAME PSTACK, 0, STACK
        ARGFRAME XSTACK, 75, STACK
        ARGFRAME IOVERLAY, 0, STATIC
        ARGFRAME DOVERLAY, 0, STATIC
        FUNCALL touchLinkInitiator_event_loop, ZDApp_LeaveCtrlReset
        LOCFRAME ISTACK, 0, STACK
        LOCFRAME PSTACK, 0, STACK
        LOCFRAME XSTACK, 75, STACK
        LOCFRAME IOVERLAY, 0, STATIC
        LOCFRAME DOVERLAY, 0, STATIC
        ARGFRAME ISTACK, 0, STACK
        ARGFRAME PSTACK, 0, STACK
        ARGFRAME XSTACK, 75, STACK
        ARGFRAME IOVERLAY, 0, STATIC
        ARGFRAME DOVERLAY, 0, STATIC
        FUNCALL touchLinkInitiator_event_loop, touchLink_PermitJoin
        LOCFRAME ISTACK, 0, STACK
        LOCFRAME PSTACK, 0, STACK
        LOCFRAME XSTACK, 75, STACK
        LOCFRAME IOVERLAY, 0, STATIC
        LOCFRAME DOVERLAY, 0, STATIC
        ARGFRAME ISTACK, 0, STACK
        ARGFRAME PSTACK, 0, STACK
        ARGFRAME XSTACK, 75, STACK
        ARGFRAME IOVERLAY, 0, STATIC
        ARGFRAME DOVERLAY, 0, STATIC
        FUNCALL touchLinkInitiator_event_loop, ZDOInitDeviceEx
        LOCFRAME ISTACK, 0, STACK
        LOCFRAME PSTACK, 0, STACK
        LOCFRAME XSTACK, 75, STACK
        LOCFRAME IOVERLAY, 0, STATIC
        LOCFRAME DOVERLAY, 0, STATIC
        ARGFRAME ISTACK, 0, STACK
        ARGFRAME PSTACK, 0, STACK
        ARGFRAME XSTACK, 75, STACK
        ARGFRAME IOVERLAY, 0, STATIC
        ARGFRAME DOVERLAY, 0, STATIC
        FUNCALL touchLinkInitiator_event_loop, initiatorReJoinNwk
        LOCFRAME ISTACK, 0, STACK
        LOCFRAME PSTACK, 0, STACK
        LOCFRAME XSTACK, 75, STACK
        LOCFRAME IOVERLAY, 0, STATIC
        LOCFRAME DOVERLAY, 0, STATIC
        ARGFRAME ISTACK, 0, STACK
        ARGFRAME PSTACK, 0, STACK
        ARGFRAME XSTACK, 75, STACK
        ARGFRAME IOVERLAY, 0, STATIC
        ARGFRAME DOVERLAY, 0, STATIC
        FUNCALL touchLinkInitiator_event_loop, touchLink_FreeNwkParamList
        LOCFRAME ISTACK, 0, STACK
        LOCFRAME PSTACK, 0, STACK
        LOCFRAME XSTACK, 75, STACK
        LOCFRAME IOVERLAY, 0, STATIC
        LOCFRAME DOVERLAY, 0, STATIC
        ARGFRAME ISTACK, 0, STACK
        ARGFRAME PSTACK, 0, STACK
        ARGFRAME XSTACK, 75, STACK
        ARGFRAME IOVERLAY, 0, STATIC
        ARGFRAME DOVERLAY, 0, STATIC
        FUNCALL touchLinkInitiator_event_loop, initiatorSetNwkToInitState
        LOCFRAME ISTACK, 0, STACK
        LOCFRAME PSTACK, 0, STACK
        LOCFRAME XSTACK, 75, STACK
        LOCFRAME IOVERLAY, 0, STATIC
        LOCFRAME DOVERLAY, 0, STATIC
        ARGFRAME ISTACK, 0, STACK
        ARGFRAME PSTACK, 0, STACK
        ARGFRAME XSTACK, 75, STACK
        ARGFRAME IOVERLAY, 0, STATIC
        ARGFRAME DOVERLAY, 0, STATIC
        FUNCALL touchLinkInitiator_event_loop, initiatorClearSelectedTarget
        LOCFRAME ISTACK, 0, STACK
        LOCFRAME PSTACK, 0, STACK
        LOCFRAME XSTACK, 75, STACK
        LOCFRAME IOVERLAY, 0, STATIC
        LOCFRAME DOVERLAY, 0, STATIC
        ARGFRAME ISTACK, 0, STACK
        ARGFRAME PSTACK, 0, STACK
        ARGFRAME XSTACK, 75, STACK
        ARGFRAME IOVERLAY, 0, STATIC
        ARGFRAME DOVERLAY, 0, STATIC
        FUNCALL touchLinkInitiator_event_loop, ZDApp_StopJoiningCycle
        LOCFRAME ISTACK, 0, STACK
        LOCFRAME PSTACK, 0, STACK
        LOCFRAME XSTACK, 75, STACK
        LOCFRAME IOVERLAY, 0, STATIC
        LOCFRAME DOVERLAY, 0, STATIC
        ARGFRAME ISTACK, 0, STACK
        ARGFRAME PSTACK, 0, STACK
        ARGFRAME XSTACK, 75, STACK
        ARGFRAME IOVERLAY, 0, STATIC
        ARGFRAME DOVERLAY, 0, STATIC
        FUNCALL touchLinkInitiator_event_loop, NLME_GetExtAddr
        LOCFRAME ISTACK, 0, STACK
        LOCFRAME PSTACK, 0, STACK
        LOCFRAME XSTACK, 75, STACK
        LOCFRAME IOVERLAY, 0, STATIC
        LOCFRAME DOVERLAY, 0, STATIC
        ARGFRAME ISTACK, 0, STACK
        ARGFRAME PSTACK, 0, STACK
        ARGFRAME XSTACK, 75, STACK
        ARGFRAME IOVERLAY, 0, STATIC
        ARGFRAME DOVERLAY, 0, STATIC
        FUNCALL touchLinkInitiator_event_loop, NLME_GetShortAddr
        LOCFRAME ISTACK, 0, STACK
        LOCFRAME PSTACK, 0, STACK
        LOCFRAME XSTACK, 75, STACK
        LOCFRAME IOVERLAY, 0, STATIC
        LOCFRAME DOVERLAY, 0, STATIC
        ARGFRAME ISTACK, 0, STACK
        ARGFRAME PSTACK, 0, STACK
        ARGFRAME XSTACK, 75, STACK
        ARGFRAME IOVERLAY, 0, STATIC
        ARGFRAME DOVERLAY, 0, STATIC
        FUNCALL touchLinkInitiator_event_loop, ZDP_DeviceAnnce
        LOCFRAME ISTACK, 0, STACK
        LOCFRAME PSTACK, 0, STACK
        LOCFRAME XSTACK, 76, STACK
        LOCFRAME IOVERLAY, 0, STATIC
        LOCFRAME DOVERLAY, 0, STATIC
        ARGFRAME ISTACK, 0, STACK
        ARGFRAME PSTACK, 0, STACK
        ARGFRAME XSTACK, 76, STACK
        ARGFRAME IOVERLAY, 0, STATIC
        ARGFRAME DOVERLAY, 0, STATIC
        FUNCALL touchLinkInitiator_event_loop, osal_nv_write
        LOCFRAME ISTACK, 0, STACK
        LOCFRAME PSTACK, 0, STACK
        LOCFRAME XSTACK, 79, STACK
        LOCFRAME IOVERLAY, 0, STATIC
        LOCFRAME DOVERLAY, 0, STATIC
        ARGFRAME ISTACK, 0, STACK
        ARGFRAME PSTACK, 0, STACK
        ARGFRAME XSTACK, 79, STACK
        ARGFRAME IOVERLAY, 0, STATIC
        ARGFRAME DOVERLAY, 0, STATIC
        FUNCALL touchLinkInitiator_event_loop, nwk_ExtPANIDValid
        LOCFRAME ISTACK, 0, STACK
        LOCFRAME PSTACK, 0, STACK
        LOCFRAME XSTACK, 75, STACK
        LOCFRAME IOVERLAY, 0, STATIC
        LOCFRAME DOVERLAY, 0, STATIC
        ARGFRAME ISTACK, 0, STACK
        ARGFRAME PSTACK, 0, STACK
        ARGFRAME XSTACK, 75, STACK
        ARGFRAME IOVERLAY, 0, STATIC
        ARGFRAME DOVERLAY, 0, STATIC
        FUNCALL touchLinkInitiator_event_loop, touchLink_GenerateRandNum
        LOCFRAME ISTACK, 0, STACK
        LOCFRAME PSTACK, 0, STACK
        LOCFRAME XSTACK, 75, STACK
        LOCFRAME IOVERLAY, 0, STATIC
        LOCFRAME DOVERLAY, 0, STATIC
        ARGFRAME ISTACK, 0, STACK
        ARGFRAME PSTACK, 0, STACK
        ARGFRAME XSTACK, 75, STACK
        ARGFRAME IOVERLAY, 0, STATIC
        ARGFRAME DOVERLAY, 0, STATIC
        FUNCALL touchLinkInitiator_event_loop, osal_rand
        LOCFRAME ISTACK, 0, STACK
        LOCFRAME PSTACK, 0, STACK
        LOCFRAME XSTACK, 75, STACK
        LOCFRAME IOVERLAY, 0, STATIC
        LOCFRAME DOVERLAY, 0, STATIC
        ARGFRAME ISTACK, 0, STACK
        ARGFRAME PSTACK, 0, STACK
        ARGFRAME XSTACK, 75, STACK
        ARGFRAME IOVERLAY, 0, STATIC
        ARGFRAME DOVERLAY, 0, STATIC
        FUNCALL touchLinkInitiator_event_loop, touchLink_GetRandPrimaryChannel
        LOCFRAME ISTACK, 0, STACK
        LOCFRAME PSTACK, 0, STACK
        LOCFRAME XSTACK, 75, STACK
        LOCFRAME IOVERLAY, 0, STATIC
        LOCFRAME DOVERLAY, 0, STATIC
        ARGFRAME ISTACK, 0, STACK
        ARGFRAME PSTACK, 0, STACK
        ARGFRAME XSTACK, 75, STACK
        ARGFRAME IOVERLAY, 0, STATIC
        ARGFRAME DOVERLAY, 0, STATIC
        FUNCALL touchLinkInitiator_event_loop, touchLink_GerFreeRanges
        LOCFRAME ISTACK, 0, STACK
        LOCFRAME PSTACK, 0, STACK
        LOCFRAME XSTACK, 75, STACK
        LOCFRAME IOVERLAY, 0, STATIC
        LOCFRAME DOVERLAY, 0, STATIC
        ARGFRAME ISTACK, 0, STACK
        ARGFRAME PSTACK, 0, STACK
        ARGFRAME XSTACK, 75, STACK
        ARGFRAME IOVERLAY, 0, STATIC
        ARGFRAME DOVERLAY, 0, STATIC
        FUNCALL touchLinkInitiator_event_loop, touchLink_PerformNetworkDisc
        LOCFRAME ISTACK, 0, STACK
        LOCFRAME PSTACK, 0, STACK
        LOCFRAME XSTACK, 75, STACK
        LOCFRAME IOVERLAY, 0, STATIC
        LOCFRAME DOVERLAY, 0, STATIC
        ARGFRAME ISTACK, 0, STACK
        ARGFRAME PSTACK, 0, STACK
        ARGFRAME XSTACK, 75, STACK
        ARGFRAME IOVERLAY, 0, STATIC
        ARGFRAME DOVERLAY, 0, STATIC
        FUNCALL touchLinkInitiator_event_loop, touchLink_SetChannel
        LOCFRAME ISTACK, 0, STACK
        LOCFRAME PSTACK, 0, STACK
        LOCFRAME XSTACK, 75, STACK
        LOCFRAME IOVERLAY, 0, STATIC
        LOCFRAME DOVERLAY, 0, STATIC
        ARGFRAME ISTACK, 0, STACK
        ARGFRAME PSTACK, 0, STACK
        ARGFRAME XSTACK, 75, STACK
        ARGFRAME IOVERLAY, 0, STATIC
        ARGFRAME DOVERLAY, 0, STATIC
        FUNCALL touchLinkInitiator_event_loop, NLME_SetUpdateID
        LOCFRAME ISTACK, 0, STACK
        LOCFRAME PSTACK, 0, STACK
        LOCFRAME XSTACK, 75, STACK
        LOCFRAME IOVERLAY, 0, STATIC
        LOCFRAME DOVERLAY, 0, STATIC
        ARGFRAME ISTACK, 0, STACK
        ARGFRAME PSTACK, 0, STACK
        ARGFRAME XSTACK, 75, STACK
        ARGFRAME IOVERLAY, 0, STATIC
        ARGFRAME DOVERLAY, 0, STATIC
        FUNCALL touchLinkInitiator_event_loop, bdb_Initiator_SendNwkJoinReq
        LOCFRAME ISTACK, 0, STACK
        LOCFRAME PSTACK, 0, STACK
        LOCFRAME XSTACK, 75, STACK
        LOCFRAME IOVERLAY, 0, STATIC
        LOCFRAME DOVERLAY, 0, STATIC
        ARGFRAME ISTACK, 0, STACK
        ARGFRAME PSTACK, 0, STACK
        ARGFRAME XSTACK, 75, STACK
        ARGFRAME IOVERLAY, 0, STATIC
        ARGFRAME DOVERLAY, 0, STATIC
        FUNCALL touchLinkInitiator_event_loop, touchLink_EncryptNwkKey
        LOCFRAME ISTACK, 0, STACK
        LOCFRAME PSTACK, 0, STACK
        LOCFRAME XSTACK, 83, STACK
        LOCFRAME IOVERLAY, 0, STATIC
        LOCFRAME DOVERLAY, 0, STATIC
        ARGFRAME ISTACK, 0, STACK
        ARGFRAME PSTACK, 0, STACK
        ARGFRAME XSTACK, 83, STACK
        ARGFRAME IOVERLAY, 0, STATIC
        ARGFRAME DOVERLAY, 0, STATIC
        FUNCALL touchLinkInitiator_event_loop, touchLinkStartRtr
        LOCFRAME ISTACK, 0, STACK
        LOCFRAME PSTACK, 0, STACK
        LOCFRAME XSTACK, 79, STACK
        LOCFRAME IOVERLAY, 0, STATIC
        LOCFRAME DOVERLAY, 0, STATIC
        ARGFRAME ISTACK, 0, STACK
        ARGFRAME PSTACK, 0, STACK
        ARGFRAME XSTACK, 79, STACK
        ARGFRAME IOVERLAY, 0, STATIC
        ARGFRAME DOVERLAY, 0, STATIC
        FUNCALL touchLinkInitiator_event_loop, initiatorClearSelectedTarget
        LOCFRAME ISTACK, 0, STACK
        LOCFRAME PSTACK, 0, STACK
        LOCFRAME XSTACK, 75, STACK
        LOCFRAME IOVERLAY, 0, STATIC
        LOCFRAME DOVERLAY, 0, STATIC
        ARGFRAME ISTACK, 0, STACK
        ARGFRAME PSTACK, 0, STACK
        ARGFRAME XSTACK, 75, STACK
        ARGFRAME IOVERLAY, 0, STATIC
        ARGFRAME DOVERLAY, 0, STATIC
        FUNCALL touchLinkInitiator_event_loop, initiatorSetNwkToInitState
        LOCFRAME ISTACK, 0, STACK
        LOCFRAME PSTACK, 0, STACK
        LOCFRAME XSTACK, 75, STACK
        LOCFRAME IOVERLAY, 0, STATIC
        LOCFRAME DOVERLAY, 0, STATIC
        ARGFRAME ISTACK, 0, STACK
        ARGFRAME PSTACK, 0, STACK
        ARGFRAME XSTACK, 75, STACK
        ARGFRAME IOVERLAY, 0, STATIC
        ARGFRAME DOVERLAY, 0, STATIC
        REQUIRE ?V0
        REQUIRE ?V1
        REQUIRE ?V2
        REQUIRE ?V3
        REQUIRE ?V4
        REQUIRE ?V5
        REQUIRE ?V6
        REQUIRE ?V7
        MOV       A,#-0x10
        LCALL     ?BANKED_ENTER_XDATA
          CFI DPH0 load(1, XDATA, add(CFA_XSP16, literal(-1)))
          CFI DPL0 load(1, XDATA, add(CFA_XSP16, literal(-2)))
          CFI ?BRET_EXT load(1, XDATA, add(CFA_XSP16, literal(-3)))
          CFI ?RET_HIGH load(1, XDATA, add(CFA_XSP16, literal(-4)))
          CFI ?RET_LOW load(1, XDATA, add(CFA_XSP16, literal(-5)))
          CFI R7 load(1, XDATA, add(CFA_XSP16, literal(-6)))
          CFI V7 load(1, XDATA, add(CFA_XSP16, literal(-7)))
          CFI V6 load(1, XDATA, add(CFA_XSP16, literal(-8)))
          CFI V5 load(1, XDATA, add(CFA_XSP16, literal(-9)))
          CFI V4 load(1, XDATA, add(CFA_XSP16, literal(-10)))
          CFI V3 load(1, XDATA, add(CFA_XSP16, literal(-11)))
          CFI V2 load(1, XDATA, add(CFA_XSP16, literal(-12)))
          CFI V1 load(1, XDATA, add(CFA_XSP16, literal(-13)))
          CFI V0 load(1, XDATA, add(CFA_XSP16, literal(-14)))
          CFI VB load(1, XDATA, add(CFA_XSP16, literal(-15)))
          CFI R6 load(1, XDATA, add(CFA_XSP16, literal(-16)))
          CFI CFA_SP SP+0
          CFI CFA_XSP16 add(XSP16, 16)
        ; Saved register size: 16
        ; Auto size: 59
        MOV       A,#-0x3b
        LCALL     ?ALLOC_XSTACK8
          CFI CFA_XSP16 add(XSP16, 75)
        MOV       A,R2
        MOV       R6,A
        MOV       A,R3
        MOV       R7,A
//  552   if ( events & SYS_EVENT_MSG )
        ANL       A,#0x80
        JZ        ??touchLinkInitiator_event_loop_0
//  553   {
//  554     osal_event_hdr_t *pMsg;
//  555     ZStatus_t stat = ZFailure;
//  556 
//  557     if ( (pMsg = (osal_event_hdr_t *)osal_msg_receive( task_id )) != NULL )
        ; Setup parameters for call to function osal_msg_receive
        LCALL     `??osal_msg_receive::?relay`; Banked call to: osal_msg_receive
        MOV       ?V0,R2
        MOV       ?V1,R3
        MOV       A,R2
        ORL       A,R3
        JZ        ??touchLinkInitiator_event_loop_1
//  558     {
//  559       switch ( pMsg->event )
        MOV       DPL,R2
        MOV       DPH,R3
        MOVX      A,@DPTR
        ADD       A,#0x2f
        JZ        ??touchLinkInitiator_event_loop_2
        ADD       A,#-0x2
        JNZ       ??touchLinkInitiator_event_loop_3
//  560       {
//  561 
//  562 #if (ZSTACK_ROUTER_BUILD)
//  563         case ZDO_CB_MSG:
//  564           // ZDO sends the message that we registered for
//  565           touchLink_RouterProcessZDOMsg( (zdoIncomingMsg_t *)pMsg );
        ; Setup parameters for call to function touchLink_RouterProcessZDOMsg
        LCALL     `??touchLink_RouterProcessZDOMsg::?relay`; Banked call to: touchLink_RouterProcessZDOMsg
//  566           stat = ZSuccess;
//  567           break;
//  568 #endif
//  569         case ZDO_STATE_CHANGE:
//  570           initiatorProcessStateChange( (devStates_t)pMsg->status );
//  571           stat = ZSuccess;
//  572           break;
//  573 
//  574         default:
//  575           break;
//  576       }
//  577 
//  578       if ( stat == ZSuccess )
//  579       {
//  580         // Release the OSAL message
//  581         VOID osal_msg_deallocate( (uint8 *)pMsg );
??touchLinkInitiator_event_loop_4:
        ; Setup parameters for call to function osal_msg_deallocate
        MOV       R2,?V0
        MOV       R3,?V1
        LCALL     `??osal_msg_deallocate::?relay`; Banked call to: osal_msg_deallocate
//  582       }
//  583       else
//  584       {
//  585         // forward to the application
//  586         osal_msg_send( initiatorRegisteredMsgAppTaskID, (uint8 *)pMsg );
//  587       }
//  588     }
//  589 
//  590     // return unprocessed events
//  591     return ( events ^ SYS_EVENT_MSG );
??touchLinkInitiator_event_loop_1:
        MOV       A,R6
        MOV       R2,A
        MOV       A,R7
        XRL       A,#0x80
        LJMP      ??touchLinkInitiator_event_loop_5 & 0xFFFF
??touchLinkInitiator_event_loop_2:
        ; Setup parameters for call to function initiatorProcessStateChange
        INC       DPTR
        MOVX      A,@DPTR
        MOV       R1,A
        LCALL     `??initiatorProcessStateChange::?relay`; Banked call to: initiatorProcessStateChange
        SJMP      ??touchLinkInitiator_event_loop_4
??touchLinkInitiator_event_loop_3:
        ; Setup parameters for call to function osal_msg_send
        MOV       DPTR,#initiatorRegisteredMsgAppTaskID
        MOVX      A,@DPTR
        MOV       R1,A
        LCALL     `??osal_msg_send::?relay`; Banked call to: osal_msg_send
        SJMP      ??touchLinkInitiator_event_loop_1
//  592   }
//  593 
//  594   if ( events & TOUCHLINK_TL_SCAN_BASE_EVT )
??touchLinkInitiator_event_loop_0:
        MOV       A,R2
        ANL       A,#0x20
        JNZ       $+5
        LJMP      ??touchLinkInitiator_event_loop_6 & 0xFFFF
//  595   {
//  596     if ( ( ( scanReqChannels == TOUCHLINK_SCAN_PRIMARY_CHANNELS ) && ( numScanReqSent < TOUCHLINK_INITIATOR_NUM_SCAN_REQ_PRIMARY  ) ) ||
//  597          ( ( scanReqChannels == TOUCHLINK_SCAN_SECONDARY_CHANNELS ) && ( numScanReqSent < TOUCHLINK_INITIATOR_NUM_SCAN_REQ_EXTENDED ) ) )
        MOV       A,R2
        XRL       A,#0x20
        MOV       R6,A
        MOV       DPTR,#scanReqChannels
        MOVX      A,@DPTR
        XRL       A,#0x1
        JNZ       ??touchLinkInitiator_event_loop_7
        MOV       DPTR,#numScanReqSent
        MOVX      A,@DPTR
        CLR       C
        SUBB      A,#0x8
        JC        ??touchLinkInitiator_event_loop_8
        MOV       DPTR,#bdbAttributes + 14
        MOVX      A,@DPTR
        JNZ       ??touchLinkInitiator_event_loop_9
//  598     {
//  599       // Send another Scan Request on the next channel
//  600       initiatorSendScanReq( FALSE );
//  601     }
//  602     else // Channels scan is complete
//  603     {
//  604       if ( ( scanReqChannels == TOUCHLINK_SCAN_PRIMARY_CHANNELS ) && ( bdbAttributes.bdbNodeIsOnANetwork == FALSE ) )
//  605       {
//  606         // Extended scan is required, lets scan secondary channels
//  607         scanReqChannels = TOUCHLINK_SCAN_SECONDARY_CHANNELS;
        MOV       DPTR,#scanReqChannels
        MOV       A,#0x2
        MOVX      @DPTR,A
//  608 
//  609         // Send another Scan Request on the next channel
//  610         initiatorSendScanReq( FALSE );
        ; Setup parameters for call to function initiatorSendScanReq
        SJMP      ??touchLinkInitiator_event_loop_8
//  611       }
??touchLinkInitiator_event_loop_7:
        MOVX      A,@DPTR
        XRL       A,#0x2
        JNZ       ??touchLinkInitiator_event_loop_9
        MOV       DPTR,#numScanReqSent
        MOVX      A,@DPTR
        CLR       C
        SUBB      A,#0x14
        JNC       ??touchLinkInitiator_event_loop_9
??touchLinkInitiator_event_loop_8:
        ; Setup parameters for call to function initiatorSendScanReq
        MOV       R1,#0x0
        LCALL     `??initiatorSendScanReq::?relay`; Banked call to: initiatorSendScanReq
        LJMP      ??touchLinkInitiator_event_loop_10 & 0xFFFF
//  612       // See if we've received any Scan Responses back
//  613       else if ( ( selectedTarget.lastRssi != TOUCHLINK_WORST_RSSI )
//  614                && ( selectedTarget.scanRsp.deviceInfo.endpoint != DEV_INFO_INVALID_EP ) )
??touchLinkInitiator_event_loop_9:
        MOV       DPTR,#selectedTarget + 53
        MOVX      A,@DPTR
        XRL       A,#0xba
        JNZ       $+5
        LJMP      ??touchLinkInitiator_event_loop_11 & 0xFFFF
        MOV       DPTR,#selectedTarget + 31
        MOVX      A,@DPTR
        XRL       A,#0xfe
        JNZ       $+5
        LJMP      ??touchLinkInitiator_event_loop_11 & 0xFFFF
//  615       {
//  616         // Make sure the responder is not a factory new initiator if this device is also 
//  617         // factory new
//  618         if ( ( selectedTarget.scanRsp.touchLinkInitiator == FALSE ) ||
//  619              ( bdbAttributes.bdbNodeIsOnANetwork == TRUE ) )
        MOV       DPTR,#selectedTarget + 7
        MOVX      A,@DPTR
        ANL       A,#0x10
        JZ        ??touchLinkInitiator_event_loop_12
        MOV       DPTR,#bdbAttributes + 14
        MOVX      A,@DPTR
        XRL       A,#0x1
        JZ        $+5
        LJMP      ??touchLinkInitiator_event_loop_10 & 0xFFFF
//  620         {
//  621           bdbTLIdentifyReq_t req;
//  622 
//  623           // Tune to the channel that the Scan Response was heard on
//  624           touchLink_SetChannel( selectedTarget.rxChannel );
??touchLinkInitiator_event_loop_12:
        ; Setup parameters for call to function touchLink_SetChannel
        LCALL     ?Subroutine17 & 0xFFFF
//  625 
//  626           req.transID = selectedTarget.scanRsp.transID;
??CrossCallReturnLabel_180:
        MOV       DPTR,#selectedTarget
        LCALL     ?XLOAD_R0123
        MOV       A,#0x8
        LCALL     ?XSTACK_DISP0_8
        LCALL     ?XSTORE_R0123
//  627           req.IdDuration = BDB_TL_IDENTIFY_TIME;
        MOV       A,#0xc
        LCALL     ?XSTACK_DISP0_8
        MOV       A,#-0x1
        MOVX      @DPTR,A
        INC       DPTR
        MOVX      @DPTR,A
//  628           
//  629           if ( touchlinkFNReset == TRUE )
        MOV       DPTR,#touchlinkFNReset
        MOVX      A,@DPTR
        XRL       A,#0x1
        JNZ       ??touchLinkInitiator_event_loop_13
//  630           {
//  631             osal_set_event( touchLinkInitiator_TaskID, TOUCHLINK_CFG_TARGET_EVT );
        ; Setup parameters for call to function osal_set_event
        MOV       R2,#0x40
        MOV       R3,#0x0
        LJMP      ??touchLinkInitiator_event_loop_14 & 0xFFFF
//  632             return ( events ^ TOUCHLINK_TL_SCAN_BASE_EVT );
//  633           }
//  634           
//  635           bdbTL_Send_IndentifyReq( TOUCHLINK_INTERNAL_ENDPOINT, &(selectedTarget.srcAddr), &req, initiatorSeqNum++ );
??touchLinkInitiator_event_loop_13:
        LCALL     ??Subroutine51_0 & 0xFFFF
??CrossCallReturnLabel_102:
        LCALL     ?PUSH_XSTACK_I_ONE
          CFI CFA_XSP16 add(XSP16, 76)
        MOV       A,#0x9
        LCALL     ?XSTACK_DISP102_8
        MOV       R2,#(selectedTarget + 38) & 0xff
        MOV       R3,#((selectedTarget + 38) >> 8) & 0xff
        MOV       R1,#0xd
        LCALL     `??bdbTL_Send_IndentifyReq::?relay`; Banked call to: bdbTL_Send_IndentifyReq
        MOV       A,#0x1
        LCALL     ?DEALLOC_XSTACK8
          CFI CFA_XSP16 add(XSP16, 75)
//  636 
//  637 #if ZSTACK_ROUTER_BUILD
//  638           uint8 i = 0;
        MOV       R1,#0x0
        SJMP      ??touchLinkInitiator_event_loop_15
//  639             
//  640           while ( !CHECK_BIT ( selectedTarget.scanRsp.keyBitmask , i ) ) 
//  641           {
//  642             i++;
??touchLinkInitiator_event_loop_16:
        INC       R1
//  643           }
??touchLinkInitiator_event_loop_15:
        MOV       DPTR,#selectedTarget + 9
        LCALL     ?Subroutine20 & 0xFFFF
??CrossCallReturnLabel_13:
        MOV       A,R1
        MOV       R0,#?V0
        LCALL     ?US_SHR
        MOV       A,?V0
        MOV       C,0xE0 /* A   */.0
        JNC       ??touchLinkInitiator_event_loop_16
//  644     
//  645           initiatorNwkParams.keyIndex = i;
        MOV       A,R1
        MOV       DPTR,#initiatorNwkParams + 8
        MOVX      @DPTR,A
//  646           zTouchLinkNwkStartRtr = TRUE;
        MOV       DPTR,#zTouchLinkNwkStartRtr
        MOV       A,#0x1
        MOVX      @DPTR,A
//  647           // Disabe other TouchLink events
//  648           osal_set_event( touchLinkInitiator_TaskID, TOUCHLINK_DISABLE_RX_EVT );
        ; Setup parameters for call to function osal_set_event
        LCALL     ?Subroutine10 & 0xFFFF
//  649 #endif
//  650           osal_start_timerEx( touchLinkInitiator_TaskID, TOUCHLINK_CFG_TARGET_EVT, TOUCHLINK_INITIATOR_IDENTIFY_INTERVAL );
??CrossCallReturnLabel_169:
        ; Setup parameters for call to function osal_start_timerEx
        MOV       DPTR,#__Constant_1f4
        LCALL     ?PUSH_XSTACK8_X_FOUR
          CFI CFA_XSP16 add(XSP16, 79)
        MOV       R2,#0x40
        LCALL     ??Subroutine58_0 & 0xFFFF
//  651         }
//  652         // else wait for touch-link commands from the other initiator
//  653       }
??CrossCallReturnLabel_114:
        LCALL     ?DEALLOC_XSTACK8
          CFI CFA_XSP16 add(XSP16, 75)
        SJMP      ??CrossCallReturnLabel_30
//  654       else
//  655       {
//  656         // We did not manage to select any target
//  657         // Let's just go back to our initial configuration
//  658         osal_set_event( touchLinkInitiator_TaskID, TOUCHLINK_DISABLE_RX_EVT );
??touchLinkInitiator_event_loop_11:
        ; Setup parameters for call to function osal_set_event
        LCALL     ?Subroutine10 & 0xFFFF
//  659         bdbAttributes.bdbCommissioningStatus = BDB_COMMISSIONING_TL_NO_SCAN_RESPONSE;
??CrossCallReturnLabel_170:
        MOV       DPTR,#bdbAttributes + 10
        MOV       A,#0x5
        LCALL     ?Subroutine30 & 0xFFFF
//  660         bdb_reportCommissioningState( BDB_COMMISSIONING_STATE_TL, FALSE );
//  661       }
//  662     }
//  663 
//  664     // return unprocessed events
//  665     return ( events ^ TOUCHLINK_TL_SCAN_BASE_EVT );
??CrossCallReturnLabel_30:
        LJMP      ??touchLinkInitiator_event_loop_10 & 0xFFFF
//  666   }
//  667 
//  668   if ( events & TOUCHLINK_CFG_TARGET_EVT )
??touchLinkInitiator_event_loop_6:
        MOV       A,R2
        ANL       A,#0x40
        JNZ       $+5
        LJMP      ??touchLinkInitiator_event_loop_17 & 0xFFFF
//  669   {
//  670     ZStatus_t status = ZFailure;
//  671 
//  672     bdbTLIdentifyReq_t req;
//  673 
//  674     req.transID = selectedTarget.scanRsp.transID;
        MOV       DPTR,#selectedTarget
        LCALL     ?XLOAD_R0123
        MOV       A,#0x8
        LCALL     ?XSTACK_DISP0_8
        LCALL     ?XSTORE_R0123
//  675     req.IdDuration = 0x00;
        MOV       A,#0xc
        LCALL     ?XSTACK_DISP0_8
        CLR       A
        MOVX      @DPTR,A
        INC       DPTR
        MOVX      @DPTR,A
//  676     uint8 tcExtAddr[Z_EXTADDR_LEN];
//  677     uint8 DistributedSecurityNwkAddress[Z_EXTADDR_LEN] = { 0xFF, 0xFF, 0xFF, 0xFF, 0xFF, 0xFF, 0xFF, 0xFF };
        MOV       DPTR,#`?<Constant {255, 255, 255, 255, 255, 255, 255,`
        MOV       A,#0x33
        LCALL     ?XSTACK_DISP102_8
        MOV       A,#0x8
        LCALL     ?MOVE_LONG8_XDATA_XDATA
//  678         
//  679     if ( zTouchLinkNwkStartRtr == FALSE )
        MOV       DPTR,#zTouchLinkNwkStartRtr
        MOVX      A,@DPTR
        JNZ       ??touchLinkInitiator_event_loop_18
//  680     {
//  681       // Send an Identify stop Request
//  682       bdbTL_Send_IndentifyReq( TOUCHLINK_INTERNAL_ENDPOINT, &(selectedTarget.srcAddr), &req, initiatorSeqNum++ );
        LCALL     ??Subroutine51_0 & 0xFFFF
//  683     }
??CrossCallReturnLabel_103:
        LCALL     ?PUSH_XSTACK_I_ONE
          CFI CFA_XSP16 add(XSP16, 76)
        MOV       A,#0x9
        LCALL     ?XSTACK_DISP102_8
        MOV       R2,#(selectedTarget + 38) & 0xff
        MOV       R3,#((selectedTarget + 38) >> 8) & 0xff
        MOV       R1,#0xd
        LCALL     `??bdbTL_Send_IndentifyReq::?relay`; Banked call to: bdbTL_Send_IndentifyReq
        MOV       A,#0x1
        LCALL     ?DEALLOC_XSTACK8
          CFI CFA_XSP16 add(XSP16, 75)
//  684     
//  685    // See if the target is part of our network
//  686     if ( !TOUCHLINK_SAME_NWK( selectedTarget.scanRsp.PANID, selectedTarget.scanRsp.extendedPANID ) )
??touchLinkInitiator_event_loop_18:
        MOV       A,R6
        XRL       A,#0x40
        MOV       R6,A
        MOV       DPTR,#_NIB + 33
        LCALL     ??Subroutine63_0 & 0xFFFF
??CrossCallReturnLabel_134:
        MOV       DPTR,#selectedTarget + 25
        MOVX      A,@DPTR
        XRL       A,R0
        JNZ       ??touchLinkInitiator_event_loop_19
        INC       DPTR
        MOVX      A,@DPTR
        XRL       A,R1
??touchLinkInitiator_event_loop_19:
        JNZ       ??touchLinkInitiator_event_loop_20
        ; Setup parameters for call to function sAddrExtCmp
        MOV       R4,#(selectedTarget + 15) & 0xff
        MOV       R5,#((selectedTarget + 15) >> 8) & 0xff
        MOV       R2,#(_NIB + 53) & 0xff
        MOV       R3,#((_NIB + 53) >> 8) & 0xff
        LCALL     `??sAddrExtCmp::?relay`; Banked call to: sAddrExtCmp
        MOV       A,R1
        JZ        $+5
        LJMP      ??touchLinkInitiator_event_loop_21 & 0xFFFF
//  687     {
//  688       // If the local device is not the trust center, always return TRUE
//  689       status = APSME_GetRequest( apsTrustCenterAddress, 0, tcExtAddr );
??touchLinkInitiator_event_loop_20:
        ; Setup parameters for call to function APSME_GetRequest
        MOV       A,#0x2b
        LCALL     ?XSTACK_DISP102_8
        MOV       R2,#0x0
        MOV       R3,#0x0
        MOV       R1,#-0x55
        LCALL     `??APSME_GetRequest::?relay`; Banked call to: APSME_GetRequest
        MOV       A,R1
        MOV       R0,A
//  690         
//  691       // Notify BDB state machine
//  692       if ( bdbAttributes.bdbNodeIsOnANetwork == TRUE )
        MOV       DPTR,#bdbAttributes + 14
        MOVX      A,@DPTR
        XRL       A,#0x1
        JNZ       ??touchLinkInitiator_event_loop_22
//  693       {
//  694         if ( ( status == ZSuccess ) && ( !osal_ExtAddrEqual( DistributedSecurityNwkAddress, tcExtAddr ) ) )
        MOV       A,R1
        JNZ       ??touchLinkInitiator_event_loop_22
        ; Setup parameters for call to function sAddrExtCmp
        MOV       A,#0x2b
        LCALL     ?XSTACK_DISP102_8
        MOV       A,#0x33
        LCALL     ?XSTACK_DISP101_8
        LCALL     `??sAddrExtCmp::?relay`; Banked call to: sAddrExtCmp
        MOV       A,R1
        JNZ       ??touchLinkInitiator_event_loop_22
//  695         {
//  696           bdbAttributes.bdbCommissioningStatus = BDB_COMMISSIONING_TL_NOT_PERMITTED;
        MOV       DPTR,#bdbAttributes + 10
        MOV       A,#0x6
        SJMP      ??touchLinkInitiator_event_loop_23
//  697           bdb_reportCommissioningState( BDB_COMMISSIONING_STATE_TL, FALSE );
//  698           return ( events ^ TOUCHLINK_CFG_TARGET_EVT );
//  699         }
//  700       }
//  701             
//  702       // verify address ranges split possible if required
//  703       if ( !touchLink_IsValidSplitFreeRanges( selectedTarget.scanRsp.totalGrpIDs ) )
??touchLinkInitiator_event_loop_22:
        ; Setup parameters for call to function touchLink_IsValidSplitFreeRanges
        MOV       DPTR,#selectedTarget + 30
        MOVX      A,@DPTR
        MOV       R1,A
        LCALL     `??touchLink_IsValidSplitFreeRanges::?relay`; Banked call to: touchLink_IsValidSplitFreeRanges
        MOV       A,R1
        JNZ       ??touchLinkInitiator_event_loop_24
//  704       {
//  705         bdbAttributes.bdbCommissioningStatus = BDB_COMMISSIONING_TL_NOT_AA_CAPABLE;
        MOV       DPTR,#bdbAttributes + 10
        MOV       A,#0x4
??touchLinkInitiator_event_loop_23:
        MOVX      @DPTR,A
//  706         bdb_reportCommissioningState( BDB_COMMISSIONING_STATE_TL, FALSE );
        ; Setup parameters for call to function bdb_reportCommissioningState
        MOV       R2,#0x0
        LJMP      ??touchLinkInitiator_event_loop_25 & 0xFFFF
//  707         return ( events ^ TOUCHLINK_CFG_TARGET_EVT );
//  708       }
//  709       
//  710       if ( touchlinkFNReset == TRUE )
??touchLinkInitiator_event_loop_24:
        MOV       DPTR,#touchlinkFNReset
        MOVX      A,@DPTR
        XRL       A,#0x1
        JNZ       ??touchLinkInitiator_event_loop_26
//  711       {
//  712         touchlinkFNReset = FALSE;
        CLR       A
        MOVX      @DPTR,A
//  713         touchLinkInitiator_ResetToFNSelectedTarget( );
        ; Setup parameters for call to function touchLinkInitiator_ResetToFNSelectedTarget
        LCALL     `??touchLinkInitiator_ResetToFNSelectedTarget::?`; Banked call to: touchLinkInitiator_ResetToFNSelectedTarget
//  714         osal_set_event( touchLinkInitiator_TaskID, TOUCHLINK_DISABLE_RX_EVT );
        ; Setup parameters for call to function osal_set_event
        MOV       R2,#0x0
        MOV       R3,#0x2
        SJMP      ??touchLinkInitiator_event_loop_14
//  715         
//  716         return ( events ^ TOUCHLINK_CFG_TARGET_EVT );
//  717       }
//  718         
//  719       if ( bdbAttributes.bdbNodeIsOnANetwork == TRUE )
??touchLinkInitiator_event_loop_26:
        MOV       DPTR,#bdbAttributes + 14
        MOVX      A,@DPTR
        XRL       A,#0x1
        JNZ       ??touchLinkInitiator_event_loop_27
//  720       {
//  721         // Ask the target to join our network
//  722         osal_start_timerEx( touchLinkInitiator_TaskID, TOUCHLINK_NWK_FORMATION_SUCCESS_EVT, 50);
        ; Setup parameters for call to function osal_start_timerEx
        MOV       DPTR,#__Constant_32
        LCALL     ?PUSH_XSTACK8_X_FOUR
          CFI CFA_XSP16 add(XSP16, 79)
        MOV       R2,#0x0
        MOV       R3,#0x20
        LCALL     ??Subroutine59_0 & 0xFFFF
??CrossCallReturnLabel_118:
        LCALL     ?DEALLOC_XSTACK8
          CFI CFA_XSP16 add(XSP16, 75)
//  723         zTouchLinkNwkStartRtr = FALSE;
        MOV       DPTR,#zTouchLinkNwkStartRtr
        CLR       A
        MOVX      @DPTR,A
//  724         return ( events ^ TOUCHLINK_CFG_TARGET_EVT );
        LJMP      ??touchLinkInitiator_event_loop_10 & 0xFFFF
//  725       }
//  726       else if ( ZSTACK_ROUTER_BUILD == TRUE )
//  727       {
//  728         // Tune to the channel that the Scan Response was heard on
//  729         touchLink_SetChannel( selectedTarget.rxChannel );
??touchLinkInitiator_event_loop_27:
        ; Setup parameters for call to function touchLink_SetChannel
        LCALL     ?Subroutine17 & 0xFFFF
//  730         
//  731         // Try to form a new network
//  732         osal_set_event( touchLinkInitiator_TaskID, TOUCHLINK_NWK_RTR_START_EVT);
??CrossCallReturnLabel_181:
        ; Setup parameters for call to function osal_set_event
        MOV       R2,#0x0
        MOV       R3,#0x10
??touchLinkInitiator_event_loop_14:
        LCALL     ??Subroutine68_0 & 0xFFFF
//  733         return ( events ^ TOUCHLINK_CFG_TARGET_EVT );
??CrossCallReturnLabel_171:
        LJMP      ??touchLinkInitiator_event_loop_10 & 0xFFFF
//  734       }
//  735       else if ( ZSTACK_ROUTER_BUILD == FALSE )
//  736       {
//  737         if ( selectedTarget.scanRsp.zLogicalType == ZG_DEVICETYPE_ROUTER )
//  738         {
//  739           if ( bdbAttributes.bdbNodeIsOnANetwork == FALSE )
//  740           {
//  741             _NIB.nwkDevAddress = APL_FREE_NWK_ADDR_RANGE_BEGIN;
//  742           }
//  743           
//  744           // Must be the first light; ask the light to start the network
//  745           status = initiatorSendNwkStartReq( &(selectedTarget.scanRsp) );
//  746         }
//  747         else
//  748         {
//  749           // Notify the BDB state machine 
//  750           bdbAttributes.bdbCommissioningStatus = BDB_COMMISSIONING_NO_NETWORK;
//  751           bdb_reportCommissioningState( BDB_COMMISSIONING_STATE_TL, FALSE );
//  752           return ( events ^ TOUCHLINK_CFG_TARGET_EVT );
//  753         }
//  754       }
//  755     }
//  756     
//  757     else if ( _NIB.nwkUpdateId != selectedTarget.scanRsp.nwkUpdateId )
??touchLinkInitiator_event_loop_21:
        MOV       DPTR,#_NIB + 109
        MOVX      A,@DPTR
        MOV       R0,A
        MOV       DPTR,#selectedTarget + 23
        MOVX      A,@DPTR
        XRL       A,R0
        JNZ       $+5
        LJMP      ??touchLinkInitiator_event_loop_28 & 0xFFFF
//  758     {
//  759       // Set NWK task to run
//  760       nwk_setStateIdle( TRUE );
        ; Setup parameters for call to function nwk_setStateIdle
        MOV       R1,#0x1
        LCALL     `??nwk_setStateIdle::?relay`; Banked call to: nwk_setStateIdle
//  761       
//  762       // Target is already part of our network
//  763       if ( selectedTarget.scanRsp.nwkUpdateId > _NIB.nwkUpdateId )
        MOV       DPTR,#selectedTarget + 23
        MOVX      A,@DPTR
        MOV       R1,A
        MOV       DPTR,#_NIB + 109
        MOVX      A,@DPTR
        MOV       R0,A
        CLR       C
        SUBB      A,R1
        JNC       ??touchLinkInitiator_event_loop_29
//  764       {
//  765         // Update our network update id and logical channel
//  766         touchLink_ProcessNwkUpdate( selectedTarget.scanRsp.nwkUpdateId, selectedTarget.scanRsp.logicalChannel );
        ; Setup parameters for call to function touchLink_ProcessNwkUpdate
        MOV       DPTR,#selectedTarget + 24
        MOVX      A,@DPTR
        MOV       R2,A
        LCALL     `??touchLink_ProcessNwkUpdate::?relay`; Banked call to: touchLink_ProcessNwkUpdate
//  767 
//  768         // We're done here
//  769         status = ZSuccess;
        LJMP      ??touchLinkInitiator_event_loop_30 & 0xFFFF
//  770       }
//  771       else if ( selectedTarget.scanRsp.nwkUpdateId < _NIB.nwkUpdateId )
??touchLinkInitiator_event_loop_29:
        MOV       A,R1
        CLR       C
        SUBB      A,R0
        JC        $+5
        LJMP      ??touchLinkInitiator_event_loop_30 & 0xFFFF
//  772       {
//  773         // Inform the target to update its network update id and logical channel
//  774         initiatorSendNwkUpdateReq( &(selectedTarget.scanRsp) ); // there's no corresponding response!
        ; Setup parameters for call to function osal_mem_alloc
        MOV       R2,#0x12
        MOV       R3,#0x0
        LCALL     `??osal_mem_alloc::?relay`; Banked call to: osal_mem_alloc
        MOV       ?V0,R2
        MOV       ?V1,R3
        MOV       A,R2
        ORL       A,R3
        JNZ       $+5
        LJMP      ??touchLinkInitiator_event_loop_31 & 0xFFFF
        MOV       DPTR,#selectedTarget
        LCALL     ?XLOAD_R0123
        MOV       DPL,?V0
        MOV       DPH,?V1
        LCALL     ?XSTORE_R0123
        ; Setup parameters for call to function sAddrExtCpy
        MOV       R4,#(_NIB + 53) & 0xff
        MOV       R5,#((_NIB + 53) >> 8) & 0xff
        MOV       A,?V0
        ADD       A,#0x4
        MOV       R2,A
        CLR       A
        ADDC      A,?V1
        MOV       R3,A
        LCALL     `??sAddrExtCpy::?relay`; Banked call to: sAddrExtCpy
        MOV       DPTR,#_NIB + 109
        MOVX      A,@DPTR
        PUSH      A
          CFI CFA_SP SP+-1
        MOV       A,?V0
        ADD       A,#0xc
        MOV       DPL,A
        CLR       A
        ADDC      A,?V1
        MOV       DPH,A
        POP       A
          CFI CFA_SP SP+0
        MOVX      @DPTR,A
        MOV       DPTR,#_NIB + 22
        MOVX      A,@DPTR
        PUSH      A
          CFI CFA_SP SP+-1
        MOV       A,?V0
        ADD       A,#0xd
        MOV       DPL,A
        CLR       A
        ADDC      A,?V1
        MOV       DPH,A
        POP       A
          CFI CFA_SP SP+0
        MOVX      @DPTR,A
        MOV       DPTR,#_NIB + 33
        LCALL     ??Subroutine63_0 & 0xFFFF
??CrossCallReturnLabel_135:
        MOV       A,?V0
        ADD       A,#0xe
        MOV       DPL,A
        CLR       A
        ADDC      A,?V1
        LCALL     ??Subroutine48_0 & 0xFFFF
??CrossCallReturnLabel_95:
        MOV       DPTR,#selectedTarget + 27
        LCALL     ??Subroutine63_0 & 0xFFFF
??CrossCallReturnLabel_136:
        MOV       A,?V0
        ADD       A,#0x10
        MOV       DPL,A
        CLR       A
        ADDC      A,?V1
        MOV       DPH,A
        MOV       A,R0
        MOVX      @DPTR,A
        INC       DPTR
        MOV       A,R1
        LCALL     ?Subroutine27 & 0xFFFF
??CrossCallReturnLabel_23:
        MOV       ?V3,A
        MOV       R0,#?V3
        LCALL     ?PUSH_XSTACK_I_ONE
          CFI CFA_XSP16 add(XSP16, 76)
        MOV       R4,?V0
        MOV       R5,?V1
        MOV       R2,#(selectedTarget + 38) & 0xff
        MOV       R3,#((selectedTarget + 38) >> 8) & 0xff
        MOV       R1,#0xd
        LCALL     `??bdbTL_Send_NwkUpdateReq::?relay`; Banked call to: bdbTL_Send_NwkUpdateReq
        MOV       A,#0x1
        LCALL     ?DEALLOC_XSTACK8
          CFI CFA_XSP16 add(XSP16, 75)
        ; Setup parameters for call to function osal_mem_free
        MOV       R2,?V0
        MOV       R3,?V1
        LCALL     `??osal_mem_free::?relay`; Banked call to: osal_mem_free
//  775 
//  776         // Notify the application about this device
//  777         osal_set_event( touchLinkInitiator_TaskID, TOUCHLINK_NOTIFY_APP_EVT );
??touchLinkInitiator_event_loop_31:
        ; Setup parameters for call to function osal_set_event
        MOV       R2,#0x0
        MOV       R3,#0x8
        LCALL     ??Subroutine68_0 & 0xFFFF
//  778       }
//  779       
//  780       bdbAttributes.bdbCommissioningStatus = BDB_COMMISSIONING_SUCCESS;
??CrossCallReturnLabel_172:
        SJMP      ??touchLinkInitiator_event_loop_30
//  781       bdb_reportCommissioningState( BDB_COMMISSIONING_STATE_TL, TRUE );
//  782       return ( events ^ TOUCHLINK_CFG_TARGET_EVT );
//  783     }
//  784     
//  785     //we are touchlinking to a light in our network, just send application the device info
//  786     else if ( selectedTarget.scanRsp.touchLinkInitiator == FALSE )
??touchLinkInitiator_event_loop_28:
        MOV       DPTR,#selectedTarget + 7
        MOVX      A,@DPTR
        ANL       A,#0x10
        JNZ       ??touchLinkInitiator_event_loop_10
//  787     {
//  788       epInfoRec_t rec;
//  789       rec.nwkAddr = selectedTarget.scanRsp.nwkAddr;
        MOV       DPTR,#selectedTarget + 27
        LCALL     ?Subroutine14 & 0xFFFF
//  790       rec.endpoint = selectedTarget.scanRsp.deviceInfo.endpoint;
??CrossCallReturnLabel_7:
        PUSH      A
          CFI CFA_SP SP+-1
        MOV       A,#0x2
        LCALL     ?XSTACK_DISP0_8
        POP       A
          CFI CFA_SP SP+0
        MOVX      @DPTR,A
//  791       rec.profileID = selectedTarget.scanRsp.deviceInfo.profileID;
        MOV       DPTR,#selectedTarget + 32
        LCALL     ??Subroutine63_0 & 0xFFFF
??CrossCallReturnLabel_137:
        MOV       A,#0x3
        LCALL     ?XSTACK_DISP0_8
        LCALL     ?Subroutine25 & 0xFFFF
//  792       rec.deviceID = selectedTarget.scanRsp.deviceInfo.deviceID;
??CrossCallReturnLabel_130:
        MOV       A,#0x5
        LCALL     ?XSTACK_DISP0_8
        LCALL     ?Subroutine31 & 0xFFFF
//  793       rec.version = selectedTarget.scanRsp.deviceInfo.version;
??CrossCallReturnLabel_32:
        PUSH      A
          CFI CFA_SP SP+-1
        MOV       A,#0x7
        LCALL     ?XSTACK_DISP0_8
        POP       A
          CFI CFA_SP SP+0
        LCALL     ?Subroutine13 & 0xFFFF
//  794       // Notify the application
//  795       if ( pfnNotifyAppCB )
??CrossCallReturnLabel_124:
        JZ        ??touchLinkInitiator_event_loop_30
//  796       {
//  797         (*pfnNotifyAppCB)( &rec );
        ; Setup parameters for indirect call
        LCALL     ?Subroutine23 & 0xFFFF
//  798       }
??CrossCallReturnLabel_159:
        LCALL     ?CALL_IND
//  799       bdbAttributes.bdbCommissioningStatus = BDB_COMMISSIONING_SUCCESS;
??touchLinkInitiator_event_loop_30:
        MOV       DPTR,#bdbAttributes + 10
        CLR       A
        MOVX      @DPTR,A
//  800       bdb_reportCommissioningState( BDB_COMMISSIONING_STATE_TL, TRUE );
        ; Setup parameters for call to function bdb_reportCommissioningState
        MOV       R2,#0x1
??touchLinkInitiator_event_loop_25:
        MOV       R1,#0x2
        LCALL     `??bdb_reportCommissioningState::?relay`; Banked call to: bdb_reportCommissioningState
//  801     }
//  802 
//  803     // return unprocessed events
//  804     return ( events ^ TOUCHLINK_CFG_TARGET_EVT );
??touchLinkInitiator_event_loop_10:
        MOV       A,R6
        LJMP      ??touchLinkInitiator_event_loop_32 & 0xFFFF
//  805   }
//  806 
//  807   if ( events & TOUCHLINK_W4_NWK_START_RSP_EVT )
??touchLinkInitiator_event_loop_17:
        MOV       A,R2
        ANL       A,#0x80
        JNZ       $+5
        LJMP      ??touchLinkInitiator_event_loop_33 & 0xFFFF
//  808   {
//  809     bdbTLNwkStartRsp_t *pRsp = &(rxRsp.nwkStartRsp);
//  810 
//  811     // Look if we have a valid response
//  812     if ( ( pRsp->status == TOUCHLINK_NETWORK_START_RSP_STATUS_SUCCESS )
//  813        && ( ( nwk_ExtPANIDValid( pRsp->extendedPANID ) ) && ( touchLink_IsValidTransID( pRsp->transID ) ) ) )
        MOV       DPTR,#rxRsp + 4
        MOVX      A,@DPTR
        JNZ       ??touchLinkInitiator_event_loop_34
        ; Setup parameters for call to function nwk_ExtPANIDValid
        MOV       R2,#(rxRsp + 5) & 0xff
        MOV       R3,#((rxRsp + 5) >> 8) & 0xff
        LCALL     `??nwk_ExtPANIDValid::?relay`; Banked call to: nwk_ExtPANIDValid
        MOV       A,R1
        JZ        ??touchLinkInitiator_event_loop_34
        ; Setup parameters for call to function touchLink_IsValidTransID
        MOV       DPTR,#rxRsp
        LCALL     ?XLOAD_R2345
        LCALL     ?Subroutine34 & 0xFFFF
??CrossCallReturnLabel_36:
        JZ        ??touchLinkInitiator_event_loop_34
//  814     {
//  815       // Copy the new network parameters to NIB
//  816       touchLink_SetNIB( ( ZSTACK_ROUTER_BUILD ? NWK_ROUTER : NWK_REJOINING ),
//  817                   _NIB.nwkDevAddress, pRsp->extendedPANID,
//  818                   pRsp->logicalChannel, pRsp->panId, pRsp->nwkUpdateId );
        ; Setup parameters for call to function touchLink_SetNIB
        MOV       DPTR,#rxRsp + 13
        MOVX      A,@DPTR
        MOV       ?V0,A
        MOV       R0,#?V0
        LCALL     ?PUSH_XSTACK_I_ONE
          CFI CFA_XSP16 add(XSP16, 76)
        MOV       DPTR,#rxRsp + 15
        LCALL     ?PUSH_XSTACK8_X_TWO
          CFI CFA_XSP16 add(XSP16, 78)
        MOV       DPTR,#rxRsp + 14
        MOVX      A,@DPTR
        MOV       ?V0,A
        MOV       R0,#?V0
        LCALL     ?PUSH_XSTACK_I_ONE
          CFI CFA_XSP16 add(XSP16, 79)
        MOV       R4,#(rxRsp + 5) & 0xff
        MOV       R5,#((rxRsp + 5) >> 8) & 0xff
        MOV       DPTR,#_NIB + 20
        LCALL     ?Subroutine19 & 0xFFFF
??CrossCallReturnLabel_11:
        LCALL     ?DEALLOC_XSTACK8
          CFI CFA_XSP16 add(XSP16, 75)
//  819 
//  820       // Apply the received network key
//  821       touchLink_DecryptNwkKey( encKeySent, keyIndexSent, pRsp->transID, responseIDSent );
        ; Setup parameters for call to function touchLink_DecryptNwkKey
        MOV       DPTR,#responseIDSent
        LCALL     ?PUSH_XSTACK8_X_FOUR
          CFI CFA_XSP16 add(XSP16, 79)
        MOV       DPTR,#rxRsp
        LCALL     ?PUSH_XSTACK8_X_FOUR
          CFI CFA_XSP16 add(XSP16, 83)
        MOV       DPTR,#keyIndexSent
        MOVX      A,@DPTR
        MOV       R1,A
        MOV       R2,#encKeySent & 0xff
        MOV       R3,#(encKeySent >> 8) & 0xff
        LCALL     `??touchLink_DecryptNwkKey::?relay`; Banked call to: touchLink_DecryptNwkKey
        MOV       A,#0x8
        LCALL     ?DEALLOC_XSTACK8
          CFI CFA_XSP16 add(XSP16, 75)
//  822 
//  823       // This is not a usual Trust Center protected network
//  824       ZDSecMgrUpdateTCAddress( NULL );
        ; Setup parameters for call to function ZDSecMgrUpdateTCAddress
        MOV       R2,#0x0
        MOV       R3,#0x0
        LCALL     `??ZDSecMgrUpdateTCAddress::?relay`; Banked call to: ZDSecMgrUpdateTCAddress
//  825 
//  826       // Notify the application about this device
//  827       osal_set_event( touchLinkInitiator_TaskID, TOUCHLINK_NOTIFY_APP_EVT );
        ; Setup parameters for call to function osal_set_event
        MOV       R2,#0x0
        MOV       R3,#0x8
        LCALL     ??Subroutine68_0 & 0xFFFF
//  828 
//  829       // Wait at least BDBCTL_MIN_STARTUP_DELAY_TIME seconds to allow the
//  830       // target to start the network correctly. Join the target afterwards.
//  831       osal_start_timerEx( touchLinkInitiator_TaskID, TOUCHLINK_START_NWK_EVT, BDBCTL_MIN_STARTUP_DELAY_TIME );
??CrossCallReturnLabel_173:
        ; Setup parameters for call to function osal_start_timerEx
        MOV       DPTR,#__Constant_7d0
        LCALL     ?PUSH_XSTACK8_X_FOUR
          CFI CFA_XSP16 add(XSP16, 79)
        MOV       R2,#0x4
        LCALL     ??Subroutine58_0 & 0xFFFF
//  832     }
??CrossCallReturnLabel_115:
        LCALL     ?DEALLOC_XSTACK8
          CFI CFA_XSP16 add(XSP16, 75)
        SJMP      ??touchLinkInitiator_event_loop_35
//  833     else
//  834     {
//  835       // Notify the BDB state machine 
//  836       bdbAttributes.bdbCommissioningStatus = BDB_COMMISSIONING_NO_NETWORK;
??touchLinkInitiator_event_loop_34:
        MOV       DPTR,#bdbAttributes + 10
        MOV       A,#0x2
        MOVX      @DPTR,A
//  837       bdb_reportCommissioningState( BDB_COMMISSIONING_STATE_TL, FALSE );        
        ; Setup parameters for call to function bdb_reportCommissioningState
        MOV       R2,#0x0
        MOV       R1,A
        LCALL     `??bdb_reportCommissioningState::?relay`; Banked call to: bdb_reportCommissioningState
//  838     }
//  839 
//  840     // return unprocessed events
//  841     return ( events ^ TOUCHLINK_W4_NWK_START_RSP_EVT );
??touchLinkInitiator_event_loop_35:
        MOV       A,R6
        XRL       A,#0x80
        LJMP      ??touchLinkInitiator_event_loop_32 & 0xFFFF
//  842   }
//  843 
//  844   if ( events & TOUCHLINK_START_NWK_EVT )
??touchLinkInitiator_event_loop_33:
        MOV       A,R2
        ANL       A,#0x4
        JZ        ??touchLinkInitiator_event_loop_36
//  845   {
//  846     // Rejoins without NWK scan
//  847 
//  848     bdbTLNwkStartRsp_t *pRsp = &(rxRsp.nwkStartRsp);
//  849     bdbTLNwkRejoin_t rejoinInf;
//  850     
//  851     rejoinInf.panId = pRsp->panId;
        MOV       DPTR,#rxRsp + 15
        LCALL     ??Subroutine63_0 & 0xFFFF
??CrossCallReturnLabel_138:
        MOV       A,#0x1a
        LCALL     ?XSTACK_DISP0_8
        LCALL     ??Subroutine49_0 & 0xFFFF
//  852     rejoinInf.logicalChannel = pRsp->logicalChannel;
??CrossCallReturnLabel_87:
        MOV       DPTR,#rxRsp + 14
        MOVX      A,@DPTR
        PUSH      A
          CFI CFA_SP SP+-1
        MOV       A,#0x19
        LCALL     ?XSTACK_DISP0_8
        POP       A
          CFI CFA_SP SP+0
        MOVX      @DPTR,A
//  853     osal_memcpy( rejoinInf.extendedPANID, pRsp->extendedPANID, Z_EXTADDR_LEN);
        ; Setup parameters for call to function osal_memcpy
        MOV       ?V4,#(rxRsp + 5) & 0xff
        MOV       ?V5,#((rxRsp + 5) >> 8) & 0xff
        MOV       ?V6,#0x0
        MOV       R0,#?V4
        LCALL     ?PUSH_XSTACK_I_THREE
          CFI CFA_XSP16 add(XSP16, 78)
        MOV       R4,#0x8
        MOV       R5,#0x0
        MOV       A,#0x13
        LCALL     ?XSTACK_DISP101_8
        LCALL     `??osal_memcpy::?relay`; Banked call to: osal_memcpy
        MOV       A,#0x3
        LCALL     ?DEALLOC_XSTACK8
          CFI CFA_XSP16 add(XSP16, 75)
//  854     rejoinInf.nwkAddr = selectedTargetNwkAddr;
        MOV       DPTR,#selectedTargetNwkAddr
        LCALL     ??Subroutine63_0 & 0xFFFF
??CrossCallReturnLabel_139:
        MOV       A,#0x1c
        LCALL     ?XSTACK_DISP0_8
        LCALL     ??Subroutine49_0 & 0xFFFF
//  855     rejoinInf.nwkUpdateId = pRsp->nwkUpdateId;
??CrossCallReturnLabel_88:
        MOV       DPTR,#rxRsp + 13
        MOVX      A,@DPTR
        PUSH      A
          CFI CFA_SP SP+-1
        MOV       A,#0x18
        LCALL     ?XSTACK_DISP0_8
        POP       A
          CFI CFA_SP SP+0
        MOVX      @DPTR,A
//  856       
//  857     touchLink_DevRejoin( &rejoinInf );
        ; Setup parameters for call to function touchLink_DevRejoin
        MOV       A,#0x10
        LCALL     ?XSTACK_DISP101_8
        LCALL     `??touchLink_DevRejoin::?relay`; Banked call to: touchLink_DevRejoin
//  858 
//  859     // return unprocessed events
//  860     return ( events ^ TOUCHLINK_START_NWK_EVT );
        MOV       A,R6
        XRL       A,#0x4
        LJMP      ??touchLinkInitiator_event_loop_32 & 0xFFFF
//  861   }
//  862 
//  863   if ( events & TOUCHLINK_W4_NWK_JOIN_RSP_EVT )
??touchLinkInitiator_event_loop_36:
        MOV       A,R3
        ANL       A,#0x1
        JZ        ??touchLinkInitiator_event_loop_37
//  864   {
//  865     bdbTLNwkJoinRsp_t *pRsp = &(rxRsp.nwkJoinRsp);
//  866 
//  867     if ( pRsp->status == TOUCHLINK_NETWORK_JOIN_RSP_STATUS_SUCCESS )
        MOV       DPTR,#rxRsp + 4
        MOVX      A,@DPTR
        JNZ       ??touchLinkInitiator_event_loop_38
//  868     {
//  869       // Wait at least BDBCTL_MIN_STARTUP_DELAY_TIME seconds to allow the
//  870       // target to start operating on the network correctly. Notify the
//  871       // application afterwards.
//  872       osal_start_timerEx( touchLinkInitiator_TaskID, TOUCHLINK_NOTIFY_APP_EVT,
//  873                           BDBCTL_MIN_STARTUP_DELAY_TIME );
        ; Setup parameters for call to function osal_start_timerEx
        MOV       DPTR,#__Constant_7d0
        LCALL     ?PUSH_XSTACK8_X_FOUR
          CFI CFA_XSP16 add(XSP16, 79)
        MOV       R2,#0x0
        MOV       R3,#0x8
        LCALL     ??Subroutine59_0 & 0xFFFF
??CrossCallReturnLabel_119:
        LCALL     ?DEALLOC_XSTACK8
          CFI CFA_XSP16 add(XSP16, 75)
//  874       
//  875       // Establish bind links
//  876       if ( pRespondentHead != NULL )
        MOV       DPTR,#pRespondentHead
        LCALL     ??Subroutine62_0 & 0xFFFF
??CrossCallReturnLabel_127:
        JZ        ??touchLinkInitiator_event_loop_39
//  877       {
//  878         AddrMgrEntry_t entry;
//  879 
//  880         // add the device's address information
//  881         entry.user    = ADDRMGR_USER_BINDING;
        MOV       A,#0x1e
        LCALL     ?XSTACK_DISP0_8
        MOV       A,#0x4
        MOVX      @DPTR,A
//  882         entry.nwkAddr = selectedTargetNwkAddr;
        MOV       DPTR,#selectedTargetNwkAddr
        LCALL     ??Subroutine63_0 & 0xFFFF
??CrossCallReturnLabel_140:
        MOV       A,#0x1f
        LCALL     ?XSTACK_DISP0_8
        LCALL     ??Subroutine49_0 & 0xFFFF
//  883         osal_cpyExtAddr( entry.extAddr, selectedTargetIEEEAddr );
??CrossCallReturnLabel_89:
        ; Setup parameters for call to function sAddrExtCpy
        MOV       R4,#selectedTargetIEEEAddr & 0xff
        MOV       R5,#(selectedTargetIEEEAddr >> 8) & 0xff
        MOV       A,#0x21
        LCALL     ?XSTACK_DISP0_8
        MOV       R2,DPL
        MOV       R3,DPH
        LCALL     `??sAddrExtCpy::?relay`; Banked call to: sAddrExtCpy
//  884         AddrMgrEntryUpdate( &entry );
        ; Setup parameters for call to function AddrMgrEntryUpdate
        MOV       A,#0x1e
        LCALL     ?XSTACK_DISP101_8
        LCALL     `??AddrMgrEntryUpdate::?relay`; Banked call to: AddrMgrEntryUpdate
//  885         osal_start_timerEx( bdb_TaskID, BDB_RESPONDENT_PROCESS_TIMEOUT, SIMPLEDESC_RESPONSE_TIMEOUT );
        ; Setup parameters for call to function osal_start_timerEx
        MOV       DPTR,#__Constant_1388
        LCALL     ?PUSH_XSTACK8_X_FOUR
          CFI CFA_XSP16 add(XSP16, 79)
        MOV       R2,#0x0
        MOV       R3,#0x40
        MOV       DPTR,#bdb_TaskID
        LCALL     ??Subroutine60_0 & 0xFFFF
//  886       }
??CrossCallReturnLabel_123:
        LCALL     ?DEALLOC_XSTACK8
          CFI CFA_XSP16 add(XSP16, 75)
//  887       
//  888       // We're done with touch-link procedure here
//  889       initiatorSetNwkToInitState();
??touchLinkInitiator_event_loop_39:
        ; Setup parameters for call to function initiatorSetNwkToInitState
        LCALL     `??initiatorSetNwkToInitState::?relay`; Banked call to: initiatorSetNwkToInitState
//  890       //bdbAttributes.bdbCommissioningStatus = BDB_COMMISSIONING_SUCCESS;
//  891       //bdb_reportCommissioningState( BDB_COMMISSIONING_STATE_TL, TRUE );
//  892 
//  893       touchLink_UpdateNV( TOUCHLINK_UPDATE_NV_RANGES );
        ; Setup parameters for call to function touchLink_UpdateNV
        MOV       R1,#0x2
        LCALL     `??touchLink_UpdateNV::?relay`; Banked call to: touchLink_UpdateNV
//  894 
//  895       if ( ( POLL_RATE == 0 ) && ( selectedTarget.scanRsp.zLogicalType == ZG_DEVICETYPE_ENDDEVICE ) )
        SJMP      ??CrossCallReturnLabel_31
//  896       {
//  897         //allow to respond to TOUCHLINK commission utility commands after TL
//  898         NLME_SetPollRate( TOUCHLINK_INITIATOR_TEMP_POST_TL_POLL_RATE );
//  899         //polling should reset when TL life time expires
//  900       }
//  901     }
//  902     else 
//  903     {
//  904       touchLink_SendLeaveReq( );
??touchLinkInitiator_event_loop_38:
        ; Setup parameters for call to function touchLink_SendLeaveReq
        LCALL     `??touchLink_SendLeaveReq::?relay`; Banked call to: touchLink_SendLeaveReq
//  905       bdbAttributes.bdbCommissioningStatus = BDB_COMMISSIONING_TL_TARGET_FAILURE;
        MOV       DPTR,#bdbAttributes + 10
        MOV       A,#0x3
        LCALL     ?Subroutine30 & 0xFFFF
//  906       bdb_reportCommissioningState( BDB_COMMISSIONING_STATE_TL, FALSE );
//  907     }
//  908 
//  909     // return unprocessed events
//  910     return ( events ^ TOUCHLINK_W4_NWK_JOIN_RSP_EVT );
??CrossCallReturnLabel_31:
        MOV       A,R6
        MOV       R2,A
        MOV       A,R7
        XRL       A,#0x1
        LJMP      ??touchLinkInitiator_event_loop_5 & 0xFFFF
//  911   }
//  912 
//  913   if ( events & TOUCHLINK_NWK_JOIN_IND_EVT )
??touchLinkInitiator_event_loop_37:
        MOV       A,R2
        ANL       A,#0x2
        JZ        ??touchLinkInitiator_event_loop_40
//  914   {
//  915     // If not factory new, perform a Leave on our old network
//  916     if ( ( bdbAttributes.bdbNodeIsOnANetwork == TRUE ) && ( touchLink_SendLeaveReq( ) == ZSuccess ) )
        MOV       DPTR,#bdbAttributes + 14
        MOVX      A,@DPTR
        XRL       A,#0x1
        JNZ       ??touchLinkInitiator_event_loop_41
        ; Setup parameters for call to function touchLink_SendLeaveReq
        LCALL     `??touchLink_SendLeaveReq::?relay`; Banked call to: touchLink_SendLeaveReq
        MOV       A,R1
        JNZ       ??touchLinkInitiator_event_loop_41
//  917     {
//  918       // Wait for Leave confirmation before joining the new network
//  919       touchLinkLeaveInitiated = TOUCHLINK_LEAVE_TO_JOIN_NWK;
        MOV       DPTR,#touchLinkLeaveInitiated
        MOV       A,#0x1
        MOVX      @DPTR,A
        SJMP      ??CrossCallReturnLabel_174
//  920     }
//  921     else
//  922     {
//  923 #if ( ZSTACK_ROUTER_BUILD )
//  924       // Notify our task to join this network
//  925       osal_set_event( touchLinkInitiator_TaskID, TOUCHLINK_JOIN_NWK_ATTEMPT_EVT );
??touchLinkInitiator_event_loop_41:
        ; Setup parameters for call to function osal_set_event
        MOV       R2,#0x8
        MOV       R3,#0x0
        LCALL     ??Subroutine68_0 & 0xFFFF
//  926 #else
//  927       bdbTLNwkParams_t *pParams = &(joinReq.nwkParams);
//  928       
//  929       // Notify our task to join this network
//  930       // Perform Network Discovery to verify our new network parameters uniqeness
//  931       touchLink_PerformNetworkDisc( (uint32)1 << pParams->logicalChannel );
//  932 #endif
//  933     }
//  934 
//  935     // return unprocessed events
//  936     return ( events ^ TOUCHLINK_NWK_JOIN_IND_EVT );
??CrossCallReturnLabel_174:
        MOV       A,R6
        XRL       A,#0x2
        LJMP      ??touchLinkInitiator_event_loop_32 & 0xFFFF
//  937   }
//  938 
//  939   if ( events & TOUCHLINK_JOIN_NWK_ATTEMPT_EVT )
??touchLinkInitiator_event_loop_40:
        MOV       A,R2
        ANL       A,#0x8
        JZ        ??touchLinkInitiator_event_loop_42
//  940   {
//  941     // Join the network
//  942 #if ( ZSTACK_ROUTER_BUILD )
//  943     initiatorJoinNwk();
        ; Setup parameters for call to function touchLink_UpdateNV
        MOV       R1,#0x2
        LCALL     `??touchLink_UpdateNV::?relay`; Banked call to: touchLink_UpdateNV
        MOV       DPTR,#touchLinkLeaveInitiated
        CLR       A
        MOVX      @DPTR,A
        ; Setup parameters for call to function ZDApp_LeaveCtrlReset
        LCALL     `??ZDApp_LeaveCtrlReset::?relay`; Banked call to: ZDApp_LeaveCtrlReset
        ; Setup parameters for call to function touchLink_PermitJoin
        MOV       R1,#0x0
        LCALL     `??touchLink_PermitJoin::?relay`; Banked call to: touchLink_PermitJoin
        ; Setup parameters for call to function ZDOInitDeviceEx
        MOV       R1,#0x0
        MOV       R2,#0x0
        MOV       R3,#0x0
        LCALL     `??ZDOInitDeviceEx::?relay`; Banked call to: ZDOInitDeviceEx
        MOV       DPTR,#_NIB + 35
        MOV       A,#0x9
        MOVX      @DPTR,A
        ; Setup parameters for call to function initiatorReJoinNwk
        MOV       R1,#0x3
        LCALL     `??initiatorReJoinNwk::?relay`; Banked call to: initiatorReJoinNwk
//  944 #else
//  945     bdbTLNwkParams_t *pParams = &(joinReq.nwkParams);
//  946     
//  947     bdbTLNwkRejoin_t rejoinInf;
//  948          
//  949     rejoinInf.panId = pParams->panId;
//  950     rejoinInf.logicalChannel = pParams->logicalChannel;
//  951     osal_memcpy( rejoinInf.extendedPANID, pParams->extendedPANID, Z_EXTADDR_LEN);
//  952     rejoinInf.nwkAddr = pDiscoveredNwkParamList->chosenRouter;
//  953     rejoinInf.nwkUpdateId = joinReq.nwkUpdateId;
//  954       
//  955     touchLink_DevRejoin( &rejoinInf );
//  956 #endif
//  957     touchLink_FreeNwkParamList();
        ; Setup parameters for call to function touchLink_FreeNwkParamList
        LCALL     `??touchLink_FreeNwkParamList::?relay`; Banked call to: touchLink_FreeNwkParamList
//  958 
//  959     // return unprocessed events
//  960     return ( events ^ TOUCHLINK_JOIN_NWK_ATTEMPT_EVT );
        MOV       A,R6
        XRL       A,#0x8
        LJMP      ??touchLinkInitiator_event_loop_32 & 0xFFFF
//  961   }
//  962 
//  963   if ( events & TOUCHLINK_DISABLE_RX_EVT )
??touchLinkInitiator_event_loop_42:
        MOV       A,R3
        ANL       A,#0x2
        JZ        ??touchLinkInitiator_event_loop_43
//  964   {
//  965     // We're not asked to join a network
//  966     initiatorSetNwkToInitState();
        ; Setup parameters for call to function initiatorSetNwkToInitState
        LCALL     `??initiatorSetNwkToInitState::?relay`; Banked call to: initiatorSetNwkToInitState
//  967 
//  968     scanReqChannels = TOUCHLINK_SCAN_PRIMARY_CHANNELS;
        MOV       DPTR,#scanReqChannels
        MOV       A,#0x1
        MOVX      @DPTR,A
//  969     numScanReqSent = 0;
        MOV       DPTR,#numScanReqSent
        CLR       A
        MOVX      @DPTR,A
//  970     // Reset selected target
//  971     if ( zTouchLinkNwkStartRtr == FALSE )
        MOV       DPTR,#zTouchLinkNwkStartRtr
        MOVX      A,@DPTR
        JNZ       ??touchLinkInitiator_event_loop_44
//  972     {
//  973       initiatorClearSelectedTarget();
        ; Setup parameters for call to function initiatorClearSelectedTarget
        LCALL     `??initiatorClearSelectedTarget::?relay`; Banked call to: initiatorClearSelectedTarget
//  974     }
//  975 
//  976     // return unprocessed events
//  977     return ( events ^ TOUCHLINK_DISABLE_RX_EVT );
??touchLinkInitiator_event_loop_44:
        MOV       A,R6
        MOV       R2,A
        MOV       A,R7
        XRL       A,#0x2
        LJMP      ??touchLinkInitiator_event_loop_5 & 0xFFFF
//  978   }
//  979 
//  980   if ( events & TOUCHLINK_W4_REJOIN_EVT )
??touchLinkInitiator_event_loop_43:
        MOV       A,R3
        ANL       A,#0x4
        JZ        ??touchLinkInitiator_event_loop_45
//  981   {
//  982     // Stop joining cycle
//  983     ZDApp_StopJoiningCycle();
        ; Setup parameters for call to function ZDApp_StopJoiningCycle
        LCALL     `??ZDApp_StopJoiningCycle::?relay`; Banked call to: ZDApp_StopJoiningCycle
//  984 
//  985     // return unprocessed events
//  986     return ( events ^ TOUCHLINK_W4_REJOIN_EVT );
        MOV       A,R6
        MOV       R2,A
        MOV       A,R7
        XRL       A,#0x4
        LJMP      ??touchLinkInitiator_event_loop_5 & 0xFFFF
//  987   }
//  988 
//  989   if ( events & TOUCHLINK_NOTIFY_APP_EVT )
??touchLinkInitiator_event_loop_45:
        MOV       A,R3
        ANL       A,#0x8
        JZ        ??touchLinkInitiator_event_loop_46
//  990   {
//  991     ZDP_DeviceAnnce( NLME_GetShortAddr(), NLME_GetExtAddr(),
//  992                      ZDO_Config_Node_Descriptor.CapabilityFlags, 0 );
        ; Setup parameters for call to function NLME_GetExtAddr
        LCALL     `??NLME_GetExtAddr::?relay`; Banked call to: NLME_GetExtAddr
        MOV       ?V0,R2
        MOV       ?V1,R3
        ; Setup parameters for call to function NLME_GetShortAddr
        LCALL     `??NLME_GetShortAddr::?relay`; Banked call to: NLME_GetShortAddr
        ; Setup parameters for call to function ZDP_DeviceAnnce
        MOV       ?V3,#0x0
        MOV       R0,#?V3
        LCALL     ?PUSH_XSTACK_I_ONE
          CFI CFA_XSP16 add(XSP16, 76)
        MOV       DPTR,#ZDO_Config_Node_Descriptor + 2
        MOVX      A,@DPTR
        MOV       R1,A
        MOV       R4,?V0
        MOV       R5,?V1
        LCALL     `??ZDP_DeviceAnnce::?relay`; Banked call to: ZDP_DeviceAnnce
        MOV       A,#0x1
        LCALL     ?DEALLOC_XSTACK8
          CFI CFA_XSP16 add(XSP16, 75)
//  993     
//  994     if ( selectedTarget.lastRssi > TOUCHLINK_WORST_RSSI )
        MOV       DPTR,#selectedTarget + 53
        MOVX      A,@DPTR
        LCALL     ?Subroutine35 & 0xFFFF
??CrossCallReturnLabel_46:
        JC        ??touchLinkInitiator_event_loop_47
//  995     {
//  996       epInfoRec_t rec;
//  997       rec.nwkAddr = selectedTarget.newNwkAddr; // newly assigned network address
        MOV       DPTR,#selectedTarget + 50
        LCALL     ?Subroutine14 & 0xFFFF
//  998       rec.endpoint = selectedTarget.scanRsp.deviceInfo.endpoint;
??CrossCallReturnLabel_8:
        PUSH      A
          CFI CFA_SP SP+-1
        MOV       A,#0x2
        LCALL     ?XSTACK_DISP0_8
        POP       A
          CFI CFA_SP SP+0
        MOVX      @DPTR,A
//  999       rec.profileID = selectedTarget.scanRsp.deviceInfo.profileID;
        MOV       DPTR,#selectedTarget + 32
        LCALL     ??Subroutine63_0 & 0xFFFF
??CrossCallReturnLabel_141:
        MOV       A,#0x3
        LCALL     ?XSTACK_DISP0_8
        LCALL     ?Subroutine25 & 0xFFFF
// 1000       rec.deviceID = selectedTarget.scanRsp.deviceInfo.deviceID;
??CrossCallReturnLabel_131:
        MOV       A,#0x5
        LCALL     ?XSTACK_DISP0_8
        LCALL     ?Subroutine31 & 0xFFFF
// 1001       rec.version = selectedTarget.scanRsp.deviceInfo.version;
??CrossCallReturnLabel_33:
        PUSH      A
          CFI CFA_SP SP+-1
        MOV       A,#0x7
        LCALL     ?XSTACK_DISP0_8
        POP       A
          CFI CFA_SP SP+0
        LCALL     ?Subroutine13 & 0xFFFF
// 1002       // Notify the application
// 1003       if ( pfnNotifyAppCB )
??CrossCallReturnLabel_125:
        JZ        ??touchLinkInitiator_event_loop_47
// 1004       {
// 1005         (*pfnNotifyAppCB)( &rec );
        ; Setup parameters for indirect call
        LCALL     ?Subroutine23 & 0xFFFF
// 1006       }
// 1007     }
??CrossCallReturnLabel_160:
        LCALL     ?CALL_IND
// 1008     // return unprocessed events
// 1009     return ( events ^ TOUCHLINK_NOTIFY_APP_EVT );
??touchLinkInitiator_event_loop_47:
        MOV       A,R6
        MOV       R2,A
        MOV       A,R7
        XRL       A,#0x8
        LJMP      ??touchLinkInitiator_event_loop_5 & 0xFFFF
// 1010   }
// 1011   
// 1012   if ( events & TOUCHLINK_NWK_RTR_START_EVT )
??touchLinkInitiator_event_loop_46:
        MOV       A,R3
        ANL       A,#0x10
        JNZ       $+5
        LJMP      ??touchLinkInitiator_event_loop_48 & 0xFFFF
// 1013   {
// 1014     uint16 nwkAddr = INVALID_NODE_ADDR;
        MOV       A,#0xe
        LCALL     ?XSTACK_DISP0_8
        MOV       A,#-0x2
        MOVX      @DPTR,A
        INC       DPTR
        INC       A
        MOVX      @DPTR,A
// 1015     
// 1016     osal_nv_write( ZCD_NV_NIB, osal_offsetof( nwkIB_t, nwkDevAddress ),
// 1017                    sizeof( uint16), &nwkAddr );
        ; Setup parameters for call to function osal_nv_write
        MOV       A,#0xe
        LCALL     ?XSTACK_DISP100_8
        MOV       ?V0,R0
        MOV       ?V1,R1
        MOV       R0,#?V0
        LCALL     ?PUSH_XSTACK_I_TWO
          CFI CFA_XSP16 add(XSP16, 77)
        MOV       ?V0,#0x2
        MOV       ?V1,#0x0
        MOV       R0,#?V0
        LCALL     ?PUSH_XSTACK_I_TWO
          CFI CFA_XSP16 add(XSP16, 79)
        MOV       R4,#0x14
        MOV       R5,#0x0
        MOV       R2,#0x21
        MOV       R3,#0x0
        LCALL     `??osal_nv_write::?relay`; Banked call to: osal_nv_write
        MOV       A,#0x4
        LCALL     ?DEALLOC_XSTACK8
          CFI CFA_XSP16 add(XSP16, 75)
// 1018     
// 1019     // If the PAN Id, Extended PAN Id or Logical Channel are zero then
// 1020     // determine each of these parameters
// 1021     if ( !nwk_ExtPANIDValid( initiatorNwkParams.extendedPANID ) )
        ; Setup parameters for call to function nwk_ExtPANIDValid
        MOV       R2,#initiatorNwkParams & 0xff
        MOV       R3,#(initiatorNwkParams >> 8) & 0xff
        LCALL     `??nwk_ExtPANIDValid::?relay`; Banked call to: nwk_ExtPANIDValid
        MOV       A,R1
        JNZ       ??touchLinkInitiator_event_loop_49
// 1022     {
// 1023       touchLink_GenerateRandNum( initiatorNwkParams.extendedPANID, Z_EXTADDR_LEN );
        ; Setup parameters for call to function touchLink_GenerateRandNum
        MOV       R1,#0x8
        MOV       R2,#initiatorNwkParams & 0xff
        MOV       R3,#(initiatorNwkParams >> 8) & 0xff
        LCALL     `??touchLink_GenerateRandNum::?relay`; Banked call to: touchLink_GenerateRandNum
// 1024     }
// 1025 
// 1026     if ( initiatorNwkParams.panId == 0 )
??touchLinkInitiator_event_loop_49:
        MOV       DPTR,#initiatorNwkParams + 26
        LCALL     ??Subroutine62_0 & 0xFFFF
??CrossCallReturnLabel_128:
        JNZ       ??CrossCallReturnLabel_78
// 1027     {
// 1028       initiatorNwkParams.panId = osal_rand();
        ; Setup parameters for call to function osal_rand
        LCALL     `??osal_rand::?relay`; Banked call to: osal_rand
        MOV       DPTR,#initiatorNwkParams + 26
        LCALL     ?Subroutine26 & 0xFFFF
// 1029     }
// 1030 
// 1031     if ( initiatorNwkParams.logicalChannel == 0 )
??CrossCallReturnLabel_78:
        MOV       DPTR,#initiatorNwkParams + 25
        MOVX      A,@DPTR
        JNZ       ??touchLinkInitiator_event_loop_50
// 1032     {
// 1033       initiatorNwkParams.logicalChannel = touchLink_GetRandPrimaryChannel();
        ; Setup parameters for call to function touchLink_GetRandPrimaryChannel
        LCALL     `??touchLink_GetRandPrimaryChannel::?relay`; Banked call to: touchLink_GetRandPrimaryChannel
        MOV       A,R1
        MOV       DPTR,#initiatorNwkParams + 25
        MOVX      @DPTR,A
// 1034     }
// 1035 
// 1036     if ( selectedTarget.scanRsp.touchLinkAddressAssignment)
??touchLinkInitiator_event_loop_50:
        MOV       DPTR,#selectedTarget + 7
        MOVX      A,@DPTR
        ANL       A,#0x2
        JZ        ??touchLinkInitiator_event_loop_51
// 1037     {
// 1038       touchLink_GerFreeRanges( &initiatorNwkParams );
        ; Setup parameters for call to function touchLink_GerFreeRanges
        MOV       R2,#initiatorNwkParams & 0xff
        MOV       R3,#(initiatorNwkParams >> 8) & 0xff
        LCALL     `??touchLink_GerFreeRanges::?relay`; Banked call to: touchLink_GerFreeRanges
// 1039     }
// 1040 
// 1041     // Perform Network Discovery to verify our new network parameters uniqeness
// 1042     touchLink_PerformNetworkDisc( (uint32)1 << initiatorNwkParams.logicalChannel );
??touchLinkInitiator_event_loop_51:
        ; Setup parameters for call to function touchLink_PerformNetworkDisc
        MOV       ?V4,#0x1
        MOV       ?V5,#0x0
        MOV       ?V6,#0x0
        MOV       ?V7,#0x0
        MOV       DPTR,#initiatorNwkParams + 25
        MOVX      A,@DPTR
        MOV       R0,#?V4
        LCALL     ?L_SHL
        MOV       R2,?V4
        MOV       R3,?V5
        MOV       R4,?V6
        MOV       R5,?V7
        LCALL     `??touchLink_PerformNetworkDisc::?relay`; Banked call to: touchLink_PerformNetworkDisc
// 1043 
// 1044     // return unprocessed events
// 1045     return ( events ^ TOUCHLINK_NWK_RTR_START_EVT );
        MOV       A,R6
        MOV       R2,A
        MOV       A,R7
        XRL       A,#0x10
        LJMP      ??touchLinkInitiator_event_loop_5 & 0xFFFF
// 1046   }
// 1047   
// 1048   if ( events & TOUCHLINK_NWK_FORMATION_SUCCESS_EVT )
??touchLinkInitiator_event_loop_48:
        MOV       A,R3
        ANL       A,#0x20
        JZ        ??touchLinkInitiator_event_loop_52
// 1049   {
// 1050     if( bdbCommissioningProcedureState.bdbCommissioningState == BDB_COMMISSIONING_STATE_TL )
        MOV       DPTR,#bdbCommissioningProcedureState
        MOVX      A,@DPTR
        XRL       A,#0x2
        JNZ       ??touchLinkInitiator_event_loop_53
// 1051     {
// 1052       bdbTLNwkJoinRsp_t *pRsp = &(rxRsp.nwkJoinRsp);
// 1053       pRsp->status = TOUCHLINK_NETWORK_JOIN_RSP_STATUS_FAILURE;
        MOV       DPTR,#rxRsp + 4
        MOV       A,#0x1
        MOVX      @DPTR,A
// 1054       
// 1055       // Tune to the channel that the Scan Response was heard on
// 1056       touchLink_SetChannel( selectedTarget.rxChannel );
        ; Setup parameters for call to function touchLink_SetChannel
        LCALL     ?Subroutine17 & 0xFFFF
// 1057       
// 1058       if ( _NIB.nwkUpdateId <= selectedTarget.scanRsp.nwkUpdateId )
??CrossCallReturnLabel_182:
        MOV       DPTR,#selectedTarget + 23
        MOVX      A,@DPTR
        MOV       R1,A
        MOV       DPTR,#_NIB + 109
        MOVX      A,@DPTR
        MOV       R0,A
        MOV       A,R1
        CLR       C
        SUBB      A,R0
        JC        ??touchLinkInitiator_event_loop_54
// 1059       {
// 1060         NLME_SetUpdateID( selectedTarget.scanRsp.nwkUpdateId );
        ; Setup parameters for call to function NLME_SetUpdateID
        LCALL     `??NLME_SetUpdateID::?relay`; Banked call to: NLME_SetUpdateID
// 1061       }
// 1062       // Ask the target to join our network
// 1063       bdb_Initiator_SendNwkJoinReq( );
??touchLinkInitiator_event_loop_54:
        ; Setup parameters for call to function bdb_Initiator_SendNwkJoinReq
        LCALL     `??bdb_Initiator_SendNwkJoinReq::?relay`; Banked call to: bdb_Initiator_SendNwkJoinReq
// 1064       zTouchLinkNwkStartRtr = FALSE;
        MOV       DPTR,#zTouchLinkNwkStartRtr
        CLR       A
        MOVX      @DPTR,A
// 1065     }
// 1066     return ( events ^ TOUCHLINK_NWK_FORMATION_SUCCESS_EVT );
??touchLinkInitiator_event_loop_53:
        MOV       A,R6
        MOV       R2,A
        MOV       A,R7
        XRL       A,#0x20
        SJMP      ??touchLinkInitiator_event_loop_5
// 1067   }
// 1068 
// 1069   if ( events & TOUCHLINK_NWK_DISC_CNF_EVT )
??touchLinkInitiator_event_loop_52:
        MOV       A,R2
        MOV       C,0xE0 /* A   */.0
        JNC       ??touchLinkInitiator_event_loop_55
// 1070   {
// 1071 #if ZSTACK_ROUTER_BUILD
// 1072     if ( bdbAttributes.bdbNodeIsOnANetwork == FALSE )
        MOV       DPTR,#bdbAttributes + 14
        MOVX      A,@DPTR
        JNZ       ??touchLinkInitiator_event_loop_56
// 1073     {
// 1074       initiatorNwkParams.nwkAddr = APL_FREE_NWK_ADDR_RANGE_BEGIN;
        MOV       DPTR,#initiatorNwkParams + 28
        MOV       A,#0x1
        MOVX      @DPTR,A
        INC       DPTR
        CLR       A
        MOVX      @DPTR,A
// 1075     }
// 1076     // Copy in the encrypted network key
// 1077     touchLink_EncryptNwkKey( initiatorNwkParams.nwkKey, initiatorNwkParams.keyIndex, touchLinkTransID, touchLinkResponseID );
??touchLinkInitiator_event_loop_56:
        ; Setup parameters for call to function touchLink_EncryptNwkKey
        MOV       DPTR,#touchLinkResponseID
        LCALL     ?PUSH_XSTACK8_X_FOUR
          CFI CFA_XSP16 add(XSP16, 79)
        MOV       DPTR,#touchLinkTransID
        LCALL     ?PUSH_XSTACK8_X_FOUR
          CFI CFA_XSP16 add(XSP16, 83)
        MOV       DPTR,#initiatorNwkParams + 8
        MOVX      A,@DPTR
        MOV       R1,A
        MOV       R2,#(initiatorNwkParams + 9) & 0xff
        MOV       R3,#((initiatorNwkParams + 9) >> 8) & 0xff
        LCALL     `??touchLink_EncryptNwkKey::?relay`; Banked call to: touchLink_EncryptNwkKey
        MOV       A,#0x8
        LCALL     ?DEALLOC_XSTACK8
          CFI CFA_XSP16 add(XSP16, 75)
// 1078     // Start operating on the new network
// 1079     touchLinkStartRtr( &initiatorNwkParams, touchLinkTransID );
        ; Setup parameters for call to function touchLinkStartRtr
        MOV       DPTR,#touchLinkTransID
        LCALL     ?PUSH_XSTACK8_X_FOUR
          CFI CFA_XSP16 add(XSP16, 79)
        MOV       R2,#initiatorNwkParams & 0xff
        MOV       R3,#(initiatorNwkParams >> 8) & 0xff
        LCALL     `??touchLinkStartRtr::?relay`; Banked call to: touchLinkStartRtr
        MOV       A,#0x4
        LCALL     ?DEALLOC_XSTACK8
          CFI CFA_XSP16 add(XSP16, 75)
// 1080 #else
// 1081     // Join to the chosen network
// 1082     osal_set_event( touchLinkInitiator_TaskID, TOUCHLINK_JOIN_NWK_ATTEMPT_EVT );
// 1083 #endif
// 1084     // return unprocessed events
// 1085     return ( events ^ TOUCHLINK_NWK_DISC_CNF_EVT );
        MOV       A,R6
        XRL       A,#0x1
        SJMP      ??touchLinkInitiator_event_loop_32
// 1086   }
// 1087 
// 1088   if ( events & TOUCHLINK_TRANS_LIFETIME_EXPIRED_EVT )
??touchLinkInitiator_event_loop_55:
        ANL       A,#0x10
        JZ        ??touchLinkInitiator_event_loop_57
// 1089   {
// 1090     touchLinkTransID = 0;
        MOV       DPTR,#touchLinkTransID
        CLR       A
        MOVX      @DPTR,A
        INC       DPTR
        MOVX      @DPTR,A
        INC       DPTR
        MOVX      @DPTR,A
        INC       DPTR
        MOVX      @DPTR,A
// 1091     initiatorClearSelectedTarget();
        ; Setup parameters for call to function initiatorClearSelectedTarget
        LCALL     `??initiatorClearSelectedTarget::?relay`; Banked call to: initiatorClearSelectedTarget
// 1092     initiatorSetNwkToInitState();
        ; Setup parameters for call to function initiatorSetNwkToInitState
        LCALL     `??initiatorSetNwkToInitState::?relay`; Banked call to: initiatorSetNwkToInitState
// 1093 
// 1094     // return unprocessed events
// 1095     return ( events ^ TOUCHLINK_TRANS_LIFETIME_EXPIRED_EVT );
        MOV       A,R6
        XRL       A,#0x10
??touchLinkInitiator_event_loop_32:
        MOV       R2,A
        MOV       A,R7
??touchLinkInitiator_event_loop_5:
        MOV       R3,A
        SJMP      ??touchLinkInitiator_event_loop_58
// 1096   }
// 1097 
// 1098   // If reach here, the events are unknown
// 1099   // Discard or make more handlers
// 1100   return 0;
??touchLinkInitiator_event_loop_57:
        MOV       R2,#0x0
        MOV       R3,#0x0
??touchLinkInitiator_event_loop_58:
        MOV       A,#0x3b
        LJMP      ?Subroutine1 & 0xFFFF
// 1101 }
          CFI EndBlock cfiBlock24

        RSEG BANKED_CODE:HUGECODE:NOROOT(0)
?Subroutine31:
          CFI Block cfiCond25 Using cfiCommon0
          CFI Function touchLinkInitiator_event_loop
          CFI Conditional ??CrossCallReturnLabel_32
          CFI R6 load(1, XDATA, add(CFA_XSP16, literal(-16)))
          CFI VB load(1, XDATA, add(CFA_XSP16, literal(-15)))
          CFI V0 load(1, XDATA, add(CFA_XSP16, literal(-14)))
          CFI V1 load(1, XDATA, add(CFA_XSP16, literal(-13)))
          CFI V2 load(1, XDATA, add(CFA_XSP16, literal(-12)))
          CFI V3 load(1, XDATA, add(CFA_XSP16, literal(-11)))
          CFI V4 load(1, XDATA, add(CFA_XSP16, literal(-10)))
          CFI V5 load(1, XDATA, add(CFA_XSP16, literal(-9)))
          CFI V6 load(1, XDATA, add(CFA_XSP16, literal(-8)))
          CFI V7 load(1, XDATA, add(CFA_XSP16, literal(-7)))
          CFI R7 load(1, XDATA, add(CFA_XSP16, literal(-6)))
          CFI ?RET_LOW load(1, XDATA, add(CFA_XSP16, literal(-5)))
          CFI ?RET_HIGH load(1, XDATA, add(CFA_XSP16, literal(-4)))
          CFI ?BRET_EXT load(1, XDATA, add(CFA_XSP16, literal(-3)))
          CFI DPL0 load(1, XDATA, add(CFA_XSP16, literal(-2)))
          CFI DPH0 load(1, XDATA, add(CFA_XSP16, literal(-1)))
          CFI CFA_SP SP+-2
          CFI CFA_XSP16 add(XSP16, 75)
          CFI Block cfiCond26 Using cfiCommon0
          CFI (cfiCond26) Function touchLinkInitiator_event_loop
          CFI (cfiCond26) Conditional ??CrossCallReturnLabel_33
          CFI (cfiCond26) R6 load(1, XDATA, add(CFA_XSP16, literal(-16)))
          CFI (cfiCond26) VB load(1, XDATA, add(CFA_XSP16, literal(-15)))
          CFI (cfiCond26) V0 load(1, XDATA, add(CFA_XSP16, literal(-14)))
          CFI (cfiCond26) V1 load(1, XDATA, add(CFA_XSP16, literal(-13)))
          CFI (cfiCond26) V2 load(1, XDATA, add(CFA_XSP16, literal(-12)))
          CFI (cfiCond26) V3 load(1, XDATA, add(CFA_XSP16, literal(-11)))
          CFI (cfiCond26) V4 load(1, XDATA, add(CFA_XSP16, literal(-10)))
          CFI (cfiCond26) V5 load(1, XDATA, add(CFA_XSP16, literal(-9)))
          CFI (cfiCond26) V6 load(1, XDATA, add(CFA_XSP16, literal(-8)))
          CFI (cfiCond26) V7 load(1, XDATA, add(CFA_XSP16, literal(-7)))
          CFI (cfiCond26) R7 load(1, XDATA, add(CFA_XSP16, literal(-6)))
          CFI (cfiCond26) ?RET_LOW load(1, XDATA, add(CFA_XSP16, literal(-5)))
          CFI (cfiCond26) ?RET_HIGH load(1, XDATA, add(CFA_XSP16, literal(-4)))
          CFI (cfiCond26) ?BRET_EXT load(1, XDATA, add(CFA_XSP16, literal(-3)))
          CFI (cfiCond26) DPL0 load(1, XDATA, add(CFA_XSP16, literal(-2)))
          CFI (cfiCond26) DPH0 load(1, XDATA, add(CFA_XSP16, literal(-1)))
          CFI (cfiCond26) CFA_SP SP+-2
          CFI (cfiCond26) CFA_XSP16 add(XSP16, 75)
          CFI Block cfiPicker27 Using cfiCommon1
          CFI (cfiPicker27) NoFunction
          CFI (cfiPicker27) Picker
        MOV       A,R0
        MOVX      @DPTR,A
        INC       DPTR
        MOV       A,R1
        MOVX      @DPTR,A
        MOV       DPTR,#selectedTarget + 36
        MOVX      A,@DPTR
        RET
          CFI EndBlock cfiCond25
          CFI EndBlock cfiCond26
          CFI EndBlock cfiPicker27

        RSEG BANKED_CODE:HUGECODE:NOROOT(0)
?Subroutine30:
          CFI Block cfiCond28 Using cfiCommon0
          CFI Function touchLinkInitiator_event_loop
          CFI Conditional ??CrossCallReturnLabel_30
          CFI R6 load(1, XDATA, add(CFA_XSP16, literal(-16)))
          CFI VB load(1, XDATA, add(CFA_XSP16, literal(-15)))
          CFI V0 load(1, XDATA, add(CFA_XSP16, literal(-14)))
          CFI V1 load(1, XDATA, add(CFA_XSP16, literal(-13)))
          CFI V2 load(1, XDATA, add(CFA_XSP16, literal(-12)))
          CFI V3 load(1, XDATA, add(CFA_XSP16, literal(-11)))
          CFI V4 load(1, XDATA, add(CFA_XSP16, literal(-10)))
          CFI V5 load(1, XDATA, add(CFA_XSP16, literal(-9)))
          CFI V6 load(1, XDATA, add(CFA_XSP16, literal(-8)))
          CFI V7 load(1, XDATA, add(CFA_XSP16, literal(-7)))
          CFI R7 load(1, XDATA, add(CFA_XSP16, literal(-6)))
          CFI ?RET_LOW load(1, XDATA, add(CFA_XSP16, literal(-5)))
          CFI ?RET_HIGH load(1, XDATA, add(CFA_XSP16, literal(-4)))
          CFI ?BRET_EXT load(1, XDATA, add(CFA_XSP16, literal(-3)))
          CFI DPL0 load(1, XDATA, add(CFA_XSP16, literal(-2)))
          CFI DPH0 load(1, XDATA, add(CFA_XSP16, literal(-1)))
          CFI CFA_SP SP+-2
          CFI CFA_XSP16 add(XSP16, 75)
          CFI Block cfiCond29 Using cfiCommon0
          CFI (cfiCond29) Function touchLinkInitiator_event_loop
          CFI (cfiCond29) Conditional ??CrossCallReturnLabel_31
          CFI (cfiCond29) R6 load(1, XDATA, add(CFA_XSP16, literal(-16)))
          CFI (cfiCond29) VB load(1, XDATA, add(CFA_XSP16, literal(-15)))
          CFI (cfiCond29) V0 load(1, XDATA, add(CFA_XSP16, literal(-14)))
          CFI (cfiCond29) V1 load(1, XDATA, add(CFA_XSP16, literal(-13)))
          CFI (cfiCond29) V2 load(1, XDATA, add(CFA_XSP16, literal(-12)))
          CFI (cfiCond29) V3 load(1, XDATA, add(CFA_XSP16, literal(-11)))
          CFI (cfiCond29) V4 load(1, XDATA, add(CFA_XSP16, literal(-10)))
          CFI (cfiCond29) V5 load(1, XDATA, add(CFA_XSP16, literal(-9)))
          CFI (cfiCond29) V6 load(1, XDATA, add(CFA_XSP16, literal(-8)))
          CFI (cfiCond29) V7 load(1, XDATA, add(CFA_XSP16, literal(-7)))
          CFI (cfiCond29) R7 load(1, XDATA, add(CFA_XSP16, literal(-6)))
          CFI (cfiCond29) ?RET_LOW load(1, XDATA, add(CFA_XSP16, literal(-5)))
          CFI (cfiCond29) ?RET_HIGH load(1, XDATA, add(CFA_XSP16, literal(-4)))
          CFI (cfiCond29) ?BRET_EXT load(1, XDATA, add(CFA_XSP16, literal(-3)))
          CFI (cfiCond29) DPL0 load(1, XDATA, add(CFA_XSP16, literal(-2)))
          CFI (cfiCond29) DPH0 load(1, XDATA, add(CFA_XSP16, literal(-1)))
          CFI (cfiCond29) CFA_SP SP+-2
          CFI (cfiCond29) CFA_XSP16 add(XSP16, 75)
          CFI Block cfiPicker30 Using cfiCommon1
          CFI (cfiPicker30) NoFunction
          CFI (cfiPicker30) Picker
        MOVX      @DPTR,A
        ; Setup parameters for call to function bdb_reportCommissioningState
        ; Setup parameters for call to function bdb_reportCommissioningState
        MOV       R2,#0x0
        MOV       R1,#0x2
        LCALL     `??bdb_reportCommissioningState::?relay`; Banked call to: bdb_reportCommissioningState
        RET
          CFI EndBlock cfiCond28
          CFI EndBlock cfiCond29
          CFI EndBlock cfiPicker30

        RSEG BANKED_CODE:HUGECODE:NOROOT(0)
?Subroutine26:
          CFI Block cfiCond31 Using cfiCommon0
          CFI Function initiatorSelectNwkParams
          CFI Conditional ??CrossCallReturnLabel_76
          CFI DPL0 Frame(CFA_SP, 4)
          CFI DPH0 Frame(CFA_SP, 5)
          CFI CFA_SP SP+-7
          CFI Block cfiCond32 Using cfiCommon0
          CFI (cfiCond32) Function initiatorSelectNwkParams
          CFI (cfiCond32) Conditional ??CrossCallReturnLabel_77
          CFI (cfiCond32) DPL0 Frame(CFA_SP, 4)
          CFI (cfiCond32) DPH0 Frame(CFA_SP, 5)
          CFI (cfiCond32) CFA_SP SP+-7
          CFI Block cfiCond33 Using cfiCommon0
          CFI (cfiCond33) Function touchLinkInitiator_event_loop
          CFI (cfiCond33) Conditional ??CrossCallReturnLabel_78
          CFI (cfiCond33) R6 load(1, XDATA, add(CFA_XSP16, literal(-16)))
          CFI (cfiCond33) VB load(1, XDATA, add(CFA_XSP16, literal(-15)))
          CFI (cfiCond33) V0 load(1, XDATA, add(CFA_XSP16, literal(-14)))
          CFI (cfiCond33) V1 load(1, XDATA, add(CFA_XSP16, literal(-13)))
          CFI (cfiCond33) V2 load(1, XDATA, add(CFA_XSP16, literal(-12)))
          CFI (cfiCond33) V3 load(1, XDATA, add(CFA_XSP16, literal(-11)))
          CFI (cfiCond33) V4 load(1, XDATA, add(CFA_XSP16, literal(-10)))
          CFI (cfiCond33) V5 load(1, XDATA, add(CFA_XSP16, literal(-9)))
          CFI (cfiCond33) V6 load(1, XDATA, add(CFA_XSP16, literal(-8)))
          CFI (cfiCond33) V7 load(1, XDATA, add(CFA_XSP16, literal(-7)))
          CFI (cfiCond33) R7 load(1, XDATA, add(CFA_XSP16, literal(-6)))
          CFI (cfiCond33) ?RET_LOW load(1, XDATA, add(CFA_XSP16, literal(-5)))
          CFI (cfiCond33) ?RET_HIGH load(1, XDATA, add(CFA_XSP16, literal(-4)))
          CFI (cfiCond33) ?BRET_EXT load(1, XDATA, add(CFA_XSP16, literal(-3)))
          CFI (cfiCond33) DPL0 load(1, XDATA, add(CFA_XSP16, literal(-2)))
          CFI (cfiCond33) DPH0 load(1, XDATA, add(CFA_XSP16, literal(-1)))
          CFI (cfiCond33) CFA_SP SP+-2
          CFI (cfiCond33) CFA_XSP16 add(XSP16, 75)
          CFI Block cfiCond34 Using cfiCommon0
          CFI (cfiCond34) Function touchLinkInitiator_SendEPInfo
          CFI (cfiCond34) Conditional ??CrossCallReturnLabel_79
          CFI (cfiCond34) R6 load(1, XDATA, add(CFA_XSP16, literal(-12)))
          CFI (cfiCond34) VB load(1, XDATA, add(CFA_XSP16, literal(-11)))
          CFI (cfiCond34) V0 load(1, XDATA, add(CFA_XSP16, literal(-10)))
          CFI (cfiCond34) V1 load(1, XDATA, add(CFA_XSP16, literal(-9)))
          CFI (cfiCond34) V2 load(1, XDATA, add(CFA_XSP16, literal(-8)))
          CFI (cfiCond34) V3 load(1, XDATA, add(CFA_XSP16, literal(-7)))
          CFI (cfiCond34) R7 load(1, XDATA, add(CFA_XSP16, literal(-6)))
          CFI (cfiCond34) ?RET_LOW load(1, XDATA, add(CFA_XSP16, literal(-5)))
          CFI (cfiCond34) ?RET_HIGH load(1, XDATA, add(CFA_XSP16, literal(-4)))
          CFI (cfiCond34) ?BRET_EXT load(1, XDATA, add(CFA_XSP16, literal(-3)))
          CFI (cfiCond34) DPL0 load(1, XDATA, add(CFA_XSP16, literal(-2)))
          CFI (cfiCond34) DPH0 load(1, XDATA, add(CFA_XSP16, literal(-1)))
          CFI (cfiCond34) CFA_SP SP+-2
          CFI (cfiCond34) CFA_XSP16 add(XSP16, 35)
          CFI Block cfiCond35 Using cfiCommon0
          CFI (cfiCond35) Function touchLink_InitiatorSendScanRsp
          CFI (cfiCond35) Conditional ??CrossCallReturnLabel_80
          CFI (cfiCond35) R6 load(1, XDATA, add(CFA_XSP16, literal(-22)))
          CFI (cfiCond35) VB load(1, XDATA, add(CFA_XSP16, literal(-21)))
          CFI (cfiCond35) V0 load(1, XDATA, add(CFA_XSP16, literal(-20)))
          CFI (cfiCond35) V1 load(1, XDATA, add(CFA_XSP16, literal(-19)))
          CFI (cfiCond35) V2 load(1, XDATA, add(CFA_XSP16, literal(-18)))
          CFI (cfiCond35) V3 load(1, XDATA, add(CFA_XSP16, literal(-17)))
          CFI (cfiCond35) V4 load(1, XDATA, add(CFA_XSP16, literal(-16)))
          CFI (cfiCond35) V5 load(1, XDATA, add(CFA_XSP16, literal(-15)))
          CFI (cfiCond35) V6 load(1, XDATA, add(CFA_XSP16, literal(-14)))
          CFI (cfiCond35) V7 load(1, XDATA, add(CFA_XSP16, literal(-13)))
          CFI (cfiCond35) V8 load(1, XDATA, add(CFA_XSP16, literal(-12)))
          CFI (cfiCond35) V9 load(1, XDATA, add(CFA_XSP16, literal(-11)))
          CFI (cfiCond35) V10 load(1, XDATA, add(CFA_XSP16, literal(-10)))
          CFI (cfiCond35) V11 load(1, XDATA, add(CFA_XSP16, literal(-9)))
          CFI (cfiCond35) V12 load(1, XDATA, add(CFA_XSP16, literal(-8)))
          CFI (cfiCond35) V13 load(1, XDATA, add(CFA_XSP16, literal(-7)))
          CFI (cfiCond35) R7 load(1, XDATA, add(CFA_XSP16, literal(-6)))
          CFI (cfiCond35) ?RET_LOW load(1, XDATA, add(CFA_XSP16, literal(-5)))
          CFI (cfiCond35) ?RET_HIGH load(1, XDATA, add(CFA_XSP16, literal(-4)))
          CFI (cfiCond35) ?BRET_EXT load(1, XDATA, add(CFA_XSP16, literal(-3)))
          CFI (cfiCond35) DPL0 load(1, XDATA, add(CFA_XSP16, literal(-2)))
          CFI (cfiCond35) DPH0 load(1, XDATA, add(CFA_XSP16, literal(-1)))
          CFI (cfiCond35) CFA_SP SP+-2
          CFI (cfiCond35) CFA_XSP16 add(XSP16, 22)
          CFI Block cfiCond36 Using cfiCommon0
          CFI (cfiCond36) Function initiatorSendNwkJoinReq
          CFI (cfiCond36) Conditional ??CrossCallReturnLabel_81
          CFI (cfiCond36) R6 load(1, XDATA, add(CFA_XSP16, literal(-16)))
          CFI (cfiCond36) VB load(1, XDATA, add(CFA_XSP16, literal(-15)))
          CFI (cfiCond36) V0 load(1, XDATA, add(CFA_XSP16, literal(-14)))
          CFI (cfiCond36) V1 load(1, XDATA, add(CFA_XSP16, literal(-13)))
          CFI (cfiCond36) V2 load(1, XDATA, add(CFA_XSP16, literal(-12)))
          CFI (cfiCond36) V3 load(1, XDATA, add(CFA_XSP16, literal(-11)))
          CFI (cfiCond36) V4 load(1, XDATA, add(CFA_XSP16, literal(-10)))
          CFI (cfiCond36) V5 load(1, XDATA, add(CFA_XSP16, literal(-9)))
          CFI (cfiCond36) V6 load(1, XDATA, add(CFA_XSP16, literal(-8)))
          CFI (cfiCond36) V7 load(1, XDATA, add(CFA_XSP16, literal(-7)))
          CFI (cfiCond36) R7 load(1, XDATA, add(CFA_XSP16, literal(-6)))
          CFI (cfiCond36) ?RET_LOW load(1, XDATA, add(CFA_XSP16, literal(-5)))
          CFI (cfiCond36) ?RET_HIGH load(1, XDATA, add(CFA_XSP16, literal(-4)))
          CFI (cfiCond36) ?BRET_EXT load(1, XDATA, add(CFA_XSP16, literal(-3)))
          CFI (cfiCond36) DPL0 load(1, XDATA, add(CFA_XSP16, literal(-2)))
          CFI (cfiCond36) DPH0 load(1, XDATA, add(CFA_XSP16, literal(-1)))
          CFI (cfiCond36) CFA_SP SP+-2
          CFI (cfiCond36) CFA_XSP16 add(XSP16, 16)
          CFI Block cfiCond37 Using cfiCommon0
          CFI (cfiCond37) Function initiatorSendNwkJoinReq
          CFI (cfiCond37) Conditional ??CrossCallReturnLabel_82
          CFI (cfiCond37) R6 load(1, XDATA, add(CFA_XSP16, literal(-16)))
          CFI (cfiCond37) VB load(1, XDATA, add(CFA_XSP16, literal(-15)))
          CFI (cfiCond37) V0 load(1, XDATA, add(CFA_XSP16, literal(-14)))
          CFI (cfiCond37) V1 load(1, XDATA, add(CFA_XSP16, literal(-13)))
          CFI (cfiCond37) V2 load(1, XDATA, add(CFA_XSP16, literal(-12)))
          CFI (cfiCond37) V3 load(1, XDATA, add(CFA_XSP16, literal(-11)))
          CFI (cfiCond37) V4 load(1, XDATA, add(CFA_XSP16, literal(-10)))
          CFI (cfiCond37) V5 load(1, XDATA, add(CFA_XSP16, literal(-9)))
          CFI (cfiCond37) V6 load(1, XDATA, add(CFA_XSP16, literal(-8)))
          CFI (cfiCond37) V7 load(1, XDATA, add(CFA_XSP16, literal(-7)))
          CFI (cfiCond37) R7 load(1, XDATA, add(CFA_XSP16, literal(-6)))
          CFI (cfiCond37) ?RET_LOW load(1, XDATA, add(CFA_XSP16, literal(-5)))
          CFI (cfiCond37) ?RET_HIGH load(1, XDATA, add(CFA_XSP16, literal(-4)))
          CFI (cfiCond37) ?BRET_EXT load(1, XDATA, add(CFA_XSP16, literal(-3)))
          CFI (cfiCond37) DPL0 load(1, XDATA, add(CFA_XSP16, literal(-2)))
          CFI (cfiCond37) DPH0 load(1, XDATA, add(CFA_XSP16, literal(-1)))
          CFI (cfiCond37) CFA_SP SP+-2
          CFI (cfiCond37) CFA_XSP16 add(XSP16, 16)
          CFI Block cfiCond38 Using cfiCommon0
          CFI (cfiCond38) Function initiatorSendNwkJoinReq
          CFI (cfiCond38) Conditional ??CrossCallReturnLabel_83
          CFI (cfiCond38) R6 load(1, XDATA, add(CFA_XSP16, literal(-16)))
          CFI (cfiCond38) VB load(1, XDATA, add(CFA_XSP16, literal(-15)))
          CFI (cfiCond38) V0 load(1, XDATA, add(CFA_XSP16, literal(-14)))
          CFI (cfiCond38) V1 load(1, XDATA, add(CFA_XSP16, literal(-13)))
          CFI (cfiCond38) V2 load(1, XDATA, add(CFA_XSP16, literal(-12)))
          CFI (cfiCond38) V3 load(1, XDATA, add(CFA_XSP16, literal(-11)))
          CFI (cfiCond38) V4 load(1, XDATA, add(CFA_XSP16, literal(-10)))
          CFI (cfiCond38) V5 load(1, XDATA, add(CFA_XSP16, literal(-9)))
          CFI (cfiCond38) V6 load(1, XDATA, add(CFA_XSP16, literal(-8)))
          CFI (cfiCond38) V7 load(1, XDATA, add(CFA_XSP16, literal(-7)))
          CFI (cfiCond38) R7 load(1, XDATA, add(CFA_XSP16, literal(-6)))
          CFI (cfiCond38) ?RET_LOW load(1, XDATA, add(CFA_XSP16, literal(-5)))
          CFI (cfiCond38) ?RET_HIGH load(1, XDATA, add(CFA_XSP16, literal(-4)))
          CFI (cfiCond38) ?BRET_EXT load(1, XDATA, add(CFA_XSP16, literal(-3)))
          CFI (cfiCond38) DPL0 load(1, XDATA, add(CFA_XSP16, literal(-2)))
          CFI (cfiCond38) DPH0 load(1, XDATA, add(CFA_XSP16, literal(-1)))
          CFI (cfiCond38) CFA_SP SP+-2
          CFI (cfiCond38) CFA_XSP16 add(XSP16, 16)
          CFI Block cfiPicker39 Using cfiCommon1
          CFI (cfiPicker39) NoFunction
          CFI (cfiPicker39) Picker
        MOV       A,R2
          CFI EndBlock cfiCond31
          CFI EndBlock cfiCond32
          CFI EndBlock cfiCond33
          CFI EndBlock cfiCond34
          CFI EndBlock cfiCond35
          CFI EndBlock cfiCond36
          CFI EndBlock cfiCond37
          CFI EndBlock cfiCond38
          CFI EndBlock cfiPicker39
        REQUIRE ??Subroutine47_0
        ; // Fall through to label ??Subroutine47_0

        RSEG BANKED_CODE:HUGECODE:NOROOT(0)
??Subroutine47_0:
          CFI Block cfiCond40 Using cfiCommon0
          CFI Function touchLink_InitiatorSendScanRsp
          CFI Conditional ??CrossCallReturnLabel_75
          CFI R6 load(1, XDATA, add(CFA_XSP16, literal(-22)))
          CFI VB load(1, XDATA, add(CFA_XSP16, literal(-21)))
          CFI V0 load(1, XDATA, add(CFA_XSP16, literal(-20)))
          CFI V1 load(1, XDATA, add(CFA_XSP16, literal(-19)))
          CFI V2 load(1, XDATA, add(CFA_XSP16, literal(-18)))
          CFI V3 load(1, XDATA, add(CFA_XSP16, literal(-17)))
          CFI V4 load(1, XDATA, add(CFA_XSP16, literal(-16)))
          CFI V5 load(1, XDATA, add(CFA_XSP16, literal(-15)))
          CFI V6 load(1, XDATA, add(CFA_XSP16, literal(-14)))
          CFI V7 load(1, XDATA, add(CFA_XSP16, literal(-13)))
          CFI V8 load(1, XDATA, add(CFA_XSP16, literal(-12)))
          CFI V9 load(1, XDATA, add(CFA_XSP16, literal(-11)))
          CFI V10 load(1, XDATA, add(CFA_XSP16, literal(-10)))
          CFI V11 load(1, XDATA, add(CFA_XSP16, literal(-9)))
          CFI V12 load(1, XDATA, add(CFA_XSP16, literal(-8)))
          CFI V13 load(1, XDATA, add(CFA_XSP16, literal(-7)))
          CFI R7 load(1, XDATA, add(CFA_XSP16, literal(-6)))
          CFI ?RET_LOW load(1, XDATA, add(CFA_XSP16, literal(-5)))
          CFI ?RET_HIGH load(1, XDATA, add(CFA_XSP16, literal(-4)))
          CFI ?BRET_EXT load(1, XDATA, add(CFA_XSP16, literal(-3)))
          CFI DPL0 load(1, XDATA, add(CFA_XSP16, literal(-2)))
          CFI DPH0 load(1, XDATA, add(CFA_XSP16, literal(-1)))
          CFI CFA_SP SP+-2
          CFI CFA_XSP16 add(XSP16, 22)
          CFI Block cfiCond41 Using cfiCommon0
          CFI (cfiCond41) Function initiatorSelectNwkParams
          CFI (cfiCond41) Conditional ??CrossCallReturnLabel_76
          CFI (cfiCond41) DPL0 Frame(CFA_SP, 4)
          CFI (cfiCond41) DPH0 Frame(CFA_SP, 5)
          CFI (cfiCond41) CFA_SP SP+-7
          CFI Block cfiCond42 Using cfiCommon0
          CFI (cfiCond42) Function initiatorSelectNwkParams
          CFI (cfiCond42) Conditional ??CrossCallReturnLabel_77
          CFI (cfiCond42) DPL0 Frame(CFA_SP, 4)
          CFI (cfiCond42) DPH0 Frame(CFA_SP, 5)
          CFI (cfiCond42) CFA_SP SP+-7
          CFI Block cfiCond43 Using cfiCommon0
          CFI (cfiCond43) Function touchLinkInitiator_event_loop
          CFI (cfiCond43) Conditional ??CrossCallReturnLabel_78
          CFI (cfiCond43) R6 load(1, XDATA, add(CFA_XSP16, literal(-16)))
          CFI (cfiCond43) VB load(1, XDATA, add(CFA_XSP16, literal(-15)))
          CFI (cfiCond43) V0 load(1, XDATA, add(CFA_XSP16, literal(-14)))
          CFI (cfiCond43) V1 load(1, XDATA, add(CFA_XSP16, literal(-13)))
          CFI (cfiCond43) V2 load(1, XDATA, add(CFA_XSP16, literal(-12)))
          CFI (cfiCond43) V3 load(1, XDATA, add(CFA_XSP16, literal(-11)))
          CFI (cfiCond43) V4 load(1, XDATA, add(CFA_XSP16, literal(-10)))
          CFI (cfiCond43) V5 load(1, XDATA, add(CFA_XSP16, literal(-9)))
          CFI (cfiCond43) V6 load(1, XDATA, add(CFA_XSP16, literal(-8)))
          CFI (cfiCond43) V7 load(1, XDATA, add(CFA_XSP16, literal(-7)))
          CFI (cfiCond43) R7 load(1, XDATA, add(CFA_XSP16, literal(-6)))
          CFI (cfiCond43) ?RET_LOW load(1, XDATA, add(CFA_XSP16, literal(-5)))
          CFI (cfiCond43) ?RET_HIGH load(1, XDATA, add(CFA_XSP16, literal(-4)))
          CFI (cfiCond43) ?BRET_EXT load(1, XDATA, add(CFA_XSP16, literal(-3)))
          CFI (cfiCond43) DPL0 load(1, XDATA, add(CFA_XSP16, literal(-2)))
          CFI (cfiCond43) DPH0 load(1, XDATA, add(CFA_XSP16, literal(-1)))
          CFI (cfiCond43) CFA_SP SP+-2
          CFI (cfiCond43) CFA_XSP16 add(XSP16, 75)
          CFI Block cfiCond44 Using cfiCommon0
          CFI (cfiCond44) Function touchLinkInitiator_SendEPInfo
          CFI (cfiCond44) Conditional ??CrossCallReturnLabel_79
          CFI (cfiCond44) R6 load(1, XDATA, add(CFA_XSP16, literal(-12)))
          CFI (cfiCond44) VB load(1, XDATA, add(CFA_XSP16, literal(-11)))
          CFI (cfiCond44) V0 load(1, XDATA, add(CFA_XSP16, literal(-10)))
          CFI (cfiCond44) V1 load(1, XDATA, add(CFA_XSP16, literal(-9)))
          CFI (cfiCond44) V2 load(1, XDATA, add(CFA_XSP16, literal(-8)))
          CFI (cfiCond44) V3 load(1, XDATA, add(CFA_XSP16, literal(-7)))
          CFI (cfiCond44) R7 load(1, XDATA, add(CFA_XSP16, literal(-6)))
          CFI (cfiCond44) ?RET_LOW load(1, XDATA, add(CFA_XSP16, literal(-5)))
          CFI (cfiCond44) ?RET_HIGH load(1, XDATA, add(CFA_XSP16, literal(-4)))
          CFI (cfiCond44) ?BRET_EXT load(1, XDATA, add(CFA_XSP16, literal(-3)))
          CFI (cfiCond44) DPL0 load(1, XDATA, add(CFA_XSP16, literal(-2)))
          CFI (cfiCond44) DPH0 load(1, XDATA, add(CFA_XSP16, literal(-1)))
          CFI (cfiCond44) CFA_SP SP+-2
          CFI (cfiCond44) CFA_XSP16 add(XSP16, 35)
          CFI Block cfiCond45 Using cfiCommon0
          CFI (cfiCond45) Function touchLink_InitiatorSendScanRsp
          CFI (cfiCond45) Conditional ??CrossCallReturnLabel_80
          CFI (cfiCond45) R6 load(1, XDATA, add(CFA_XSP16, literal(-22)))
          CFI (cfiCond45) VB load(1, XDATA, add(CFA_XSP16, literal(-21)))
          CFI (cfiCond45) V0 load(1, XDATA, add(CFA_XSP16, literal(-20)))
          CFI (cfiCond45) V1 load(1, XDATA, add(CFA_XSP16, literal(-19)))
          CFI (cfiCond45) V2 load(1, XDATA, add(CFA_XSP16, literal(-18)))
          CFI (cfiCond45) V3 load(1, XDATA, add(CFA_XSP16, literal(-17)))
          CFI (cfiCond45) V4 load(1, XDATA, add(CFA_XSP16, literal(-16)))
          CFI (cfiCond45) V5 load(1, XDATA, add(CFA_XSP16, literal(-15)))
          CFI (cfiCond45) V6 load(1, XDATA, add(CFA_XSP16, literal(-14)))
          CFI (cfiCond45) V7 load(1, XDATA, add(CFA_XSP16, literal(-13)))
          CFI (cfiCond45) V8 load(1, XDATA, add(CFA_XSP16, literal(-12)))
          CFI (cfiCond45) V9 load(1, XDATA, add(CFA_XSP16, literal(-11)))
          CFI (cfiCond45) V10 load(1, XDATA, add(CFA_XSP16, literal(-10)))
          CFI (cfiCond45) V11 load(1, XDATA, add(CFA_XSP16, literal(-9)))
          CFI (cfiCond45) V12 load(1, XDATA, add(CFA_XSP16, literal(-8)))
          CFI (cfiCond45) V13 load(1, XDATA, add(CFA_XSP16, literal(-7)))
          CFI (cfiCond45) R7 load(1, XDATA, add(CFA_XSP16, literal(-6)))
          CFI (cfiCond45) ?RET_LOW load(1, XDATA, add(CFA_XSP16, literal(-5)))
          CFI (cfiCond45) ?RET_HIGH load(1, XDATA, add(CFA_XSP16, literal(-4)))
          CFI (cfiCond45) ?BRET_EXT load(1, XDATA, add(CFA_XSP16, literal(-3)))
          CFI (cfiCond45) DPL0 load(1, XDATA, add(CFA_XSP16, literal(-2)))
          CFI (cfiCond45) DPH0 load(1, XDATA, add(CFA_XSP16, literal(-1)))
          CFI (cfiCond45) CFA_SP SP+-2
          CFI (cfiCond45) CFA_XSP16 add(XSP16, 22)
          CFI Block cfiCond46 Using cfiCommon0
          CFI (cfiCond46) Function initiatorSendNwkJoinReq
          CFI (cfiCond46) Conditional ??CrossCallReturnLabel_81
          CFI (cfiCond46) R6 load(1, XDATA, add(CFA_XSP16, literal(-16)))
          CFI (cfiCond46) VB load(1, XDATA, add(CFA_XSP16, literal(-15)))
          CFI (cfiCond46) V0 load(1, XDATA, add(CFA_XSP16, literal(-14)))
          CFI (cfiCond46) V1 load(1, XDATA, add(CFA_XSP16, literal(-13)))
          CFI (cfiCond46) V2 load(1, XDATA, add(CFA_XSP16, literal(-12)))
          CFI (cfiCond46) V3 load(1, XDATA, add(CFA_XSP16, literal(-11)))
          CFI (cfiCond46) V4 load(1, XDATA, add(CFA_XSP16, literal(-10)))
          CFI (cfiCond46) V5 load(1, XDATA, add(CFA_XSP16, literal(-9)))
          CFI (cfiCond46) V6 load(1, XDATA, add(CFA_XSP16, literal(-8)))
          CFI (cfiCond46) V7 load(1, XDATA, add(CFA_XSP16, literal(-7)))
          CFI (cfiCond46) R7 load(1, XDATA, add(CFA_XSP16, literal(-6)))
          CFI (cfiCond46) ?RET_LOW load(1, XDATA, add(CFA_XSP16, literal(-5)))
          CFI (cfiCond46) ?RET_HIGH load(1, XDATA, add(CFA_XSP16, literal(-4)))
          CFI (cfiCond46) ?BRET_EXT load(1, XDATA, add(CFA_XSP16, literal(-3)))
          CFI (cfiCond46) DPL0 load(1, XDATA, add(CFA_XSP16, literal(-2)))
          CFI (cfiCond46) DPH0 load(1, XDATA, add(CFA_XSP16, literal(-1)))
          CFI (cfiCond46) CFA_SP SP+-2
          CFI (cfiCond46) CFA_XSP16 add(XSP16, 16)
          CFI Block cfiCond47 Using cfiCommon0
          CFI (cfiCond47) Function initiatorSendNwkJoinReq
          CFI (cfiCond47) Conditional ??CrossCallReturnLabel_82
          CFI (cfiCond47) R6 load(1, XDATA, add(CFA_XSP16, literal(-16)))
          CFI (cfiCond47) VB load(1, XDATA, add(CFA_XSP16, literal(-15)))
          CFI (cfiCond47) V0 load(1, XDATA, add(CFA_XSP16, literal(-14)))
          CFI (cfiCond47) V1 load(1, XDATA, add(CFA_XSP16, literal(-13)))
          CFI (cfiCond47) V2 load(1, XDATA, add(CFA_XSP16, literal(-12)))
          CFI (cfiCond47) V3 load(1, XDATA, add(CFA_XSP16, literal(-11)))
          CFI (cfiCond47) V4 load(1, XDATA, add(CFA_XSP16, literal(-10)))
          CFI (cfiCond47) V5 load(1, XDATA, add(CFA_XSP16, literal(-9)))
          CFI (cfiCond47) V6 load(1, XDATA, add(CFA_XSP16, literal(-8)))
          CFI (cfiCond47) V7 load(1, XDATA, add(CFA_XSP16, literal(-7)))
          CFI (cfiCond47) R7 load(1, XDATA, add(CFA_XSP16, literal(-6)))
          CFI (cfiCond47) ?RET_LOW load(1, XDATA, add(CFA_XSP16, literal(-5)))
          CFI (cfiCond47) ?RET_HIGH load(1, XDATA, add(CFA_XSP16, literal(-4)))
          CFI (cfiCond47) ?BRET_EXT load(1, XDATA, add(CFA_XSP16, literal(-3)))
          CFI (cfiCond47) DPL0 load(1, XDATA, add(CFA_XSP16, literal(-2)))
          CFI (cfiCond47) DPH0 load(1, XDATA, add(CFA_XSP16, literal(-1)))
          CFI (cfiCond47) CFA_SP SP+-2
          CFI (cfiCond47) CFA_XSP16 add(XSP16, 16)
          CFI Block cfiCond48 Using cfiCommon0
          CFI (cfiCond48) Function initiatorSendNwkJoinReq
          CFI (cfiCond48) Conditional ??CrossCallReturnLabel_83
          CFI (cfiCond48) R6 load(1, XDATA, add(CFA_XSP16, literal(-16)))
          CFI (cfiCond48) VB load(1, XDATA, add(CFA_XSP16, literal(-15)))
          CFI (cfiCond48) V0 load(1, XDATA, add(CFA_XSP16, literal(-14)))
          CFI (cfiCond48) V1 load(1, XDATA, add(CFA_XSP16, literal(-13)))
          CFI (cfiCond48) V2 load(1, XDATA, add(CFA_XSP16, literal(-12)))
          CFI (cfiCond48) V3 load(1, XDATA, add(CFA_XSP16, literal(-11)))
          CFI (cfiCond48) V4 load(1, XDATA, add(CFA_XSP16, literal(-10)))
          CFI (cfiCond48) V5 load(1, XDATA, add(CFA_XSP16, literal(-9)))
          CFI (cfiCond48) V6 load(1, XDATA, add(CFA_XSP16, literal(-8)))
          CFI (cfiCond48) V7 load(1, XDATA, add(CFA_XSP16, literal(-7)))
          CFI (cfiCond48) R7 load(1, XDATA, add(CFA_XSP16, literal(-6)))
          CFI (cfiCond48) ?RET_LOW load(1, XDATA, add(CFA_XSP16, literal(-5)))
          CFI (cfiCond48) ?RET_HIGH load(1, XDATA, add(CFA_XSP16, literal(-4)))
          CFI (cfiCond48) ?BRET_EXT load(1, XDATA, add(CFA_XSP16, literal(-3)))
          CFI (cfiCond48) DPL0 load(1, XDATA, add(CFA_XSP16, literal(-2)))
          CFI (cfiCond48) DPH0 load(1, XDATA, add(CFA_XSP16, literal(-1)))
          CFI (cfiCond48) CFA_SP SP+-2
          CFI (cfiCond48) CFA_XSP16 add(XSP16, 16)
          CFI Block cfiPicker49 Using cfiCommon1
          CFI (cfiPicker49) NoFunction
          CFI (cfiPicker49) Picker
        MOVX      @DPTR,A
        INC       DPTR
        MOV       A,R3
        MOVX      @DPTR,A
        RET
          CFI EndBlock cfiCond40
          CFI EndBlock cfiCond41
          CFI EndBlock cfiCond42
          CFI EndBlock cfiCond43
          CFI EndBlock cfiCond44
          CFI EndBlock cfiCond45
          CFI EndBlock cfiCond46
          CFI EndBlock cfiCond47
          CFI EndBlock cfiCond48
          CFI EndBlock cfiPicker49

        RSEG BANKED_CODE:HUGECODE:NOROOT(0)
?Subroutine14:
          CFI Block cfiCond50 Using cfiCommon0
          CFI Function touchLinkInitiator_event_loop
          CFI Conditional ??CrossCallReturnLabel_7
          CFI R6 load(1, XDATA, add(CFA_XSP16, literal(-16)))
          CFI VB load(1, XDATA, add(CFA_XSP16, literal(-15)))
          CFI V0 load(1, XDATA, add(CFA_XSP16, literal(-14)))
          CFI V1 load(1, XDATA, add(CFA_XSP16, literal(-13)))
          CFI V2 load(1, XDATA, add(CFA_XSP16, literal(-12)))
          CFI V3 load(1, XDATA, add(CFA_XSP16, literal(-11)))
          CFI V4 load(1, XDATA, add(CFA_XSP16, literal(-10)))
          CFI V5 load(1, XDATA, add(CFA_XSP16, literal(-9)))
          CFI V6 load(1, XDATA, add(CFA_XSP16, literal(-8)))
          CFI V7 load(1, XDATA, add(CFA_XSP16, literal(-7)))
          CFI R7 load(1, XDATA, add(CFA_XSP16, literal(-6)))
          CFI ?RET_LOW load(1, XDATA, add(CFA_XSP16, literal(-5)))
          CFI ?RET_HIGH load(1, XDATA, add(CFA_XSP16, literal(-4)))
          CFI ?BRET_EXT load(1, XDATA, add(CFA_XSP16, literal(-3)))
          CFI DPL0 load(1, XDATA, add(CFA_XSP16, literal(-2)))
          CFI DPH0 load(1, XDATA, add(CFA_XSP16, literal(-1)))
          CFI CFA_SP SP+-2
          CFI CFA_XSP16 add(XSP16, 75)
          CFI Block cfiCond51 Using cfiCommon0
          CFI (cfiCond51) Function touchLinkInitiator_event_loop
          CFI (cfiCond51) Conditional ??CrossCallReturnLabel_8
          CFI (cfiCond51) R6 load(1, XDATA, add(CFA_XSP16, literal(-16)))
          CFI (cfiCond51) VB load(1, XDATA, add(CFA_XSP16, literal(-15)))
          CFI (cfiCond51) V0 load(1, XDATA, add(CFA_XSP16, literal(-14)))
          CFI (cfiCond51) V1 load(1, XDATA, add(CFA_XSP16, literal(-13)))
          CFI (cfiCond51) V2 load(1, XDATA, add(CFA_XSP16, literal(-12)))
          CFI (cfiCond51) V3 load(1, XDATA, add(CFA_XSP16, literal(-11)))
          CFI (cfiCond51) V4 load(1, XDATA, add(CFA_XSP16, literal(-10)))
          CFI (cfiCond51) V5 load(1, XDATA, add(CFA_XSP16, literal(-9)))
          CFI (cfiCond51) V6 load(1, XDATA, add(CFA_XSP16, literal(-8)))
          CFI (cfiCond51) V7 load(1, XDATA, add(CFA_XSP16, literal(-7)))
          CFI (cfiCond51) R7 load(1, XDATA, add(CFA_XSP16, literal(-6)))
          CFI (cfiCond51) ?RET_LOW load(1, XDATA, add(CFA_XSP16, literal(-5)))
          CFI (cfiCond51) ?RET_HIGH load(1, XDATA, add(CFA_XSP16, literal(-4)))
          CFI (cfiCond51) ?BRET_EXT load(1, XDATA, add(CFA_XSP16, literal(-3)))
          CFI (cfiCond51) DPL0 load(1, XDATA, add(CFA_XSP16, literal(-2)))
          CFI (cfiCond51) DPH0 load(1, XDATA, add(CFA_XSP16, literal(-1)))
          CFI (cfiCond51) CFA_SP SP+-2
          CFI (cfiCond51) CFA_XSP16 add(XSP16, 75)
          CFI Block cfiPicker52 Using cfiCommon1
          CFI (cfiPicker52) NoFunction
          CFI (cfiPicker52) Picker
        LCALL     ?Subroutine41 & 0xFFFF
??CrossCallReturnLabel_152:
        MOV       DPL,?XSP + 0
        MOV       DPH,?XSP + 1
        MOV       A,R0
        MOVX      @DPTR,A
        INC       DPTR
        MOV       A,R1
        MOVX      @DPTR,A
        MOV       DPTR,#selectedTarget + 31
        MOVX      A,@DPTR
        RET
          CFI EndBlock cfiCond50
          CFI EndBlock cfiCond51
          CFI EndBlock cfiPicker52
// 1102 
// 1103 /*********************************************************************
// 1104  * @fn      touchLinkInitiator_ChannelChange
// 1105  *
// 1106  * @brief   Change channel to supprot Frequency agility.
// 1107  *
// 1108  * @param   targetChannel - channel to
// 1109  *
// 1110  * @return  status
// 1111  */

        RSEG BANKED_CODE:HUGECODE:NOROOT(0)
// 1112 ZStatus_t touchLinkInitiator_ChannelChange( uint8 targetChannel )
touchLinkInitiator_ChannelChange:
          CFI Block cfiBlock53 Using cfiCommon0
          CFI Function touchLinkInitiator_ChannelChange
        CODE
// 1113 {
        FUNCALL touchLinkInitiator_ChannelChange, NLME_SetUpdateID
        LOCFRAME ISTACK, 0, STACK
        LOCFRAME PSTACK, 0, STACK
        LOCFRAME XSTACK, 21, STACK
        LOCFRAME IOVERLAY, 0, STATIC
        LOCFRAME DOVERLAY, 0, STATIC
        ARGFRAME ISTACK, 0, STACK
        ARGFRAME PSTACK, 0, STACK
        ARGFRAME XSTACK, 21, STACK
        ARGFRAME IOVERLAY, 0, STATIC
        ARGFRAME DOVERLAY, 0, STATIC
        FUNCALL touchLinkInitiator_ChannelChange, ZDP_MgmtNwkUpdateReq
        LOCFRAME ISTACK, 0, STACK
        LOCFRAME PSTACK, 0, STACK
        LOCFRAME XSTACK, 27, STACK
        LOCFRAME IOVERLAY, 0, STATIC
        LOCFRAME DOVERLAY, 0, STATIC
        ARGFRAME ISTACK, 0, STACK
        ARGFRAME PSTACK, 0, STACK
        ARGFRAME XSTACK, 27, STACK
        ARGFRAME IOVERLAY, 0, STATIC
        ARGFRAME DOVERLAY, 0, STATIC
        REQUIRE ?V0
        REQUIRE ?V1
        REQUIRE ?V2
        REQUIRE ?V3
        MOV       A,#-0xc
        LCALL     ?BANKED_ENTER_XDATA
          CFI DPH0 load(1, XDATA, add(CFA_XSP16, literal(-1)))
          CFI DPL0 load(1, XDATA, add(CFA_XSP16, literal(-2)))
          CFI ?BRET_EXT load(1, XDATA, add(CFA_XSP16, literal(-3)))
          CFI ?RET_HIGH load(1, XDATA, add(CFA_XSP16, literal(-4)))
          CFI ?RET_LOW load(1, XDATA, add(CFA_XSP16, literal(-5)))
          CFI R7 load(1, XDATA, add(CFA_XSP16, literal(-6)))
          CFI V3 load(1, XDATA, add(CFA_XSP16, literal(-7)))
          CFI V2 load(1, XDATA, add(CFA_XSP16, literal(-8)))
          CFI V1 load(1, XDATA, add(CFA_XSP16, literal(-9)))
          CFI V0 load(1, XDATA, add(CFA_XSP16, literal(-10)))
          CFI VB load(1, XDATA, add(CFA_XSP16, literal(-11)))
          CFI R6 load(1, XDATA, add(CFA_XSP16, literal(-12)))
          CFI CFA_SP SP+0
          CFI CFA_XSP16 add(XSP16, 12)
        ; Saved register size: 12
        ; Auto size: 9
        MOV       A,#-0x9
        LCALL     ?ALLOC_XSTACK8
          CFI CFA_XSP16 add(XSP16, 21)
        MOV       A,R1
        MOV       R6,A
// 1114     uint32 channelMask;
// 1115     zAddrType_t dstAddr = {0};
        MOV       DPTR,#`?<Constant {{0}}>`
        MOV       R4,?XSP + 0
        MOV       R5,?XSP + 1
        MOV       A,#0x9
        LCALL     ?MOVE_LONG8_XDATA_XDATA
// 1116     if ( ( targetChannel < 11 ) || targetChannel > 26 )
        MOV       A,#-0xb
        ADD       A,R1
        CLR       C
        SUBB      A,#0x10
        JC        ??touchLinkInitiator_ChannelChange_0
// 1117     {
// 1118       if (TOUCHLINK_PRIMARY_CHANNEL (_NIB.nwkLogicalChannel))
        MOV       DPTR,#_NIB + 22
        MOVX      A,@DPTR
        MOV       R0,A
        MOV       A,#0xb
        XRL       A,R0
        JZ        ??touchLinkInitiator_ChannelChange_1
        MOV       A,#0xf
        XRL       A,R0
        JZ        ??touchLinkInitiator_ChannelChange_2
        MOV       A,#0x14
        XRL       A,R0
        JZ        ??touchLinkInitiator_ChannelChange_3
        MOV       A,#0x19
        XRL       A,R0
        JZ        ??touchLinkInitiator_ChannelChange_4
// 1119       {
// 1120         switch (_NIB.nwkLogicalChannel)
// 1121         {
// 1122         case TOUCHLINK_FIRST_CHANNEL:
// 1123           targetChannel = TOUCHLINK_SECOND_CHANNEL;
// 1124           break;
// 1125         case TOUCHLINK_SECOND_CHANNEL:
// 1126           targetChannel = TOUCHLINK_THIRD_CHANNEL;
// 1127           break;
// 1128         case TOUCHLINK_THIRD_CHANNEL:
// 1129           targetChannel = TOUCHLINK_FOURTH_CHANNEL;
// 1130           break;
// 1131         case TOUCHLINK_FOURTH_CHANNEL:
// 1132           targetChannel = TOUCHLINK_FIRST_CHANNEL;
// 1133         }
// 1134       }
// 1135       else
// 1136       {
// 1137         targetChannel = _NIB.nwkLogicalChannel + 1;
        MOV       A,#0x1
        ADD       A,R0
        MOV       R6,A
// 1138         if ( _NIB.nwkLogicalChannel > 26 )
        MOV       A,R0
        CLR       C
        SUBB      A,#0x1b
        JC        ??touchLinkInitiator_ChannelChange_0
// 1139           targetChannel = 11;
??touchLinkInitiator_ChannelChange_4:
        MOV       R6,#0xb
// 1140       }
// 1141     }
// 1142 
// 1143     dstAddr.addrMode = AddrBroadcast;
??touchLinkInitiator_ChannelChange_0:
        MOV       A,#0x8
        LCALL     ?XSTACK_DISP0_8
        MOV       A,#0xf
        MOVX      @DPTR,A
// 1144     dstAddr.addr.shortAddr = NWK_BROADCAST_SHORTADDR_DEVRXON;
        MOV       DPL,?XSP + 0
        MOV       DPH,?XSP + 1
        MOV       A,#-0x3
        MOVX      @DPTR,A
        INC       DPTR
        MOV       A,#-0x1
        MOVX      @DPTR,A
// 1145     channelMask = (uint32)1 << targetChannel;
// 1146 
// 1147     // Increment the nwkUpdateId parameter and set the updateID in the beacon
// 1148     NLME_SetUpdateID(_NIB.nwkUpdateId + 1);
        ; Setup parameters for call to function NLME_SetUpdateID
        MOV       DPTR,#_NIB + 109
        MOVX      A,@DPTR
        INC       A
        MOV       R1,A
        LCALL     `??NLME_SetUpdateID::?relay`; Banked call to: NLME_SetUpdateID
// 1149 
// 1150     ZDP_MgmtNwkUpdateReq( &dstAddr, channelMask, 0xfe, 0, _NIB.nwkUpdateId, 0 );
        ; Setup parameters for call to function ZDP_MgmtNwkUpdateReq
        CLR       A
        MOV       ?V0,A
        MOV       ?V1,A
        MOV       R0,#?V0
        LCALL     ?PUSH_XSTACK_I_TWO
          CFI CFA_XSP16 add(XSP16, 23)
        MOV       ?V0,#0x1
        MOV       ?V2,#0x0
        MOV       ?V3,#0x0
        MOV       A,R6
        MOV       R0,#?V0
        LCALL     ?L_SHL
        MOV       R0,#?V0
        LCALL     ?PUSH_XSTACK_I_FOUR
          CFI CFA_XSP16 add(XSP16, 27)
        MOV       DPTR,#_NIB + 109
        MOVX      A,@DPTR
        MOV       R5,A
        MOV       R4,#0x0
        MOV       R1,#-0x2
        MOV       A,#0x6
        LCALL     ?XSTACK_DISP101_8
        LCALL     `??ZDP_MgmtNwkUpdateReq::?relay`; Banked call to: ZDP_MgmtNwkUpdateReq
        MOV       A,#0x6
        LCALL     ?DEALLOC_XSTACK8
          CFI CFA_XSP16 add(XSP16, 21)
// 1151 
// 1152     return ZSuccess;
        MOV       R1,#0x0
        MOV       A,#0x9
        LJMP      ?Subroutine3 & 0xFFFF
??touchLinkInitiator_ChannelChange_1:
        MOV       R6,#0xf
        SJMP      ??touchLinkInitiator_ChannelChange_0
??touchLinkInitiator_ChannelChange_2:
        MOV       R6,#0x14
        SJMP      ??touchLinkInitiator_ChannelChange_0
??touchLinkInitiator_ChannelChange_3:
        MOV       R6,#0x19
        SJMP      ??touchLinkInitiator_ChannelChange_0
// 1153 }
          CFI EndBlock cfiBlock53

        RSEG XDATA_ROM_C:CONST:REORDER:NOROOT(0)
        DATA8
`?<Constant {{0}}>`:
        DATA16
        DW 0
        DB 0, 0, 0, 0, 0, 0
        DB 0
// 1154 
// 1155 /*********************************************************************
// 1156  * @fn      touchLinkSampleRemote_SendEPInfo
// 1157  *
// 1158  * @brief   Send Endpoint info command.
// 1159  *
// 1160  * @param   srcEP - source endpoint
// 1161  * @param   dstAddr - destination address
// 1162  * @param   seqNum - transaction sequnece number
// 1163  *
// 1164  * @return  ZStatus_t
// 1165  */

        RSEG BANKED_CODE:HUGECODE:NOROOT(0)
// 1166 ZStatus_t touchLinkInitiator_SendEPInfo( uint8 srcEP, afAddrType_t *dstAddr, uint8 seqNum)
touchLinkInitiator_SendEPInfo:
          CFI Block cfiBlock54 Using cfiCommon0
          CFI Function touchLinkInitiator_SendEPInfo
        CODE
// 1167 {
        FUNCALL touchLinkInitiator_SendEPInfo, touchLink_GetSubDeviceInfo
        LOCFRAME ISTACK, 0, STACK
        LOCFRAME PSTACK, 0, STACK
        LOCFRAME XSTACK, 35, STACK
        LOCFRAME IOVERLAY, 0, STATIC
        LOCFRAME DOVERLAY, 0, STATIC
        ARGFRAME ISTACK, 0, STACK
        ARGFRAME PSTACK, 0, STACK
        ARGFRAME XSTACK, 35, STACK
        ARGFRAME IOVERLAY, 0, STATIC
        ARGFRAME DOVERLAY, 0, STATIC
        FUNCALL touchLinkInitiator_SendEPInfo, NLME_GetExtAddr
        LOCFRAME ISTACK, 0, STACK
        LOCFRAME PSTACK, 0, STACK
        LOCFRAME XSTACK, 35, STACK
        LOCFRAME IOVERLAY, 0, STATIC
        LOCFRAME DOVERLAY, 0, STATIC
        ARGFRAME ISTACK, 0, STACK
        ARGFRAME PSTACK, 0, STACK
        ARGFRAME XSTACK, 35, STACK
        ARGFRAME IOVERLAY, 0, STATIC
        ARGFRAME DOVERLAY, 0, STATIC
        FUNCALL touchLinkInitiator_SendEPInfo, sAddrExtCpy
        LOCFRAME ISTACK, 0, STACK
        LOCFRAME PSTACK, 0, STACK
        LOCFRAME XSTACK, 35, STACK
        LOCFRAME IOVERLAY, 0, STATIC
        LOCFRAME DOVERLAY, 0, STATIC
        ARGFRAME ISTACK, 0, STACK
        ARGFRAME PSTACK, 0, STACK
        ARGFRAME XSTACK, 35, STACK
        ARGFRAME IOVERLAY, 0, STATIC
        ARGFRAME DOVERLAY, 0, STATIC
        FUNCALL touchLinkInitiator_SendEPInfo, NLME_GetShortAddr
        LOCFRAME ISTACK, 0, STACK
        LOCFRAME PSTACK, 0, STACK
        LOCFRAME XSTACK, 35, STACK
        LOCFRAME IOVERLAY, 0, STATIC
        LOCFRAME DOVERLAY, 0, STATIC
        ARGFRAME ISTACK, 0, STACK
        ARGFRAME PSTACK, 0, STACK
        ARGFRAME XSTACK, 35, STACK
        ARGFRAME IOVERLAY, 0, STATIC
        ARGFRAME DOVERLAY, 0, STATIC
        FUNCALL touchLinkInitiator_SendEPInfo, bdbTL_Send_EndpointInfo
        LOCFRAME ISTACK, 0, STACK
        LOCFRAME PSTACK, 0, STACK
        LOCFRAME XSTACK, 37, STACK
        LOCFRAME IOVERLAY, 0, STATIC
        LOCFRAME DOVERLAY, 0, STATIC
        ARGFRAME ISTACK, 0, STACK
        ARGFRAME PSTACK, 0, STACK
        ARGFRAME XSTACK, 37, STACK
        ARGFRAME IOVERLAY, 0, STATIC
        ARGFRAME DOVERLAY, 0, STATIC
        REQUIRE ?V0
        REQUIRE ?V1
        REQUIRE ?V2
        REQUIRE ?V3
        MOV       A,#-0xc
        LCALL     ?BANKED_ENTER_XDATA
          CFI DPH0 load(1, XDATA, add(CFA_XSP16, literal(-1)))
          CFI DPL0 load(1, XDATA, add(CFA_XSP16, literal(-2)))
          CFI ?BRET_EXT load(1, XDATA, add(CFA_XSP16, literal(-3)))
          CFI ?RET_HIGH load(1, XDATA, add(CFA_XSP16, literal(-4)))
          CFI ?RET_LOW load(1, XDATA, add(CFA_XSP16, literal(-5)))
          CFI R7 load(1, XDATA, add(CFA_XSP16, literal(-6)))
          CFI V3 load(1, XDATA, add(CFA_XSP16, literal(-7)))
          CFI V2 load(1, XDATA, add(CFA_XSP16, literal(-8)))
          CFI V1 load(1, XDATA, add(CFA_XSP16, literal(-9)))
          CFI V0 load(1, XDATA, add(CFA_XSP16, literal(-10)))
          CFI VB load(1, XDATA, add(CFA_XSP16, literal(-11)))
          CFI R6 load(1, XDATA, add(CFA_XSP16, literal(-12)))
          CFI CFA_SP SP+0
          CFI CFA_XSP16 add(XSP16, 12)
        ; Saved register size: 12
        ; Auto size: 23
        MOV       A,#-0x17
        LCALL     ?ALLOC_XSTACK8
          CFI CFA_XSP16 add(XSP16, 35)
        MOV       ?V0,R1
        MOV       A,R2
        MOV       R6,A
        MOV       A,R3
        MOV       R7,A
        MOV       ?V1,R4
// 1168     bdbTLEndpointInfo_t bdbTLEndpointInfoCmd;
// 1169     bdbTLDeviceInfo_t  bdbTLDeviceInfo;
// 1170       //send Epinfo cmd
// 1171     touchLink_GetSubDeviceInfo( 0, &bdbTLDeviceInfo );
        ; Setup parameters for call to function touchLink_GetSubDeviceInfo
        MOV       R2,?XSP + 0
        MOV       R3,?XSP + 1
        MOV       R1,#0x0
        LCALL     `??touchLink_GetSubDeviceInfo::?relay`; Banked call to: touchLink_GetSubDeviceInfo
// 1172     bdbTLEndpointInfoCmd.endpoint = bdbTLDeviceInfo.endpoint;
        MOV       DPL,?XSP + 0
        MOV       DPH,?XSP + 1
        MOVX      A,@DPTR
        PUSH      A
          CFI CFA_SP SP+-1
        MOV       A,#0x11
        LCALL     ?XSTACK_DISP0_8
        POP       A
          CFI CFA_SP SP+0
        MOVX      @DPTR,A
// 1173     bdbTLEndpointInfoCmd.profileID = bdbTLDeviceInfo.profileID;
        MOV       A,#0x1
        LCALL     ?XSTACK_DISP0_8
        LCALL     ??Subroutine63_0 & 0xFFFF
??CrossCallReturnLabel_142:
        MOV       A,#0x12
        LCALL     ?XSTACK_DISP0_8
        LCALL     ??Subroutine49_0 & 0xFFFF
// 1174     bdbTLEndpointInfoCmd.deviceID = bdbTLDeviceInfo.deviceID;
??CrossCallReturnLabel_90:
        MOV       A,#0x3
        LCALL     ?XSTACK_DISP0_8
        LCALL     ??Subroutine63_0 & 0xFFFF
??CrossCallReturnLabel_143:
        MOV       A,#0x14
        LCALL     ?XSTACK_DISP0_8
        LCALL     ??Subroutine49_0 & 0xFFFF
// 1175     bdbTLEndpointInfoCmd.version = bdbTLDeviceInfo.version;
??CrossCallReturnLabel_91:
        MOV       A,#0x5
        LCALL     ?XSTACK_DISP0_8
        MOVX      A,@DPTR
        PUSH      A
          CFI CFA_SP SP+-1
        MOV       A,#0x16
        LCALL     ?XSTACK_DISP0_8
        POP       A
          CFI CFA_SP SP+0
        MOVX      @DPTR,A
// 1176 
// 1177     osal_cpyExtAddr( bdbTLEndpointInfoCmd.ieeeAddr, NLME_GetExtAddr() );
        ; Setup parameters for call to function NLME_GetExtAddr
        LCALL     `??NLME_GetExtAddr::?relay`; Banked call to: NLME_GetExtAddr
        MOV       ?V2,R2
        MOV       ?V3,R3
        MOV       R4,?V2
        MOV       R5,?V3
        ; Setup parameters for call to function sAddrExtCpy
        MOV       A,#0x7
        LCALL     ?XSTACK_DISP101_8
        LCALL     `??sAddrExtCpy::?relay`; Banked call to: sAddrExtCpy
// 1178     bdbTLEndpointInfoCmd.nwkAddr = NLME_GetShortAddr();
        ; Setup parameters for call to function NLME_GetShortAddr
        LCALL     `??NLME_GetShortAddr::?relay`; Banked call to: NLME_GetShortAddr
        MOV       A,#0xf
        LCALL     ?XSTACK_DISP0_8
        LCALL     ?Subroutine26 & 0xFFFF
// 1179 
// 1180     dstAddr->panId = _NIB.nwkPanId;
??CrossCallReturnLabel_79:
        MOV       DPTR,#_NIB + 33
        LCALL     ?Subroutine11 & 0xFFFF
// 1181     return bdbTL_Send_EndpointInfo( srcEP, dstAddr, &bdbTLEndpointInfoCmd,
// 1182                                           0, seqNum );
??CrossCallReturnLabel_3:
        ; Setup parameters for call to function bdbTL_Send_EndpointInfo
        MOV       A,?V1
        MOV       ?V2,A
        MOV       R0,#?V2
        LCALL     ?PUSH_XSTACK_I_ONE
          CFI CFA_XSP16 add(XSP16, 36)
        MOV       ?V2,#0x0
        MOV       R0,#?V2
        LCALL     ?PUSH_XSTACK_I_ONE
          CFI CFA_XSP16 add(XSP16, 37)
        MOV       A,#0x9
        LCALL     ?XSTACK_DISP102_8
        MOV       A,R6
        MOV       R2,A
        MOV       A,R7
        MOV       R3,A
        MOV       R1,?V0
        LCALL     `??bdbTL_Send_EndpointInfo::?relay`; Banked call to: bdbTL_Send_EndpointInfo
        MOV       A,#0x2
        LCALL     ?DEALLOC_XSTACK8
          CFI CFA_XSP16 add(XSP16, 35)
        MOV       A,#0x17
        LJMP      ?Subroutine3 & 0xFFFF
// 1183 }
          CFI EndBlock cfiBlock54

        RSEG BANKED_CODE:HUGECODE:NOROOT(0)
?Subroutine32:
          CFI Block cfiCond55 Using cfiCommon0
          CFI Function touchLink_InitiatorSendScanRsp
          CFI Conditional ??CrossCallReturnLabel_96
          CFI R6 load(1, XDATA, add(CFA_XSP16, literal(-22)))
          CFI VB load(1, XDATA, add(CFA_XSP16, literal(-21)))
          CFI V0 load(1, XDATA, add(CFA_XSP16, literal(-20)))
          CFI V1 load(1, XDATA, add(CFA_XSP16, literal(-19)))
          CFI V2 load(1, XDATA, add(CFA_XSP16, literal(-18)))
          CFI V3 load(1, XDATA, add(CFA_XSP16, literal(-17)))
          CFI V4 load(1, XDATA, add(CFA_XSP16, literal(-16)))
          CFI V5 load(1, XDATA, add(CFA_XSP16, literal(-15)))
          CFI V6 load(1, XDATA, add(CFA_XSP16, literal(-14)))
          CFI V7 load(1, XDATA, add(CFA_XSP16, literal(-13)))
          CFI V8 load(1, XDATA, add(CFA_XSP16, literal(-12)))
          CFI V9 load(1, XDATA, add(CFA_XSP16, literal(-11)))
          CFI V10 load(1, XDATA, add(CFA_XSP16, literal(-10)))
          CFI V11 load(1, XDATA, add(CFA_XSP16, literal(-9)))
          CFI V12 load(1, XDATA, add(CFA_XSP16, literal(-8)))
          CFI V13 load(1, XDATA, add(CFA_XSP16, literal(-7)))
          CFI R7 load(1, XDATA, add(CFA_XSP16, literal(-6)))
          CFI ?RET_LOW load(1, XDATA, add(CFA_XSP16, literal(-5)))
          CFI ?RET_HIGH load(1, XDATA, add(CFA_XSP16, literal(-4)))
          CFI ?BRET_EXT load(1, XDATA, add(CFA_XSP16, literal(-3)))
          CFI DPL0 load(1, XDATA, add(CFA_XSP16, literal(-2)))
          CFI DPH0 load(1, XDATA, add(CFA_XSP16, literal(-1)))
          CFI CFA_SP SP+-2
          CFI CFA_XSP16 add(XSP16, 22)
          CFI Block cfiCond56 Using cfiCommon0
          CFI (cfiCond56) Function initiatorSendNwkJoinReq
          CFI (cfiCond56) Conditional ??CrossCallReturnLabel_97
          CFI (cfiCond56) R6 load(1, XDATA, add(CFA_XSP16, literal(-16)))
          CFI (cfiCond56) VB load(1, XDATA, add(CFA_XSP16, literal(-15)))
          CFI (cfiCond56) V0 load(1, XDATA, add(CFA_XSP16, literal(-14)))
          CFI (cfiCond56) V1 load(1, XDATA, add(CFA_XSP16, literal(-13)))
          CFI (cfiCond56) V2 load(1, XDATA, add(CFA_XSP16, literal(-12)))
          CFI (cfiCond56) V3 load(1, XDATA, add(CFA_XSP16, literal(-11)))
          CFI (cfiCond56) V4 load(1, XDATA, add(CFA_XSP16, literal(-10)))
          CFI (cfiCond56) V5 load(1, XDATA, add(CFA_XSP16, literal(-9)))
          CFI (cfiCond56) V6 load(1, XDATA, add(CFA_XSP16, literal(-8)))
          CFI (cfiCond56) V7 load(1, XDATA, add(CFA_XSP16, literal(-7)))
          CFI (cfiCond56) R7 load(1, XDATA, add(CFA_XSP16, literal(-6)))
          CFI (cfiCond56) ?RET_LOW load(1, XDATA, add(CFA_XSP16, literal(-5)))
          CFI (cfiCond56) ?RET_HIGH load(1, XDATA, add(CFA_XSP16, literal(-4)))
          CFI (cfiCond56) ?BRET_EXT load(1, XDATA, add(CFA_XSP16, literal(-3)))
          CFI (cfiCond56) DPL0 load(1, XDATA, add(CFA_XSP16, literal(-2)))
          CFI (cfiCond56) DPH0 load(1, XDATA, add(CFA_XSP16, literal(-1)))
          CFI (cfiCond56) CFA_SP SP+-2
          CFI (cfiCond56) CFA_XSP16 add(XSP16, 16)
          CFI Block cfiPicker57 Using cfiCommon1
          CFI (cfiPicker57) NoFunction
          CFI (cfiPicker57) Picker
        MOV       DPL,A
        CLR       A
        ADDC      A,R7
          CFI EndBlock cfiCond55
          CFI EndBlock cfiCond56
          CFI EndBlock cfiPicker57
        REQUIRE ??Subroutine48_0
        ; // Fall through to label ??Subroutine48_0

        RSEG BANKED_CODE:HUGECODE:NOROOT(0)
??Subroutine48_0:
          CFI Block cfiCond58 Using cfiCommon0
          CFI Function touchLinkInitiator_event_loop
          CFI Conditional ??CrossCallReturnLabel_95
          CFI R6 load(1, XDATA, add(CFA_XSP16, literal(-16)))
          CFI VB load(1, XDATA, add(CFA_XSP16, literal(-15)))
          CFI V0 load(1, XDATA, add(CFA_XSP16, literal(-14)))
          CFI V1 load(1, XDATA, add(CFA_XSP16, literal(-13)))
          CFI V2 load(1, XDATA, add(CFA_XSP16, literal(-12)))
          CFI V3 load(1, XDATA, add(CFA_XSP16, literal(-11)))
          CFI V4 load(1, XDATA, add(CFA_XSP16, literal(-10)))
          CFI V5 load(1, XDATA, add(CFA_XSP16, literal(-9)))
          CFI V6 load(1, XDATA, add(CFA_XSP16, literal(-8)))
          CFI V7 load(1, XDATA, add(CFA_XSP16, literal(-7)))
          CFI R7 load(1, XDATA, add(CFA_XSP16, literal(-6)))
          CFI ?RET_LOW load(1, XDATA, add(CFA_XSP16, literal(-5)))
          CFI ?RET_HIGH load(1, XDATA, add(CFA_XSP16, literal(-4)))
          CFI ?BRET_EXT load(1, XDATA, add(CFA_XSP16, literal(-3)))
          CFI DPL0 load(1, XDATA, add(CFA_XSP16, literal(-2)))
          CFI DPH0 load(1, XDATA, add(CFA_XSP16, literal(-1)))
          CFI CFA_SP SP+-2
          CFI CFA_XSP16 add(XSP16, 75)
          CFI Block cfiCond59 Using cfiCommon0
          CFI (cfiCond59) Function touchLink_InitiatorSendScanRsp
          CFI (cfiCond59) Conditional ??CrossCallReturnLabel_96
          CFI (cfiCond59) R6 load(1, XDATA, add(CFA_XSP16, literal(-22)))
          CFI (cfiCond59) VB load(1, XDATA, add(CFA_XSP16, literal(-21)))
          CFI (cfiCond59) V0 load(1, XDATA, add(CFA_XSP16, literal(-20)))
          CFI (cfiCond59) V1 load(1, XDATA, add(CFA_XSP16, literal(-19)))
          CFI (cfiCond59) V2 load(1, XDATA, add(CFA_XSP16, literal(-18)))
          CFI (cfiCond59) V3 load(1, XDATA, add(CFA_XSP16, literal(-17)))
          CFI (cfiCond59) V4 load(1, XDATA, add(CFA_XSP16, literal(-16)))
          CFI (cfiCond59) V5 load(1, XDATA, add(CFA_XSP16, literal(-15)))
          CFI (cfiCond59) V6 load(1, XDATA, add(CFA_XSP16, literal(-14)))
          CFI (cfiCond59) V7 load(1, XDATA, add(CFA_XSP16, literal(-13)))
          CFI (cfiCond59) V8 load(1, XDATA, add(CFA_XSP16, literal(-12)))
          CFI (cfiCond59) V9 load(1, XDATA, add(CFA_XSP16, literal(-11)))
          CFI (cfiCond59) V10 load(1, XDATA, add(CFA_XSP16, literal(-10)))
          CFI (cfiCond59) V11 load(1, XDATA, add(CFA_XSP16, literal(-9)))
          CFI (cfiCond59) V12 load(1, XDATA, add(CFA_XSP16, literal(-8)))
          CFI (cfiCond59) V13 load(1, XDATA, add(CFA_XSP16, literal(-7)))
          CFI (cfiCond59) R7 load(1, XDATA, add(CFA_XSP16, literal(-6)))
          CFI (cfiCond59) ?RET_LOW load(1, XDATA, add(CFA_XSP16, literal(-5)))
          CFI (cfiCond59) ?RET_HIGH load(1, XDATA, add(CFA_XSP16, literal(-4)))
          CFI (cfiCond59) ?BRET_EXT load(1, XDATA, add(CFA_XSP16, literal(-3)))
          CFI (cfiCond59) DPL0 load(1, XDATA, add(CFA_XSP16, literal(-2)))
          CFI (cfiCond59) DPH0 load(1, XDATA, add(CFA_XSP16, literal(-1)))
          CFI (cfiCond59) CFA_SP SP+-2
          CFI (cfiCond59) CFA_XSP16 add(XSP16, 22)
          CFI Block cfiCond60 Using cfiCommon0
          CFI (cfiCond60) Function initiatorSendNwkJoinReq
          CFI (cfiCond60) Conditional ??CrossCallReturnLabel_97
          CFI (cfiCond60) R6 load(1, XDATA, add(CFA_XSP16, literal(-16)))
          CFI (cfiCond60) VB load(1, XDATA, add(CFA_XSP16, literal(-15)))
          CFI (cfiCond60) V0 load(1, XDATA, add(CFA_XSP16, literal(-14)))
          CFI (cfiCond60) V1 load(1, XDATA, add(CFA_XSP16, literal(-13)))
          CFI (cfiCond60) V2 load(1, XDATA, add(CFA_XSP16, literal(-12)))
          CFI (cfiCond60) V3 load(1, XDATA, add(CFA_XSP16, literal(-11)))
          CFI (cfiCond60) V4 load(1, XDATA, add(CFA_XSP16, literal(-10)))
          CFI (cfiCond60) V5 load(1, XDATA, add(CFA_XSP16, literal(-9)))
          CFI (cfiCond60) V6 load(1, XDATA, add(CFA_XSP16, literal(-8)))
          CFI (cfiCond60) V7 load(1, XDATA, add(CFA_XSP16, literal(-7)))
          CFI (cfiCond60) R7 load(1, XDATA, add(CFA_XSP16, literal(-6)))
          CFI (cfiCond60) ?RET_LOW load(1, XDATA, add(CFA_XSP16, literal(-5)))
          CFI (cfiCond60) ?RET_HIGH load(1, XDATA, add(CFA_XSP16, literal(-4)))
          CFI (cfiCond60) ?BRET_EXT load(1, XDATA, add(CFA_XSP16, literal(-3)))
          CFI (cfiCond60) DPL0 load(1, XDATA, add(CFA_XSP16, literal(-2)))
          CFI (cfiCond60) DPH0 load(1, XDATA, add(CFA_XSP16, literal(-1)))
          CFI (cfiCond60) CFA_SP SP+-2
          CFI (cfiCond60) CFA_XSP16 add(XSP16, 16)
          CFI Block cfiPicker61 Using cfiCommon1
          CFI (cfiPicker61) NoFunction
          CFI (cfiPicker61) Picker
        MOV       DPH,A
          CFI EndBlock cfiCond58
          CFI EndBlock cfiCond59
          CFI EndBlock cfiCond60
          CFI EndBlock cfiPicker61
        REQUIRE ??Subroutine49_0
        ; // Fall through to label ??Subroutine49_0

        RSEG BANKED_CODE:HUGECODE:NOROOT(0)
??Subroutine49_0:
          CFI Block cfiCond62 Using cfiCommon0
          CFI Function touchLinkInitiator_StartDevDisc
          CFI Conditional ??CrossCallReturnLabel_85
          CFI R6 load(1, XDATA, add(CFA_XSP16, literal(-16)))
          CFI VB load(1, XDATA, add(CFA_XSP16, literal(-15)))
          CFI V0 load(1, XDATA, add(CFA_XSP16, literal(-14)))
          CFI V1 load(1, XDATA, add(CFA_XSP16, literal(-13)))
          CFI V2 load(1, XDATA, add(CFA_XSP16, literal(-12)))
          CFI V3 load(1, XDATA, add(CFA_XSP16, literal(-11)))
          CFI V4 load(1, XDATA, add(CFA_XSP16, literal(-10)))
          CFI V5 load(1, XDATA, add(CFA_XSP16, literal(-9)))
          CFI V6 load(1, XDATA, add(CFA_XSP16, literal(-8)))
          CFI V7 load(1, XDATA, add(CFA_XSP16, literal(-7)))
          CFI R7 load(1, XDATA, add(CFA_XSP16, literal(-6)))
          CFI ?RET_LOW load(1, XDATA, add(CFA_XSP16, literal(-5)))
          CFI ?RET_HIGH load(1, XDATA, add(CFA_XSP16, literal(-4)))
          CFI ?BRET_EXT load(1, XDATA, add(CFA_XSP16, literal(-3)))
          CFI DPL0 load(1, XDATA, add(CFA_XSP16, literal(-2)))
          CFI DPH0 load(1, XDATA, add(CFA_XSP16, literal(-1)))
          CFI CFA_SP SP+-2
          CFI CFA_XSP16 add(XSP16, 17)
          CFI Block cfiCond63 Using cfiCommon0
          CFI (cfiCond63) Function touchLinkInitiator_StartDevDisc
          CFI (cfiCond63) Conditional ??CrossCallReturnLabel_86
          CFI (cfiCond63) R6 load(1, XDATA, add(CFA_XSP16, literal(-16)))
          CFI (cfiCond63) VB load(1, XDATA, add(CFA_XSP16, literal(-15)))
          CFI (cfiCond63) V0 load(1, XDATA, add(CFA_XSP16, literal(-14)))
          CFI (cfiCond63) V1 load(1, XDATA, add(CFA_XSP16, literal(-13)))
          CFI (cfiCond63) V2 load(1, XDATA, add(CFA_XSP16, literal(-12)))
          CFI (cfiCond63) V3 load(1, XDATA, add(CFA_XSP16, literal(-11)))
          CFI (cfiCond63) V4 load(1, XDATA, add(CFA_XSP16, literal(-10)))
          CFI (cfiCond63) V5 load(1, XDATA, add(CFA_XSP16, literal(-9)))
          CFI (cfiCond63) V6 load(1, XDATA, add(CFA_XSP16, literal(-8)))
          CFI (cfiCond63) V7 load(1, XDATA, add(CFA_XSP16, literal(-7)))
          CFI (cfiCond63) R7 load(1, XDATA, add(CFA_XSP16, literal(-6)))
          CFI (cfiCond63) ?RET_LOW load(1, XDATA, add(CFA_XSP16, literal(-5)))
          CFI (cfiCond63) ?RET_HIGH load(1, XDATA, add(CFA_XSP16, literal(-4)))
          CFI (cfiCond63) ?BRET_EXT load(1, XDATA, add(CFA_XSP16, literal(-3)))
          CFI (cfiCond63) DPL0 load(1, XDATA, add(CFA_XSP16, literal(-2)))
          CFI (cfiCond63) DPH0 load(1, XDATA, add(CFA_XSP16, literal(-1)))
          CFI (cfiCond63) CFA_SP SP+-2
          CFI (cfiCond63) CFA_XSP16 add(XSP16, 17)
          CFI Block cfiCond64 Using cfiCommon0
          CFI (cfiCond64) Function touchLinkInitiator_event_loop
          CFI (cfiCond64) Conditional ??CrossCallReturnLabel_87
          CFI (cfiCond64) R6 load(1, XDATA, add(CFA_XSP16, literal(-16)))
          CFI (cfiCond64) VB load(1, XDATA, add(CFA_XSP16, literal(-15)))
          CFI (cfiCond64) V0 load(1, XDATA, add(CFA_XSP16, literal(-14)))
          CFI (cfiCond64) V1 load(1, XDATA, add(CFA_XSP16, literal(-13)))
          CFI (cfiCond64) V2 load(1, XDATA, add(CFA_XSP16, literal(-12)))
          CFI (cfiCond64) V3 load(1, XDATA, add(CFA_XSP16, literal(-11)))
          CFI (cfiCond64) V4 load(1, XDATA, add(CFA_XSP16, literal(-10)))
          CFI (cfiCond64) V5 load(1, XDATA, add(CFA_XSP16, literal(-9)))
          CFI (cfiCond64) V6 load(1, XDATA, add(CFA_XSP16, literal(-8)))
          CFI (cfiCond64) V7 load(1, XDATA, add(CFA_XSP16, literal(-7)))
          CFI (cfiCond64) R7 load(1, XDATA, add(CFA_XSP16, literal(-6)))
          CFI (cfiCond64) ?RET_LOW load(1, XDATA, add(CFA_XSP16, literal(-5)))
          CFI (cfiCond64) ?RET_HIGH load(1, XDATA, add(CFA_XSP16, literal(-4)))
          CFI (cfiCond64) ?BRET_EXT load(1, XDATA, add(CFA_XSP16, literal(-3)))
          CFI (cfiCond64) DPL0 load(1, XDATA, add(CFA_XSP16, literal(-2)))
          CFI (cfiCond64) DPH0 load(1, XDATA, add(CFA_XSP16, literal(-1)))
          CFI (cfiCond64) CFA_SP SP+-2
          CFI (cfiCond64) CFA_XSP16 add(XSP16, 75)
          CFI Block cfiCond65 Using cfiCommon0
          CFI (cfiCond65) Function touchLinkInitiator_event_loop
          CFI (cfiCond65) Conditional ??CrossCallReturnLabel_88
          CFI (cfiCond65) R6 load(1, XDATA, add(CFA_XSP16, literal(-16)))
          CFI (cfiCond65) VB load(1, XDATA, add(CFA_XSP16, literal(-15)))
          CFI (cfiCond65) V0 load(1, XDATA, add(CFA_XSP16, literal(-14)))
          CFI (cfiCond65) V1 load(1, XDATA, add(CFA_XSP16, literal(-13)))
          CFI (cfiCond65) V2 load(1, XDATA, add(CFA_XSP16, literal(-12)))
          CFI (cfiCond65) V3 load(1, XDATA, add(CFA_XSP16, literal(-11)))
          CFI (cfiCond65) V4 load(1, XDATA, add(CFA_XSP16, literal(-10)))
          CFI (cfiCond65) V5 load(1, XDATA, add(CFA_XSP16, literal(-9)))
          CFI (cfiCond65) V6 load(1, XDATA, add(CFA_XSP16, literal(-8)))
          CFI (cfiCond65) V7 load(1, XDATA, add(CFA_XSP16, literal(-7)))
          CFI (cfiCond65) R7 load(1, XDATA, add(CFA_XSP16, literal(-6)))
          CFI (cfiCond65) ?RET_LOW load(1, XDATA, add(CFA_XSP16, literal(-5)))
          CFI (cfiCond65) ?RET_HIGH load(1, XDATA, add(CFA_XSP16, literal(-4)))
          CFI (cfiCond65) ?BRET_EXT load(1, XDATA, add(CFA_XSP16, literal(-3)))
          CFI (cfiCond65) DPL0 load(1, XDATA, add(CFA_XSP16, literal(-2)))
          CFI (cfiCond65) DPH0 load(1, XDATA, add(CFA_XSP16, literal(-1)))
          CFI (cfiCond65) CFA_SP SP+-2
          CFI (cfiCond65) CFA_XSP16 add(XSP16, 75)
          CFI Block cfiCond66 Using cfiCommon0
          CFI (cfiCond66) Function touchLinkInitiator_event_loop
          CFI (cfiCond66) Conditional ??CrossCallReturnLabel_89
          CFI (cfiCond66) R6 load(1, XDATA, add(CFA_XSP16, literal(-16)))
          CFI (cfiCond66) VB load(1, XDATA, add(CFA_XSP16, literal(-15)))
          CFI (cfiCond66) V0 load(1, XDATA, add(CFA_XSP16, literal(-14)))
          CFI (cfiCond66) V1 load(1, XDATA, add(CFA_XSP16, literal(-13)))
          CFI (cfiCond66) V2 load(1, XDATA, add(CFA_XSP16, literal(-12)))
          CFI (cfiCond66) V3 load(1, XDATA, add(CFA_XSP16, literal(-11)))
          CFI (cfiCond66) V4 load(1, XDATA, add(CFA_XSP16, literal(-10)))
          CFI (cfiCond66) V5 load(1, XDATA, add(CFA_XSP16, literal(-9)))
          CFI (cfiCond66) V6 load(1, XDATA, add(CFA_XSP16, literal(-8)))
          CFI (cfiCond66) V7 load(1, XDATA, add(CFA_XSP16, literal(-7)))
          CFI (cfiCond66) R7 load(1, XDATA, add(CFA_XSP16, literal(-6)))
          CFI (cfiCond66) ?RET_LOW load(1, XDATA, add(CFA_XSP16, literal(-5)))
          CFI (cfiCond66) ?RET_HIGH load(1, XDATA, add(CFA_XSP16, literal(-4)))
          CFI (cfiCond66) ?BRET_EXT load(1, XDATA, add(CFA_XSP16, literal(-3)))
          CFI (cfiCond66) DPL0 load(1, XDATA, add(CFA_XSP16, literal(-2)))
          CFI (cfiCond66) DPH0 load(1, XDATA, add(CFA_XSP16, literal(-1)))
          CFI (cfiCond66) CFA_SP SP+-2
          CFI (cfiCond66) CFA_XSP16 add(XSP16, 75)
          CFI Block cfiCond67 Using cfiCommon0
          CFI (cfiCond67) Function touchLinkInitiator_SendEPInfo
          CFI (cfiCond67) Conditional ??CrossCallReturnLabel_90
          CFI (cfiCond67) R6 load(1, XDATA, add(CFA_XSP16, literal(-12)))
          CFI (cfiCond67) VB load(1, XDATA, add(CFA_XSP16, literal(-11)))
          CFI (cfiCond67) V0 load(1, XDATA, add(CFA_XSP16, literal(-10)))
          CFI (cfiCond67) V1 load(1, XDATA, add(CFA_XSP16, literal(-9)))
          CFI (cfiCond67) V2 load(1, XDATA, add(CFA_XSP16, literal(-8)))
          CFI (cfiCond67) V3 load(1, XDATA, add(CFA_XSP16, literal(-7)))
          CFI (cfiCond67) R7 load(1, XDATA, add(CFA_XSP16, literal(-6)))
          CFI (cfiCond67) ?RET_LOW load(1, XDATA, add(CFA_XSP16, literal(-5)))
          CFI (cfiCond67) ?RET_HIGH load(1, XDATA, add(CFA_XSP16, literal(-4)))
          CFI (cfiCond67) ?BRET_EXT load(1, XDATA, add(CFA_XSP16, literal(-3)))
          CFI (cfiCond67) DPL0 load(1, XDATA, add(CFA_XSP16, literal(-2)))
          CFI (cfiCond67) DPH0 load(1, XDATA, add(CFA_XSP16, literal(-1)))
          CFI (cfiCond67) CFA_SP SP+-2
          CFI (cfiCond67) CFA_XSP16 add(XSP16, 35)
          CFI Block cfiCond68 Using cfiCommon0
          CFI (cfiCond68) Function touchLinkInitiator_SendEPInfo
          CFI (cfiCond68) Conditional ??CrossCallReturnLabel_91
          CFI (cfiCond68) R6 load(1, XDATA, add(CFA_XSP16, literal(-12)))
          CFI (cfiCond68) VB load(1, XDATA, add(CFA_XSP16, literal(-11)))
          CFI (cfiCond68) V0 load(1, XDATA, add(CFA_XSP16, literal(-10)))
          CFI (cfiCond68) V1 load(1, XDATA, add(CFA_XSP16, literal(-9)))
          CFI (cfiCond68) V2 load(1, XDATA, add(CFA_XSP16, literal(-8)))
          CFI (cfiCond68) V3 load(1, XDATA, add(CFA_XSP16, literal(-7)))
          CFI (cfiCond68) R7 load(1, XDATA, add(CFA_XSP16, literal(-6)))
          CFI (cfiCond68) ?RET_LOW load(1, XDATA, add(CFA_XSP16, literal(-5)))
          CFI (cfiCond68) ?RET_HIGH load(1, XDATA, add(CFA_XSP16, literal(-4)))
          CFI (cfiCond68) ?BRET_EXT load(1, XDATA, add(CFA_XSP16, literal(-3)))
          CFI (cfiCond68) DPL0 load(1, XDATA, add(CFA_XSP16, literal(-2)))
          CFI (cfiCond68) DPH0 load(1, XDATA, add(CFA_XSP16, literal(-1)))
          CFI (cfiCond68) CFA_SP SP+-2
          CFI (cfiCond68) CFA_XSP16 add(XSP16, 35)
          CFI Block cfiCond69 Using cfiCommon0
          CFI (cfiCond69) Function initiatorReJoinNwk
          CFI (cfiCond69) Conditional ??CrossCallReturnLabel_92
          CFI (cfiCond69) R6 load(1, XDATA, add(CFA_XSP16, literal(-9)))
          CFI (cfiCond69) VB load(1, XDATA, add(CFA_XSP16, literal(-8)))
          CFI (cfiCond69) V0 load(1, XDATA, add(CFA_XSP16, literal(-7)))
          CFI (cfiCond69) R7 load(1, XDATA, add(CFA_XSP16, literal(-6)))
          CFI (cfiCond69) ?RET_LOW load(1, XDATA, add(CFA_XSP16, literal(-5)))
          CFI (cfiCond69) ?RET_HIGH load(1, XDATA, add(CFA_XSP16, literal(-4)))
          CFI (cfiCond69) ?BRET_EXT load(1, XDATA, add(CFA_XSP16, literal(-3)))
          CFI (cfiCond69) DPL0 load(1, XDATA, add(CFA_XSP16, literal(-2)))
          CFI (cfiCond69) DPH0 load(1, XDATA, add(CFA_XSP16, literal(-1)))
          CFI (cfiCond69) CFA_SP SP+-2
          CFI (cfiCond69) CFA_XSP16 add(XSP16, 9)
          CFI Block cfiCond70 Using cfiCommon0
          CFI (cfiCond70) Function initiatorSendScanReq
          CFI (cfiCond70) Conditional ??CrossCallReturnLabel_93
          CFI (cfiCond70) R6 load(1, XDATA, add(CFA_XSP16, literal(-9)))
          CFI (cfiCond70) VB load(1, XDATA, add(CFA_XSP16, literal(-8)))
          CFI (cfiCond70) V0 load(1, XDATA, add(CFA_XSP16, literal(-7)))
          CFI (cfiCond70) R7 load(1, XDATA, add(CFA_XSP16, literal(-6)))
          CFI (cfiCond70) ?RET_LOW load(1, XDATA, add(CFA_XSP16, literal(-5)))
          CFI (cfiCond70) ?RET_HIGH load(1, XDATA, add(CFA_XSP16, literal(-4)))
          CFI (cfiCond70) ?BRET_EXT load(1, XDATA, add(CFA_XSP16, literal(-3)))
          CFI (cfiCond70) DPL0 load(1, XDATA, add(CFA_XSP16, literal(-2)))
          CFI (cfiCond70) DPH0 load(1, XDATA, add(CFA_XSP16, literal(-1)))
          CFI (cfiCond70) CFA_SP SP+-2
          CFI (cfiCond70) CFA_XSP16 add(XSP16, 29)
          CFI Block cfiCond71 Using cfiCommon0
          CFI (cfiCond71) Function initiatorSendNwkJoinReq
          CFI (cfiCond71) Conditional ??CrossCallReturnLabel_94
          CFI (cfiCond71) R6 load(1, XDATA, add(CFA_XSP16, literal(-16)))
          CFI (cfiCond71) VB load(1, XDATA, add(CFA_XSP16, literal(-15)))
          CFI (cfiCond71) V0 load(1, XDATA, add(CFA_XSP16, literal(-14)))
          CFI (cfiCond71) V1 load(1, XDATA, add(CFA_XSP16, literal(-13)))
          CFI (cfiCond71) V2 load(1, XDATA, add(CFA_XSP16, literal(-12)))
          CFI (cfiCond71) V3 load(1, XDATA, add(CFA_XSP16, literal(-11)))
          CFI (cfiCond71) V4 load(1, XDATA, add(CFA_XSP16, literal(-10)))
          CFI (cfiCond71) V5 load(1, XDATA, add(CFA_XSP16, literal(-9)))
          CFI (cfiCond71) V6 load(1, XDATA, add(CFA_XSP16, literal(-8)))
          CFI (cfiCond71) V7 load(1, XDATA, add(CFA_XSP16, literal(-7)))
          CFI (cfiCond71) R7 load(1, XDATA, add(CFA_XSP16, literal(-6)))
          CFI (cfiCond71) ?RET_LOW load(1, XDATA, add(CFA_XSP16, literal(-5)))
          CFI (cfiCond71) ?RET_HIGH load(1, XDATA, add(CFA_XSP16, literal(-4)))
          CFI (cfiCond71) ?BRET_EXT load(1, XDATA, add(CFA_XSP16, literal(-3)))
          CFI (cfiCond71) DPL0 load(1, XDATA, add(CFA_XSP16, literal(-2)))
          CFI (cfiCond71) DPH0 load(1, XDATA, add(CFA_XSP16, literal(-1)))
          CFI (cfiCond71) CFA_SP SP+-2
          CFI (cfiCond71) CFA_XSP16 add(XSP16, 16)
          CFI Block cfiCond72 Using cfiCommon0
          CFI (cfiCond72) Function touchLinkInitiator_event_loop
          CFI (cfiCond72) Conditional ??CrossCallReturnLabel_95
          CFI (cfiCond72) R6 load(1, XDATA, add(CFA_XSP16, literal(-16)))
          CFI (cfiCond72) VB load(1, XDATA, add(CFA_XSP16, literal(-15)))
          CFI (cfiCond72) V0 load(1, XDATA, add(CFA_XSP16, literal(-14)))
          CFI (cfiCond72) V1 load(1, XDATA, add(CFA_XSP16, literal(-13)))
          CFI (cfiCond72) V2 load(1, XDATA, add(CFA_XSP16, literal(-12)))
          CFI (cfiCond72) V3 load(1, XDATA, add(CFA_XSP16, literal(-11)))
          CFI (cfiCond72) V4 load(1, XDATA, add(CFA_XSP16, literal(-10)))
          CFI (cfiCond72) V5 load(1, XDATA, add(CFA_XSP16, literal(-9)))
          CFI (cfiCond72) V6 load(1, XDATA, add(CFA_XSP16, literal(-8)))
          CFI (cfiCond72) V7 load(1, XDATA, add(CFA_XSP16, literal(-7)))
          CFI (cfiCond72) R7 load(1, XDATA, add(CFA_XSP16, literal(-6)))
          CFI (cfiCond72) ?RET_LOW load(1, XDATA, add(CFA_XSP16, literal(-5)))
          CFI (cfiCond72) ?RET_HIGH load(1, XDATA, add(CFA_XSP16, literal(-4)))
          CFI (cfiCond72) ?BRET_EXT load(1, XDATA, add(CFA_XSP16, literal(-3)))
          CFI (cfiCond72) DPL0 load(1, XDATA, add(CFA_XSP16, literal(-2)))
          CFI (cfiCond72) DPH0 load(1, XDATA, add(CFA_XSP16, literal(-1)))
          CFI (cfiCond72) CFA_SP SP+-2
          CFI (cfiCond72) CFA_XSP16 add(XSP16, 75)
          CFI Block cfiCond73 Using cfiCommon0
          CFI (cfiCond73) Function touchLink_InitiatorSendScanRsp
          CFI (cfiCond73) Conditional ??CrossCallReturnLabel_96
          CFI (cfiCond73) R6 load(1, XDATA, add(CFA_XSP16, literal(-22)))
          CFI (cfiCond73) VB load(1, XDATA, add(CFA_XSP16, literal(-21)))
          CFI (cfiCond73) V0 load(1, XDATA, add(CFA_XSP16, literal(-20)))
          CFI (cfiCond73) V1 load(1, XDATA, add(CFA_XSP16, literal(-19)))
          CFI (cfiCond73) V2 load(1, XDATA, add(CFA_XSP16, literal(-18)))
          CFI (cfiCond73) V3 load(1, XDATA, add(CFA_XSP16, literal(-17)))
          CFI (cfiCond73) V4 load(1, XDATA, add(CFA_XSP16, literal(-16)))
          CFI (cfiCond73) V5 load(1, XDATA, add(CFA_XSP16, literal(-15)))
          CFI (cfiCond73) V6 load(1, XDATA, add(CFA_XSP16, literal(-14)))
          CFI (cfiCond73) V7 load(1, XDATA, add(CFA_XSP16, literal(-13)))
          CFI (cfiCond73) V8 load(1, XDATA, add(CFA_XSP16, literal(-12)))
          CFI (cfiCond73) V9 load(1, XDATA, add(CFA_XSP16, literal(-11)))
          CFI (cfiCond73) V10 load(1, XDATA, add(CFA_XSP16, literal(-10)))
          CFI (cfiCond73) V11 load(1, XDATA, add(CFA_XSP16, literal(-9)))
          CFI (cfiCond73) V12 load(1, XDATA, add(CFA_XSP16, literal(-8)))
          CFI (cfiCond73) V13 load(1, XDATA, add(CFA_XSP16, literal(-7)))
          CFI (cfiCond73) R7 load(1, XDATA, add(CFA_XSP16, literal(-6)))
          CFI (cfiCond73) ?RET_LOW load(1, XDATA, add(CFA_XSP16, literal(-5)))
          CFI (cfiCond73) ?RET_HIGH load(1, XDATA, add(CFA_XSP16, literal(-4)))
          CFI (cfiCond73) ?BRET_EXT load(1, XDATA, add(CFA_XSP16, literal(-3)))
          CFI (cfiCond73) DPL0 load(1, XDATA, add(CFA_XSP16, literal(-2)))
          CFI (cfiCond73) DPH0 load(1, XDATA, add(CFA_XSP16, literal(-1)))
          CFI (cfiCond73) CFA_SP SP+-2
          CFI (cfiCond73) CFA_XSP16 add(XSP16, 22)
          CFI Block cfiCond74 Using cfiCommon0
          CFI (cfiCond74) Function initiatorSendNwkJoinReq
          CFI (cfiCond74) Conditional ??CrossCallReturnLabel_97
          CFI (cfiCond74) R6 load(1, XDATA, add(CFA_XSP16, literal(-16)))
          CFI (cfiCond74) VB load(1, XDATA, add(CFA_XSP16, literal(-15)))
          CFI (cfiCond74) V0 load(1, XDATA, add(CFA_XSP16, literal(-14)))
          CFI (cfiCond74) V1 load(1, XDATA, add(CFA_XSP16, literal(-13)))
          CFI (cfiCond74) V2 load(1, XDATA, add(CFA_XSP16, literal(-12)))
          CFI (cfiCond74) V3 load(1, XDATA, add(CFA_XSP16, literal(-11)))
          CFI (cfiCond74) V4 load(1, XDATA, add(CFA_XSP16, literal(-10)))
          CFI (cfiCond74) V5 load(1, XDATA, add(CFA_XSP16, literal(-9)))
          CFI (cfiCond74) V6 load(1, XDATA, add(CFA_XSP16, literal(-8)))
          CFI (cfiCond74) V7 load(1, XDATA, add(CFA_XSP16, literal(-7)))
          CFI (cfiCond74) R7 load(1, XDATA, add(CFA_XSP16, literal(-6)))
          CFI (cfiCond74) ?RET_LOW load(1, XDATA, add(CFA_XSP16, literal(-5)))
          CFI (cfiCond74) ?RET_HIGH load(1, XDATA, add(CFA_XSP16, literal(-4)))
          CFI (cfiCond74) ?BRET_EXT load(1, XDATA, add(CFA_XSP16, literal(-3)))
          CFI (cfiCond74) DPL0 load(1, XDATA, add(CFA_XSP16, literal(-2)))
          CFI (cfiCond74) DPH0 load(1, XDATA, add(CFA_XSP16, literal(-1)))
          CFI (cfiCond74) CFA_SP SP+-2
          CFI (cfiCond74) CFA_XSP16 add(XSP16, 16)
          CFI Block cfiPicker75 Using cfiCommon1
          CFI (cfiPicker75) NoFunction
          CFI (cfiPicker75) Picker
        MOV       A,R0
          CFI EndBlock cfiCond62
          CFI EndBlock cfiCond63
          CFI EndBlock cfiCond64
          CFI EndBlock cfiCond65
          CFI EndBlock cfiCond66
          CFI EndBlock cfiCond67
          CFI EndBlock cfiCond68
          CFI EndBlock cfiCond69
          CFI EndBlock cfiCond70
          CFI EndBlock cfiCond71
          CFI EndBlock cfiCond72
          CFI EndBlock cfiCond73
          CFI EndBlock cfiCond74
          CFI EndBlock cfiPicker75
        REQUIRE ??Subroutine50_0
        ; // Fall through to label ??Subroutine50_0

        RSEG BANKED_CODE:HUGECODE:NOROOT(0)
??Subroutine50_0:
          CFI Block cfiCond76 Using cfiCommon0
          CFI Function touchLink_InitiatorSendScanRsp
          CFI Conditional ??CrossCallReturnLabel_84
          CFI R6 load(1, XDATA, add(CFA_XSP16, literal(-22)))
          CFI VB load(1, XDATA, add(CFA_XSP16, literal(-21)))
          CFI V0 load(1, XDATA, add(CFA_XSP16, literal(-20)))
          CFI V1 load(1, XDATA, add(CFA_XSP16, literal(-19)))
          CFI V2 load(1, XDATA, add(CFA_XSP16, literal(-18)))
          CFI V3 load(1, XDATA, add(CFA_XSP16, literal(-17)))
          CFI V4 load(1, XDATA, add(CFA_XSP16, literal(-16)))
          CFI V5 load(1, XDATA, add(CFA_XSP16, literal(-15)))
          CFI V6 load(1, XDATA, add(CFA_XSP16, literal(-14)))
          CFI V7 load(1, XDATA, add(CFA_XSP16, literal(-13)))
          CFI V8 load(1, XDATA, add(CFA_XSP16, literal(-12)))
          CFI V9 load(1, XDATA, add(CFA_XSP16, literal(-11)))
          CFI V10 load(1, XDATA, add(CFA_XSP16, literal(-10)))
          CFI V11 load(1, XDATA, add(CFA_XSP16, literal(-9)))
          CFI V12 load(1, XDATA, add(CFA_XSP16, literal(-8)))
          CFI V13 load(1, XDATA, add(CFA_XSP16, literal(-7)))
          CFI R7 load(1, XDATA, add(CFA_XSP16, literal(-6)))
          CFI ?RET_LOW load(1, XDATA, add(CFA_XSP16, literal(-5)))
          CFI ?RET_HIGH load(1, XDATA, add(CFA_XSP16, literal(-4)))
          CFI ?BRET_EXT load(1, XDATA, add(CFA_XSP16, literal(-3)))
          CFI DPL0 load(1, XDATA, add(CFA_XSP16, literal(-2)))
          CFI DPH0 load(1, XDATA, add(CFA_XSP16, literal(-1)))
          CFI CFA_SP SP+-2
          CFI CFA_XSP16 add(XSP16, 22)
          CFI Block cfiCond77 Using cfiCommon0
          CFI (cfiCond77) Function touchLinkInitiator_StartDevDisc
          CFI (cfiCond77) Conditional ??CrossCallReturnLabel_85
          CFI (cfiCond77) R6 load(1, XDATA, add(CFA_XSP16, literal(-16)))
          CFI (cfiCond77) VB load(1, XDATA, add(CFA_XSP16, literal(-15)))
          CFI (cfiCond77) V0 load(1, XDATA, add(CFA_XSP16, literal(-14)))
          CFI (cfiCond77) V1 load(1, XDATA, add(CFA_XSP16, literal(-13)))
          CFI (cfiCond77) V2 load(1, XDATA, add(CFA_XSP16, literal(-12)))
          CFI (cfiCond77) V3 load(1, XDATA, add(CFA_XSP16, literal(-11)))
          CFI (cfiCond77) V4 load(1, XDATA, add(CFA_XSP16, literal(-10)))
          CFI (cfiCond77) V5 load(1, XDATA, add(CFA_XSP16, literal(-9)))
          CFI (cfiCond77) V6 load(1, XDATA, add(CFA_XSP16, literal(-8)))
          CFI (cfiCond77) V7 load(1, XDATA, add(CFA_XSP16, literal(-7)))
          CFI (cfiCond77) R7 load(1, XDATA, add(CFA_XSP16, literal(-6)))
          CFI (cfiCond77) ?RET_LOW load(1, XDATA, add(CFA_XSP16, literal(-5)))
          CFI (cfiCond77) ?RET_HIGH load(1, XDATA, add(CFA_XSP16, literal(-4)))
          CFI (cfiCond77) ?BRET_EXT load(1, XDATA, add(CFA_XSP16, literal(-3)))
          CFI (cfiCond77) DPL0 load(1, XDATA, add(CFA_XSP16, literal(-2)))
          CFI (cfiCond77) DPH0 load(1, XDATA, add(CFA_XSP16, literal(-1)))
          CFI (cfiCond77) CFA_SP SP+-2
          CFI (cfiCond77) CFA_XSP16 add(XSP16, 17)
          CFI Block cfiCond78 Using cfiCommon0
          CFI (cfiCond78) Function touchLinkInitiator_StartDevDisc
          CFI (cfiCond78) Conditional ??CrossCallReturnLabel_86
          CFI (cfiCond78) R6 load(1, XDATA, add(CFA_XSP16, literal(-16)))
          CFI (cfiCond78) VB load(1, XDATA, add(CFA_XSP16, literal(-15)))
          CFI (cfiCond78) V0 load(1, XDATA, add(CFA_XSP16, literal(-14)))
          CFI (cfiCond78) V1 load(1, XDATA, add(CFA_XSP16, literal(-13)))
          CFI (cfiCond78) V2 load(1, XDATA, add(CFA_XSP16, literal(-12)))
          CFI (cfiCond78) V3 load(1, XDATA, add(CFA_XSP16, literal(-11)))
          CFI (cfiCond78) V4 load(1, XDATA, add(CFA_XSP16, literal(-10)))
          CFI (cfiCond78) V5 load(1, XDATA, add(CFA_XSP16, literal(-9)))
          CFI (cfiCond78) V6 load(1, XDATA, add(CFA_XSP16, literal(-8)))
          CFI (cfiCond78) V7 load(1, XDATA, add(CFA_XSP16, literal(-7)))
          CFI (cfiCond78) R7 load(1, XDATA, add(CFA_XSP16, literal(-6)))
          CFI (cfiCond78) ?RET_LOW load(1, XDATA, add(CFA_XSP16, literal(-5)))
          CFI (cfiCond78) ?RET_HIGH load(1, XDATA, add(CFA_XSP16, literal(-4)))
          CFI (cfiCond78) ?BRET_EXT load(1, XDATA, add(CFA_XSP16, literal(-3)))
          CFI (cfiCond78) DPL0 load(1, XDATA, add(CFA_XSP16, literal(-2)))
          CFI (cfiCond78) DPH0 load(1, XDATA, add(CFA_XSP16, literal(-1)))
          CFI (cfiCond78) CFA_SP SP+-2
          CFI (cfiCond78) CFA_XSP16 add(XSP16, 17)
          CFI Block cfiCond79 Using cfiCommon0
          CFI (cfiCond79) Function touchLinkInitiator_event_loop
          CFI (cfiCond79) Conditional ??CrossCallReturnLabel_87
          CFI (cfiCond79) R6 load(1, XDATA, add(CFA_XSP16, literal(-16)))
          CFI (cfiCond79) VB load(1, XDATA, add(CFA_XSP16, literal(-15)))
          CFI (cfiCond79) V0 load(1, XDATA, add(CFA_XSP16, literal(-14)))
          CFI (cfiCond79) V1 load(1, XDATA, add(CFA_XSP16, literal(-13)))
          CFI (cfiCond79) V2 load(1, XDATA, add(CFA_XSP16, literal(-12)))
          CFI (cfiCond79) V3 load(1, XDATA, add(CFA_XSP16, literal(-11)))
          CFI (cfiCond79) V4 load(1, XDATA, add(CFA_XSP16, literal(-10)))
          CFI (cfiCond79) V5 load(1, XDATA, add(CFA_XSP16, literal(-9)))
          CFI (cfiCond79) V6 load(1, XDATA, add(CFA_XSP16, literal(-8)))
          CFI (cfiCond79) V7 load(1, XDATA, add(CFA_XSP16, literal(-7)))
          CFI (cfiCond79) R7 load(1, XDATA, add(CFA_XSP16, literal(-6)))
          CFI (cfiCond79) ?RET_LOW load(1, XDATA, add(CFA_XSP16, literal(-5)))
          CFI (cfiCond79) ?RET_HIGH load(1, XDATA, add(CFA_XSP16, literal(-4)))
          CFI (cfiCond79) ?BRET_EXT load(1, XDATA, add(CFA_XSP16, literal(-3)))
          CFI (cfiCond79) DPL0 load(1, XDATA, add(CFA_XSP16, literal(-2)))
          CFI (cfiCond79) DPH0 load(1, XDATA, add(CFA_XSP16, literal(-1)))
          CFI (cfiCond79) CFA_SP SP+-2
          CFI (cfiCond79) CFA_XSP16 add(XSP16, 75)
          CFI Block cfiCond80 Using cfiCommon0
          CFI (cfiCond80) Function touchLinkInitiator_event_loop
          CFI (cfiCond80) Conditional ??CrossCallReturnLabel_88
          CFI (cfiCond80) R6 load(1, XDATA, add(CFA_XSP16, literal(-16)))
          CFI (cfiCond80) VB load(1, XDATA, add(CFA_XSP16, literal(-15)))
          CFI (cfiCond80) V0 load(1, XDATA, add(CFA_XSP16, literal(-14)))
          CFI (cfiCond80) V1 load(1, XDATA, add(CFA_XSP16, literal(-13)))
          CFI (cfiCond80) V2 load(1, XDATA, add(CFA_XSP16, literal(-12)))
          CFI (cfiCond80) V3 load(1, XDATA, add(CFA_XSP16, literal(-11)))
          CFI (cfiCond80) V4 load(1, XDATA, add(CFA_XSP16, literal(-10)))
          CFI (cfiCond80) V5 load(1, XDATA, add(CFA_XSP16, literal(-9)))
          CFI (cfiCond80) V6 load(1, XDATA, add(CFA_XSP16, literal(-8)))
          CFI (cfiCond80) V7 load(1, XDATA, add(CFA_XSP16, literal(-7)))
          CFI (cfiCond80) R7 load(1, XDATA, add(CFA_XSP16, literal(-6)))
          CFI (cfiCond80) ?RET_LOW load(1, XDATA, add(CFA_XSP16, literal(-5)))
          CFI (cfiCond80) ?RET_HIGH load(1, XDATA, add(CFA_XSP16, literal(-4)))
          CFI (cfiCond80) ?BRET_EXT load(1, XDATA, add(CFA_XSP16, literal(-3)))
          CFI (cfiCond80) DPL0 load(1, XDATA, add(CFA_XSP16, literal(-2)))
          CFI (cfiCond80) DPH0 load(1, XDATA, add(CFA_XSP16, literal(-1)))
          CFI (cfiCond80) CFA_SP SP+-2
          CFI (cfiCond80) CFA_XSP16 add(XSP16, 75)
          CFI Block cfiCond81 Using cfiCommon0
          CFI (cfiCond81) Function touchLinkInitiator_event_loop
          CFI (cfiCond81) Conditional ??CrossCallReturnLabel_89
          CFI (cfiCond81) R6 load(1, XDATA, add(CFA_XSP16, literal(-16)))
          CFI (cfiCond81) VB load(1, XDATA, add(CFA_XSP16, literal(-15)))
          CFI (cfiCond81) V0 load(1, XDATA, add(CFA_XSP16, literal(-14)))
          CFI (cfiCond81) V1 load(1, XDATA, add(CFA_XSP16, literal(-13)))
          CFI (cfiCond81) V2 load(1, XDATA, add(CFA_XSP16, literal(-12)))
          CFI (cfiCond81) V3 load(1, XDATA, add(CFA_XSP16, literal(-11)))
          CFI (cfiCond81) V4 load(1, XDATA, add(CFA_XSP16, literal(-10)))
          CFI (cfiCond81) V5 load(1, XDATA, add(CFA_XSP16, literal(-9)))
          CFI (cfiCond81) V6 load(1, XDATA, add(CFA_XSP16, literal(-8)))
          CFI (cfiCond81) V7 load(1, XDATA, add(CFA_XSP16, literal(-7)))
          CFI (cfiCond81) R7 load(1, XDATA, add(CFA_XSP16, literal(-6)))
          CFI (cfiCond81) ?RET_LOW load(1, XDATA, add(CFA_XSP16, literal(-5)))
          CFI (cfiCond81) ?RET_HIGH load(1, XDATA, add(CFA_XSP16, literal(-4)))
          CFI (cfiCond81) ?BRET_EXT load(1, XDATA, add(CFA_XSP16, literal(-3)))
          CFI (cfiCond81) DPL0 load(1, XDATA, add(CFA_XSP16, literal(-2)))
          CFI (cfiCond81) DPH0 load(1, XDATA, add(CFA_XSP16, literal(-1)))
          CFI (cfiCond81) CFA_SP SP+-2
          CFI (cfiCond81) CFA_XSP16 add(XSP16, 75)
          CFI Block cfiCond82 Using cfiCommon0
          CFI (cfiCond82) Function touchLinkInitiator_SendEPInfo
          CFI (cfiCond82) Conditional ??CrossCallReturnLabel_90
          CFI (cfiCond82) R6 load(1, XDATA, add(CFA_XSP16, literal(-12)))
          CFI (cfiCond82) VB load(1, XDATA, add(CFA_XSP16, literal(-11)))
          CFI (cfiCond82) V0 load(1, XDATA, add(CFA_XSP16, literal(-10)))
          CFI (cfiCond82) V1 load(1, XDATA, add(CFA_XSP16, literal(-9)))
          CFI (cfiCond82) V2 load(1, XDATA, add(CFA_XSP16, literal(-8)))
          CFI (cfiCond82) V3 load(1, XDATA, add(CFA_XSP16, literal(-7)))
          CFI (cfiCond82) R7 load(1, XDATA, add(CFA_XSP16, literal(-6)))
          CFI (cfiCond82) ?RET_LOW load(1, XDATA, add(CFA_XSP16, literal(-5)))
          CFI (cfiCond82) ?RET_HIGH load(1, XDATA, add(CFA_XSP16, literal(-4)))
          CFI (cfiCond82) ?BRET_EXT load(1, XDATA, add(CFA_XSP16, literal(-3)))
          CFI (cfiCond82) DPL0 load(1, XDATA, add(CFA_XSP16, literal(-2)))
          CFI (cfiCond82) DPH0 load(1, XDATA, add(CFA_XSP16, literal(-1)))
          CFI (cfiCond82) CFA_SP SP+-2
          CFI (cfiCond82) CFA_XSP16 add(XSP16, 35)
          CFI Block cfiCond83 Using cfiCommon0
          CFI (cfiCond83) Function touchLinkInitiator_SendEPInfo
          CFI (cfiCond83) Conditional ??CrossCallReturnLabel_91
          CFI (cfiCond83) R6 load(1, XDATA, add(CFA_XSP16, literal(-12)))
          CFI (cfiCond83) VB load(1, XDATA, add(CFA_XSP16, literal(-11)))
          CFI (cfiCond83) V0 load(1, XDATA, add(CFA_XSP16, literal(-10)))
          CFI (cfiCond83) V1 load(1, XDATA, add(CFA_XSP16, literal(-9)))
          CFI (cfiCond83) V2 load(1, XDATA, add(CFA_XSP16, literal(-8)))
          CFI (cfiCond83) V3 load(1, XDATA, add(CFA_XSP16, literal(-7)))
          CFI (cfiCond83) R7 load(1, XDATA, add(CFA_XSP16, literal(-6)))
          CFI (cfiCond83) ?RET_LOW load(1, XDATA, add(CFA_XSP16, literal(-5)))
          CFI (cfiCond83) ?RET_HIGH load(1, XDATA, add(CFA_XSP16, literal(-4)))
          CFI (cfiCond83) ?BRET_EXT load(1, XDATA, add(CFA_XSP16, literal(-3)))
          CFI (cfiCond83) DPL0 load(1, XDATA, add(CFA_XSP16, literal(-2)))
          CFI (cfiCond83) DPH0 load(1, XDATA, add(CFA_XSP16, literal(-1)))
          CFI (cfiCond83) CFA_SP SP+-2
          CFI (cfiCond83) CFA_XSP16 add(XSP16, 35)
          CFI Block cfiCond84 Using cfiCommon0
          CFI (cfiCond84) Function initiatorReJoinNwk
          CFI (cfiCond84) Conditional ??CrossCallReturnLabel_92
          CFI (cfiCond84) R6 load(1, XDATA, add(CFA_XSP16, literal(-9)))
          CFI (cfiCond84) VB load(1, XDATA, add(CFA_XSP16, literal(-8)))
          CFI (cfiCond84) V0 load(1, XDATA, add(CFA_XSP16, literal(-7)))
          CFI (cfiCond84) R7 load(1, XDATA, add(CFA_XSP16, literal(-6)))
          CFI (cfiCond84) ?RET_LOW load(1, XDATA, add(CFA_XSP16, literal(-5)))
          CFI (cfiCond84) ?RET_HIGH load(1, XDATA, add(CFA_XSP16, literal(-4)))
          CFI (cfiCond84) ?BRET_EXT load(1, XDATA, add(CFA_XSP16, literal(-3)))
          CFI (cfiCond84) DPL0 load(1, XDATA, add(CFA_XSP16, literal(-2)))
          CFI (cfiCond84) DPH0 load(1, XDATA, add(CFA_XSP16, literal(-1)))
          CFI (cfiCond84) CFA_SP SP+-2
          CFI (cfiCond84) CFA_XSP16 add(XSP16, 9)
          CFI Block cfiCond85 Using cfiCommon0
          CFI (cfiCond85) Function initiatorSendScanReq
          CFI (cfiCond85) Conditional ??CrossCallReturnLabel_93
          CFI (cfiCond85) R6 load(1, XDATA, add(CFA_XSP16, literal(-9)))
          CFI (cfiCond85) VB load(1, XDATA, add(CFA_XSP16, literal(-8)))
          CFI (cfiCond85) V0 load(1, XDATA, add(CFA_XSP16, literal(-7)))
          CFI (cfiCond85) R7 load(1, XDATA, add(CFA_XSP16, literal(-6)))
          CFI (cfiCond85) ?RET_LOW load(1, XDATA, add(CFA_XSP16, literal(-5)))
          CFI (cfiCond85) ?RET_HIGH load(1, XDATA, add(CFA_XSP16, literal(-4)))
          CFI (cfiCond85) ?BRET_EXT load(1, XDATA, add(CFA_XSP16, literal(-3)))
          CFI (cfiCond85) DPL0 load(1, XDATA, add(CFA_XSP16, literal(-2)))
          CFI (cfiCond85) DPH0 load(1, XDATA, add(CFA_XSP16, literal(-1)))
          CFI (cfiCond85) CFA_SP SP+-2
          CFI (cfiCond85) CFA_XSP16 add(XSP16, 29)
          CFI Block cfiCond86 Using cfiCommon0
          CFI (cfiCond86) Function initiatorSendNwkJoinReq
          CFI (cfiCond86) Conditional ??CrossCallReturnLabel_94
          CFI (cfiCond86) R6 load(1, XDATA, add(CFA_XSP16, literal(-16)))
          CFI (cfiCond86) VB load(1, XDATA, add(CFA_XSP16, literal(-15)))
          CFI (cfiCond86) V0 load(1, XDATA, add(CFA_XSP16, literal(-14)))
          CFI (cfiCond86) V1 load(1, XDATA, add(CFA_XSP16, literal(-13)))
          CFI (cfiCond86) V2 load(1, XDATA, add(CFA_XSP16, literal(-12)))
          CFI (cfiCond86) V3 load(1, XDATA, add(CFA_XSP16, literal(-11)))
          CFI (cfiCond86) V4 load(1, XDATA, add(CFA_XSP16, literal(-10)))
          CFI (cfiCond86) V5 load(1, XDATA, add(CFA_XSP16, literal(-9)))
          CFI (cfiCond86) V6 load(1, XDATA, add(CFA_XSP16, literal(-8)))
          CFI (cfiCond86) V7 load(1, XDATA, add(CFA_XSP16, literal(-7)))
          CFI (cfiCond86) R7 load(1, XDATA, add(CFA_XSP16, literal(-6)))
          CFI (cfiCond86) ?RET_LOW load(1, XDATA, add(CFA_XSP16, literal(-5)))
          CFI (cfiCond86) ?RET_HIGH load(1, XDATA, add(CFA_XSP16, literal(-4)))
          CFI (cfiCond86) ?BRET_EXT load(1, XDATA, add(CFA_XSP16, literal(-3)))
          CFI (cfiCond86) DPL0 load(1, XDATA, add(CFA_XSP16, literal(-2)))
          CFI (cfiCond86) DPH0 load(1, XDATA, add(CFA_XSP16, literal(-1)))
          CFI (cfiCond86) CFA_SP SP+-2
          CFI (cfiCond86) CFA_XSP16 add(XSP16, 16)
          CFI Block cfiCond87 Using cfiCommon0
          CFI (cfiCond87) Function touchLinkInitiator_event_loop
          CFI (cfiCond87) Conditional ??CrossCallReturnLabel_95
          CFI (cfiCond87) R6 load(1, XDATA, add(CFA_XSP16, literal(-16)))
          CFI (cfiCond87) VB load(1, XDATA, add(CFA_XSP16, literal(-15)))
          CFI (cfiCond87) V0 load(1, XDATA, add(CFA_XSP16, literal(-14)))
          CFI (cfiCond87) V1 load(1, XDATA, add(CFA_XSP16, literal(-13)))
          CFI (cfiCond87) V2 load(1, XDATA, add(CFA_XSP16, literal(-12)))
          CFI (cfiCond87) V3 load(1, XDATA, add(CFA_XSP16, literal(-11)))
          CFI (cfiCond87) V4 load(1, XDATA, add(CFA_XSP16, literal(-10)))
          CFI (cfiCond87) V5 load(1, XDATA, add(CFA_XSP16, literal(-9)))
          CFI (cfiCond87) V6 load(1, XDATA, add(CFA_XSP16, literal(-8)))
          CFI (cfiCond87) V7 load(1, XDATA, add(CFA_XSP16, literal(-7)))
          CFI (cfiCond87) R7 load(1, XDATA, add(CFA_XSP16, literal(-6)))
          CFI (cfiCond87) ?RET_LOW load(1, XDATA, add(CFA_XSP16, literal(-5)))
          CFI (cfiCond87) ?RET_HIGH load(1, XDATA, add(CFA_XSP16, literal(-4)))
          CFI (cfiCond87) ?BRET_EXT load(1, XDATA, add(CFA_XSP16, literal(-3)))
          CFI (cfiCond87) DPL0 load(1, XDATA, add(CFA_XSP16, literal(-2)))
          CFI (cfiCond87) DPH0 load(1, XDATA, add(CFA_XSP16, literal(-1)))
          CFI (cfiCond87) CFA_SP SP+-2
          CFI (cfiCond87) CFA_XSP16 add(XSP16, 75)
          CFI Block cfiCond88 Using cfiCommon0
          CFI (cfiCond88) Function touchLink_InitiatorSendScanRsp
          CFI (cfiCond88) Conditional ??CrossCallReturnLabel_96
          CFI (cfiCond88) R6 load(1, XDATA, add(CFA_XSP16, literal(-22)))
          CFI (cfiCond88) VB load(1, XDATA, add(CFA_XSP16, literal(-21)))
          CFI (cfiCond88) V0 load(1, XDATA, add(CFA_XSP16, literal(-20)))
          CFI (cfiCond88) V1 load(1, XDATA, add(CFA_XSP16, literal(-19)))
          CFI (cfiCond88) V2 load(1, XDATA, add(CFA_XSP16, literal(-18)))
          CFI (cfiCond88) V3 load(1, XDATA, add(CFA_XSP16, literal(-17)))
          CFI (cfiCond88) V4 load(1, XDATA, add(CFA_XSP16, literal(-16)))
          CFI (cfiCond88) V5 load(1, XDATA, add(CFA_XSP16, literal(-15)))
          CFI (cfiCond88) V6 load(1, XDATA, add(CFA_XSP16, literal(-14)))
          CFI (cfiCond88) V7 load(1, XDATA, add(CFA_XSP16, literal(-13)))
          CFI (cfiCond88) V8 load(1, XDATA, add(CFA_XSP16, literal(-12)))
          CFI (cfiCond88) V9 load(1, XDATA, add(CFA_XSP16, literal(-11)))
          CFI (cfiCond88) V10 load(1, XDATA, add(CFA_XSP16, literal(-10)))
          CFI (cfiCond88) V11 load(1, XDATA, add(CFA_XSP16, literal(-9)))
          CFI (cfiCond88) V12 load(1, XDATA, add(CFA_XSP16, literal(-8)))
          CFI (cfiCond88) V13 load(1, XDATA, add(CFA_XSP16, literal(-7)))
          CFI (cfiCond88) R7 load(1, XDATA, add(CFA_XSP16, literal(-6)))
          CFI (cfiCond88) ?RET_LOW load(1, XDATA, add(CFA_XSP16, literal(-5)))
          CFI (cfiCond88) ?RET_HIGH load(1, XDATA, add(CFA_XSP16, literal(-4)))
          CFI (cfiCond88) ?BRET_EXT load(1, XDATA, add(CFA_XSP16, literal(-3)))
          CFI (cfiCond88) DPL0 load(1, XDATA, add(CFA_XSP16, literal(-2)))
          CFI (cfiCond88) DPH0 load(1, XDATA, add(CFA_XSP16, literal(-1)))
          CFI (cfiCond88) CFA_SP SP+-2
          CFI (cfiCond88) CFA_XSP16 add(XSP16, 22)
          CFI Block cfiCond89 Using cfiCommon0
          CFI (cfiCond89) Function initiatorSendNwkJoinReq
          CFI (cfiCond89) Conditional ??CrossCallReturnLabel_97
          CFI (cfiCond89) R6 load(1, XDATA, add(CFA_XSP16, literal(-16)))
          CFI (cfiCond89) VB load(1, XDATA, add(CFA_XSP16, literal(-15)))
          CFI (cfiCond89) V0 load(1, XDATA, add(CFA_XSP16, literal(-14)))
          CFI (cfiCond89) V1 load(1, XDATA, add(CFA_XSP16, literal(-13)))
          CFI (cfiCond89) V2 load(1, XDATA, add(CFA_XSP16, literal(-12)))
          CFI (cfiCond89) V3 load(1, XDATA, add(CFA_XSP16, literal(-11)))
          CFI (cfiCond89) V4 load(1, XDATA, add(CFA_XSP16, literal(-10)))
          CFI (cfiCond89) V5 load(1, XDATA, add(CFA_XSP16, literal(-9)))
          CFI (cfiCond89) V6 load(1, XDATA, add(CFA_XSP16, literal(-8)))
          CFI (cfiCond89) V7 load(1, XDATA, add(CFA_XSP16, literal(-7)))
          CFI (cfiCond89) R7 load(1, XDATA, add(CFA_XSP16, literal(-6)))
          CFI (cfiCond89) ?RET_LOW load(1, XDATA, add(CFA_XSP16, literal(-5)))
          CFI (cfiCond89) ?RET_HIGH load(1, XDATA, add(CFA_XSP16, literal(-4)))
          CFI (cfiCond89) ?BRET_EXT load(1, XDATA, add(CFA_XSP16, literal(-3)))
          CFI (cfiCond89) DPL0 load(1, XDATA, add(CFA_XSP16, literal(-2)))
          CFI (cfiCond89) DPH0 load(1, XDATA, add(CFA_XSP16, literal(-1)))
          CFI (cfiCond89) CFA_SP SP+-2
          CFI (cfiCond89) CFA_XSP16 add(XSP16, 16)
          CFI Block cfiPicker90 Using cfiCommon1
          CFI (cfiPicker90) NoFunction
          CFI (cfiPicker90) Picker
        MOVX      @DPTR,A
        INC       DPTR
        MOV       A,R1
        MOVX      @DPTR,A
        RET
          CFI EndBlock cfiCond76
          CFI EndBlock cfiCond77
          CFI EndBlock cfiCond78
          CFI EndBlock cfiCond79
          CFI EndBlock cfiCond80
          CFI EndBlock cfiCond81
          CFI EndBlock cfiCond82
          CFI EndBlock cfiCond83
          CFI EndBlock cfiCond84
          CFI EndBlock cfiCond85
          CFI EndBlock cfiCond86
          CFI EndBlock cfiCond87
          CFI EndBlock cfiCond88
          CFI EndBlock cfiCond89
          CFI EndBlock cfiPicker90
// 1184 
// 1185 /*********************************************************************
// 1186  * @fn      touchLinkInitiator_ResetToFNSelectedTarget
// 1187  *
// 1188  * @brief   Send Reset to Factory New Request command to the selected
// 1189  *          target of the current Touch-Link transaction.
// 1190  *          Note - this function should be called within no later than
// 1191  *          BDBCTL_INTER_PAN_TRANS_ID_LIFETIME ms from the Scan Request.
// 1192  *
// 1193  * @param   none
// 1194  *
// 1195  * @return  status - failure is returned due to invalid selected target or
// 1196  *          expired Touch-Link transaction.
// 1197  */

        RSEG BANKED_CODE:HUGECODE:NOROOT(0)
// 1198 ZStatus_t touchLinkInitiator_ResetToFNSelectedTarget( void )
touchLinkInitiator_ResetToFNSelectedTarget:
          CFI Block cfiBlock91 Using cfiCommon0
          CFI Function touchLinkInitiator_ResetToFNSelectedTarget
        CODE
// 1199 {
        FUNCALL touchLinkInitiator_ResetToFNSelectedTarget, osal_stop_timerEx
        LOCFRAME ISTACK, 0, STACK
        LOCFRAME PSTACK, 0, STACK
        LOCFRAME XSTACK, 13, STACK
        LOCFRAME IOVERLAY, 0, STATIC
        LOCFRAME DOVERLAY, 0, STATIC
        ARGFRAME ISTACK, 0, STACK
        ARGFRAME PSTACK, 0, STACK
        ARGFRAME XSTACK, 13, STACK
        ARGFRAME IOVERLAY, 0, STATIC
        ARGFRAME DOVERLAY, 0, STATIC
        FUNCALL touchLinkInitiator_ResetToFNSelectedTarget, touchLink_SetChannel
        LOCFRAME ISTACK, 0, STACK
        LOCFRAME PSTACK, 0, STACK
        LOCFRAME XSTACK, 13, STACK
        LOCFRAME IOVERLAY, 0, STATIC
        LOCFRAME DOVERLAY, 0, STATIC
        ARGFRAME ISTACK, 0, STACK
        ARGFRAME PSTACK, 0, STACK
        ARGFRAME XSTACK, 13, STACK
        ARGFRAME IOVERLAY, 0, STATIC
        ARGFRAME DOVERLAY, 0, STATIC
        FUNCALL touchLinkInitiator_ResetToFNSelectedTarget, bdbTL_Send_ResetToFNReq
        LOCFRAME ISTACK, 0, STACK
        LOCFRAME PSTACK, 0, STACK
        LOCFRAME XSTACK, 14, STACK
        LOCFRAME IOVERLAY, 0, STATIC
        LOCFRAME DOVERLAY, 0, STATIC
        ARGFRAME ISTACK, 0, STACK
        ARGFRAME PSTACK, 0, STACK
        ARGFRAME XSTACK, 14, STACK
        ARGFRAME IOVERLAY, 0, STATIC
        ARGFRAME DOVERLAY, 0, STATIC
        REQUIRE ?V0
        MOV       A,#-0x9
        LCALL     ?BANKED_ENTER_XDATA
          CFI DPH0 load(1, XDATA, add(CFA_XSP16, literal(-1)))
          CFI DPL0 load(1, XDATA, add(CFA_XSP16, literal(-2)))
          CFI ?BRET_EXT load(1, XDATA, add(CFA_XSP16, literal(-3)))
          CFI ?RET_HIGH load(1, XDATA, add(CFA_XSP16, literal(-4)))
          CFI ?RET_LOW load(1, XDATA, add(CFA_XSP16, literal(-5)))
          CFI R7 load(1, XDATA, add(CFA_XSP16, literal(-6)))
          CFI V0 load(1, XDATA, add(CFA_XSP16, literal(-7)))
          CFI VB load(1, XDATA, add(CFA_XSP16, literal(-8)))
          CFI R6 load(1, XDATA, add(CFA_XSP16, literal(-9)))
          CFI CFA_SP SP+0
          CFI CFA_XSP16 add(XSP16, 9)
        ; Saved register size: 9
        ; Auto size: 4
        MOV       A,#-0x4
        LCALL     ?ALLOC_XSTACK8
          CFI CFA_XSP16 add(XSP16, 13)
// 1200   bdbTLResetToFNReq_t req;
// 1201   req.transID = touchLinkTransID;
        MOV       DPTR,#touchLinkTransID
        LCALL     ?XLOAD_R0123
        MOV       DPL,?XSP + 0
        MOV       DPH,?XSP + 1
        LCALL     ?XSTORE_R0123
// 1202 
// 1203   // Cancel further touch-link commissioning (if called during identify interval)
// 1204   osal_stop_timerEx( touchLinkInitiator_TaskID, TOUCHLINK_CFG_TARGET_EVT );
        ; Setup parameters for call to function osal_stop_timerEx
        LCALL     ?Subroutine18 & 0xFFFF
// 1205 
// 1206   touchLink_SetChannel( selectedTarget.rxChannel );
??CrossCallReturnLabel_107:
        ; Setup parameters for call to function touchLink_SetChannel
        MOV       DPTR,#selectedTarget + 52
        MOVX      A,@DPTR
        LCALL     ?Subroutine8 & 0xFFFF
// 1207   return bdbTL_Send_ResetToFNReq( TOUCHLINK_INTERNAL_ENDPOINT, &(selectedTarget.srcAddr), &req, initiatorSeqNum++ );
??CrossCallReturnLabel_98:
        LCALL     ?PUSH_XSTACK_I_ONE
          CFI CFA_XSP16 add(XSP16, 14)
        MOV       A,#0x1
        LCALL     ?XSTACK_DISP102_8
        MOV       R2,#(selectedTarget + 38) & 0xff
        MOV       R3,#((selectedTarget + 38) >> 8) & 0xff
        MOV       R1,#0xd
        LCALL     `??bdbTL_Send_ResetToFNReq::?relay`; Banked call to: bdbTL_Send_ResetToFNReq
        MOV       A,#0x1
        LCALL     ?DEALLOC_XSTACK8
          CFI CFA_XSP16 add(XSP16, 13)
        MOV       A,#0x4
        LJMP      ?Subroutine2 & 0xFFFF
// 1208 }
          CFI EndBlock cfiBlock91

        RSEG BANKED_CODE:HUGECODE:NOROOT(0)
?Subroutine8:
          CFI Block cfiCond92 Using cfiCommon0
          CFI Function touchLinkInitiator_ResetToFNSelectedTarget
          CFI Conditional ??CrossCallReturnLabel_98
          CFI R6 load(1, XDATA, add(CFA_XSP16, literal(-9)))
          CFI VB load(1, XDATA, add(CFA_XSP16, literal(-8)))
          CFI V0 load(1, XDATA, add(CFA_XSP16, literal(-7)))
          CFI R7 load(1, XDATA, add(CFA_XSP16, literal(-6)))
          CFI ?RET_LOW load(1, XDATA, add(CFA_XSP16, literal(-5)))
          CFI ?RET_HIGH load(1, XDATA, add(CFA_XSP16, literal(-4)))
          CFI ?BRET_EXT load(1, XDATA, add(CFA_XSP16, literal(-3)))
          CFI DPL0 load(1, XDATA, add(CFA_XSP16, literal(-2)))
          CFI DPH0 load(1, XDATA, add(CFA_XSP16, literal(-1)))
          CFI CFA_SP SP+-2
          CFI CFA_XSP16 add(XSP16, 13)
          CFI Block cfiCond93 Using cfiCommon0
          CFI (cfiCond93) Function initiatorSendScanReq
          CFI (cfiCond93) Conditional ??CrossCallReturnLabel_99
          CFI (cfiCond93) R6 load(1, XDATA, add(CFA_XSP16, literal(-9)))
          CFI (cfiCond93) VB load(1, XDATA, add(CFA_XSP16, literal(-8)))
          CFI (cfiCond93) V0 load(1, XDATA, add(CFA_XSP16, literal(-7)))
          CFI (cfiCond93) R7 load(1, XDATA, add(CFA_XSP16, literal(-6)))
          CFI (cfiCond93) ?RET_LOW load(1, XDATA, add(CFA_XSP16, literal(-5)))
          CFI (cfiCond93) ?RET_HIGH load(1, XDATA, add(CFA_XSP16, literal(-4)))
          CFI (cfiCond93) ?BRET_EXT load(1, XDATA, add(CFA_XSP16, literal(-3)))
          CFI (cfiCond93) DPL0 load(1, XDATA, add(CFA_XSP16, literal(-2)))
          CFI (cfiCond93) DPH0 load(1, XDATA, add(CFA_XSP16, literal(-1)))
          CFI (cfiCond93) CFA_SP SP+-2
          CFI (cfiCond93) CFA_XSP16 add(XSP16, 29)
          CFI Block cfiPicker94 Using cfiCommon1
          CFI (cfiPicker94) NoFunction
          CFI (cfiPicker94) Picker
        MOV       R1,A
        LCALL     `??touchLink_SetChannel::?relay`; Banked call to: touchLink_SetChannel
          CFI EndBlock cfiCond92
          CFI EndBlock cfiCond93
          CFI EndBlock cfiPicker94
        REQUIRE ??Subroutine51_0
        ; // Fall through to label ??Subroutine51_0

        RSEG BANKED_CODE:HUGECODE:NOROOT(0)
??Subroutine51_0:
          CFI Block cfiCond95 Using cfiCommon0
          CFI Function touchLinkInitiator_event_loop
          CFI Conditional ??CrossCallReturnLabel_102
          CFI R6 load(1, XDATA, add(CFA_XSP16, literal(-16)))
          CFI VB load(1, XDATA, add(CFA_XSP16, literal(-15)))
          CFI V0 load(1, XDATA, add(CFA_XSP16, literal(-14)))
          CFI V1 load(1, XDATA, add(CFA_XSP16, literal(-13)))
          CFI V2 load(1, XDATA, add(CFA_XSP16, literal(-12)))
          CFI V3 load(1, XDATA, add(CFA_XSP16, literal(-11)))
          CFI V4 load(1, XDATA, add(CFA_XSP16, literal(-10)))
          CFI V5 load(1, XDATA, add(CFA_XSP16, literal(-9)))
          CFI V6 load(1, XDATA, add(CFA_XSP16, literal(-8)))
          CFI V7 load(1, XDATA, add(CFA_XSP16, literal(-7)))
          CFI R7 load(1, XDATA, add(CFA_XSP16, literal(-6)))
          CFI ?RET_LOW load(1, XDATA, add(CFA_XSP16, literal(-5)))
          CFI ?RET_HIGH load(1, XDATA, add(CFA_XSP16, literal(-4)))
          CFI ?BRET_EXT load(1, XDATA, add(CFA_XSP16, literal(-3)))
          CFI DPL0 load(1, XDATA, add(CFA_XSP16, literal(-2)))
          CFI DPH0 load(1, XDATA, add(CFA_XSP16, literal(-1)))
          CFI CFA_SP SP+-2
          CFI CFA_XSP16 add(XSP16, 75)
          CFI Block cfiCond96 Using cfiCommon0
          CFI (cfiCond96) Function touchLinkInitiator_event_loop
          CFI (cfiCond96) Conditional ??CrossCallReturnLabel_103
          CFI (cfiCond96) R6 load(1, XDATA, add(CFA_XSP16, literal(-16)))
          CFI (cfiCond96) VB load(1, XDATA, add(CFA_XSP16, literal(-15)))
          CFI (cfiCond96) V0 load(1, XDATA, add(CFA_XSP16, literal(-14)))
          CFI (cfiCond96) V1 load(1, XDATA, add(CFA_XSP16, literal(-13)))
          CFI (cfiCond96) V2 load(1, XDATA, add(CFA_XSP16, literal(-12)))
          CFI (cfiCond96) V3 load(1, XDATA, add(CFA_XSP16, literal(-11)))
          CFI (cfiCond96) V4 load(1, XDATA, add(CFA_XSP16, literal(-10)))
          CFI (cfiCond96) V5 load(1, XDATA, add(CFA_XSP16, literal(-9)))
          CFI (cfiCond96) V6 load(1, XDATA, add(CFA_XSP16, literal(-8)))
          CFI (cfiCond96) V7 load(1, XDATA, add(CFA_XSP16, literal(-7)))
          CFI (cfiCond96) R7 load(1, XDATA, add(CFA_XSP16, literal(-6)))
          CFI (cfiCond96) ?RET_LOW load(1, XDATA, add(CFA_XSP16, literal(-5)))
          CFI (cfiCond96) ?RET_HIGH load(1, XDATA, add(CFA_XSP16, literal(-4)))
          CFI (cfiCond96) ?BRET_EXT load(1, XDATA, add(CFA_XSP16, literal(-3)))
          CFI (cfiCond96) DPL0 load(1, XDATA, add(CFA_XSP16, literal(-2)))
          CFI (cfiCond96) DPH0 load(1, XDATA, add(CFA_XSP16, literal(-1)))
          CFI (cfiCond96) CFA_SP SP+-2
          CFI (cfiCond96) CFA_XSP16 add(XSP16, 75)
          CFI Block cfiCond97 Using cfiCommon0
          CFI (cfiCond97) Function touchLinkInitiator_ResetToFNSelectedTarget
          CFI (cfiCond97) Conditional ??CrossCallReturnLabel_98
          CFI (cfiCond97) R6 load(1, XDATA, add(CFA_XSP16, literal(-9)))
          CFI (cfiCond97) VB load(1, XDATA, add(CFA_XSP16, literal(-8)))
          CFI (cfiCond97) V0 load(1, XDATA, add(CFA_XSP16, literal(-7)))
          CFI (cfiCond97) R7 load(1, XDATA, add(CFA_XSP16, literal(-6)))
          CFI (cfiCond97) ?RET_LOW load(1, XDATA, add(CFA_XSP16, literal(-5)))
          CFI (cfiCond97) ?RET_HIGH load(1, XDATA, add(CFA_XSP16, literal(-4)))
          CFI (cfiCond97) ?BRET_EXT load(1, XDATA, add(CFA_XSP16, literal(-3)))
          CFI (cfiCond97) DPL0 load(1, XDATA, add(CFA_XSP16, literal(-2)))
          CFI (cfiCond97) DPH0 load(1, XDATA, add(CFA_XSP16, literal(-1)))
          CFI (cfiCond97) CFA_SP SP+-2
          CFI (cfiCond97) CFA_XSP16 add(XSP16, 13)
          CFI Block cfiCond98 Using cfiCommon0
          CFI (cfiCond98) Function initiatorSendScanReq
          CFI (cfiCond98) Conditional ??CrossCallReturnLabel_99
          CFI (cfiCond98) R6 load(1, XDATA, add(CFA_XSP16, literal(-9)))
          CFI (cfiCond98) VB load(1, XDATA, add(CFA_XSP16, literal(-8)))
          CFI (cfiCond98) V0 load(1, XDATA, add(CFA_XSP16, literal(-7)))
          CFI (cfiCond98) R7 load(1, XDATA, add(CFA_XSP16, literal(-6)))
          CFI (cfiCond98) ?RET_LOW load(1, XDATA, add(CFA_XSP16, literal(-5)))
          CFI (cfiCond98) ?RET_HIGH load(1, XDATA, add(CFA_XSP16, literal(-4)))
          CFI (cfiCond98) ?BRET_EXT load(1, XDATA, add(CFA_XSP16, literal(-3)))
          CFI (cfiCond98) DPL0 load(1, XDATA, add(CFA_XSP16, literal(-2)))
          CFI (cfiCond98) DPH0 load(1, XDATA, add(CFA_XSP16, literal(-1)))
          CFI (cfiCond98) CFA_SP SP+-2
          CFI (cfiCond98) CFA_XSP16 add(XSP16, 29)
          CFI Block cfiPicker99 Using cfiCommon1
          CFI (cfiPicker99) NoFunction
          CFI (cfiPicker99) Picker
        MOV       DPTR,#initiatorSeqNum
          CFI EndBlock cfiCond95
          CFI EndBlock cfiCond96
          CFI EndBlock cfiCond97
          CFI EndBlock cfiCond98
          CFI EndBlock cfiPicker99
        REQUIRE ??Subroutine52_0
        ; // Fall through to label ??Subroutine52_0

        RSEG BANKED_CODE:HUGECODE:NOROOT(0)
??Subroutine52_0:
          CFI Block cfiCond100 Using cfiCommon0
          CFI Function initiatorSendNwkJoinReq
          CFI Conditional ??CrossCallReturnLabel_100
          CFI R6 load(1, XDATA, add(CFA_XSP16, literal(-16)))
          CFI VB load(1, XDATA, add(CFA_XSP16, literal(-15)))
          CFI V0 load(1, XDATA, add(CFA_XSP16, literal(-14)))
          CFI V1 load(1, XDATA, add(CFA_XSP16, literal(-13)))
          CFI V2 load(1, XDATA, add(CFA_XSP16, literal(-12)))
          CFI V3 load(1, XDATA, add(CFA_XSP16, literal(-11)))
          CFI V4 load(1, XDATA, add(CFA_XSP16, literal(-10)))
          CFI V5 load(1, XDATA, add(CFA_XSP16, literal(-9)))
          CFI V6 load(1, XDATA, add(CFA_XSP16, literal(-8)))
          CFI V7 load(1, XDATA, add(CFA_XSP16, literal(-7)))
          CFI R7 load(1, XDATA, add(CFA_XSP16, literal(-6)))
          CFI ?RET_LOW load(1, XDATA, add(CFA_XSP16, literal(-5)))
          CFI ?RET_HIGH load(1, XDATA, add(CFA_XSP16, literal(-4)))
          CFI ?BRET_EXT load(1, XDATA, add(CFA_XSP16, literal(-3)))
          CFI DPL0 load(1, XDATA, add(CFA_XSP16, literal(-2)))
          CFI DPH0 load(1, XDATA, add(CFA_XSP16, literal(-1)))
          CFI CFA_SP SP+-2
          CFI CFA_XSP16 add(XSP16, 16)
          CFI Block cfiCond101 Using cfiCommon0
          CFI (cfiCond101) Function initiatorSendNwkJoinReq
          CFI (cfiCond101) Conditional ??CrossCallReturnLabel_101
          CFI (cfiCond101) R6 load(1, XDATA, add(CFA_XSP16, literal(-16)))
          CFI (cfiCond101) VB load(1, XDATA, add(CFA_XSP16, literal(-15)))
          CFI (cfiCond101) V0 load(1, XDATA, add(CFA_XSP16, literal(-14)))
          CFI (cfiCond101) V1 load(1, XDATA, add(CFA_XSP16, literal(-13)))
          CFI (cfiCond101) V2 load(1, XDATA, add(CFA_XSP16, literal(-12)))
          CFI (cfiCond101) V3 load(1, XDATA, add(CFA_XSP16, literal(-11)))
          CFI (cfiCond101) V4 load(1, XDATA, add(CFA_XSP16, literal(-10)))
          CFI (cfiCond101) V5 load(1, XDATA, add(CFA_XSP16, literal(-9)))
          CFI (cfiCond101) V6 load(1, XDATA, add(CFA_XSP16, literal(-8)))
          CFI (cfiCond101) V7 load(1, XDATA, add(CFA_XSP16, literal(-7)))
          CFI (cfiCond101) R7 load(1, XDATA, add(CFA_XSP16, literal(-6)))
          CFI (cfiCond101) ?RET_LOW load(1, XDATA, add(CFA_XSP16, literal(-5)))
          CFI (cfiCond101) ?RET_HIGH load(1, XDATA, add(CFA_XSP16, literal(-4)))
          CFI (cfiCond101) ?BRET_EXT load(1, XDATA, add(CFA_XSP16, literal(-3)))
          CFI (cfiCond101) DPL0 load(1, XDATA, add(CFA_XSP16, literal(-2)))
          CFI (cfiCond101) DPH0 load(1, XDATA, add(CFA_XSP16, literal(-1)))
          CFI (cfiCond101) CFA_SP SP+-2
          CFI (cfiCond101) CFA_XSP16 add(XSP16, 16)
          CFI Block cfiCond102 Using cfiCommon0
          CFI (cfiCond102) Function touchLinkInitiator_event_loop
          CFI (cfiCond102) Conditional ??CrossCallReturnLabel_102
          CFI (cfiCond102) R6 load(1, XDATA, add(CFA_XSP16, literal(-16)))
          CFI (cfiCond102) VB load(1, XDATA, add(CFA_XSP16, literal(-15)))
          CFI (cfiCond102) V0 load(1, XDATA, add(CFA_XSP16, literal(-14)))
          CFI (cfiCond102) V1 load(1, XDATA, add(CFA_XSP16, literal(-13)))
          CFI (cfiCond102) V2 load(1, XDATA, add(CFA_XSP16, literal(-12)))
          CFI (cfiCond102) V3 load(1, XDATA, add(CFA_XSP16, literal(-11)))
          CFI (cfiCond102) V4 load(1, XDATA, add(CFA_XSP16, literal(-10)))
          CFI (cfiCond102) V5 load(1, XDATA, add(CFA_XSP16, literal(-9)))
          CFI (cfiCond102) V6 load(1, XDATA, add(CFA_XSP16, literal(-8)))
          CFI (cfiCond102) V7 load(1, XDATA, add(CFA_XSP16, literal(-7)))
          CFI (cfiCond102) R7 load(1, XDATA, add(CFA_XSP16, literal(-6)))
          CFI (cfiCond102) ?RET_LOW load(1, XDATA, add(CFA_XSP16, literal(-5)))
          CFI (cfiCond102) ?RET_HIGH load(1, XDATA, add(CFA_XSP16, literal(-4)))
          CFI (cfiCond102) ?BRET_EXT load(1, XDATA, add(CFA_XSP16, literal(-3)))
          CFI (cfiCond102) DPL0 load(1, XDATA, add(CFA_XSP16, literal(-2)))
          CFI (cfiCond102) DPH0 load(1, XDATA, add(CFA_XSP16, literal(-1)))
          CFI (cfiCond102) CFA_SP SP+-2
          CFI (cfiCond102) CFA_XSP16 add(XSP16, 75)
          CFI Block cfiCond103 Using cfiCommon0
          CFI (cfiCond103) Function touchLinkInitiator_event_loop
          CFI (cfiCond103) Conditional ??CrossCallReturnLabel_103
          CFI (cfiCond103) R6 load(1, XDATA, add(CFA_XSP16, literal(-16)))
          CFI (cfiCond103) VB load(1, XDATA, add(CFA_XSP16, literal(-15)))
          CFI (cfiCond103) V0 load(1, XDATA, add(CFA_XSP16, literal(-14)))
          CFI (cfiCond103) V1 load(1, XDATA, add(CFA_XSP16, literal(-13)))
          CFI (cfiCond103) V2 load(1, XDATA, add(CFA_XSP16, literal(-12)))
          CFI (cfiCond103) V3 load(1, XDATA, add(CFA_XSP16, literal(-11)))
          CFI (cfiCond103) V4 load(1, XDATA, add(CFA_XSP16, literal(-10)))
          CFI (cfiCond103) V5 load(1, XDATA, add(CFA_XSP16, literal(-9)))
          CFI (cfiCond103) V6 load(1, XDATA, add(CFA_XSP16, literal(-8)))
          CFI (cfiCond103) V7 load(1, XDATA, add(CFA_XSP16, literal(-7)))
          CFI (cfiCond103) R7 load(1, XDATA, add(CFA_XSP16, literal(-6)))
          CFI (cfiCond103) ?RET_LOW load(1, XDATA, add(CFA_XSP16, literal(-5)))
          CFI (cfiCond103) ?RET_HIGH load(1, XDATA, add(CFA_XSP16, literal(-4)))
          CFI (cfiCond103) ?BRET_EXT load(1, XDATA, add(CFA_XSP16, literal(-3)))
          CFI (cfiCond103) DPL0 load(1, XDATA, add(CFA_XSP16, literal(-2)))
          CFI (cfiCond103) DPH0 load(1, XDATA, add(CFA_XSP16, literal(-1)))
          CFI (cfiCond103) CFA_SP SP+-2
          CFI (cfiCond103) CFA_XSP16 add(XSP16, 75)
          CFI Block cfiCond104 Using cfiCommon0
          CFI (cfiCond104) Function touchLinkInitiator_ResetToFNSelectedTarget
          CFI (cfiCond104) Conditional ??CrossCallReturnLabel_98
          CFI (cfiCond104) R6 load(1, XDATA, add(CFA_XSP16, literal(-9)))
          CFI (cfiCond104) VB load(1, XDATA, add(CFA_XSP16, literal(-8)))
          CFI (cfiCond104) V0 load(1, XDATA, add(CFA_XSP16, literal(-7)))
          CFI (cfiCond104) R7 load(1, XDATA, add(CFA_XSP16, literal(-6)))
          CFI (cfiCond104) ?RET_LOW load(1, XDATA, add(CFA_XSP16, literal(-5)))
          CFI (cfiCond104) ?RET_HIGH load(1, XDATA, add(CFA_XSP16, literal(-4)))
          CFI (cfiCond104) ?BRET_EXT load(1, XDATA, add(CFA_XSP16, literal(-3)))
          CFI (cfiCond104) DPL0 load(1, XDATA, add(CFA_XSP16, literal(-2)))
          CFI (cfiCond104) DPH0 load(1, XDATA, add(CFA_XSP16, literal(-1)))
          CFI (cfiCond104) CFA_SP SP+-2
          CFI (cfiCond104) CFA_XSP16 add(XSP16, 13)
          CFI Block cfiCond105 Using cfiCommon0
          CFI (cfiCond105) Function initiatorSendScanReq
          CFI (cfiCond105) Conditional ??CrossCallReturnLabel_99
          CFI (cfiCond105) R6 load(1, XDATA, add(CFA_XSP16, literal(-9)))
          CFI (cfiCond105) VB load(1, XDATA, add(CFA_XSP16, literal(-8)))
          CFI (cfiCond105) V0 load(1, XDATA, add(CFA_XSP16, literal(-7)))
          CFI (cfiCond105) R7 load(1, XDATA, add(CFA_XSP16, literal(-6)))
          CFI (cfiCond105) ?RET_LOW load(1, XDATA, add(CFA_XSP16, literal(-5)))
          CFI (cfiCond105) ?RET_HIGH load(1, XDATA, add(CFA_XSP16, literal(-4)))
          CFI (cfiCond105) ?BRET_EXT load(1, XDATA, add(CFA_XSP16, literal(-3)))
          CFI (cfiCond105) DPL0 load(1, XDATA, add(CFA_XSP16, literal(-2)))
          CFI (cfiCond105) DPH0 load(1, XDATA, add(CFA_XSP16, literal(-1)))
          CFI (cfiCond105) CFA_SP SP+-2
          CFI (cfiCond105) CFA_XSP16 add(XSP16, 29)
          CFI Block cfiPicker106 Using cfiCommon1
          CFI (cfiPicker106) NoFunction
          CFI (cfiPicker106) Picker
        MOVX      A,@DPTR
        MOV       R0,A
        MOV       A,#0x1
        ADD       A,R0
        MOVX      @DPTR,A
        ; Setup parameters for call to function bdbTL_Send_ResetToFNReq
        ; Setup parameters for call to function bdbTL_Send_ScanReq
        ; Setup parameters for call to function bdbTL_Send_IndentifyReq
        ; Setup parameters for call to function bdbTL_Send_IndentifyReq
        ; Setup parameters for call to function bdbTL_Send_NwkJoinReq
        ; Setup parameters for call to function bdbTL_Send_NwkJoinReq
        MOV       A,R0
        MOV       ?V0,A
        MOV       R0,#?V0
        RET
          CFI EndBlock cfiCond100
          CFI EndBlock cfiCond101
          CFI EndBlock cfiCond102
          CFI EndBlock cfiCond103
          CFI EndBlock cfiCond104
          CFI EndBlock cfiCond105
          CFI EndBlock cfiPicker106
// 1209 
// 1210 /*********************************************************************
// 1211  * @fn      touchLink_InitiatorSendScanRsp
// 1212  *
// 1213  * @brief   Send out a Scan Response command.
// 1214  *
// 1215  * @param   srcEP - sender's endpoint
// 1216  * @param   dstAddr - pointer to destination address struct
// 1217  * @param   transID - received transaction id
// 1218  * @param   seqNum - received sequence number
// 1219  *
// 1220  * @return  ZStatus_t
// 1221  */

        RSEG BANKED_CODE:HUGECODE:NOROOT(0)
// 1222 static ZStatus_t touchLink_InitiatorSendScanRsp( uint8 srcEP, afAddrType_t *dstAddr, uint32 transID, uint8 seqNum )
touchLink_InitiatorSendScanRsp:
          CFI Block cfiBlock107 Using cfiCommon0
          CFI Function touchLink_InitiatorSendScanRsp
        CODE
// 1223 {
        FUNCALL touchLink_InitiatorSendScanRsp, osal_mem_alloc
        LOCFRAME ISTACK, 0, STACK
        LOCFRAME PSTACK, 0, STACK
        LOCFRAME XSTACK, 22, STACK
        LOCFRAME IOVERLAY, 0, STATIC
        LOCFRAME DOVERLAY, 0, STATIC
        ARGFRAME ISTACK, 0, STACK
        ARGFRAME PSTACK, 0, STACK
        ARGFRAME XSTACK, 22, STACK
        ARGFRAME IOVERLAY, 0, STATIC
        ARGFRAME DOVERLAY, 0, STATIC
        FUNCALL touchLink_InitiatorSendScanRsp, osal_memset
        LOCFRAME ISTACK, 0, STACK
        LOCFRAME PSTACK, 0, STACK
        LOCFRAME XSTACK, 22, STACK
        LOCFRAME IOVERLAY, 0, STATIC
        LOCFRAME DOVERLAY, 0, STATIC
        ARGFRAME ISTACK, 0, STACK
        ARGFRAME PSTACK, 0, STACK
        ARGFRAME XSTACK, 22, STACK
        ARGFRAME IOVERLAY, 0, STATIC
        ARGFRAME DOVERLAY, 0, STATIC
        FUNCALL touchLink_InitiatorSendScanRsp, osal_start_timerEx
        LOCFRAME ISTACK, 0, STACK
        LOCFRAME PSTACK, 0, STACK
        LOCFRAME XSTACK, 26, STACK
        LOCFRAME IOVERLAY, 0, STATIC
        LOCFRAME DOVERLAY, 0, STATIC
        ARGFRAME ISTACK, 0, STACK
        ARGFRAME PSTACK, 0, STACK
        ARGFRAME XSTACK, 26, STACK
        ARGFRAME IOVERLAY, 0, STATIC
        ARGFRAME DOVERLAY, 0, STATIC
        FUNCALL touchLink_InitiatorSendScanRsp, touchLink_IsValidSplitFreeRanges
        LOCFRAME ISTACK, 0, STACK
        LOCFRAME PSTACK, 0, STACK
        LOCFRAME XSTACK, 22, STACK
        LOCFRAME IOVERLAY, 0, STATIC
        LOCFRAME DOVERLAY, 0, STATIC
        ARGFRAME ISTACK, 0, STACK
        ARGFRAME PSTACK, 0, STACK
        ARGFRAME XSTACK, 22, STACK
        ARGFRAME IOVERLAY, 0, STATIC
        ARGFRAME DOVERLAY, 0, STATIC
        FUNCALL touchLink_InitiatorSendScanRsp, touchLink_GetNwkKeyBitmask
        LOCFRAME ISTACK, 0, STACK
        LOCFRAME PSTACK, 0, STACK
        LOCFRAME XSTACK, 22, STACK
        LOCFRAME IOVERLAY, 0, STATIC
        LOCFRAME DOVERLAY, 0, STATIC
        ARGFRAME ISTACK, 0, STACK
        ARGFRAME PSTACK, 0, STACK
        ARGFRAME XSTACK, 22, STACK
        ARGFRAME IOVERLAY, 0, STATIC
        ARGFRAME DOVERLAY, 0, STATIC
        FUNCALL touchLink_InitiatorSendScanRsp, osal_rand
        LOCFRAME ISTACK, 0, STACK
        LOCFRAME PSTACK, 0, STACK
        LOCFRAME XSTACK, 22, STACK
        LOCFRAME IOVERLAY, 0, STATIC
        LOCFRAME DOVERLAY, 0, STATIC
        ARGFRAME ISTACK, 0, STACK
        ARGFRAME PSTACK, 0, STACK
        ARGFRAME XSTACK, 22, STACK
        ARGFRAME IOVERLAY, 0, STATIC
        ARGFRAME DOVERLAY, 0, STATIC
        FUNCALL touchLink_InitiatorSendScanRsp, osal_rand
        LOCFRAME ISTACK, 0, STACK
        LOCFRAME PSTACK, 0, STACK
        LOCFRAME XSTACK, 22, STACK
        LOCFRAME IOVERLAY, 0, STATIC
        LOCFRAME DOVERLAY, 0, STATIC
        ARGFRAME ISTACK, 0, STACK
        ARGFRAME PSTACK, 0, STACK
        ARGFRAME XSTACK, 22, STACK
        ARGFRAME IOVERLAY, 0, STATIC
        ARGFRAME DOVERLAY, 0, STATIC
        FUNCALL touchLink_InitiatorSendScanRsp, sAddrExtCpy
        LOCFRAME ISTACK, 0, STACK
        LOCFRAME PSTACK, 0, STACK
        LOCFRAME XSTACK, 22, STACK
        LOCFRAME IOVERLAY, 0, STATIC
        LOCFRAME DOVERLAY, 0, STATIC
        ARGFRAME ISTACK, 0, STACK
        ARGFRAME PSTACK, 0, STACK
        ARGFRAME XSTACK, 22, STACK
        ARGFRAME IOVERLAY, 0, STATIC
        ARGFRAME DOVERLAY, 0, STATIC
        FUNCALL touchLink_InitiatorSendScanRsp, touchLink_GetNumSubDevices
        LOCFRAME ISTACK, 0, STACK
        LOCFRAME PSTACK, 0, STACK
        LOCFRAME XSTACK, 22, STACK
        LOCFRAME IOVERLAY, 0, STATIC
        LOCFRAME DOVERLAY, 0, STATIC
        ARGFRAME ISTACK, 0, STACK
        ARGFRAME PSTACK, 0, STACK
        ARGFRAME XSTACK, 22, STACK
        ARGFRAME IOVERLAY, 0, STATIC
        ARGFRAME DOVERLAY, 0, STATIC
        FUNCALL touchLink_InitiatorSendScanRsp, touchLink_GetSubDeviceInfo
        LOCFRAME ISTACK, 0, STACK
        LOCFRAME PSTACK, 0, STACK
        LOCFRAME XSTACK, 22, STACK
        LOCFRAME IOVERLAY, 0, STATIC
        LOCFRAME DOVERLAY, 0, STATIC
        ARGFRAME ISTACK, 0, STACK
        ARGFRAME PSTACK, 0, STACK
        ARGFRAME XSTACK, 22, STACK
        ARGFRAME IOVERLAY, 0, STATIC
        ARGFRAME DOVERLAY, 0, STATIC
        FUNCALL touchLink_InitiatorSendScanRsp, touchLink_GetNumGrpIDs
        LOCFRAME ISTACK, 0, STACK
        LOCFRAME PSTACK, 0, STACK
        LOCFRAME XSTACK, 22, STACK
        LOCFRAME IOVERLAY, 0, STATIC
        LOCFRAME DOVERLAY, 0, STATIC
        ARGFRAME ISTACK, 0, STACK
        ARGFRAME PSTACK, 0, STACK
        ARGFRAME XSTACK, 22, STACK
        ARGFRAME IOVERLAY, 0, STATIC
        ARGFRAME DOVERLAY, 0, STATIC
        FUNCALL touchLink_InitiatorSendScanRsp, bdbTL_Send_ScanRsp
        LOCFRAME ISTACK, 0, STACK
        LOCFRAME PSTACK, 0, STACK
        LOCFRAME XSTACK, 23, STACK
        LOCFRAME IOVERLAY, 0, STATIC
        LOCFRAME DOVERLAY, 0, STATIC
        ARGFRAME ISTACK, 0, STACK
        ARGFRAME PSTACK, 0, STACK
        ARGFRAME XSTACK, 23, STACK
        ARGFRAME IOVERLAY, 0, STATIC
        ARGFRAME DOVERLAY, 0, STATIC
        FUNCALL touchLink_InitiatorSendScanRsp, osal_mem_free
        LOCFRAME ISTACK, 0, STACK
        LOCFRAME PSTACK, 0, STACK
        LOCFRAME XSTACK, 22, STACK
        LOCFRAME IOVERLAY, 0, STATIC
        LOCFRAME DOVERLAY, 0, STATIC
        ARGFRAME ISTACK, 0, STACK
        ARGFRAME PSTACK, 0, STACK
        ARGFRAME XSTACK, 22, STACK
        ARGFRAME IOVERLAY, 0, STATIC
        ARGFRAME DOVERLAY, 0, STATIC
        REQUIRE ?V0
        REQUIRE ?V1
        REQUIRE ?V2
        REQUIRE ?V3
        REQUIRE ?V4
        REQUIRE ?V5
        REQUIRE ?V6
        REQUIRE ?V7
        REQUIRE ?V8
        REQUIRE ?V9
        REQUIRE ?V10
        REQUIRE ?V11
        REQUIRE ?V12
        REQUIRE ?V13
        MOV       A,#-0x16
        LCALL     ?BANKED_ENTER_XDATA
          CFI DPH0 load(1, XDATA, add(CFA_XSP16, literal(-1)))
          CFI DPL0 load(1, XDATA, add(CFA_XSP16, literal(-2)))
          CFI ?BRET_EXT load(1, XDATA, add(CFA_XSP16, literal(-3)))
          CFI ?RET_HIGH load(1, XDATA, add(CFA_XSP16, literal(-4)))
          CFI ?RET_LOW load(1, XDATA, add(CFA_XSP16, literal(-5)))
          CFI R7 load(1, XDATA, add(CFA_XSP16, literal(-6)))
          CFI V13 load(1, XDATA, add(CFA_XSP16, literal(-7)))
          CFI V12 load(1, XDATA, add(CFA_XSP16, literal(-8)))
          CFI V11 load(1, XDATA, add(CFA_XSP16, literal(-9)))
          CFI V10 load(1, XDATA, add(CFA_XSP16, literal(-10)))
          CFI V9 load(1, XDATA, add(CFA_XSP16, literal(-11)))
          CFI V8 load(1, XDATA, add(CFA_XSP16, literal(-12)))
          CFI V7 load(1, XDATA, add(CFA_XSP16, literal(-13)))
          CFI V6 load(1, XDATA, add(CFA_XSP16, literal(-14)))
          CFI V5 load(1, XDATA, add(CFA_XSP16, literal(-15)))
          CFI V4 load(1, XDATA, add(CFA_XSP16, literal(-16)))
          CFI V3 load(1, XDATA, add(CFA_XSP16, literal(-17)))
          CFI V2 load(1, XDATA, add(CFA_XSP16, literal(-18)))
          CFI V1 load(1, XDATA, add(CFA_XSP16, literal(-19)))
          CFI V0 load(1, XDATA, add(CFA_XSP16, literal(-20)))
          CFI VB load(1, XDATA, add(CFA_XSP16, literal(-21)))
          CFI R6 load(1, XDATA, add(CFA_XSP16, literal(-22)))
          CFI CFA_SP SP+0
          CFI CFA_XSP16 add(XSP16, 22)
        ; Saved register size: 22
        ; Auto size: 0
        MOV       ?V2,R1
        MOV       ?V12,R2
        MOV       ?V13,R3
        MOV       ?V3,R4
// 1224   ZStatus_t status = ZSuccess;
        MOV       ?V0,#0x0
        MOV       A,#0x16
        LCALL     ?XSTACK_DISP0_8
        MOV       R0,#?V4
        LCALL     ?L_MOV_X
// 1225 
// 1226   // Make sure we respond only once during a Device Discovery
// 1227   if ( touchLinkLastAcceptedTransID != transID )
        MOV       DPTR,#touchLinkLastAcceptedTransID
        MOV       R0,#?V4
        LCALL     ?L_EQ_X
        JNZ       $+5
        LJMP      ??touchLink_InitiatorSendScanRsp_0 & 0xFFFF
// 1228   {
// 1229     bdbTLScanRsp_t *pRsp;    
// 1230 
// 1231     pRsp = (bdbTLScanRsp_t *)osal_mem_alloc( sizeof( bdbTLScanRsp_t ) );
        ; Setup parameters for call to function osal_mem_alloc
        MOV       R2,#0x26
        MOV       R3,#0x0
        LCALL     `??osal_mem_alloc::?relay`; Banked call to: osal_mem_alloc
        MOV       ?V0,R2
        MOV       ?V1,R3
        MOV       R6,?V0
        MOV       R7,?V1
// 1232     if ( pRsp )
        MOV       A,R2
        ORL       A,R7
        JNZ       $+5
        LJMP      ??touchLink_InitiatorSendScanRsp_1 & 0xFFFF
// 1233     {
// 1234       osal_memset( pRsp, 0, sizeof( bdbTLScanRsp_t ) );
        ; Setup parameters for call to function osal_memset
        MOV       R4,#0x26
        MOV       R5,#0x0
        MOV       R1,#0x0
        LCALL     `??osal_memset::?relay`; Banked call to: osal_memset
// 1235 
// 1236       // Save transaction id
// 1237       touchLinkLastAcceptedTransID = transID;
        MOV       DPTR,#touchLinkLastAcceptedTransID
        MOV       R0,#?V4
        LCALL     ?L_MOV_TO_X
// 1238       osal_start_timerEx( touchLinkInitiator_TaskID, TOUCHLINK_TRANS_LIFETIME_EXPIRED_EVT,
// 1239                           BDBCTL_INTER_PAN_TRANS_ID_LIFETIME );
        ; Setup parameters for call to function osal_start_timerEx
        MOV       DPTR,#__Constant_1f40
        LCALL     ?PUSH_XSTACK8_X_FOUR
          CFI CFA_XSP16 add(XSP16, 26)
        LCALL     ?Subroutine6 & 0xFFFF
??CrossCallReturnLabel_113:
        LCALL     ?DEALLOC_XSTACK8
          CFI CFA_XSP16 add(XSP16, 22)
// 1240 
// 1241       pRsp->transID = transID;
        MOV       DPL,R6
        MOV       DPH,R7
        MOV       R0,#?V4
        LCALL     ?L_MOV_TO_X
// 1242       pRsp->rssiCorrection = TOUCHLINK_RSSI_CORRECTION;
        MOV       DPL,R6
        MOV       DPH,R7
        INC       DPTR
        INC       DPTR
        INC       DPTR
        INC       DPTR
        CLR       A
        MOVX      @DPTR,A
// 1243       pRsp->zLogicalType = zgDeviceLogicalType;
        MOV       A,R6
        ADD       A,#0x5
        MOV       ?V4,A
        CLR       A
        ADDC      A,R7
        MOV       ?V5,A
        MOV       DPL,?V4
        MOV       DPH,A
        MOVX      A,@DPTR
        ANL       A,#0xfc
        MOV       R0,A
        INC       DPTR
        MOVX      A,@DPTR
        MOV       R1,A
        MOV       DPTR,#zgDeviceLogicalType
        MOVX      A,@DPTR
        ANL       A,#0x3
        MOV       R2,A
        MOV       A,R0
        ORL       A,R2
        MOV       DPL,?V4
        MOV       DPH,?V5
        LCALL     ??Subroutine50_0 & 0xFFFF
// 1244       pRsp->touchLinkAddressAssignment = touchLink_IsValidSplitFreeRanges( 0 );
??CrossCallReturnLabel_84:
        ; Setup parameters for call to function touchLink_IsValidSplitFreeRanges
        MOV       R1,#0x0
        LCALL     `??touchLink_IsValidSplitFreeRanges::?relay`; Banked call to: touchLink_IsValidSplitFreeRanges
        MOV       A,R1
        MOV       R0,A
// 1245       pRsp->touchLinkInitiator = TRUE;
// 1246       pRsp->touchLinkProfileInterop = TRUE;
        MOV       A,R6
        ADD       A,#0x7
        LCALL     ?Subroutine36 & 0xFFFF
??CrossCallReturnLabel_49:
        MOVX      A,@DPTR
        ANL       A,#0xfd
        MOV       R2,A
        INC       DPTR
        MOVX      A,@DPTR
        MOV       R3,A
        MOV       A,R1
        MOV       C,0xE0 /* A   */.0
        CLR       A
        RLC       A
        ADD       A,0xE0 /* A   */
        MOV       R0,A
        MOV       A,R2
        ORL       A,R0
        ORL       A,#0x90
        MOV       DPL,?V0
        MOV       DPH,?V1
        LCALL     ??Subroutine47_0 & 0xFFFF
// 1247 
// 1248       if ( ZDO_Config_Node_Descriptor.CapabilityFlags & CAPINFO_RCVR_ON_IDLE )
??CrossCallReturnLabel_75:
        MOV       DPTR,#ZDO_Config_Node_Descriptor + 2
        MOVX      A,@DPTR
        MOV       C,0xE0 /* A   */.3
        JNC       ??touchLink_InitiatorSendScanRsp_2
// 1249       {
// 1250         pRsp->zRxOnWhenIdle = TRUE;
        MOV       DPL,?V4
        MOV       DPH,?V5
        MOVX      A,@DPTR
        ORL       A,#0x4
        MOVX      @DPTR,A
// 1251       }
// 1252 
// 1253       pRsp->touchLinklinkPriority = FALSE;
??touchLink_InitiatorSendScanRsp_2:
        MOV       DPL,?V0
        MOV       DPH,?V1
        MOVX      A,@DPTR
        ANL       A,#0xdf
        MOVX      @DPTR,A
// 1254       pRsp->keyBitmask = touchLink_GetNwkKeyBitmask();
        ; Setup parameters for call to function touchLink_GetNwkKeyBitmask
        LCALL     `??touchLink_GetNwkKeyBitmask::?relay`; Banked call to: touchLink_GetNwkKeyBitmask
        MOV       DPL,R6
        MOV       DPH,R7
        INC       DPTR
        INC       DPTR
        INC       DPTR
        INC       DPTR
        INC       DPTR
        INC       DPTR
        INC       DPTR
        INC       DPTR
        INC       DPTR
        LCALL     ?Subroutine26 & 0xFFFF
// 1255 
// 1256       // Generate a new Response ID
// 1257       touchLinkResponseID = ( ((uint32)osal_rand()) << 16 ) + osal_rand();
??CrossCallReturnLabel_80:
        ; Setup parameters for call to function osal_rand
        LCALL     `??osal_rand::?relay`; Banked call to: osal_rand
        MOV       ?V8,R2
        MOV       ?V9,R3
        CLR       A
        MOV       ?V10,A
        MOV       ?V11,A
        MOV       A,#0x10
        MOV       R0,#?V8
        LCALL     ?L_SHL
        ; Setup parameters for call to function osal_rand
        LCALL     ?Subroutine33 & 0xFFFF
??CrossCallReturnLabel_35:
        MOV       R0,#?V8
        MOV       R1,#?V4
        LCALL     ?L_ADD
        MOV       DPTR,#touchLinkResponseID
        MOV       A,?V8
        MOVX      @DPTR,A
        INC       DPTR
        MOV       A,?V9
        MOVX      @DPTR,A
        INC       DPTR
        MOV       A,?V10
        MOVX      @DPTR,A
        INC       DPTR
        MOV       A,?V11
        MOVX      @DPTR,A
// 1258       pRsp->responseID = touchLinkResponseID;
        MOV       DPTR,#touchLinkResponseID
        LCALL     ?XLOAD_R0123
        LCALL     ?Subroutine39 & 0xFFFF
??CrossCallReturnLabel_60:
        LCALL     ?XSTORE_R0123
// 1259 
// 1260       pRsp->touchLinkFactoryNew = !bdbAttributes.bdbNodeIsOnANetwork;
        MOV       DPTR,#bdbAttributes + 14
        MOVX      A,@DPTR
        JNZ       ??touchLink_InitiatorSendScanRsp_3
        MOV       R0,#0x1
        SJMP      ??touchLink_InitiatorSendScanRsp_4
??touchLink_InitiatorSendScanRsp_3:
        MOV       R0,#0x0
??touchLink_InitiatorSendScanRsp_4:
        MOV       DPL,?V0
        MOV       DPH,?V1
        MOVX      A,@DPTR
        ANL       A,#0xfe
        MOVX      @DPTR,A
        MOVX      A,@DPTR
        ORL       A,R0
        MOVX      @DPTR,A
// 1261       if ( pRsp->touchLinkFactoryNew )
        MOV       A,R6
        ADD       A,#0x17
        MOV       R0,A
        CLR       A
        ADDC      A,R7
        MOV       R1,A
        MOV       A,R6
        ADD       A,#0x1b
        MOV       R2,A
        CLR       A
        ADDC      A,R7
        MOV       R3,A
        MOVX      A,@DPTR
        MOV       C,0xE0 /* A   */.0
        JNC       ??touchLink_InitiatorSendScanRsp_5
// 1262       {
// 1263         pRsp->nwkAddr = 0xFFFF;
        MOV       DPL,R2
        MOV       DPH,R3
        MOV       A,#-0x1
        MOVX      @DPTR,A
        INC       DPTR
        MOVX      @DPTR,A
// 1264         pRsp->nwkUpdateId = 0;
        MOV       DPL,R0
        MOV       DPH,R1
        CLR       A
        SJMP      ??touchLink_InitiatorSendScanRsp_6
// 1265       }
// 1266       else
// 1267       {
// 1268         pRsp->nwkAddr = _NIB.nwkDevAddress;
??touchLink_InitiatorSendScanRsp_5:
        MOV       DPTR,#_NIB + 20
        MOVX      A,@DPTR
        MOV       R4,A
        INC       DPTR
        MOVX      A,@DPTR
        MOV       R5,A
        MOV       DPL,R2
        MOV       DPH,R3
        MOV       A,R4
        MOVX      @DPTR,A
        INC       DPTR
        MOV       A,R5
        MOVX      @DPTR,A
// 1269         pRsp->nwkUpdateId = _NIB.nwkUpdateId;
        MOV       DPTR,#_NIB + 109
        MOVX      A,@DPTR
        MOV       DPL,R0
        MOV       DPH,R1
// 1270       }
??touchLink_InitiatorSendScanRsp_6:
        LCALL     ?Subroutine22 & 0xFFFF
// 1271       pRsp->PANID = _NIB.nwkPanId;
??CrossCallReturnLabel_104:
        ADD       A,#0x19
        LCALL     ?Subroutine32 & 0xFFFF
// 1272       pRsp->logicalChannel = _NIB.nwkLogicalChannel;
??CrossCallReturnLabel_96:
        MOV       DPTR,#_NIB + 22
        MOVX      A,@DPTR
        PUSH      A
          CFI CFA_SP SP+-1
        MOV       A,R6
        ADD       A,#0x18
        MOV       DPL,A
        CLR       A
        ADDC      A,R7
        MOV       DPH,A
        POP       A
          CFI CFA_SP SP+0
        MOVX      @DPTR,A
// 1273       osal_cpyExtAddr( pRsp->extendedPANID, _NIB.extendedPANID );
        ; Setup parameters for call to function sAddrExtCpy
        MOV       R4,#(_NIB + 53) & 0xff
        MOV       R5,#((_NIB + 53) >> 8) & 0xff
        MOV       A,R6
        ADD       A,#0xf
        MOV       R2,A
        CLR       A
        ADDC      A,R7
        MOV       R3,A
        LCALL     `??sAddrExtCpy::?relay`; Banked call to: sAddrExtCpy
// 1274 
// 1275       pRsp->numSubDevices = touchLink_GetNumSubDevices( 0 );
        ; Setup parameters for call to function touchLink_GetNumSubDevices
        MOV       R1,#0x0
        LCALL     `??touchLink_GetNumSubDevices::?relay`; Banked call to: touchLink_GetNumSubDevices
        MOV       A,R1
        MOV       R0,A
        MOV       A,R6
        ADD       A,#0x1d
        MOV       DPL,A
        CLR       A
        ADDC      A,R7
        MOV       DPH,A
        MOV       A,R1
        MOVX      @DPTR,A
// 1276       if ( pRsp->numSubDevices == 1 )
        MOV       A,#0x1
        XRL       A,R0
        JNZ       ??touchLink_InitiatorSendScanRsp_7
// 1277       {
// 1278         touchLink_GetSubDeviceInfo( 0, &(pRsp->deviceInfo) );
        ; Setup parameters for call to function touchLink_GetSubDeviceInfo
        MOV       A,R6
        ADD       A,#0x1f
        MOV       R2,A
        CLR       A
        ADDC      A,R7
        MOV       R3,A
        MOV       R1,#0x0
        LCALL     `??touchLink_GetSubDeviceInfo::?relay`; Banked call to: touchLink_GetSubDeviceInfo
// 1279       }
// 1280 
// 1281       pRsp->totalGrpIDs = touchLink_GetNumGrpIDs();
??touchLink_InitiatorSendScanRsp_7:
        ; Setup parameters for call to function touchLink_GetNumGrpIDs
        LCALL     `??touchLink_GetNumGrpIDs::?relay`; Banked call to: touchLink_GetNumGrpIDs
        MOV       A,R6
        ADD       A,#0x1e
        MOV       DPL,A
        CLR       A
        ADDC      A,R7
        MOV       DPH,A
        MOV       A,R1
        MOVX      @DPTR,A
// 1282 
// 1283       // Send a response back
// 1284       status = bdbTL_Send_ScanRsp( srcEP, dstAddr, pRsp, seqNum );
        ; Setup parameters for call to function bdbTL_Send_ScanRsp
        MOV       A,?V3
        MOV       ?V0,A
        MOV       R0,#?V0
        LCALL     ?PUSH_XSTACK_I_ONE
          CFI CFA_XSP16 add(XSP16, 23)
        MOV       A,R6
        MOV       R4,A
        MOV       A,R7
        MOV       R5,A
        MOV       R2,?V12
        MOV       R3,?V13
        MOV       R1,?V2
        LCALL     `??bdbTL_Send_ScanRsp::?relay`; Banked call to: bdbTL_Send_ScanRsp
        MOV       A,#0x1
        LCALL     ?DEALLOC_XSTACK8
          CFI CFA_XSP16 add(XSP16, 22)
        MOV       A,R1
        MOV       ?V0,A
// 1285 
// 1286       osal_mem_free( pRsp );
        ; Setup parameters for call to function osal_mem_free
        MOV       A,R6
        MOV       R2,A
        MOV       A,R7
        MOV       R3,A
        LCALL     `??osal_mem_free::?relay`; Banked call to: osal_mem_free
        SJMP      ??touchLink_InitiatorSendScanRsp_0
// 1287     }
// 1288     else
// 1289     {
// 1290       status = ZMemError;
??touchLink_InitiatorSendScanRsp_1:
        MOV       ?V0,#0x10
// 1291     }
// 1292   }
// 1293 
// 1294   return ( status );
??touchLink_InitiatorSendScanRsp_0:
        MOV       R1,?V0
        MOV       R7,#0xe
        LJMP      ?BANKED_LEAVE_XDATA
// 1295 }
          CFI EndBlock cfiBlock107

        RSEG BANKED_CODE:HUGECODE:NOROOT(0)
?Subroutine33:
          CFI Block cfiCond108 Using cfiCommon0
          CFI Function touchLinkInitiator_StartDevDisc
          CFI Conditional ??CrossCallReturnLabel_34
          CFI R6 load(1, XDATA, add(CFA_XSP16, literal(-16)))
          CFI VB load(1, XDATA, add(CFA_XSP16, literal(-15)))
          CFI V0 load(1, XDATA, add(CFA_XSP16, literal(-14)))
          CFI V1 load(1, XDATA, add(CFA_XSP16, literal(-13)))
          CFI V2 load(1, XDATA, add(CFA_XSP16, literal(-12)))
          CFI V3 load(1, XDATA, add(CFA_XSP16, literal(-11)))
          CFI V4 load(1, XDATA, add(CFA_XSP16, literal(-10)))
          CFI V5 load(1, XDATA, add(CFA_XSP16, literal(-9)))
          CFI V6 load(1, XDATA, add(CFA_XSP16, literal(-8)))
          CFI V7 load(1, XDATA, add(CFA_XSP16, literal(-7)))
          CFI R7 load(1, XDATA, add(CFA_XSP16, literal(-6)))
          CFI ?RET_LOW load(1, XDATA, add(CFA_XSP16, literal(-5)))
          CFI ?RET_HIGH load(1, XDATA, add(CFA_XSP16, literal(-4)))
          CFI ?BRET_EXT load(1, XDATA, add(CFA_XSP16, literal(-3)))
          CFI DPL0 load(1, XDATA, add(CFA_XSP16, literal(-2)))
          CFI DPH0 load(1, XDATA, add(CFA_XSP16, literal(-1)))
          CFI CFA_SP SP+-2
          CFI CFA_XSP16 add(XSP16, 17)
          CFI Block cfiCond109 Using cfiCommon0
          CFI (cfiCond109) Function touchLink_InitiatorSendScanRsp
          CFI (cfiCond109) Conditional ??CrossCallReturnLabel_35
          CFI (cfiCond109) R6 load(1, XDATA, add(CFA_XSP16, literal(-22)))
          CFI (cfiCond109) VB load(1, XDATA, add(CFA_XSP16, literal(-21)))
          CFI (cfiCond109) V0 load(1, XDATA, add(CFA_XSP16, literal(-20)))
          CFI (cfiCond109) V1 load(1, XDATA, add(CFA_XSP16, literal(-19)))
          CFI (cfiCond109) V2 load(1, XDATA, add(CFA_XSP16, literal(-18)))
          CFI (cfiCond109) V3 load(1, XDATA, add(CFA_XSP16, literal(-17)))
          CFI (cfiCond109) V4 load(1, XDATA, add(CFA_XSP16, literal(-16)))
          CFI (cfiCond109) V5 load(1, XDATA, add(CFA_XSP16, literal(-15)))
          CFI (cfiCond109) V6 load(1, XDATA, add(CFA_XSP16, literal(-14)))
          CFI (cfiCond109) V7 load(1, XDATA, add(CFA_XSP16, literal(-13)))
          CFI (cfiCond109) V8 load(1, XDATA, add(CFA_XSP16, literal(-12)))
          CFI (cfiCond109) V9 load(1, XDATA, add(CFA_XSP16, literal(-11)))
          CFI (cfiCond109) V10 load(1, XDATA, add(CFA_XSP16, literal(-10)))
          CFI (cfiCond109) V11 load(1, XDATA, add(CFA_XSP16, literal(-9)))
          CFI (cfiCond109) V12 load(1, XDATA, add(CFA_XSP16, literal(-8)))
          CFI (cfiCond109) V13 load(1, XDATA, add(CFA_XSP16, literal(-7)))
          CFI (cfiCond109) R7 load(1, XDATA, add(CFA_XSP16, literal(-6)))
          CFI (cfiCond109) ?RET_LOW load(1, XDATA, add(CFA_XSP16, literal(-5)))
          CFI (cfiCond109) ?RET_HIGH load(1, XDATA, add(CFA_XSP16, literal(-4)))
          CFI (cfiCond109) ?BRET_EXT load(1, XDATA, add(CFA_XSP16, literal(-3)))
          CFI (cfiCond109) DPL0 load(1, XDATA, add(CFA_XSP16, literal(-2)))
          CFI (cfiCond109) DPH0 load(1, XDATA, add(CFA_XSP16, literal(-1)))
          CFI (cfiCond109) CFA_SP SP+-2
          CFI (cfiCond109) CFA_XSP16 add(XSP16, 22)
          CFI Block cfiPicker110 Using cfiCommon1
          CFI (cfiPicker110) NoFunction
          CFI (cfiPicker110) Picker
        LCALL     `??osal_rand::?relay`; Banked call to: osal_rand
        MOV       ?V4,R2
        MOV       ?V5,R3
        CLR       A
        MOV       ?V6,A
        MOV       ?V7,A
        RET
          CFI EndBlock cfiCond108
          CFI EndBlock cfiCond109
          CFI EndBlock cfiPicker110

        RSEG BANKED_CODE:HUGECODE:NOROOT(0)
?Subroutine22:
          CFI Block cfiCond111 Using cfiCommon0
          CFI Function touchLink_InitiatorSendScanRsp
          CFI Conditional ??CrossCallReturnLabel_104
          CFI R6 load(1, XDATA, add(CFA_XSP16, literal(-22)))
          CFI VB load(1, XDATA, add(CFA_XSP16, literal(-21)))
          CFI V0 load(1, XDATA, add(CFA_XSP16, literal(-20)))
          CFI V1 load(1, XDATA, add(CFA_XSP16, literal(-19)))
          CFI V2 load(1, XDATA, add(CFA_XSP16, literal(-18)))
          CFI V3 load(1, XDATA, add(CFA_XSP16, literal(-17)))
          CFI V4 load(1, XDATA, add(CFA_XSP16, literal(-16)))
          CFI V5 load(1, XDATA, add(CFA_XSP16, literal(-15)))
          CFI V6 load(1, XDATA, add(CFA_XSP16, literal(-14)))
          CFI V7 load(1, XDATA, add(CFA_XSP16, literal(-13)))
          CFI V8 load(1, XDATA, add(CFA_XSP16, literal(-12)))
          CFI V9 load(1, XDATA, add(CFA_XSP16, literal(-11)))
          CFI V10 load(1, XDATA, add(CFA_XSP16, literal(-10)))
          CFI V11 load(1, XDATA, add(CFA_XSP16, literal(-9)))
          CFI V12 load(1, XDATA, add(CFA_XSP16, literal(-8)))
          CFI V13 load(1, XDATA, add(CFA_XSP16, literal(-7)))
          CFI R7 load(1, XDATA, add(CFA_XSP16, literal(-6)))
          CFI ?RET_LOW load(1, XDATA, add(CFA_XSP16, literal(-5)))
          CFI ?RET_HIGH load(1, XDATA, add(CFA_XSP16, literal(-4)))
          CFI ?BRET_EXT load(1, XDATA, add(CFA_XSP16, literal(-3)))
          CFI DPL0 load(1, XDATA, add(CFA_XSP16, literal(-2)))
          CFI DPH0 load(1, XDATA, add(CFA_XSP16, literal(-1)))
          CFI CFA_SP SP+-2
          CFI CFA_XSP16 add(XSP16, 22)
          CFI Block cfiCond112 Using cfiCommon0
          CFI (cfiCond112) Function initiatorSendNwkJoinReq
          CFI (cfiCond112) Conditional ??CrossCallReturnLabel_105
          CFI (cfiCond112) R6 load(1, XDATA, add(CFA_XSP16, literal(-16)))
          CFI (cfiCond112) VB load(1, XDATA, add(CFA_XSP16, literal(-15)))
          CFI (cfiCond112) V0 load(1, XDATA, add(CFA_XSP16, literal(-14)))
          CFI (cfiCond112) V1 load(1, XDATA, add(CFA_XSP16, literal(-13)))
          CFI (cfiCond112) V2 load(1, XDATA, add(CFA_XSP16, literal(-12)))
          CFI (cfiCond112) V3 load(1, XDATA, add(CFA_XSP16, literal(-11)))
          CFI (cfiCond112) V4 load(1, XDATA, add(CFA_XSP16, literal(-10)))
          CFI (cfiCond112) V5 load(1, XDATA, add(CFA_XSP16, literal(-9)))
          CFI (cfiCond112) V6 load(1, XDATA, add(CFA_XSP16, literal(-8)))
          CFI (cfiCond112) V7 load(1, XDATA, add(CFA_XSP16, literal(-7)))
          CFI (cfiCond112) R7 load(1, XDATA, add(CFA_XSP16, literal(-6)))
          CFI (cfiCond112) ?RET_LOW load(1, XDATA, add(CFA_XSP16, literal(-5)))
          CFI (cfiCond112) ?RET_HIGH load(1, XDATA, add(CFA_XSP16, literal(-4)))
          CFI (cfiCond112) ?BRET_EXT load(1, XDATA, add(CFA_XSP16, literal(-3)))
          CFI (cfiCond112) DPL0 load(1, XDATA, add(CFA_XSP16, literal(-2)))
          CFI (cfiCond112) DPH0 load(1, XDATA, add(CFA_XSP16, literal(-1)))
          CFI (cfiCond112) CFA_SP SP+-2
          CFI (cfiCond112) CFA_XSP16 add(XSP16, 16)
          CFI Block cfiPicker113 Using cfiCommon1
          CFI (cfiPicker113) NoFunction
          CFI (cfiPicker113) Picker
        MOVX      @DPTR,A
          CFI EndBlock cfiCond111
          CFI EndBlock cfiCond112
          CFI EndBlock cfiPicker113
        REQUIRE ??Subroutine53_0
        ; // Fall through to label ??Subroutine53_0

        RSEG BANKED_CODE:HUGECODE:NOROOT(0)
??Subroutine53_0:
          CFI Block cfiCond114 Using cfiCommon0
          CFI Function initiatorNwkUpdateReqCB
          CFI Conditional ??CrossCallReturnLabel_106
          CFI R6 load(1, XDATA, add(CFA_XSP16, literal(-10)))
          CFI VB load(1, XDATA, add(CFA_XSP16, literal(-9)))
          CFI V0 load(1, XDATA, add(CFA_XSP16, literal(-8)))
          CFI V1 load(1, XDATA, add(CFA_XSP16, literal(-7)))
          CFI R7 load(1, XDATA, add(CFA_XSP16, literal(-6)))
          CFI ?RET_LOW load(1, XDATA, add(CFA_XSP16, literal(-5)))
          CFI ?RET_HIGH load(1, XDATA, add(CFA_XSP16, literal(-4)))
          CFI ?BRET_EXT load(1, XDATA, add(CFA_XSP16, literal(-3)))
          CFI DPL0 load(1, XDATA, add(CFA_XSP16, literal(-2)))
          CFI DPH0 load(1, XDATA, add(CFA_XSP16, literal(-1)))
          CFI CFA_SP SP+-2
          CFI CFA_XSP16 add(XSP16, 10)
          CFI Block cfiCond115 Using cfiCommon0
          CFI (cfiCond115) Function touchLink_InitiatorSendScanRsp
          CFI (cfiCond115) Conditional ??CrossCallReturnLabel_104
          CFI (cfiCond115) R6 load(1, XDATA, add(CFA_XSP16, literal(-22)))
          CFI (cfiCond115) VB load(1, XDATA, add(CFA_XSP16, literal(-21)))
          CFI (cfiCond115) V0 load(1, XDATA, add(CFA_XSP16, literal(-20)))
          CFI (cfiCond115) V1 load(1, XDATA, add(CFA_XSP16, literal(-19)))
          CFI (cfiCond115) V2 load(1, XDATA, add(CFA_XSP16, literal(-18)))
          CFI (cfiCond115) V3 load(1, XDATA, add(CFA_XSP16, literal(-17)))
          CFI (cfiCond115) V4 load(1, XDATA, add(CFA_XSP16, literal(-16)))
          CFI (cfiCond115) V5 load(1, XDATA, add(CFA_XSP16, literal(-15)))
          CFI (cfiCond115) V6 load(1, XDATA, add(CFA_XSP16, literal(-14)))
          CFI (cfiCond115) V7 load(1, XDATA, add(CFA_XSP16, literal(-13)))
          CFI (cfiCond115) V8 load(1, XDATA, add(CFA_XSP16, literal(-12)))
          CFI (cfiCond115) V9 load(1, XDATA, add(CFA_XSP16, literal(-11)))
          CFI (cfiCond115) V10 load(1, XDATA, add(CFA_XSP16, literal(-10)))
          CFI (cfiCond115) V11 load(1, XDATA, add(CFA_XSP16, literal(-9)))
          CFI (cfiCond115) V12 load(1, XDATA, add(CFA_XSP16, literal(-8)))
          CFI (cfiCond115) V13 load(1, XDATA, add(CFA_XSP16, literal(-7)))
          CFI (cfiCond115) R7 load(1, XDATA, add(CFA_XSP16, literal(-6)))
          CFI (cfiCond115) ?RET_LOW load(1, XDATA, add(CFA_XSP16, literal(-5)))
          CFI (cfiCond115) ?RET_HIGH load(1, XDATA, add(CFA_XSP16, literal(-4)))
          CFI (cfiCond115) ?BRET_EXT load(1, XDATA, add(CFA_XSP16, literal(-3)))
          CFI (cfiCond115) DPL0 load(1, XDATA, add(CFA_XSP16, literal(-2)))
          CFI (cfiCond115) DPH0 load(1, XDATA, add(CFA_XSP16, literal(-1)))
          CFI (cfiCond115) CFA_SP SP+-2
          CFI (cfiCond115) CFA_XSP16 add(XSP16, 22)
          CFI Block cfiCond116 Using cfiCommon0
          CFI (cfiCond116) Function initiatorSendNwkJoinReq
          CFI (cfiCond116) Conditional ??CrossCallReturnLabel_105
          CFI (cfiCond116) R6 load(1, XDATA, add(CFA_XSP16, literal(-16)))
          CFI (cfiCond116) VB load(1, XDATA, add(CFA_XSP16, literal(-15)))
          CFI (cfiCond116) V0 load(1, XDATA, add(CFA_XSP16, literal(-14)))
          CFI (cfiCond116) V1 load(1, XDATA, add(CFA_XSP16, literal(-13)))
          CFI (cfiCond116) V2 load(1, XDATA, add(CFA_XSP16, literal(-12)))
          CFI (cfiCond116) V3 load(1, XDATA, add(CFA_XSP16, literal(-11)))
          CFI (cfiCond116) V4 load(1, XDATA, add(CFA_XSP16, literal(-10)))
          CFI (cfiCond116) V5 load(1, XDATA, add(CFA_XSP16, literal(-9)))
          CFI (cfiCond116) V6 load(1, XDATA, add(CFA_XSP16, literal(-8)))
          CFI (cfiCond116) V7 load(1, XDATA, add(CFA_XSP16, literal(-7)))
          CFI (cfiCond116) R7 load(1, XDATA, add(CFA_XSP16, literal(-6)))
          CFI (cfiCond116) ?RET_LOW load(1, XDATA, add(CFA_XSP16, literal(-5)))
          CFI (cfiCond116) ?RET_HIGH load(1, XDATA, add(CFA_XSP16, literal(-4)))
          CFI (cfiCond116) ?BRET_EXT load(1, XDATA, add(CFA_XSP16, literal(-3)))
          CFI (cfiCond116) DPL0 load(1, XDATA, add(CFA_XSP16, literal(-2)))
          CFI (cfiCond116) DPH0 load(1, XDATA, add(CFA_XSP16, literal(-1)))
          CFI (cfiCond116) CFA_SP SP+-2
          CFI (cfiCond116) CFA_XSP16 add(XSP16, 16)
          CFI Block cfiPicker117 Using cfiCommon1
          CFI (cfiPicker117) NoFunction
          CFI (cfiPicker117) Picker
        MOV       DPTR,#_NIB + 33
        LCALL     ?Subroutine41 & 0xFFFF
??CrossCallReturnLabel_154:
        MOV       A,R6
        RET
          CFI EndBlock cfiCond114
          CFI EndBlock cfiCond115
          CFI EndBlock cfiCond116
          CFI EndBlock cfiPicker117
// 1296 
// 1297 /*********************************************************************
// 1298  * @fn      bdb_Initiator_SendNwkJoinReq
// 1299  *
// 1300  * @brief   Send out a Network Join Router or End Device Request command.
// 1301  *          using the selected Target.
// 1302  *
// 1303  * @param   -
// 1304  *
// 1305  * @return  ZStatus_t
// 1306  */

        RSEG BANKED_CODE:HUGECODE:NOROOT(0)
// 1307 ZStatus_t bdb_Initiator_SendNwkJoinReq( void )
bdb_Initiator_SendNwkJoinReq:
          CFI Block cfiBlock118 Using cfiCommon0
          CFI Function bdb_Initiator_SendNwkJoinReq
        CODE
// 1308 {
        FUNCALL bdb_Initiator_SendNwkJoinReq, nwk_setStateIdle
        LOCFRAME ISTACK, 2, STACK
        LOCFRAME PSTACK, 0, STACK
        LOCFRAME XSTACK, 0, STACK
        LOCFRAME IOVERLAY, 0, STATIC
        LOCFRAME DOVERLAY, 0, STATIC
        ARGFRAME ISTACK, 2, STACK
        ARGFRAME PSTACK, 0, STACK
        ARGFRAME XSTACK, 0, STACK
        ARGFRAME IOVERLAY, 0, STATIC
        ARGFRAME DOVERLAY, 0, STATIC
        FUNCALL bdb_Initiator_SendNwkJoinReq, initiatorSendNwkJoinReq
        LOCFRAME ISTACK, 2, STACK
        LOCFRAME PSTACK, 0, STACK
        LOCFRAME XSTACK, 0, STACK
        LOCFRAME IOVERLAY, 0, STATIC
        LOCFRAME DOVERLAY, 0, STATIC
        ARGFRAME ISTACK, 2, STACK
        ARGFRAME PSTACK, 0, STACK
        ARGFRAME XSTACK, 0, STACK
        ARGFRAME IOVERLAY, 0, STATIC
        ARGFRAME DOVERLAY, 0, STATIC
        PUSH      DPL
          CFI DPL0 Frame(CFA_SP, 4)
          CFI CFA_SP SP+-4
        PUSH      DPH
          CFI DPH0 Frame(CFA_SP, 5)
          CFI CFA_SP SP+-5
        ; Saved register size: 2
        ; Auto size: 0
// 1309   // Set NWK task to idle
// 1310   nwk_setStateIdle( TRUE );
        ; Setup parameters for call to function nwk_setStateIdle
        MOV       R1,#0x1
        LCALL     `??nwk_setStateIdle::?relay`; Banked call to: nwk_setStateIdle
// 1311   return initiatorSendNwkJoinReq( &(selectedTarget.scanRsp) );
        ; Setup parameters for call to function initiatorSendNwkJoinReq
        MOV       R2,#selectedTarget & 0xff
        MOV       R3,#(selectedTarget >> 8) & 0xff
        LCALL     `??initiatorSendNwkJoinReq::?relay`; Banked call to: initiatorSendNwkJoinReq
        LJMP      ??Subroutine46_0 & 0xFFFF
// 1312 }  
          CFI EndBlock cfiBlock118
// 1313 
// 1314 #if (ZSTACK_ROUTER_BUILD)
// 1315 /*********************************************************************
// 1316  * @fn      touchLinkInitiator_PermitJoin
// 1317  *
// 1318  * @brief   Set the router permit join flag, to allow or deny classical
// 1319  *          commissioning by other ZigBee devices.
// 1320  *
// 1321  * @param   duration - enable up to aplcMaxPermitJoinDuration seconds,
// 1322  *                     0 to disable
// 1323  *
// 1324  * @return  status
// 1325  */

        RSEG BANKED_CODE:HUGECODE:NOROOT(0)
// 1326 ZStatus_t touchLinkInitiator_PermitJoin( uint8 duration )
touchLinkInitiator_PermitJoin:
          CFI Block cfiBlock119 Using cfiCommon0
          CFI Function touchLinkInitiator_PermitJoin
        CODE
// 1327 {
        FUNCALL touchLinkInitiator_PermitJoin, touchLink_PermitJoin
        LOCFRAME ISTACK, 0, STACK
        LOCFRAME PSTACK, 0, STACK
        LOCFRAME XSTACK, 9, STACK
        LOCFRAME IOVERLAY, 0, STATIC
        LOCFRAME DOVERLAY, 0, STATIC
        ARGFRAME ISTACK, 0, STACK
        ARGFRAME PSTACK, 0, STACK
        ARGFRAME XSTACK, 9, STACK
        ARGFRAME IOVERLAY, 0, STATIC
        ARGFRAME DOVERLAY, 0, STATIC
        MOV       A,#-0x9
        LCALL     ?BANKED_ENTER_XDATA
          CFI DPH0 load(1, XDATA, add(CFA_XSP16, literal(-1)))
          CFI DPL0 load(1, XDATA, add(CFA_XSP16, literal(-2)))
          CFI ?BRET_EXT load(1, XDATA, add(CFA_XSP16, literal(-3)))
          CFI ?RET_HIGH load(1, XDATA, add(CFA_XSP16, literal(-4)))
          CFI ?RET_LOW load(1, XDATA, add(CFA_XSP16, literal(-5)))
          CFI R7 load(1, XDATA, add(CFA_XSP16, literal(-6)))
          CFI V0 load(1, XDATA, add(CFA_XSP16, literal(-7)))
          CFI VB load(1, XDATA, add(CFA_XSP16, literal(-8)))
          CFI R6 load(1, XDATA, add(CFA_XSP16, literal(-9)))
          CFI CFA_SP SP+0
          CFI CFA_XSP16 add(XSP16, 9)
        ; Saved register size: 9
        ; Auto size: 0
// 1328   return touchLink_PermitJoin( duration );
        ; Setup parameters for call to function touchLink_PermitJoin
        LCALL     `??touchLink_PermitJoin::?relay`; Banked call to: touchLink_PermitJoin
        SJMP      ??Subroutine54_0
// 1329 }  
          CFI EndBlock cfiBlock119

        RSEG BANKED_CODE:HUGECODE:NOROOT(0)
?Subroutine2:
          CFI Block cfiBlock120 Using cfiCommon0
          CFI NoFunction
          CFI CFA_SP SP+0
          CFI CFA_XSP16 add(XSP16, 13)
          CFI VB load(1, XDATA, add(CFA_XSP16, literal(-8)))
          CFI DPL0 load(1, XDATA, add(CFA_XSP16, literal(-2)))
          CFI DPH0 load(1, XDATA, add(CFA_XSP16, literal(-1)))
          CFI R6 load(1, XDATA, add(CFA_XSP16, literal(-9)))
          CFI R7 load(1, XDATA, add(CFA_XSP16, literal(-6)))
          CFI V0 load(1, XDATA, add(CFA_XSP16, literal(-7)))
          CFI ?BRET_EXT load(1, XDATA, add(CFA_XSP16, literal(-3)))
          CFI ?RET_HIGH load(1, XDATA, add(CFA_XSP16, literal(-4)))
          CFI ?RET_LOW load(1, XDATA, add(CFA_XSP16, literal(-5)))
          CFI Invalid
        LCALL     ?DEALLOC_XSTACK8
          CFI EndBlock cfiBlock120
        REQUIRE ??Subroutine54_0
        ; // Fall through to label ??Subroutine54_0

        RSEG BANKED_CODE:HUGECODE:NOROOT(0)
??Subroutine54_0:
          CFI Block cfiBlock121 Using cfiCommon0
          CFI NoFunction
          CFI CFA_SP SP+0
          CFI CFA_XSP16 add(XSP16, 9)
          CFI VB load(1, XDATA, add(CFA_XSP16, literal(-8)))
          CFI DPL0 load(1, XDATA, add(CFA_XSP16, literal(-2)))
          CFI DPH0 load(1, XDATA, add(CFA_XSP16, literal(-1)))
          CFI R6 load(1, XDATA, add(CFA_XSP16, literal(-9)))
          CFI R7 load(1, XDATA, add(CFA_XSP16, literal(-6)))
          CFI V0 load(1, XDATA, add(CFA_XSP16, literal(-7)))
          CFI ?BRET_EXT load(1, XDATA, add(CFA_XSP16, literal(-3)))
          CFI ?RET_HIGH load(1, XDATA, add(CFA_XSP16, literal(-4)))
          CFI ?RET_LOW load(1, XDATA, add(CFA_XSP16, literal(-5)))
        MOV       R7,#0x1
        LJMP      ?BANKED_LEAVE_XDATA
          CFI EndBlock cfiBlock121
// 1330 #endif //(ZSTACK_ROUTER_BUILD)
// 1331 
// 1332 /*********************************************************************
// 1333  * LOCAL FUNCTIONS
// 1334  */
// 1335 
// 1336 /*********************************************************************
// 1337  * @fn      initiatorScanReqCB
// 1338  *
// 1339  * @brief   This callback is called to process a Scan Request command.
// 1340  *
// 1341  * @param   srcAddr - sender's address
// 1342  * @param   pReq - parsed command
// 1343  * @param   seqNum - command sequence number
// 1344  *
// 1345  * @return  ZStatus_t
// 1346  */

        RSEG BANKED_CODE:HUGECODE:NOROOT(0)
// 1347 static ZStatus_t initiatorScanReqCB( afAddrType_t *srcAddr, bdbTLScanReq_t *pReq, uint8 seqNum )
initiatorScanReqCB:
          CFI Block cfiBlock122 Using cfiCommon0
          CFI Function initiatorScanReqCB
        CODE
// 1348 {
        FUNCALL initiatorScanReqCB, touchLink_GetMsgRssi
        LOCFRAME ISTACK, 0, STACK
        LOCFRAME PSTACK, 0, STACK
        LOCFRAME XSTACK, 31, STACK
        LOCFRAME IOVERLAY, 0, STATIC
        LOCFRAME DOVERLAY, 0, STATIC
        ARGFRAME ISTACK, 0, STACK
        ARGFRAME PSTACK, 0, STACK
        ARGFRAME XSTACK, 31, STACK
        ARGFRAME IOVERLAY, 0, STATIC
        ARGFRAME DOVERLAY, 0, STATIC
        FUNCALL initiatorScanReqCB, osal_memcpy
        LOCFRAME ISTACK, 0, STACK
        LOCFRAME PSTACK, 0, STACK
        LOCFRAME XSTACK, 34, STACK
        LOCFRAME IOVERLAY, 0, STATIC
        LOCFRAME DOVERLAY, 0, STATIC
        ARGFRAME ISTACK, 0, STACK
        ARGFRAME PSTACK, 0, STACK
        ARGFRAME XSTACK, 34, STACK
        ARGFRAME IOVERLAY, 0, STATIC
        ARGFRAME DOVERLAY, 0, STATIC
        FUNCALL initiatorScanReqCB, osal_get_timeoutEx
        LOCFRAME ISTACK, 0, STACK
        LOCFRAME PSTACK, 0, STACK
        LOCFRAME XSTACK, 31, STACK
        LOCFRAME IOVERLAY, 0, STATIC
        LOCFRAME DOVERLAY, 0, STATIC
        ARGFRAME ISTACK, 0, STACK
        ARGFRAME PSTACK, 0, STACK
        ARGFRAME XSTACK, 31, STACK
        ARGFRAME IOVERLAY, 0, STATIC
        ARGFRAME DOVERLAY, 0, STATIC
        FUNCALL initiatorScanReqCB, touchLink_InitiatorSendScanRsp
        LOCFRAME ISTACK, 0, STACK
        LOCFRAME PSTACK, 0, STACK
        LOCFRAME XSTACK, 35, STACK
        LOCFRAME IOVERLAY, 0, STATIC
        LOCFRAME DOVERLAY, 0, STATIC
        ARGFRAME ISTACK, 0, STACK
        ARGFRAME PSTACK, 0, STACK
        ARGFRAME XSTACK, 35, STACK
        ARGFRAME IOVERLAY, 0, STATIC
        ARGFRAME DOVERLAY, 0, STATIC
        FUNCALL initiatorScanReqCB, osal_stop_timerEx
        LOCFRAME ISTACK, 0, STACK
        LOCFRAME PSTACK, 0, STACK
        LOCFRAME XSTACK, 31, STACK
        LOCFRAME IOVERLAY, 0, STATIC
        LOCFRAME DOVERLAY, 0, STATIC
        ARGFRAME ISTACK, 0, STACK
        ARGFRAME PSTACK, 0, STACK
        ARGFRAME XSTACK, 31, STACK
        ARGFRAME IOVERLAY, 0, STATIC
        ARGFRAME DOVERLAY, 0, STATIC
        REQUIRE ?V0
        REQUIRE ?V1
        REQUIRE ?V2
        REQUIRE ?V3
        REQUIRE ?V4
        REQUIRE ?V8
        REQUIRE ?V9
        REQUIRE ?V10
        MOV       A,#-0x13
        LCALL     ?BANKED_ENTER_XDATA
          CFI DPH0 load(1, XDATA, add(CFA_XSP16, literal(-1)))
          CFI DPL0 load(1, XDATA, add(CFA_XSP16, literal(-2)))
          CFI ?BRET_EXT load(1, XDATA, add(CFA_XSP16, literal(-3)))
          CFI ?RET_HIGH load(1, XDATA, add(CFA_XSP16, literal(-4)))
          CFI ?RET_LOW load(1, XDATA, add(CFA_XSP16, literal(-5)))
          CFI R7 load(1, XDATA, add(CFA_XSP16, literal(-6)))
          CFI V10 load(1, XDATA, add(CFA_XSP16, literal(-7)))
          CFI V9 load(1, XDATA, add(CFA_XSP16, literal(-8)))
          CFI V8 load(1, XDATA, add(CFA_XSP16, literal(-9)))
          CFI V7 load(1, XDATA, add(CFA_XSP16, literal(-10)))
          CFI V6 load(1, XDATA, add(CFA_XSP16, literal(-11)))
          CFI V5 load(1, XDATA, add(CFA_XSP16, literal(-12)))
          CFI V4 load(1, XDATA, add(CFA_XSP16, literal(-13)))
          CFI V3 load(1, XDATA, add(CFA_XSP16, literal(-14)))
          CFI V2 load(1, XDATA, add(CFA_XSP16, literal(-15)))
          CFI V1 load(1, XDATA, add(CFA_XSP16, literal(-16)))
          CFI V0 load(1, XDATA, add(CFA_XSP16, literal(-17)))
          CFI VB load(1, XDATA, add(CFA_XSP16, literal(-18)))
          CFI R6 load(1, XDATA, add(CFA_XSP16, literal(-19)))
          CFI CFA_SP SP+0
          CFI CFA_XSP16 add(XSP16, 19)
        ; Saved register size: 19
        ; Auto size: 12
        MOV       A,#-0xc
        LCALL     ?ALLOC_XSTACK8
          CFI CFA_XSP16 add(XSP16, 31)
        MOV       ?V2,R2
        MOV       ?V3,R3
        MOV       ?V0,R4
        MOV       ?V1,R5
        MOV       ?V4,R1
// 1349   int8 rssi;
// 1350   rssi = touchLink_GetMsgRssi();
// 1351   if( ( rssi > TOUCHLINK_WORST_RSSI ) && ( pReq->touchLinkInitiator == TRUE ) )
        ; Setup parameters for call to function touchLink_GetMsgRssi
        LCALL     `??touchLink_GetMsgRssi::?relay`; Banked call to: touchLink_GetMsgRssi
        MOV       A,R1
        LCALL     ?Subroutine35 & 0xFFFF
??CrossCallReturnLabel_47:
        JNC       $+5
        LJMP      ??CrossCallReturnLabel_109 & 0xFFFF
        MOV       A,?V0
        ADD       A,#0x6
        MOV       R6,A
        CLR       A
        ADDC      A,?V1
        MOV       R7,A
        MOV       DPL,R6
        MOV       DPH,A
        MOVX      A,@DPTR
        ANL       A,#0x10
        JZ        ??CrossCallReturnLabel_109
// 1352   {
// 1353     // response to the originator, but switch to dst PAN 0xFFFF
// 1354     afAddrType_t dstAddr;
// 1355     osal_memcpy(&dstAddr, srcAddr, sizeof(afAddrType_t));
        ; Setup parameters for call to function osal_memcpy
        MOV       ?V8,?V2
        MOV       ?V9,?V3
        MOV       ?V10,#0x0
        MOV       R0,#?V8
        LCALL     ?PUSH_XSTACK_I_THREE
          CFI CFA_XSP16 add(XSP16, 34)
        MOV       R4,#0xc
        MOV       R5,#0x0
        MOV       A,#0x3
        LCALL     ?XSTACK_DISP101_8
        LCALL     `??osal_memcpy::?relay`; Banked call to: osal_memcpy
        MOV       A,#0x3
        LCALL     ?DEALLOC_XSTACK8
          CFI CFA_XSP16 add(XSP16, 31)
// 1356     dstAddr.panId = 0xFFFF;
        MOV       A,#0xa
        LCALL     ?XSTACK_DISP0_8
        MOV       A,#-0x1
        MOVX      @DPTR,A
        INC       DPTR
        MOVX      @DPTR,A
// 1357 
// 1358     // If we are factory new and revice a Scan Request from other factory new
// 1359     // device then drop the request.
// 1360     if ( ( pReq->touchLinkFactoryNew == TRUE ) && ( bdbAttributes.bdbNodeIsOnANetwork == FALSE ) )
        MOV       DPL,R6
        MOV       DPH,R7
        MOVX      A,@DPTR
        MOV       C,0xE0 /* A   */.0
        JNC       ??initiatorScanReqCB_0
        MOV       DPTR,#bdbAttributes + 14
        MOVX      A,@DPTR
        MOV       R0,A
        JZ        ??CrossCallReturnLabel_109
        MOV       A,#0x1
        XRL       A,R0
        JNZ       ??initiatorScanReqCB_0
        ; Setup parameters for call to function osal_get_timeoutEx
        LCALL     ?Subroutine7 & 0xFFFF
??CrossCallReturnLabel_162:
        JNZ       ??CrossCallReturnLabel_109
// 1361     {
// 1362       return ( ZSuccess );
// 1363     }
// 1364     // If, during its scan, a non factory new initiator receives another scan
// 1365     // request inter-PAN command frame from a factory new target, it shall be ignored.
// 1366     if ( ( pReq->touchLinkFactoryNew == TRUE ) && ( bdbAttributes.bdbNodeIsOnANetwork == TRUE ) &&
// 1367          osal_get_timeoutEx( touchLinkInitiator_TaskID, TOUCHLINK_TL_SCAN_BASE_EVT ) )
// 1368     {
// 1369       return ( ZSuccess );
// 1370     }
// 1371 
// 1372     // Send a Scan Response back
// 1373     if ( touchLink_InitiatorSendScanRsp( TOUCHLINK_INTERNAL_ENDPOINT, &dstAddr, pReq->transID, seqNum ) == ZSuccess )
??initiatorScanReqCB_0:
        ; Setup parameters for call to function touchLink_InitiatorSendScanRsp
        MOV       DPL,?V0
        MOV       DPH,?V1
        LCALL     ?PUSH_XSTACK8_X_FOUR
          CFI CFA_XSP16 add(XSP16, 35)
        MOV       R4,?V4
        MOV       A,#0x4
        LCALL     ?XSTACK_DISP101_8
        MOV       R1,#0xd
        LCALL     `??touchLink_InitiatorSendScanRsp::?relay`; Banked call to: touchLink_InitiatorSendScanRsp
        MOV       A,#0x4
        LCALL     ?DEALLOC_XSTACK8
          CFI CFA_XSP16 add(XSP16, 31)
        MOV       A,R1
        JNZ       ??CrossCallReturnLabel_109
// 1374     {
// 1375       // If we're a factory new initiator and are in the middle of a Device
// 1376       // Discovery, stop the procedure and wait for subsequent configuration
// 1377       // information from the non-factory new initiator that we just responded to.
// 1378       if ( ( bdbAttributes.bdbNodeIsOnANetwork == FALSE ) && !pReq->touchLinkFactoryNew )
        MOV       DPTR,#bdbAttributes + 14
        MOVX      A,@DPTR
        JNZ       ??CrossCallReturnLabel_109
        MOV       DPL,R6
        MOV       DPH,R7
        MOVX      A,@DPTR
        MOV       C,0xE0 /* A   */.0
        JC        ??CrossCallReturnLabel_109
// 1379       {
// 1380         osal_stop_timerEx( touchLinkInitiator_TaskID, TOUCHLINK_TL_SCAN_BASE_EVT );
        ; Setup parameters for call to function osal_stop_timerEx
        MOV       R2,#0x20
        LCALL     ??Subroutine55_0 & 0xFFFF
// 1381       }
// 1382     }
// 1383   }
// 1384 
// 1385   return ( ZSuccess );
??CrossCallReturnLabel_109:
        MOV       R1,#0x0
        MOV       A,#0xc
        LCALL     ?DEALLOC_XSTACK8
          CFI CFA_XSP16 add(XSP16, 19)
        MOV       R7,#0xb
        LJMP      ?BANKED_LEAVE_XDATA
// 1386 }
          CFI EndBlock cfiBlock122

        RSEG BANKED_CODE:HUGECODE:NOROOT(0)
?Subroutine35:
          CFI Block cfiCond123 Using cfiCommon0
          CFI Function touchLinkInitiator_event_loop
          CFI Conditional ??CrossCallReturnLabel_46
          CFI R6 load(1, XDATA, add(CFA_XSP16, literal(-16)))
          CFI VB load(1, XDATA, add(CFA_XSP16, literal(-15)))
          CFI V0 load(1, XDATA, add(CFA_XSP16, literal(-14)))
          CFI V1 load(1, XDATA, add(CFA_XSP16, literal(-13)))
          CFI V2 load(1, XDATA, add(CFA_XSP16, literal(-12)))
          CFI V3 load(1, XDATA, add(CFA_XSP16, literal(-11)))
          CFI V4 load(1, XDATA, add(CFA_XSP16, literal(-10)))
          CFI V5 load(1, XDATA, add(CFA_XSP16, literal(-9)))
          CFI V6 load(1, XDATA, add(CFA_XSP16, literal(-8)))
          CFI V7 load(1, XDATA, add(CFA_XSP16, literal(-7)))
          CFI R7 load(1, XDATA, add(CFA_XSP16, literal(-6)))
          CFI ?RET_LOW load(1, XDATA, add(CFA_XSP16, literal(-5)))
          CFI ?RET_HIGH load(1, XDATA, add(CFA_XSP16, literal(-4)))
          CFI ?BRET_EXT load(1, XDATA, add(CFA_XSP16, literal(-3)))
          CFI DPL0 load(1, XDATA, add(CFA_XSP16, literal(-2)))
          CFI DPH0 load(1, XDATA, add(CFA_XSP16, literal(-1)))
          CFI CFA_SP SP+-2
          CFI CFA_XSP16 add(XSP16, 75)
          CFI Block cfiCond124 Using cfiCommon0
          CFI (cfiCond124) Function initiatorScanReqCB
          CFI (cfiCond124) Conditional ??CrossCallReturnLabel_47
          CFI (cfiCond124) R6 load(1, XDATA, add(CFA_XSP16, literal(-19)))
          CFI (cfiCond124) VB load(1, XDATA, add(CFA_XSP16, literal(-18)))
          CFI (cfiCond124) V0 load(1, XDATA, add(CFA_XSP16, literal(-17)))
          CFI (cfiCond124) V1 load(1, XDATA, add(CFA_XSP16, literal(-16)))
          CFI (cfiCond124) V2 load(1, XDATA, add(CFA_XSP16, literal(-15)))
          CFI (cfiCond124) V3 load(1, XDATA, add(CFA_XSP16, literal(-14)))
          CFI (cfiCond124) V4 load(1, XDATA, add(CFA_XSP16, literal(-13)))
          CFI (cfiCond124) V5 load(1, XDATA, add(CFA_XSP16, literal(-12)))
          CFI (cfiCond124) V6 load(1, XDATA, add(CFA_XSP16, literal(-11)))
          CFI (cfiCond124) V7 load(1, XDATA, add(CFA_XSP16, literal(-10)))
          CFI (cfiCond124) V8 load(1, XDATA, add(CFA_XSP16, literal(-9)))
          CFI (cfiCond124) V9 load(1, XDATA, add(CFA_XSP16, literal(-8)))
          CFI (cfiCond124) V10 load(1, XDATA, add(CFA_XSP16, literal(-7)))
          CFI (cfiCond124) R7 load(1, XDATA, add(CFA_XSP16, literal(-6)))
          CFI (cfiCond124) ?RET_LOW load(1, XDATA, add(CFA_XSP16, literal(-5)))
          CFI (cfiCond124) ?RET_HIGH load(1, XDATA, add(CFA_XSP16, literal(-4)))
          CFI (cfiCond124) ?BRET_EXT load(1, XDATA, add(CFA_XSP16, literal(-3)))
          CFI (cfiCond124) DPL0 load(1, XDATA, add(CFA_XSP16, literal(-2)))
          CFI (cfiCond124) DPH0 load(1, XDATA, add(CFA_XSP16, literal(-1)))
          CFI (cfiCond124) CFA_SP SP+-2
          CFI (cfiCond124) CFA_XSP16 add(XSP16, 31)
          CFI Block cfiCond125 Using cfiCommon0
          CFI (cfiCond125) Function initiatorScanRspCB
          CFI (cfiCond125) Conditional ??CrossCallReturnLabel_48
          CFI (cfiCond125) R6 load(1, XDATA, add(CFA_XSP16, literal(-12)))
          CFI (cfiCond125) VB load(1, XDATA, add(CFA_XSP16, literal(-11)))
          CFI (cfiCond125) V0 load(1, XDATA, add(CFA_XSP16, literal(-10)))
          CFI (cfiCond125) V1 load(1, XDATA, add(CFA_XSP16, literal(-9)))
          CFI (cfiCond125) V2 load(1, XDATA, add(CFA_XSP16, literal(-8)))
          CFI (cfiCond125) V3 load(1, XDATA, add(CFA_XSP16, literal(-7)))
          CFI (cfiCond125) R7 load(1, XDATA, add(CFA_XSP16, literal(-6)))
          CFI (cfiCond125) ?RET_LOW load(1, XDATA, add(CFA_XSP16, literal(-5)))
          CFI (cfiCond125) ?RET_HIGH load(1, XDATA, add(CFA_XSP16, literal(-4)))
          CFI (cfiCond125) ?BRET_EXT load(1, XDATA, add(CFA_XSP16, literal(-3)))
          CFI (cfiCond125) DPL0 load(1, XDATA, add(CFA_XSP16, literal(-2)))
          CFI (cfiCond125) DPH0 load(1, XDATA, add(CFA_XSP16, literal(-1)))
          CFI (cfiCond125) CFA_SP SP+-2
          CFI (cfiCond125) CFA_XSP16 add(XSP16, 17)
          CFI Block cfiPicker126 Using cfiCommon1
          CFI (cfiPicker126) NoFunction
          CFI (cfiPicker126) Picker
        CLR       C
        SUBB      A,#-0x45
        MOV       C,0xD0 /* PSW */.2
        XRL       A,PSW
        RLC       A
        RET
          CFI EndBlock cfiCond123
          CFI EndBlock cfiCond124
          CFI EndBlock cfiCond125
          CFI EndBlock cfiPicker126

        RSEG BANKED_CODE:HUGECODE:NOROOT(0)
?Subroutine18:
          CFI Block cfiCond127 Using cfiCommon0
          CFI Function touchLinkInitiator_ResetToFNSelectedTarget
          CFI Conditional ??CrossCallReturnLabel_107
          CFI R6 load(1, XDATA, add(CFA_XSP16, literal(-9)))
          CFI VB load(1, XDATA, add(CFA_XSP16, literal(-8)))
          CFI V0 load(1, XDATA, add(CFA_XSP16, literal(-7)))
          CFI R7 load(1, XDATA, add(CFA_XSP16, literal(-6)))
          CFI ?RET_LOW load(1, XDATA, add(CFA_XSP16, literal(-5)))
          CFI ?RET_HIGH load(1, XDATA, add(CFA_XSP16, literal(-4)))
          CFI ?BRET_EXT load(1, XDATA, add(CFA_XSP16, literal(-3)))
          CFI DPL0 load(1, XDATA, add(CFA_XSP16, literal(-2)))
          CFI DPH0 load(1, XDATA, add(CFA_XSP16, literal(-1)))
          CFI CFA_SP SP+-2
          CFI CFA_XSP16 add(XSP16, 13)
          CFI Block cfiCond128 Using cfiCommon0
          CFI (cfiCond128) Function initiatorNwkJoinReqCB
          CFI (cfiCond128) Conditional ??CrossCallReturnLabel_108
          CFI (cfiCond128) R6 load(1, XDATA, add(CFA_XSP16, literal(-16)))
          CFI (cfiCond128) VB load(1, XDATA, add(CFA_XSP16, literal(-15)))
          CFI (cfiCond128) V0 load(1, XDATA, add(CFA_XSP16, literal(-14)))
          CFI (cfiCond128) V1 load(1, XDATA, add(CFA_XSP16, literal(-13)))
          CFI (cfiCond128) V2 load(1, XDATA, add(CFA_XSP16, literal(-12)))
          CFI (cfiCond128) V3 load(1, XDATA, add(CFA_XSP16, literal(-11)))
          CFI (cfiCond128) V4 load(1, XDATA, add(CFA_XSP16, literal(-10)))
          CFI (cfiCond128) V5 load(1, XDATA, add(CFA_XSP16, literal(-9)))
          CFI (cfiCond128) V6 load(1, XDATA, add(CFA_XSP16, literal(-8)))
          CFI (cfiCond128) V7 load(1, XDATA, add(CFA_XSP16, literal(-7)))
          CFI (cfiCond128) R7 load(1, XDATA, add(CFA_XSP16, literal(-6)))
          CFI (cfiCond128) ?RET_LOW load(1, XDATA, add(CFA_XSP16, literal(-5)))
          CFI (cfiCond128) ?RET_HIGH load(1, XDATA, add(CFA_XSP16, literal(-4)))
          CFI (cfiCond128) ?BRET_EXT load(1, XDATA, add(CFA_XSP16, literal(-3)))
          CFI (cfiCond128) DPL0 load(1, XDATA, add(CFA_XSP16, literal(-2)))
          CFI (cfiCond128) DPH0 load(1, XDATA, add(CFA_XSP16, literal(-1)))
          CFI (cfiCond128) CFA_SP SP+-2
          CFI (cfiCond128) CFA_XSP16 add(XSP16, 33)
          CFI Block cfiPicker129 Using cfiCommon1
          CFI (cfiPicker129) NoFunction
          CFI (cfiPicker129) Picker
        MOV       R2,#0x40
          CFI EndBlock cfiCond127
          CFI EndBlock cfiCond128
          CFI EndBlock cfiPicker129
        REQUIRE ??Subroutine55_0
        ; // Fall through to label ??Subroutine55_0

        RSEG BANKED_CODE:HUGECODE:NOROOT(0)
??Subroutine55_0:
          CFI Block cfiCond130 Using cfiCommon0
          CFI Function initiatorScanReqCB
          CFI Conditional ??CrossCallReturnLabel_109
          CFI R6 load(1, XDATA, add(CFA_XSP16, literal(-19)))
          CFI VB load(1, XDATA, add(CFA_XSP16, literal(-18)))
          CFI V0 load(1, XDATA, add(CFA_XSP16, literal(-17)))
          CFI V1 load(1, XDATA, add(CFA_XSP16, literal(-16)))
          CFI V2 load(1, XDATA, add(CFA_XSP16, literal(-15)))
          CFI V3 load(1, XDATA, add(CFA_XSP16, literal(-14)))
          CFI V4 load(1, XDATA, add(CFA_XSP16, literal(-13)))
          CFI V5 load(1, XDATA, add(CFA_XSP16, literal(-12)))
          CFI V6 load(1, XDATA, add(CFA_XSP16, literal(-11)))
          CFI V7 load(1, XDATA, add(CFA_XSP16, literal(-10)))
          CFI V8 load(1, XDATA, add(CFA_XSP16, literal(-9)))
          CFI V9 load(1, XDATA, add(CFA_XSP16, literal(-8)))
          CFI V10 load(1, XDATA, add(CFA_XSP16, literal(-7)))
          CFI R7 load(1, XDATA, add(CFA_XSP16, literal(-6)))
          CFI ?RET_LOW load(1, XDATA, add(CFA_XSP16, literal(-5)))
          CFI ?RET_HIGH load(1, XDATA, add(CFA_XSP16, literal(-4)))
          CFI ?BRET_EXT load(1, XDATA, add(CFA_XSP16, literal(-3)))
          CFI DPL0 load(1, XDATA, add(CFA_XSP16, literal(-2)))
          CFI DPH0 load(1, XDATA, add(CFA_XSP16, literal(-1)))
          CFI CFA_SP SP+-2
          CFI CFA_XSP16 add(XSP16, 31)
          CFI Block cfiCond131 Using cfiCommon0
          CFI (cfiCond131) Function touchLinkInitiator_ResetToFNSelectedTarget
          CFI (cfiCond131) Conditional ??CrossCallReturnLabel_107
          CFI (cfiCond131) R6 load(1, XDATA, add(CFA_XSP16, literal(-9)))
          CFI (cfiCond131) VB load(1, XDATA, add(CFA_XSP16, literal(-8)))
          CFI (cfiCond131) V0 load(1, XDATA, add(CFA_XSP16, literal(-7)))
          CFI (cfiCond131) R7 load(1, XDATA, add(CFA_XSP16, literal(-6)))
          CFI (cfiCond131) ?RET_LOW load(1, XDATA, add(CFA_XSP16, literal(-5)))
          CFI (cfiCond131) ?RET_HIGH load(1, XDATA, add(CFA_XSP16, literal(-4)))
          CFI (cfiCond131) ?BRET_EXT load(1, XDATA, add(CFA_XSP16, literal(-3)))
          CFI (cfiCond131) DPL0 load(1, XDATA, add(CFA_XSP16, literal(-2)))
          CFI (cfiCond131) DPH0 load(1, XDATA, add(CFA_XSP16, literal(-1)))
          CFI (cfiCond131) CFA_SP SP+-2
          CFI (cfiCond131) CFA_XSP16 add(XSP16, 13)
          CFI Block cfiCond132 Using cfiCommon0
          CFI (cfiCond132) Function initiatorNwkJoinReqCB
          CFI (cfiCond132) Conditional ??CrossCallReturnLabel_108
          CFI (cfiCond132) R6 load(1, XDATA, add(CFA_XSP16, literal(-16)))
          CFI (cfiCond132) VB load(1, XDATA, add(CFA_XSP16, literal(-15)))
          CFI (cfiCond132) V0 load(1, XDATA, add(CFA_XSP16, literal(-14)))
          CFI (cfiCond132) V1 load(1, XDATA, add(CFA_XSP16, literal(-13)))
          CFI (cfiCond132) V2 load(1, XDATA, add(CFA_XSP16, literal(-12)))
          CFI (cfiCond132) V3 load(1, XDATA, add(CFA_XSP16, literal(-11)))
          CFI (cfiCond132) V4 load(1, XDATA, add(CFA_XSP16, literal(-10)))
          CFI (cfiCond132) V5 load(1, XDATA, add(CFA_XSP16, literal(-9)))
          CFI (cfiCond132) V6 load(1, XDATA, add(CFA_XSP16, literal(-8)))
          CFI (cfiCond132) V7 load(1, XDATA, add(CFA_XSP16, literal(-7)))
          CFI (cfiCond132) R7 load(1, XDATA, add(CFA_XSP16, literal(-6)))
          CFI (cfiCond132) ?RET_LOW load(1, XDATA, add(CFA_XSP16, literal(-5)))
          CFI (cfiCond132) ?RET_HIGH load(1, XDATA, add(CFA_XSP16, literal(-4)))
          CFI (cfiCond132) ?BRET_EXT load(1, XDATA, add(CFA_XSP16, literal(-3)))
          CFI (cfiCond132) DPL0 load(1, XDATA, add(CFA_XSP16, literal(-2)))
          CFI (cfiCond132) DPH0 load(1, XDATA, add(CFA_XSP16, literal(-1)))
          CFI (cfiCond132) CFA_SP SP+-2
          CFI (cfiCond132) CFA_XSP16 add(XSP16, 33)
          CFI Block cfiPicker133 Using cfiCommon1
          CFI (cfiPicker133) NoFunction
          CFI (cfiPicker133) Picker
        MOV       R3,#0x0
          CFI EndBlock cfiCond130
          CFI EndBlock cfiCond131
          CFI EndBlock cfiCond132
          CFI EndBlock cfiPicker133
        REQUIRE ??Subroutine56_0
        ; // Fall through to label ??Subroutine56_0

        RSEG BANKED_CODE:HUGECODE:NOROOT(0)
??Subroutine56_0:
          CFI Block cfiCond134 Using cfiCommon0
          CFI Function initiatorNwkJoinReqCB
          CFI Conditional ??CrossCallReturnLabel_110
          CFI R6 load(1, XDATA, add(CFA_XSP16, literal(-16)))
          CFI VB load(1, XDATA, add(CFA_XSP16, literal(-15)))
          CFI V0 load(1, XDATA, add(CFA_XSP16, literal(-14)))
          CFI V1 load(1, XDATA, add(CFA_XSP16, literal(-13)))
          CFI V2 load(1, XDATA, add(CFA_XSP16, literal(-12)))
          CFI V3 load(1, XDATA, add(CFA_XSP16, literal(-11)))
          CFI V4 load(1, XDATA, add(CFA_XSP16, literal(-10)))
          CFI V5 load(1, XDATA, add(CFA_XSP16, literal(-9)))
          CFI V6 load(1, XDATA, add(CFA_XSP16, literal(-8)))
          CFI V7 load(1, XDATA, add(CFA_XSP16, literal(-7)))
          CFI R7 load(1, XDATA, add(CFA_XSP16, literal(-6)))
          CFI ?RET_LOW load(1, XDATA, add(CFA_XSP16, literal(-5)))
          CFI ?RET_HIGH load(1, XDATA, add(CFA_XSP16, literal(-4)))
          CFI ?BRET_EXT load(1, XDATA, add(CFA_XSP16, literal(-3)))
          CFI DPL0 load(1, XDATA, add(CFA_XSP16, literal(-2)))
          CFI DPH0 load(1, XDATA, add(CFA_XSP16, literal(-1)))
          CFI CFA_SP SP+-2
          CFI CFA_XSP16 add(XSP16, 33)
          CFI Block cfiCond135 Using cfiCommon0
          CFI (cfiCond135) Function initiatorProcessStateChange
          CFI (cfiCond135) Conditional ??CrossCallReturnLabel_111
          CFI (cfiCond135) R6 load(1, XDATA, add(CFA_XSP16, literal(-10)))
          CFI (cfiCond135) VB load(1, XDATA, add(CFA_XSP16, literal(-9)))
          CFI (cfiCond135) V0 load(1, XDATA, add(CFA_XSP16, literal(-8)))
          CFI (cfiCond135) V1 load(1, XDATA, add(CFA_XSP16, literal(-7)))
          CFI (cfiCond135) R7 load(1, XDATA, add(CFA_XSP16, literal(-6)))
          CFI (cfiCond135) ?RET_LOW load(1, XDATA, add(CFA_XSP16, literal(-5)))
          CFI (cfiCond135) ?RET_HIGH load(1, XDATA, add(CFA_XSP16, literal(-4)))
          CFI (cfiCond135) ?BRET_EXT load(1, XDATA, add(CFA_XSP16, literal(-3)))
          CFI (cfiCond135) DPL0 load(1, XDATA, add(CFA_XSP16, literal(-2)))
          CFI (cfiCond135) DPH0 load(1, XDATA, add(CFA_XSP16, literal(-1)))
          CFI (cfiCond135) CFA_SP SP+-2
          CFI (cfiCond135) CFA_XSP16 add(XSP16, 10)
          CFI Block cfiCond136 Using cfiCommon0
          CFI (cfiCond136) Function initiatorScanReqCB
          CFI (cfiCond136) Conditional ??CrossCallReturnLabel_109
          CFI (cfiCond136) R6 load(1, XDATA, add(CFA_XSP16, literal(-19)))
          CFI (cfiCond136) VB load(1, XDATA, add(CFA_XSP16, literal(-18)))
          CFI (cfiCond136) V0 load(1, XDATA, add(CFA_XSP16, literal(-17)))
          CFI (cfiCond136) V1 load(1, XDATA, add(CFA_XSP16, literal(-16)))
          CFI (cfiCond136) V2 load(1, XDATA, add(CFA_XSP16, literal(-15)))
          CFI (cfiCond136) V3 load(1, XDATA, add(CFA_XSP16, literal(-14)))
          CFI (cfiCond136) V4 load(1, XDATA, add(CFA_XSP16, literal(-13)))
          CFI (cfiCond136) V5 load(1, XDATA, add(CFA_XSP16, literal(-12)))
          CFI (cfiCond136) V6 load(1, XDATA, add(CFA_XSP16, literal(-11)))
          CFI (cfiCond136) V7 load(1, XDATA, add(CFA_XSP16, literal(-10)))
          CFI (cfiCond136) V8 load(1, XDATA, add(CFA_XSP16, literal(-9)))
          CFI (cfiCond136) V9 load(1, XDATA, add(CFA_XSP16, literal(-8)))
          CFI (cfiCond136) V10 load(1, XDATA, add(CFA_XSP16, literal(-7)))
          CFI (cfiCond136) R7 load(1, XDATA, add(CFA_XSP16, literal(-6)))
          CFI (cfiCond136) ?RET_LOW load(1, XDATA, add(CFA_XSP16, literal(-5)))
          CFI (cfiCond136) ?RET_HIGH load(1, XDATA, add(CFA_XSP16, literal(-4)))
          CFI (cfiCond136) ?BRET_EXT load(1, XDATA, add(CFA_XSP16, literal(-3)))
          CFI (cfiCond136) DPL0 load(1, XDATA, add(CFA_XSP16, literal(-2)))
          CFI (cfiCond136) DPH0 load(1, XDATA, add(CFA_XSP16, literal(-1)))
          CFI (cfiCond136) CFA_SP SP+-2
          CFI (cfiCond136) CFA_XSP16 add(XSP16, 31)
          CFI Block cfiCond137 Using cfiCommon0
          CFI (cfiCond137) Function touchLinkInitiator_ResetToFNSelectedTarget
          CFI (cfiCond137) Conditional ??CrossCallReturnLabel_107
          CFI (cfiCond137) R6 load(1, XDATA, add(CFA_XSP16, literal(-9)))
          CFI (cfiCond137) VB load(1, XDATA, add(CFA_XSP16, literal(-8)))
          CFI (cfiCond137) V0 load(1, XDATA, add(CFA_XSP16, literal(-7)))
          CFI (cfiCond137) R7 load(1, XDATA, add(CFA_XSP16, literal(-6)))
          CFI (cfiCond137) ?RET_LOW load(1, XDATA, add(CFA_XSP16, literal(-5)))
          CFI (cfiCond137) ?RET_HIGH load(1, XDATA, add(CFA_XSP16, literal(-4)))
          CFI (cfiCond137) ?BRET_EXT load(1, XDATA, add(CFA_XSP16, literal(-3)))
          CFI (cfiCond137) DPL0 load(1, XDATA, add(CFA_XSP16, literal(-2)))
          CFI (cfiCond137) DPH0 load(1, XDATA, add(CFA_XSP16, literal(-1)))
          CFI (cfiCond137) CFA_SP SP+-2
          CFI (cfiCond137) CFA_XSP16 add(XSP16, 13)
          CFI Block cfiCond138 Using cfiCommon0
          CFI (cfiCond138) Function initiatorNwkJoinReqCB
          CFI (cfiCond138) Conditional ??CrossCallReturnLabel_108
          CFI (cfiCond138) R6 load(1, XDATA, add(CFA_XSP16, literal(-16)))
          CFI (cfiCond138) VB load(1, XDATA, add(CFA_XSP16, literal(-15)))
          CFI (cfiCond138) V0 load(1, XDATA, add(CFA_XSP16, literal(-14)))
          CFI (cfiCond138) V1 load(1, XDATA, add(CFA_XSP16, literal(-13)))
          CFI (cfiCond138) V2 load(1, XDATA, add(CFA_XSP16, literal(-12)))
          CFI (cfiCond138) V3 load(1, XDATA, add(CFA_XSP16, literal(-11)))
          CFI (cfiCond138) V4 load(1, XDATA, add(CFA_XSP16, literal(-10)))
          CFI (cfiCond138) V5 load(1, XDATA, add(CFA_XSP16, literal(-9)))
          CFI (cfiCond138) V6 load(1, XDATA, add(CFA_XSP16, literal(-8)))
          CFI (cfiCond138) V7 load(1, XDATA, add(CFA_XSP16, literal(-7)))
          CFI (cfiCond138) R7 load(1, XDATA, add(CFA_XSP16, literal(-6)))
          CFI (cfiCond138) ?RET_LOW load(1, XDATA, add(CFA_XSP16, literal(-5)))
          CFI (cfiCond138) ?RET_HIGH load(1, XDATA, add(CFA_XSP16, literal(-4)))
          CFI (cfiCond138) ?BRET_EXT load(1, XDATA, add(CFA_XSP16, literal(-3)))
          CFI (cfiCond138) DPL0 load(1, XDATA, add(CFA_XSP16, literal(-2)))
          CFI (cfiCond138) DPH0 load(1, XDATA, add(CFA_XSP16, literal(-1)))
          CFI (cfiCond138) CFA_SP SP+-2
          CFI (cfiCond138) CFA_XSP16 add(XSP16, 33)
          CFI Block cfiPicker139 Using cfiCommon1
          CFI (cfiPicker139) NoFunction
          CFI (cfiPicker139) Picker
        MOV       DPTR,#touchLinkInitiator_TaskID
        MOVX      A,@DPTR
        MOV       R1,A
        LCALL     `??osal_stop_timerEx::?relay`; Banked call to: osal_stop_timerEx
        RET
          CFI EndBlock cfiCond134
          CFI EndBlock cfiCond135
          CFI EndBlock cfiCond136
          CFI EndBlock cfiCond137
          CFI EndBlock cfiCond138
          CFI EndBlock cfiPicker139
// 1387 
// 1388 /*********************************************************************
// 1389  * @fn      initiatorDeviceInfoReqCB
// 1390  *
// 1391  * @brief   This callback is called to process a Device Information
// 1392  *          Request command.
// 1393  *
// 1394  * @param   srcAddr - sender's address
// 1395  * @param   pReq - parsed command
// 1396  * @param   seqNum - command sequence number
// 1397  *
// 1398  * @return  ZStatus_t
// 1399  */

        RSEG BANKED_CODE:HUGECODE:NOROOT(0)
// 1400 static ZStatus_t initiatorDeviceInfoReqCB( afAddrType_t *srcAddr, bdbTLDeviceInfoReq_t *pReq, uint8 seqNum )
initiatorDeviceInfoReqCB:
          CFI Block cfiBlock140 Using cfiCommon0
          CFI Function initiatorDeviceInfoReqCB
        CODE
// 1401 {
        FUNCALL initiatorDeviceInfoReqCB, touchLink_IsValidTransID
        LOCFRAME ISTACK, 0, STACK
        LOCFRAME PSTACK, 0, STACK
        LOCFRAME XSTACK, 11, STACK
        LOCFRAME IOVERLAY, 0, STATIC
        LOCFRAME DOVERLAY, 0, STATIC
        ARGFRAME ISTACK, 0, STACK
        ARGFRAME PSTACK, 0, STACK
        ARGFRAME XSTACK, 11, STACK
        ARGFRAME IOVERLAY, 0, STATIC
        ARGFRAME DOVERLAY, 0, STATIC
        FUNCALL initiatorDeviceInfoReqCB, touchLink_SendDeviceInfoRsp
        LOCFRAME ISTACK, 0, STACK
        LOCFRAME PSTACK, 0, STACK
        LOCFRAME XSTACK, 15, STACK
        LOCFRAME IOVERLAY, 0, STATIC
        LOCFRAME DOVERLAY, 0, STATIC
        ARGFRAME ISTACK, 0, STACK
        ARGFRAME PSTACK, 0, STACK
        ARGFRAME XSTACK, 15, STACK
        ARGFRAME IOVERLAY, 0, STATIC
        ARGFRAME DOVERLAY, 0, STATIC
        REQUIRE ?V0
        REQUIRE ?V1
        REQUIRE ?V2
        MOV       A,#-0xb
        LCALL     ?BANKED_ENTER_XDATA
          CFI DPH0 load(1, XDATA, add(CFA_XSP16, literal(-1)))
          CFI DPL0 load(1, XDATA, add(CFA_XSP16, literal(-2)))
          CFI ?BRET_EXT load(1, XDATA, add(CFA_XSP16, literal(-3)))
          CFI ?RET_HIGH load(1, XDATA, add(CFA_XSP16, literal(-4)))
          CFI ?RET_LOW load(1, XDATA, add(CFA_XSP16, literal(-5)))
          CFI R7 load(1, XDATA, add(CFA_XSP16, literal(-6)))
          CFI V2 load(1, XDATA, add(CFA_XSP16, literal(-7)))
          CFI V1 load(1, XDATA, add(CFA_XSP16, literal(-8)))
          CFI V0 load(1, XDATA, add(CFA_XSP16, literal(-9)))
          CFI VB load(1, XDATA, add(CFA_XSP16, literal(-10)))
          CFI R6 load(1, XDATA, add(CFA_XSP16, literal(-11)))
          CFI CFA_SP SP+0
          CFI CFA_XSP16 add(XSP16, 11)
        ; Saved register size: 11
        ; Auto size: 0
        MOV       A,R2
        MOV       R6,A
        MOV       A,R3
        MOV       R7,A
        MOV       ?V0,R4
        MOV       ?V1,R5
        MOV       ?V2,R1
// 1402   if ( touchLink_IsValidTransID( pReq->transID ) == FALSE )
        ; Setup parameters for call to function touchLink_IsValidTransID
        MOV       DPL,R4
        MOV       DPH,R5
        LCALL     ?XLOAD_R2345
        LCALL     ?Subroutine34 & 0xFFFF
??CrossCallReturnLabel_37:
        JNZ       ??initiatorDeviceInfoReqCB_0
// 1403   {
// 1404     return ( ZFailure );
        MOV       R1,#0x1
        SJMP      ??initiatorDeviceInfoReqCB_1
// 1405   }
// 1406   return ( touchLink_SendDeviceInfoRsp( TOUCHLINK_INTERNAL_ENDPOINT, srcAddr,
// 1407                                   pReq->startIndex, pReq->transID, seqNum ) );
??initiatorDeviceInfoReqCB_0:
        ; Setup parameters for call to function touchLink_SendDeviceInfoRsp
        MOV       DPL,?V0
        MOV       DPH,?V1
        LCALL     ?PUSH_XSTACK8_X_FOUR
          CFI CFA_XSP16 add(XSP16, 15)
        MOV       R5,?V2
        MOV       DPL,?V0
        MOV       DPH,?V1
        INC       DPTR
        INC       DPTR
        INC       DPTR
        INC       DPTR
        MOVX      A,@DPTR
        MOV       R4,A
        MOV       A,R6
        MOV       R2,A
        MOV       A,R7
        MOV       R3,A
        MOV       R1,#0xd
        LCALL     `??touchLink_SendDeviceInfoRsp::?relay`; Banked call to: touchLink_SendDeviceInfoRsp
        MOV       A,#0x4
        LCALL     ?DEALLOC_XSTACK8
          CFI CFA_XSP16 add(XSP16, 11)
??initiatorDeviceInfoReqCB_1:
          CFI EndBlock cfiBlock140
        REQUIRE ?Subroutine4
        ; // Fall through to label ?Subroutine4
// 1408 }

        RSEG BANKED_CODE:HUGECODE:NOROOT(0)
?Subroutine4:
          CFI Block cfiBlock141 Using cfiCommon0
          CFI NoFunction
          CFI CFA_SP SP+0
          CFI CFA_XSP16 add(XSP16, 11)
          CFI VB load(1, XDATA, add(CFA_XSP16, literal(-10)))
          CFI DPL0 load(1, XDATA, add(CFA_XSP16, literal(-2)))
          CFI DPH0 load(1, XDATA, add(CFA_XSP16, literal(-1)))
          CFI R6 load(1, XDATA, add(CFA_XSP16, literal(-11)))
          CFI R7 load(1, XDATA, add(CFA_XSP16, literal(-6)))
          CFI V0 load(1, XDATA, add(CFA_XSP16, literal(-9)))
          CFI V1 load(1, XDATA, add(CFA_XSP16, literal(-8)))
          CFI V2 load(1, XDATA, add(CFA_XSP16, literal(-7)))
          CFI ?BRET_EXT load(1, XDATA, add(CFA_XSP16, literal(-3)))
          CFI ?RET_HIGH load(1, XDATA, add(CFA_XSP16, literal(-4)))
          CFI ?RET_LOW load(1, XDATA, add(CFA_XSP16, literal(-5)))
        MOV       R7,#0x3
        LJMP      ?BANKED_LEAVE_XDATA
          CFI EndBlock cfiBlock141
// 1409 
// 1410 /*********************************************************************
// 1411  * @fn      initiatorIdentifyReqCB
// 1412  *
// 1413  * @brief   This callback is called to process an Identify Request command.
// 1414  *
// 1415  * @param   srcAddr - sender's address
// 1416  * @param   pReq - parsed command
// 1417  *
// 1418  * @return  ZStatus_t
// 1419  */

        RSEG BANKED_CODE:HUGECODE:NOROOT(0)
// 1420 static ZStatus_t initiatorIdentifyReqCB( afAddrType_t *srcAddr, bdbTLIdentifyReq_t *pReq )
initiatorIdentifyReqCB:
          CFI Block cfiBlock142 Using cfiCommon0
          CFI Function initiatorIdentifyReqCB
        CODE
// 1421 {
        FUNCALL initiatorIdentifyReqCB, touchLink_IsValidTransID
        LOCFRAME ISTACK, 0, STACK
        LOCFRAME PSTACK, 0, STACK
        LOCFRAME XSTACK, 10, STACK
        LOCFRAME IOVERLAY, 0, STATIC
        LOCFRAME DOVERLAY, 0, STATIC
        ARGFRAME ISTACK, 0, STACK
        ARGFRAME PSTACK, 0, STACK
        ARGFRAME XSTACK, 10, STACK
        ARGFRAME IOVERLAY, 0, STATIC
        ARGFRAME DOVERLAY, 0, STATIC
        FUNCALL initiatorIdentifyReqCB, bdb_setEpDescListToActiveEndpoint
        LOCFRAME ISTACK, 0, STACK
        LOCFRAME PSTACK, 0, STACK
        LOCFRAME XSTACK, 10, STACK
        LOCFRAME IOVERLAY, 0, STATIC
        LOCFRAME DOVERLAY, 0, STATIC
        ARGFRAME ISTACK, 0, STACK
        ARGFRAME PSTACK, 0, STACK
        ARGFRAME XSTACK, 10, STACK
        ARGFRAME IOVERLAY, 0, STATIC
        ARGFRAME DOVERLAY, 0, STATIC
        FUNCALL initiatorIdentifyReqCB, bdb_ZclIdentifyCmdInd
        LOCFRAME ISTACK, 0, STACK
        LOCFRAME PSTACK, 0, STACK
        LOCFRAME XSTACK, 10, STACK
        LOCFRAME IOVERLAY, 0, STATIC
        LOCFRAME DOVERLAY, 0, STATIC
        ARGFRAME ISTACK, 0, STACK
        ARGFRAME PSTACK, 0, STACK
        ARGFRAME XSTACK, 10, STACK
        ARGFRAME IOVERLAY, 0, STATIC
        ARGFRAME DOVERLAY, 0, STATIC
        REQUIRE ?V0
        REQUIRE ?V1
        MOV       A,#-0xa
        LCALL     ?BANKED_ENTER_XDATA
          CFI DPH0 load(1, XDATA, add(CFA_XSP16, literal(-1)))
          CFI DPL0 load(1, XDATA, add(CFA_XSP16, literal(-2)))
          CFI ?BRET_EXT load(1, XDATA, add(CFA_XSP16, literal(-3)))
          CFI ?RET_HIGH load(1, XDATA, add(CFA_XSP16, literal(-4)))
          CFI ?RET_LOW load(1, XDATA, add(CFA_XSP16, literal(-5)))
          CFI R7 load(1, XDATA, add(CFA_XSP16, literal(-6)))
          CFI V1 load(1, XDATA, add(CFA_XSP16, literal(-7)))
          CFI V0 load(1, XDATA, add(CFA_XSP16, literal(-8)))
          CFI VB load(1, XDATA, add(CFA_XSP16, literal(-9)))
          CFI R6 load(1, XDATA, add(CFA_XSP16, literal(-10)))
          CFI CFA_SP SP+0
          CFI CFA_XSP16 add(XSP16, 10)
        ; Saved register size: 10
        ; Auto size: 0
        MOV       A,R4
        MOV       R6,A
        MOV       A,R5
        MOV       R7,A
// 1422   if ( touchLink_IsValidTransID( pReq->transID ) == FALSE )
        ; Setup parameters for call to function touchLink_IsValidTransID
        MOV       DPL,R4
        MOV       DPH,A
        LCALL     ?XLOAD_R2345
        LCALL     ?Subroutine34 & 0xFFFF
??CrossCallReturnLabel_38:
        JNZ       ??initiatorIdentifyReqCB_0
// 1423   {
// 1424     return ( ZFailure );
        MOV       R1,#0x1
        SJMP      ??initiatorIdentifyReqCB_1
// 1425   }
// 1426 
// 1427   uint16 identifyTime;
// 1428   endPointDesc_t * bdb_CurrEpDescriptor;
// 1429   
// 1430   // Values of the Identify Duration field:
// 1431   // - Exit identify mode: 0x0000
// 1432   // - Length of time to remain in identify mode: 0x0001-0xfffe
// 1433   // - Remain in identify mode for a default time known by the receiver: 0xffff
// 1434   if ( pReq->IdDuration == 0xffff )
??initiatorIdentifyReqCB_0:
        MOV       DPL,R6
        MOV       DPH,R7
        INC       DPTR
        INC       DPTR
        INC       DPTR
        INC       DPTR
        LCALL     ??Subroutine63_0 & 0xFFFF
??CrossCallReturnLabel_144:
        MOV       A,#-0x1
        XRL       A,R0
        JNZ       ??initiatorIdentifyReqCB_2
        MOV       A,#-0x1
        XRL       A,R1
??initiatorIdentifyReqCB_2:
        JNZ       ??initiatorIdentifyReqCB_3
// 1435   {
// 1436     identifyTime = TOUCHLINK_DEFAULT_IDENTIFY_TIME;
        MOV       R6,#0x3
        MOV       R7,#0x0
        SJMP      ??initiatorIdentifyReqCB_4
// 1437   }
// 1438   else
// 1439   {
// 1440     identifyTime = pReq->IdDuration;
??initiatorIdentifyReqCB_3:
        MOV       A,R0
        MOV       R6,A
        MOV       A,R1
        MOV       R7,A
// 1441   }
// 1442 
// 1443   bdb_CurrEpDescriptor = bdb_setEpDescListToActiveEndpoint( );
??initiatorIdentifyReqCB_4:
        ; Setup parameters for call to function bdb_setEpDescListToActiveEndpoint
        LCALL     `??bdb_setEpDescListToActiveEndpoint::?relay`; Banked call to: bdb_setEpDescListToActiveEndpoint
        MOV       DPL,R2
        MOV       DPH,R3
// 1444   
// 1445   bdb_ZclIdentifyCmdInd( identifyTime, bdb_CurrEpDescriptor->endPoint );
        ; Setup parameters for call to function bdb_ZclIdentifyCmdInd
        MOVX      A,@DPTR
        MOV       R1,A
        MOV       A,R6
        MOV       R2,A
        MOV       A,R7
        MOV       R3,A
        LCALL     `??bdb_ZclIdentifyCmdInd::?relay`; Banked call to: bdb_ZclIdentifyCmdInd
// 1446 
// 1447   return ( ZSuccess );
        MOV       R1,#0x0
??initiatorIdentifyReqCB_1:
          CFI EndBlock cfiBlock142
        REQUIRE ?Subroutine5
        ; // Fall through to label ?Subroutine5
// 1448 }

        RSEG BANKED_CODE:HUGECODE:NOROOT(0)
?Subroutine5:
          CFI Block cfiBlock143 Using cfiCommon0
          CFI NoFunction
          CFI CFA_SP SP+0
          CFI CFA_XSP16 add(XSP16, 10)
          CFI VB load(1, XDATA, add(CFA_XSP16, literal(-9)))
          CFI DPL0 load(1, XDATA, add(CFA_XSP16, literal(-2)))
          CFI DPH0 load(1, XDATA, add(CFA_XSP16, literal(-1)))
          CFI R6 load(1, XDATA, add(CFA_XSP16, literal(-10)))
          CFI R7 load(1, XDATA, add(CFA_XSP16, literal(-6)))
          CFI V0 load(1, XDATA, add(CFA_XSP16, literal(-8)))
          CFI V1 load(1, XDATA, add(CFA_XSP16, literal(-7)))
          CFI ?BRET_EXT load(1, XDATA, add(CFA_XSP16, literal(-3)))
          CFI ?RET_HIGH load(1, XDATA, add(CFA_XSP16, literal(-4)))
          CFI ?RET_LOW load(1, XDATA, add(CFA_XSP16, literal(-5)))
        MOV       R7,#0x2
        LJMP      ?BANKED_LEAVE_XDATA
          CFI EndBlock cfiBlock143
// 1449 
// 1450 /*********************************************************************
// 1451  * @fn      initiatorNwkJoinReqCB
// 1452  *
// 1453  * @brief   This callback is called to process Network Join
// 1454  *          Request and Network Join End Device Request commands.
// 1455  *
// 1456  * @param   srcAddr - sender's address
// 1457  * @param   pReq - parsed command
// 1458  * @param   seqNum - command sequence number
// 1459  *
// 1460  * @return  ZStatus_t
// 1461  */

        RSEG BANKED_CODE:HUGECODE:NOROOT(0)
// 1462 static ZStatus_t initiatorNwkJoinReqCB( afAddrType_t *srcAddr, bdbTLNwkJoinReq_t *pReq, uint8 seqNum )
initiatorNwkJoinReqCB:
          CFI Block cfiBlock144 Using cfiCommon0
          CFI Function initiatorNwkJoinReqCB
        CODE
// 1463 {
        FUNCALL initiatorNwkJoinReqCB, touchLink_IsValidTransID
        LOCFRAME ISTACK, 0, STACK
        LOCFRAME PSTACK, 0, STACK
        LOCFRAME XSTACK, 33, STACK
        LOCFRAME IOVERLAY, 0, STATIC
        LOCFRAME DOVERLAY, 0, STATIC
        ARGFRAME ISTACK, 0, STACK
        ARGFRAME PSTACK, 0, STACK
        ARGFRAME XSTACK, 33, STACK
        ARGFRAME IOVERLAY, 0, STATIC
        ARGFRAME DOVERLAY, 0, STATIC
        FUNCALL initiatorNwkJoinReqCB, nwk_ExtPANIDValid
        LOCFRAME ISTACK, 0, STACK
        LOCFRAME PSTACK, 0, STACK
        LOCFRAME XSTACK, 33, STACK
        LOCFRAME IOVERLAY, 0, STATIC
        LOCFRAME DOVERLAY, 0, STATIC
        ARGFRAME ISTACK, 0, STACK
        ARGFRAME PSTACK, 0, STACK
        ARGFRAME XSTACK, 33, STACK
        ARGFRAME IOVERLAY, 0, STATIC
        ARGFRAME DOVERLAY, 0, STATIC
        FUNCALL initiatorNwkJoinReqCB, osal_start_timerEx
        LOCFRAME ISTACK, 0, STACK
        LOCFRAME PSTACK, 0, STACK
        LOCFRAME XSTACK, 37, STACK
        LOCFRAME IOVERLAY, 0, STATIC
        LOCFRAME DOVERLAY, 0, STATIC
        ARGFRAME ISTACK, 0, STACK
        ARGFRAME PSTACK, 0, STACK
        ARGFRAME XSTACK, 37, STACK
        ARGFRAME IOVERLAY, 0, STATIC
        ARGFRAME DOVERLAY, 0, STATIC
        FUNCALL initiatorNwkJoinReqCB, osal_stop_timerEx
        LOCFRAME ISTACK, 0, STACK
        LOCFRAME PSTACK, 0, STACK
        LOCFRAME XSTACK, 33, STACK
        LOCFRAME IOVERLAY, 0, STATIC
        LOCFRAME DOVERLAY, 0, STATIC
        ARGFRAME ISTACK, 0, STACK
        ARGFRAME PSTACK, 0, STACK
        ARGFRAME XSTACK, 33, STACK
        ARGFRAME IOVERLAY, 0, STATIC
        ARGFRAME DOVERLAY, 0, STATIC
        FUNCALL initiatorNwkJoinReqCB, osal_stop_timerEx
        LOCFRAME ISTACK, 0, STACK
        LOCFRAME PSTACK, 0, STACK
        LOCFRAME XSTACK, 33, STACK
        LOCFRAME IOVERLAY, 0, STATIC
        LOCFRAME DOVERLAY, 0, STATIC
        ARGFRAME ISTACK, 0, STACK
        ARGFRAME PSTACK, 0, STACK
        ARGFRAME XSTACK, 33, STACK
        ARGFRAME IOVERLAY, 0, STATIC
        ARGFRAME DOVERLAY, 0, STATIC
        FUNCALL initiatorNwkJoinReqCB, bdb_setNodeIsOnANetwork
        LOCFRAME ISTACK, 0, STACK
        LOCFRAME PSTACK, 0, STACK
        LOCFRAME XSTACK, 33, STACK
        LOCFRAME IOVERLAY, 0, STATIC
        LOCFRAME DOVERLAY, 0, STATIC
        ARGFRAME ISTACK, 0, STACK
        ARGFRAME PSTACK, 0, STACK
        ARGFRAME XSTACK, 33, STACK
        ARGFRAME IOVERLAY, 0, STATIC
        ARGFRAME DOVERLAY, 0, STATIC
        FUNCALL initiatorNwkJoinReqCB, touchLink_DecryptNwkKey
        LOCFRAME ISTACK, 0, STACK
        LOCFRAME PSTACK, 0, STACK
        LOCFRAME XSTACK, 41, STACK
        LOCFRAME IOVERLAY, 0, STATIC
        LOCFRAME DOVERLAY, 0, STATIC
        ARGFRAME ISTACK, 0, STACK
        ARGFRAME PSTACK, 0, STACK
        ARGFRAME XSTACK, 41, STACK
        ARGFRAME IOVERLAY, 0, STATIC
        ARGFRAME DOVERLAY, 0, STATIC
        FUNCALL initiatorNwkJoinReqCB, ZDSecMgrUpdateTCAddress
        LOCFRAME ISTACK, 0, STACK
        LOCFRAME PSTACK, 0, STACK
        LOCFRAME XSTACK, 33, STACK
        LOCFRAME IOVERLAY, 0, STATIC
        LOCFRAME DOVERLAY, 0, STATIC
        ARGFRAME ISTACK, 0, STACK
        ARGFRAME PSTACK, 0, STACK
        ARGFRAME XSTACK, 33, STACK
        ARGFRAME IOVERLAY, 0, STATIC
        ARGFRAME DOVERLAY, 0, STATIC
        FUNCALL initiatorNwkJoinReqCB, NLME_InitNV
        LOCFRAME ISTACK, 0, STACK
        LOCFRAME PSTACK, 0, STACK
        LOCFRAME XSTACK, 33, STACK
        LOCFRAME IOVERLAY, 0, STATIC
        LOCFRAME DOVERLAY, 0, STATIC
        ARGFRAME ISTACK, 0, STACK
        ARGFRAME PSTACK, 0, STACK
        ARGFRAME XSTACK, 33, STACK
        ARGFRAME IOVERLAY, 0, STATIC
        ARGFRAME DOVERLAY, 0, STATIC
        FUNCALL initiatorNwkJoinReqCB, touchLink_SetNIB
        LOCFRAME ISTACK, 0, STACK
        LOCFRAME PSTACK, 0, STACK
        LOCFRAME XSTACK, 37, STACK
        LOCFRAME IOVERLAY, 0, STATIC
        LOCFRAME DOVERLAY, 0, STATIC
        ARGFRAME ISTACK, 0, STACK
        ARGFRAME PSTACK, 0, STACK
        ARGFRAME XSTACK, 37, STACK
        ARGFRAME IOVERLAY, 0, STATIC
        ARGFRAME DOVERLAY, 0, STATIC
        FUNCALL initiatorNwkJoinReqCB, touchLink_SetChannel
        LOCFRAME ISTACK, 0, STACK
        LOCFRAME PSTACK, 0, STACK
        LOCFRAME XSTACK, 33, STACK
        LOCFRAME IOVERLAY, 0, STATIC
        LOCFRAME DOVERLAY, 0, STATIC
        ARGFRAME ISTACK, 0, STACK
        ARGFRAME PSTACK, 0, STACK
        ARGFRAME XSTACK, 33, STACK
        ARGFRAME IOVERLAY, 0, STATIC
        ARGFRAME DOVERLAY, 0, STATIC
        FUNCALL initiatorNwkJoinReqCB, touchLink_SetMacNwkParams
        LOCFRAME ISTACK, 0, STACK
        LOCFRAME PSTACK, 0, STACK
        LOCFRAME XSTACK, 33, STACK
        LOCFRAME IOVERLAY, 0, STATIC
        LOCFRAME DOVERLAY, 0, STATIC
        ARGFRAME ISTACK, 0, STACK
        ARGFRAME PSTACK, 0, STACK
        ARGFRAME XSTACK, 33, STACK
        ARGFRAME IOVERLAY, 0, STATIC
        ARGFRAME DOVERLAY, 0, STATIC
        FUNCALL initiatorNwkJoinReqCB, bdbTL_Send_NwkJoinRsp
        LOCFRAME ISTACK, 0, STACK
        LOCFRAME PSTACK, 0, STACK
        LOCFRAME XSTACK, 35, STACK
        LOCFRAME IOVERLAY, 0, STATIC
        LOCFRAME DOVERLAY, 0, STATIC
        ARGFRAME ISTACK, 0, STACK
        ARGFRAME PSTACK, 0, STACK
        ARGFRAME XSTACK, 35, STACK
        ARGFRAME IOVERLAY, 0, STATIC
        ARGFRAME DOVERLAY, 0, STATIC
        REQUIRE ?V0
        REQUIRE ?V1
        REQUIRE ?V2
        REQUIRE ?V3
        REQUIRE ?V4
        REQUIRE ?V5
        REQUIRE ?V6
        REQUIRE ?V7
        MOV       A,#-0x10
        LCALL     ?BANKED_ENTER_XDATA
          CFI DPH0 load(1, XDATA, add(CFA_XSP16, literal(-1)))
          CFI DPL0 load(1, XDATA, add(CFA_XSP16, literal(-2)))
          CFI ?BRET_EXT load(1, XDATA, add(CFA_XSP16, literal(-3)))
          CFI ?RET_HIGH load(1, XDATA, add(CFA_XSP16, literal(-4)))
          CFI ?RET_LOW load(1, XDATA, add(CFA_XSP16, literal(-5)))
          CFI R7 load(1, XDATA, add(CFA_XSP16, literal(-6)))
          CFI V7 load(1, XDATA, add(CFA_XSP16, literal(-7)))
          CFI V6 load(1, XDATA, add(CFA_XSP16, literal(-8)))
          CFI V5 load(1, XDATA, add(CFA_XSP16, literal(-9)))
          CFI V4 load(1, XDATA, add(CFA_XSP16, literal(-10)))
          CFI V3 load(1, XDATA, add(CFA_XSP16, literal(-11)))
          CFI V2 load(1, XDATA, add(CFA_XSP16, literal(-12)))
          CFI V1 load(1, XDATA, add(CFA_XSP16, literal(-13)))
          CFI V0 load(1, XDATA, add(CFA_XSP16, literal(-14)))
          CFI VB load(1, XDATA, add(CFA_XSP16, literal(-15)))
          CFI R6 load(1, XDATA, add(CFA_XSP16, literal(-16)))
          CFI CFA_SP SP+0
          CFI CFA_XSP16 add(XSP16, 16)
        ; Saved register size: 16
        ; Auto size: 17
        MOV       A,#-0x11
        LCALL     ?ALLOC_XSTACK8
          CFI CFA_XSP16 add(XSP16, 33)
        MOV       ?V2,R2
        MOV       ?V3,R3
        MOV       A,R4
        MOV       R6,A
        MOV       A,R5
        MOV       R7,A
        MOV       ?V0,R1
// 1464   bdbTLNwkJoinRsp_t rsp;
// 1465   afAddrType_t dstAddr;
// 1466   nwk_states_t nwkState;
// 1467 
// 1468   if ( touchLink_IsValidTransID( pReq->transID ) == FALSE )
        ; Setup parameters for call to function touchLink_IsValidTransID
        MOV       DPL,R4
        MOV       DPH,A
        LCALL     ?XLOAD_R2345
        LCALL     ?Subroutine34 & 0xFFFF
??CrossCallReturnLabel_39:
        JNZ       ??initiatorNwkJoinReqCB_0
// 1469   {
// 1470     return ( ZFailure );
        MOV       R1,#0x1
        LJMP      ??initiatorNwkJoinReqCB_1 & 0xFFFF
// 1471   }
// 1472 
// 1473   rsp.transID = pReq->transID;
??initiatorNwkJoinReqCB_0:
        MOV       DPL,R6
        MOV       DPH,R7
        LCALL     ?XLOAD_R0123
        MOV       DPL,?XSP + 0
        MOV       DPH,?XSP + 1
        LCALL     ?XSTORE_R0123
// 1474 
// 1475   if ( nwk_ExtPANIDValid( pReq->nwkParams.extendedPANID ) )
        MOV       A,R6
        ADD       A,#0x4
        MOV       ?V4,A
        CLR       A
        ADDC      A,R7
        MOV       ?V5,A
        ; Setup parameters for call to function nwk_ExtPANIDValid
        MOV       R2,?V4
        MOV       R3,A
        LCALL     `??nwk_ExtPANIDValid::?relay`; Banked call to: nwk_ExtPANIDValid
        MOV       A,R1
        JNZ       $+5
        LJMP      ??initiatorNwkJoinReqCB_2 & 0xFFFF
// 1476     //NOTE: additional nwk params verification may be added here, e.g. ranges.
// 1477   {
// 1478 #if ( ZSTACK_ROUTER_BUILD )
// 1479     nwkState = NWK_ROUTER;
// 1480 #else
// 1481     // Save the request for later
// 1482     joinReq = *pReq;
// 1483     nwkState = NWK_ENDDEVICE;
// 1484 #endif
// 1485 
// 1486     // Notify our task to join the new network
// 1487     osal_start_timerEx( touchLinkInitiator_TaskID, TOUCHLINK_NWK_JOIN_IND_EVT, BDBCTL_MIN_STARTUP_DELAY_TIME );
        ; Setup parameters for call to function osal_start_timerEx
        MOV       DPTR,#__Constant_7d0
        LCALL     ?PUSH_XSTACK8_X_FOUR
          CFI CFA_XSP16 add(XSP16, 37)
        MOV       R2,#0x2
        LCALL     ??Subroutine58_0 & 0xFFFF
??CrossCallReturnLabel_116:
        LCALL     ?DEALLOC_XSTACK8
          CFI CFA_XSP16 add(XSP16, 33)
// 1488 
// 1489     osal_stop_timerEx( touchLinkInitiator_TaskID, TOUCHLINK_DISABLE_RX_EVT );
        ; Setup parameters for call to function osal_stop_timerEx
        MOV       R2,#0x0
        MOV       R3,#0x2
        LCALL     ??Subroutine56_0 & 0xFFFF
// 1490     osal_stop_timerEx( touchLinkInitiator_TaskID, TOUCHLINK_CFG_TARGET_EVT );
??CrossCallReturnLabel_110:
        ; Setup parameters for call to function osal_stop_timerEx
        LCALL     ?Subroutine18 & 0xFFFF
// 1491 
// 1492     rsp.status = TOUCHLINK_NETWORK_JOIN_RSP_STATUS_SUCCESS;
??CrossCallReturnLabel_108:
        MOV       A,#0x4
        LCALL     ?XSTACK_DISP0_8
        CLR       A
        MOVX      @DPTR,A
// 1493     
// 1494     bdb_setNodeIsOnANetwork(TRUE);
        ; Setup parameters for call to function bdb_setNodeIsOnANetwork
        MOV       R1,#0x1
        LCALL     `??bdb_setNodeIsOnANetwork::?relay`; Banked call to: bdb_setNodeIsOnANetwork
// 1495     
// 1496     // Apply the received network key
// 1497     touchLink_DecryptNwkKey( pReq->nwkParams.nwkKey, pReq->nwkParams.keyIndex, pReq->transID, touchLinkResponseID );
        ; Setup parameters for call to function touchLink_DecryptNwkKey
        MOV       DPTR,#touchLinkResponseID
        LCALL     ?PUSH_XSTACK8_X_FOUR
          CFI CFA_XSP16 add(XSP16, 37)
        MOV       DPL,R6
        MOV       DPH,R7
        LCALL     ?PUSH_XSTACK8_X_FOUR
          CFI CFA_XSP16 add(XSP16, 41)
        MOV       A,R6
        ADD       A,#0xc
        LCALL     ?Subroutine37 & 0xFFFF
??CrossCallReturnLabel_51:
        MOV       R1,A
        MOV       A,R6
        ADD       A,#0xd
        MOV       R2,A
        CLR       A
        ADDC      A,R7
        MOV       R3,A
        LCALL     `??touchLink_DecryptNwkKey::?relay`; Banked call to: touchLink_DecryptNwkKey
        MOV       A,#0x8
        LCALL     ?DEALLOC_XSTACK8
          CFI CFA_XSP16 add(XSP16, 33)
// 1498 
// 1499     // This is not a usual Trust Center protected network
// 1500     ZDSecMgrUpdateTCAddress( NULL );
        ; Setup parameters for call to function ZDSecMgrUpdateTCAddress
        MOV       R2,#0x0
        MOV       R3,#0x0
        LCALL     `??ZDSecMgrUpdateTCAddress::?relay`; Banked call to: ZDSecMgrUpdateTCAddress
// 1501     
// 1502     // Configure MAC with our network parameters
// 1503     NLME_InitNV();
        ; Setup parameters for call to function NLME_InitNV
        LCALL     `??NLME_InitNV::?relay`; Banked call to: NLME_InitNV
// 1504     touchLink_SetNIB( nwkState, pReq->nwkParams.nwkAddr, pReq->nwkParams.extendedPANID,
// 1505                  _NIB.nwkLogicalChannel, pReq->nwkParams.panId, pReq->nwkParams.panId );
        MOV       A,R6
        ADD       A,#0x1e
        LCALL     ?Subroutine37 & 0xFFFF
??CrossCallReturnLabel_52:
        MOV       ?V6,A
        INC       DPTR
        MOVX      A,@DPTR
        MOV       ?V7,A
        ; Setup parameters for call to function touchLink_SetNIB
        MOV       A,?V6
        MOV       ?V1,A
        MOV       R0,#?V1
        LCALL     ?PUSH_XSTACK_I_ONE
          CFI CFA_XSP16 add(XSP16, 34)
        MOV       R0,#?V6
        LCALL     ?PUSH_XSTACK_I_TWO
          CFI CFA_XSP16 add(XSP16, 36)
        MOV       DPTR,#_NIB + 22
        MOVX      A,@DPTR
        MOV       ?V1,A
        MOV       R0,#?V1
        LCALL     ?PUSH_XSTACK_I_ONE
          CFI CFA_XSP16 add(XSP16, 37)
        MOV       R4,?V4
        MOV       R5,?V5
        MOV       A,R6
        ADD       A,#0x20
        MOV       DPL,A
        CLR       A
        ADDC      A,R7
        MOV       DPH,A
        LCALL     ?Subroutine19 & 0xFFFF
??CrossCallReturnLabel_12:
        LCALL     ?DEALLOC_XSTACK8
          CFI CFA_XSP16 add(XSP16, 33)
// 1506     
// 1507     touchLink_SetChannel( _NIB.nwkLogicalChannel );
        ; Setup parameters for call to function touchLink_SetChannel
        MOV       DPTR,#_NIB + 22
        LCALL     ??Subroutine70_0 & 0xFFFF
// 1508     touchLink_SetMacNwkParams( _NIB.nwkDevAddress, _NIB.nwkPanId, _NIB.nwkLogicalChannel );
??CrossCallReturnLabel_183:
        ; Setup parameters for call to function touchLink_SetMacNwkParams
        LCALL     ?Subroutine9 & 0xFFFF
// 1509   }
??CrossCallReturnLabel_1:
        SJMP      ??initiatorNwkJoinReqCB_3
// 1510   else
// 1511   {
// 1512     rsp.status = TOUCHLINK_NETWORK_JOIN_RSP_STATUS_FAILURE;
??initiatorNwkJoinReqCB_2:
        MOV       A,#0x4
        LCALL     ?XSTACK_DISP0_8
        MOV       A,#0x1
        MOVX      @DPTR,A
// 1513   }
// 1514 
// 1515   dstAddr = *srcAddr;
??initiatorNwkJoinReqCB_3:
        MOV       DPL,?V2
        MOV       DPH,?V3
        MOV       A,#0x5
        LCALL     ?XSTACK_DISP102_8
        MOV       A,#0xc
        LCALL     ?MOVE_LONG8_XDATA_XDATA
// 1516   dstAddr.panId = 0xFFFF;
        MOV       A,#0xf
        LCALL     ?XSTACK_DISP0_8
        MOV       A,#-0x1
        MOVX      @DPTR,A
        INC       DPTR
        MOVX      @DPTR,A
// 1517 
// 1518   // Send a response back
// 1519 #if ( ZSTACK_ROUTER_BUILD )
// 1520   bdbTL_Send_NwkJoinRtrRsp( TOUCHLINK_INTERNAL_ENDPOINT, &dstAddr, &rsp, seqNum );
        ; Setup parameters for call to function bdbTL_Send_NwkJoinRsp
        MOV       A,?V0
        MOV       ?V1,A
        MOV       R0,#?V1
        LCALL     ?PUSH_XSTACK_I_ONE
          CFI CFA_XSP16 add(XSP16, 34)
        MOV       ?V1,#0x13
        MOV       R0,#?V1
        LCALL     ?PUSH_XSTACK_I_ONE
          CFI CFA_XSP16 add(XSP16, 35)
        MOV       A,#0x2
        LCALL     ?XSTACK_DISP102_8
        MOV       A,#0x7
        LCALL     ?XSTACK_DISP101_8
        MOV       R1,#0xd
        LCALL     `??bdbTL_Send_NwkJoinRsp::?relay`; Banked call to: bdbTL_Send_NwkJoinRsp
        MOV       A,#0x2
        LCALL     ?DEALLOC_XSTACK8
          CFI CFA_XSP16 add(XSP16, 33)
// 1521 #else
// 1522   bdbTL_Send_NwkJoinEDRsp( TOUCHLINK_INTERNAL_ENDPOINT, &dstAddr, &rsp, seqNum );
// 1523 #endif
// 1524 
// 1525   return ( ZSuccess );
        MOV       R1,#0x0
??initiatorNwkJoinReqCB_1:
        MOV       A,#0x11
          CFI EndBlock cfiBlock144
        REQUIRE ?Subroutine1
        ; // Fall through to label ?Subroutine1
// 1526 }

        RSEG BANKED_CODE:HUGECODE:NOROOT(0)
?Subroutine1:
          CFI Block cfiBlock145 Using cfiCommon0
          CFI NoFunction
          CFI CFA_SP SP+0
          CFI CFA_XSP16 add(XSP16, 17)
          CFI VB load(1, XDATA, add(CFA_XSP16, literal(-15)))
          CFI DPL0 load(1, XDATA, add(CFA_XSP16, literal(-2)))
          CFI DPH0 load(1, XDATA, add(CFA_XSP16, literal(-1)))
          CFI R6 load(1, XDATA, add(CFA_XSP16, literal(-16)))
          CFI R7 load(1, XDATA, add(CFA_XSP16, literal(-6)))
          CFI V0 load(1, XDATA, add(CFA_XSP16, literal(-14)))
          CFI V1 load(1, XDATA, add(CFA_XSP16, literal(-13)))
          CFI V2 load(1, XDATA, add(CFA_XSP16, literal(-12)))
          CFI V3 load(1, XDATA, add(CFA_XSP16, literal(-11)))
          CFI V4 load(1, XDATA, add(CFA_XSP16, literal(-10)))
          CFI V5 load(1, XDATA, add(CFA_XSP16, literal(-9)))
          CFI V6 load(1, XDATA, add(CFA_XSP16, literal(-8)))
          CFI V7 load(1, XDATA, add(CFA_XSP16, literal(-7)))
          CFI ?BRET_EXT load(1, XDATA, add(CFA_XSP16, literal(-3)))
          CFI ?RET_HIGH load(1, XDATA, add(CFA_XSP16, literal(-4)))
          CFI ?RET_LOW load(1, XDATA, add(CFA_XSP16, literal(-5)))
          CFI Invalid
        LCALL     ?DEALLOC_XSTACK8
          CFI EndBlock cfiBlock145
        REQUIRE ??Subroutine57_0
        ; // Fall through to label ??Subroutine57_0

        RSEG BANKED_CODE:HUGECODE:NOROOT(0)
??Subroutine57_0:
          CFI Block cfiBlock146 Using cfiCommon0
          CFI NoFunction
          CFI CFA_SP SP+0
          CFI CFA_XSP16 add(XSP16, 16)
          CFI VB load(1, XDATA, add(CFA_XSP16, literal(-15)))
          CFI DPL0 load(1, XDATA, add(CFA_XSP16, literal(-2)))
          CFI DPH0 load(1, XDATA, add(CFA_XSP16, literal(-1)))
          CFI R6 load(1, XDATA, add(CFA_XSP16, literal(-16)))
          CFI R7 load(1, XDATA, add(CFA_XSP16, literal(-6)))
          CFI V0 load(1, XDATA, add(CFA_XSP16, literal(-14)))
          CFI V1 load(1, XDATA, add(CFA_XSP16, literal(-13)))
          CFI V2 load(1, XDATA, add(CFA_XSP16, literal(-12)))
          CFI V3 load(1, XDATA, add(CFA_XSP16, literal(-11)))
          CFI V4 load(1, XDATA, add(CFA_XSP16, literal(-10)))
          CFI V5 load(1, XDATA, add(CFA_XSP16, literal(-9)))
          CFI V6 load(1, XDATA, add(CFA_XSP16, literal(-8)))
          CFI V7 load(1, XDATA, add(CFA_XSP16, literal(-7)))
          CFI ?BRET_EXT load(1, XDATA, add(CFA_XSP16, literal(-3)))
          CFI ?RET_HIGH load(1, XDATA, add(CFA_XSP16, literal(-4)))
          CFI ?RET_LOW load(1, XDATA, add(CFA_XSP16, literal(-5)))
        MOV       R7,#0x8
        LJMP      ?BANKED_LEAVE_XDATA
          CFI EndBlock cfiBlock146

        RSEG BANKED_CODE:HUGECODE:NOROOT(0)
?Subroutine19:
          CFI Block cfiCond147 Using cfiCommon0
          CFI Function touchLinkInitiator_event_loop
          CFI Conditional ??CrossCallReturnLabel_11
          CFI R6 load(1, XDATA, add(CFA_XSP16, literal(-16)))
          CFI VB load(1, XDATA, add(CFA_XSP16, literal(-15)))
          CFI V0 load(1, XDATA, add(CFA_XSP16, literal(-14)))
          CFI V1 load(1, XDATA, add(CFA_XSP16, literal(-13)))
          CFI V2 load(1, XDATA, add(CFA_XSP16, literal(-12)))
          CFI V3 load(1, XDATA, add(CFA_XSP16, literal(-11)))
          CFI V4 load(1, XDATA, add(CFA_XSP16, literal(-10)))
          CFI V5 load(1, XDATA, add(CFA_XSP16, literal(-9)))
          CFI V6 load(1, XDATA, add(CFA_XSP16, literal(-8)))
          CFI V7 load(1, XDATA, add(CFA_XSP16, literal(-7)))
          CFI R7 load(1, XDATA, add(CFA_XSP16, literal(-6)))
          CFI ?RET_LOW load(1, XDATA, add(CFA_XSP16, literal(-5)))
          CFI ?RET_HIGH load(1, XDATA, add(CFA_XSP16, literal(-4)))
          CFI ?BRET_EXT load(1, XDATA, add(CFA_XSP16, literal(-3)))
          CFI DPL0 load(1, XDATA, add(CFA_XSP16, literal(-2)))
          CFI DPH0 load(1, XDATA, add(CFA_XSP16, literal(-1)))
          CFI CFA_SP SP+-2
          CFI CFA_XSP16 add(XSP16, 79)
          CFI Block cfiCond148 Using cfiCommon0
          CFI (cfiCond148) Function initiatorNwkJoinReqCB
          CFI (cfiCond148) Conditional ??CrossCallReturnLabel_12
          CFI (cfiCond148) R6 load(1, XDATA, add(CFA_XSP16, literal(-16)))
          CFI (cfiCond148) VB load(1, XDATA, add(CFA_XSP16, literal(-15)))
          CFI (cfiCond148) V0 load(1, XDATA, add(CFA_XSP16, literal(-14)))
          CFI (cfiCond148) V1 load(1, XDATA, add(CFA_XSP16, literal(-13)))
          CFI (cfiCond148) V2 load(1, XDATA, add(CFA_XSP16, literal(-12)))
          CFI (cfiCond148) V3 load(1, XDATA, add(CFA_XSP16, literal(-11)))
          CFI (cfiCond148) V4 load(1, XDATA, add(CFA_XSP16, literal(-10)))
          CFI (cfiCond148) V5 load(1, XDATA, add(CFA_XSP16, literal(-9)))
          CFI (cfiCond148) V6 load(1, XDATA, add(CFA_XSP16, literal(-8)))
          CFI (cfiCond148) V7 load(1, XDATA, add(CFA_XSP16, literal(-7)))
          CFI (cfiCond148) R7 load(1, XDATA, add(CFA_XSP16, literal(-6)))
          CFI (cfiCond148) ?RET_LOW load(1, XDATA, add(CFA_XSP16, literal(-5)))
          CFI (cfiCond148) ?RET_HIGH load(1, XDATA, add(CFA_XSP16, literal(-4)))
          CFI (cfiCond148) ?BRET_EXT load(1, XDATA, add(CFA_XSP16, literal(-3)))
          CFI (cfiCond148) DPL0 load(1, XDATA, add(CFA_XSP16, literal(-2)))
          CFI (cfiCond148) DPH0 load(1, XDATA, add(CFA_XSP16, literal(-1)))
          CFI (cfiCond148) CFA_SP SP+-2
          CFI (cfiCond148) CFA_XSP16 add(XSP16, 37)
          CFI Block cfiPicker149 Using cfiCommon1
          CFI (cfiPicker149) NoFunction
          CFI (cfiPicker149) Picker
        LCALL     ?Subroutine42 & 0xFFFF
??CrossCallReturnLabel_67:
        MOV       R1,#0x8
        LCALL     `??touchLink_SetNIB::?relay`; Banked call to: touchLink_SetNIB
        MOV       A,#0x4
        RET
          CFI EndBlock cfiCond147
          CFI EndBlock cfiCond148
          CFI EndBlock cfiPicker149

        RSEG BANKED_CODE:HUGECODE:NOROOT(0)
?Subroutine9:
          CFI Block cfiCond150 Using cfiCommon0
          CFI Function initiatorSelectNwkParams
          CFI Conditional ??CrossCallReturnLabel_0
          CFI DPL0 Frame(CFA_SP, 4)
          CFI DPH0 Frame(CFA_SP, 5)
          CFI CFA_SP SP+-7
          CFI Block cfiCond151 Using cfiCommon0
          CFI (cfiCond151) Function initiatorNwkJoinReqCB
          CFI (cfiCond151) Conditional ??CrossCallReturnLabel_1
          CFI (cfiCond151) R6 load(1, XDATA, add(CFA_XSP16, literal(-16)))
          CFI (cfiCond151) VB load(1, XDATA, add(CFA_XSP16, literal(-15)))
          CFI (cfiCond151) V0 load(1, XDATA, add(CFA_XSP16, literal(-14)))
          CFI (cfiCond151) V1 load(1, XDATA, add(CFA_XSP16, literal(-13)))
          CFI (cfiCond151) V2 load(1, XDATA, add(CFA_XSP16, literal(-12)))
          CFI (cfiCond151) V3 load(1, XDATA, add(CFA_XSP16, literal(-11)))
          CFI (cfiCond151) V4 load(1, XDATA, add(CFA_XSP16, literal(-10)))
          CFI (cfiCond151) V5 load(1, XDATA, add(CFA_XSP16, literal(-9)))
          CFI (cfiCond151) V6 load(1, XDATA, add(CFA_XSP16, literal(-8)))
          CFI (cfiCond151) V7 load(1, XDATA, add(CFA_XSP16, literal(-7)))
          CFI (cfiCond151) R7 load(1, XDATA, add(CFA_XSP16, literal(-6)))
          CFI (cfiCond151) ?RET_LOW load(1, XDATA, add(CFA_XSP16, literal(-5)))
          CFI (cfiCond151) ?RET_HIGH load(1, XDATA, add(CFA_XSP16, literal(-4)))
          CFI (cfiCond151) ?BRET_EXT load(1, XDATA, add(CFA_XSP16, literal(-3)))
          CFI (cfiCond151) DPL0 load(1, XDATA, add(CFA_XSP16, literal(-2)))
          CFI (cfiCond151) DPH0 load(1, XDATA, add(CFA_XSP16, literal(-1)))
          CFI (cfiCond151) CFA_SP SP+-2
          CFI (cfiCond151) CFA_XSP16 add(XSP16, 33)
          CFI Block cfiCond152 Using cfiCommon0
          CFI (cfiCond152) Function initiatorReJoinNwk
          CFI (cfiCond152) Conditional ??CrossCallReturnLabel_2
          CFI (cfiCond152) R6 load(1, XDATA, add(CFA_XSP16, literal(-9)))
          CFI (cfiCond152) VB load(1, XDATA, add(CFA_XSP16, literal(-8)))
          CFI (cfiCond152) V0 load(1, XDATA, add(CFA_XSP16, literal(-7)))
          CFI (cfiCond152) R7 load(1, XDATA, add(CFA_XSP16, literal(-6)))
          CFI (cfiCond152) ?RET_LOW load(1, XDATA, add(CFA_XSP16, literal(-5)))
          CFI (cfiCond152) ?RET_HIGH load(1, XDATA, add(CFA_XSP16, literal(-4)))
          CFI (cfiCond152) ?BRET_EXT load(1, XDATA, add(CFA_XSP16, literal(-3)))
          CFI (cfiCond152) DPL0 load(1, XDATA, add(CFA_XSP16, literal(-2)))
          CFI (cfiCond152) DPH0 load(1, XDATA, add(CFA_XSP16, literal(-1)))
          CFI (cfiCond152) CFA_SP SP+-2
          CFI (cfiCond152) CFA_XSP16 add(XSP16, 9)
          CFI Block cfiPicker153 Using cfiCommon1
          CFI (cfiPicker153) NoFunction
          CFI (cfiPicker153) Picker
        MOV       DPTR,#_NIB + 22
        MOVX      A,@DPTR
        MOV       R1,A
        MOV       DPTR,#_NIB + 33
        MOVX      A,@DPTR
        MOV       R4,A
        INC       DPTR
        MOVX      A,@DPTR
        MOV       R5,A
        MOV       DPTR,#_NIB + 20
        LCALL     ?Subroutine42 & 0xFFFF
??CrossCallReturnLabel_64:
        LCALL     `??touchLink_SetMacNwkParams::?relay`; Banked call to: touchLink_SetMacNwkParams
        RET
          CFI EndBlock cfiCond150
          CFI EndBlock cfiCond151
          CFI EndBlock cfiCond152
          CFI EndBlock cfiPicker153

        RSEG BANKED_CODE:HUGECODE:NOROOT(0)
?Subroutine6:
          CFI Block cfiCond154 Using cfiCommon0
          CFI Function touchLinkInitiator_StartDevDisc
          CFI Conditional ??CrossCallReturnLabel_112
          CFI R6 load(1, XDATA, add(CFA_XSP16, literal(-16)))
          CFI VB load(1, XDATA, add(CFA_XSP16, literal(-15)))
          CFI V0 load(1, XDATA, add(CFA_XSP16, literal(-14)))
          CFI V1 load(1, XDATA, add(CFA_XSP16, literal(-13)))
          CFI V2 load(1, XDATA, add(CFA_XSP16, literal(-12)))
          CFI V3 load(1, XDATA, add(CFA_XSP16, literal(-11)))
          CFI V4 load(1, XDATA, add(CFA_XSP16, literal(-10)))
          CFI V5 load(1, XDATA, add(CFA_XSP16, literal(-9)))
          CFI V6 load(1, XDATA, add(CFA_XSP16, literal(-8)))
          CFI V7 load(1, XDATA, add(CFA_XSP16, literal(-7)))
          CFI R7 load(1, XDATA, add(CFA_XSP16, literal(-6)))
          CFI ?RET_LOW load(1, XDATA, add(CFA_XSP16, literal(-5)))
          CFI ?RET_HIGH load(1, XDATA, add(CFA_XSP16, literal(-4)))
          CFI ?BRET_EXT load(1, XDATA, add(CFA_XSP16, literal(-3)))
          CFI DPL0 load(1, XDATA, add(CFA_XSP16, literal(-2)))
          CFI DPH0 load(1, XDATA, add(CFA_XSP16, literal(-1)))
          CFI CFA_SP SP+-2
          CFI CFA_XSP16 add(XSP16, 21)
          CFI Block cfiCond155 Using cfiCommon0
          CFI (cfiCond155) Function touchLink_InitiatorSendScanRsp
          CFI (cfiCond155) Conditional ??CrossCallReturnLabel_113
          CFI (cfiCond155) R6 load(1, XDATA, add(CFA_XSP16, literal(-22)))
          CFI (cfiCond155) VB load(1, XDATA, add(CFA_XSP16, literal(-21)))
          CFI (cfiCond155) V0 load(1, XDATA, add(CFA_XSP16, literal(-20)))
          CFI (cfiCond155) V1 load(1, XDATA, add(CFA_XSP16, literal(-19)))
          CFI (cfiCond155) V2 load(1, XDATA, add(CFA_XSP16, literal(-18)))
          CFI (cfiCond155) V3 load(1, XDATA, add(CFA_XSP16, literal(-17)))
          CFI (cfiCond155) V4 load(1, XDATA, add(CFA_XSP16, literal(-16)))
          CFI (cfiCond155) V5 load(1, XDATA, add(CFA_XSP16, literal(-15)))
          CFI (cfiCond155) V6 load(1, XDATA, add(CFA_XSP16, literal(-14)))
          CFI (cfiCond155) V7 load(1, XDATA, add(CFA_XSP16, literal(-13)))
          CFI (cfiCond155) V8 load(1, XDATA, add(CFA_XSP16, literal(-12)))
          CFI (cfiCond155) V9 load(1, XDATA, add(CFA_XSP16, literal(-11)))
          CFI (cfiCond155) V10 load(1, XDATA, add(CFA_XSP16, literal(-10)))
          CFI (cfiCond155) V11 load(1, XDATA, add(CFA_XSP16, literal(-9)))
          CFI (cfiCond155) V12 load(1, XDATA, add(CFA_XSP16, literal(-8)))
          CFI (cfiCond155) V13 load(1, XDATA, add(CFA_XSP16, literal(-7)))
          CFI (cfiCond155) R7 load(1, XDATA, add(CFA_XSP16, literal(-6)))
          CFI (cfiCond155) ?RET_LOW load(1, XDATA, add(CFA_XSP16, literal(-5)))
          CFI (cfiCond155) ?RET_HIGH load(1, XDATA, add(CFA_XSP16, literal(-4)))
          CFI (cfiCond155) ?BRET_EXT load(1, XDATA, add(CFA_XSP16, literal(-3)))
          CFI (cfiCond155) DPL0 load(1, XDATA, add(CFA_XSP16, literal(-2)))
          CFI (cfiCond155) DPH0 load(1, XDATA, add(CFA_XSP16, literal(-1)))
          CFI (cfiCond155) CFA_SP SP+-2
          CFI (cfiCond155) CFA_XSP16 add(XSP16, 26)
          CFI Block cfiPicker156 Using cfiCommon1
          CFI (cfiPicker156) NoFunction
          CFI (cfiPicker156) Picker
        MOV       R2,#0x10
          CFI EndBlock cfiCond154
          CFI EndBlock cfiCond155
          CFI EndBlock cfiPicker156
        REQUIRE ??Subroutine58_0
        ; // Fall through to label ??Subroutine58_0

        RSEG BANKED_CODE:HUGECODE:NOROOT(0)
??Subroutine58_0:
          CFI Block cfiCond157 Using cfiCommon0
          CFI Function touchLinkInitiator_event_loop
          CFI Conditional ??CrossCallReturnLabel_114
          CFI R6 load(1, XDATA, add(CFA_XSP16, literal(-16)))
          CFI VB load(1, XDATA, add(CFA_XSP16, literal(-15)))
          CFI V0 load(1, XDATA, add(CFA_XSP16, literal(-14)))
          CFI V1 load(1, XDATA, add(CFA_XSP16, literal(-13)))
          CFI V2 load(1, XDATA, add(CFA_XSP16, literal(-12)))
          CFI V3 load(1, XDATA, add(CFA_XSP16, literal(-11)))
          CFI V4 load(1, XDATA, add(CFA_XSP16, literal(-10)))
          CFI V5 load(1, XDATA, add(CFA_XSP16, literal(-9)))
          CFI V6 load(1, XDATA, add(CFA_XSP16, literal(-8)))
          CFI V7 load(1, XDATA, add(CFA_XSP16, literal(-7)))
          CFI R7 load(1, XDATA, add(CFA_XSP16, literal(-6)))
          CFI ?RET_LOW load(1, XDATA, add(CFA_XSP16, literal(-5)))
          CFI ?RET_HIGH load(1, XDATA, add(CFA_XSP16, literal(-4)))
          CFI ?BRET_EXT load(1, XDATA, add(CFA_XSP16, literal(-3)))
          CFI DPL0 load(1, XDATA, add(CFA_XSP16, literal(-2)))
          CFI DPH0 load(1, XDATA, add(CFA_XSP16, literal(-1)))
          CFI CFA_SP SP+-2
          CFI CFA_XSP16 add(XSP16, 79)
          CFI Block cfiCond158 Using cfiCommon0
          CFI (cfiCond158) Function touchLinkInitiator_event_loop
          CFI (cfiCond158) Conditional ??CrossCallReturnLabel_115
          CFI (cfiCond158) R6 load(1, XDATA, add(CFA_XSP16, literal(-16)))
          CFI (cfiCond158) VB load(1, XDATA, add(CFA_XSP16, literal(-15)))
          CFI (cfiCond158) V0 load(1, XDATA, add(CFA_XSP16, literal(-14)))
          CFI (cfiCond158) V1 load(1, XDATA, add(CFA_XSP16, literal(-13)))
          CFI (cfiCond158) V2 load(1, XDATA, add(CFA_XSP16, literal(-12)))
          CFI (cfiCond158) V3 load(1, XDATA, add(CFA_XSP16, literal(-11)))
          CFI (cfiCond158) V4 load(1, XDATA, add(CFA_XSP16, literal(-10)))
          CFI (cfiCond158) V5 load(1, XDATA, add(CFA_XSP16, literal(-9)))
          CFI (cfiCond158) V6 load(1, XDATA, add(CFA_XSP16, literal(-8)))
          CFI (cfiCond158) V7 load(1, XDATA, add(CFA_XSP16, literal(-7)))
          CFI (cfiCond158) R7 load(1, XDATA, add(CFA_XSP16, literal(-6)))
          CFI (cfiCond158) ?RET_LOW load(1, XDATA, add(CFA_XSP16, literal(-5)))
          CFI (cfiCond158) ?RET_HIGH load(1, XDATA, add(CFA_XSP16, literal(-4)))
          CFI (cfiCond158) ?BRET_EXT load(1, XDATA, add(CFA_XSP16, literal(-3)))
          CFI (cfiCond158) DPL0 load(1, XDATA, add(CFA_XSP16, literal(-2)))
          CFI (cfiCond158) DPH0 load(1, XDATA, add(CFA_XSP16, literal(-1)))
          CFI (cfiCond158) CFA_SP SP+-2
          CFI (cfiCond158) CFA_XSP16 add(XSP16, 79)
          CFI Block cfiCond159 Using cfiCommon0
          CFI (cfiCond159) Function initiatorNwkJoinReqCB
          CFI (cfiCond159) Conditional ??CrossCallReturnLabel_116
          CFI (cfiCond159) R6 load(1, XDATA, add(CFA_XSP16, literal(-16)))
          CFI (cfiCond159) VB load(1, XDATA, add(CFA_XSP16, literal(-15)))
          CFI (cfiCond159) V0 load(1, XDATA, add(CFA_XSP16, literal(-14)))
          CFI (cfiCond159) V1 load(1, XDATA, add(CFA_XSP16, literal(-13)))
          CFI (cfiCond159) V2 load(1, XDATA, add(CFA_XSP16, literal(-12)))
          CFI (cfiCond159) V3 load(1, XDATA, add(CFA_XSP16, literal(-11)))
          CFI (cfiCond159) V4 load(1, XDATA, add(CFA_XSP16, literal(-10)))
          CFI (cfiCond159) V5 load(1, XDATA, add(CFA_XSP16, literal(-9)))
          CFI (cfiCond159) V6 load(1, XDATA, add(CFA_XSP16, literal(-8)))
          CFI (cfiCond159) V7 load(1, XDATA, add(CFA_XSP16, literal(-7)))
          CFI (cfiCond159) R7 load(1, XDATA, add(CFA_XSP16, literal(-6)))
          CFI (cfiCond159) ?RET_LOW load(1, XDATA, add(CFA_XSP16, literal(-5)))
          CFI (cfiCond159) ?RET_HIGH load(1, XDATA, add(CFA_XSP16, literal(-4)))
          CFI (cfiCond159) ?BRET_EXT load(1, XDATA, add(CFA_XSP16, literal(-3)))
          CFI (cfiCond159) DPL0 load(1, XDATA, add(CFA_XSP16, literal(-2)))
          CFI (cfiCond159) DPH0 load(1, XDATA, add(CFA_XSP16, literal(-1)))
          CFI (cfiCond159) CFA_SP SP+-2
          CFI (cfiCond159) CFA_XSP16 add(XSP16, 37)
          CFI Block cfiCond160 Using cfiCommon0
          CFI (cfiCond160) Function initiatorSendScanReq
          CFI (cfiCond160) Conditional ??CrossCallReturnLabel_117
          CFI (cfiCond160) R6 load(1, XDATA, add(CFA_XSP16, literal(-9)))
          CFI (cfiCond160) VB load(1, XDATA, add(CFA_XSP16, literal(-8)))
          CFI (cfiCond160) V0 load(1, XDATA, add(CFA_XSP16, literal(-7)))
          CFI (cfiCond160) R7 load(1, XDATA, add(CFA_XSP16, literal(-6)))
          CFI (cfiCond160) ?RET_LOW load(1, XDATA, add(CFA_XSP16, literal(-5)))
          CFI (cfiCond160) ?RET_HIGH load(1, XDATA, add(CFA_XSP16, literal(-4)))
          CFI (cfiCond160) ?BRET_EXT load(1, XDATA, add(CFA_XSP16, literal(-3)))
          CFI (cfiCond160) DPL0 load(1, XDATA, add(CFA_XSP16, literal(-2)))
          CFI (cfiCond160) DPH0 load(1, XDATA, add(CFA_XSP16, literal(-1)))
          CFI (cfiCond160) CFA_SP SP+-2
          CFI (cfiCond160) CFA_XSP16 add(XSP16, 33)
          CFI Block cfiCond161 Using cfiCommon0
          CFI (cfiCond161) Function touchLinkInitiator_StartDevDisc
          CFI (cfiCond161) Conditional ??CrossCallReturnLabel_112
          CFI (cfiCond161) R6 load(1, XDATA, add(CFA_XSP16, literal(-16)))
          CFI (cfiCond161) VB load(1, XDATA, add(CFA_XSP16, literal(-15)))
          CFI (cfiCond161) V0 load(1, XDATA, add(CFA_XSP16, literal(-14)))
          CFI (cfiCond161) V1 load(1, XDATA, add(CFA_XSP16, literal(-13)))
          CFI (cfiCond161) V2 load(1, XDATA, add(CFA_XSP16, literal(-12)))
          CFI (cfiCond161) V3 load(1, XDATA, add(CFA_XSP16, literal(-11)))
          CFI (cfiCond161) V4 load(1, XDATA, add(CFA_XSP16, literal(-10)))
          CFI (cfiCond161) V5 load(1, XDATA, add(CFA_XSP16, literal(-9)))
          CFI (cfiCond161) V6 load(1, XDATA, add(CFA_XSP16, literal(-8)))
          CFI (cfiCond161) V7 load(1, XDATA, add(CFA_XSP16, literal(-7)))
          CFI (cfiCond161) R7 load(1, XDATA, add(CFA_XSP16, literal(-6)))
          CFI (cfiCond161) ?RET_LOW load(1, XDATA, add(CFA_XSP16, literal(-5)))
          CFI (cfiCond161) ?RET_HIGH load(1, XDATA, add(CFA_XSP16, literal(-4)))
          CFI (cfiCond161) ?BRET_EXT load(1, XDATA, add(CFA_XSP16, literal(-3)))
          CFI (cfiCond161) DPL0 load(1, XDATA, add(CFA_XSP16, literal(-2)))
          CFI (cfiCond161) DPH0 load(1, XDATA, add(CFA_XSP16, literal(-1)))
          CFI (cfiCond161) CFA_SP SP+-2
          CFI (cfiCond161) CFA_XSP16 add(XSP16, 21)
          CFI Block cfiCond162 Using cfiCommon0
          CFI (cfiCond162) Function touchLink_InitiatorSendScanRsp
          CFI (cfiCond162) Conditional ??CrossCallReturnLabel_113
          CFI (cfiCond162) R6 load(1, XDATA, add(CFA_XSP16, literal(-22)))
          CFI (cfiCond162) VB load(1, XDATA, add(CFA_XSP16, literal(-21)))
          CFI (cfiCond162) V0 load(1, XDATA, add(CFA_XSP16, literal(-20)))
          CFI (cfiCond162) V1 load(1, XDATA, add(CFA_XSP16, literal(-19)))
          CFI (cfiCond162) V2 load(1, XDATA, add(CFA_XSP16, literal(-18)))
          CFI (cfiCond162) V3 load(1, XDATA, add(CFA_XSP16, literal(-17)))
          CFI (cfiCond162) V4 load(1, XDATA, add(CFA_XSP16, literal(-16)))
          CFI (cfiCond162) V5 load(1, XDATA, add(CFA_XSP16, literal(-15)))
          CFI (cfiCond162) V6 load(1, XDATA, add(CFA_XSP16, literal(-14)))
          CFI (cfiCond162) V7 load(1, XDATA, add(CFA_XSP16, literal(-13)))
          CFI (cfiCond162) V8 load(1, XDATA, add(CFA_XSP16, literal(-12)))
          CFI (cfiCond162) V9 load(1, XDATA, add(CFA_XSP16, literal(-11)))
          CFI (cfiCond162) V10 load(1, XDATA, add(CFA_XSP16, literal(-10)))
          CFI (cfiCond162) V11 load(1, XDATA, add(CFA_XSP16, literal(-9)))
          CFI (cfiCond162) V12 load(1, XDATA, add(CFA_XSP16, literal(-8)))
          CFI (cfiCond162) V13 load(1, XDATA, add(CFA_XSP16, literal(-7)))
          CFI (cfiCond162) R7 load(1, XDATA, add(CFA_XSP16, literal(-6)))
          CFI (cfiCond162) ?RET_LOW load(1, XDATA, add(CFA_XSP16, literal(-5)))
          CFI (cfiCond162) ?RET_HIGH load(1, XDATA, add(CFA_XSP16, literal(-4)))
          CFI (cfiCond162) ?BRET_EXT load(1, XDATA, add(CFA_XSP16, literal(-3)))
          CFI (cfiCond162) DPL0 load(1, XDATA, add(CFA_XSP16, literal(-2)))
          CFI (cfiCond162) DPH0 load(1, XDATA, add(CFA_XSP16, literal(-1)))
          CFI (cfiCond162) CFA_SP SP+-2
          CFI (cfiCond162) CFA_XSP16 add(XSP16, 26)
          CFI Block cfiPicker163 Using cfiCommon1
          CFI (cfiPicker163) NoFunction
          CFI (cfiPicker163) Picker
        MOV       R3,#0x0
          CFI EndBlock cfiCond157
          CFI EndBlock cfiCond158
          CFI EndBlock cfiCond159
          CFI EndBlock cfiCond160
          CFI EndBlock cfiCond161
          CFI EndBlock cfiCond162
          CFI EndBlock cfiPicker163
        REQUIRE ??Subroutine59_0
        ; // Fall through to label ??Subroutine59_0

        RSEG BANKED_CODE:HUGECODE:NOROOT(0)
??Subroutine59_0:
          CFI Block cfiCond164 Using cfiCommon0
          CFI Function touchLinkInitiator_event_loop
          CFI Conditional ??CrossCallReturnLabel_118
          CFI R6 load(1, XDATA, add(CFA_XSP16, literal(-16)))
          CFI VB load(1, XDATA, add(CFA_XSP16, literal(-15)))
          CFI V0 load(1, XDATA, add(CFA_XSP16, literal(-14)))
          CFI V1 load(1, XDATA, add(CFA_XSP16, literal(-13)))
          CFI V2 load(1, XDATA, add(CFA_XSP16, literal(-12)))
          CFI V3 load(1, XDATA, add(CFA_XSP16, literal(-11)))
          CFI V4 load(1, XDATA, add(CFA_XSP16, literal(-10)))
          CFI V5 load(1, XDATA, add(CFA_XSP16, literal(-9)))
          CFI V6 load(1, XDATA, add(CFA_XSP16, literal(-8)))
          CFI V7 load(1, XDATA, add(CFA_XSP16, literal(-7)))
          CFI R7 load(1, XDATA, add(CFA_XSP16, literal(-6)))
          CFI ?RET_LOW load(1, XDATA, add(CFA_XSP16, literal(-5)))
          CFI ?RET_HIGH load(1, XDATA, add(CFA_XSP16, literal(-4)))
          CFI ?BRET_EXT load(1, XDATA, add(CFA_XSP16, literal(-3)))
          CFI DPL0 load(1, XDATA, add(CFA_XSP16, literal(-2)))
          CFI DPH0 load(1, XDATA, add(CFA_XSP16, literal(-1)))
          CFI CFA_SP SP+-2
          CFI CFA_XSP16 add(XSP16, 79)
          CFI Block cfiCond165 Using cfiCommon0
          CFI (cfiCond165) Function touchLinkInitiator_event_loop
          CFI (cfiCond165) Conditional ??CrossCallReturnLabel_119
          CFI (cfiCond165) R6 load(1, XDATA, add(CFA_XSP16, literal(-16)))
          CFI (cfiCond165) VB load(1, XDATA, add(CFA_XSP16, literal(-15)))
          CFI (cfiCond165) V0 load(1, XDATA, add(CFA_XSP16, literal(-14)))
          CFI (cfiCond165) V1 load(1, XDATA, add(CFA_XSP16, literal(-13)))
          CFI (cfiCond165) V2 load(1, XDATA, add(CFA_XSP16, literal(-12)))
          CFI (cfiCond165) V3 load(1, XDATA, add(CFA_XSP16, literal(-11)))
          CFI (cfiCond165) V4 load(1, XDATA, add(CFA_XSP16, literal(-10)))
          CFI (cfiCond165) V5 load(1, XDATA, add(CFA_XSP16, literal(-9)))
          CFI (cfiCond165) V6 load(1, XDATA, add(CFA_XSP16, literal(-8)))
          CFI (cfiCond165) V7 load(1, XDATA, add(CFA_XSP16, literal(-7)))
          CFI (cfiCond165) R7 load(1, XDATA, add(CFA_XSP16, literal(-6)))
          CFI (cfiCond165) ?RET_LOW load(1, XDATA, add(CFA_XSP16, literal(-5)))
          CFI (cfiCond165) ?RET_HIGH load(1, XDATA, add(CFA_XSP16, literal(-4)))
          CFI (cfiCond165) ?BRET_EXT load(1, XDATA, add(CFA_XSP16, literal(-3)))
          CFI (cfiCond165) DPL0 load(1, XDATA, add(CFA_XSP16, literal(-2)))
          CFI (cfiCond165) DPH0 load(1, XDATA, add(CFA_XSP16, literal(-1)))
          CFI (cfiCond165) CFA_SP SP+-2
          CFI (cfiCond165) CFA_XSP16 add(XSP16, 79)
          CFI Block cfiCond166 Using cfiCommon0
          CFI (cfiCond166) Function initiatorProcessStateChange
          CFI (cfiCond166) Conditional ??CrossCallReturnLabel_120
          CFI (cfiCond166) R6 load(1, XDATA, add(CFA_XSP16, literal(-10)))
          CFI (cfiCond166) VB load(1, XDATA, add(CFA_XSP16, literal(-9)))
          CFI (cfiCond166) V0 load(1, XDATA, add(CFA_XSP16, literal(-8)))
          CFI (cfiCond166) V1 load(1, XDATA, add(CFA_XSP16, literal(-7)))
          CFI (cfiCond166) R7 load(1, XDATA, add(CFA_XSP16, literal(-6)))
          CFI (cfiCond166) ?RET_LOW load(1, XDATA, add(CFA_XSP16, literal(-5)))
          CFI (cfiCond166) ?RET_HIGH load(1, XDATA, add(CFA_XSP16, literal(-4)))
          CFI (cfiCond166) ?BRET_EXT load(1, XDATA, add(CFA_XSP16, literal(-3)))
          CFI (cfiCond166) DPL0 load(1, XDATA, add(CFA_XSP16, literal(-2)))
          CFI (cfiCond166) DPH0 load(1, XDATA, add(CFA_XSP16, literal(-1)))
          CFI (cfiCond166) CFA_SP SP+-2
          CFI (cfiCond166) CFA_XSP16 add(XSP16, 14)
          CFI Block cfiCond167 Using cfiCommon0
          CFI (cfiCond167) Function initiatorProcessStateChange
          CFI (cfiCond167) Conditional ??CrossCallReturnLabel_121
          CFI (cfiCond167) R6 load(1, XDATA, add(CFA_XSP16, literal(-10)))
          CFI (cfiCond167) VB load(1, XDATA, add(CFA_XSP16, literal(-9)))
          CFI (cfiCond167) V0 load(1, XDATA, add(CFA_XSP16, literal(-8)))
          CFI (cfiCond167) V1 load(1, XDATA, add(CFA_XSP16, literal(-7)))
          CFI (cfiCond167) R7 load(1, XDATA, add(CFA_XSP16, literal(-6)))
          CFI (cfiCond167) ?RET_LOW load(1, XDATA, add(CFA_XSP16, literal(-5)))
          CFI (cfiCond167) ?RET_HIGH load(1, XDATA, add(CFA_XSP16, literal(-4)))
          CFI (cfiCond167) ?BRET_EXT load(1, XDATA, add(CFA_XSP16, literal(-3)))
          CFI (cfiCond167) DPL0 load(1, XDATA, add(CFA_XSP16, literal(-2)))
          CFI (cfiCond167) DPH0 load(1, XDATA, add(CFA_XSP16, literal(-1)))
          CFI (cfiCond167) CFA_SP SP+-2
          CFI (cfiCond167) CFA_XSP16 add(XSP16, 14)
          CFI Block cfiCond168 Using cfiCommon0
          CFI (cfiCond168) Function initiatorSendNwkJoinReq
          CFI (cfiCond168) Conditional ??CrossCallReturnLabel_122
          CFI (cfiCond168) R6 load(1, XDATA, add(CFA_XSP16, literal(-16)))
          CFI (cfiCond168) VB load(1, XDATA, add(CFA_XSP16, literal(-15)))
          CFI (cfiCond168) V0 load(1, XDATA, add(CFA_XSP16, literal(-14)))
          CFI (cfiCond168) V1 load(1, XDATA, add(CFA_XSP16, literal(-13)))
          CFI (cfiCond168) V2 load(1, XDATA, add(CFA_XSP16, literal(-12)))
          CFI (cfiCond168) V3 load(1, XDATA, add(CFA_XSP16, literal(-11)))
          CFI (cfiCond168) V4 load(1, XDATA, add(CFA_XSP16, literal(-10)))
          CFI (cfiCond168) V5 load(1, XDATA, add(CFA_XSP16, literal(-9)))
          CFI (cfiCond168) V6 load(1, XDATA, add(CFA_XSP16, literal(-8)))
          CFI (cfiCond168) V7 load(1, XDATA, add(CFA_XSP16, literal(-7)))
          CFI (cfiCond168) R7 load(1, XDATA, add(CFA_XSP16, literal(-6)))
          CFI (cfiCond168) ?RET_LOW load(1, XDATA, add(CFA_XSP16, literal(-5)))
          CFI (cfiCond168) ?RET_HIGH load(1, XDATA, add(CFA_XSP16, literal(-4)))
          CFI (cfiCond168) ?BRET_EXT load(1, XDATA, add(CFA_XSP16, literal(-3)))
          CFI (cfiCond168) DPL0 load(1, XDATA, add(CFA_XSP16, literal(-2)))
          CFI (cfiCond168) DPH0 load(1, XDATA, add(CFA_XSP16, literal(-1)))
          CFI (cfiCond168) CFA_SP SP+-2
          CFI (cfiCond168) CFA_XSP16 add(XSP16, 20)
          CFI Block cfiCond169 Using cfiCommon0
          CFI (cfiCond169) Function touchLinkInitiator_event_loop
          CFI (cfiCond169) Conditional ??CrossCallReturnLabel_114
          CFI (cfiCond169) R6 load(1, XDATA, add(CFA_XSP16, literal(-16)))
          CFI (cfiCond169) VB load(1, XDATA, add(CFA_XSP16, literal(-15)))
          CFI (cfiCond169) V0 load(1, XDATA, add(CFA_XSP16, literal(-14)))
          CFI (cfiCond169) V1 load(1, XDATA, add(CFA_XSP16, literal(-13)))
          CFI (cfiCond169) V2 load(1, XDATA, add(CFA_XSP16, literal(-12)))
          CFI (cfiCond169) V3 load(1, XDATA, add(CFA_XSP16, literal(-11)))
          CFI (cfiCond169) V4 load(1, XDATA, add(CFA_XSP16, literal(-10)))
          CFI (cfiCond169) V5 load(1, XDATA, add(CFA_XSP16, literal(-9)))
          CFI (cfiCond169) V6 load(1, XDATA, add(CFA_XSP16, literal(-8)))
          CFI (cfiCond169) V7 load(1, XDATA, add(CFA_XSP16, literal(-7)))
          CFI (cfiCond169) R7 load(1, XDATA, add(CFA_XSP16, literal(-6)))
          CFI (cfiCond169) ?RET_LOW load(1, XDATA, add(CFA_XSP16, literal(-5)))
          CFI (cfiCond169) ?RET_HIGH load(1, XDATA, add(CFA_XSP16, literal(-4)))
          CFI (cfiCond169) ?BRET_EXT load(1, XDATA, add(CFA_XSP16, literal(-3)))
          CFI (cfiCond169) DPL0 load(1, XDATA, add(CFA_XSP16, literal(-2)))
          CFI (cfiCond169) DPH0 load(1, XDATA, add(CFA_XSP16, literal(-1)))
          CFI (cfiCond169) CFA_SP SP+-2
          CFI (cfiCond169) CFA_XSP16 add(XSP16, 79)
          CFI Block cfiCond170 Using cfiCommon0
          CFI (cfiCond170) Function touchLinkInitiator_event_loop
          CFI (cfiCond170) Conditional ??CrossCallReturnLabel_115
          CFI (cfiCond170) R6 load(1, XDATA, add(CFA_XSP16, literal(-16)))
          CFI (cfiCond170) VB load(1, XDATA, add(CFA_XSP16, literal(-15)))
          CFI (cfiCond170) V0 load(1, XDATA, add(CFA_XSP16, literal(-14)))
          CFI (cfiCond170) V1 load(1, XDATA, add(CFA_XSP16, literal(-13)))
          CFI (cfiCond170) V2 load(1, XDATA, add(CFA_XSP16, literal(-12)))
          CFI (cfiCond170) V3 load(1, XDATA, add(CFA_XSP16, literal(-11)))
          CFI (cfiCond170) V4 load(1, XDATA, add(CFA_XSP16, literal(-10)))
          CFI (cfiCond170) V5 load(1, XDATA, add(CFA_XSP16, literal(-9)))
          CFI (cfiCond170) V6 load(1, XDATA, add(CFA_XSP16, literal(-8)))
          CFI (cfiCond170) V7 load(1, XDATA, add(CFA_XSP16, literal(-7)))
          CFI (cfiCond170) R7 load(1, XDATA, add(CFA_XSP16, literal(-6)))
          CFI (cfiCond170) ?RET_LOW load(1, XDATA, add(CFA_XSP16, literal(-5)))
          CFI (cfiCond170) ?RET_HIGH load(1, XDATA, add(CFA_XSP16, literal(-4)))
          CFI (cfiCond170) ?BRET_EXT load(1, XDATA, add(CFA_XSP16, literal(-3)))
          CFI (cfiCond170) DPL0 load(1, XDATA, add(CFA_XSP16, literal(-2)))
          CFI (cfiCond170) DPH0 load(1, XDATA, add(CFA_XSP16, literal(-1)))
          CFI (cfiCond170) CFA_SP SP+-2
          CFI (cfiCond170) CFA_XSP16 add(XSP16, 79)
          CFI Block cfiCond171 Using cfiCommon0
          CFI (cfiCond171) Function initiatorNwkJoinReqCB
          CFI (cfiCond171) Conditional ??CrossCallReturnLabel_116
          CFI (cfiCond171) R6 load(1, XDATA, add(CFA_XSP16, literal(-16)))
          CFI (cfiCond171) VB load(1, XDATA, add(CFA_XSP16, literal(-15)))
          CFI (cfiCond171) V0 load(1, XDATA, add(CFA_XSP16, literal(-14)))
          CFI (cfiCond171) V1 load(1, XDATA, add(CFA_XSP16, literal(-13)))
          CFI (cfiCond171) V2 load(1, XDATA, add(CFA_XSP16, literal(-12)))
          CFI (cfiCond171) V3 load(1, XDATA, add(CFA_XSP16, literal(-11)))
          CFI (cfiCond171) V4 load(1, XDATA, add(CFA_XSP16, literal(-10)))
          CFI (cfiCond171) V5 load(1, XDATA, add(CFA_XSP16, literal(-9)))
          CFI (cfiCond171) V6 load(1, XDATA, add(CFA_XSP16, literal(-8)))
          CFI (cfiCond171) V7 load(1, XDATA, add(CFA_XSP16, literal(-7)))
          CFI (cfiCond171) R7 load(1, XDATA, add(CFA_XSP16, literal(-6)))
          CFI (cfiCond171) ?RET_LOW load(1, XDATA, add(CFA_XSP16, literal(-5)))
          CFI (cfiCond171) ?RET_HIGH load(1, XDATA, add(CFA_XSP16, literal(-4)))
          CFI (cfiCond171) ?BRET_EXT load(1, XDATA, add(CFA_XSP16, literal(-3)))
          CFI (cfiCond171) DPL0 load(1, XDATA, add(CFA_XSP16, literal(-2)))
          CFI (cfiCond171) DPH0 load(1, XDATA, add(CFA_XSP16, literal(-1)))
          CFI (cfiCond171) CFA_SP SP+-2
          CFI (cfiCond171) CFA_XSP16 add(XSP16, 37)
          CFI Block cfiCond172 Using cfiCommon0
          CFI (cfiCond172) Function initiatorSendScanReq
          CFI (cfiCond172) Conditional ??CrossCallReturnLabel_117
          CFI (cfiCond172) R6 load(1, XDATA, add(CFA_XSP16, literal(-9)))
          CFI (cfiCond172) VB load(1, XDATA, add(CFA_XSP16, literal(-8)))
          CFI (cfiCond172) V0 load(1, XDATA, add(CFA_XSP16, literal(-7)))
          CFI (cfiCond172) R7 load(1, XDATA, add(CFA_XSP16, literal(-6)))
          CFI (cfiCond172) ?RET_LOW load(1, XDATA, add(CFA_XSP16, literal(-5)))
          CFI (cfiCond172) ?RET_HIGH load(1, XDATA, add(CFA_XSP16, literal(-4)))
          CFI (cfiCond172) ?BRET_EXT load(1, XDATA, add(CFA_XSP16, literal(-3)))
          CFI (cfiCond172) DPL0 load(1, XDATA, add(CFA_XSP16, literal(-2)))
          CFI (cfiCond172) DPH0 load(1, XDATA, add(CFA_XSP16, literal(-1)))
          CFI (cfiCond172) CFA_SP SP+-2
          CFI (cfiCond172) CFA_XSP16 add(XSP16, 33)
          CFI Block cfiCond173 Using cfiCommon0
          CFI (cfiCond173) Function touchLinkInitiator_StartDevDisc
          CFI (cfiCond173) Conditional ??CrossCallReturnLabel_112
          CFI (cfiCond173) R6 load(1, XDATA, add(CFA_XSP16, literal(-16)))
          CFI (cfiCond173) VB load(1, XDATA, add(CFA_XSP16, literal(-15)))
          CFI (cfiCond173) V0 load(1, XDATA, add(CFA_XSP16, literal(-14)))
          CFI (cfiCond173) V1 load(1, XDATA, add(CFA_XSP16, literal(-13)))
          CFI (cfiCond173) V2 load(1, XDATA, add(CFA_XSP16, literal(-12)))
          CFI (cfiCond173) V3 load(1, XDATA, add(CFA_XSP16, literal(-11)))
          CFI (cfiCond173) V4 load(1, XDATA, add(CFA_XSP16, literal(-10)))
          CFI (cfiCond173) V5 load(1, XDATA, add(CFA_XSP16, literal(-9)))
          CFI (cfiCond173) V6 load(1, XDATA, add(CFA_XSP16, literal(-8)))
          CFI (cfiCond173) V7 load(1, XDATA, add(CFA_XSP16, literal(-7)))
          CFI (cfiCond173) R7 load(1, XDATA, add(CFA_XSP16, literal(-6)))
          CFI (cfiCond173) ?RET_LOW load(1, XDATA, add(CFA_XSP16, literal(-5)))
          CFI (cfiCond173) ?RET_HIGH load(1, XDATA, add(CFA_XSP16, literal(-4)))
          CFI (cfiCond173) ?BRET_EXT load(1, XDATA, add(CFA_XSP16, literal(-3)))
          CFI (cfiCond173) DPL0 load(1, XDATA, add(CFA_XSP16, literal(-2)))
          CFI (cfiCond173) DPH0 load(1, XDATA, add(CFA_XSP16, literal(-1)))
          CFI (cfiCond173) CFA_SP SP+-2
          CFI (cfiCond173) CFA_XSP16 add(XSP16, 21)
          CFI Block cfiCond174 Using cfiCommon0
          CFI (cfiCond174) Function touchLink_InitiatorSendScanRsp
          CFI (cfiCond174) Conditional ??CrossCallReturnLabel_113
          CFI (cfiCond174) R6 load(1, XDATA, add(CFA_XSP16, literal(-22)))
          CFI (cfiCond174) VB load(1, XDATA, add(CFA_XSP16, literal(-21)))
          CFI (cfiCond174) V0 load(1, XDATA, add(CFA_XSP16, literal(-20)))
          CFI (cfiCond174) V1 load(1, XDATA, add(CFA_XSP16, literal(-19)))
          CFI (cfiCond174) V2 load(1, XDATA, add(CFA_XSP16, literal(-18)))
          CFI (cfiCond174) V3 load(1, XDATA, add(CFA_XSP16, literal(-17)))
          CFI (cfiCond174) V4 load(1, XDATA, add(CFA_XSP16, literal(-16)))
          CFI (cfiCond174) V5 load(1, XDATA, add(CFA_XSP16, literal(-15)))
          CFI (cfiCond174) V6 load(1, XDATA, add(CFA_XSP16, literal(-14)))
          CFI (cfiCond174) V7 load(1, XDATA, add(CFA_XSP16, literal(-13)))
          CFI (cfiCond174) V8 load(1, XDATA, add(CFA_XSP16, literal(-12)))
          CFI (cfiCond174) V9 load(1, XDATA, add(CFA_XSP16, literal(-11)))
          CFI (cfiCond174) V10 load(1, XDATA, add(CFA_XSP16, literal(-10)))
          CFI (cfiCond174) V11 load(1, XDATA, add(CFA_XSP16, literal(-9)))
          CFI (cfiCond174) V12 load(1, XDATA, add(CFA_XSP16, literal(-8)))
          CFI (cfiCond174) V13 load(1, XDATA, add(CFA_XSP16, literal(-7)))
          CFI (cfiCond174) R7 load(1, XDATA, add(CFA_XSP16, literal(-6)))
          CFI (cfiCond174) ?RET_LOW load(1, XDATA, add(CFA_XSP16, literal(-5)))
          CFI (cfiCond174) ?RET_HIGH load(1, XDATA, add(CFA_XSP16, literal(-4)))
          CFI (cfiCond174) ?BRET_EXT load(1, XDATA, add(CFA_XSP16, literal(-3)))
          CFI (cfiCond174) DPL0 load(1, XDATA, add(CFA_XSP16, literal(-2)))
          CFI (cfiCond174) DPH0 load(1, XDATA, add(CFA_XSP16, literal(-1)))
          CFI (cfiCond174) CFA_SP SP+-2
          CFI (cfiCond174) CFA_XSP16 add(XSP16, 26)
          CFI Block cfiPicker175 Using cfiCommon1
          CFI (cfiPicker175) NoFunction
          CFI (cfiPicker175) Picker
        MOV       DPTR,#touchLinkInitiator_TaskID
          CFI EndBlock cfiCond164
          CFI EndBlock cfiCond165
          CFI EndBlock cfiCond166
          CFI EndBlock cfiCond167
          CFI EndBlock cfiCond168
          CFI EndBlock cfiCond169
          CFI EndBlock cfiCond170
          CFI EndBlock cfiCond171
          CFI EndBlock cfiCond172
          CFI EndBlock cfiCond173
          CFI EndBlock cfiCond174
          CFI EndBlock cfiPicker175
        REQUIRE ??Subroutine60_0
        ; // Fall through to label ??Subroutine60_0

        RSEG BANKED_CODE:HUGECODE:NOROOT(0)
??Subroutine60_0:
          CFI Block cfiCond176 Using cfiCommon0
          CFI Function touchLinkInitiator_event_loop
          CFI Conditional ??CrossCallReturnLabel_123
          CFI R6 load(1, XDATA, add(CFA_XSP16, literal(-16)))
          CFI VB load(1, XDATA, add(CFA_XSP16, literal(-15)))
          CFI V0 load(1, XDATA, add(CFA_XSP16, literal(-14)))
          CFI V1 load(1, XDATA, add(CFA_XSP16, literal(-13)))
          CFI V2 load(1, XDATA, add(CFA_XSP16, literal(-12)))
          CFI V3 load(1, XDATA, add(CFA_XSP16, literal(-11)))
          CFI V4 load(1, XDATA, add(CFA_XSP16, literal(-10)))
          CFI V5 load(1, XDATA, add(CFA_XSP16, literal(-9)))
          CFI V6 load(1, XDATA, add(CFA_XSP16, literal(-8)))
          CFI V7 load(1, XDATA, add(CFA_XSP16, literal(-7)))
          CFI R7 load(1, XDATA, add(CFA_XSP16, literal(-6)))
          CFI ?RET_LOW load(1, XDATA, add(CFA_XSP16, literal(-5)))
          CFI ?RET_HIGH load(1, XDATA, add(CFA_XSP16, literal(-4)))
          CFI ?BRET_EXT load(1, XDATA, add(CFA_XSP16, literal(-3)))
          CFI DPL0 load(1, XDATA, add(CFA_XSP16, literal(-2)))
          CFI DPH0 load(1, XDATA, add(CFA_XSP16, literal(-1)))
          CFI CFA_SP SP+-2
          CFI CFA_XSP16 add(XSP16, 79)
          CFI Block cfiCond177 Using cfiCommon0
          CFI (cfiCond177) Function touchLinkInitiator_event_loop
          CFI (cfiCond177) Conditional ??CrossCallReturnLabel_118
          CFI (cfiCond177) R6 load(1, XDATA, add(CFA_XSP16, literal(-16)))
          CFI (cfiCond177) VB load(1, XDATA, add(CFA_XSP16, literal(-15)))
          CFI (cfiCond177) V0 load(1, XDATA, add(CFA_XSP16, literal(-14)))
          CFI (cfiCond177) V1 load(1, XDATA, add(CFA_XSP16, literal(-13)))
          CFI (cfiCond177) V2 load(1, XDATA, add(CFA_XSP16, literal(-12)))
          CFI (cfiCond177) V3 load(1, XDATA, add(CFA_XSP16, literal(-11)))
          CFI (cfiCond177) V4 load(1, XDATA, add(CFA_XSP16, literal(-10)))
          CFI (cfiCond177) V5 load(1, XDATA, add(CFA_XSP16, literal(-9)))
          CFI (cfiCond177) V6 load(1, XDATA, add(CFA_XSP16, literal(-8)))
          CFI (cfiCond177) V7 load(1, XDATA, add(CFA_XSP16, literal(-7)))
          CFI (cfiCond177) R7 load(1, XDATA, add(CFA_XSP16, literal(-6)))
          CFI (cfiCond177) ?RET_LOW load(1, XDATA, add(CFA_XSP16, literal(-5)))
          CFI (cfiCond177) ?RET_HIGH load(1, XDATA, add(CFA_XSP16, literal(-4)))
          CFI (cfiCond177) ?BRET_EXT load(1, XDATA, add(CFA_XSP16, literal(-3)))
          CFI (cfiCond177) DPL0 load(1, XDATA, add(CFA_XSP16, literal(-2)))
          CFI (cfiCond177) DPH0 load(1, XDATA, add(CFA_XSP16, literal(-1)))
          CFI (cfiCond177) CFA_SP SP+-2
          CFI (cfiCond177) CFA_XSP16 add(XSP16, 79)
          CFI Block cfiCond178 Using cfiCommon0
          CFI (cfiCond178) Function touchLinkInitiator_event_loop
          CFI (cfiCond178) Conditional ??CrossCallReturnLabel_119
          CFI (cfiCond178) R6 load(1, XDATA, add(CFA_XSP16, literal(-16)))
          CFI (cfiCond178) VB load(1, XDATA, add(CFA_XSP16, literal(-15)))
          CFI (cfiCond178) V0 load(1, XDATA, add(CFA_XSP16, literal(-14)))
          CFI (cfiCond178) V1 load(1, XDATA, add(CFA_XSP16, literal(-13)))
          CFI (cfiCond178) V2 load(1, XDATA, add(CFA_XSP16, literal(-12)))
          CFI (cfiCond178) V3 load(1, XDATA, add(CFA_XSP16, literal(-11)))
          CFI (cfiCond178) V4 load(1, XDATA, add(CFA_XSP16, literal(-10)))
          CFI (cfiCond178) V5 load(1, XDATA, add(CFA_XSP16, literal(-9)))
          CFI (cfiCond178) V6 load(1, XDATA, add(CFA_XSP16, literal(-8)))
          CFI (cfiCond178) V7 load(1, XDATA, add(CFA_XSP16, literal(-7)))
          CFI (cfiCond178) R7 load(1, XDATA, add(CFA_XSP16, literal(-6)))
          CFI (cfiCond178) ?RET_LOW load(1, XDATA, add(CFA_XSP16, literal(-5)))
          CFI (cfiCond178) ?RET_HIGH load(1, XDATA, add(CFA_XSP16, literal(-4)))
          CFI (cfiCond178) ?BRET_EXT load(1, XDATA, add(CFA_XSP16, literal(-3)))
          CFI (cfiCond178) DPL0 load(1, XDATA, add(CFA_XSP16, literal(-2)))
          CFI (cfiCond178) DPH0 load(1, XDATA, add(CFA_XSP16, literal(-1)))
          CFI (cfiCond178) CFA_SP SP+-2
          CFI (cfiCond178) CFA_XSP16 add(XSP16, 79)
          CFI Block cfiCond179 Using cfiCommon0
          CFI (cfiCond179) Function initiatorProcessStateChange
          CFI (cfiCond179) Conditional ??CrossCallReturnLabel_120
          CFI (cfiCond179) R6 load(1, XDATA, add(CFA_XSP16, literal(-10)))
          CFI (cfiCond179) VB load(1, XDATA, add(CFA_XSP16, literal(-9)))
          CFI (cfiCond179) V0 load(1, XDATA, add(CFA_XSP16, literal(-8)))
          CFI (cfiCond179) V1 load(1, XDATA, add(CFA_XSP16, literal(-7)))
          CFI (cfiCond179) R7 load(1, XDATA, add(CFA_XSP16, literal(-6)))
          CFI (cfiCond179) ?RET_LOW load(1, XDATA, add(CFA_XSP16, literal(-5)))
          CFI (cfiCond179) ?RET_HIGH load(1, XDATA, add(CFA_XSP16, literal(-4)))
          CFI (cfiCond179) ?BRET_EXT load(1, XDATA, add(CFA_XSP16, literal(-3)))
          CFI (cfiCond179) DPL0 load(1, XDATA, add(CFA_XSP16, literal(-2)))
          CFI (cfiCond179) DPH0 load(1, XDATA, add(CFA_XSP16, literal(-1)))
          CFI (cfiCond179) CFA_SP SP+-2
          CFI (cfiCond179) CFA_XSP16 add(XSP16, 14)
          CFI Block cfiCond180 Using cfiCommon0
          CFI (cfiCond180) Function initiatorProcessStateChange
          CFI (cfiCond180) Conditional ??CrossCallReturnLabel_121
          CFI (cfiCond180) R6 load(1, XDATA, add(CFA_XSP16, literal(-10)))
          CFI (cfiCond180) VB load(1, XDATA, add(CFA_XSP16, literal(-9)))
          CFI (cfiCond180) V0 load(1, XDATA, add(CFA_XSP16, literal(-8)))
          CFI (cfiCond180) V1 load(1, XDATA, add(CFA_XSP16, literal(-7)))
          CFI (cfiCond180) R7 load(1, XDATA, add(CFA_XSP16, literal(-6)))
          CFI (cfiCond180) ?RET_LOW load(1, XDATA, add(CFA_XSP16, literal(-5)))
          CFI (cfiCond180) ?RET_HIGH load(1, XDATA, add(CFA_XSP16, literal(-4)))
          CFI (cfiCond180) ?BRET_EXT load(1, XDATA, add(CFA_XSP16, literal(-3)))
          CFI (cfiCond180) DPL0 load(1, XDATA, add(CFA_XSP16, literal(-2)))
          CFI (cfiCond180) DPH0 load(1, XDATA, add(CFA_XSP16, literal(-1)))
          CFI (cfiCond180) CFA_SP SP+-2
          CFI (cfiCond180) CFA_XSP16 add(XSP16, 14)
          CFI Block cfiCond181 Using cfiCommon0
          CFI (cfiCond181) Function initiatorSendNwkJoinReq
          CFI (cfiCond181) Conditional ??CrossCallReturnLabel_122
          CFI (cfiCond181) R6 load(1, XDATA, add(CFA_XSP16, literal(-16)))
          CFI (cfiCond181) VB load(1, XDATA, add(CFA_XSP16, literal(-15)))
          CFI (cfiCond181) V0 load(1, XDATA, add(CFA_XSP16, literal(-14)))
          CFI (cfiCond181) V1 load(1, XDATA, add(CFA_XSP16, literal(-13)))
          CFI (cfiCond181) V2 load(1, XDATA, add(CFA_XSP16, literal(-12)))
          CFI (cfiCond181) V3 load(1, XDATA, add(CFA_XSP16, literal(-11)))
          CFI (cfiCond181) V4 load(1, XDATA, add(CFA_XSP16, literal(-10)))
          CFI (cfiCond181) V5 load(1, XDATA, add(CFA_XSP16, literal(-9)))
          CFI (cfiCond181) V6 load(1, XDATA, add(CFA_XSP16, literal(-8)))
          CFI (cfiCond181) V7 load(1, XDATA, add(CFA_XSP16, literal(-7)))
          CFI (cfiCond181) R7 load(1, XDATA, add(CFA_XSP16, literal(-6)))
          CFI (cfiCond181) ?RET_LOW load(1, XDATA, add(CFA_XSP16, literal(-5)))
          CFI (cfiCond181) ?RET_HIGH load(1, XDATA, add(CFA_XSP16, literal(-4)))
          CFI (cfiCond181) ?BRET_EXT load(1, XDATA, add(CFA_XSP16, literal(-3)))
          CFI (cfiCond181) DPL0 load(1, XDATA, add(CFA_XSP16, literal(-2)))
          CFI (cfiCond181) DPH0 load(1, XDATA, add(CFA_XSP16, literal(-1)))
          CFI (cfiCond181) CFA_SP SP+-2
          CFI (cfiCond181) CFA_XSP16 add(XSP16, 20)
          CFI Block cfiCond182 Using cfiCommon0
          CFI (cfiCond182) Function touchLinkInitiator_event_loop
          CFI (cfiCond182) Conditional ??CrossCallReturnLabel_114
          CFI (cfiCond182) R6 load(1, XDATA, add(CFA_XSP16, literal(-16)))
          CFI (cfiCond182) VB load(1, XDATA, add(CFA_XSP16, literal(-15)))
          CFI (cfiCond182) V0 load(1, XDATA, add(CFA_XSP16, literal(-14)))
          CFI (cfiCond182) V1 load(1, XDATA, add(CFA_XSP16, literal(-13)))
          CFI (cfiCond182) V2 load(1, XDATA, add(CFA_XSP16, literal(-12)))
          CFI (cfiCond182) V3 load(1, XDATA, add(CFA_XSP16, literal(-11)))
          CFI (cfiCond182) V4 load(1, XDATA, add(CFA_XSP16, literal(-10)))
          CFI (cfiCond182) V5 load(1, XDATA, add(CFA_XSP16, literal(-9)))
          CFI (cfiCond182) V6 load(1, XDATA, add(CFA_XSP16, literal(-8)))
          CFI (cfiCond182) V7 load(1, XDATA, add(CFA_XSP16, literal(-7)))
          CFI (cfiCond182) R7 load(1, XDATA, add(CFA_XSP16, literal(-6)))
          CFI (cfiCond182) ?RET_LOW load(1, XDATA, add(CFA_XSP16, literal(-5)))
          CFI (cfiCond182) ?RET_HIGH load(1, XDATA, add(CFA_XSP16, literal(-4)))
          CFI (cfiCond182) ?BRET_EXT load(1, XDATA, add(CFA_XSP16, literal(-3)))
          CFI (cfiCond182) DPL0 load(1, XDATA, add(CFA_XSP16, literal(-2)))
          CFI (cfiCond182) DPH0 load(1, XDATA, add(CFA_XSP16, literal(-1)))
          CFI (cfiCond182) CFA_SP SP+-2
          CFI (cfiCond182) CFA_XSP16 add(XSP16, 79)
          CFI Block cfiCond183 Using cfiCommon0
          CFI (cfiCond183) Function touchLinkInitiator_event_loop
          CFI (cfiCond183) Conditional ??CrossCallReturnLabel_115
          CFI (cfiCond183) R6 load(1, XDATA, add(CFA_XSP16, literal(-16)))
          CFI (cfiCond183) VB load(1, XDATA, add(CFA_XSP16, literal(-15)))
          CFI (cfiCond183) V0 load(1, XDATA, add(CFA_XSP16, literal(-14)))
          CFI (cfiCond183) V1 load(1, XDATA, add(CFA_XSP16, literal(-13)))
          CFI (cfiCond183) V2 load(1, XDATA, add(CFA_XSP16, literal(-12)))
          CFI (cfiCond183) V3 load(1, XDATA, add(CFA_XSP16, literal(-11)))
          CFI (cfiCond183) V4 load(1, XDATA, add(CFA_XSP16, literal(-10)))
          CFI (cfiCond183) V5 load(1, XDATA, add(CFA_XSP16, literal(-9)))
          CFI (cfiCond183) V6 load(1, XDATA, add(CFA_XSP16, literal(-8)))
          CFI (cfiCond183) V7 load(1, XDATA, add(CFA_XSP16, literal(-7)))
          CFI (cfiCond183) R7 load(1, XDATA, add(CFA_XSP16, literal(-6)))
          CFI (cfiCond183) ?RET_LOW load(1, XDATA, add(CFA_XSP16, literal(-5)))
          CFI (cfiCond183) ?RET_HIGH load(1, XDATA, add(CFA_XSP16, literal(-4)))
          CFI (cfiCond183) ?BRET_EXT load(1, XDATA, add(CFA_XSP16, literal(-3)))
          CFI (cfiCond183) DPL0 load(1, XDATA, add(CFA_XSP16, literal(-2)))
          CFI (cfiCond183) DPH0 load(1, XDATA, add(CFA_XSP16, literal(-1)))
          CFI (cfiCond183) CFA_SP SP+-2
          CFI (cfiCond183) CFA_XSP16 add(XSP16, 79)
          CFI Block cfiCond184 Using cfiCommon0
          CFI (cfiCond184) Function initiatorNwkJoinReqCB
          CFI (cfiCond184) Conditional ??CrossCallReturnLabel_116
          CFI (cfiCond184) R6 load(1, XDATA, add(CFA_XSP16, literal(-16)))
          CFI (cfiCond184) VB load(1, XDATA, add(CFA_XSP16, literal(-15)))
          CFI (cfiCond184) V0 load(1, XDATA, add(CFA_XSP16, literal(-14)))
          CFI (cfiCond184) V1 load(1, XDATA, add(CFA_XSP16, literal(-13)))
          CFI (cfiCond184) V2 load(1, XDATA, add(CFA_XSP16, literal(-12)))
          CFI (cfiCond184) V3 load(1, XDATA, add(CFA_XSP16, literal(-11)))
          CFI (cfiCond184) V4 load(1, XDATA, add(CFA_XSP16, literal(-10)))
          CFI (cfiCond184) V5 load(1, XDATA, add(CFA_XSP16, literal(-9)))
          CFI (cfiCond184) V6 load(1, XDATA, add(CFA_XSP16, literal(-8)))
          CFI (cfiCond184) V7 load(1, XDATA, add(CFA_XSP16, literal(-7)))
          CFI (cfiCond184) R7 load(1, XDATA, add(CFA_XSP16, literal(-6)))
          CFI (cfiCond184) ?RET_LOW load(1, XDATA, add(CFA_XSP16, literal(-5)))
          CFI (cfiCond184) ?RET_HIGH load(1, XDATA, add(CFA_XSP16, literal(-4)))
          CFI (cfiCond184) ?BRET_EXT load(1, XDATA, add(CFA_XSP16, literal(-3)))
          CFI (cfiCond184) DPL0 load(1, XDATA, add(CFA_XSP16, literal(-2)))
          CFI (cfiCond184) DPH0 load(1, XDATA, add(CFA_XSP16, literal(-1)))
          CFI (cfiCond184) CFA_SP SP+-2
          CFI (cfiCond184) CFA_XSP16 add(XSP16, 37)
          CFI Block cfiCond185 Using cfiCommon0
          CFI (cfiCond185) Function initiatorSendScanReq
          CFI (cfiCond185) Conditional ??CrossCallReturnLabel_117
          CFI (cfiCond185) R6 load(1, XDATA, add(CFA_XSP16, literal(-9)))
          CFI (cfiCond185) VB load(1, XDATA, add(CFA_XSP16, literal(-8)))
          CFI (cfiCond185) V0 load(1, XDATA, add(CFA_XSP16, literal(-7)))
          CFI (cfiCond185) R7 load(1, XDATA, add(CFA_XSP16, literal(-6)))
          CFI (cfiCond185) ?RET_LOW load(1, XDATA, add(CFA_XSP16, literal(-5)))
          CFI (cfiCond185) ?RET_HIGH load(1, XDATA, add(CFA_XSP16, literal(-4)))
          CFI (cfiCond185) ?BRET_EXT load(1, XDATA, add(CFA_XSP16, literal(-3)))
          CFI (cfiCond185) DPL0 load(1, XDATA, add(CFA_XSP16, literal(-2)))
          CFI (cfiCond185) DPH0 load(1, XDATA, add(CFA_XSP16, literal(-1)))
          CFI (cfiCond185) CFA_SP SP+-2
          CFI (cfiCond185) CFA_XSP16 add(XSP16, 33)
          CFI Block cfiCond186 Using cfiCommon0
          CFI (cfiCond186) Function touchLinkInitiator_StartDevDisc
          CFI (cfiCond186) Conditional ??CrossCallReturnLabel_112
          CFI (cfiCond186) R6 load(1, XDATA, add(CFA_XSP16, literal(-16)))
          CFI (cfiCond186) VB load(1, XDATA, add(CFA_XSP16, literal(-15)))
          CFI (cfiCond186) V0 load(1, XDATA, add(CFA_XSP16, literal(-14)))
          CFI (cfiCond186) V1 load(1, XDATA, add(CFA_XSP16, literal(-13)))
          CFI (cfiCond186) V2 load(1, XDATA, add(CFA_XSP16, literal(-12)))
          CFI (cfiCond186) V3 load(1, XDATA, add(CFA_XSP16, literal(-11)))
          CFI (cfiCond186) V4 load(1, XDATA, add(CFA_XSP16, literal(-10)))
          CFI (cfiCond186) V5 load(1, XDATA, add(CFA_XSP16, literal(-9)))
          CFI (cfiCond186) V6 load(1, XDATA, add(CFA_XSP16, literal(-8)))
          CFI (cfiCond186) V7 load(1, XDATA, add(CFA_XSP16, literal(-7)))
          CFI (cfiCond186) R7 load(1, XDATA, add(CFA_XSP16, literal(-6)))
          CFI (cfiCond186) ?RET_LOW load(1, XDATA, add(CFA_XSP16, literal(-5)))
          CFI (cfiCond186) ?RET_HIGH load(1, XDATA, add(CFA_XSP16, literal(-4)))
          CFI (cfiCond186) ?BRET_EXT load(1, XDATA, add(CFA_XSP16, literal(-3)))
          CFI (cfiCond186) DPL0 load(1, XDATA, add(CFA_XSP16, literal(-2)))
          CFI (cfiCond186) DPH0 load(1, XDATA, add(CFA_XSP16, literal(-1)))
          CFI (cfiCond186) CFA_SP SP+-2
          CFI (cfiCond186) CFA_XSP16 add(XSP16, 21)
          CFI Block cfiCond187 Using cfiCommon0
          CFI (cfiCond187) Function touchLink_InitiatorSendScanRsp
          CFI (cfiCond187) Conditional ??CrossCallReturnLabel_113
          CFI (cfiCond187) R6 load(1, XDATA, add(CFA_XSP16, literal(-22)))
          CFI (cfiCond187) VB load(1, XDATA, add(CFA_XSP16, literal(-21)))
          CFI (cfiCond187) V0 load(1, XDATA, add(CFA_XSP16, literal(-20)))
          CFI (cfiCond187) V1 load(1, XDATA, add(CFA_XSP16, literal(-19)))
          CFI (cfiCond187) V2 load(1, XDATA, add(CFA_XSP16, literal(-18)))
          CFI (cfiCond187) V3 load(1, XDATA, add(CFA_XSP16, literal(-17)))
          CFI (cfiCond187) V4 load(1, XDATA, add(CFA_XSP16, literal(-16)))
          CFI (cfiCond187) V5 load(1, XDATA, add(CFA_XSP16, literal(-15)))
          CFI (cfiCond187) V6 load(1, XDATA, add(CFA_XSP16, literal(-14)))
          CFI (cfiCond187) V7 load(1, XDATA, add(CFA_XSP16, literal(-13)))
          CFI (cfiCond187) V8 load(1, XDATA, add(CFA_XSP16, literal(-12)))
          CFI (cfiCond187) V9 load(1, XDATA, add(CFA_XSP16, literal(-11)))
          CFI (cfiCond187) V10 load(1, XDATA, add(CFA_XSP16, literal(-10)))
          CFI (cfiCond187) V11 load(1, XDATA, add(CFA_XSP16, literal(-9)))
          CFI (cfiCond187) V12 load(1, XDATA, add(CFA_XSP16, literal(-8)))
          CFI (cfiCond187) V13 load(1, XDATA, add(CFA_XSP16, literal(-7)))
          CFI (cfiCond187) R7 load(1, XDATA, add(CFA_XSP16, literal(-6)))
          CFI (cfiCond187) ?RET_LOW load(1, XDATA, add(CFA_XSP16, literal(-5)))
          CFI (cfiCond187) ?RET_HIGH load(1, XDATA, add(CFA_XSP16, literal(-4)))
          CFI (cfiCond187) ?BRET_EXT load(1, XDATA, add(CFA_XSP16, literal(-3)))
          CFI (cfiCond187) DPL0 load(1, XDATA, add(CFA_XSP16, literal(-2)))
          CFI (cfiCond187) DPH0 load(1, XDATA, add(CFA_XSP16, literal(-1)))
          CFI (cfiCond187) CFA_SP SP+-2
          CFI (cfiCond187) CFA_XSP16 add(XSP16, 26)
          CFI Block cfiPicker188 Using cfiCommon1
          CFI (cfiPicker188) NoFunction
          CFI (cfiPicker188) Picker
        MOVX      A,@DPTR
        MOV       R1,A
        LCALL     `??osal_start_timerEx::?relay`; Banked call to: osal_start_timerEx
        MOV       A,#0x4
        RET
          CFI EndBlock cfiCond176
          CFI EndBlock cfiCond177
          CFI EndBlock cfiCond178
          CFI EndBlock cfiCond179
          CFI EndBlock cfiCond180
          CFI EndBlock cfiCond181
          CFI EndBlock cfiCond182
          CFI EndBlock cfiCond183
          CFI EndBlock cfiCond184
          CFI EndBlock cfiCond185
          CFI EndBlock cfiCond186
          CFI EndBlock cfiCond187
          CFI EndBlock cfiPicker188
// 1527 
// 1528 /*********************************************************************
// 1529  * @fn      initiatorNwkUpdateReqCB
// 1530  *
// 1531  * @brief   This callback is called to process a Network Update Request
// 1532  *          command.
// 1533  *
// 1534  * @param   srcAddr - sender's address
// 1535  * @param   pReq - parsed command
// 1536  *
// 1537  * @return  ZStatus_t
// 1538  */

        RSEG BANKED_CODE:HUGECODE:NOROOT(0)
// 1539 static ZStatus_t initiatorNwkUpdateReqCB( afAddrType_t *srcAddr, bdbTLNwkUpdateReq_t *pReq )
initiatorNwkUpdateReqCB:
          CFI Block cfiBlock189 Using cfiCommon0
          CFI Function initiatorNwkUpdateReqCB
        CODE
// 1540 {
        FUNCALL initiatorNwkUpdateReqCB, touchLink_IsValidTransID
        LOCFRAME ISTACK, 0, STACK
        LOCFRAME PSTACK, 0, STACK
        LOCFRAME XSTACK, 10, STACK
        LOCFRAME IOVERLAY, 0, STATIC
        LOCFRAME DOVERLAY, 0, STATIC
        ARGFRAME ISTACK, 0, STACK
        ARGFRAME PSTACK, 0, STACK
        ARGFRAME XSTACK, 10, STACK
        ARGFRAME IOVERLAY, 0, STATIC
        ARGFRAME DOVERLAY, 0, STATIC
        FUNCALL initiatorNwkUpdateReqCB, sAddrExtCmp
        LOCFRAME ISTACK, 0, STACK
        LOCFRAME PSTACK, 0, STACK
        LOCFRAME XSTACK, 10, STACK
        LOCFRAME IOVERLAY, 0, STATIC
        LOCFRAME DOVERLAY, 0, STATIC
        ARGFRAME ISTACK, 0, STACK
        ARGFRAME PSTACK, 0, STACK
        ARGFRAME XSTACK, 10, STACK
        ARGFRAME IOVERLAY, 0, STATIC
        ARGFRAME DOVERLAY, 0, STATIC
        FUNCALL initiatorNwkUpdateReqCB, touchLink_NewNwkUpdateId
        LOCFRAME ISTACK, 0, STACK
        LOCFRAME PSTACK, 0, STACK
        LOCFRAME XSTACK, 10, STACK
        LOCFRAME IOVERLAY, 0, STATIC
        LOCFRAME DOVERLAY, 0, STATIC
        ARGFRAME ISTACK, 0, STACK
        ARGFRAME PSTACK, 0, STACK
        ARGFRAME XSTACK, 10, STACK
        ARGFRAME IOVERLAY, 0, STATIC
        ARGFRAME DOVERLAY, 0, STATIC
        FUNCALL initiatorNwkUpdateReqCB, touchLink_ProcessNwkUpdate
        LOCFRAME ISTACK, 0, STACK
        LOCFRAME PSTACK, 0, STACK
        LOCFRAME XSTACK, 10, STACK
        LOCFRAME IOVERLAY, 0, STATIC
        LOCFRAME DOVERLAY, 0, STATIC
        ARGFRAME ISTACK, 0, STACK
        ARGFRAME PSTACK, 0, STACK
        ARGFRAME XSTACK, 10, STACK
        ARGFRAME IOVERLAY, 0, STATIC
        ARGFRAME DOVERLAY, 0, STATIC
        REQUIRE ?V0
        REQUIRE ?V1
        MOV       A,#-0xa
        LCALL     ?BANKED_ENTER_XDATA
          CFI DPH0 load(1, XDATA, add(CFA_XSP16, literal(-1)))
          CFI DPL0 load(1, XDATA, add(CFA_XSP16, literal(-2)))
          CFI ?BRET_EXT load(1, XDATA, add(CFA_XSP16, literal(-3)))
          CFI ?RET_HIGH load(1, XDATA, add(CFA_XSP16, literal(-4)))
          CFI ?RET_LOW load(1, XDATA, add(CFA_XSP16, literal(-5)))
          CFI R7 load(1, XDATA, add(CFA_XSP16, literal(-6)))
          CFI V1 load(1, XDATA, add(CFA_XSP16, literal(-7)))
          CFI V0 load(1, XDATA, add(CFA_XSP16, literal(-8)))
          CFI VB load(1, XDATA, add(CFA_XSP16, literal(-9)))
          CFI R6 load(1, XDATA, add(CFA_XSP16, literal(-10)))
          CFI CFA_SP SP+0
          CFI CFA_XSP16 add(XSP16, 10)
        ; Saved register size: 10
        ; Auto size: 0
        MOV       A,R4
        MOV       R6,A
        MOV       A,R5
        MOV       R7,A
// 1541   if ( touchLink_IsValidTransID( pReq->transID ) == FALSE )
        ; Setup parameters for call to function touchLink_IsValidTransID
        MOV       DPL,R4
        MOV       DPH,A
        LCALL     ?XLOAD_R2345
        LCALL     ?Subroutine34 & 0xFFFF
??CrossCallReturnLabel_40:
        JNZ       ??initiatorNwkUpdateReqCB_0
// 1542   {
// 1543     return ( ZFailure );
        MOV       R1,#0x1
        SJMP      ??initiatorNwkUpdateReqCB_1
// 1544   }
// 1545   // Discard the request if the Extended PAN ID and PAN ID are not
// 1546   // identical with our corresponding stored values
// 1547   if ( TOUCHLINK_SAME_NWK( pReq->PANID, pReq->extendedPANID ) )
??initiatorNwkUpdateReqCB_0:
        LCALL     ??Subroutine53_0 & 0xFFFF
??CrossCallReturnLabel_106:
        ADD       A,#0xe
        LCALL     ?Subroutine37 & 0xFFFF
??CrossCallReturnLabel_53:
        XRL       A,R0
        JNZ       ??initiatorNwkUpdateReqCB_2
        INC       DPTR
        MOVX      A,@DPTR
        XRL       A,R1
??initiatorNwkUpdateReqCB_2:
        JNZ       ??initiatorNwkUpdateReqCB_3
        ; Setup parameters for call to function sAddrExtCmp
        MOV       A,R6
        ADD       A,#0x4
        MOV       R4,A
        CLR       A
        ADDC      A,R7
        MOV       R5,A
        MOV       R2,#(_NIB + 53) & 0xff
        MOV       R3,#((_NIB + 53) >> 8) & 0xff
        LCALL     `??sAddrExtCmp::?relay`; Banked call to: sAddrExtCmp
        MOV       A,R1
        JZ        ??initiatorNwkUpdateReqCB_3
// 1548   {
// 1549     uint8 newUpdateId = touchLink_NewNwkUpdateId( pReq->nwkUpdateId, _NIB.nwkUpdateId);
        MOV       A,R6
        ADD       A,#0xc
        MOV       R0,A
        CLR       A
        ADDC      A,R7
        MOV       ?V0,R0
        MOV       ?V1,A
        ; Setup parameters for call to function touchLink_NewNwkUpdateId
        MOV       DPTR,#_NIB + 109
        MOVX      A,@DPTR
        MOV       R2,A
        MOV       DPL,R0
        MOV       DPH,?V1
        MOVX      A,@DPTR
        MOV       R1,A
        LCALL     `??touchLink_NewNwkUpdateId::?relay`; Banked call to: touchLink_NewNwkUpdateId
        MOV       A,R1
        MOV       R0,A
// 1550     if ( _NIB.nwkUpdateId != newUpdateId )
        MOV       DPTR,#_NIB + 109
        MOVX      A,@DPTR
        XRL       A,R0
        JZ        ??initiatorNwkUpdateReqCB_3
// 1551     {
// 1552       // Update the network update id and logical channel
// 1553       touchLink_ProcessNwkUpdate( pReq->nwkUpdateId, pReq->logicalChannel );
        ; Setup parameters for call to function touchLink_ProcessNwkUpdate
        MOV       A,R6
        ADD       A,#0xd
        LCALL     ?Subroutine37 & 0xFFFF
// 1554     }
// 1555   }
??CrossCallReturnLabel_54:
        MOV       R2,A
        MOV       DPL,?V0
        MOV       DPH,?V1
        MOVX      A,@DPTR
        MOV       R1,A
        LCALL     `??touchLink_ProcessNwkUpdate::?relay`; Banked call to: touchLink_ProcessNwkUpdate
// 1556 
// 1557   return ( ZSuccess );
??initiatorNwkUpdateReqCB_3:
        MOV       R1,#0x0
??initiatorNwkUpdateReqCB_1:
        LJMP      ?Subroutine5 & 0xFFFF
// 1558 }
          CFI EndBlock cfiBlock189

        RSEG BANKED_CODE:HUGECODE:NOROOT(0)
?Subroutine37:
          CFI Block cfiCond190 Using cfiCommon0
          CFI Function initiatorNwkJoinReqCB
          CFI Conditional ??CrossCallReturnLabel_51
          CFI R6 load(1, XDATA, add(CFA_XSP16, literal(-16)))
          CFI VB load(1, XDATA, add(CFA_XSP16, literal(-15)))
          CFI V0 load(1, XDATA, add(CFA_XSP16, literal(-14)))
          CFI V1 load(1, XDATA, add(CFA_XSP16, literal(-13)))
          CFI V2 load(1, XDATA, add(CFA_XSP16, literal(-12)))
          CFI V3 load(1, XDATA, add(CFA_XSP16, literal(-11)))
          CFI V4 load(1, XDATA, add(CFA_XSP16, literal(-10)))
          CFI V5 load(1, XDATA, add(CFA_XSP16, literal(-9)))
          CFI V6 load(1, XDATA, add(CFA_XSP16, literal(-8)))
          CFI V7 load(1, XDATA, add(CFA_XSP16, literal(-7)))
          CFI R7 load(1, XDATA, add(CFA_XSP16, literal(-6)))
          CFI ?RET_LOW load(1, XDATA, add(CFA_XSP16, literal(-5)))
          CFI ?RET_HIGH load(1, XDATA, add(CFA_XSP16, literal(-4)))
          CFI ?BRET_EXT load(1, XDATA, add(CFA_XSP16, literal(-3)))
          CFI DPL0 load(1, XDATA, add(CFA_XSP16, literal(-2)))
          CFI DPH0 load(1, XDATA, add(CFA_XSP16, literal(-1)))
          CFI CFA_SP SP+-2
          CFI CFA_XSP16 add(XSP16, 41)
          CFI Block cfiCond191 Using cfiCommon0
          CFI (cfiCond191) Function initiatorNwkJoinReqCB
          CFI (cfiCond191) Conditional ??CrossCallReturnLabel_52
          CFI (cfiCond191) R6 load(1, XDATA, add(CFA_XSP16, literal(-16)))
          CFI (cfiCond191) VB load(1, XDATA, add(CFA_XSP16, literal(-15)))
          CFI (cfiCond191) V0 load(1, XDATA, add(CFA_XSP16, literal(-14)))
          CFI (cfiCond191) V1 load(1, XDATA, add(CFA_XSP16, literal(-13)))
          CFI (cfiCond191) V2 load(1, XDATA, add(CFA_XSP16, literal(-12)))
          CFI (cfiCond191) V3 load(1, XDATA, add(CFA_XSP16, literal(-11)))
          CFI (cfiCond191) V4 load(1, XDATA, add(CFA_XSP16, literal(-10)))
          CFI (cfiCond191) V5 load(1, XDATA, add(CFA_XSP16, literal(-9)))
          CFI (cfiCond191) V6 load(1, XDATA, add(CFA_XSP16, literal(-8)))
          CFI (cfiCond191) V7 load(1, XDATA, add(CFA_XSP16, literal(-7)))
          CFI (cfiCond191) R7 load(1, XDATA, add(CFA_XSP16, literal(-6)))
          CFI (cfiCond191) ?RET_LOW load(1, XDATA, add(CFA_XSP16, literal(-5)))
          CFI (cfiCond191) ?RET_HIGH load(1, XDATA, add(CFA_XSP16, literal(-4)))
          CFI (cfiCond191) ?BRET_EXT load(1, XDATA, add(CFA_XSP16, literal(-3)))
          CFI (cfiCond191) DPL0 load(1, XDATA, add(CFA_XSP16, literal(-2)))
          CFI (cfiCond191) DPH0 load(1, XDATA, add(CFA_XSP16, literal(-1)))
          CFI (cfiCond191) CFA_SP SP+-2
          CFI (cfiCond191) CFA_XSP16 add(XSP16, 33)
          CFI Block cfiCond192 Using cfiCommon0
          CFI (cfiCond192) Function initiatorNwkUpdateReqCB
          CFI (cfiCond192) Conditional ??CrossCallReturnLabel_53
          CFI (cfiCond192) R6 load(1, XDATA, add(CFA_XSP16, literal(-10)))
          CFI (cfiCond192) VB load(1, XDATA, add(CFA_XSP16, literal(-9)))
          CFI (cfiCond192) V0 load(1, XDATA, add(CFA_XSP16, literal(-8)))
          CFI (cfiCond192) V1 load(1, XDATA, add(CFA_XSP16, literal(-7)))
          CFI (cfiCond192) R7 load(1, XDATA, add(CFA_XSP16, literal(-6)))
          CFI (cfiCond192) ?RET_LOW load(1, XDATA, add(CFA_XSP16, literal(-5)))
          CFI (cfiCond192) ?RET_HIGH load(1, XDATA, add(CFA_XSP16, literal(-4)))
          CFI (cfiCond192) ?BRET_EXT load(1, XDATA, add(CFA_XSP16, literal(-3)))
          CFI (cfiCond192) DPL0 load(1, XDATA, add(CFA_XSP16, literal(-2)))
          CFI (cfiCond192) DPH0 load(1, XDATA, add(CFA_XSP16, literal(-1)))
          CFI (cfiCond192) CFA_SP SP+-2
          CFI (cfiCond192) CFA_XSP16 add(XSP16, 10)
          CFI Block cfiCond193 Using cfiCommon0
          CFI (cfiCond193) Function initiatorNwkUpdateReqCB
          CFI (cfiCond193) Conditional ??CrossCallReturnLabel_54
          CFI (cfiCond193) R6 load(1, XDATA, add(CFA_XSP16, literal(-10)))
          CFI (cfiCond193) VB load(1, XDATA, add(CFA_XSP16, literal(-9)))
          CFI (cfiCond193) V0 load(1, XDATA, add(CFA_XSP16, literal(-8)))
          CFI (cfiCond193) V1 load(1, XDATA, add(CFA_XSP16, literal(-7)))
          CFI (cfiCond193) R7 load(1, XDATA, add(CFA_XSP16, literal(-6)))
          CFI (cfiCond193) ?RET_LOW load(1, XDATA, add(CFA_XSP16, literal(-5)))
          CFI (cfiCond193) ?RET_HIGH load(1, XDATA, add(CFA_XSP16, literal(-4)))
          CFI (cfiCond193) ?BRET_EXT load(1, XDATA, add(CFA_XSP16, literal(-3)))
          CFI (cfiCond193) DPL0 load(1, XDATA, add(CFA_XSP16, literal(-2)))
          CFI (cfiCond193) DPH0 load(1, XDATA, add(CFA_XSP16, literal(-1)))
          CFI (cfiCond193) CFA_SP SP+-2
          CFI (cfiCond193) CFA_XSP16 add(XSP16, 10)
          CFI Block cfiCond194 Using cfiCommon0
          CFI (cfiCond194) Function initiatorScanRspCB
          CFI (cfiCond194) Conditional ??CrossCallReturnLabel_55
          CFI (cfiCond194) R6 load(1, XDATA, add(CFA_XSP16, literal(-12)))
          CFI (cfiCond194) VB load(1, XDATA, add(CFA_XSP16, literal(-11)))
          CFI (cfiCond194) V0 load(1, XDATA, add(CFA_XSP16, literal(-10)))
          CFI (cfiCond194) V1 load(1, XDATA, add(CFA_XSP16, literal(-9)))
          CFI (cfiCond194) V2 load(1, XDATA, add(CFA_XSP16, literal(-8)))
          CFI (cfiCond194) V3 load(1, XDATA, add(CFA_XSP16, literal(-7)))
          CFI (cfiCond194) R7 load(1, XDATA, add(CFA_XSP16, literal(-6)))
          CFI (cfiCond194) ?RET_LOW load(1, XDATA, add(CFA_XSP16, literal(-5)))
          CFI (cfiCond194) ?RET_HIGH load(1, XDATA, add(CFA_XSP16, literal(-4)))
          CFI (cfiCond194) ?BRET_EXT load(1, XDATA, add(CFA_XSP16, literal(-3)))
          CFI (cfiCond194) DPL0 load(1, XDATA, add(CFA_XSP16, literal(-2)))
          CFI (cfiCond194) DPH0 load(1, XDATA, add(CFA_XSP16, literal(-1)))
          CFI (cfiCond194) CFA_SP SP+-2
          CFI (cfiCond194) CFA_XSP16 add(XSP16, 17)
          CFI Block cfiCond195 Using cfiCommon0
          CFI (cfiCond195) Function initiatorScanRspCB
          CFI (cfiCond195) Conditional ??CrossCallReturnLabel_56
          CFI (cfiCond195) R6 load(1, XDATA, add(CFA_XSP16, literal(-12)))
          CFI (cfiCond195) VB load(1, XDATA, add(CFA_XSP16, literal(-11)))
          CFI (cfiCond195) V0 load(1, XDATA, add(CFA_XSP16, literal(-10)))
          CFI (cfiCond195) V1 load(1, XDATA, add(CFA_XSP16, literal(-9)))
          CFI (cfiCond195) V2 load(1, XDATA, add(CFA_XSP16, literal(-8)))
          CFI (cfiCond195) V3 load(1, XDATA, add(CFA_XSP16, literal(-7)))
          CFI (cfiCond195) R7 load(1, XDATA, add(CFA_XSP16, literal(-6)))
          CFI (cfiCond195) ?RET_LOW load(1, XDATA, add(CFA_XSP16, literal(-5)))
          CFI (cfiCond195) ?RET_HIGH load(1, XDATA, add(CFA_XSP16, literal(-4)))
          CFI (cfiCond195) ?BRET_EXT load(1, XDATA, add(CFA_XSP16, literal(-3)))
          CFI (cfiCond195) DPL0 load(1, XDATA, add(CFA_XSP16, literal(-2)))
          CFI (cfiCond195) DPH0 load(1, XDATA, add(CFA_XSP16, literal(-1)))
          CFI (cfiCond195) CFA_SP SP+-2
          CFI (cfiCond195) CFA_XSP16 add(XSP16, 17)
          CFI Block cfiPicker196 Using cfiCommon1
          CFI (cfiPicker196) NoFunction
          CFI (cfiPicker196) Picker
        MOV       DPL,A
        CLR       A
        ADDC      A,R7
        MOV       DPH,A
        MOVX      A,@DPTR
        RET
          CFI EndBlock cfiCond190
          CFI EndBlock cfiCond191
          CFI EndBlock cfiCond192
          CFI EndBlock cfiCond193
          CFI EndBlock cfiCond194
          CFI EndBlock cfiCond195
          CFI EndBlock cfiPicker196
// 1559 
// 1560 /*********************************************************************
// 1561  * @fn      initiatorScanRspCB
// 1562  *
// 1563  * @brief   This callback is called to process a Scan Response command.
// 1564  *
// 1565  * @param   srcAddr - sender's address
// 1566  * @param   pRsp - parsed command
// 1567  *
// 1568  * @return  ZStatus_t
// 1569  */

        RSEG BANKED_CODE:HUGECODE:NOROOT(0)
// 1570 static ZStatus_t initiatorScanRspCB( afAddrType_t *srcAddr, bdbTLScanRsp_t *pRsp )
initiatorScanRspCB:
          CFI Block cfiBlock197 Using cfiCommon0
          CFI Function initiatorScanRspCB
        CODE
// 1571 {
        FUNCALL initiatorScanRspCB, osal_get_timeoutEx
        LOCFRAME ISTACK, 0, STACK
        LOCFRAME PSTACK, 0, STACK
        LOCFRAME XSTACK, 17, STACK
        LOCFRAME IOVERLAY, 0, STATIC
        LOCFRAME DOVERLAY, 0, STATIC
        ARGFRAME ISTACK, 0, STACK
        ARGFRAME PSTACK, 0, STACK
        ARGFRAME XSTACK, 17, STACK
        ARGFRAME IOVERLAY, 0, STATIC
        ARGFRAME DOVERLAY, 0, STATIC
        FUNCALL initiatorScanRspCB, touchLink_IsValidTransID
        LOCFRAME ISTACK, 0, STACK
        LOCFRAME PSTACK, 0, STACK
        LOCFRAME XSTACK, 17, STACK
        LOCFRAME IOVERLAY, 0, STATIC
        LOCFRAME DOVERLAY, 0, STATIC
        ARGFRAME ISTACK, 0, STACK
        ARGFRAME PSTACK, 0, STACK
        ARGFRAME XSTACK, 17, STACK
        ARGFRAME IOVERLAY, 0, STATIC
        ARGFRAME DOVERLAY, 0, STATIC
        FUNCALL initiatorScanRspCB, touchLink_GetNwkKeyBitmask
        LOCFRAME ISTACK, 0, STACK
        LOCFRAME PSTACK, 0, STACK
        LOCFRAME XSTACK, 17, STACK
        LOCFRAME IOVERLAY, 0, STATIC
        LOCFRAME DOVERLAY, 0, STATIC
        ARGFRAME ISTACK, 0, STACK
        ARGFRAME PSTACK, 0, STACK
        ARGFRAME XSTACK, 17, STACK
        ARGFRAME IOVERLAY, 0, STATIC
        ARGFRAME DOVERLAY, 0, STATIC
        FUNCALL initiatorScanRspCB, touchLink_GetMsgRssi
        LOCFRAME ISTACK, 0, STACK
        LOCFRAME PSTACK, 0, STACK
        LOCFRAME XSTACK, 17, STACK
        LOCFRAME IOVERLAY, 0, STATIC
        LOCFRAME DOVERLAY, 0, STATIC
        ARGFRAME ISTACK, 0, STACK
        ARGFRAME PSTACK, 0, STACK
        ARGFRAME XSTACK, 17, STACK
        ARGFRAME IOVERLAY, 0, STATIC
        ARGFRAME DOVERLAY, 0, STATIC
        FUNCALL initiatorScanRspCB, ZMacGetReq
        LOCFRAME ISTACK, 0, STACK
        LOCFRAME PSTACK, 0, STACK
        LOCFRAME XSTACK, 17, STACK
        LOCFRAME IOVERLAY, 0, STATIC
        LOCFRAME DOVERLAY, 0, STATIC
        ARGFRAME ISTACK, 0, STACK
        ARGFRAME PSTACK, 0, STACK
        ARGFRAME XSTACK, 17, STACK
        ARGFRAME IOVERLAY, 0, STATIC
        ARGFRAME DOVERLAY, 0, STATIC
        FUNCALL initiatorScanRspCB, bdbTL_Send_DeviceInfoReq
        LOCFRAME ISTACK, 0, STACK
        LOCFRAME PSTACK, 0, STACK
        LOCFRAME XSTACK, 18, STACK
        LOCFRAME IOVERLAY, 0, STATIC
        LOCFRAME DOVERLAY, 0, STATIC
        ARGFRAME ISTACK, 0, STACK
        ARGFRAME PSTACK, 0, STACK
        ARGFRAME XSTACK, 18, STACK
        ARGFRAME IOVERLAY, 0, STATIC
        ARGFRAME DOVERLAY, 0, STATIC
        FUNCALL initiatorScanRspCB, bdb_AddRespondentNode
        LOCFRAME ISTACK, 0, STACK
        LOCFRAME PSTACK, 0, STACK
        LOCFRAME XSTACK, 17, STACK
        LOCFRAME IOVERLAY, 0, STATIC
        LOCFRAME DOVERLAY, 0, STATIC
        ARGFRAME ISTACK, 0, STACK
        ARGFRAME PSTACK, 0, STACK
        ARGFRAME XSTACK, 17, STACK
        ARGFRAME IOVERLAY, 0, STATIC
        ARGFRAME DOVERLAY, 0, STATIC
        REQUIRE ?V0
        REQUIRE ?V1
        REQUIRE ?V2
        REQUIRE ?V3
        MOV       A,#-0xc
        LCALL     ?BANKED_ENTER_XDATA
          CFI DPH0 load(1, XDATA, add(CFA_XSP16, literal(-1)))
          CFI DPL0 load(1, XDATA, add(CFA_XSP16, literal(-2)))
          CFI ?BRET_EXT load(1, XDATA, add(CFA_XSP16, literal(-3)))
          CFI ?RET_HIGH load(1, XDATA, add(CFA_XSP16, literal(-4)))
          CFI ?RET_LOW load(1, XDATA, add(CFA_XSP16, literal(-5)))
          CFI R7 load(1, XDATA, add(CFA_XSP16, literal(-6)))
          CFI V3 load(1, XDATA, add(CFA_XSP16, literal(-7)))
          CFI V2 load(1, XDATA, add(CFA_XSP16, literal(-8)))
          CFI V1 load(1, XDATA, add(CFA_XSP16, literal(-9)))
          CFI V0 load(1, XDATA, add(CFA_XSP16, literal(-10)))
          CFI VB load(1, XDATA, add(CFA_XSP16, literal(-11)))
          CFI R6 load(1, XDATA, add(CFA_XSP16, literal(-12)))
          CFI CFA_SP SP+0
          CFI CFA_XSP16 add(XSP16, 12)
        ; Saved register size: 12
        ; Auto size: 5
        MOV       A,#-0x5
        LCALL     ?ALLOC_XSTACK8
          CFI CFA_XSP16 add(XSP16, 17)
        MOV       ?V0,R2
        MOV       ?V1,R3
        MOV       A,R4
        MOV       R6,A
        MOV       A,R5
        MOV       R7,A
// 1572   bdbFindingBindingRespondent_t *pCurr;
// 1573   
// 1574   if ( osal_get_timeoutEx( touchLinkInitiator_TaskID, TOUCHLINK_TL_SCAN_BASE_EVT )
// 1575        && ( touchLink_IsValidTransID( pRsp->transID ) )
// 1576        && ( pRsp->keyBitmask & touchLink_GetNwkKeyBitmask() ) )
        ; Setup parameters for call to function osal_get_timeoutEx
        LCALL     ?Subroutine7 & 0xFFFF
??CrossCallReturnLabel_163:
        JNZ       $+5
        LJMP      ??initiatorScanRspCB_0 & 0xFFFF
        ; Setup parameters for call to function touchLink_IsValidTransID
        MOV       DPL,R6
        MOV       DPH,R7
        LCALL     ?XLOAD_R2345
        LCALL     ?Subroutine34 & 0xFFFF
??CrossCallReturnLabel_41:
        JNZ       $+5
        LJMP      ??initiatorScanRspCB_0 & 0xFFFF
        ; Setup parameters for call to function touchLink_GetNwkKeyBitmask
        LCALL     `??touchLink_GetNwkKeyBitmask::?relay`; Banked call to: touchLink_GetNwkKeyBitmask
        MOV       ?V2,R2
        MOV       ?V3,R3
        MOV       R0,?V2
        MOV       R1,?V3
        MOV       DPL,R6
        MOV       DPH,R7
        INC       DPTR
        INC       DPTR
        INC       DPTR
        INC       DPTR
        INC       DPTR
        INC       DPTR
        INC       DPTR
        INC       DPTR
        INC       DPTR
        MOVX      A,@DPTR
        ANL       A,R0
        MOV       R0,A
        INC       DPTR
        MOVX      A,@DPTR
        ANL       A,R1
        MOV       R1,A
        MOV       A,R0
        ORL       A,R1
        JNZ       $+5
        LJMP      ??initiatorScanRspCB_0 & 0xFFFF
// 1577   {
// 1578 
// 1579     uint8 selectThisTarget = FALSE;
// 1580     int8 rssi = touchLink_GetMsgRssi();
        ; Setup parameters for call to function touchLink_GetMsgRssi
        LCALL     `??touchLink_GetMsgRssi::?relay`; Banked call to: touchLink_GetMsgRssi
        MOV       A,R1
        MOV       ?V2,A
// 1581     if ( pfnSelectDiscDevCB != NULL )
        MOV       DPTR,#pfnSelectDiscDevCB
        LCALL     ??Subroutine62_0 & 0xFFFF
??CrossCallReturnLabel_129:
        JZ        ??initiatorScanRspCB_1
// 1582     {
// 1583       selectThisTarget = pfnSelectDiscDevCB( pRsp, rssi );
// 1584     }
// 1585     // Default selection - according to RSSI
// 1586     else if ( rssi > TOUCHLINK_WORST_RSSI )
// 1587     {
// 1588       if ( ( rssi + pRsp->rssiCorrection ) > selectedTarget.lastRssi )
// 1589       {
// 1590         // Better RSSI, select this target
// 1591         selectThisTarget = TRUE;
// 1592       }
// 1593     }
// 1594 
// 1595     if ( selectThisTarget )
        ; Setup parameters for indirect call
        MOV       R1,?V2
        MOV       A,R6
        MOV       R2,A
        MOV       A,R7
        MOV       R3,A
        LCALL     ??Subroutine64_0 & 0xFFFF
??CrossCallReturnLabel_157:
        LCALL     ?CALL_IND
        MOV       A,R1
        JNZ       ??initiatorScanRspCB_2
        LJMP      ??CrossCallReturnLabel_5 & 0xFFFF
??initiatorScanRspCB_1:
        MOV       A,?V2
        LCALL     ?Subroutine35 & 0xFFFF
??CrossCallReturnLabel_48:
        JNC       $+5
        LJMP      ??CrossCallReturnLabel_5 & 0xFFFF
        MOV       DPTR,#selectedTarget + 53
        MOVX      A,@DPTR
        MOV       R2,A
        RLC       A
        SUBB      A,0xE0 /* A   */
        MOV       R3,A
        MOV       A,?V2
        MOV       R0,A
        RLC       A
        SUBB      A,0xE0 /* A   */
        MOV       R1,A
        MOV       DPL,R6
        MOV       DPH,R7
        INC       DPTR
        INC       DPTR
        INC       DPTR
        INC       DPTR
        MOVX      A,@DPTR
        MOV       R4,A
        MOV       A,R0
        ADD       A,R4
        MOV       R0,A
        CLR       A
        ADDC      A,R1
        MOV       R1,A
        CLR       C
        MOV       A,R2
        SUBB      A,R0
        MOV       A,R3
        SUBB      A,R1
        MOV       C,0xD0 /* PSW */.2
        XRL       A,PSW
        RLC       A
        JC        $+5
        LJMP      ??CrossCallReturnLabel_5 & 0xFFFF
// 1596     {
// 1597       selectedTarget.scanRsp = *pRsp;
??initiatorScanRspCB_2:
        MOV       DPL,R6
        MOV       DPH,R7
        MOV       R4,#selectedTarget & 0xff
        MOV       R5,#(selectedTarget >> 8) & 0xff
        MOV       A,#0x26
        LCALL     ?MOVE_LONG8_XDATA_XDATA
// 1598       selectedTarget.lastRssi = rssi;
        MOV       A,?V2
        MOV       DPTR,#selectedTarget + 53
        LCALL     ?Subroutine28 & 0xFFFF
// 1599       selectedTarget.srcAddr = *srcAddr;
??CrossCallReturnLabel_25:
        MOV       A,#0xc
        LCALL     ?MOVE_LONG8_XDATA_XDATA
// 1600       selectedTarget.srcAddr.panId = 0xFFFF;
        MOV       DPTR,#selectedTarget + 48
        MOV       A,#-0x1
        MOVX      @DPTR,A
        INC       DPTR
        MOVX      @DPTR,A
// 1601       touchLinkResponseID = pRsp->responseID;
        LCALL     ?Subroutine39 & 0xFFFF
??CrossCallReturnLabel_61:
        LCALL     ?XLOAD_R0123
        MOV       DPTR,#touchLinkResponseID
        LCALL     ?XSTORE_R0123
// 1602       touchLinkTransID = pRsp->transID;
        MOV       DPL,R6
        MOV       DPH,R7
        LCALL     ?XLOAD_R0123
        MOV       DPTR,#touchLinkTransID
        LCALL     ?XSTORE_R0123
// 1603 
// 1604       // Remember channel we heard back this scan response on
// 1605       ZMacGetReq( ZMacChannel, &(selectedTarget.rxChannel));
        ; Setup parameters for call to function ZMacGetReq
        MOV       R2,#(selectedTarget + 52) & 0xff
        MOV       R3,#((selectedTarget + 52) >> 8) & 0xff
        MOV       R1,#-0x1f
        LCALL     `??ZMacGetReq::?relay`; Banked call to: ZMacGetReq
// 1606 
// 1607       if ( pRsp->numSubDevices > 1 )
        MOV       A,R6
        ADD       A,#0x1d
        LCALL     ?Subroutine37 & 0xFFFF
??CrossCallReturnLabel_55:
        CLR       C
        SUBB      A,#0x2
        JC        ??initiatorScanRspCB_3
// 1608       {
// 1609         selectedTarget.scanRsp.deviceInfo.endpoint = DEV_INFO_INVALID_EP;
        MOV       DPTR,#selectedTarget + 31
        MOV       A,#-0x2
        MOVX      @DPTR,A
// 1610 
// 1611         bdbTLDeviceInfoReq_t devInfoReq;
// 1612         devInfoReq.transID = pRsp->transID;
        MOV       DPL,R6
        MOV       DPH,R7
        LCALL     ?XLOAD_R0123
        MOV       DPL,?XSP + 0
        MOV       DPH,?XSP + 1
        LCALL     ?XSTORE_R0123
// 1613         devInfoReq.startIndex = 0;
        MOV       A,#0x4
        LCALL     ?XSTACK_DISP0_8
        CLR       A
        LCALL     ?Subroutine27 & 0xFFFF
// 1614 
// 1615         return bdbTL_Send_DeviceInfoReq( TOUCHLINK_INTERNAL_ENDPOINT, srcAddr,
// 1616                                     &devInfoReq, initiatorSeqNum++ );
// 1617       }
??CrossCallReturnLabel_24:
        MOV       ?V2,A
        MOV       R0,#?V2
        LCALL     ?PUSH_XSTACK_I_ONE
          CFI CFA_XSP16 add(XSP16, 18)
        MOV       A,#0x1
        LCALL     ?XSTACK_DISP102_8
        MOV       R2,?V0
        MOV       R3,?V1
        MOV       R1,#0xd
        LCALL     `??bdbTL_Send_DeviceInfoReq::?relay`; Banked call to: bdbTL_Send_DeviceInfoReq
        MOV       A,#0x1
        LCALL     ?DEALLOC_XSTACK8
          CFI CFA_XSP16 add(XSP16, 17)
        SJMP      ??initiatorScanRspCB_4
// 1618         
// 1619       // add new node to the list
// 1620       pCurr = bdb_AddRespondentNode( &pRespondentHead, NULL );
??initiatorScanRspCB_3:
        ; Setup parameters for call to function bdb_AddRespondentNode
        MOV       R4,#0x0
        MOV       R5,#0x0
        MOV       R2,#pRespondentHead & 0xff
        MOV       R3,#(pRespondentHead >> 8) & 0xff
        LCALL     `??bdb_AddRespondentNode::?relay`; Banked call to: bdb_AddRespondentNode
        MOV       ?V2,R2
        MOV       ?V3,R3
        MOV       R0,?V2
        MOV       R1,?V3
// 1621       
// 1622       if ( pCurr != NULL )
        MOV       A,R2
        ORL       A,R1
        JZ        ??CrossCallReturnLabel_5
// 1623       {
// 1624         pCurr->data.endPoint = pRsp->deviceInfo.endpoint;
        MOV       A,R6
        ADD       A,#0x1f
        LCALL     ?Subroutine37 & 0xFFFF
// 1625         pCurr->data.panId = srcAddr->panId;
// 1626       }
// 1627     }
??CrossCallReturnLabel_56:
        MOV       DPL,R2
        MOV       DPH,R3
        INC       DPTR
        INC       DPTR
        INC       DPTR
        INC       DPTR
        INC       DPTR
        INC       DPTR
        INC       DPTR
        INC       DPTR
        INC       DPTR
        LCALL     ?Subroutine28 & 0xFFFF
??CrossCallReturnLabel_26:
        INC       DPTR
        INC       DPTR
        INC       DPTR
        INC       DPTR
        INC       DPTR
        INC       DPTR
        INC       DPTR
        INC       DPTR
        INC       DPTR
        INC       DPTR
        LCALL     ?Subroutine12 & 0xFFFF
// 1628     return ( ZSuccess );
??CrossCallReturnLabel_5:
        MOV       R1,#0x0
        SJMP      ??initiatorScanRspCB_4
// 1629   }
// 1630 
// 1631   return ( ZFailure );
??initiatorScanRspCB_0:
        MOV       R1,#0x1
??initiatorScanRspCB_4:
        MOV       A,#0x5
          CFI EndBlock cfiBlock197
        REQUIRE ?Subroutine3
        ; // Fall through to label ?Subroutine3
// 1632 }

        RSEG BANKED_CODE:HUGECODE:NOROOT(0)
?Subroutine3:
          CFI Block cfiBlock198 Using cfiCommon0
          CFI NoFunction
          CFI CFA_SP SP+0
          CFI CFA_XSP16 add(XSP16, 21)
          CFI VB load(1, XDATA, add(CFA_XSP16, literal(-11)))
          CFI DPL0 load(1, XDATA, add(CFA_XSP16, literal(-2)))
          CFI DPH0 load(1, XDATA, add(CFA_XSP16, literal(-1)))
          CFI R6 load(1, XDATA, add(CFA_XSP16, literal(-12)))
          CFI R7 load(1, XDATA, add(CFA_XSP16, literal(-6)))
          CFI V0 load(1, XDATA, add(CFA_XSP16, literal(-10)))
          CFI V1 load(1, XDATA, add(CFA_XSP16, literal(-9)))
          CFI V2 load(1, XDATA, add(CFA_XSP16, literal(-8)))
          CFI V3 load(1, XDATA, add(CFA_XSP16, literal(-7)))
          CFI ?BRET_EXT load(1, XDATA, add(CFA_XSP16, literal(-3)))
          CFI ?RET_HIGH load(1, XDATA, add(CFA_XSP16, literal(-4)))
          CFI ?RET_LOW load(1, XDATA, add(CFA_XSP16, literal(-5)))
          CFI Invalid
        LCALL     ?DEALLOC_XSTACK8
          CFI EndBlock cfiBlock198
        REQUIRE ??Subroutine61_0
        ; // Fall through to label ??Subroutine61_0

        RSEG BANKED_CODE:HUGECODE:NOROOT(0)
??Subroutine61_0:
          CFI Block cfiBlock199 Using cfiCommon0
          CFI NoFunction
          CFI CFA_SP SP+0
          CFI CFA_XSP16 add(XSP16, 12)
          CFI VB load(1, XDATA, add(CFA_XSP16, literal(-11)))
          CFI DPL0 load(1, XDATA, add(CFA_XSP16, literal(-2)))
          CFI DPH0 load(1, XDATA, add(CFA_XSP16, literal(-1)))
          CFI R6 load(1, XDATA, add(CFA_XSP16, literal(-12)))
          CFI R7 load(1, XDATA, add(CFA_XSP16, literal(-6)))
          CFI V0 load(1, XDATA, add(CFA_XSP16, literal(-10)))
          CFI V1 load(1, XDATA, add(CFA_XSP16, literal(-9)))
          CFI V2 load(1, XDATA, add(CFA_XSP16, literal(-8)))
          CFI V3 load(1, XDATA, add(CFA_XSP16, literal(-7)))
          CFI ?BRET_EXT load(1, XDATA, add(CFA_XSP16, literal(-3)))
          CFI ?RET_HIGH load(1, XDATA, add(CFA_XSP16, literal(-4)))
          CFI ?RET_LOW load(1, XDATA, add(CFA_XSP16, literal(-5)))
        MOV       R7,#0x4
        LJMP      ?BANKED_LEAVE_XDATA
          CFI EndBlock cfiBlock199

        RSEG BANKED_CODE:HUGECODE:NOROOT(0)
?Subroutine39:
          CFI Block cfiCond200 Using cfiCommon0
          CFI Function touchLink_InitiatorSendScanRsp
          CFI Conditional ??CrossCallReturnLabel_60
          CFI R6 load(1, XDATA, add(CFA_XSP16, literal(-22)))
          CFI VB load(1, XDATA, add(CFA_XSP16, literal(-21)))
          CFI V0 load(1, XDATA, add(CFA_XSP16, literal(-20)))
          CFI V1 load(1, XDATA, add(CFA_XSP16, literal(-19)))
          CFI V2 load(1, XDATA, add(CFA_XSP16, literal(-18)))
          CFI V3 load(1, XDATA, add(CFA_XSP16, literal(-17)))
          CFI V4 load(1, XDATA, add(CFA_XSP16, literal(-16)))
          CFI V5 load(1, XDATA, add(CFA_XSP16, literal(-15)))
          CFI V6 load(1, XDATA, add(CFA_XSP16, literal(-14)))
          CFI V7 load(1, XDATA, add(CFA_XSP16, literal(-13)))
          CFI V8 load(1, XDATA, add(CFA_XSP16, literal(-12)))
          CFI V9 load(1, XDATA, add(CFA_XSP16, literal(-11)))
          CFI V10 load(1, XDATA, add(CFA_XSP16, literal(-10)))
          CFI V11 load(1, XDATA, add(CFA_XSP16, literal(-9)))
          CFI V12 load(1, XDATA, add(CFA_XSP16, literal(-8)))
          CFI V13 load(1, XDATA, add(CFA_XSP16, literal(-7)))
          CFI R7 load(1, XDATA, add(CFA_XSP16, literal(-6)))
          CFI ?RET_LOW load(1, XDATA, add(CFA_XSP16, literal(-5)))
          CFI ?RET_HIGH load(1, XDATA, add(CFA_XSP16, literal(-4)))
          CFI ?BRET_EXT load(1, XDATA, add(CFA_XSP16, literal(-3)))
          CFI DPL0 load(1, XDATA, add(CFA_XSP16, literal(-2)))
          CFI DPH0 load(1, XDATA, add(CFA_XSP16, literal(-1)))
          CFI CFA_SP SP+-2
          CFI CFA_XSP16 add(XSP16, 22)
          CFI Block cfiCond201 Using cfiCommon0
          CFI (cfiCond201) Function initiatorScanRspCB
          CFI (cfiCond201) Conditional ??CrossCallReturnLabel_61
          CFI (cfiCond201) R6 load(1, XDATA, add(CFA_XSP16, literal(-12)))
          CFI (cfiCond201) VB load(1, XDATA, add(CFA_XSP16, literal(-11)))
          CFI (cfiCond201) V0 load(1, XDATA, add(CFA_XSP16, literal(-10)))
          CFI (cfiCond201) V1 load(1, XDATA, add(CFA_XSP16, literal(-9)))
          CFI (cfiCond201) V2 load(1, XDATA, add(CFA_XSP16, literal(-8)))
          CFI (cfiCond201) V3 load(1, XDATA, add(CFA_XSP16, literal(-7)))
          CFI (cfiCond201) R7 load(1, XDATA, add(CFA_XSP16, literal(-6)))
          CFI (cfiCond201) ?RET_LOW load(1, XDATA, add(CFA_XSP16, literal(-5)))
          CFI (cfiCond201) ?RET_HIGH load(1, XDATA, add(CFA_XSP16, literal(-4)))
          CFI (cfiCond201) ?BRET_EXT load(1, XDATA, add(CFA_XSP16, literal(-3)))
          CFI (cfiCond201) DPL0 load(1, XDATA, add(CFA_XSP16, literal(-2)))
          CFI (cfiCond201) DPH0 load(1, XDATA, add(CFA_XSP16, literal(-1)))
          CFI (cfiCond201) CFA_SP SP+-2
          CFI (cfiCond201) CFA_XSP16 add(XSP16, 17)
          CFI Block cfiPicker202 Using cfiCommon1
          CFI (cfiPicker202) NoFunction
          CFI (cfiPicker202) Picker
        MOV       A,R6
        ADD       A,#0xb
        MOV       DPL,A
        CLR       A
        ADDC      A,R7
        MOV       DPH,A
        RET
          CFI EndBlock cfiCond200
          CFI EndBlock cfiCond201
          CFI EndBlock cfiPicker202

        RSEG BANKED_CODE:HUGECODE:NOROOT(0)
?Subroutine34:
          CFI Block cfiCond203 Using cfiCommon0
          CFI Function touchLinkInitiator_event_loop
          CFI Conditional ??CrossCallReturnLabel_36
          CFI R6 load(1, XDATA, add(CFA_XSP16, literal(-16)))
          CFI VB load(1, XDATA, add(CFA_XSP16, literal(-15)))
          CFI V0 load(1, XDATA, add(CFA_XSP16, literal(-14)))
          CFI V1 load(1, XDATA, add(CFA_XSP16, literal(-13)))
          CFI V2 load(1, XDATA, add(CFA_XSP16, literal(-12)))
          CFI V3 load(1, XDATA, add(CFA_XSP16, literal(-11)))
          CFI V4 load(1, XDATA, add(CFA_XSP16, literal(-10)))
          CFI V5 load(1, XDATA, add(CFA_XSP16, literal(-9)))
          CFI V6 load(1, XDATA, add(CFA_XSP16, literal(-8)))
          CFI V7 load(1, XDATA, add(CFA_XSP16, literal(-7)))
          CFI R7 load(1, XDATA, add(CFA_XSP16, literal(-6)))
          CFI ?RET_LOW load(1, XDATA, add(CFA_XSP16, literal(-5)))
          CFI ?RET_HIGH load(1, XDATA, add(CFA_XSP16, literal(-4)))
          CFI ?BRET_EXT load(1, XDATA, add(CFA_XSP16, literal(-3)))
          CFI DPL0 load(1, XDATA, add(CFA_XSP16, literal(-2)))
          CFI DPH0 load(1, XDATA, add(CFA_XSP16, literal(-1)))
          CFI CFA_SP SP+-2
          CFI CFA_XSP16 add(XSP16, 75)
          CFI Block cfiCond204 Using cfiCommon0
          CFI (cfiCond204) Function initiatorDeviceInfoReqCB
          CFI (cfiCond204) Conditional ??CrossCallReturnLabel_37
          CFI (cfiCond204) R6 load(1, XDATA, add(CFA_XSP16, literal(-11)))
          CFI (cfiCond204) VB load(1, XDATA, add(CFA_XSP16, literal(-10)))
          CFI (cfiCond204) V0 load(1, XDATA, add(CFA_XSP16, literal(-9)))
          CFI (cfiCond204) V1 load(1, XDATA, add(CFA_XSP16, literal(-8)))
          CFI (cfiCond204) V2 load(1, XDATA, add(CFA_XSP16, literal(-7)))
          CFI (cfiCond204) R7 load(1, XDATA, add(CFA_XSP16, literal(-6)))
          CFI (cfiCond204) ?RET_LOW load(1, XDATA, add(CFA_XSP16, literal(-5)))
          CFI (cfiCond204) ?RET_HIGH load(1, XDATA, add(CFA_XSP16, literal(-4)))
          CFI (cfiCond204) ?BRET_EXT load(1, XDATA, add(CFA_XSP16, literal(-3)))
          CFI (cfiCond204) DPL0 load(1, XDATA, add(CFA_XSP16, literal(-2)))
          CFI (cfiCond204) DPH0 load(1, XDATA, add(CFA_XSP16, literal(-1)))
          CFI (cfiCond204) CFA_SP SP+-2
          CFI (cfiCond204) CFA_XSP16 add(XSP16, 11)
          CFI Block cfiCond205 Using cfiCommon0
          CFI (cfiCond205) Function initiatorIdentifyReqCB
          CFI (cfiCond205) Conditional ??CrossCallReturnLabel_38
          CFI (cfiCond205) R6 load(1, XDATA, add(CFA_XSP16, literal(-10)))
          CFI (cfiCond205) VB load(1, XDATA, add(CFA_XSP16, literal(-9)))
          CFI (cfiCond205) V0 load(1, XDATA, add(CFA_XSP16, literal(-8)))
          CFI (cfiCond205) V1 load(1, XDATA, add(CFA_XSP16, literal(-7)))
          CFI (cfiCond205) R7 load(1, XDATA, add(CFA_XSP16, literal(-6)))
          CFI (cfiCond205) ?RET_LOW load(1, XDATA, add(CFA_XSP16, literal(-5)))
          CFI (cfiCond205) ?RET_HIGH load(1, XDATA, add(CFA_XSP16, literal(-4)))
          CFI (cfiCond205) ?BRET_EXT load(1, XDATA, add(CFA_XSP16, literal(-3)))
          CFI (cfiCond205) DPL0 load(1, XDATA, add(CFA_XSP16, literal(-2)))
          CFI (cfiCond205) DPH0 load(1, XDATA, add(CFA_XSP16, literal(-1)))
          CFI (cfiCond205) CFA_SP SP+-2
          CFI (cfiCond205) CFA_XSP16 add(XSP16, 10)
          CFI Block cfiCond206 Using cfiCommon0
          CFI (cfiCond206) Function initiatorNwkJoinReqCB
          CFI (cfiCond206) Conditional ??CrossCallReturnLabel_39
          CFI (cfiCond206) R6 load(1, XDATA, add(CFA_XSP16, literal(-16)))
          CFI (cfiCond206) VB load(1, XDATA, add(CFA_XSP16, literal(-15)))
          CFI (cfiCond206) V0 load(1, XDATA, add(CFA_XSP16, literal(-14)))
          CFI (cfiCond206) V1 load(1, XDATA, add(CFA_XSP16, literal(-13)))
          CFI (cfiCond206) V2 load(1, XDATA, add(CFA_XSP16, literal(-12)))
          CFI (cfiCond206) V3 load(1, XDATA, add(CFA_XSP16, literal(-11)))
          CFI (cfiCond206) V4 load(1, XDATA, add(CFA_XSP16, literal(-10)))
          CFI (cfiCond206) V5 load(1, XDATA, add(CFA_XSP16, literal(-9)))
          CFI (cfiCond206) V6 load(1, XDATA, add(CFA_XSP16, literal(-8)))
          CFI (cfiCond206) V7 load(1, XDATA, add(CFA_XSP16, literal(-7)))
          CFI (cfiCond206) R7 load(1, XDATA, add(CFA_XSP16, literal(-6)))
          CFI (cfiCond206) ?RET_LOW load(1, XDATA, add(CFA_XSP16, literal(-5)))
          CFI (cfiCond206) ?RET_HIGH load(1, XDATA, add(CFA_XSP16, literal(-4)))
          CFI (cfiCond206) ?BRET_EXT load(1, XDATA, add(CFA_XSP16, literal(-3)))
          CFI (cfiCond206) DPL0 load(1, XDATA, add(CFA_XSP16, literal(-2)))
          CFI (cfiCond206) DPH0 load(1, XDATA, add(CFA_XSP16, literal(-1)))
          CFI (cfiCond206) CFA_SP SP+-2
          CFI (cfiCond206) CFA_XSP16 add(XSP16, 33)
          CFI Block cfiCond207 Using cfiCommon0
          CFI (cfiCond207) Function initiatorNwkUpdateReqCB
          CFI (cfiCond207) Conditional ??CrossCallReturnLabel_40
          CFI (cfiCond207) R6 load(1, XDATA, add(CFA_XSP16, literal(-10)))
          CFI (cfiCond207) VB load(1, XDATA, add(CFA_XSP16, literal(-9)))
          CFI (cfiCond207) V0 load(1, XDATA, add(CFA_XSP16, literal(-8)))
          CFI (cfiCond207) V1 load(1, XDATA, add(CFA_XSP16, literal(-7)))
          CFI (cfiCond207) R7 load(1, XDATA, add(CFA_XSP16, literal(-6)))
          CFI (cfiCond207) ?RET_LOW load(1, XDATA, add(CFA_XSP16, literal(-5)))
          CFI (cfiCond207) ?RET_HIGH load(1, XDATA, add(CFA_XSP16, literal(-4)))
          CFI (cfiCond207) ?BRET_EXT load(1, XDATA, add(CFA_XSP16, literal(-3)))
          CFI (cfiCond207) DPL0 load(1, XDATA, add(CFA_XSP16, literal(-2)))
          CFI (cfiCond207) DPH0 load(1, XDATA, add(CFA_XSP16, literal(-1)))
          CFI (cfiCond207) CFA_SP SP+-2
          CFI (cfiCond207) CFA_XSP16 add(XSP16, 10)
          CFI Block cfiCond208 Using cfiCommon0
          CFI (cfiCond208) Function initiatorScanRspCB
          CFI (cfiCond208) Conditional ??CrossCallReturnLabel_41
          CFI (cfiCond208) R6 load(1, XDATA, add(CFA_XSP16, literal(-12)))
          CFI (cfiCond208) VB load(1, XDATA, add(CFA_XSP16, literal(-11)))
          CFI (cfiCond208) V0 load(1, XDATA, add(CFA_XSP16, literal(-10)))
          CFI (cfiCond208) V1 load(1, XDATA, add(CFA_XSP16, literal(-9)))
          CFI (cfiCond208) V2 load(1, XDATA, add(CFA_XSP16, literal(-8)))
          CFI (cfiCond208) V3 load(1, XDATA, add(CFA_XSP16, literal(-7)))
          CFI (cfiCond208) R7 load(1, XDATA, add(CFA_XSP16, literal(-6)))
          CFI (cfiCond208) ?RET_LOW load(1, XDATA, add(CFA_XSP16, literal(-5)))
          CFI (cfiCond208) ?RET_HIGH load(1, XDATA, add(CFA_XSP16, literal(-4)))
          CFI (cfiCond208) ?BRET_EXT load(1, XDATA, add(CFA_XSP16, literal(-3)))
          CFI (cfiCond208) DPL0 load(1, XDATA, add(CFA_XSP16, literal(-2)))
          CFI (cfiCond208) DPH0 load(1, XDATA, add(CFA_XSP16, literal(-1)))
          CFI (cfiCond208) CFA_SP SP+-2
          CFI (cfiCond208) CFA_XSP16 add(XSP16, 17)
          CFI Block cfiCond209 Using cfiCommon0
          CFI (cfiCond209) Function initiatorDeviceInfoRspCB
          CFI (cfiCond209) Conditional ??CrossCallReturnLabel_42
          CFI (cfiCond209) R6 load(1, XDATA, add(CFA_XSP16, literal(-20)))
          CFI (cfiCond209) VB load(1, XDATA, add(CFA_XSP16, literal(-19)))
          CFI (cfiCond209) V0 load(1, XDATA, add(CFA_XSP16, literal(-18)))
          CFI (cfiCond209) V1 load(1, XDATA, add(CFA_XSP16, literal(-17)))
          CFI (cfiCond209) V2 load(1, XDATA, add(CFA_XSP16, literal(-16)))
          CFI (cfiCond209) V3 load(1, XDATA, add(CFA_XSP16, literal(-15)))
          CFI (cfiCond209) V4 load(1, XDATA, add(CFA_XSP16, literal(-14)))
          CFI (cfiCond209) V5 load(1, XDATA, add(CFA_XSP16, literal(-13)))
          CFI (cfiCond209) V6 load(1, XDATA, add(CFA_XSP16, literal(-12)))
          CFI (cfiCond209) V7 load(1, XDATA, add(CFA_XSP16, literal(-11)))
          CFI (cfiCond209) V8 load(1, XDATA, add(CFA_XSP16, literal(-10)))
          CFI (cfiCond209) V9 load(1, XDATA, add(CFA_XSP16, literal(-9)))
          CFI (cfiCond209) V10 load(1, XDATA, add(CFA_XSP16, literal(-8)))
          CFI (cfiCond209) V11 load(1, XDATA, add(CFA_XSP16, literal(-7)))
          CFI (cfiCond209) R7 load(1, XDATA, add(CFA_XSP16, literal(-6)))
          CFI (cfiCond209) ?RET_LOW load(1, XDATA, add(CFA_XSP16, literal(-5)))
          CFI (cfiCond209) ?RET_HIGH load(1, XDATA, add(CFA_XSP16, literal(-4)))
          CFI (cfiCond209) ?BRET_EXT load(1, XDATA, add(CFA_XSP16, literal(-3)))
          CFI (cfiCond209) DPL0 load(1, XDATA, add(CFA_XSP16, literal(-2)))
          CFI (cfiCond209) DPH0 load(1, XDATA, add(CFA_XSP16, literal(-1)))
          CFI (cfiCond209) CFA_SP SP+-2
          CFI (cfiCond209) CFA_XSP16 add(XSP16, 58)
          CFI Block cfiCond210 Using cfiCommon0
          CFI (cfiCond210) Function initiatorNwkStartRspCB
          CFI (cfiCond210) Conditional ??CrossCallReturnLabel_43
          CFI (cfiCond210) R6 load(1, XDATA, add(CFA_XSP16, literal(-9)))
          CFI (cfiCond210) VB load(1, XDATA, add(CFA_XSP16, literal(-8)))
          CFI (cfiCond210) V0 load(1, XDATA, add(CFA_XSP16, literal(-7)))
          CFI (cfiCond210) R7 load(1, XDATA, add(CFA_XSP16, literal(-6)))
          CFI (cfiCond210) ?RET_LOW load(1, XDATA, add(CFA_XSP16, literal(-5)))
          CFI (cfiCond210) ?RET_HIGH load(1, XDATA, add(CFA_XSP16, literal(-4)))
          CFI (cfiCond210) ?BRET_EXT load(1, XDATA, add(CFA_XSP16, literal(-3)))
          CFI (cfiCond210) DPL0 load(1, XDATA, add(CFA_XSP16, literal(-2)))
          CFI (cfiCond210) DPH0 load(1, XDATA, add(CFA_XSP16, literal(-1)))
          CFI (cfiCond210) CFA_SP SP+-2
          CFI (cfiCond210) CFA_XSP16 add(XSP16, 9)
          CFI Block cfiCond211 Using cfiCommon0
          CFI (cfiCond211) Function initiatorNwkJoinRtrRspCB
          CFI (cfiCond211) Conditional ??CrossCallReturnLabel_44
          CFI (cfiCond211) R6 load(1, XDATA, add(CFA_XSP16, literal(-11)))
          CFI (cfiCond211) VB load(1, XDATA, add(CFA_XSP16, literal(-10)))
          CFI (cfiCond211) V0 load(1, XDATA, add(CFA_XSP16, literal(-9)))
          CFI (cfiCond211) V1 load(1, XDATA, add(CFA_XSP16, literal(-8)))
          CFI (cfiCond211) V2 load(1, XDATA, add(CFA_XSP16, literal(-7)))
          CFI (cfiCond211) R7 load(1, XDATA, add(CFA_XSP16, literal(-6)))
          CFI (cfiCond211) ?RET_LOW load(1, XDATA, add(CFA_XSP16, literal(-5)))
          CFI (cfiCond211) ?RET_HIGH load(1, XDATA, add(CFA_XSP16, literal(-4)))
          CFI (cfiCond211) ?BRET_EXT load(1, XDATA, add(CFA_XSP16, literal(-3)))
          CFI (cfiCond211) DPL0 load(1, XDATA, add(CFA_XSP16, literal(-2)))
          CFI (cfiCond211) DPH0 load(1, XDATA, add(CFA_XSP16, literal(-1)))
          CFI (cfiCond211) CFA_SP SP+-2
          CFI (cfiCond211) CFA_XSP16 add(XSP16, 11)
          CFI Block cfiCond212 Using cfiCommon0
          CFI (cfiCond212) Function initiatorNwkJoinEDRspCB
          CFI (cfiCond212) Conditional ??CrossCallReturnLabel_45
          CFI (cfiCond212) R6 load(1, XDATA, add(CFA_XSP16, literal(-11)))
          CFI (cfiCond212) VB load(1, XDATA, add(CFA_XSP16, literal(-10)))
          CFI (cfiCond212) V0 load(1, XDATA, add(CFA_XSP16, literal(-9)))
          CFI (cfiCond212) V1 load(1, XDATA, add(CFA_XSP16, literal(-8)))
          CFI (cfiCond212) V2 load(1, XDATA, add(CFA_XSP16, literal(-7)))
          CFI (cfiCond212) R7 load(1, XDATA, add(CFA_XSP16, literal(-6)))
          CFI (cfiCond212) ?RET_LOW load(1, XDATA, add(CFA_XSP16, literal(-5)))
          CFI (cfiCond212) ?RET_HIGH load(1, XDATA, add(CFA_XSP16, literal(-4)))
          CFI (cfiCond212) ?BRET_EXT load(1, XDATA, add(CFA_XSP16, literal(-3)))
          CFI (cfiCond212) DPL0 load(1, XDATA, add(CFA_XSP16, literal(-2)))
          CFI (cfiCond212) DPH0 load(1, XDATA, add(CFA_XSP16, literal(-1)))
          CFI (cfiCond212) CFA_SP SP+-2
          CFI (cfiCond212) CFA_XSP16 add(XSP16, 11)
          CFI Block cfiPicker213 Using cfiCommon1
          CFI (cfiPicker213) NoFunction
          CFI (cfiPicker213) Picker
        LCALL     `??touchLink_IsValidTransID::?relay`; Banked call to: touchLink_IsValidTransID
        MOV       A,R1
        RET
          CFI EndBlock cfiCond203
          CFI EndBlock cfiCond204
          CFI EndBlock cfiCond205
          CFI EndBlock cfiCond206
          CFI EndBlock cfiCond207
          CFI EndBlock cfiCond208
          CFI EndBlock cfiCond209
          CFI EndBlock cfiCond210
          CFI EndBlock cfiCond211
          CFI EndBlock cfiCond212
          CFI EndBlock cfiPicker213

        RSEG BANKED_CODE:HUGECODE:NOROOT(0)
?Subroutine27:
          CFI Block cfiCond214 Using cfiCommon0
          CFI Function touchLinkInitiator_event_loop
          CFI Conditional ??CrossCallReturnLabel_23
          CFI R6 load(1, XDATA, add(CFA_XSP16, literal(-16)))
          CFI VB load(1, XDATA, add(CFA_XSP16, literal(-15)))
          CFI V0 load(1, XDATA, add(CFA_XSP16, literal(-14)))
          CFI V1 load(1, XDATA, add(CFA_XSP16, literal(-13)))
          CFI V2 load(1, XDATA, add(CFA_XSP16, literal(-12)))
          CFI V3 load(1, XDATA, add(CFA_XSP16, literal(-11)))
          CFI V4 load(1, XDATA, add(CFA_XSP16, literal(-10)))
          CFI V5 load(1, XDATA, add(CFA_XSP16, literal(-9)))
          CFI V6 load(1, XDATA, add(CFA_XSP16, literal(-8)))
          CFI V7 load(1, XDATA, add(CFA_XSP16, literal(-7)))
          CFI R7 load(1, XDATA, add(CFA_XSP16, literal(-6)))
          CFI ?RET_LOW load(1, XDATA, add(CFA_XSP16, literal(-5)))
          CFI ?RET_HIGH load(1, XDATA, add(CFA_XSP16, literal(-4)))
          CFI ?BRET_EXT load(1, XDATA, add(CFA_XSP16, literal(-3)))
          CFI DPL0 load(1, XDATA, add(CFA_XSP16, literal(-2)))
          CFI DPH0 load(1, XDATA, add(CFA_XSP16, literal(-1)))
          CFI CFA_SP SP+-2
          CFI CFA_XSP16 add(XSP16, 75)
          CFI Block cfiCond215 Using cfiCommon0
          CFI (cfiCond215) Function initiatorScanRspCB
          CFI (cfiCond215) Conditional ??CrossCallReturnLabel_24
          CFI (cfiCond215) R6 load(1, XDATA, add(CFA_XSP16, literal(-12)))
          CFI (cfiCond215) VB load(1, XDATA, add(CFA_XSP16, literal(-11)))
          CFI (cfiCond215) V0 load(1, XDATA, add(CFA_XSP16, literal(-10)))
          CFI (cfiCond215) V1 load(1, XDATA, add(CFA_XSP16, literal(-9)))
          CFI (cfiCond215) V2 load(1, XDATA, add(CFA_XSP16, literal(-8)))
          CFI (cfiCond215) V3 load(1, XDATA, add(CFA_XSP16, literal(-7)))
          CFI (cfiCond215) R7 load(1, XDATA, add(CFA_XSP16, literal(-6)))
          CFI (cfiCond215) ?RET_LOW load(1, XDATA, add(CFA_XSP16, literal(-5)))
          CFI (cfiCond215) ?RET_HIGH load(1, XDATA, add(CFA_XSP16, literal(-4)))
          CFI (cfiCond215) ?BRET_EXT load(1, XDATA, add(CFA_XSP16, literal(-3)))
          CFI (cfiCond215) DPL0 load(1, XDATA, add(CFA_XSP16, literal(-2)))
          CFI (cfiCond215) DPH0 load(1, XDATA, add(CFA_XSP16, literal(-1)))
          CFI (cfiCond215) CFA_SP SP+-2
          CFI (cfiCond215) CFA_XSP16 add(XSP16, 17)
          CFI Block cfiPicker216 Using cfiCommon1
          CFI (cfiPicker216) NoFunction
          CFI (cfiPicker216) Picker
        MOVX      @DPTR,A
        MOV       DPTR,#initiatorSeqNum
        MOVX      A,@DPTR
        MOV       R0,A
        MOV       A,#0x1
        ADD       A,R0
        MOVX      @DPTR,A
        ; Setup parameters for call to function bdbTL_Send_NwkUpdateReq
        ; Setup parameters for call to function bdbTL_Send_DeviceInfoReq
        MOV       A,R0
        RET
          CFI EndBlock cfiCond214
          CFI EndBlock cfiCond215
          CFI EndBlock cfiPicker216

        RSEG BANKED_CODE:HUGECODE:NOROOT(0)
?Subroutine13:
          CFI Block cfiCond217 Using cfiCommon0
          CFI Function touchLinkInitiator_event_loop
          CFI Conditional ??CrossCallReturnLabel_124
          CFI R6 load(1, XDATA, add(CFA_XSP16, literal(-16)))
          CFI VB load(1, XDATA, add(CFA_XSP16, literal(-15)))
          CFI V0 load(1, XDATA, add(CFA_XSP16, literal(-14)))
          CFI V1 load(1, XDATA, add(CFA_XSP16, literal(-13)))
          CFI V2 load(1, XDATA, add(CFA_XSP16, literal(-12)))
          CFI V3 load(1, XDATA, add(CFA_XSP16, literal(-11)))
          CFI V4 load(1, XDATA, add(CFA_XSP16, literal(-10)))
          CFI V5 load(1, XDATA, add(CFA_XSP16, literal(-9)))
          CFI V6 load(1, XDATA, add(CFA_XSP16, literal(-8)))
          CFI V7 load(1, XDATA, add(CFA_XSP16, literal(-7)))
          CFI R7 load(1, XDATA, add(CFA_XSP16, literal(-6)))
          CFI ?RET_LOW load(1, XDATA, add(CFA_XSP16, literal(-5)))
          CFI ?RET_HIGH load(1, XDATA, add(CFA_XSP16, literal(-4)))
          CFI ?BRET_EXT load(1, XDATA, add(CFA_XSP16, literal(-3)))
          CFI DPL0 load(1, XDATA, add(CFA_XSP16, literal(-2)))
          CFI DPH0 load(1, XDATA, add(CFA_XSP16, literal(-1)))
          CFI CFA_SP SP+-2
          CFI CFA_XSP16 add(XSP16, 75)
          CFI Block cfiCond218 Using cfiCommon0
          CFI (cfiCond218) Function touchLinkInitiator_event_loop
          CFI (cfiCond218) Conditional ??CrossCallReturnLabel_125
          CFI (cfiCond218) R6 load(1, XDATA, add(CFA_XSP16, literal(-16)))
          CFI (cfiCond218) VB load(1, XDATA, add(CFA_XSP16, literal(-15)))
          CFI (cfiCond218) V0 load(1, XDATA, add(CFA_XSP16, literal(-14)))
          CFI (cfiCond218) V1 load(1, XDATA, add(CFA_XSP16, literal(-13)))
          CFI (cfiCond218) V2 load(1, XDATA, add(CFA_XSP16, literal(-12)))
          CFI (cfiCond218) V3 load(1, XDATA, add(CFA_XSP16, literal(-11)))
          CFI (cfiCond218) V4 load(1, XDATA, add(CFA_XSP16, literal(-10)))
          CFI (cfiCond218) V5 load(1, XDATA, add(CFA_XSP16, literal(-9)))
          CFI (cfiCond218) V6 load(1, XDATA, add(CFA_XSP16, literal(-8)))
          CFI (cfiCond218) V7 load(1, XDATA, add(CFA_XSP16, literal(-7)))
          CFI (cfiCond218) R7 load(1, XDATA, add(CFA_XSP16, literal(-6)))
          CFI (cfiCond218) ?RET_LOW load(1, XDATA, add(CFA_XSP16, literal(-5)))
          CFI (cfiCond218) ?RET_HIGH load(1, XDATA, add(CFA_XSP16, literal(-4)))
          CFI (cfiCond218) ?BRET_EXT load(1, XDATA, add(CFA_XSP16, literal(-3)))
          CFI (cfiCond218) DPL0 load(1, XDATA, add(CFA_XSP16, literal(-2)))
          CFI (cfiCond218) DPH0 load(1, XDATA, add(CFA_XSP16, literal(-1)))
          CFI (cfiCond218) CFA_SP SP+-2
          CFI (cfiCond218) CFA_XSP16 add(XSP16, 75)
          CFI Block cfiPicker219 Using cfiCommon1
          CFI (cfiPicker219) NoFunction
          CFI (cfiPicker219) Picker
        MOVX      @DPTR,A
        MOV       DPTR,#pfnNotifyAppCB
          CFI EndBlock cfiCond217
          CFI EndBlock cfiCond218
          CFI EndBlock cfiPicker219
        REQUIRE ??Subroutine62_0
        ; // Fall through to label ??Subroutine62_0

        RSEG BANKED_CODE:HUGECODE:NOROOT(0)
??Subroutine62_0:
          CFI Block cfiCond220 Using cfiCommon0
          CFI Function touchLinkInitiator_event_loop
          CFI Conditional ??CrossCallReturnLabel_127
          CFI R6 load(1, XDATA, add(CFA_XSP16, literal(-16)))
          CFI VB load(1, XDATA, add(CFA_XSP16, literal(-15)))
          CFI V0 load(1, XDATA, add(CFA_XSP16, literal(-14)))
          CFI V1 load(1, XDATA, add(CFA_XSP16, literal(-13)))
          CFI V2 load(1, XDATA, add(CFA_XSP16, literal(-12)))
          CFI V3 load(1, XDATA, add(CFA_XSP16, literal(-11)))
          CFI V4 load(1, XDATA, add(CFA_XSP16, literal(-10)))
          CFI V5 load(1, XDATA, add(CFA_XSP16, literal(-9)))
          CFI V6 load(1, XDATA, add(CFA_XSP16, literal(-8)))
          CFI V7 load(1, XDATA, add(CFA_XSP16, literal(-7)))
          CFI R7 load(1, XDATA, add(CFA_XSP16, literal(-6)))
          CFI ?RET_LOW load(1, XDATA, add(CFA_XSP16, literal(-5)))
          CFI ?RET_HIGH load(1, XDATA, add(CFA_XSP16, literal(-4)))
          CFI ?BRET_EXT load(1, XDATA, add(CFA_XSP16, literal(-3)))
          CFI DPL0 load(1, XDATA, add(CFA_XSP16, literal(-2)))
          CFI DPH0 load(1, XDATA, add(CFA_XSP16, literal(-1)))
          CFI CFA_SP SP+-2
          CFI CFA_XSP16 add(XSP16, 75)
          CFI Block cfiCond221 Using cfiCommon0
          CFI (cfiCond221) Function touchLinkInitiator_event_loop
          CFI (cfiCond221) Conditional ??CrossCallReturnLabel_128
          CFI (cfiCond221) R6 load(1, XDATA, add(CFA_XSP16, literal(-16)))
          CFI (cfiCond221) VB load(1, XDATA, add(CFA_XSP16, literal(-15)))
          CFI (cfiCond221) V0 load(1, XDATA, add(CFA_XSP16, literal(-14)))
          CFI (cfiCond221) V1 load(1, XDATA, add(CFA_XSP16, literal(-13)))
          CFI (cfiCond221) V2 load(1, XDATA, add(CFA_XSP16, literal(-12)))
          CFI (cfiCond221) V3 load(1, XDATA, add(CFA_XSP16, literal(-11)))
          CFI (cfiCond221) V4 load(1, XDATA, add(CFA_XSP16, literal(-10)))
          CFI (cfiCond221) V5 load(1, XDATA, add(CFA_XSP16, literal(-9)))
          CFI (cfiCond221) V6 load(1, XDATA, add(CFA_XSP16, literal(-8)))
          CFI (cfiCond221) V7 load(1, XDATA, add(CFA_XSP16, literal(-7)))
          CFI (cfiCond221) R7 load(1, XDATA, add(CFA_XSP16, literal(-6)))
          CFI (cfiCond221) ?RET_LOW load(1, XDATA, add(CFA_XSP16, literal(-5)))
          CFI (cfiCond221) ?RET_HIGH load(1, XDATA, add(CFA_XSP16, literal(-4)))
          CFI (cfiCond221) ?BRET_EXT load(1, XDATA, add(CFA_XSP16, literal(-3)))
          CFI (cfiCond221) DPL0 load(1, XDATA, add(CFA_XSP16, literal(-2)))
          CFI (cfiCond221) DPH0 load(1, XDATA, add(CFA_XSP16, literal(-1)))
          CFI (cfiCond221) CFA_SP SP+-2
          CFI (cfiCond221) CFA_XSP16 add(XSP16, 75)
          CFI Block cfiCond222 Using cfiCommon0
          CFI (cfiCond222) Function initiatorScanRspCB
          CFI (cfiCond222) Conditional ??CrossCallReturnLabel_129
          CFI (cfiCond222) R6 load(1, XDATA, add(CFA_XSP16, literal(-12)))
          CFI (cfiCond222) VB load(1, XDATA, add(CFA_XSP16, literal(-11)))
          CFI (cfiCond222) V0 load(1, XDATA, add(CFA_XSP16, literal(-10)))
          CFI (cfiCond222) V1 load(1, XDATA, add(CFA_XSP16, literal(-9)))
          CFI (cfiCond222) V2 load(1, XDATA, add(CFA_XSP16, literal(-8)))
          CFI (cfiCond222) V3 load(1, XDATA, add(CFA_XSP16, literal(-7)))
          CFI (cfiCond222) R7 load(1, XDATA, add(CFA_XSP16, literal(-6)))
          CFI (cfiCond222) ?RET_LOW load(1, XDATA, add(CFA_XSP16, literal(-5)))
          CFI (cfiCond222) ?RET_HIGH load(1, XDATA, add(CFA_XSP16, literal(-4)))
          CFI (cfiCond222) ?BRET_EXT load(1, XDATA, add(CFA_XSP16, literal(-3)))
          CFI (cfiCond222) DPL0 load(1, XDATA, add(CFA_XSP16, literal(-2)))
          CFI (cfiCond222) DPH0 load(1, XDATA, add(CFA_XSP16, literal(-1)))
          CFI (cfiCond222) CFA_SP SP+-2
          CFI (cfiCond222) CFA_XSP16 add(XSP16, 17)
          CFI Block cfiCond223 Using cfiCommon0
          CFI (cfiCond223) Function initiatorSendNwkJoinReq
          CFI (cfiCond223) Conditional ??CrossCallReturnLabel_126
          CFI (cfiCond223) R6 load(1, XDATA, add(CFA_XSP16, literal(-16)))
          CFI (cfiCond223) VB load(1, XDATA, add(CFA_XSP16, literal(-15)))
          CFI (cfiCond223) V0 load(1, XDATA, add(CFA_XSP16, literal(-14)))
          CFI (cfiCond223) V1 load(1, XDATA, add(CFA_XSP16, literal(-13)))
          CFI (cfiCond223) V2 load(1, XDATA, add(CFA_XSP16, literal(-12)))
          CFI (cfiCond223) V3 load(1, XDATA, add(CFA_XSP16, literal(-11)))
          CFI (cfiCond223) V4 load(1, XDATA, add(CFA_XSP16, literal(-10)))
          CFI (cfiCond223) V5 load(1, XDATA, add(CFA_XSP16, literal(-9)))
          CFI (cfiCond223) V6 load(1, XDATA, add(CFA_XSP16, literal(-8)))
          CFI (cfiCond223) V7 load(1, XDATA, add(CFA_XSP16, literal(-7)))
          CFI (cfiCond223) R7 load(1, XDATA, add(CFA_XSP16, literal(-6)))
          CFI (cfiCond223) ?RET_LOW load(1, XDATA, add(CFA_XSP16, literal(-5)))
          CFI (cfiCond223) ?RET_HIGH load(1, XDATA, add(CFA_XSP16, literal(-4)))
          CFI (cfiCond223) ?BRET_EXT load(1, XDATA, add(CFA_XSP16, literal(-3)))
          CFI (cfiCond223) DPL0 load(1, XDATA, add(CFA_XSP16, literal(-2)))
          CFI (cfiCond223) DPH0 load(1, XDATA, add(CFA_XSP16, literal(-1)))
          CFI (cfiCond223) CFA_SP SP+-2
          CFI (cfiCond223) CFA_XSP16 add(XSP16, 16)
          CFI Block cfiCond224 Using cfiCommon0
          CFI (cfiCond224) Function touchLinkInitiator_event_loop
          CFI (cfiCond224) Conditional ??CrossCallReturnLabel_124
          CFI (cfiCond224) R6 load(1, XDATA, add(CFA_XSP16, literal(-16)))
          CFI (cfiCond224) VB load(1, XDATA, add(CFA_XSP16, literal(-15)))
          CFI (cfiCond224) V0 load(1, XDATA, add(CFA_XSP16, literal(-14)))
          CFI (cfiCond224) V1 load(1, XDATA, add(CFA_XSP16, literal(-13)))
          CFI (cfiCond224) V2 load(1, XDATA, add(CFA_XSP16, literal(-12)))
          CFI (cfiCond224) V3 load(1, XDATA, add(CFA_XSP16, literal(-11)))
          CFI (cfiCond224) V4 load(1, XDATA, add(CFA_XSP16, literal(-10)))
          CFI (cfiCond224) V5 load(1, XDATA, add(CFA_XSP16, literal(-9)))
          CFI (cfiCond224) V6 load(1, XDATA, add(CFA_XSP16, literal(-8)))
          CFI (cfiCond224) V7 load(1, XDATA, add(CFA_XSP16, literal(-7)))
          CFI (cfiCond224) R7 load(1, XDATA, add(CFA_XSP16, literal(-6)))
          CFI (cfiCond224) ?RET_LOW load(1, XDATA, add(CFA_XSP16, literal(-5)))
          CFI (cfiCond224) ?RET_HIGH load(1, XDATA, add(CFA_XSP16, literal(-4)))
          CFI (cfiCond224) ?BRET_EXT load(1, XDATA, add(CFA_XSP16, literal(-3)))
          CFI (cfiCond224) DPL0 load(1, XDATA, add(CFA_XSP16, literal(-2)))
          CFI (cfiCond224) DPH0 load(1, XDATA, add(CFA_XSP16, literal(-1)))
          CFI (cfiCond224) CFA_SP SP+-2
          CFI (cfiCond224) CFA_XSP16 add(XSP16, 75)
          CFI Block cfiCond225 Using cfiCommon0
          CFI (cfiCond225) Function touchLinkInitiator_event_loop
          CFI (cfiCond225) Conditional ??CrossCallReturnLabel_125
          CFI (cfiCond225) R6 load(1, XDATA, add(CFA_XSP16, literal(-16)))
          CFI (cfiCond225) VB load(1, XDATA, add(CFA_XSP16, literal(-15)))
          CFI (cfiCond225) V0 load(1, XDATA, add(CFA_XSP16, literal(-14)))
          CFI (cfiCond225) V1 load(1, XDATA, add(CFA_XSP16, literal(-13)))
          CFI (cfiCond225) V2 load(1, XDATA, add(CFA_XSP16, literal(-12)))
          CFI (cfiCond225) V3 load(1, XDATA, add(CFA_XSP16, literal(-11)))
          CFI (cfiCond225) V4 load(1, XDATA, add(CFA_XSP16, literal(-10)))
          CFI (cfiCond225) V5 load(1, XDATA, add(CFA_XSP16, literal(-9)))
          CFI (cfiCond225) V6 load(1, XDATA, add(CFA_XSP16, literal(-8)))
          CFI (cfiCond225) V7 load(1, XDATA, add(CFA_XSP16, literal(-7)))
          CFI (cfiCond225) R7 load(1, XDATA, add(CFA_XSP16, literal(-6)))
          CFI (cfiCond225) ?RET_LOW load(1, XDATA, add(CFA_XSP16, literal(-5)))
          CFI (cfiCond225) ?RET_HIGH load(1, XDATA, add(CFA_XSP16, literal(-4)))
          CFI (cfiCond225) ?BRET_EXT load(1, XDATA, add(CFA_XSP16, literal(-3)))
          CFI (cfiCond225) DPL0 load(1, XDATA, add(CFA_XSP16, literal(-2)))
          CFI (cfiCond225) DPH0 load(1, XDATA, add(CFA_XSP16, literal(-1)))
          CFI (cfiCond225) CFA_SP SP+-2
          CFI (cfiCond225) CFA_XSP16 add(XSP16, 75)
          CFI Block cfiPicker226 Using cfiCommon1
          CFI (cfiPicker226) NoFunction
          CFI (cfiPicker226) Picker
        LCALL     ?Subroutine41 & 0xFFFF
??CrossCallReturnLabel_155:
        MOV       A,R0
        ORL       A,R1
        RET
          CFI EndBlock cfiCond220
          CFI EndBlock cfiCond221
          CFI EndBlock cfiCond222
          CFI EndBlock cfiCond223
          CFI EndBlock cfiCond224
          CFI EndBlock cfiCond225
          CFI EndBlock cfiPicker226
// 1633 
// 1634 /*********************************************************************
// 1635  * @fn      initiatorDeviceInfoRspCB
// 1636  *
// 1637  * @brief   This callback is called to process a Device Information
// 1638  *          Response command.
// 1639  *          If sub-device is selected, selectedTarget data is updated.
// 1640  *
// 1641  * @param   srcAddr - sender's address
// 1642  * @param   pRsp - parsed command
// 1643  *
// 1644  * @return  ZStatus_t
// 1645  */

        RSEG BANKED_CODE:HUGECODE:NOROOT(0)
// 1646 static ZStatus_t initiatorDeviceInfoRspCB( afAddrType_t *srcAddr, bdbTLDeviceInfoRsp_t *pRsp )
initiatorDeviceInfoRspCB:
          CFI Block cfiBlock227 Using cfiCommon0
          CFI Function initiatorDeviceInfoRspCB
        CODE
// 1647 {
        FUNCALL initiatorDeviceInfoRspCB, touchLink_IsValidTransID
        LOCFRAME ISTACK, 0, STACK
        LOCFRAME PSTACK, 0, STACK
        LOCFRAME XSTACK, 58, STACK
        LOCFRAME IOVERLAY, 0, STATIC
        LOCFRAME DOVERLAY, 0, STATIC
        ARGFRAME ISTACK, 0, STACK
        ARGFRAME PSTACK, 0, STACK
        ARGFRAME XSTACK, 58, STACK
        ARGFRAME IOVERLAY, 0, STATIC
        ARGFRAME DOVERLAY, 0, STATIC
        FUNCALL initiatorDeviceInfoRspCB, bdb_AddRespondentNode
        LOCFRAME ISTACK, 0, STACK
        LOCFRAME PSTACK, 0, STACK
        LOCFRAME XSTACK, 58, STACK
        LOCFRAME IOVERLAY, 0, STATIC
        LOCFRAME DOVERLAY, 0, STATIC
        ARGFRAME ISTACK, 0, STACK
        ARGFRAME PSTACK, 0, STACK
        ARGFRAME XSTACK, 58, STACK
        ARGFRAME IOVERLAY, 0, STATIC
        ARGFRAME DOVERLAY, 0, STATIC
        FUNCALL initiatorDeviceInfoRspCB, osal_memset
        LOCFRAME ISTACK, 0, STACK
        LOCFRAME PSTACK, 0, STACK
        LOCFRAME XSTACK, 58, STACK
        LOCFRAME IOVERLAY, 0, STATIC
        LOCFRAME DOVERLAY, 0, STATIC
        ARGFRAME ISTACK, 0, STACK
        ARGFRAME PSTACK, 0, STACK
        ARGFRAME XSTACK, 58, STACK
        ARGFRAME IOVERLAY, 0, STATIC
        ARGFRAME DOVERLAY, 0, STATIC
        FUNCALL initiatorDeviceInfoRspCB, sAddrExtCpy
        LOCFRAME ISTACK, 0, STACK
        LOCFRAME PSTACK, 0, STACK
        LOCFRAME XSTACK, 58, STACK
        LOCFRAME IOVERLAY, 0, STATIC
        LOCFRAME DOVERLAY, 0, STATIC
        ARGFRAME ISTACK, 0, STACK
        ARGFRAME PSTACK, 0, STACK
        ARGFRAME XSTACK, 58, STACK
        ARGFRAME IOVERLAY, 0, STATIC
        ARGFRAME DOVERLAY, 0, STATIC
        FUNCALL initiatorDeviceInfoRspCB, initiatorClearSelectedTarget
        LOCFRAME ISTACK, 0, STACK
        LOCFRAME PSTACK, 0, STACK
        LOCFRAME XSTACK, 58, STACK
        LOCFRAME IOVERLAY, 0, STATIC
        LOCFRAME DOVERLAY, 0, STATIC
        ARGFRAME ISTACK, 0, STACK
        ARGFRAME PSTACK, 0, STACK
        ARGFRAME XSTACK, 58, STACK
        ARGFRAME IOVERLAY, 0, STATIC
        ARGFRAME DOVERLAY, 0, STATIC
        FUNCALL initiatorDeviceInfoRspCB, bdb_zclRespondentListClean
        LOCFRAME ISTACK, 0, STACK
        LOCFRAME PSTACK, 0, STACK
        LOCFRAME XSTACK, 58, STACK
        LOCFRAME IOVERLAY, 0, STATIC
        LOCFRAME DOVERLAY, 0, STATIC
        ARGFRAME ISTACK, 0, STACK
        ARGFRAME PSTACK, 0, STACK
        ARGFRAME XSTACK, 58, STACK
        ARGFRAME IOVERLAY, 0, STATIC
        ARGFRAME DOVERLAY, 0, STATIC
        REQUIRE ?V0
        REQUIRE ?V1
        REQUIRE ?V2
        REQUIRE ?V3
        REQUIRE ?V4
        REQUIRE ?V5
        REQUIRE ?V6
        REQUIRE ?V7
        REQUIRE ?V8
        REQUIRE ?V9
        REQUIRE ?V10
        REQUIRE ?V11
        MOV       A,#-0x14
        LCALL     ?BANKED_ENTER_XDATA
          CFI DPH0 load(1, XDATA, add(CFA_XSP16, literal(-1)))
          CFI DPL0 load(1, XDATA, add(CFA_XSP16, literal(-2)))
          CFI ?BRET_EXT load(1, XDATA, add(CFA_XSP16, literal(-3)))
          CFI ?RET_HIGH load(1, XDATA, add(CFA_XSP16, literal(-4)))
          CFI ?RET_LOW load(1, XDATA, add(CFA_XSP16, literal(-5)))
          CFI R7 load(1, XDATA, add(CFA_XSP16, literal(-6)))
          CFI V11 load(1, XDATA, add(CFA_XSP16, literal(-7)))
          CFI V10 load(1, XDATA, add(CFA_XSP16, literal(-8)))
          CFI V9 load(1, XDATA, add(CFA_XSP16, literal(-9)))
          CFI V8 load(1, XDATA, add(CFA_XSP16, literal(-10)))
          CFI V7 load(1, XDATA, add(CFA_XSP16, literal(-11)))
          CFI V6 load(1, XDATA, add(CFA_XSP16, literal(-12)))
          CFI V5 load(1, XDATA, add(CFA_XSP16, literal(-13)))
          CFI V4 load(1, XDATA, add(CFA_XSP16, literal(-14)))
          CFI V3 load(1, XDATA, add(CFA_XSP16, literal(-15)))
          CFI V2 load(1, XDATA, add(CFA_XSP16, literal(-16)))
          CFI V1 load(1, XDATA, add(CFA_XSP16, literal(-17)))
          CFI V0 load(1, XDATA, add(CFA_XSP16, literal(-18)))
          CFI VB load(1, XDATA, add(CFA_XSP16, literal(-19)))
          CFI R6 load(1, XDATA, add(CFA_XSP16, literal(-20)))
          CFI CFA_SP SP+0
          CFI CFA_XSP16 add(XSP16, 20)
        ; Saved register size: 20
        ; Auto size: 38
        MOV       A,#-0x26
        LCALL     ?ALLOC_XSTACK8
          CFI CFA_XSP16 add(XSP16, 58)
        MOV       ?V8,R2
        MOV       ?V9,R3
        MOV       ?V2,R4
        MOV       ?V3,R5
// 1648   bdbFindingBindingRespondent_t *pCurr;
// 1649   
// 1650   if ( touchLink_IsValidTransID( pRsp->transID )
// 1651        && ( srcAddr->addr.shortAddr == selectedTarget.srcAddr.addr.shortAddr ) )
        ; Setup parameters for call to function touchLink_IsValidTransID
        MOV       DPL,R4
        MOV       DPH,R5
        LCALL     ?XLOAD_R2345
        LCALL     ?Subroutine34 & 0xFFFF
??CrossCallReturnLabel_42:
        JNZ       $+5
        LJMP      ??initiatorDeviceInfoRspCB_0 & 0xFFFF
        MOV       DPL,?V8
        MOV       DPH,?V9
        LCALL     ??Subroutine63_0 & 0xFFFF
??CrossCallReturnLabel_145:
        MOV       DPTR,#selectedTarget + 38
        MOVX      A,@DPTR
        XRL       A,R0
        JNZ       ??initiatorDeviceInfoRspCB_1
        INC       DPTR
        MOVX      A,@DPTR
        XRL       A,R1
??initiatorDeviceInfoRspCB_1:
        JZ        $+5
        LJMP      ??initiatorDeviceInfoRspCB_0 & 0xFFFF
// 1652   {
// 1653     uint8 i;
// 1654     uint8 selectedIdx = pRsp->cnt;
        MOV       A,?V2
        ADD       A,#0x6
        MOV       ?V6,A
        CLR       A
        ADDC      A,?V3
        MOV       ?V7,A
        MOV       DPL,?V6
        MOV       DPH,A
        MOVX      A,@DPTR
        MOV       ?V1,A
// 1655     bdbTLScanRsp_t tmpInfo = selectedTarget.scanRsp;
        MOV       DPTR,#selectedTarget
        MOV       R4,?XSP + 0
        MOV       R5,?XSP + 1
        MOV       A,#0x26
        LCALL     ?MOVE_LONG8_XDATA_XDATA
// 1656 
// 1657     for ( i = 0; i < pRsp->cnt; ++i )
        MOV       ?V0,#0x0
        SJMP      ??initiatorDeviceInfoRspCB_2
// 1658     {
// 1659       if ( pfnSelectDiscDevCB != NULL )
// 1660       {
// 1661         tmpInfo.deviceInfo = pRsp->devInfoRec[i].deviceInfo;
??initiatorDeviceInfoRspCB_3:
        LCALL     ?Subroutine38 & 0xFFFF
??CrossCallReturnLabel_57:
        PUSH      DPL
          CFI CFA_SP SP+-1
        PUSH      DPH
          CFI CFA_SP SP+-2
        MOV       A,#0x1f
        LCALL     ?XSTACK_DISP0_8
        MOV       R4,DPL
        MOV       R5,DPH
        POP       DPH
          CFI CFA_SP SP+-1
        POP       DPL
          CFI CFA_SP SP+0
        MOV       A,#0x7
        LCALL     ?MOVE_LONG8_XDATA_XDATA
// 1662         if ( pfnSelectDiscDevCB( &tmpInfo, selectedTarget.lastRssi ) )
        ; Setup parameters for indirect call
        MOV       DPTR,#selectedTarget + 53
        MOVX      A,@DPTR
        MOV       R1,A
        MOV       R2,?XSP + 0
        MOV       R3,?XSP + 1
        MOV       DPTR,#pfnSelectDiscDevCB
        MOVX      A,@DPTR
        MOV       R0,A
        INC       DPTR
        LCALL     ??Subroutine64_0 & 0xFFFF
??CrossCallReturnLabel_158:
        LCALL     ?CALL_IND
        MOV       A,R1
        JZ        ??initiatorDeviceInfoRspCB_4
// 1663         {
// 1664           selectedIdx = i;
        MOV       ?V1,?V0
// 1665           // no break here to allow cycling through all sub-devices
// 1666         }
// 1667       }
??initiatorDeviceInfoRspCB_4:
        INC       ?V0
??initiatorDeviceInfoRspCB_2:
        MOV       DPL,?V6
        MOV       DPH,?V7
        MOVX      A,@DPTR
        MOV       R4,A
        MOV       A,?V0
        CLR       C
        SUBB      A,R4
        JNC       ??initiatorDeviceInfoRspCB_5
        MOV       A,?V0
        MOV       ?V4,A
        MOV       ?V5,#0x0
        MOV       A,#0x4
        MOV       R0,#?V4
        LCALL     ?S_SHL
        LCALL     ?Subroutine40 & 0xFFFF
??CrossCallReturnLabel_62:
        MOV       DPTR,#pfnSelectDiscDevCB
        LCALL     ?Subroutine21 & 0xFFFF
??CrossCallReturnLabel_16:
        MOV       A,R2
        ORL       A,R3
        JNZ       ??initiatorDeviceInfoRspCB_3
        MOV       A,R0
        ADD       A,#0x10
        MOV       DPL,A
        CLR       A
        ADDC      A,R1
        LCALL     ?Subroutine24 & 0xFFFF
??CrossCallReturnLabel_21:
        JNZ       ??initiatorDeviceInfoRspCB_6
        MOV       A,#-0x40
        XRL       A,R1
??initiatorDeviceInfoRspCB_6:
        JZ        ??initiatorDeviceInfoRspCB_7
        MOV       A,#0x4
        XRL       A,R0
        JNZ       ??initiatorDeviceInfoRspCB_8
        MOV       A,#0x1
        XRL       A,R1
??initiatorDeviceInfoRspCB_8:
        JNZ       ??initiatorDeviceInfoRspCB_4
// 1668       else
// 1669       {
// 1670         if ( ( pRsp->devInfoRec[i].deviceInfo.profileID == TOUCHLINK_PROFILE_ID ) ||
// 1671              ( pRsp->devInfoRec[i].deviceInfo.profileID == Z3_PROFILE_ID ) )
// 1672         {
// 1673           selectedIdx = i;
??initiatorDeviceInfoRspCB_7:
        MOV       ?V1,?V0
// 1674           break; // first match
// 1675         }
// 1676       }
// 1677     }
// 1678     if ( selectedIdx < pRsp->cnt )
??initiatorDeviceInfoRspCB_5:
        MOV       A,?V1
        CLR       C
        SUBB      A,R4
        JC        $+5
        LJMP      ??initiatorDeviceInfoRspCB_9 & 0xFFFF
// 1679     {
// 1680       // NOTE - the original scan response device info is overwritten with the
// 1681       // selected sub-device info, to complete the data required for the application.
// 1682       selectedTarget.scanRsp.deviceInfo = pRsp->devInfoRec[selectedIdx].deviceInfo;
        MOV       A,?V1
        MOV       ?V4,A
        MOV       ?V5,#0x0
        MOV       A,#0x4
        MOV       R0,#?V4
        LCALL     ?S_SHL
        LCALL     ?Subroutine40 & 0xFFFF
??CrossCallReturnLabel_63:
        LCALL     ?Subroutine38 & 0xFFFF
??CrossCallReturnLabel_58:
        MOV       R4,#(selectedTarget + 31) & 0xff
        MOV       R5,#((selectedTarget + 31) >> 8) & 0xff
        MOV       A,#0x7
        LCALL     ?MOVE_LONG8_XDATA_XDATA
// 1683       
// 1684       for ( i = 0; i < pRsp->cnt; ++i )
        MOV       ?V0,#0x0
??initiatorDeviceInfoRspCB_10:
        MOV       DPL,?V6
        MOV       DPH,?V7
        MOVX      A,@DPTR
        MOV       R0,A
        MOV       A,?V0
        CLR       C
        SUBB      A,R0
        JC        $+5
        LJMP      ??initiatorDeviceInfoRspCB_11 & 0xFFFF
// 1685       {
// 1686         if ( ( pRsp->devInfoRec[i].deviceInfo.profileID == TOUCHLINK_PROFILE_ID ) ||
// 1687              ( pRsp->devInfoRec[i].deviceInfo.profileID == Z3_PROFILE_ID ) )
        MOV       A,?V0
        MOV       ?V4,A
        MOV       ?V5,#0x0
        MOV       A,#0x4
        MOV       R0,#?V4
        LCALL     ?S_SHL
        MOV       A,?V2
        ADD       A,?V4
        MOV       ?V4,A
        MOV       A,?V3
        ADDC      A,?V5
        MOV       ?V5,A
        MOV       A,?V4
        ADD       A,#0x10
        MOV       DPL,A
        CLR       A
        ADDC      A,?V5
        LCALL     ?Subroutine24 & 0xFFFF
??CrossCallReturnLabel_22:
        JNZ       ??initiatorDeviceInfoRspCB_12
        MOV       A,#-0x40
        XRL       A,R1
??initiatorDeviceInfoRspCB_12:
        JZ        ??initiatorDeviceInfoRspCB_13
        MOV       A,#0x4
        XRL       A,R0
        JNZ       ??initiatorDeviceInfoRspCB_14
        MOV       A,#0x1
        XRL       A,R1
??initiatorDeviceInfoRspCB_14:
        JNZ       ??initiatorDeviceInfoRspCB_15
// 1688         {
// 1689           // add new node to the list
// 1690           pCurr = bdb_AddRespondentNode( &pRespondentHead, NULL );
??initiatorDeviceInfoRspCB_13:
        ; Setup parameters for call to function bdb_AddRespondentNode
        MOV       R4,#0x0
        MOV       R5,#0x0
        MOV       R2,#pRespondentHead & 0xff
        MOV       R3,#(pRespondentHead >> 8) & 0xff
        LCALL     `??bdb_AddRespondentNode::?relay`; Banked call to: bdb_AddRespondentNode
        MOV       ?V10,R2
        MOV       ?V11,R3
        MOV       R6,?V10
        MOV       R7,?V11
// 1691           
// 1692           if ( pCurr != NULL )
        MOV       A,R2
        ORL       A,R7
        JZ        ??initiatorDeviceInfoRspCB_15
// 1693           {
// 1694             osal_memset(pCurr, 0x00, sizeof(bdbFindingBindingRespondent_t));
        ; Setup parameters for call to function osal_memset
        MOV       R4,#0x11
        MOV       R5,#0x0
        MOV       R1,#0x0
        LCALL     `??osal_memset::?relay`; Banked call to: osal_memset
// 1695             pCurr->data.endPoint = pRsp->devInfoRec[i].deviceInfo.endpoint;
        MOV       A,?V4
        ADD       A,#0xf
        MOV       DPL,A
        CLR       A
        ADDC      A,?V5
        MOV       DPH,A
        MOVX      A,@DPTR
        MOV       DPL,R6
        MOV       DPH,R7
        INC       DPTR
        INC       DPTR
        INC       DPTR
        INC       DPTR
        INC       DPTR
        INC       DPTR
        INC       DPTR
        INC       DPTR
        INC       DPTR
        MOVX      @DPTR,A
// 1696             pCurr->data.panId = srcAddr->panId;
        MOV       DPL,?V8
        MOV       DPH,?V9
        INC       DPTR
        INC       DPTR
        INC       DPTR
        INC       DPTR
        INC       DPTR
        INC       DPTR
        INC       DPTR
        INC       DPTR
        INC       DPTR
        INC       DPTR
        LCALL     ?Subroutine11 & 0xFFFF
// 1697             osal_cpyExtAddr(selectedTargetIEEEAddr, pRsp->devInfoRec[i].ieeeAddr);
??CrossCallReturnLabel_4:
        ; Setup parameters for call to function sAddrExtCpy
        MOV       A,?V4
        ADD       A,#0x7
        MOV       R4,A
        CLR       A
        ADDC      A,?V5
        MOV       R5,A
        MOV       R2,#selectedTargetIEEEAddr & 0xff
        MOV       R3,#(selectedTargetIEEEAddr >> 8) & 0xff
        LCALL     `??sAddrExtCpy::?relay`; Banked call to: sAddrExtCpy
// 1698           }
// 1699         }
// 1700       }
??initiatorDeviceInfoRspCB_15:
        INC       ?V0
        LJMP      ??initiatorDeviceInfoRspCB_10 & 0xFFFF
// 1701     }
// 1702     else
// 1703     {
// 1704       // no sub-device of the currently selected device was selected.
// 1705       // clear selection
// 1706       initiatorClearSelectedTarget();
??initiatorDeviceInfoRspCB_9:
        ; Setup parameters for call to function initiatorClearSelectedTarget
        LCALL     `??initiatorClearSelectedTarget::?relay`; Banked call to: initiatorClearSelectedTarget
// 1707       bdb_zclRespondentListClean( &pRespondentHead );
        ; Setup parameters for call to function bdb_zclRespondentListClean
        MOV       R2,#pRespondentHead & 0xff
        MOV       R3,#(pRespondentHead >> 8) & 0xff
        LCALL     `??bdb_zclRespondentListClean::?relay`; Banked call to: bdb_zclRespondentListClean
// 1708     }
// 1709     return ( ZSuccess );
??initiatorDeviceInfoRspCB_11:
        MOV       R1,#0x0
        SJMP      ??initiatorDeviceInfoRspCB_16
// 1710   }
// 1711   return ( ZFailure );
??initiatorDeviceInfoRspCB_0:
        MOV       R1,#0x1
??initiatorDeviceInfoRspCB_16:
        MOV       A,#0x26
        LCALL     ?DEALLOC_XSTACK8
          CFI CFA_XSP16 add(XSP16, 20)
        MOV       R7,#0xc
        LJMP      ?BANKED_LEAVE_XDATA
// 1712 }
          CFI EndBlock cfiBlock227

        RSEG BANKED_CODE:HUGECODE:NOROOT(0)
?Subroutine40:
          CFI Block cfiCond228 Using cfiCommon0
          CFI Function initiatorDeviceInfoRspCB
          CFI Conditional ??CrossCallReturnLabel_62
          CFI R6 load(1, XDATA, add(CFA_XSP16, literal(-20)))
          CFI VB load(1, XDATA, add(CFA_XSP16, literal(-19)))
          CFI V0 load(1, XDATA, add(CFA_XSP16, literal(-18)))
          CFI V1 load(1, XDATA, add(CFA_XSP16, literal(-17)))
          CFI V2 load(1, XDATA, add(CFA_XSP16, literal(-16)))
          CFI V3 load(1, XDATA, add(CFA_XSP16, literal(-15)))
          CFI V4 load(1, XDATA, add(CFA_XSP16, literal(-14)))
          CFI V5 load(1, XDATA, add(CFA_XSP16, literal(-13)))
          CFI V6 load(1, XDATA, add(CFA_XSP16, literal(-12)))
          CFI V7 load(1, XDATA, add(CFA_XSP16, literal(-11)))
          CFI V8 load(1, XDATA, add(CFA_XSP16, literal(-10)))
          CFI V9 load(1, XDATA, add(CFA_XSP16, literal(-9)))
          CFI V10 load(1, XDATA, add(CFA_XSP16, literal(-8)))
          CFI V11 load(1, XDATA, add(CFA_XSP16, literal(-7)))
          CFI R7 load(1, XDATA, add(CFA_XSP16, literal(-6)))
          CFI ?RET_LOW load(1, XDATA, add(CFA_XSP16, literal(-5)))
          CFI ?RET_HIGH load(1, XDATA, add(CFA_XSP16, literal(-4)))
          CFI ?BRET_EXT load(1, XDATA, add(CFA_XSP16, literal(-3)))
          CFI DPL0 load(1, XDATA, add(CFA_XSP16, literal(-2)))
          CFI DPH0 load(1, XDATA, add(CFA_XSP16, literal(-1)))
          CFI CFA_SP SP+-2
          CFI CFA_XSP16 add(XSP16, 58)
          CFI Block cfiCond229 Using cfiCommon0
          CFI (cfiCond229) Function initiatorDeviceInfoRspCB
          CFI (cfiCond229) Conditional ??CrossCallReturnLabel_63
          CFI (cfiCond229) R6 load(1, XDATA, add(CFA_XSP16, literal(-20)))
          CFI (cfiCond229) VB load(1, XDATA, add(CFA_XSP16, literal(-19)))
          CFI (cfiCond229) V0 load(1, XDATA, add(CFA_XSP16, literal(-18)))
          CFI (cfiCond229) V1 load(1, XDATA, add(CFA_XSP16, literal(-17)))
          CFI (cfiCond229) V2 load(1, XDATA, add(CFA_XSP16, literal(-16)))
          CFI (cfiCond229) V3 load(1, XDATA, add(CFA_XSP16, literal(-15)))
          CFI (cfiCond229) V4 load(1, XDATA, add(CFA_XSP16, literal(-14)))
          CFI (cfiCond229) V5 load(1, XDATA, add(CFA_XSP16, literal(-13)))
          CFI (cfiCond229) V6 load(1, XDATA, add(CFA_XSP16, literal(-12)))
          CFI (cfiCond229) V7 load(1, XDATA, add(CFA_XSP16, literal(-11)))
          CFI (cfiCond229) V8 load(1, XDATA, add(CFA_XSP16, literal(-10)))
          CFI (cfiCond229) V9 load(1, XDATA, add(CFA_XSP16, literal(-9)))
          CFI (cfiCond229) V10 load(1, XDATA, add(CFA_XSP16, literal(-8)))
          CFI (cfiCond229) V11 load(1, XDATA, add(CFA_XSP16, literal(-7)))
          CFI (cfiCond229) R7 load(1, XDATA, add(CFA_XSP16, literal(-6)))
          CFI (cfiCond229) ?RET_LOW load(1, XDATA, add(CFA_XSP16, literal(-5)))
          CFI (cfiCond229) ?RET_HIGH load(1, XDATA, add(CFA_XSP16, literal(-4)))
          CFI (cfiCond229) ?BRET_EXT load(1, XDATA, add(CFA_XSP16, literal(-3)))
          CFI (cfiCond229) DPL0 load(1, XDATA, add(CFA_XSP16, literal(-2)))
          CFI (cfiCond229) DPH0 load(1, XDATA, add(CFA_XSP16, literal(-1)))
          CFI (cfiCond229) CFA_SP SP+-2
          CFI (cfiCond229) CFA_XSP16 add(XSP16, 58)
          CFI Block cfiPicker230 Using cfiCommon1
          CFI (cfiPicker230) NoFunction
          CFI (cfiPicker230) Picker
        MOV       A,?V2
        ADD       A,?V4
        MOV       R0,A
        MOV       A,?V3
        ADDC      A,?V5
        MOV       R1,A
        RET
          CFI EndBlock cfiCond228
          CFI EndBlock cfiCond229
          CFI EndBlock cfiPicker230

        RSEG BANKED_CODE:HUGECODE:NOROOT(0)
?Subroutine25:
          CFI Block cfiCond231 Using cfiCommon0
          CFI Function touchLinkInitiator_event_loop
          CFI Conditional ??CrossCallReturnLabel_130
          CFI R6 load(1, XDATA, add(CFA_XSP16, literal(-16)))
          CFI VB load(1, XDATA, add(CFA_XSP16, literal(-15)))
          CFI V0 load(1, XDATA, add(CFA_XSP16, literal(-14)))
          CFI V1 load(1, XDATA, add(CFA_XSP16, literal(-13)))
          CFI V2 load(1, XDATA, add(CFA_XSP16, literal(-12)))
          CFI V3 load(1, XDATA, add(CFA_XSP16, literal(-11)))
          CFI V4 load(1, XDATA, add(CFA_XSP16, literal(-10)))
          CFI V5 load(1, XDATA, add(CFA_XSP16, literal(-9)))
          CFI V6 load(1, XDATA, add(CFA_XSP16, literal(-8)))
          CFI V7 load(1, XDATA, add(CFA_XSP16, literal(-7)))
          CFI R7 load(1, XDATA, add(CFA_XSP16, literal(-6)))
          CFI ?RET_LOW load(1, XDATA, add(CFA_XSP16, literal(-5)))
          CFI ?RET_HIGH load(1, XDATA, add(CFA_XSP16, literal(-4)))
          CFI ?BRET_EXT load(1, XDATA, add(CFA_XSP16, literal(-3)))
          CFI DPL0 load(1, XDATA, add(CFA_XSP16, literal(-2)))
          CFI DPH0 load(1, XDATA, add(CFA_XSP16, literal(-1)))
          CFI CFA_SP SP+-2
          CFI CFA_XSP16 add(XSP16, 75)
          CFI Block cfiCond232 Using cfiCommon0
          CFI (cfiCond232) Function touchLinkInitiator_event_loop
          CFI (cfiCond232) Conditional ??CrossCallReturnLabel_131
          CFI (cfiCond232) R6 load(1, XDATA, add(CFA_XSP16, literal(-16)))
          CFI (cfiCond232) VB load(1, XDATA, add(CFA_XSP16, literal(-15)))
          CFI (cfiCond232) V0 load(1, XDATA, add(CFA_XSP16, literal(-14)))
          CFI (cfiCond232) V1 load(1, XDATA, add(CFA_XSP16, literal(-13)))
          CFI (cfiCond232) V2 load(1, XDATA, add(CFA_XSP16, literal(-12)))
          CFI (cfiCond232) V3 load(1, XDATA, add(CFA_XSP16, literal(-11)))
          CFI (cfiCond232) V4 load(1, XDATA, add(CFA_XSP16, literal(-10)))
          CFI (cfiCond232) V5 load(1, XDATA, add(CFA_XSP16, literal(-9)))
          CFI (cfiCond232) V6 load(1, XDATA, add(CFA_XSP16, literal(-8)))
          CFI (cfiCond232) V7 load(1, XDATA, add(CFA_XSP16, literal(-7)))
          CFI (cfiCond232) R7 load(1, XDATA, add(CFA_XSP16, literal(-6)))
          CFI (cfiCond232) ?RET_LOW load(1, XDATA, add(CFA_XSP16, literal(-5)))
          CFI (cfiCond232) ?RET_HIGH load(1, XDATA, add(CFA_XSP16, literal(-4)))
          CFI (cfiCond232) ?BRET_EXT load(1, XDATA, add(CFA_XSP16, literal(-3)))
          CFI (cfiCond232) DPL0 load(1, XDATA, add(CFA_XSP16, literal(-2)))
          CFI (cfiCond232) DPH0 load(1, XDATA, add(CFA_XSP16, literal(-1)))
          CFI (cfiCond232) CFA_SP SP+-2
          CFI (cfiCond232) CFA_XSP16 add(XSP16, 75)
          CFI Block cfiPicker233 Using cfiCommon1
          CFI (cfiPicker233) NoFunction
          CFI (cfiPicker233) Picker
        MOV       A,R0
        MOVX      @DPTR,A
        INC       DPTR
        MOV       A,R1
        MOVX      @DPTR,A
        MOV       DPTR,#selectedTarget + 34
          CFI EndBlock cfiCond231
          CFI EndBlock cfiCond232
          CFI EndBlock cfiPicker233
        REQUIRE ??Subroutine63_0
        ; // Fall through to label ??Subroutine63_0

        RSEG BANKED_CODE:HUGECODE:NOROOT(0)
??Subroutine63_0:
          CFI Block cfiCond234 Using cfiCommon0
          CFI Function touchLinkInitiator_StartDevDisc
          CFI Conditional ??CrossCallReturnLabel_132
          CFI R6 load(1, XDATA, add(CFA_XSP16, literal(-16)))
          CFI VB load(1, XDATA, add(CFA_XSP16, literal(-15)))
          CFI V0 load(1, XDATA, add(CFA_XSP16, literal(-14)))
          CFI V1 load(1, XDATA, add(CFA_XSP16, literal(-13)))
          CFI V2 load(1, XDATA, add(CFA_XSP16, literal(-12)))
          CFI V3 load(1, XDATA, add(CFA_XSP16, literal(-11)))
          CFI V4 load(1, XDATA, add(CFA_XSP16, literal(-10)))
          CFI V5 load(1, XDATA, add(CFA_XSP16, literal(-9)))
          CFI V6 load(1, XDATA, add(CFA_XSP16, literal(-8)))
          CFI V7 load(1, XDATA, add(CFA_XSP16, literal(-7)))
          CFI R7 load(1, XDATA, add(CFA_XSP16, literal(-6)))
          CFI ?RET_LOW load(1, XDATA, add(CFA_XSP16, literal(-5)))
          CFI ?RET_HIGH load(1, XDATA, add(CFA_XSP16, literal(-4)))
          CFI ?BRET_EXT load(1, XDATA, add(CFA_XSP16, literal(-3)))
          CFI DPL0 load(1, XDATA, add(CFA_XSP16, literal(-2)))
          CFI DPH0 load(1, XDATA, add(CFA_XSP16, literal(-1)))
          CFI CFA_SP SP+-2
          CFI CFA_XSP16 add(XSP16, 17)
          CFI Block cfiCond235 Using cfiCommon0
          CFI (cfiCond235) Function touchLinkInitiator_StartDevDisc
          CFI (cfiCond235) Conditional ??CrossCallReturnLabel_133
          CFI (cfiCond235) R6 load(1, XDATA, add(CFA_XSP16, literal(-16)))
          CFI (cfiCond235) VB load(1, XDATA, add(CFA_XSP16, literal(-15)))
          CFI (cfiCond235) V0 load(1, XDATA, add(CFA_XSP16, literal(-14)))
          CFI (cfiCond235) V1 load(1, XDATA, add(CFA_XSP16, literal(-13)))
          CFI (cfiCond235) V2 load(1, XDATA, add(CFA_XSP16, literal(-12)))
          CFI (cfiCond235) V3 load(1, XDATA, add(CFA_XSP16, literal(-11)))
          CFI (cfiCond235) V4 load(1, XDATA, add(CFA_XSP16, literal(-10)))
          CFI (cfiCond235) V5 load(1, XDATA, add(CFA_XSP16, literal(-9)))
          CFI (cfiCond235) V6 load(1, XDATA, add(CFA_XSP16, literal(-8)))
          CFI (cfiCond235) V7 load(1, XDATA, add(CFA_XSP16, literal(-7)))
          CFI (cfiCond235) R7 load(1, XDATA, add(CFA_XSP16, literal(-6)))
          CFI (cfiCond235) ?RET_LOW load(1, XDATA, add(CFA_XSP16, literal(-5)))
          CFI (cfiCond235) ?RET_HIGH load(1, XDATA, add(CFA_XSP16, literal(-4)))
          CFI (cfiCond235) ?BRET_EXT load(1, XDATA, add(CFA_XSP16, literal(-3)))
          CFI (cfiCond235) DPL0 load(1, XDATA, add(CFA_XSP16, literal(-2)))
          CFI (cfiCond235) DPH0 load(1, XDATA, add(CFA_XSP16, literal(-1)))
          CFI (cfiCond235) CFA_SP SP+-2
          CFI (cfiCond235) CFA_XSP16 add(XSP16, 17)
          CFI Block cfiCond236 Using cfiCommon0
          CFI (cfiCond236) Function touchLinkInitiator_event_loop
          CFI (cfiCond236) Conditional ??CrossCallReturnLabel_134
          CFI (cfiCond236) R6 load(1, XDATA, add(CFA_XSP16, literal(-16)))
          CFI (cfiCond236) VB load(1, XDATA, add(CFA_XSP16, literal(-15)))
          CFI (cfiCond236) V0 load(1, XDATA, add(CFA_XSP16, literal(-14)))
          CFI (cfiCond236) V1 load(1, XDATA, add(CFA_XSP16, literal(-13)))
          CFI (cfiCond236) V2 load(1, XDATA, add(CFA_XSP16, literal(-12)))
          CFI (cfiCond236) V3 load(1, XDATA, add(CFA_XSP16, literal(-11)))
          CFI (cfiCond236) V4 load(1, XDATA, add(CFA_XSP16, literal(-10)))
          CFI (cfiCond236) V5 load(1, XDATA, add(CFA_XSP16, literal(-9)))
          CFI (cfiCond236) V6 load(1, XDATA, add(CFA_XSP16, literal(-8)))
          CFI (cfiCond236) V7 load(1, XDATA, add(CFA_XSP16, literal(-7)))
          CFI (cfiCond236) R7 load(1, XDATA, add(CFA_XSP16, literal(-6)))
          CFI (cfiCond236) ?RET_LOW load(1, XDATA, add(CFA_XSP16, literal(-5)))
          CFI (cfiCond236) ?RET_HIGH load(1, XDATA, add(CFA_XSP16, literal(-4)))
          CFI (cfiCond236) ?BRET_EXT load(1, XDATA, add(CFA_XSP16, literal(-3)))
          CFI (cfiCond236) DPL0 load(1, XDATA, add(CFA_XSP16, literal(-2)))
          CFI (cfiCond236) DPH0 load(1, XDATA, add(CFA_XSP16, literal(-1)))
          CFI (cfiCond236) CFA_SP SP+-2
          CFI (cfiCond236) CFA_XSP16 add(XSP16, 75)
          CFI Block cfiCond237 Using cfiCommon0
          CFI (cfiCond237) Function touchLinkInitiator_event_loop
          CFI (cfiCond237) Conditional ??CrossCallReturnLabel_135
          CFI (cfiCond237) R6 load(1, XDATA, add(CFA_XSP16, literal(-16)))
          CFI (cfiCond237) VB load(1, XDATA, add(CFA_XSP16, literal(-15)))
          CFI (cfiCond237) V0 load(1, XDATA, add(CFA_XSP16, literal(-14)))
          CFI (cfiCond237) V1 load(1, XDATA, add(CFA_XSP16, literal(-13)))
          CFI (cfiCond237) V2 load(1, XDATA, add(CFA_XSP16, literal(-12)))
          CFI (cfiCond237) V3 load(1, XDATA, add(CFA_XSP16, literal(-11)))
          CFI (cfiCond237) V4 load(1, XDATA, add(CFA_XSP16, literal(-10)))
          CFI (cfiCond237) V5 load(1, XDATA, add(CFA_XSP16, literal(-9)))
          CFI (cfiCond237) V6 load(1, XDATA, add(CFA_XSP16, literal(-8)))
          CFI (cfiCond237) V7 load(1, XDATA, add(CFA_XSP16, literal(-7)))
          CFI (cfiCond237) R7 load(1, XDATA, add(CFA_XSP16, literal(-6)))
          CFI (cfiCond237) ?RET_LOW load(1, XDATA, add(CFA_XSP16, literal(-5)))
          CFI (cfiCond237) ?RET_HIGH load(1, XDATA, add(CFA_XSP16, literal(-4)))
          CFI (cfiCond237) ?BRET_EXT load(1, XDATA, add(CFA_XSP16, literal(-3)))
          CFI (cfiCond237) DPL0 load(1, XDATA, add(CFA_XSP16, literal(-2)))
          CFI (cfiCond237) DPH0 load(1, XDATA, add(CFA_XSP16, literal(-1)))
          CFI (cfiCond237) CFA_SP SP+-2
          CFI (cfiCond237) CFA_XSP16 add(XSP16, 75)
          CFI Block cfiCond238 Using cfiCommon0
          CFI (cfiCond238) Function touchLinkInitiator_event_loop
          CFI (cfiCond238) Conditional ??CrossCallReturnLabel_136
          CFI (cfiCond238) R6 load(1, XDATA, add(CFA_XSP16, literal(-16)))
          CFI (cfiCond238) VB load(1, XDATA, add(CFA_XSP16, literal(-15)))
          CFI (cfiCond238) V0 load(1, XDATA, add(CFA_XSP16, literal(-14)))
          CFI (cfiCond238) V1 load(1, XDATA, add(CFA_XSP16, literal(-13)))
          CFI (cfiCond238) V2 load(1, XDATA, add(CFA_XSP16, literal(-12)))
          CFI (cfiCond238) V3 load(1, XDATA, add(CFA_XSP16, literal(-11)))
          CFI (cfiCond238) V4 load(1, XDATA, add(CFA_XSP16, literal(-10)))
          CFI (cfiCond238) V5 load(1, XDATA, add(CFA_XSP16, literal(-9)))
          CFI (cfiCond238) V6 load(1, XDATA, add(CFA_XSP16, literal(-8)))
          CFI (cfiCond238) V7 load(1, XDATA, add(CFA_XSP16, literal(-7)))
          CFI (cfiCond238) R7 load(1, XDATA, add(CFA_XSP16, literal(-6)))
          CFI (cfiCond238) ?RET_LOW load(1, XDATA, add(CFA_XSP16, literal(-5)))
          CFI (cfiCond238) ?RET_HIGH load(1, XDATA, add(CFA_XSP16, literal(-4)))
          CFI (cfiCond238) ?BRET_EXT load(1, XDATA, add(CFA_XSP16, literal(-3)))
          CFI (cfiCond238) DPL0 load(1, XDATA, add(CFA_XSP16, literal(-2)))
          CFI (cfiCond238) DPH0 load(1, XDATA, add(CFA_XSP16, literal(-1)))
          CFI (cfiCond238) CFA_SP SP+-2
          CFI (cfiCond238) CFA_XSP16 add(XSP16, 75)
          CFI Block cfiCond239 Using cfiCommon0
          CFI (cfiCond239) Function touchLinkInitiator_event_loop
          CFI (cfiCond239) Conditional ??CrossCallReturnLabel_137
          CFI (cfiCond239) R6 load(1, XDATA, add(CFA_XSP16, literal(-16)))
          CFI (cfiCond239) VB load(1, XDATA, add(CFA_XSP16, literal(-15)))
          CFI (cfiCond239) V0 load(1, XDATA, add(CFA_XSP16, literal(-14)))
          CFI (cfiCond239) V1 load(1, XDATA, add(CFA_XSP16, literal(-13)))
          CFI (cfiCond239) V2 load(1, XDATA, add(CFA_XSP16, literal(-12)))
          CFI (cfiCond239) V3 load(1, XDATA, add(CFA_XSP16, literal(-11)))
          CFI (cfiCond239) V4 load(1, XDATA, add(CFA_XSP16, literal(-10)))
          CFI (cfiCond239) V5 load(1, XDATA, add(CFA_XSP16, literal(-9)))
          CFI (cfiCond239) V6 load(1, XDATA, add(CFA_XSP16, literal(-8)))
          CFI (cfiCond239) V7 load(1, XDATA, add(CFA_XSP16, literal(-7)))
          CFI (cfiCond239) R7 load(1, XDATA, add(CFA_XSP16, literal(-6)))
          CFI (cfiCond239) ?RET_LOW load(1, XDATA, add(CFA_XSP16, literal(-5)))
          CFI (cfiCond239) ?RET_HIGH load(1, XDATA, add(CFA_XSP16, literal(-4)))
          CFI (cfiCond239) ?BRET_EXT load(1, XDATA, add(CFA_XSP16, literal(-3)))
          CFI (cfiCond239) DPL0 load(1, XDATA, add(CFA_XSP16, literal(-2)))
          CFI (cfiCond239) DPH0 load(1, XDATA, add(CFA_XSP16, literal(-1)))
          CFI (cfiCond239) CFA_SP SP+-2
          CFI (cfiCond239) CFA_XSP16 add(XSP16, 75)
          CFI Block cfiCond240 Using cfiCommon0
          CFI (cfiCond240) Function touchLinkInitiator_event_loop
          CFI (cfiCond240) Conditional ??CrossCallReturnLabel_138
          CFI (cfiCond240) R6 load(1, XDATA, add(CFA_XSP16, literal(-16)))
          CFI (cfiCond240) VB load(1, XDATA, add(CFA_XSP16, literal(-15)))
          CFI (cfiCond240) V0 load(1, XDATA, add(CFA_XSP16, literal(-14)))
          CFI (cfiCond240) V1 load(1, XDATA, add(CFA_XSP16, literal(-13)))
          CFI (cfiCond240) V2 load(1, XDATA, add(CFA_XSP16, literal(-12)))
          CFI (cfiCond240) V3 load(1, XDATA, add(CFA_XSP16, literal(-11)))
          CFI (cfiCond240) V4 load(1, XDATA, add(CFA_XSP16, literal(-10)))
          CFI (cfiCond240) V5 load(1, XDATA, add(CFA_XSP16, literal(-9)))
          CFI (cfiCond240) V6 load(1, XDATA, add(CFA_XSP16, literal(-8)))
          CFI (cfiCond240) V7 load(1, XDATA, add(CFA_XSP16, literal(-7)))
          CFI (cfiCond240) R7 load(1, XDATA, add(CFA_XSP16, literal(-6)))
          CFI (cfiCond240) ?RET_LOW load(1, XDATA, add(CFA_XSP16, literal(-5)))
          CFI (cfiCond240) ?RET_HIGH load(1, XDATA, add(CFA_XSP16, literal(-4)))
          CFI (cfiCond240) ?BRET_EXT load(1, XDATA, add(CFA_XSP16, literal(-3)))
          CFI (cfiCond240) DPL0 load(1, XDATA, add(CFA_XSP16, literal(-2)))
          CFI (cfiCond240) DPH0 load(1, XDATA, add(CFA_XSP16, literal(-1)))
          CFI (cfiCond240) CFA_SP SP+-2
          CFI (cfiCond240) CFA_XSP16 add(XSP16, 75)
          CFI Block cfiCond241 Using cfiCommon0
          CFI (cfiCond241) Function touchLinkInitiator_event_loop
          CFI (cfiCond241) Conditional ??CrossCallReturnLabel_139
          CFI (cfiCond241) R6 load(1, XDATA, add(CFA_XSP16, literal(-16)))
          CFI (cfiCond241) VB load(1, XDATA, add(CFA_XSP16, literal(-15)))
          CFI (cfiCond241) V0 load(1, XDATA, add(CFA_XSP16, literal(-14)))
          CFI (cfiCond241) V1 load(1, XDATA, add(CFA_XSP16, literal(-13)))
          CFI (cfiCond241) V2 load(1, XDATA, add(CFA_XSP16, literal(-12)))
          CFI (cfiCond241) V3 load(1, XDATA, add(CFA_XSP16, literal(-11)))
          CFI (cfiCond241) V4 load(1, XDATA, add(CFA_XSP16, literal(-10)))
          CFI (cfiCond241) V5 load(1, XDATA, add(CFA_XSP16, literal(-9)))
          CFI (cfiCond241) V6 load(1, XDATA, add(CFA_XSP16, literal(-8)))
          CFI (cfiCond241) V7 load(1, XDATA, add(CFA_XSP16, literal(-7)))
          CFI (cfiCond241) R7 load(1, XDATA, add(CFA_XSP16, literal(-6)))
          CFI (cfiCond241) ?RET_LOW load(1, XDATA, add(CFA_XSP16, literal(-5)))
          CFI (cfiCond241) ?RET_HIGH load(1, XDATA, add(CFA_XSP16, literal(-4)))
          CFI (cfiCond241) ?BRET_EXT load(1, XDATA, add(CFA_XSP16, literal(-3)))
          CFI (cfiCond241) DPL0 load(1, XDATA, add(CFA_XSP16, literal(-2)))
          CFI (cfiCond241) DPH0 load(1, XDATA, add(CFA_XSP16, literal(-1)))
          CFI (cfiCond241) CFA_SP SP+-2
          CFI (cfiCond241) CFA_XSP16 add(XSP16, 75)
          CFI Block cfiCond242 Using cfiCommon0
          CFI (cfiCond242) Function touchLinkInitiator_event_loop
          CFI (cfiCond242) Conditional ??CrossCallReturnLabel_140
          CFI (cfiCond242) R6 load(1, XDATA, add(CFA_XSP16, literal(-16)))
          CFI (cfiCond242) VB load(1, XDATA, add(CFA_XSP16, literal(-15)))
          CFI (cfiCond242) V0 load(1, XDATA, add(CFA_XSP16, literal(-14)))
          CFI (cfiCond242) V1 load(1, XDATA, add(CFA_XSP16, literal(-13)))
          CFI (cfiCond242) V2 load(1, XDATA, add(CFA_XSP16, literal(-12)))
          CFI (cfiCond242) V3 load(1, XDATA, add(CFA_XSP16, literal(-11)))
          CFI (cfiCond242) V4 load(1, XDATA, add(CFA_XSP16, literal(-10)))
          CFI (cfiCond242) V5 load(1, XDATA, add(CFA_XSP16, literal(-9)))
          CFI (cfiCond242) V6 load(1, XDATA, add(CFA_XSP16, literal(-8)))
          CFI (cfiCond242) V7 load(1, XDATA, add(CFA_XSP16, literal(-7)))
          CFI (cfiCond242) R7 load(1, XDATA, add(CFA_XSP16, literal(-6)))
          CFI (cfiCond242) ?RET_LOW load(1, XDATA, add(CFA_XSP16, literal(-5)))
          CFI (cfiCond242) ?RET_HIGH load(1, XDATA, add(CFA_XSP16, literal(-4)))
          CFI (cfiCond242) ?BRET_EXT load(1, XDATA, add(CFA_XSP16, literal(-3)))
          CFI (cfiCond242) DPL0 load(1, XDATA, add(CFA_XSP16, literal(-2)))
          CFI (cfiCond242) DPH0 load(1, XDATA, add(CFA_XSP16, literal(-1)))
          CFI (cfiCond242) CFA_SP SP+-2
          CFI (cfiCond242) CFA_XSP16 add(XSP16, 75)
          CFI Block cfiCond243 Using cfiCommon0
          CFI (cfiCond243) Function touchLinkInitiator_event_loop
          CFI (cfiCond243) Conditional ??CrossCallReturnLabel_141
          CFI (cfiCond243) R6 load(1, XDATA, add(CFA_XSP16, literal(-16)))
          CFI (cfiCond243) VB load(1, XDATA, add(CFA_XSP16, literal(-15)))
          CFI (cfiCond243) V0 load(1, XDATA, add(CFA_XSP16, literal(-14)))
          CFI (cfiCond243) V1 load(1, XDATA, add(CFA_XSP16, literal(-13)))
          CFI (cfiCond243) V2 load(1, XDATA, add(CFA_XSP16, literal(-12)))
          CFI (cfiCond243) V3 load(1, XDATA, add(CFA_XSP16, literal(-11)))
          CFI (cfiCond243) V4 load(1, XDATA, add(CFA_XSP16, literal(-10)))
          CFI (cfiCond243) V5 load(1, XDATA, add(CFA_XSP16, literal(-9)))
          CFI (cfiCond243) V6 load(1, XDATA, add(CFA_XSP16, literal(-8)))
          CFI (cfiCond243) V7 load(1, XDATA, add(CFA_XSP16, literal(-7)))
          CFI (cfiCond243) R7 load(1, XDATA, add(CFA_XSP16, literal(-6)))
          CFI (cfiCond243) ?RET_LOW load(1, XDATA, add(CFA_XSP16, literal(-5)))
          CFI (cfiCond243) ?RET_HIGH load(1, XDATA, add(CFA_XSP16, literal(-4)))
          CFI (cfiCond243) ?BRET_EXT load(1, XDATA, add(CFA_XSP16, literal(-3)))
          CFI (cfiCond243) DPL0 load(1, XDATA, add(CFA_XSP16, literal(-2)))
          CFI (cfiCond243) DPH0 load(1, XDATA, add(CFA_XSP16, literal(-1)))
          CFI (cfiCond243) CFA_SP SP+-2
          CFI (cfiCond243) CFA_XSP16 add(XSP16, 75)
          CFI Block cfiCond244 Using cfiCommon0
          CFI (cfiCond244) Function touchLinkInitiator_SendEPInfo
          CFI (cfiCond244) Conditional ??CrossCallReturnLabel_142
          CFI (cfiCond244) R6 load(1, XDATA, add(CFA_XSP16, literal(-12)))
          CFI (cfiCond244) VB load(1, XDATA, add(CFA_XSP16, literal(-11)))
          CFI (cfiCond244) V0 load(1, XDATA, add(CFA_XSP16, literal(-10)))
          CFI (cfiCond244) V1 load(1, XDATA, add(CFA_XSP16, literal(-9)))
          CFI (cfiCond244) V2 load(1, XDATA, add(CFA_XSP16, literal(-8)))
          CFI (cfiCond244) V3 load(1, XDATA, add(CFA_XSP16, literal(-7)))
          CFI (cfiCond244) R7 load(1, XDATA, add(CFA_XSP16, literal(-6)))
          CFI (cfiCond244) ?RET_LOW load(1, XDATA, add(CFA_XSP16, literal(-5)))
          CFI (cfiCond244) ?RET_HIGH load(1, XDATA, add(CFA_XSP16, literal(-4)))
          CFI (cfiCond244) ?BRET_EXT load(1, XDATA, add(CFA_XSP16, literal(-3)))
          CFI (cfiCond244) DPL0 load(1, XDATA, add(CFA_XSP16, literal(-2)))
          CFI (cfiCond244) DPH0 load(1, XDATA, add(CFA_XSP16, literal(-1)))
          CFI (cfiCond244) CFA_SP SP+-2
          CFI (cfiCond244) CFA_XSP16 add(XSP16, 35)
          CFI Block cfiCond245 Using cfiCommon0
          CFI (cfiCond245) Function touchLinkInitiator_SendEPInfo
          CFI (cfiCond245) Conditional ??CrossCallReturnLabel_143
          CFI (cfiCond245) R6 load(1, XDATA, add(CFA_XSP16, literal(-12)))
          CFI (cfiCond245) VB load(1, XDATA, add(CFA_XSP16, literal(-11)))
          CFI (cfiCond245) V0 load(1, XDATA, add(CFA_XSP16, literal(-10)))
          CFI (cfiCond245) V1 load(1, XDATA, add(CFA_XSP16, literal(-9)))
          CFI (cfiCond245) V2 load(1, XDATA, add(CFA_XSP16, literal(-8)))
          CFI (cfiCond245) V3 load(1, XDATA, add(CFA_XSP16, literal(-7)))
          CFI (cfiCond245) R7 load(1, XDATA, add(CFA_XSP16, literal(-6)))
          CFI (cfiCond245) ?RET_LOW load(1, XDATA, add(CFA_XSP16, literal(-5)))
          CFI (cfiCond245) ?RET_HIGH load(1, XDATA, add(CFA_XSP16, literal(-4)))
          CFI (cfiCond245) ?BRET_EXT load(1, XDATA, add(CFA_XSP16, literal(-3)))
          CFI (cfiCond245) DPL0 load(1, XDATA, add(CFA_XSP16, literal(-2)))
          CFI (cfiCond245) DPH0 load(1, XDATA, add(CFA_XSP16, literal(-1)))
          CFI (cfiCond245) CFA_SP SP+-2
          CFI (cfiCond245) CFA_XSP16 add(XSP16, 35)
          CFI Block cfiCond246 Using cfiCommon0
          CFI (cfiCond246) Function initiatorIdentifyReqCB
          CFI (cfiCond246) Conditional ??CrossCallReturnLabel_144
          CFI (cfiCond246) R6 load(1, XDATA, add(CFA_XSP16, literal(-10)))
          CFI (cfiCond246) VB load(1, XDATA, add(CFA_XSP16, literal(-9)))
          CFI (cfiCond246) V0 load(1, XDATA, add(CFA_XSP16, literal(-8)))
          CFI (cfiCond246) V1 load(1, XDATA, add(CFA_XSP16, literal(-7)))
          CFI (cfiCond246) R7 load(1, XDATA, add(CFA_XSP16, literal(-6)))
          CFI (cfiCond246) ?RET_LOW load(1, XDATA, add(CFA_XSP16, literal(-5)))
          CFI (cfiCond246) ?RET_HIGH load(1, XDATA, add(CFA_XSP16, literal(-4)))
          CFI (cfiCond246) ?BRET_EXT load(1, XDATA, add(CFA_XSP16, literal(-3)))
          CFI (cfiCond246) DPL0 load(1, XDATA, add(CFA_XSP16, literal(-2)))
          CFI (cfiCond246) DPH0 load(1, XDATA, add(CFA_XSP16, literal(-1)))
          CFI (cfiCond246) CFA_SP SP+-2
          CFI (cfiCond246) CFA_XSP16 add(XSP16, 10)
          CFI Block cfiCond247 Using cfiCommon0
          CFI (cfiCond247) Function initiatorDeviceInfoRspCB
          CFI (cfiCond247) Conditional ??CrossCallReturnLabel_145
          CFI (cfiCond247) R6 load(1, XDATA, add(CFA_XSP16, literal(-20)))
          CFI (cfiCond247) VB load(1, XDATA, add(CFA_XSP16, literal(-19)))
          CFI (cfiCond247) V0 load(1, XDATA, add(CFA_XSP16, literal(-18)))
          CFI (cfiCond247) V1 load(1, XDATA, add(CFA_XSP16, literal(-17)))
          CFI (cfiCond247) V2 load(1, XDATA, add(CFA_XSP16, literal(-16)))
          CFI (cfiCond247) V3 load(1, XDATA, add(CFA_XSP16, literal(-15)))
          CFI (cfiCond247) V4 load(1, XDATA, add(CFA_XSP16, literal(-14)))
          CFI (cfiCond247) V5 load(1, XDATA, add(CFA_XSP16, literal(-13)))
          CFI (cfiCond247) V6 load(1, XDATA, add(CFA_XSP16, literal(-12)))
          CFI (cfiCond247) V7 load(1, XDATA, add(CFA_XSP16, literal(-11)))
          CFI (cfiCond247) V8 load(1, XDATA, add(CFA_XSP16, literal(-10)))
          CFI (cfiCond247) V9 load(1, XDATA, add(CFA_XSP16, literal(-9)))
          CFI (cfiCond247) V10 load(1, XDATA, add(CFA_XSP16, literal(-8)))
          CFI (cfiCond247) V11 load(1, XDATA, add(CFA_XSP16, literal(-7)))
          CFI (cfiCond247) R7 load(1, XDATA, add(CFA_XSP16, literal(-6)))
          CFI (cfiCond247) ?RET_LOW load(1, XDATA, add(CFA_XSP16, literal(-5)))
          CFI (cfiCond247) ?RET_HIGH load(1, XDATA, add(CFA_XSP16, literal(-4)))
          CFI (cfiCond247) ?BRET_EXT load(1, XDATA, add(CFA_XSP16, literal(-3)))
          CFI (cfiCond247) DPL0 load(1, XDATA, add(CFA_XSP16, literal(-2)))
          CFI (cfiCond247) DPH0 load(1, XDATA, add(CFA_XSP16, literal(-1)))
          CFI (cfiCond247) CFA_SP SP+-2
          CFI (cfiCond247) CFA_XSP16 add(XSP16, 58)
          CFI Block cfiCond248 Using cfiCommon0
          CFI (cfiCond248) Function initiatorSetNwkToInitState
          CFI (cfiCond248) Conditional ??CrossCallReturnLabel_146
          CFI (cfiCond248) R6 load(1, XDATA, add(CFA_XSP16, literal(-12)))
          CFI (cfiCond248) VB load(1, XDATA, add(CFA_XSP16, literal(-11)))
          CFI (cfiCond248) V0 load(1, XDATA, add(CFA_XSP16, literal(-10)))
          CFI (cfiCond248) V1 load(1, XDATA, add(CFA_XSP16, literal(-9)))
          CFI (cfiCond248) V2 load(1, XDATA, add(CFA_XSP16, literal(-8)))
          CFI (cfiCond248) V3 load(1, XDATA, add(CFA_XSP16, literal(-7)))
          CFI (cfiCond248) R7 load(1, XDATA, add(CFA_XSP16, literal(-6)))
          CFI (cfiCond248) ?RET_LOW load(1, XDATA, add(CFA_XSP16, literal(-5)))
          CFI (cfiCond248) ?RET_HIGH load(1, XDATA, add(CFA_XSP16, literal(-4)))
          CFI (cfiCond248) ?BRET_EXT load(1, XDATA, add(CFA_XSP16, literal(-3)))
          CFI (cfiCond248) DPL0 load(1, XDATA, add(CFA_XSP16, literal(-2)))
          CFI (cfiCond248) DPH0 load(1, XDATA, add(CFA_XSP16, literal(-1)))
          CFI (cfiCond248) CFA_SP SP+-2
          CFI (cfiCond248) CFA_XSP16 add(XSP16, 12)
          CFI Block cfiCond249 Using cfiCommon0
          CFI (cfiCond249) Function initiatorSetNwkToInitState
          CFI (cfiCond249) Conditional ??CrossCallReturnLabel_147
          CFI (cfiCond249) R6 load(1, XDATA, add(CFA_XSP16, literal(-12)))
          CFI (cfiCond249) VB load(1, XDATA, add(CFA_XSP16, literal(-11)))
          CFI (cfiCond249) V0 load(1, XDATA, add(CFA_XSP16, literal(-10)))
          CFI (cfiCond249) V1 load(1, XDATA, add(CFA_XSP16, literal(-9)))
          CFI (cfiCond249) V2 load(1, XDATA, add(CFA_XSP16, literal(-8)))
          CFI (cfiCond249) V3 load(1, XDATA, add(CFA_XSP16, literal(-7)))
          CFI (cfiCond249) R7 load(1, XDATA, add(CFA_XSP16, literal(-6)))
          CFI (cfiCond249) ?RET_LOW load(1, XDATA, add(CFA_XSP16, literal(-5)))
          CFI (cfiCond249) ?RET_HIGH load(1, XDATA, add(CFA_XSP16, literal(-4)))
          CFI (cfiCond249) ?BRET_EXT load(1, XDATA, add(CFA_XSP16, literal(-3)))
          CFI (cfiCond249) DPL0 load(1, XDATA, add(CFA_XSP16, literal(-2)))
          CFI (cfiCond249) DPH0 load(1, XDATA, add(CFA_XSP16, literal(-1)))
          CFI (cfiCond249) CFA_SP SP+-2
          CFI (cfiCond249) CFA_XSP16 add(XSP16, 12)
          CFI Block cfiCond250 Using cfiCommon0
          CFI (cfiCond250) Function initiatorReJoinNwk
          CFI (cfiCond250) Conditional ??CrossCallReturnLabel_148
          CFI (cfiCond250) R6 load(1, XDATA, add(CFA_XSP16, literal(-9)))
          CFI (cfiCond250) VB load(1, XDATA, add(CFA_XSP16, literal(-8)))
          CFI (cfiCond250) V0 load(1, XDATA, add(CFA_XSP16, literal(-7)))
          CFI (cfiCond250) R7 load(1, XDATA, add(CFA_XSP16, literal(-6)))
          CFI (cfiCond250) ?RET_LOW load(1, XDATA, add(CFA_XSP16, literal(-5)))
          CFI (cfiCond250) ?RET_HIGH load(1, XDATA, add(CFA_XSP16, literal(-4)))
          CFI (cfiCond250) ?BRET_EXT load(1, XDATA, add(CFA_XSP16, literal(-3)))
          CFI (cfiCond250) DPL0 load(1, XDATA, add(CFA_XSP16, literal(-2)))
          CFI (cfiCond250) DPH0 load(1, XDATA, add(CFA_XSP16, literal(-1)))
          CFI (cfiCond250) CFA_SP SP+-2
          CFI (cfiCond250) CFA_XSP16 add(XSP16, 9)
          CFI Block cfiCond251 Using cfiCommon0
          CFI (cfiCond251) Function initiatorSendNwkJoinReq
          CFI (cfiCond251) Conditional ??CrossCallReturnLabel_149
          CFI (cfiCond251) R6 load(1, XDATA, add(CFA_XSP16, literal(-16)))
          CFI (cfiCond251) VB load(1, XDATA, add(CFA_XSP16, literal(-15)))
          CFI (cfiCond251) V0 load(1, XDATA, add(CFA_XSP16, literal(-14)))
          CFI (cfiCond251) V1 load(1, XDATA, add(CFA_XSP16, literal(-13)))
          CFI (cfiCond251) V2 load(1, XDATA, add(CFA_XSP16, literal(-12)))
          CFI (cfiCond251) V3 load(1, XDATA, add(CFA_XSP16, literal(-11)))
          CFI (cfiCond251) V4 load(1, XDATA, add(CFA_XSP16, literal(-10)))
          CFI (cfiCond251) V5 load(1, XDATA, add(CFA_XSP16, literal(-9)))
          CFI (cfiCond251) V6 load(1, XDATA, add(CFA_XSP16, literal(-8)))
          CFI (cfiCond251) V7 load(1, XDATA, add(CFA_XSP16, literal(-7)))
          CFI (cfiCond251) R7 load(1, XDATA, add(CFA_XSP16, literal(-6)))
          CFI (cfiCond251) ?RET_LOW load(1, XDATA, add(CFA_XSP16, literal(-5)))
          CFI (cfiCond251) ?RET_HIGH load(1, XDATA, add(CFA_XSP16, literal(-4)))
          CFI (cfiCond251) ?BRET_EXT load(1, XDATA, add(CFA_XSP16, literal(-3)))
          CFI (cfiCond251) DPL0 load(1, XDATA, add(CFA_XSP16, literal(-2)))
          CFI (cfiCond251) DPH0 load(1, XDATA, add(CFA_XSP16, literal(-1)))
          CFI (cfiCond251) CFA_SP SP+-2
          CFI (cfiCond251) CFA_XSP16 add(XSP16, 16)
          CFI Block cfiCond252 Using cfiCommon0
          CFI (cfiCond252) Function initiatorSendNwkJoinReq
          CFI (cfiCond252) Conditional ??CrossCallReturnLabel_150
          CFI (cfiCond252) R6 load(1, XDATA, add(CFA_XSP16, literal(-16)))
          CFI (cfiCond252) VB load(1, XDATA, add(CFA_XSP16, literal(-15)))
          CFI (cfiCond252) V0 load(1, XDATA, add(CFA_XSP16, literal(-14)))
          CFI (cfiCond252) V1 load(1, XDATA, add(CFA_XSP16, literal(-13)))
          CFI (cfiCond252) V2 load(1, XDATA, add(CFA_XSP16, literal(-12)))
          CFI (cfiCond252) V3 load(1, XDATA, add(CFA_XSP16, literal(-11)))
          CFI (cfiCond252) V4 load(1, XDATA, add(CFA_XSP16, literal(-10)))
          CFI (cfiCond252) V5 load(1, XDATA, add(CFA_XSP16, literal(-9)))
          CFI (cfiCond252) V6 load(1, XDATA, add(CFA_XSP16, literal(-8)))
          CFI (cfiCond252) V7 load(1, XDATA, add(CFA_XSP16, literal(-7)))
          CFI (cfiCond252) R7 load(1, XDATA, add(CFA_XSP16, literal(-6)))
          CFI (cfiCond252) ?RET_LOW load(1, XDATA, add(CFA_XSP16, literal(-5)))
          CFI (cfiCond252) ?RET_HIGH load(1, XDATA, add(CFA_XSP16, literal(-4)))
          CFI (cfiCond252) ?BRET_EXT load(1, XDATA, add(CFA_XSP16, literal(-3)))
          CFI (cfiCond252) DPL0 load(1, XDATA, add(CFA_XSP16, literal(-2)))
          CFI (cfiCond252) DPH0 load(1, XDATA, add(CFA_XSP16, literal(-1)))
          CFI (cfiCond252) CFA_SP SP+-2
          CFI (cfiCond252) CFA_XSP16 add(XSP16, 16)
          CFI Block cfiCond253 Using cfiCommon0
          CFI (cfiCond253) Function touchLinkInitiator_event_loop
          CFI (cfiCond253) Conditional ??CrossCallReturnLabel_130
          CFI (cfiCond253) R6 load(1, XDATA, add(CFA_XSP16, literal(-16)))
          CFI (cfiCond253) VB load(1, XDATA, add(CFA_XSP16, literal(-15)))
          CFI (cfiCond253) V0 load(1, XDATA, add(CFA_XSP16, literal(-14)))
          CFI (cfiCond253) V1 load(1, XDATA, add(CFA_XSP16, literal(-13)))
          CFI (cfiCond253) V2 load(1, XDATA, add(CFA_XSP16, literal(-12)))
          CFI (cfiCond253) V3 load(1, XDATA, add(CFA_XSP16, literal(-11)))
          CFI (cfiCond253) V4 load(1, XDATA, add(CFA_XSP16, literal(-10)))
          CFI (cfiCond253) V5 load(1, XDATA, add(CFA_XSP16, literal(-9)))
          CFI (cfiCond253) V6 load(1, XDATA, add(CFA_XSP16, literal(-8)))
          CFI (cfiCond253) V7 load(1, XDATA, add(CFA_XSP16, literal(-7)))
          CFI (cfiCond253) R7 load(1, XDATA, add(CFA_XSP16, literal(-6)))
          CFI (cfiCond253) ?RET_LOW load(1, XDATA, add(CFA_XSP16, literal(-5)))
          CFI (cfiCond253) ?RET_HIGH load(1, XDATA, add(CFA_XSP16, literal(-4)))
          CFI (cfiCond253) ?BRET_EXT load(1, XDATA, add(CFA_XSP16, literal(-3)))
          CFI (cfiCond253) DPL0 load(1, XDATA, add(CFA_XSP16, literal(-2)))
          CFI (cfiCond253) DPH0 load(1, XDATA, add(CFA_XSP16, literal(-1)))
          CFI (cfiCond253) CFA_SP SP+-2
          CFI (cfiCond253) CFA_XSP16 add(XSP16, 75)
          CFI Block cfiCond254 Using cfiCommon0
          CFI (cfiCond254) Function touchLinkInitiator_event_loop
          CFI (cfiCond254) Conditional ??CrossCallReturnLabel_131
          CFI (cfiCond254) R6 load(1, XDATA, add(CFA_XSP16, literal(-16)))
          CFI (cfiCond254) VB load(1, XDATA, add(CFA_XSP16, literal(-15)))
          CFI (cfiCond254) V0 load(1, XDATA, add(CFA_XSP16, literal(-14)))
          CFI (cfiCond254) V1 load(1, XDATA, add(CFA_XSP16, literal(-13)))
          CFI (cfiCond254) V2 load(1, XDATA, add(CFA_XSP16, literal(-12)))
          CFI (cfiCond254) V3 load(1, XDATA, add(CFA_XSP16, literal(-11)))
          CFI (cfiCond254) V4 load(1, XDATA, add(CFA_XSP16, literal(-10)))
          CFI (cfiCond254) V5 load(1, XDATA, add(CFA_XSP16, literal(-9)))
          CFI (cfiCond254) V6 load(1, XDATA, add(CFA_XSP16, literal(-8)))
          CFI (cfiCond254) V7 load(1, XDATA, add(CFA_XSP16, literal(-7)))
          CFI (cfiCond254) R7 load(1, XDATA, add(CFA_XSP16, literal(-6)))
          CFI (cfiCond254) ?RET_LOW load(1, XDATA, add(CFA_XSP16, literal(-5)))
          CFI (cfiCond254) ?RET_HIGH load(1, XDATA, add(CFA_XSP16, literal(-4)))
          CFI (cfiCond254) ?BRET_EXT load(1, XDATA, add(CFA_XSP16, literal(-3)))
          CFI (cfiCond254) DPL0 load(1, XDATA, add(CFA_XSP16, literal(-2)))
          CFI (cfiCond254) DPH0 load(1, XDATA, add(CFA_XSP16, literal(-1)))
          CFI (cfiCond254) CFA_SP SP+-2
          CFI (cfiCond254) CFA_XSP16 add(XSP16, 75)
          CFI Block cfiPicker255 Using cfiCommon1
          CFI (cfiPicker255) NoFunction
          CFI (cfiPicker255) Picker
        LCALL     ?Subroutine41 & 0xFFFF
??CrossCallReturnLabel_156:
        RET
          CFI EndBlock cfiCond234
          CFI EndBlock cfiCond235
          CFI EndBlock cfiCond236
          CFI EndBlock cfiCond237
          CFI EndBlock cfiCond238
          CFI EndBlock cfiCond239
          CFI EndBlock cfiCond240
          CFI EndBlock cfiCond241
          CFI EndBlock cfiCond242
          CFI EndBlock cfiCond243
          CFI EndBlock cfiCond244
          CFI EndBlock cfiCond245
          CFI EndBlock cfiCond246
          CFI EndBlock cfiCond247
          CFI EndBlock cfiCond248
          CFI EndBlock cfiCond249
          CFI EndBlock cfiCond250
          CFI EndBlock cfiCond251
          CFI EndBlock cfiCond252
          CFI EndBlock cfiCond253
          CFI EndBlock cfiCond254
          CFI EndBlock cfiPicker255

        RSEG BANKED_CODE:HUGECODE:NOROOT(0)
?Subroutine41:
          CFI Block cfiCond256 Using cfiCommon0
          CFI Function touchLinkInitiator_event_loop
          CFI Conditional ??CrossCallReturnLabel_152, ??CrossCallReturnLabel_7
          CFI R6 load(1, XDATA, add(CFA_XSP16, literal(-16)))
          CFI VB load(1, XDATA, add(CFA_XSP16, literal(-15)))
          CFI V0 load(1, XDATA, add(CFA_XSP16, literal(-14)))
          CFI V1 load(1, XDATA, add(CFA_XSP16, literal(-13)))
          CFI V2 load(1, XDATA, add(CFA_XSP16, literal(-12)))
          CFI V3 load(1, XDATA, add(CFA_XSP16, literal(-11)))
          CFI V4 load(1, XDATA, add(CFA_XSP16, literal(-10)))
          CFI V5 load(1, XDATA, add(CFA_XSP16, literal(-9)))
          CFI V6 load(1, XDATA, add(CFA_XSP16, literal(-8)))
          CFI V7 load(1, XDATA, add(CFA_XSP16, literal(-7)))
          CFI R7 load(1, XDATA, add(CFA_XSP16, literal(-6)))
          CFI ?RET_LOW load(1, XDATA, add(CFA_XSP16, literal(-5)))
          CFI ?RET_HIGH load(1, XDATA, add(CFA_XSP16, literal(-4)))
          CFI ?BRET_EXT load(1, XDATA, add(CFA_XSP16, literal(-3)))
          CFI DPL0 load(1, XDATA, add(CFA_XSP16, literal(-2)))
          CFI DPH0 load(1, XDATA, add(CFA_XSP16, literal(-1)))
          CFI CFA_SP SP+-4
          CFI CFA_XSP16 add(XSP16, 75)
          CFI Block cfiCond257 Using cfiCommon0
          CFI (cfiCond257) Function touchLinkInitiator_event_loop
          CFI (cfiCond257) Conditional ??CrossCallReturnLabel_152, ??CrossCallReturnLabel_8
          CFI (cfiCond257) R6 load(1, XDATA, add(CFA_XSP16, literal(-16)))
          CFI (cfiCond257) VB load(1, XDATA, add(CFA_XSP16, literal(-15)))
          CFI (cfiCond257) V0 load(1, XDATA, add(CFA_XSP16, literal(-14)))
          CFI (cfiCond257) V1 load(1, XDATA, add(CFA_XSP16, literal(-13)))
          CFI (cfiCond257) V2 load(1, XDATA, add(CFA_XSP16, literal(-12)))
          CFI (cfiCond257) V3 load(1, XDATA, add(CFA_XSP16, literal(-11)))
          CFI (cfiCond257) V4 load(1, XDATA, add(CFA_XSP16, literal(-10)))
          CFI (cfiCond257) V5 load(1, XDATA, add(CFA_XSP16, literal(-9)))
          CFI (cfiCond257) V6 load(1, XDATA, add(CFA_XSP16, literal(-8)))
          CFI (cfiCond257) V7 load(1, XDATA, add(CFA_XSP16, literal(-7)))
          CFI (cfiCond257) R7 load(1, XDATA, add(CFA_XSP16, literal(-6)))
          CFI (cfiCond257) ?RET_LOW load(1, XDATA, add(CFA_XSP16, literal(-5)))
          CFI (cfiCond257) ?RET_HIGH load(1, XDATA, add(CFA_XSP16, literal(-4)))
          CFI (cfiCond257) ?BRET_EXT load(1, XDATA, add(CFA_XSP16, literal(-3)))
          CFI (cfiCond257) DPL0 load(1, XDATA, add(CFA_XSP16, literal(-2)))
          CFI (cfiCond257) DPH0 load(1, XDATA, add(CFA_XSP16, literal(-1)))
          CFI (cfiCond257) CFA_SP SP+-4
          CFI (cfiCond257) CFA_XSP16 add(XSP16, 75)
          CFI Block cfiCond258 Using cfiCommon0
          CFI (cfiCond258) Function touchLink_InitiatorSendScanRsp
          CFI (cfiCond258) Conditional ??CrossCallReturnLabel_154, ??CrossCallReturnLabel_104
          CFI (cfiCond258) R6 load(1, XDATA, add(CFA_XSP16, literal(-22)))
          CFI (cfiCond258) VB load(1, XDATA, add(CFA_XSP16, literal(-21)))
          CFI (cfiCond258) V0 load(1, XDATA, add(CFA_XSP16, literal(-20)))
          CFI (cfiCond258) V1 load(1, XDATA, add(CFA_XSP16, literal(-19)))
          CFI (cfiCond258) V2 load(1, XDATA, add(CFA_XSP16, literal(-18)))
          CFI (cfiCond258) V3 load(1, XDATA, add(CFA_XSP16, literal(-17)))
          CFI (cfiCond258) V4 load(1, XDATA, add(CFA_XSP16, literal(-16)))
          CFI (cfiCond258) V5 load(1, XDATA, add(CFA_XSP16, literal(-15)))
          CFI (cfiCond258) V6 load(1, XDATA, add(CFA_XSP16, literal(-14)))
          CFI (cfiCond258) V7 load(1, XDATA, add(CFA_XSP16, literal(-13)))
          CFI (cfiCond258) V8 load(1, XDATA, add(CFA_XSP16, literal(-12)))
          CFI (cfiCond258) V9 load(1, XDATA, add(CFA_XSP16, literal(-11)))
          CFI (cfiCond258) V10 load(1, XDATA, add(CFA_XSP16, literal(-10)))
          CFI (cfiCond258) V11 load(1, XDATA, add(CFA_XSP16, literal(-9)))
          CFI (cfiCond258) V12 load(1, XDATA, add(CFA_XSP16, literal(-8)))
          CFI (cfiCond258) V13 load(1, XDATA, add(CFA_XSP16, literal(-7)))
          CFI (cfiCond258) R7 load(1, XDATA, add(CFA_XSP16, literal(-6)))
          CFI (cfiCond258) ?RET_LOW load(1, XDATA, add(CFA_XSP16, literal(-5)))
          CFI (cfiCond258) ?RET_HIGH load(1, XDATA, add(CFA_XSP16, literal(-4)))
          CFI (cfiCond258) ?BRET_EXT load(1, XDATA, add(CFA_XSP16, literal(-3)))
          CFI (cfiCond258) DPL0 load(1, XDATA, add(CFA_XSP16, literal(-2)))
          CFI (cfiCond258) DPH0 load(1, XDATA, add(CFA_XSP16, literal(-1)))
          CFI (cfiCond258) CFA_SP SP+-4
          CFI (cfiCond258) CFA_XSP16 add(XSP16, 22)
          CFI Block cfiCond259 Using cfiCommon0
          CFI (cfiCond259) Function initiatorSendNwkJoinReq
          CFI (cfiCond259) Conditional ??CrossCallReturnLabel_154, ??CrossCallReturnLabel_105
          CFI (cfiCond259) R6 load(1, XDATA, add(CFA_XSP16, literal(-16)))
          CFI (cfiCond259) VB load(1, XDATA, add(CFA_XSP16, literal(-15)))
          CFI (cfiCond259) V0 load(1, XDATA, add(CFA_XSP16, literal(-14)))
          CFI (cfiCond259) V1 load(1, XDATA, add(CFA_XSP16, literal(-13)))
          CFI (cfiCond259) V2 load(1, XDATA, add(CFA_XSP16, literal(-12)))
          CFI (cfiCond259) V3 load(1, XDATA, add(CFA_XSP16, literal(-11)))
          CFI (cfiCond259) V4 load(1, XDATA, add(CFA_XSP16, literal(-10)))
          CFI (cfiCond259) V5 load(1, XDATA, add(CFA_XSP16, literal(-9)))
          CFI (cfiCond259) V6 load(1, XDATA, add(CFA_XSP16, literal(-8)))
          CFI (cfiCond259) V7 load(1, XDATA, add(CFA_XSP16, literal(-7)))
          CFI (cfiCond259) R7 load(1, XDATA, add(CFA_XSP16, literal(-6)))
          CFI (cfiCond259) ?RET_LOW load(1, XDATA, add(CFA_XSP16, literal(-5)))
          CFI (cfiCond259) ?RET_HIGH load(1, XDATA, add(CFA_XSP16, literal(-4)))
          CFI (cfiCond259) ?BRET_EXT load(1, XDATA, add(CFA_XSP16, literal(-3)))
          CFI (cfiCond259) DPL0 load(1, XDATA, add(CFA_XSP16, literal(-2)))
          CFI (cfiCond259) DPH0 load(1, XDATA, add(CFA_XSP16, literal(-1)))
          CFI (cfiCond259) CFA_SP SP+-4
          CFI (cfiCond259) CFA_XSP16 add(XSP16, 16)
          CFI Block cfiCond260 Using cfiCommon0
          CFI (cfiCond260) Function initiatorNwkUpdateReqCB
          CFI (cfiCond260) Conditional ??CrossCallReturnLabel_154, ??CrossCallReturnLabel_106
          CFI (cfiCond260) R6 load(1, XDATA, add(CFA_XSP16, literal(-10)))
          CFI (cfiCond260) VB load(1, XDATA, add(CFA_XSP16, literal(-9)))
          CFI (cfiCond260) V0 load(1, XDATA, add(CFA_XSP16, literal(-8)))
          CFI (cfiCond260) V1 load(1, XDATA, add(CFA_XSP16, literal(-7)))
          CFI (cfiCond260) R7 load(1, XDATA, add(CFA_XSP16, literal(-6)))
          CFI (cfiCond260) ?RET_LOW load(1, XDATA, add(CFA_XSP16, literal(-5)))
          CFI (cfiCond260) ?RET_HIGH load(1, XDATA, add(CFA_XSP16, literal(-4)))
          CFI (cfiCond260) ?BRET_EXT load(1, XDATA, add(CFA_XSP16, literal(-3)))
          CFI (cfiCond260) DPL0 load(1, XDATA, add(CFA_XSP16, literal(-2)))
          CFI (cfiCond260) DPH0 load(1, XDATA, add(CFA_XSP16, literal(-1)))
          CFI (cfiCond260) CFA_SP SP+-4
          CFI (cfiCond260) CFA_XSP16 add(XSP16, 10)
          CFI Block cfiCond261 Using cfiCommon0
          CFI (cfiCond261) Function touchLinkInitiator_event_loop
          CFI (cfiCond261) Conditional ??CrossCallReturnLabel_155, ??CrossCallReturnLabel_124
          CFI (cfiCond261) R6 load(1, XDATA, add(CFA_XSP16, literal(-16)))
          CFI (cfiCond261) VB load(1, XDATA, add(CFA_XSP16, literal(-15)))
          CFI (cfiCond261) V0 load(1, XDATA, add(CFA_XSP16, literal(-14)))
          CFI (cfiCond261) V1 load(1, XDATA, add(CFA_XSP16, literal(-13)))
          CFI (cfiCond261) V2 load(1, XDATA, add(CFA_XSP16, literal(-12)))
          CFI (cfiCond261) V3 load(1, XDATA, add(CFA_XSP16, literal(-11)))
          CFI (cfiCond261) V4 load(1, XDATA, add(CFA_XSP16, literal(-10)))
          CFI (cfiCond261) V5 load(1, XDATA, add(CFA_XSP16, literal(-9)))
          CFI (cfiCond261) V6 load(1, XDATA, add(CFA_XSP16, literal(-8)))
          CFI (cfiCond261) V7 load(1, XDATA, add(CFA_XSP16, literal(-7)))
          CFI (cfiCond261) R7 load(1, XDATA, add(CFA_XSP16, literal(-6)))
          CFI (cfiCond261) ?RET_LOW load(1, XDATA, add(CFA_XSP16, literal(-5)))
          CFI (cfiCond261) ?RET_HIGH load(1, XDATA, add(CFA_XSP16, literal(-4)))
          CFI (cfiCond261) ?BRET_EXT load(1, XDATA, add(CFA_XSP16, literal(-3)))
          CFI (cfiCond261) DPL0 load(1, XDATA, add(CFA_XSP16, literal(-2)))
          CFI (cfiCond261) DPH0 load(1, XDATA, add(CFA_XSP16, literal(-1)))
          CFI (cfiCond261) CFA_SP SP+-4
          CFI (cfiCond261) CFA_XSP16 add(XSP16, 75)
          CFI Block cfiCond262 Using cfiCommon0
          CFI (cfiCond262) Function touchLinkInitiator_event_loop
          CFI (cfiCond262) Conditional ??CrossCallReturnLabel_155, ??CrossCallReturnLabel_125
          CFI (cfiCond262) R6 load(1, XDATA, add(CFA_XSP16, literal(-16)))
          CFI (cfiCond262) VB load(1, XDATA, add(CFA_XSP16, literal(-15)))
          CFI (cfiCond262) V0 load(1, XDATA, add(CFA_XSP16, literal(-14)))
          CFI (cfiCond262) V1 load(1, XDATA, add(CFA_XSP16, literal(-13)))
          CFI (cfiCond262) V2 load(1, XDATA, add(CFA_XSP16, literal(-12)))
          CFI (cfiCond262) V3 load(1, XDATA, add(CFA_XSP16, literal(-11)))
          CFI (cfiCond262) V4 load(1, XDATA, add(CFA_XSP16, literal(-10)))
          CFI (cfiCond262) V5 load(1, XDATA, add(CFA_XSP16, literal(-9)))
          CFI (cfiCond262) V6 load(1, XDATA, add(CFA_XSP16, literal(-8)))
          CFI (cfiCond262) V7 load(1, XDATA, add(CFA_XSP16, literal(-7)))
          CFI (cfiCond262) R7 load(1, XDATA, add(CFA_XSP16, literal(-6)))
          CFI (cfiCond262) ?RET_LOW load(1, XDATA, add(CFA_XSP16, literal(-5)))
          CFI (cfiCond262) ?RET_HIGH load(1, XDATA, add(CFA_XSP16, literal(-4)))
          CFI (cfiCond262) ?BRET_EXT load(1, XDATA, add(CFA_XSP16, literal(-3)))
          CFI (cfiCond262) DPL0 load(1, XDATA, add(CFA_XSP16, literal(-2)))
          CFI (cfiCond262) DPH0 load(1, XDATA, add(CFA_XSP16, literal(-1)))
          CFI (cfiCond262) CFA_SP SP+-4
          CFI (cfiCond262) CFA_XSP16 add(XSP16, 75)
          CFI Block cfiCond263 Using cfiCommon0
          CFI (cfiCond263) Function touchLinkInitiator_event_loop
          CFI (cfiCond263) Conditional ??CrossCallReturnLabel_155, ??CrossCallReturnLabel_127
          CFI (cfiCond263) R6 load(1, XDATA, add(CFA_XSP16, literal(-16)))
          CFI (cfiCond263) VB load(1, XDATA, add(CFA_XSP16, literal(-15)))
          CFI (cfiCond263) V0 load(1, XDATA, add(CFA_XSP16, literal(-14)))
          CFI (cfiCond263) V1 load(1, XDATA, add(CFA_XSP16, literal(-13)))
          CFI (cfiCond263) V2 load(1, XDATA, add(CFA_XSP16, literal(-12)))
          CFI (cfiCond263) V3 load(1, XDATA, add(CFA_XSP16, literal(-11)))
          CFI (cfiCond263) V4 load(1, XDATA, add(CFA_XSP16, literal(-10)))
          CFI (cfiCond263) V5 load(1, XDATA, add(CFA_XSP16, literal(-9)))
          CFI (cfiCond263) V6 load(1, XDATA, add(CFA_XSP16, literal(-8)))
          CFI (cfiCond263) V7 load(1, XDATA, add(CFA_XSP16, literal(-7)))
          CFI (cfiCond263) R7 load(1, XDATA, add(CFA_XSP16, literal(-6)))
          CFI (cfiCond263) ?RET_LOW load(1, XDATA, add(CFA_XSP16, literal(-5)))
          CFI (cfiCond263) ?RET_HIGH load(1, XDATA, add(CFA_XSP16, literal(-4)))
          CFI (cfiCond263) ?BRET_EXT load(1, XDATA, add(CFA_XSP16, literal(-3)))
          CFI (cfiCond263) DPL0 load(1, XDATA, add(CFA_XSP16, literal(-2)))
          CFI (cfiCond263) DPH0 load(1, XDATA, add(CFA_XSP16, literal(-1)))
          CFI (cfiCond263) CFA_SP SP+-4
          CFI (cfiCond263) CFA_XSP16 add(XSP16, 75)
          CFI Block cfiCond264 Using cfiCommon0
          CFI (cfiCond264) Function touchLinkInitiator_event_loop
          CFI (cfiCond264) Conditional ??CrossCallReturnLabel_155, ??CrossCallReturnLabel_128
          CFI (cfiCond264) R6 load(1, XDATA, add(CFA_XSP16, literal(-16)))
          CFI (cfiCond264) VB load(1, XDATA, add(CFA_XSP16, literal(-15)))
          CFI (cfiCond264) V0 load(1, XDATA, add(CFA_XSP16, literal(-14)))
          CFI (cfiCond264) V1 load(1, XDATA, add(CFA_XSP16, literal(-13)))
          CFI (cfiCond264) V2 load(1, XDATA, add(CFA_XSP16, literal(-12)))
          CFI (cfiCond264) V3 load(1, XDATA, add(CFA_XSP16, literal(-11)))
          CFI (cfiCond264) V4 load(1, XDATA, add(CFA_XSP16, literal(-10)))
          CFI (cfiCond264) V5 load(1, XDATA, add(CFA_XSP16, literal(-9)))
          CFI (cfiCond264) V6 load(1, XDATA, add(CFA_XSP16, literal(-8)))
          CFI (cfiCond264) V7 load(1, XDATA, add(CFA_XSP16, literal(-7)))
          CFI (cfiCond264) R7 load(1, XDATA, add(CFA_XSP16, literal(-6)))
          CFI (cfiCond264) ?RET_LOW load(1, XDATA, add(CFA_XSP16, literal(-5)))
          CFI (cfiCond264) ?RET_HIGH load(1, XDATA, add(CFA_XSP16, literal(-4)))
          CFI (cfiCond264) ?BRET_EXT load(1, XDATA, add(CFA_XSP16, literal(-3)))
          CFI (cfiCond264) DPL0 load(1, XDATA, add(CFA_XSP16, literal(-2)))
          CFI (cfiCond264) DPH0 load(1, XDATA, add(CFA_XSP16, literal(-1)))
          CFI (cfiCond264) CFA_SP SP+-4
          CFI (cfiCond264) CFA_XSP16 add(XSP16, 75)
          CFI Block cfiCond265 Using cfiCommon0
          CFI (cfiCond265) Function initiatorScanRspCB
          CFI (cfiCond265) Conditional ??CrossCallReturnLabel_155, ??CrossCallReturnLabel_129
          CFI (cfiCond265) R6 load(1, XDATA, add(CFA_XSP16, literal(-12)))
          CFI (cfiCond265) VB load(1, XDATA, add(CFA_XSP16, literal(-11)))
          CFI (cfiCond265) V0 load(1, XDATA, add(CFA_XSP16, literal(-10)))
          CFI (cfiCond265) V1 load(1, XDATA, add(CFA_XSP16, literal(-9)))
          CFI (cfiCond265) V2 load(1, XDATA, add(CFA_XSP16, literal(-8)))
          CFI (cfiCond265) V3 load(1, XDATA, add(CFA_XSP16, literal(-7)))
          CFI (cfiCond265) R7 load(1, XDATA, add(CFA_XSP16, literal(-6)))
          CFI (cfiCond265) ?RET_LOW load(1, XDATA, add(CFA_XSP16, literal(-5)))
          CFI (cfiCond265) ?RET_HIGH load(1, XDATA, add(CFA_XSP16, literal(-4)))
          CFI (cfiCond265) ?BRET_EXT load(1, XDATA, add(CFA_XSP16, literal(-3)))
          CFI (cfiCond265) DPL0 load(1, XDATA, add(CFA_XSP16, literal(-2)))
          CFI (cfiCond265) DPH0 load(1, XDATA, add(CFA_XSP16, literal(-1)))
          CFI (cfiCond265) CFA_SP SP+-4
          CFI (cfiCond265) CFA_XSP16 add(XSP16, 17)
          CFI Block cfiCond266 Using cfiCommon0
          CFI (cfiCond266) Function initiatorSendNwkJoinReq
          CFI (cfiCond266) Conditional ??CrossCallReturnLabel_155, ??CrossCallReturnLabel_126
          CFI (cfiCond266) R6 load(1, XDATA, add(CFA_XSP16, literal(-16)))
          CFI (cfiCond266) VB load(1, XDATA, add(CFA_XSP16, literal(-15)))
          CFI (cfiCond266) V0 load(1, XDATA, add(CFA_XSP16, literal(-14)))
          CFI (cfiCond266) V1 load(1, XDATA, add(CFA_XSP16, literal(-13)))
          CFI (cfiCond266) V2 load(1, XDATA, add(CFA_XSP16, literal(-12)))
          CFI (cfiCond266) V3 load(1, XDATA, add(CFA_XSP16, literal(-11)))
          CFI (cfiCond266) V4 load(1, XDATA, add(CFA_XSP16, literal(-10)))
          CFI (cfiCond266) V5 load(1, XDATA, add(CFA_XSP16, literal(-9)))
          CFI (cfiCond266) V6 load(1, XDATA, add(CFA_XSP16, literal(-8)))
          CFI (cfiCond266) V7 load(1, XDATA, add(CFA_XSP16, literal(-7)))
          CFI (cfiCond266) R7 load(1, XDATA, add(CFA_XSP16, literal(-6)))
          CFI (cfiCond266) ?RET_LOW load(1, XDATA, add(CFA_XSP16, literal(-5)))
          CFI (cfiCond266) ?RET_HIGH load(1, XDATA, add(CFA_XSP16, literal(-4)))
          CFI (cfiCond266) ?BRET_EXT load(1, XDATA, add(CFA_XSP16, literal(-3)))
          CFI (cfiCond266) DPL0 load(1, XDATA, add(CFA_XSP16, literal(-2)))
          CFI (cfiCond266) DPH0 load(1, XDATA, add(CFA_XSP16, literal(-1)))
          CFI (cfiCond266) CFA_SP SP+-4
          CFI (cfiCond266) CFA_XSP16 add(XSP16, 16)
          CFI Block cfiCond267 Using cfiCommon0
          CFI (cfiCond267) Function touchLinkInitiator_event_loop
          CFI (cfiCond267) Conditional ??CrossCallReturnLabel_156, ??CrossCallReturnLabel_130
          CFI (cfiCond267) R6 load(1, XDATA, add(CFA_XSP16, literal(-16)))
          CFI (cfiCond267) VB load(1, XDATA, add(CFA_XSP16, literal(-15)))
          CFI (cfiCond267) V0 load(1, XDATA, add(CFA_XSP16, literal(-14)))
          CFI (cfiCond267) V1 load(1, XDATA, add(CFA_XSP16, literal(-13)))
          CFI (cfiCond267) V2 load(1, XDATA, add(CFA_XSP16, literal(-12)))
          CFI (cfiCond267) V3 load(1, XDATA, add(CFA_XSP16, literal(-11)))
          CFI (cfiCond267) V4 load(1, XDATA, add(CFA_XSP16, literal(-10)))
          CFI (cfiCond267) V5 load(1, XDATA, add(CFA_XSP16, literal(-9)))
          CFI (cfiCond267) V6 load(1, XDATA, add(CFA_XSP16, literal(-8)))
          CFI (cfiCond267) V7 load(1, XDATA, add(CFA_XSP16, literal(-7)))
          CFI (cfiCond267) R7 load(1, XDATA, add(CFA_XSP16, literal(-6)))
          CFI (cfiCond267) ?RET_LOW load(1, XDATA, add(CFA_XSP16, literal(-5)))
          CFI (cfiCond267) ?RET_HIGH load(1, XDATA, add(CFA_XSP16, literal(-4)))
          CFI (cfiCond267) ?BRET_EXT load(1, XDATA, add(CFA_XSP16, literal(-3)))
          CFI (cfiCond267) DPL0 load(1, XDATA, add(CFA_XSP16, literal(-2)))
          CFI (cfiCond267) DPH0 load(1, XDATA, add(CFA_XSP16, literal(-1)))
          CFI (cfiCond267) CFA_SP SP+-4
          CFI (cfiCond267) CFA_XSP16 add(XSP16, 75)
          CFI Block cfiCond268 Using cfiCommon0
          CFI (cfiCond268) Function touchLinkInitiator_event_loop
          CFI (cfiCond268) Conditional ??CrossCallReturnLabel_156, ??CrossCallReturnLabel_131
          CFI (cfiCond268) R6 load(1, XDATA, add(CFA_XSP16, literal(-16)))
          CFI (cfiCond268) VB load(1, XDATA, add(CFA_XSP16, literal(-15)))
          CFI (cfiCond268) V0 load(1, XDATA, add(CFA_XSP16, literal(-14)))
          CFI (cfiCond268) V1 load(1, XDATA, add(CFA_XSP16, literal(-13)))
          CFI (cfiCond268) V2 load(1, XDATA, add(CFA_XSP16, literal(-12)))
          CFI (cfiCond268) V3 load(1, XDATA, add(CFA_XSP16, literal(-11)))
          CFI (cfiCond268) V4 load(1, XDATA, add(CFA_XSP16, literal(-10)))
          CFI (cfiCond268) V5 load(1, XDATA, add(CFA_XSP16, literal(-9)))
          CFI (cfiCond268) V6 load(1, XDATA, add(CFA_XSP16, literal(-8)))
          CFI (cfiCond268) V7 load(1, XDATA, add(CFA_XSP16, literal(-7)))
          CFI (cfiCond268) R7 load(1, XDATA, add(CFA_XSP16, literal(-6)))
          CFI (cfiCond268) ?RET_LOW load(1, XDATA, add(CFA_XSP16, literal(-5)))
          CFI (cfiCond268) ?RET_HIGH load(1, XDATA, add(CFA_XSP16, literal(-4)))
          CFI (cfiCond268) ?BRET_EXT load(1, XDATA, add(CFA_XSP16, literal(-3)))
          CFI (cfiCond268) DPL0 load(1, XDATA, add(CFA_XSP16, literal(-2)))
          CFI (cfiCond268) DPH0 load(1, XDATA, add(CFA_XSP16, literal(-1)))
          CFI (cfiCond268) CFA_SP SP+-4
          CFI (cfiCond268) CFA_XSP16 add(XSP16, 75)
          CFI Block cfiCond269 Using cfiCommon0
          CFI (cfiCond269) Function touchLinkInitiator_StartDevDisc
          CFI (cfiCond269) Conditional ??CrossCallReturnLabel_156, ??CrossCallReturnLabel_132
          CFI (cfiCond269) R6 load(1, XDATA, add(CFA_XSP16, literal(-16)))
          CFI (cfiCond269) VB load(1, XDATA, add(CFA_XSP16, literal(-15)))
          CFI (cfiCond269) V0 load(1, XDATA, add(CFA_XSP16, literal(-14)))
          CFI (cfiCond269) V1 load(1, XDATA, add(CFA_XSP16, literal(-13)))
          CFI (cfiCond269) V2 load(1, XDATA, add(CFA_XSP16, literal(-12)))
          CFI (cfiCond269) V3 load(1, XDATA, add(CFA_XSP16, literal(-11)))
          CFI (cfiCond269) V4 load(1, XDATA, add(CFA_XSP16, literal(-10)))
          CFI (cfiCond269) V5 load(1, XDATA, add(CFA_XSP16, literal(-9)))
          CFI (cfiCond269) V6 load(1, XDATA, add(CFA_XSP16, literal(-8)))
          CFI (cfiCond269) V7 load(1, XDATA, add(CFA_XSP16, literal(-7)))
          CFI (cfiCond269) R7 load(1, XDATA, add(CFA_XSP16, literal(-6)))
          CFI (cfiCond269) ?RET_LOW load(1, XDATA, add(CFA_XSP16, literal(-5)))
          CFI (cfiCond269) ?RET_HIGH load(1, XDATA, add(CFA_XSP16, literal(-4)))
          CFI (cfiCond269) ?BRET_EXT load(1, XDATA, add(CFA_XSP16, literal(-3)))
          CFI (cfiCond269) DPL0 load(1, XDATA, add(CFA_XSP16, literal(-2)))
          CFI (cfiCond269) DPH0 load(1, XDATA, add(CFA_XSP16, literal(-1)))
          CFI (cfiCond269) CFA_SP SP+-4
          CFI (cfiCond269) CFA_XSP16 add(XSP16, 17)
          CFI Block cfiCond270 Using cfiCommon0
          CFI (cfiCond270) Function touchLinkInitiator_StartDevDisc
          CFI (cfiCond270) Conditional ??CrossCallReturnLabel_156, ??CrossCallReturnLabel_133
          CFI (cfiCond270) R6 load(1, XDATA, add(CFA_XSP16, literal(-16)))
          CFI (cfiCond270) VB load(1, XDATA, add(CFA_XSP16, literal(-15)))
          CFI (cfiCond270) V0 load(1, XDATA, add(CFA_XSP16, literal(-14)))
          CFI (cfiCond270) V1 load(1, XDATA, add(CFA_XSP16, literal(-13)))
          CFI (cfiCond270) V2 load(1, XDATA, add(CFA_XSP16, literal(-12)))
          CFI (cfiCond270) V3 load(1, XDATA, add(CFA_XSP16, literal(-11)))
          CFI (cfiCond270) V4 load(1, XDATA, add(CFA_XSP16, literal(-10)))
          CFI (cfiCond270) V5 load(1, XDATA, add(CFA_XSP16, literal(-9)))
          CFI (cfiCond270) V6 load(1, XDATA, add(CFA_XSP16, literal(-8)))
          CFI (cfiCond270) V7 load(1, XDATA, add(CFA_XSP16, literal(-7)))
          CFI (cfiCond270) R7 load(1, XDATA, add(CFA_XSP16, literal(-6)))
          CFI (cfiCond270) ?RET_LOW load(1, XDATA, add(CFA_XSP16, literal(-5)))
          CFI (cfiCond270) ?RET_HIGH load(1, XDATA, add(CFA_XSP16, literal(-4)))
          CFI (cfiCond270) ?BRET_EXT load(1, XDATA, add(CFA_XSP16, literal(-3)))
          CFI (cfiCond270) DPL0 load(1, XDATA, add(CFA_XSP16, literal(-2)))
          CFI (cfiCond270) DPH0 load(1, XDATA, add(CFA_XSP16, literal(-1)))
          CFI (cfiCond270) CFA_SP SP+-4
          CFI (cfiCond270) CFA_XSP16 add(XSP16, 17)
          CFI Block cfiCond271 Using cfiCommon0
          CFI (cfiCond271) Function touchLinkInitiator_event_loop
          CFI (cfiCond271) Conditional ??CrossCallReturnLabel_156, ??CrossCallReturnLabel_134
          CFI (cfiCond271) R6 load(1, XDATA, add(CFA_XSP16, literal(-16)))
          CFI (cfiCond271) VB load(1, XDATA, add(CFA_XSP16, literal(-15)))
          CFI (cfiCond271) V0 load(1, XDATA, add(CFA_XSP16, literal(-14)))
          CFI (cfiCond271) V1 load(1, XDATA, add(CFA_XSP16, literal(-13)))
          CFI (cfiCond271) V2 load(1, XDATA, add(CFA_XSP16, literal(-12)))
          CFI (cfiCond271) V3 load(1, XDATA, add(CFA_XSP16, literal(-11)))
          CFI (cfiCond271) V4 load(1, XDATA, add(CFA_XSP16, literal(-10)))
          CFI (cfiCond271) V5 load(1, XDATA, add(CFA_XSP16, literal(-9)))
          CFI (cfiCond271) V6 load(1, XDATA, add(CFA_XSP16, literal(-8)))
          CFI (cfiCond271) V7 load(1, XDATA, add(CFA_XSP16, literal(-7)))
          CFI (cfiCond271) R7 load(1, XDATA, add(CFA_XSP16, literal(-6)))
          CFI (cfiCond271) ?RET_LOW load(1, XDATA, add(CFA_XSP16, literal(-5)))
          CFI (cfiCond271) ?RET_HIGH load(1, XDATA, add(CFA_XSP16, literal(-4)))
          CFI (cfiCond271) ?BRET_EXT load(1, XDATA, add(CFA_XSP16, literal(-3)))
          CFI (cfiCond271) DPL0 load(1, XDATA, add(CFA_XSP16, literal(-2)))
          CFI (cfiCond271) DPH0 load(1, XDATA, add(CFA_XSP16, literal(-1)))
          CFI (cfiCond271) CFA_SP SP+-4
          CFI (cfiCond271) CFA_XSP16 add(XSP16, 75)
          CFI Block cfiCond272 Using cfiCommon0
          CFI (cfiCond272) Function touchLinkInitiator_event_loop
          CFI (cfiCond272) Conditional ??CrossCallReturnLabel_156, ??CrossCallReturnLabel_135
          CFI (cfiCond272) R6 load(1, XDATA, add(CFA_XSP16, literal(-16)))
          CFI (cfiCond272) VB load(1, XDATA, add(CFA_XSP16, literal(-15)))
          CFI (cfiCond272) V0 load(1, XDATA, add(CFA_XSP16, literal(-14)))
          CFI (cfiCond272) V1 load(1, XDATA, add(CFA_XSP16, literal(-13)))
          CFI (cfiCond272) V2 load(1, XDATA, add(CFA_XSP16, literal(-12)))
          CFI (cfiCond272) V3 load(1, XDATA, add(CFA_XSP16, literal(-11)))
          CFI (cfiCond272) V4 load(1, XDATA, add(CFA_XSP16, literal(-10)))
          CFI (cfiCond272) V5 load(1, XDATA, add(CFA_XSP16, literal(-9)))
          CFI (cfiCond272) V6 load(1, XDATA, add(CFA_XSP16, literal(-8)))
          CFI (cfiCond272) V7 load(1, XDATA, add(CFA_XSP16, literal(-7)))
          CFI (cfiCond272) R7 load(1, XDATA, add(CFA_XSP16, literal(-6)))
          CFI (cfiCond272) ?RET_LOW load(1, XDATA, add(CFA_XSP16, literal(-5)))
          CFI (cfiCond272) ?RET_HIGH load(1, XDATA, add(CFA_XSP16, literal(-4)))
          CFI (cfiCond272) ?BRET_EXT load(1, XDATA, add(CFA_XSP16, literal(-3)))
          CFI (cfiCond272) DPL0 load(1, XDATA, add(CFA_XSP16, literal(-2)))
          CFI (cfiCond272) DPH0 load(1, XDATA, add(CFA_XSP16, literal(-1)))
          CFI (cfiCond272) CFA_SP SP+-4
          CFI (cfiCond272) CFA_XSP16 add(XSP16, 75)
          CFI Block cfiCond273 Using cfiCommon0
          CFI (cfiCond273) Function touchLinkInitiator_event_loop
          CFI (cfiCond273) Conditional ??CrossCallReturnLabel_156, ??CrossCallReturnLabel_136
          CFI (cfiCond273) R6 load(1, XDATA, add(CFA_XSP16, literal(-16)))
          CFI (cfiCond273) VB load(1, XDATA, add(CFA_XSP16, literal(-15)))
          CFI (cfiCond273) V0 load(1, XDATA, add(CFA_XSP16, literal(-14)))
          CFI (cfiCond273) V1 load(1, XDATA, add(CFA_XSP16, literal(-13)))
          CFI (cfiCond273) V2 load(1, XDATA, add(CFA_XSP16, literal(-12)))
          CFI (cfiCond273) V3 load(1, XDATA, add(CFA_XSP16, literal(-11)))
          CFI (cfiCond273) V4 load(1, XDATA, add(CFA_XSP16, literal(-10)))
          CFI (cfiCond273) V5 load(1, XDATA, add(CFA_XSP16, literal(-9)))
          CFI (cfiCond273) V6 load(1, XDATA, add(CFA_XSP16, literal(-8)))
          CFI (cfiCond273) V7 load(1, XDATA, add(CFA_XSP16, literal(-7)))
          CFI (cfiCond273) R7 load(1, XDATA, add(CFA_XSP16, literal(-6)))
          CFI (cfiCond273) ?RET_LOW load(1, XDATA, add(CFA_XSP16, literal(-5)))
          CFI (cfiCond273) ?RET_HIGH load(1, XDATA, add(CFA_XSP16, literal(-4)))
          CFI (cfiCond273) ?BRET_EXT load(1, XDATA, add(CFA_XSP16, literal(-3)))
          CFI (cfiCond273) DPL0 load(1, XDATA, add(CFA_XSP16, literal(-2)))
          CFI (cfiCond273) DPH0 load(1, XDATA, add(CFA_XSP16, literal(-1)))
          CFI (cfiCond273) CFA_SP SP+-4
          CFI (cfiCond273) CFA_XSP16 add(XSP16, 75)
          CFI Block cfiCond274 Using cfiCommon0
          CFI (cfiCond274) Function touchLinkInitiator_event_loop
          CFI (cfiCond274) Conditional ??CrossCallReturnLabel_156, ??CrossCallReturnLabel_137
          CFI (cfiCond274) R6 load(1, XDATA, add(CFA_XSP16, literal(-16)))
          CFI (cfiCond274) VB load(1, XDATA, add(CFA_XSP16, literal(-15)))
          CFI (cfiCond274) V0 load(1, XDATA, add(CFA_XSP16, literal(-14)))
          CFI (cfiCond274) V1 load(1, XDATA, add(CFA_XSP16, literal(-13)))
          CFI (cfiCond274) V2 load(1, XDATA, add(CFA_XSP16, literal(-12)))
          CFI (cfiCond274) V3 load(1, XDATA, add(CFA_XSP16, literal(-11)))
          CFI (cfiCond274) V4 load(1, XDATA, add(CFA_XSP16, literal(-10)))
          CFI (cfiCond274) V5 load(1, XDATA, add(CFA_XSP16, literal(-9)))
          CFI (cfiCond274) V6 load(1, XDATA, add(CFA_XSP16, literal(-8)))
          CFI (cfiCond274) V7 load(1, XDATA, add(CFA_XSP16, literal(-7)))
          CFI (cfiCond274) R7 load(1, XDATA, add(CFA_XSP16, literal(-6)))
          CFI (cfiCond274) ?RET_LOW load(1, XDATA, add(CFA_XSP16, literal(-5)))
          CFI (cfiCond274) ?RET_HIGH load(1, XDATA, add(CFA_XSP16, literal(-4)))
          CFI (cfiCond274) ?BRET_EXT load(1, XDATA, add(CFA_XSP16, literal(-3)))
          CFI (cfiCond274) DPL0 load(1, XDATA, add(CFA_XSP16, literal(-2)))
          CFI (cfiCond274) DPH0 load(1, XDATA, add(CFA_XSP16, literal(-1)))
          CFI (cfiCond274) CFA_SP SP+-4
          CFI (cfiCond274) CFA_XSP16 add(XSP16, 75)
          CFI Block cfiCond275 Using cfiCommon0
          CFI (cfiCond275) Function touchLinkInitiator_event_loop
          CFI (cfiCond275) Conditional ??CrossCallReturnLabel_156, ??CrossCallReturnLabel_138
          CFI (cfiCond275) R6 load(1, XDATA, add(CFA_XSP16, literal(-16)))
          CFI (cfiCond275) VB load(1, XDATA, add(CFA_XSP16, literal(-15)))
          CFI (cfiCond275) V0 load(1, XDATA, add(CFA_XSP16, literal(-14)))
          CFI (cfiCond275) V1 load(1, XDATA, add(CFA_XSP16, literal(-13)))
          CFI (cfiCond275) V2 load(1, XDATA, add(CFA_XSP16, literal(-12)))
          CFI (cfiCond275) V3 load(1, XDATA, add(CFA_XSP16, literal(-11)))
          CFI (cfiCond275) V4 load(1, XDATA, add(CFA_XSP16, literal(-10)))
          CFI (cfiCond275) V5 load(1, XDATA, add(CFA_XSP16, literal(-9)))
          CFI (cfiCond275) V6 load(1, XDATA, add(CFA_XSP16, literal(-8)))
          CFI (cfiCond275) V7 load(1, XDATA, add(CFA_XSP16, literal(-7)))
          CFI (cfiCond275) R7 load(1, XDATA, add(CFA_XSP16, literal(-6)))
          CFI (cfiCond275) ?RET_LOW load(1, XDATA, add(CFA_XSP16, literal(-5)))
          CFI (cfiCond275) ?RET_HIGH load(1, XDATA, add(CFA_XSP16, literal(-4)))
          CFI (cfiCond275) ?BRET_EXT load(1, XDATA, add(CFA_XSP16, literal(-3)))
          CFI (cfiCond275) DPL0 load(1, XDATA, add(CFA_XSP16, literal(-2)))
          CFI (cfiCond275) DPH0 load(1, XDATA, add(CFA_XSP16, literal(-1)))
          CFI (cfiCond275) CFA_SP SP+-4
          CFI (cfiCond275) CFA_XSP16 add(XSP16, 75)
          CFI Block cfiCond276 Using cfiCommon0
          CFI (cfiCond276) Function touchLinkInitiator_event_loop
          CFI (cfiCond276) Conditional ??CrossCallReturnLabel_156, ??CrossCallReturnLabel_139
          CFI (cfiCond276) R6 load(1, XDATA, add(CFA_XSP16, literal(-16)))
          CFI (cfiCond276) VB load(1, XDATA, add(CFA_XSP16, literal(-15)))
          CFI (cfiCond276) V0 load(1, XDATA, add(CFA_XSP16, literal(-14)))
          CFI (cfiCond276) V1 load(1, XDATA, add(CFA_XSP16, literal(-13)))
          CFI (cfiCond276) V2 load(1, XDATA, add(CFA_XSP16, literal(-12)))
          CFI (cfiCond276) V3 load(1, XDATA, add(CFA_XSP16, literal(-11)))
          CFI (cfiCond276) V4 load(1, XDATA, add(CFA_XSP16, literal(-10)))
          CFI (cfiCond276) V5 load(1, XDATA, add(CFA_XSP16, literal(-9)))
          CFI (cfiCond276) V6 load(1, XDATA, add(CFA_XSP16, literal(-8)))
          CFI (cfiCond276) V7 load(1, XDATA, add(CFA_XSP16, literal(-7)))
          CFI (cfiCond276) R7 load(1, XDATA, add(CFA_XSP16, literal(-6)))
          CFI (cfiCond276) ?RET_LOW load(1, XDATA, add(CFA_XSP16, literal(-5)))
          CFI (cfiCond276) ?RET_HIGH load(1, XDATA, add(CFA_XSP16, literal(-4)))
          CFI (cfiCond276) ?BRET_EXT load(1, XDATA, add(CFA_XSP16, literal(-3)))
          CFI (cfiCond276) DPL0 load(1, XDATA, add(CFA_XSP16, literal(-2)))
          CFI (cfiCond276) DPH0 load(1, XDATA, add(CFA_XSP16, literal(-1)))
          CFI (cfiCond276) CFA_SP SP+-4
          CFI (cfiCond276) CFA_XSP16 add(XSP16, 75)
          CFI Block cfiCond277 Using cfiCommon0
          CFI (cfiCond277) Function touchLinkInitiator_event_loop
          CFI (cfiCond277) Conditional ??CrossCallReturnLabel_156, ??CrossCallReturnLabel_140
          CFI (cfiCond277) R6 load(1, XDATA, add(CFA_XSP16, literal(-16)))
          CFI (cfiCond277) VB load(1, XDATA, add(CFA_XSP16, literal(-15)))
          CFI (cfiCond277) V0 load(1, XDATA, add(CFA_XSP16, literal(-14)))
          CFI (cfiCond277) V1 load(1, XDATA, add(CFA_XSP16, literal(-13)))
          CFI (cfiCond277) V2 load(1, XDATA, add(CFA_XSP16, literal(-12)))
          CFI (cfiCond277) V3 load(1, XDATA, add(CFA_XSP16, literal(-11)))
          CFI (cfiCond277) V4 load(1, XDATA, add(CFA_XSP16, literal(-10)))
          CFI (cfiCond277) V5 load(1, XDATA, add(CFA_XSP16, literal(-9)))
          CFI (cfiCond277) V6 load(1, XDATA, add(CFA_XSP16, literal(-8)))
          CFI (cfiCond277) V7 load(1, XDATA, add(CFA_XSP16, literal(-7)))
          CFI (cfiCond277) R7 load(1, XDATA, add(CFA_XSP16, literal(-6)))
          CFI (cfiCond277) ?RET_LOW load(1, XDATA, add(CFA_XSP16, literal(-5)))
          CFI (cfiCond277) ?RET_HIGH load(1, XDATA, add(CFA_XSP16, literal(-4)))
          CFI (cfiCond277) ?BRET_EXT load(1, XDATA, add(CFA_XSP16, literal(-3)))
          CFI (cfiCond277) DPL0 load(1, XDATA, add(CFA_XSP16, literal(-2)))
          CFI (cfiCond277) DPH0 load(1, XDATA, add(CFA_XSP16, literal(-1)))
          CFI (cfiCond277) CFA_SP SP+-4
          CFI (cfiCond277) CFA_XSP16 add(XSP16, 75)
          CFI Block cfiCond278 Using cfiCommon0
          CFI (cfiCond278) Function touchLinkInitiator_event_loop
          CFI (cfiCond278) Conditional ??CrossCallReturnLabel_156, ??CrossCallReturnLabel_141
          CFI (cfiCond278) R6 load(1, XDATA, add(CFA_XSP16, literal(-16)))
          CFI (cfiCond278) VB load(1, XDATA, add(CFA_XSP16, literal(-15)))
          CFI (cfiCond278) V0 load(1, XDATA, add(CFA_XSP16, literal(-14)))
          CFI (cfiCond278) V1 load(1, XDATA, add(CFA_XSP16, literal(-13)))
          CFI (cfiCond278) V2 load(1, XDATA, add(CFA_XSP16, literal(-12)))
          CFI (cfiCond278) V3 load(1, XDATA, add(CFA_XSP16, literal(-11)))
          CFI (cfiCond278) V4 load(1, XDATA, add(CFA_XSP16, literal(-10)))
          CFI (cfiCond278) V5 load(1, XDATA, add(CFA_XSP16, literal(-9)))
          CFI (cfiCond278) V6 load(1, XDATA, add(CFA_XSP16, literal(-8)))
          CFI (cfiCond278) V7 load(1, XDATA, add(CFA_XSP16, literal(-7)))
          CFI (cfiCond278) R7 load(1, XDATA, add(CFA_XSP16, literal(-6)))
          CFI (cfiCond278) ?RET_LOW load(1, XDATA, add(CFA_XSP16, literal(-5)))
          CFI (cfiCond278) ?RET_HIGH load(1, XDATA, add(CFA_XSP16, literal(-4)))
          CFI (cfiCond278) ?BRET_EXT load(1, XDATA, add(CFA_XSP16, literal(-3)))
          CFI (cfiCond278) DPL0 load(1, XDATA, add(CFA_XSP16, literal(-2)))
          CFI (cfiCond278) DPH0 load(1, XDATA, add(CFA_XSP16, literal(-1)))
          CFI (cfiCond278) CFA_SP SP+-4
          CFI (cfiCond278) CFA_XSP16 add(XSP16, 75)
          CFI Block cfiCond279 Using cfiCommon0
          CFI (cfiCond279) Function touchLinkInitiator_SendEPInfo
          CFI (cfiCond279) Conditional ??CrossCallReturnLabel_156, ??CrossCallReturnLabel_142
          CFI (cfiCond279) R6 load(1, XDATA, add(CFA_XSP16, literal(-12)))
          CFI (cfiCond279) VB load(1, XDATA, add(CFA_XSP16, literal(-11)))
          CFI (cfiCond279) V0 load(1, XDATA, add(CFA_XSP16, literal(-10)))
          CFI (cfiCond279) V1 load(1, XDATA, add(CFA_XSP16, literal(-9)))
          CFI (cfiCond279) V2 load(1, XDATA, add(CFA_XSP16, literal(-8)))
          CFI (cfiCond279) V3 load(1, XDATA, add(CFA_XSP16, literal(-7)))
          CFI (cfiCond279) R7 load(1, XDATA, add(CFA_XSP16, literal(-6)))
          CFI (cfiCond279) ?RET_LOW load(1, XDATA, add(CFA_XSP16, literal(-5)))
          CFI (cfiCond279) ?RET_HIGH load(1, XDATA, add(CFA_XSP16, literal(-4)))
          CFI (cfiCond279) ?BRET_EXT load(1, XDATA, add(CFA_XSP16, literal(-3)))
          CFI (cfiCond279) DPL0 load(1, XDATA, add(CFA_XSP16, literal(-2)))
          CFI (cfiCond279) DPH0 load(1, XDATA, add(CFA_XSP16, literal(-1)))
          CFI (cfiCond279) CFA_SP SP+-4
          CFI (cfiCond279) CFA_XSP16 add(XSP16, 35)
          CFI Block cfiCond280 Using cfiCommon0
          CFI (cfiCond280) Function touchLinkInitiator_SendEPInfo
          CFI (cfiCond280) Conditional ??CrossCallReturnLabel_156, ??CrossCallReturnLabel_143
          CFI (cfiCond280) R6 load(1, XDATA, add(CFA_XSP16, literal(-12)))
          CFI (cfiCond280) VB load(1, XDATA, add(CFA_XSP16, literal(-11)))
          CFI (cfiCond280) V0 load(1, XDATA, add(CFA_XSP16, literal(-10)))
          CFI (cfiCond280) V1 load(1, XDATA, add(CFA_XSP16, literal(-9)))
          CFI (cfiCond280) V2 load(1, XDATA, add(CFA_XSP16, literal(-8)))
          CFI (cfiCond280) V3 load(1, XDATA, add(CFA_XSP16, literal(-7)))
          CFI (cfiCond280) R7 load(1, XDATA, add(CFA_XSP16, literal(-6)))
          CFI (cfiCond280) ?RET_LOW load(1, XDATA, add(CFA_XSP16, literal(-5)))
          CFI (cfiCond280) ?RET_HIGH load(1, XDATA, add(CFA_XSP16, literal(-4)))
          CFI (cfiCond280) ?BRET_EXT load(1, XDATA, add(CFA_XSP16, literal(-3)))
          CFI (cfiCond280) DPL0 load(1, XDATA, add(CFA_XSP16, literal(-2)))
          CFI (cfiCond280) DPH0 load(1, XDATA, add(CFA_XSP16, literal(-1)))
          CFI (cfiCond280) CFA_SP SP+-4
          CFI (cfiCond280) CFA_XSP16 add(XSP16, 35)
          CFI Block cfiCond281 Using cfiCommon0
          CFI (cfiCond281) Function initiatorIdentifyReqCB
          CFI (cfiCond281) Conditional ??CrossCallReturnLabel_156, ??CrossCallReturnLabel_144
          CFI (cfiCond281) R6 load(1, XDATA, add(CFA_XSP16, literal(-10)))
          CFI (cfiCond281) VB load(1, XDATA, add(CFA_XSP16, literal(-9)))
          CFI (cfiCond281) V0 load(1, XDATA, add(CFA_XSP16, literal(-8)))
          CFI (cfiCond281) V1 load(1, XDATA, add(CFA_XSP16, literal(-7)))
          CFI (cfiCond281) R7 load(1, XDATA, add(CFA_XSP16, literal(-6)))
          CFI (cfiCond281) ?RET_LOW load(1, XDATA, add(CFA_XSP16, literal(-5)))
          CFI (cfiCond281) ?RET_HIGH load(1, XDATA, add(CFA_XSP16, literal(-4)))
          CFI (cfiCond281) ?BRET_EXT load(1, XDATA, add(CFA_XSP16, literal(-3)))
          CFI (cfiCond281) DPL0 load(1, XDATA, add(CFA_XSP16, literal(-2)))
          CFI (cfiCond281) DPH0 load(1, XDATA, add(CFA_XSP16, literal(-1)))
          CFI (cfiCond281) CFA_SP SP+-4
          CFI (cfiCond281) CFA_XSP16 add(XSP16, 10)
          CFI Block cfiCond282 Using cfiCommon0
          CFI (cfiCond282) Function initiatorDeviceInfoRspCB
          CFI (cfiCond282) Conditional ??CrossCallReturnLabel_156, ??CrossCallReturnLabel_145
          CFI (cfiCond282) R6 load(1, XDATA, add(CFA_XSP16, literal(-20)))
          CFI (cfiCond282) VB load(1, XDATA, add(CFA_XSP16, literal(-19)))
          CFI (cfiCond282) V0 load(1, XDATA, add(CFA_XSP16, literal(-18)))
          CFI (cfiCond282) V1 load(1, XDATA, add(CFA_XSP16, literal(-17)))
          CFI (cfiCond282) V2 load(1, XDATA, add(CFA_XSP16, literal(-16)))
          CFI (cfiCond282) V3 load(1, XDATA, add(CFA_XSP16, literal(-15)))
          CFI (cfiCond282) V4 load(1, XDATA, add(CFA_XSP16, literal(-14)))
          CFI (cfiCond282) V5 load(1, XDATA, add(CFA_XSP16, literal(-13)))
          CFI (cfiCond282) V6 load(1, XDATA, add(CFA_XSP16, literal(-12)))
          CFI (cfiCond282) V7 load(1, XDATA, add(CFA_XSP16, literal(-11)))
          CFI (cfiCond282) V8 load(1, XDATA, add(CFA_XSP16, literal(-10)))
          CFI (cfiCond282) V9 load(1, XDATA, add(CFA_XSP16, literal(-9)))
          CFI (cfiCond282) V10 load(1, XDATA, add(CFA_XSP16, literal(-8)))
          CFI (cfiCond282) V11 load(1, XDATA, add(CFA_XSP16, literal(-7)))
          CFI (cfiCond282) R7 load(1, XDATA, add(CFA_XSP16, literal(-6)))
          CFI (cfiCond282) ?RET_LOW load(1, XDATA, add(CFA_XSP16, literal(-5)))
          CFI (cfiCond282) ?RET_HIGH load(1, XDATA, add(CFA_XSP16, literal(-4)))
          CFI (cfiCond282) ?BRET_EXT load(1, XDATA, add(CFA_XSP16, literal(-3)))
          CFI (cfiCond282) DPL0 load(1, XDATA, add(CFA_XSP16, literal(-2)))
          CFI (cfiCond282) DPH0 load(1, XDATA, add(CFA_XSP16, literal(-1)))
          CFI (cfiCond282) CFA_SP SP+-4
          CFI (cfiCond282) CFA_XSP16 add(XSP16, 58)
          CFI Block cfiCond283 Using cfiCommon0
          CFI (cfiCond283) Function initiatorSetNwkToInitState
          CFI (cfiCond283) Conditional ??CrossCallReturnLabel_156, ??CrossCallReturnLabel_146
          CFI (cfiCond283) R6 load(1, XDATA, add(CFA_XSP16, literal(-12)))
          CFI (cfiCond283) VB load(1, XDATA, add(CFA_XSP16, literal(-11)))
          CFI (cfiCond283) V0 load(1, XDATA, add(CFA_XSP16, literal(-10)))
          CFI (cfiCond283) V1 load(1, XDATA, add(CFA_XSP16, literal(-9)))
          CFI (cfiCond283) V2 load(1, XDATA, add(CFA_XSP16, literal(-8)))
          CFI (cfiCond283) V3 load(1, XDATA, add(CFA_XSP16, literal(-7)))
          CFI (cfiCond283) R7 load(1, XDATA, add(CFA_XSP16, literal(-6)))
          CFI (cfiCond283) ?RET_LOW load(1, XDATA, add(CFA_XSP16, literal(-5)))
          CFI (cfiCond283) ?RET_HIGH load(1, XDATA, add(CFA_XSP16, literal(-4)))
          CFI (cfiCond283) ?BRET_EXT load(1, XDATA, add(CFA_XSP16, literal(-3)))
          CFI (cfiCond283) DPL0 load(1, XDATA, add(CFA_XSP16, literal(-2)))
          CFI (cfiCond283) DPH0 load(1, XDATA, add(CFA_XSP16, literal(-1)))
          CFI (cfiCond283) CFA_SP SP+-4
          CFI (cfiCond283) CFA_XSP16 add(XSP16, 12)
          CFI Block cfiCond284 Using cfiCommon0
          CFI (cfiCond284) Function initiatorSetNwkToInitState
          CFI (cfiCond284) Conditional ??CrossCallReturnLabel_156, ??CrossCallReturnLabel_147
          CFI (cfiCond284) R6 load(1, XDATA, add(CFA_XSP16, literal(-12)))
          CFI (cfiCond284) VB load(1, XDATA, add(CFA_XSP16, literal(-11)))
          CFI (cfiCond284) V0 load(1, XDATA, add(CFA_XSP16, literal(-10)))
          CFI (cfiCond284) V1 load(1, XDATA, add(CFA_XSP16, literal(-9)))
          CFI (cfiCond284) V2 load(1, XDATA, add(CFA_XSP16, literal(-8)))
          CFI (cfiCond284) V3 load(1, XDATA, add(CFA_XSP16, literal(-7)))
          CFI (cfiCond284) R7 load(1, XDATA, add(CFA_XSP16, literal(-6)))
          CFI (cfiCond284) ?RET_LOW load(1, XDATA, add(CFA_XSP16, literal(-5)))
          CFI (cfiCond284) ?RET_HIGH load(1, XDATA, add(CFA_XSP16, literal(-4)))
          CFI (cfiCond284) ?BRET_EXT load(1, XDATA, add(CFA_XSP16, literal(-3)))
          CFI (cfiCond284) DPL0 load(1, XDATA, add(CFA_XSP16, literal(-2)))
          CFI (cfiCond284) DPH0 load(1, XDATA, add(CFA_XSP16, literal(-1)))
          CFI (cfiCond284) CFA_SP SP+-4
          CFI (cfiCond284) CFA_XSP16 add(XSP16, 12)
          CFI Block cfiCond285 Using cfiCommon0
          CFI (cfiCond285) Function initiatorReJoinNwk
          CFI (cfiCond285) Conditional ??CrossCallReturnLabel_156, ??CrossCallReturnLabel_148
          CFI (cfiCond285) R6 load(1, XDATA, add(CFA_XSP16, literal(-9)))
          CFI (cfiCond285) VB load(1, XDATA, add(CFA_XSP16, literal(-8)))
          CFI (cfiCond285) V0 load(1, XDATA, add(CFA_XSP16, literal(-7)))
          CFI (cfiCond285) R7 load(1, XDATA, add(CFA_XSP16, literal(-6)))
          CFI (cfiCond285) ?RET_LOW load(1, XDATA, add(CFA_XSP16, literal(-5)))
          CFI (cfiCond285) ?RET_HIGH load(1, XDATA, add(CFA_XSP16, literal(-4)))
          CFI (cfiCond285) ?BRET_EXT load(1, XDATA, add(CFA_XSP16, literal(-3)))
          CFI (cfiCond285) DPL0 load(1, XDATA, add(CFA_XSP16, literal(-2)))
          CFI (cfiCond285) DPH0 load(1, XDATA, add(CFA_XSP16, literal(-1)))
          CFI (cfiCond285) CFA_SP SP+-4
          CFI (cfiCond285) CFA_XSP16 add(XSP16, 9)
          CFI Block cfiCond286 Using cfiCommon0
          CFI (cfiCond286) Function initiatorSendNwkJoinReq
          CFI (cfiCond286) Conditional ??CrossCallReturnLabel_156, ??CrossCallReturnLabel_149
          CFI (cfiCond286) R6 load(1, XDATA, add(CFA_XSP16, literal(-16)))
          CFI (cfiCond286) VB load(1, XDATA, add(CFA_XSP16, literal(-15)))
          CFI (cfiCond286) V0 load(1, XDATA, add(CFA_XSP16, literal(-14)))
          CFI (cfiCond286) V1 load(1, XDATA, add(CFA_XSP16, literal(-13)))
          CFI (cfiCond286) V2 load(1, XDATA, add(CFA_XSP16, literal(-12)))
          CFI (cfiCond286) V3 load(1, XDATA, add(CFA_XSP16, literal(-11)))
          CFI (cfiCond286) V4 load(1, XDATA, add(CFA_XSP16, literal(-10)))
          CFI (cfiCond286) V5 load(1, XDATA, add(CFA_XSP16, literal(-9)))
          CFI (cfiCond286) V6 load(1, XDATA, add(CFA_XSP16, literal(-8)))
          CFI (cfiCond286) V7 load(1, XDATA, add(CFA_XSP16, literal(-7)))
          CFI (cfiCond286) R7 load(1, XDATA, add(CFA_XSP16, literal(-6)))
          CFI (cfiCond286) ?RET_LOW load(1, XDATA, add(CFA_XSP16, literal(-5)))
          CFI (cfiCond286) ?RET_HIGH load(1, XDATA, add(CFA_XSP16, literal(-4)))
          CFI (cfiCond286) ?BRET_EXT load(1, XDATA, add(CFA_XSP16, literal(-3)))
          CFI (cfiCond286) DPL0 load(1, XDATA, add(CFA_XSP16, literal(-2)))
          CFI (cfiCond286) DPH0 load(1, XDATA, add(CFA_XSP16, literal(-1)))
          CFI (cfiCond286) CFA_SP SP+-4
          CFI (cfiCond286) CFA_XSP16 add(XSP16, 16)
          CFI Block cfiCond287 Using cfiCommon0
          CFI (cfiCond287) Function initiatorSendNwkJoinReq
          CFI (cfiCond287) Conditional ??CrossCallReturnLabel_156, ??CrossCallReturnLabel_150
          CFI (cfiCond287) R6 load(1, XDATA, add(CFA_XSP16, literal(-16)))
          CFI (cfiCond287) VB load(1, XDATA, add(CFA_XSP16, literal(-15)))
          CFI (cfiCond287) V0 load(1, XDATA, add(CFA_XSP16, literal(-14)))
          CFI (cfiCond287) V1 load(1, XDATA, add(CFA_XSP16, literal(-13)))
          CFI (cfiCond287) V2 load(1, XDATA, add(CFA_XSP16, literal(-12)))
          CFI (cfiCond287) V3 load(1, XDATA, add(CFA_XSP16, literal(-11)))
          CFI (cfiCond287) V4 load(1, XDATA, add(CFA_XSP16, literal(-10)))
          CFI (cfiCond287) V5 load(1, XDATA, add(CFA_XSP16, literal(-9)))
          CFI (cfiCond287) V6 load(1, XDATA, add(CFA_XSP16, literal(-8)))
          CFI (cfiCond287) V7 load(1, XDATA, add(CFA_XSP16, literal(-7)))
          CFI (cfiCond287) R7 load(1, XDATA, add(CFA_XSP16, literal(-6)))
          CFI (cfiCond287) ?RET_LOW load(1, XDATA, add(CFA_XSP16, literal(-5)))
          CFI (cfiCond287) ?RET_HIGH load(1, XDATA, add(CFA_XSP16, literal(-4)))
          CFI (cfiCond287) ?BRET_EXT load(1, XDATA, add(CFA_XSP16, literal(-3)))
          CFI (cfiCond287) DPL0 load(1, XDATA, add(CFA_XSP16, literal(-2)))
          CFI (cfiCond287) DPH0 load(1, XDATA, add(CFA_XSP16, literal(-1)))
          CFI (cfiCond287) CFA_SP SP+-4
          CFI (cfiCond287) CFA_XSP16 add(XSP16, 16)
          CFI Block cfiCond288 Using cfiCommon0
          CFI (cfiCond288) Function initiatorDeviceInfoRspCB
          CFI (cfiCond288) Conditional ??CrossCallReturnLabel_153, ??CrossCallReturnLabel_21
          CFI (cfiCond288) R6 load(1, XDATA, add(CFA_XSP16, literal(-20)))
          CFI (cfiCond288) VB load(1, XDATA, add(CFA_XSP16, literal(-19)))
          CFI (cfiCond288) V0 load(1, XDATA, add(CFA_XSP16, literal(-18)))
          CFI (cfiCond288) V1 load(1, XDATA, add(CFA_XSP16, literal(-17)))
          CFI (cfiCond288) V2 load(1, XDATA, add(CFA_XSP16, literal(-16)))
          CFI (cfiCond288) V3 load(1, XDATA, add(CFA_XSP16, literal(-15)))
          CFI (cfiCond288) V4 load(1, XDATA, add(CFA_XSP16, literal(-14)))
          CFI (cfiCond288) V5 load(1, XDATA, add(CFA_XSP16, literal(-13)))
          CFI (cfiCond288) V6 load(1, XDATA, add(CFA_XSP16, literal(-12)))
          CFI (cfiCond288) V7 load(1, XDATA, add(CFA_XSP16, literal(-11)))
          CFI (cfiCond288) V8 load(1, XDATA, add(CFA_XSP16, literal(-10)))
          CFI (cfiCond288) V9 load(1, XDATA, add(CFA_XSP16, literal(-9)))
          CFI (cfiCond288) V10 load(1, XDATA, add(CFA_XSP16, literal(-8)))
          CFI (cfiCond288) V11 load(1, XDATA, add(CFA_XSP16, literal(-7)))
          CFI (cfiCond288) R7 load(1, XDATA, add(CFA_XSP16, literal(-6)))
          CFI (cfiCond288) ?RET_LOW load(1, XDATA, add(CFA_XSP16, literal(-5)))
          CFI (cfiCond288) ?RET_HIGH load(1, XDATA, add(CFA_XSP16, literal(-4)))
          CFI (cfiCond288) ?BRET_EXT load(1, XDATA, add(CFA_XSP16, literal(-3)))
          CFI (cfiCond288) DPL0 load(1, XDATA, add(CFA_XSP16, literal(-2)))
          CFI (cfiCond288) DPH0 load(1, XDATA, add(CFA_XSP16, literal(-1)))
          CFI (cfiCond288) CFA_SP SP+-4
          CFI (cfiCond288) CFA_XSP16 add(XSP16, 58)
          CFI Block cfiCond289 Using cfiCommon0
          CFI (cfiCond289) Function initiatorDeviceInfoRspCB
          CFI (cfiCond289) Conditional ??CrossCallReturnLabel_153, ??CrossCallReturnLabel_22
          CFI (cfiCond289) R6 load(1, XDATA, add(CFA_XSP16, literal(-20)))
          CFI (cfiCond289) VB load(1, XDATA, add(CFA_XSP16, literal(-19)))
          CFI (cfiCond289) V0 load(1, XDATA, add(CFA_XSP16, literal(-18)))
          CFI (cfiCond289) V1 load(1, XDATA, add(CFA_XSP16, literal(-17)))
          CFI (cfiCond289) V2 load(1, XDATA, add(CFA_XSP16, literal(-16)))
          CFI (cfiCond289) V3 load(1, XDATA, add(CFA_XSP16, literal(-15)))
          CFI (cfiCond289) V4 load(1, XDATA, add(CFA_XSP16, literal(-14)))
          CFI (cfiCond289) V5 load(1, XDATA, add(CFA_XSP16, literal(-13)))
          CFI (cfiCond289) V6 load(1, XDATA, add(CFA_XSP16, literal(-12)))
          CFI (cfiCond289) V7 load(1, XDATA, add(CFA_XSP16, literal(-11)))
          CFI (cfiCond289) V8 load(1, XDATA, add(CFA_XSP16, literal(-10)))
          CFI (cfiCond289) V9 load(1, XDATA, add(CFA_XSP16, literal(-9)))
          CFI (cfiCond289) V10 load(1, XDATA, add(CFA_XSP16, literal(-8)))
          CFI (cfiCond289) V11 load(1, XDATA, add(CFA_XSP16, literal(-7)))
          CFI (cfiCond289) R7 load(1, XDATA, add(CFA_XSP16, literal(-6)))
          CFI (cfiCond289) ?RET_LOW load(1, XDATA, add(CFA_XSP16, literal(-5)))
          CFI (cfiCond289) ?RET_HIGH load(1, XDATA, add(CFA_XSP16, literal(-4)))
          CFI (cfiCond289) ?BRET_EXT load(1, XDATA, add(CFA_XSP16, literal(-3)))
          CFI (cfiCond289) DPL0 load(1, XDATA, add(CFA_XSP16, literal(-2)))
          CFI (cfiCond289) DPH0 load(1, XDATA, add(CFA_XSP16, literal(-1)))
          CFI (cfiCond289) CFA_SP SP+-4
          CFI (cfiCond289) CFA_XSP16 add(XSP16, 58)
          CFI Block cfiCond290 Using cfiCommon0
          CFI (cfiCond290) Function touchLinkInitiator_SendEPInfo
          CFI (cfiCond290) Conditional ??CrossCallReturnLabel_151, ??CrossCallReturnLabel_3
          CFI (cfiCond290) R6 load(1, XDATA, add(CFA_XSP16, literal(-12)))
          CFI (cfiCond290) VB load(1, XDATA, add(CFA_XSP16, literal(-11)))
          CFI (cfiCond290) V0 load(1, XDATA, add(CFA_XSP16, literal(-10)))
          CFI (cfiCond290) V1 load(1, XDATA, add(CFA_XSP16, literal(-9)))
          CFI (cfiCond290) V2 load(1, XDATA, add(CFA_XSP16, literal(-8)))
          CFI (cfiCond290) V3 load(1, XDATA, add(CFA_XSP16, literal(-7)))
          CFI (cfiCond290) R7 load(1, XDATA, add(CFA_XSP16, literal(-6)))
          CFI (cfiCond290) ?RET_LOW load(1, XDATA, add(CFA_XSP16, literal(-5)))
          CFI (cfiCond290) ?RET_HIGH load(1, XDATA, add(CFA_XSP16, literal(-4)))
          CFI (cfiCond290) ?BRET_EXT load(1, XDATA, add(CFA_XSP16, literal(-3)))
          CFI (cfiCond290) DPL0 load(1, XDATA, add(CFA_XSP16, literal(-2)))
          CFI (cfiCond290) DPH0 load(1, XDATA, add(CFA_XSP16, literal(-1)))
          CFI (cfiCond290) CFA_SP SP+-4
          CFI (cfiCond290) CFA_XSP16 add(XSP16, 35)
          CFI Block cfiCond291 Using cfiCommon0
          CFI (cfiCond291) Function initiatorDeviceInfoRspCB
          CFI (cfiCond291) Conditional ??CrossCallReturnLabel_151, ??CrossCallReturnLabel_4
          CFI (cfiCond291) R6 load(1, XDATA, add(CFA_XSP16, literal(-20)))
          CFI (cfiCond291) VB load(1, XDATA, add(CFA_XSP16, literal(-19)))
          CFI (cfiCond291) V0 load(1, XDATA, add(CFA_XSP16, literal(-18)))
          CFI (cfiCond291) V1 load(1, XDATA, add(CFA_XSP16, literal(-17)))
          CFI (cfiCond291) V2 load(1, XDATA, add(CFA_XSP16, literal(-16)))
          CFI (cfiCond291) V3 load(1, XDATA, add(CFA_XSP16, literal(-15)))
          CFI (cfiCond291) V4 load(1, XDATA, add(CFA_XSP16, literal(-14)))
          CFI (cfiCond291) V5 load(1, XDATA, add(CFA_XSP16, literal(-13)))
          CFI (cfiCond291) V6 load(1, XDATA, add(CFA_XSP16, literal(-12)))
          CFI (cfiCond291) V7 load(1, XDATA, add(CFA_XSP16, literal(-11)))
          CFI (cfiCond291) V8 load(1, XDATA, add(CFA_XSP16, literal(-10)))
          CFI (cfiCond291) V9 load(1, XDATA, add(CFA_XSP16, literal(-9)))
          CFI (cfiCond291) V10 load(1, XDATA, add(CFA_XSP16, literal(-8)))
          CFI (cfiCond291) V11 load(1, XDATA, add(CFA_XSP16, literal(-7)))
          CFI (cfiCond291) R7 load(1, XDATA, add(CFA_XSP16, literal(-6)))
          CFI (cfiCond291) ?RET_LOW load(1, XDATA, add(CFA_XSP16, literal(-5)))
          CFI (cfiCond291) ?RET_HIGH load(1, XDATA, add(CFA_XSP16, literal(-4)))
          CFI (cfiCond291) ?BRET_EXT load(1, XDATA, add(CFA_XSP16, literal(-3)))
          CFI (cfiCond291) DPL0 load(1, XDATA, add(CFA_XSP16, literal(-2)))
          CFI (cfiCond291) DPH0 load(1, XDATA, add(CFA_XSP16, literal(-1)))
          CFI (cfiCond291) CFA_SP SP+-4
          CFI (cfiCond291) CFA_XSP16 add(XSP16, 58)
          CFI Block cfiPicker292 Using cfiCommon1
          CFI (cfiPicker292) NoFunction
          CFI (cfiPicker292) Picker
        MOVX      A,@DPTR
        MOV       R0,A
        INC       DPTR
        MOVX      A,@DPTR
        MOV       R1,A
        RET
          CFI EndBlock cfiCond256
          CFI EndBlock cfiCond257
          CFI EndBlock cfiCond258
          CFI EndBlock cfiCond259
          CFI EndBlock cfiCond260
          CFI EndBlock cfiCond261
          CFI EndBlock cfiCond262
          CFI EndBlock cfiCond263
          CFI EndBlock cfiCond264
          CFI EndBlock cfiCond265
          CFI EndBlock cfiCond266
          CFI EndBlock cfiCond267
          CFI EndBlock cfiCond268
          CFI EndBlock cfiCond269
          CFI EndBlock cfiCond270
          CFI EndBlock cfiCond271
          CFI EndBlock cfiCond272
          CFI EndBlock cfiCond273
          CFI EndBlock cfiCond274
          CFI EndBlock cfiCond275
          CFI EndBlock cfiCond276
          CFI EndBlock cfiCond277
          CFI EndBlock cfiCond278
          CFI EndBlock cfiCond279
          CFI EndBlock cfiCond280
          CFI EndBlock cfiCond281
          CFI EndBlock cfiCond282
          CFI EndBlock cfiCond283
          CFI EndBlock cfiCond284
          CFI EndBlock cfiCond285
          CFI EndBlock cfiCond286
          CFI EndBlock cfiCond287
          CFI EndBlock cfiCond288
          CFI EndBlock cfiCond289
          CFI EndBlock cfiCond290
          CFI EndBlock cfiCond291
          CFI EndBlock cfiPicker292

        RSEG BANKED_CODE:HUGECODE:NOROOT(0)
?Subroutine24:
          CFI Block cfiCond293 Using cfiCommon0
          CFI Function initiatorDeviceInfoRspCB
          CFI Conditional ??CrossCallReturnLabel_21
          CFI R6 load(1, XDATA, add(CFA_XSP16, literal(-20)))
          CFI VB load(1, XDATA, add(CFA_XSP16, literal(-19)))
          CFI V0 load(1, XDATA, add(CFA_XSP16, literal(-18)))
          CFI V1 load(1, XDATA, add(CFA_XSP16, literal(-17)))
          CFI V2 load(1, XDATA, add(CFA_XSP16, literal(-16)))
          CFI V3 load(1, XDATA, add(CFA_XSP16, literal(-15)))
          CFI V4 load(1, XDATA, add(CFA_XSP16, literal(-14)))
          CFI V5 load(1, XDATA, add(CFA_XSP16, literal(-13)))
          CFI V6 load(1, XDATA, add(CFA_XSP16, literal(-12)))
          CFI V7 load(1, XDATA, add(CFA_XSP16, literal(-11)))
          CFI V8 load(1, XDATA, add(CFA_XSP16, literal(-10)))
          CFI V9 load(1, XDATA, add(CFA_XSP16, literal(-9)))
          CFI V10 load(1, XDATA, add(CFA_XSP16, literal(-8)))
          CFI V11 load(1, XDATA, add(CFA_XSP16, literal(-7)))
          CFI R7 load(1, XDATA, add(CFA_XSP16, literal(-6)))
          CFI ?RET_LOW load(1, XDATA, add(CFA_XSP16, literal(-5)))
          CFI ?RET_HIGH load(1, XDATA, add(CFA_XSP16, literal(-4)))
          CFI ?BRET_EXT load(1, XDATA, add(CFA_XSP16, literal(-3)))
          CFI DPL0 load(1, XDATA, add(CFA_XSP16, literal(-2)))
          CFI DPH0 load(1, XDATA, add(CFA_XSP16, literal(-1)))
          CFI CFA_SP SP+-2
          CFI CFA_XSP16 add(XSP16, 58)
          CFI Block cfiCond294 Using cfiCommon0
          CFI (cfiCond294) Function initiatorDeviceInfoRspCB
          CFI (cfiCond294) Conditional ??CrossCallReturnLabel_22
          CFI (cfiCond294) R6 load(1, XDATA, add(CFA_XSP16, literal(-20)))
          CFI (cfiCond294) VB load(1, XDATA, add(CFA_XSP16, literal(-19)))
          CFI (cfiCond294) V0 load(1, XDATA, add(CFA_XSP16, literal(-18)))
          CFI (cfiCond294) V1 load(1, XDATA, add(CFA_XSP16, literal(-17)))
          CFI (cfiCond294) V2 load(1, XDATA, add(CFA_XSP16, literal(-16)))
          CFI (cfiCond294) V3 load(1, XDATA, add(CFA_XSP16, literal(-15)))
          CFI (cfiCond294) V4 load(1, XDATA, add(CFA_XSP16, literal(-14)))
          CFI (cfiCond294) V5 load(1, XDATA, add(CFA_XSP16, literal(-13)))
          CFI (cfiCond294) V6 load(1, XDATA, add(CFA_XSP16, literal(-12)))
          CFI (cfiCond294) V7 load(1, XDATA, add(CFA_XSP16, literal(-11)))
          CFI (cfiCond294) V8 load(1, XDATA, add(CFA_XSP16, literal(-10)))
          CFI (cfiCond294) V9 load(1, XDATA, add(CFA_XSP16, literal(-9)))
          CFI (cfiCond294) V10 load(1, XDATA, add(CFA_XSP16, literal(-8)))
          CFI (cfiCond294) V11 load(1, XDATA, add(CFA_XSP16, literal(-7)))
          CFI (cfiCond294) R7 load(1, XDATA, add(CFA_XSP16, literal(-6)))
          CFI (cfiCond294) ?RET_LOW load(1, XDATA, add(CFA_XSP16, literal(-5)))
          CFI (cfiCond294) ?RET_HIGH load(1, XDATA, add(CFA_XSP16, literal(-4)))
          CFI (cfiCond294) ?BRET_EXT load(1, XDATA, add(CFA_XSP16, literal(-3)))
          CFI (cfiCond294) DPL0 load(1, XDATA, add(CFA_XSP16, literal(-2)))
          CFI (cfiCond294) DPH0 load(1, XDATA, add(CFA_XSP16, literal(-1)))
          CFI (cfiCond294) CFA_SP SP+-2
          CFI (cfiCond294) CFA_XSP16 add(XSP16, 58)
          CFI Block cfiPicker295 Using cfiCommon1
          CFI (cfiPicker295) NoFunction
          CFI (cfiPicker295) Picker
        MOV       DPH,A
        LCALL     ?Subroutine41 & 0xFFFF
??CrossCallReturnLabel_153:
        MOV       A,#0x5e
        XRL       A,R0
        RET
          CFI EndBlock cfiCond293
          CFI EndBlock cfiCond294
          CFI EndBlock cfiPicker295

        RSEG BANKED_CODE:HUGECODE:NOROOT(0)
?Subroutine23:
          CFI Block cfiCond296 Using cfiCommon0
          CFI Function touchLinkInitiator_event_loop
          CFI Conditional ??CrossCallReturnLabel_159
          CFI R6 load(1, XDATA, add(CFA_XSP16, literal(-16)))
          CFI VB load(1, XDATA, add(CFA_XSP16, literal(-15)))
          CFI V0 load(1, XDATA, add(CFA_XSP16, literal(-14)))
          CFI V1 load(1, XDATA, add(CFA_XSP16, literal(-13)))
          CFI V2 load(1, XDATA, add(CFA_XSP16, literal(-12)))
          CFI V3 load(1, XDATA, add(CFA_XSP16, literal(-11)))
          CFI V4 load(1, XDATA, add(CFA_XSP16, literal(-10)))
          CFI V5 load(1, XDATA, add(CFA_XSP16, literal(-9)))
          CFI V6 load(1, XDATA, add(CFA_XSP16, literal(-8)))
          CFI V7 load(1, XDATA, add(CFA_XSP16, literal(-7)))
          CFI R7 load(1, XDATA, add(CFA_XSP16, literal(-6)))
          CFI ?RET_LOW load(1, XDATA, add(CFA_XSP16, literal(-5)))
          CFI ?RET_HIGH load(1, XDATA, add(CFA_XSP16, literal(-4)))
          CFI ?BRET_EXT load(1, XDATA, add(CFA_XSP16, literal(-3)))
          CFI DPL0 load(1, XDATA, add(CFA_XSP16, literal(-2)))
          CFI DPH0 load(1, XDATA, add(CFA_XSP16, literal(-1)))
          CFI CFA_SP SP+-2
          CFI CFA_XSP16 add(XSP16, 75)
          CFI Block cfiCond297 Using cfiCommon0
          CFI (cfiCond297) Function touchLinkInitiator_event_loop
          CFI (cfiCond297) Conditional ??CrossCallReturnLabel_160
          CFI (cfiCond297) R6 load(1, XDATA, add(CFA_XSP16, literal(-16)))
          CFI (cfiCond297) VB load(1, XDATA, add(CFA_XSP16, literal(-15)))
          CFI (cfiCond297) V0 load(1, XDATA, add(CFA_XSP16, literal(-14)))
          CFI (cfiCond297) V1 load(1, XDATA, add(CFA_XSP16, literal(-13)))
          CFI (cfiCond297) V2 load(1, XDATA, add(CFA_XSP16, literal(-12)))
          CFI (cfiCond297) V3 load(1, XDATA, add(CFA_XSP16, literal(-11)))
          CFI (cfiCond297) V4 load(1, XDATA, add(CFA_XSP16, literal(-10)))
          CFI (cfiCond297) V5 load(1, XDATA, add(CFA_XSP16, literal(-9)))
          CFI (cfiCond297) V6 load(1, XDATA, add(CFA_XSP16, literal(-8)))
          CFI (cfiCond297) V7 load(1, XDATA, add(CFA_XSP16, literal(-7)))
          CFI (cfiCond297) R7 load(1, XDATA, add(CFA_XSP16, literal(-6)))
          CFI (cfiCond297) ?RET_LOW load(1, XDATA, add(CFA_XSP16, literal(-5)))
          CFI (cfiCond297) ?RET_HIGH load(1, XDATA, add(CFA_XSP16, literal(-4)))
          CFI (cfiCond297) ?BRET_EXT load(1, XDATA, add(CFA_XSP16, literal(-3)))
          CFI (cfiCond297) DPL0 load(1, XDATA, add(CFA_XSP16, literal(-2)))
          CFI (cfiCond297) DPH0 load(1, XDATA, add(CFA_XSP16, literal(-1)))
          CFI (cfiCond297) CFA_SP SP+-2
          CFI (cfiCond297) CFA_XSP16 add(XSP16, 75)
          CFI Block cfiPicker298 Using cfiCommon1
          CFI (cfiPicker298) NoFunction
          CFI (cfiPicker298) Picker
        MOV       R2,?XSP + 0
        MOV       R3,?XSP + 1
          CFI EndBlock cfiCond296
          CFI EndBlock cfiCond297
          CFI EndBlock cfiPicker298
        REQUIRE ??Subroutine64_0
        ; // Fall through to label ??Subroutine64_0

        RSEG BANKED_CODE:HUGECODE:NOROOT(0)
??Subroutine64_0:
          CFI Block cfiCond299 Using cfiCommon0
          CFI Function initiatorScanRspCB
          CFI Conditional ??CrossCallReturnLabel_157
          CFI R6 load(1, XDATA, add(CFA_XSP16, literal(-12)))
          CFI VB load(1, XDATA, add(CFA_XSP16, literal(-11)))
          CFI V0 load(1, XDATA, add(CFA_XSP16, literal(-10)))
          CFI V1 load(1, XDATA, add(CFA_XSP16, literal(-9)))
          CFI V2 load(1, XDATA, add(CFA_XSP16, literal(-8)))
          CFI V3 load(1, XDATA, add(CFA_XSP16, literal(-7)))
          CFI R7 load(1, XDATA, add(CFA_XSP16, literal(-6)))
          CFI ?RET_LOW load(1, XDATA, add(CFA_XSP16, literal(-5)))
          CFI ?RET_HIGH load(1, XDATA, add(CFA_XSP16, literal(-4)))
          CFI ?BRET_EXT load(1, XDATA, add(CFA_XSP16, literal(-3)))
          CFI DPL0 load(1, XDATA, add(CFA_XSP16, literal(-2)))
          CFI DPH0 load(1, XDATA, add(CFA_XSP16, literal(-1)))
          CFI CFA_SP SP+-2
          CFI CFA_XSP16 add(XSP16, 17)
          CFI Block cfiCond300 Using cfiCommon0
          CFI (cfiCond300) Function initiatorDeviceInfoRspCB
          CFI (cfiCond300) Conditional ??CrossCallReturnLabel_158
          CFI (cfiCond300) R6 load(1, XDATA, add(CFA_XSP16, literal(-20)))
          CFI (cfiCond300) VB load(1, XDATA, add(CFA_XSP16, literal(-19)))
          CFI (cfiCond300) V0 load(1, XDATA, add(CFA_XSP16, literal(-18)))
          CFI (cfiCond300) V1 load(1, XDATA, add(CFA_XSP16, literal(-17)))
          CFI (cfiCond300) V2 load(1, XDATA, add(CFA_XSP16, literal(-16)))
          CFI (cfiCond300) V3 load(1, XDATA, add(CFA_XSP16, literal(-15)))
          CFI (cfiCond300) V4 load(1, XDATA, add(CFA_XSP16, literal(-14)))
          CFI (cfiCond300) V5 load(1, XDATA, add(CFA_XSP16, literal(-13)))
          CFI (cfiCond300) V6 load(1, XDATA, add(CFA_XSP16, literal(-12)))
          CFI (cfiCond300) V7 load(1, XDATA, add(CFA_XSP16, literal(-11)))
          CFI (cfiCond300) V8 load(1, XDATA, add(CFA_XSP16, literal(-10)))
          CFI (cfiCond300) V9 load(1, XDATA, add(CFA_XSP16, literal(-9)))
          CFI (cfiCond300) V10 load(1, XDATA, add(CFA_XSP16, literal(-8)))
          CFI (cfiCond300) V11 load(1, XDATA, add(CFA_XSP16, literal(-7)))
          CFI (cfiCond300) R7 load(1, XDATA, add(CFA_XSP16, literal(-6)))
          CFI (cfiCond300) ?RET_LOW load(1, XDATA, add(CFA_XSP16, literal(-5)))
          CFI (cfiCond300) ?RET_HIGH load(1, XDATA, add(CFA_XSP16, literal(-4)))
          CFI (cfiCond300) ?BRET_EXT load(1, XDATA, add(CFA_XSP16, literal(-3)))
          CFI (cfiCond300) DPL0 load(1, XDATA, add(CFA_XSP16, literal(-2)))
          CFI (cfiCond300) DPH0 load(1, XDATA, add(CFA_XSP16, literal(-1)))
          CFI (cfiCond300) CFA_SP SP+-2
          CFI (cfiCond300) CFA_XSP16 add(XSP16, 58)
          CFI Block cfiCond301 Using cfiCommon0
          CFI (cfiCond301) Function touchLinkInitiator_event_loop
          CFI (cfiCond301) Conditional ??CrossCallReturnLabel_159
          CFI (cfiCond301) R6 load(1, XDATA, add(CFA_XSP16, literal(-16)))
          CFI (cfiCond301) VB load(1, XDATA, add(CFA_XSP16, literal(-15)))
          CFI (cfiCond301) V0 load(1, XDATA, add(CFA_XSP16, literal(-14)))
          CFI (cfiCond301) V1 load(1, XDATA, add(CFA_XSP16, literal(-13)))
          CFI (cfiCond301) V2 load(1, XDATA, add(CFA_XSP16, literal(-12)))
          CFI (cfiCond301) V3 load(1, XDATA, add(CFA_XSP16, literal(-11)))
          CFI (cfiCond301) V4 load(1, XDATA, add(CFA_XSP16, literal(-10)))
          CFI (cfiCond301) V5 load(1, XDATA, add(CFA_XSP16, literal(-9)))
          CFI (cfiCond301) V6 load(1, XDATA, add(CFA_XSP16, literal(-8)))
          CFI (cfiCond301) V7 load(1, XDATA, add(CFA_XSP16, literal(-7)))
          CFI (cfiCond301) R7 load(1, XDATA, add(CFA_XSP16, literal(-6)))
          CFI (cfiCond301) ?RET_LOW load(1, XDATA, add(CFA_XSP16, literal(-5)))
          CFI (cfiCond301) ?RET_HIGH load(1, XDATA, add(CFA_XSP16, literal(-4)))
          CFI (cfiCond301) ?BRET_EXT load(1, XDATA, add(CFA_XSP16, literal(-3)))
          CFI (cfiCond301) DPL0 load(1, XDATA, add(CFA_XSP16, literal(-2)))
          CFI (cfiCond301) DPH0 load(1, XDATA, add(CFA_XSP16, literal(-1)))
          CFI (cfiCond301) CFA_SP SP+-2
          CFI (cfiCond301) CFA_XSP16 add(XSP16, 75)
          CFI Block cfiCond302 Using cfiCommon0
          CFI (cfiCond302) Function touchLinkInitiator_event_loop
          CFI (cfiCond302) Conditional ??CrossCallReturnLabel_160
          CFI (cfiCond302) R6 load(1, XDATA, add(CFA_XSP16, literal(-16)))
          CFI (cfiCond302) VB load(1, XDATA, add(CFA_XSP16, literal(-15)))
          CFI (cfiCond302) V0 load(1, XDATA, add(CFA_XSP16, literal(-14)))
          CFI (cfiCond302) V1 load(1, XDATA, add(CFA_XSP16, literal(-13)))
          CFI (cfiCond302) V2 load(1, XDATA, add(CFA_XSP16, literal(-12)))
          CFI (cfiCond302) V3 load(1, XDATA, add(CFA_XSP16, literal(-11)))
          CFI (cfiCond302) V4 load(1, XDATA, add(CFA_XSP16, literal(-10)))
          CFI (cfiCond302) V5 load(1, XDATA, add(CFA_XSP16, literal(-9)))
          CFI (cfiCond302) V6 load(1, XDATA, add(CFA_XSP16, literal(-8)))
          CFI (cfiCond302) V7 load(1, XDATA, add(CFA_XSP16, literal(-7)))
          CFI (cfiCond302) R7 load(1, XDATA, add(CFA_XSP16, literal(-6)))
          CFI (cfiCond302) ?RET_LOW load(1, XDATA, add(CFA_XSP16, literal(-5)))
          CFI (cfiCond302) ?RET_HIGH load(1, XDATA, add(CFA_XSP16, literal(-4)))
          CFI (cfiCond302) ?BRET_EXT load(1, XDATA, add(CFA_XSP16, literal(-3)))
          CFI (cfiCond302) DPL0 load(1, XDATA, add(CFA_XSP16, literal(-2)))
          CFI (cfiCond302) DPH0 load(1, XDATA, add(CFA_XSP16, literal(-1)))
          CFI (cfiCond302) CFA_SP SP+-2
          CFI (cfiCond302) CFA_XSP16 add(XSP16, 75)
          CFI Block cfiPicker303 Using cfiCommon1
          CFI (cfiPicker303) NoFunction
          CFI (cfiPicker303) Picker
        MOVX      A,@DPTR
        MOV       DPH,A
        MOV       DPL,R0
        RET
          CFI EndBlock cfiCond299
          CFI EndBlock cfiCond300
          CFI EndBlock cfiCond301
          CFI EndBlock cfiCond302
          CFI EndBlock cfiPicker303

        RSEG BANKED_CODE:HUGECODE:NOROOT(0)
?Subroutine11:
          CFI Block cfiCond304 Using cfiCommon0
          CFI Function touchLinkInitiator_SendEPInfo
          CFI Conditional ??CrossCallReturnLabel_3
          CFI R6 load(1, XDATA, add(CFA_XSP16, literal(-12)))
          CFI VB load(1, XDATA, add(CFA_XSP16, literal(-11)))
          CFI V0 load(1, XDATA, add(CFA_XSP16, literal(-10)))
          CFI V1 load(1, XDATA, add(CFA_XSP16, literal(-9)))
          CFI V2 load(1, XDATA, add(CFA_XSP16, literal(-8)))
          CFI V3 load(1, XDATA, add(CFA_XSP16, literal(-7)))
          CFI R7 load(1, XDATA, add(CFA_XSP16, literal(-6)))
          CFI ?RET_LOW load(1, XDATA, add(CFA_XSP16, literal(-5)))
          CFI ?RET_HIGH load(1, XDATA, add(CFA_XSP16, literal(-4)))
          CFI ?BRET_EXT load(1, XDATA, add(CFA_XSP16, literal(-3)))
          CFI DPL0 load(1, XDATA, add(CFA_XSP16, literal(-2)))
          CFI DPH0 load(1, XDATA, add(CFA_XSP16, literal(-1)))
          CFI CFA_SP SP+-2
          CFI CFA_XSP16 add(XSP16, 35)
          CFI Block cfiCond305 Using cfiCommon0
          CFI (cfiCond305) Function initiatorDeviceInfoRspCB
          CFI (cfiCond305) Conditional ??CrossCallReturnLabel_4
          CFI (cfiCond305) R6 load(1, XDATA, add(CFA_XSP16, literal(-20)))
          CFI (cfiCond305) VB load(1, XDATA, add(CFA_XSP16, literal(-19)))
          CFI (cfiCond305) V0 load(1, XDATA, add(CFA_XSP16, literal(-18)))
          CFI (cfiCond305) V1 load(1, XDATA, add(CFA_XSP16, literal(-17)))
          CFI (cfiCond305) V2 load(1, XDATA, add(CFA_XSP16, literal(-16)))
          CFI (cfiCond305) V3 load(1, XDATA, add(CFA_XSP16, literal(-15)))
          CFI (cfiCond305) V4 load(1, XDATA, add(CFA_XSP16, literal(-14)))
          CFI (cfiCond305) V5 load(1, XDATA, add(CFA_XSP16, literal(-13)))
          CFI (cfiCond305) V6 load(1, XDATA, add(CFA_XSP16, literal(-12)))
          CFI (cfiCond305) V7 load(1, XDATA, add(CFA_XSP16, literal(-11)))
          CFI (cfiCond305) V8 load(1, XDATA, add(CFA_XSP16, literal(-10)))
          CFI (cfiCond305) V9 load(1, XDATA, add(CFA_XSP16, literal(-9)))
          CFI (cfiCond305) V10 load(1, XDATA, add(CFA_XSP16, literal(-8)))
          CFI (cfiCond305) V11 load(1, XDATA, add(CFA_XSP16, literal(-7)))
          CFI (cfiCond305) R7 load(1, XDATA, add(CFA_XSP16, literal(-6)))
          CFI (cfiCond305) ?RET_LOW load(1, XDATA, add(CFA_XSP16, literal(-5)))
          CFI (cfiCond305) ?RET_HIGH load(1, XDATA, add(CFA_XSP16, literal(-4)))
          CFI (cfiCond305) ?BRET_EXT load(1, XDATA, add(CFA_XSP16, literal(-3)))
          CFI (cfiCond305) DPL0 load(1, XDATA, add(CFA_XSP16, literal(-2)))
          CFI (cfiCond305) DPH0 load(1, XDATA, add(CFA_XSP16, literal(-1)))
          CFI (cfiCond305) CFA_SP SP+-2
          CFI (cfiCond305) CFA_XSP16 add(XSP16, 58)
          CFI Block cfiPicker306 Using cfiCommon1
          CFI (cfiPicker306) NoFunction
          CFI (cfiPicker306) Picker
        LCALL     ?Subroutine41 & 0xFFFF
??CrossCallReturnLabel_151:
        MOV       DPL,R6
        MOV       DPH,R7
        INC       DPTR
        INC       DPTR
        INC       DPTR
        INC       DPTR
        INC       DPTR
        INC       DPTR
        INC       DPTR
        INC       DPTR
        INC       DPTR
        INC       DPTR
        MOV       A,R0
        MOVX      @DPTR,A
        INC       DPTR
        MOV       A,R1
        MOVX      @DPTR,A
        RET
          CFI EndBlock cfiCond304
          CFI EndBlock cfiCond305
          CFI EndBlock cfiPicker306
// 1713 
// 1714 /*********************************************************************
// 1715  * @fn      initiatorNwkStartRspCB
// 1716  *
// 1717  * @brief   This callback is called to process a Network Start Response command.
// 1718  *
// 1719  * @param   srcAddr - sender's address
// 1720  * @param   pRsp - parsed command
// 1721  *
// 1722  * @return  ZStatus_t
// 1723  */

        RSEG BANKED_CODE:HUGECODE:NOROOT(0)
// 1724 static ZStatus_t initiatorNwkStartRspCB( afAddrType_t *srcAddr, bdbTLNwkStartRsp_t *pRsp )
initiatorNwkStartRspCB:
          CFI Block cfiBlock307 Using cfiCommon0
          CFI Function initiatorNwkStartRspCB
        CODE
// 1725 {
        FUNCALL initiatorNwkStartRspCB, touchLink_IsValidTransID
        LOCFRAME ISTACK, 0, STACK
        LOCFRAME PSTACK, 0, STACK
        LOCFRAME XSTACK, 9, STACK
        LOCFRAME IOVERLAY, 0, STATIC
        LOCFRAME DOVERLAY, 0, STATIC
        ARGFRAME ISTACK, 0, STACK
        ARGFRAME PSTACK, 0, STACK
        ARGFRAME XSTACK, 9, STACK
        ARGFRAME IOVERLAY, 0, STATIC
        ARGFRAME DOVERLAY, 0, STATIC
        FUNCALL initiatorNwkStartRspCB, osal_get_timeoutEx
        LOCFRAME ISTACK, 0, STACK
        LOCFRAME PSTACK, 0, STACK
        LOCFRAME XSTACK, 9, STACK
        LOCFRAME IOVERLAY, 0, STATIC
        LOCFRAME DOVERLAY, 0, STATIC
        ARGFRAME ISTACK, 0, STACK
        ARGFRAME PSTACK, 0, STACK
        ARGFRAME XSTACK, 9, STACK
        ARGFRAME IOVERLAY, 0, STATIC
        ARGFRAME DOVERLAY, 0, STATIC
        FUNCALL initiatorNwkStartRspCB, osal_set_event
        LOCFRAME ISTACK, 0, STACK
        LOCFRAME PSTACK, 0, STACK
        LOCFRAME XSTACK, 9, STACK
        LOCFRAME IOVERLAY, 0, STATIC
        LOCFRAME DOVERLAY, 0, STATIC
        ARGFRAME ISTACK, 0, STACK
        ARGFRAME PSTACK, 0, STACK
        ARGFRAME XSTACK, 9, STACK
        ARGFRAME IOVERLAY, 0, STATIC
        ARGFRAME DOVERLAY, 0, STATIC
        MOV       A,#-0x9
        LCALL     ?BANKED_ENTER_XDATA
          CFI DPH0 load(1, XDATA, add(CFA_XSP16, literal(-1)))
          CFI DPL0 load(1, XDATA, add(CFA_XSP16, literal(-2)))
          CFI ?BRET_EXT load(1, XDATA, add(CFA_XSP16, literal(-3)))
          CFI ?RET_HIGH load(1, XDATA, add(CFA_XSP16, literal(-4)))
          CFI ?RET_LOW load(1, XDATA, add(CFA_XSP16, literal(-5)))
          CFI R7 load(1, XDATA, add(CFA_XSP16, literal(-6)))
          CFI V0 load(1, XDATA, add(CFA_XSP16, literal(-7)))
          CFI VB load(1, XDATA, add(CFA_XSP16, literal(-8)))
          CFI R6 load(1, XDATA, add(CFA_XSP16, literal(-9)))
          CFI CFA_SP SP+0
          CFI CFA_XSP16 add(XSP16, 9)
        ; Saved register size: 9
        ; Auto size: 0
        MOV       A,R4
        MOV       R6,A
        MOV       A,R5
        MOV       R7,A
// 1726   if ( touchLink_IsValidTransID( pRsp->transID ) == FALSE )
        ; Setup parameters for call to function touchLink_IsValidTransID
        MOV       DPL,R4
        MOV       DPH,A
        LCALL     ?XLOAD_R2345
        LCALL     ?Subroutine34 & 0xFFFF
??CrossCallReturnLabel_43:
        JNZ       ??initiatorNwkStartRspCB_0
// 1727   {
// 1728     return ( ZFailure );
        MOV       R1,#0x1
        SJMP      ??initiatorNwkStartRspCB_1
// 1729   }
// 1730   // Make sure we didn't timeout waiting for this response
// 1731   if ( osal_get_timeoutEx( touchLinkInitiator_TaskID, TOUCHLINK_W4_NWK_START_RSP_EVT ) )
??initiatorNwkStartRspCB_0:
        ; Setup parameters for call to function osal_get_timeoutEx
        MOV       R2,#-0x80
        LCALL     ??Subroutine65_0 & 0xFFFF
??CrossCallReturnLabel_164:
        JZ        ??CrossCallReturnLabel_175
// 1732   {
// 1733     // Save the Network Start Response for later
// 1734     rxRsp.nwkStartRsp = *pRsp;
        MOV       DPL,R6
        MOV       DPH,R7
        MOV       R4,#rxRsp & 0xff
        MOV       R5,#(rxRsp >> 8) & 0xff
        MOV       A,#0x11
        LCALL     ?MOVE_LONG8_XDATA_XDATA
// 1735 
// 1736     // No need to wait longer
// 1737     osal_set_event( touchLinkInitiator_TaskID, TOUCHLINK_W4_NWK_START_RSP_EVT );  
        ; Setup parameters for call to function osal_set_event
        MOV       R2,#-0x80
        MOV       R3,A
        LCALL     ??Subroutine68_0 & 0xFFFF
// 1738   }
// 1739 
// 1740   return ( ZSuccess );
??CrossCallReturnLabel_175:
        MOV       R1,#0x0
??initiatorNwkStartRspCB_1:
        LJMP      ??Subroutine54_0 & 0xFFFF
// 1741 }
          CFI EndBlock cfiBlock307

        RSEG BANKED_CODE:HUGECODE:NOROOT(0)
?Subroutine7:
          CFI Block cfiCond308 Using cfiCommon0
          CFI Function touchLinkInitiator_StartDevDisc
          CFI Conditional ??CrossCallReturnLabel_161
          CFI R6 load(1, XDATA, add(CFA_XSP16, literal(-16)))
          CFI VB load(1, XDATA, add(CFA_XSP16, literal(-15)))
          CFI V0 load(1, XDATA, add(CFA_XSP16, literal(-14)))
          CFI V1 load(1, XDATA, add(CFA_XSP16, literal(-13)))
          CFI V2 load(1, XDATA, add(CFA_XSP16, literal(-12)))
          CFI V3 load(1, XDATA, add(CFA_XSP16, literal(-11)))
          CFI V4 load(1, XDATA, add(CFA_XSP16, literal(-10)))
          CFI V5 load(1, XDATA, add(CFA_XSP16, literal(-9)))
          CFI V6 load(1, XDATA, add(CFA_XSP16, literal(-8)))
          CFI V7 load(1, XDATA, add(CFA_XSP16, literal(-7)))
          CFI R7 load(1, XDATA, add(CFA_XSP16, literal(-6)))
          CFI ?RET_LOW load(1, XDATA, add(CFA_XSP16, literal(-5)))
          CFI ?RET_HIGH load(1, XDATA, add(CFA_XSP16, literal(-4)))
          CFI ?BRET_EXT load(1, XDATA, add(CFA_XSP16, literal(-3)))
          CFI DPL0 load(1, XDATA, add(CFA_XSP16, literal(-2)))
          CFI DPH0 load(1, XDATA, add(CFA_XSP16, literal(-1)))
          CFI CFA_SP SP+-2
          CFI CFA_XSP16 add(XSP16, 17)
          CFI Block cfiCond309 Using cfiCommon0
          CFI (cfiCond309) Function initiatorScanReqCB
          CFI (cfiCond309) Conditional ??CrossCallReturnLabel_162
          CFI (cfiCond309) R6 load(1, XDATA, add(CFA_XSP16, literal(-19)))
          CFI (cfiCond309) VB load(1, XDATA, add(CFA_XSP16, literal(-18)))
          CFI (cfiCond309) V0 load(1, XDATA, add(CFA_XSP16, literal(-17)))
          CFI (cfiCond309) V1 load(1, XDATA, add(CFA_XSP16, literal(-16)))
          CFI (cfiCond309) V2 load(1, XDATA, add(CFA_XSP16, literal(-15)))
          CFI (cfiCond309) V3 load(1, XDATA, add(CFA_XSP16, literal(-14)))
          CFI (cfiCond309) V4 load(1, XDATA, add(CFA_XSP16, literal(-13)))
          CFI (cfiCond309) V5 load(1, XDATA, add(CFA_XSP16, literal(-12)))
          CFI (cfiCond309) V6 load(1, XDATA, add(CFA_XSP16, literal(-11)))
          CFI (cfiCond309) V7 load(1, XDATA, add(CFA_XSP16, literal(-10)))
          CFI (cfiCond309) V8 load(1, XDATA, add(CFA_XSP16, literal(-9)))
          CFI (cfiCond309) V9 load(1, XDATA, add(CFA_XSP16, literal(-8)))
          CFI (cfiCond309) V10 load(1, XDATA, add(CFA_XSP16, literal(-7)))
          CFI (cfiCond309) R7 load(1, XDATA, add(CFA_XSP16, literal(-6)))
          CFI (cfiCond309) ?RET_LOW load(1, XDATA, add(CFA_XSP16, literal(-5)))
          CFI (cfiCond309) ?RET_HIGH load(1, XDATA, add(CFA_XSP16, literal(-4)))
          CFI (cfiCond309) ?BRET_EXT load(1, XDATA, add(CFA_XSP16, literal(-3)))
          CFI (cfiCond309) DPL0 load(1, XDATA, add(CFA_XSP16, literal(-2)))
          CFI (cfiCond309) DPH0 load(1, XDATA, add(CFA_XSP16, literal(-1)))
          CFI (cfiCond309) CFA_SP SP+-2
          CFI (cfiCond309) CFA_XSP16 add(XSP16, 31)
          CFI Block cfiCond310 Using cfiCommon0
          CFI (cfiCond310) Function initiatorScanRspCB
          CFI (cfiCond310) Conditional ??CrossCallReturnLabel_163
          CFI (cfiCond310) R6 load(1, XDATA, add(CFA_XSP16, literal(-12)))
          CFI (cfiCond310) VB load(1, XDATA, add(CFA_XSP16, literal(-11)))
          CFI (cfiCond310) V0 load(1, XDATA, add(CFA_XSP16, literal(-10)))
          CFI (cfiCond310) V1 load(1, XDATA, add(CFA_XSP16, literal(-9)))
          CFI (cfiCond310) V2 load(1, XDATA, add(CFA_XSP16, literal(-8)))
          CFI (cfiCond310) V3 load(1, XDATA, add(CFA_XSP16, literal(-7)))
          CFI (cfiCond310) R7 load(1, XDATA, add(CFA_XSP16, literal(-6)))
          CFI (cfiCond310) ?RET_LOW load(1, XDATA, add(CFA_XSP16, literal(-5)))
          CFI (cfiCond310) ?RET_HIGH load(1, XDATA, add(CFA_XSP16, literal(-4)))
          CFI (cfiCond310) ?BRET_EXT load(1, XDATA, add(CFA_XSP16, literal(-3)))
          CFI (cfiCond310) DPL0 load(1, XDATA, add(CFA_XSP16, literal(-2)))
          CFI (cfiCond310) DPH0 load(1, XDATA, add(CFA_XSP16, literal(-1)))
          CFI (cfiCond310) CFA_SP SP+-2
          CFI (cfiCond310) CFA_XSP16 add(XSP16, 17)
          CFI Block cfiPicker311 Using cfiCommon1
          CFI (cfiPicker311) NoFunction
          CFI (cfiPicker311) Picker
        MOV       R2,#0x20
          CFI EndBlock cfiCond308
          CFI EndBlock cfiCond309
          CFI EndBlock cfiCond310
          CFI EndBlock cfiPicker311
        REQUIRE ??Subroutine65_0
        ; // Fall through to label ??Subroutine65_0

        RSEG BANKED_CODE:HUGECODE:NOROOT(0)
??Subroutine65_0:
          CFI Block cfiCond312 Using cfiCommon0
          CFI Function initiatorNwkStartRspCB
          CFI Conditional ??CrossCallReturnLabel_164
          CFI R6 load(1, XDATA, add(CFA_XSP16, literal(-9)))
          CFI VB load(1, XDATA, add(CFA_XSP16, literal(-8)))
          CFI V0 load(1, XDATA, add(CFA_XSP16, literal(-7)))
          CFI R7 load(1, XDATA, add(CFA_XSP16, literal(-6)))
          CFI ?RET_LOW load(1, XDATA, add(CFA_XSP16, literal(-5)))
          CFI ?RET_HIGH load(1, XDATA, add(CFA_XSP16, literal(-4)))
          CFI ?BRET_EXT load(1, XDATA, add(CFA_XSP16, literal(-3)))
          CFI DPL0 load(1, XDATA, add(CFA_XSP16, literal(-2)))
          CFI DPH0 load(1, XDATA, add(CFA_XSP16, literal(-1)))
          CFI CFA_SP SP+-2
          CFI CFA_XSP16 add(XSP16, 9)
          CFI Block cfiCond313 Using cfiCommon0
          CFI (cfiCond313) Function touchLinkInitiator_StartDevDisc
          CFI (cfiCond313) Conditional ??CrossCallReturnLabel_161
          CFI (cfiCond313) R6 load(1, XDATA, add(CFA_XSP16, literal(-16)))
          CFI (cfiCond313) VB load(1, XDATA, add(CFA_XSP16, literal(-15)))
          CFI (cfiCond313) V0 load(1, XDATA, add(CFA_XSP16, literal(-14)))
          CFI (cfiCond313) V1 load(1, XDATA, add(CFA_XSP16, literal(-13)))
          CFI (cfiCond313) V2 load(1, XDATA, add(CFA_XSP16, literal(-12)))
          CFI (cfiCond313) V3 load(1, XDATA, add(CFA_XSP16, literal(-11)))
          CFI (cfiCond313) V4 load(1, XDATA, add(CFA_XSP16, literal(-10)))
          CFI (cfiCond313) V5 load(1, XDATA, add(CFA_XSP16, literal(-9)))
          CFI (cfiCond313) V6 load(1, XDATA, add(CFA_XSP16, literal(-8)))
          CFI (cfiCond313) V7 load(1, XDATA, add(CFA_XSP16, literal(-7)))
          CFI (cfiCond313) R7 load(1, XDATA, add(CFA_XSP16, literal(-6)))
          CFI (cfiCond313) ?RET_LOW load(1, XDATA, add(CFA_XSP16, literal(-5)))
          CFI (cfiCond313) ?RET_HIGH load(1, XDATA, add(CFA_XSP16, literal(-4)))
          CFI (cfiCond313) ?BRET_EXT load(1, XDATA, add(CFA_XSP16, literal(-3)))
          CFI (cfiCond313) DPL0 load(1, XDATA, add(CFA_XSP16, literal(-2)))
          CFI (cfiCond313) DPH0 load(1, XDATA, add(CFA_XSP16, literal(-1)))
          CFI (cfiCond313) CFA_SP SP+-2
          CFI (cfiCond313) CFA_XSP16 add(XSP16, 17)
          CFI Block cfiCond314 Using cfiCommon0
          CFI (cfiCond314) Function initiatorScanReqCB
          CFI (cfiCond314) Conditional ??CrossCallReturnLabel_162
          CFI (cfiCond314) R6 load(1, XDATA, add(CFA_XSP16, literal(-19)))
          CFI (cfiCond314) VB load(1, XDATA, add(CFA_XSP16, literal(-18)))
          CFI (cfiCond314) V0 load(1, XDATA, add(CFA_XSP16, literal(-17)))
          CFI (cfiCond314) V1 load(1, XDATA, add(CFA_XSP16, literal(-16)))
          CFI (cfiCond314) V2 load(1, XDATA, add(CFA_XSP16, literal(-15)))
          CFI (cfiCond314) V3 load(1, XDATA, add(CFA_XSP16, literal(-14)))
          CFI (cfiCond314) V4 load(1, XDATA, add(CFA_XSP16, literal(-13)))
          CFI (cfiCond314) V5 load(1, XDATA, add(CFA_XSP16, literal(-12)))
          CFI (cfiCond314) V6 load(1, XDATA, add(CFA_XSP16, literal(-11)))
          CFI (cfiCond314) V7 load(1, XDATA, add(CFA_XSP16, literal(-10)))
          CFI (cfiCond314) V8 load(1, XDATA, add(CFA_XSP16, literal(-9)))
          CFI (cfiCond314) V9 load(1, XDATA, add(CFA_XSP16, literal(-8)))
          CFI (cfiCond314) V10 load(1, XDATA, add(CFA_XSP16, literal(-7)))
          CFI (cfiCond314) R7 load(1, XDATA, add(CFA_XSP16, literal(-6)))
          CFI (cfiCond314) ?RET_LOW load(1, XDATA, add(CFA_XSP16, literal(-5)))
          CFI (cfiCond314) ?RET_HIGH load(1, XDATA, add(CFA_XSP16, literal(-4)))
          CFI (cfiCond314) ?BRET_EXT load(1, XDATA, add(CFA_XSP16, literal(-3)))
          CFI (cfiCond314) DPL0 load(1, XDATA, add(CFA_XSP16, literal(-2)))
          CFI (cfiCond314) DPH0 load(1, XDATA, add(CFA_XSP16, literal(-1)))
          CFI (cfiCond314) CFA_SP SP+-2
          CFI (cfiCond314) CFA_XSP16 add(XSP16, 31)
          CFI Block cfiCond315 Using cfiCommon0
          CFI (cfiCond315) Function initiatorScanRspCB
          CFI (cfiCond315) Conditional ??CrossCallReturnLabel_163
          CFI (cfiCond315) R6 load(1, XDATA, add(CFA_XSP16, literal(-12)))
          CFI (cfiCond315) VB load(1, XDATA, add(CFA_XSP16, literal(-11)))
          CFI (cfiCond315) V0 load(1, XDATA, add(CFA_XSP16, literal(-10)))
          CFI (cfiCond315) V1 load(1, XDATA, add(CFA_XSP16, literal(-9)))
          CFI (cfiCond315) V2 load(1, XDATA, add(CFA_XSP16, literal(-8)))
          CFI (cfiCond315) V3 load(1, XDATA, add(CFA_XSP16, literal(-7)))
          CFI (cfiCond315) R7 load(1, XDATA, add(CFA_XSP16, literal(-6)))
          CFI (cfiCond315) ?RET_LOW load(1, XDATA, add(CFA_XSP16, literal(-5)))
          CFI (cfiCond315) ?RET_HIGH load(1, XDATA, add(CFA_XSP16, literal(-4)))
          CFI (cfiCond315) ?BRET_EXT load(1, XDATA, add(CFA_XSP16, literal(-3)))
          CFI (cfiCond315) DPL0 load(1, XDATA, add(CFA_XSP16, literal(-2)))
          CFI (cfiCond315) DPH0 load(1, XDATA, add(CFA_XSP16, literal(-1)))
          CFI (cfiCond315) CFA_SP SP+-2
          CFI (cfiCond315) CFA_XSP16 add(XSP16, 17)
          CFI Block cfiPicker316 Using cfiCommon1
          CFI (cfiPicker316) NoFunction
          CFI (cfiPicker316) Picker
        MOV       R3,#0x0
          CFI EndBlock cfiCond312
          CFI EndBlock cfiCond313
          CFI EndBlock cfiCond314
          CFI EndBlock cfiCond315
          CFI EndBlock cfiPicker316
        REQUIRE ??Subroutine66_0
        ; // Fall through to label ??Subroutine66_0

        RSEG BANKED_CODE:HUGECODE:NOROOT(0)
??Subroutine66_0:
          CFI Block cfiCond317 Using cfiCommon0
          CFI Function initiatorNwkJoinRtrRspCB
          CFI Conditional ??CrossCallReturnLabel_165
          CFI R6 load(1, XDATA, add(CFA_XSP16, literal(-11)))
          CFI VB load(1, XDATA, add(CFA_XSP16, literal(-10)))
          CFI V0 load(1, XDATA, add(CFA_XSP16, literal(-9)))
          CFI V1 load(1, XDATA, add(CFA_XSP16, literal(-8)))
          CFI V2 load(1, XDATA, add(CFA_XSP16, literal(-7)))
          CFI R7 load(1, XDATA, add(CFA_XSP16, literal(-6)))
          CFI ?RET_LOW load(1, XDATA, add(CFA_XSP16, literal(-5)))
          CFI ?RET_HIGH load(1, XDATA, add(CFA_XSP16, literal(-4)))
          CFI ?BRET_EXT load(1, XDATA, add(CFA_XSP16, literal(-3)))
          CFI DPL0 load(1, XDATA, add(CFA_XSP16, literal(-2)))
          CFI DPH0 load(1, XDATA, add(CFA_XSP16, literal(-1)))
          CFI CFA_SP SP+-2
          CFI CFA_XSP16 add(XSP16, 11)
          CFI Block cfiCond318 Using cfiCommon0
          CFI (cfiCond318) Function initiatorNwkJoinEDRspCB
          CFI (cfiCond318) Conditional ??CrossCallReturnLabel_166
          CFI (cfiCond318) R6 load(1, XDATA, add(CFA_XSP16, literal(-11)))
          CFI (cfiCond318) VB load(1, XDATA, add(CFA_XSP16, literal(-10)))
          CFI (cfiCond318) V0 load(1, XDATA, add(CFA_XSP16, literal(-9)))
          CFI (cfiCond318) V1 load(1, XDATA, add(CFA_XSP16, literal(-8)))
          CFI (cfiCond318) V2 load(1, XDATA, add(CFA_XSP16, literal(-7)))
          CFI (cfiCond318) R7 load(1, XDATA, add(CFA_XSP16, literal(-6)))
          CFI (cfiCond318) ?RET_LOW load(1, XDATA, add(CFA_XSP16, literal(-5)))
          CFI (cfiCond318) ?RET_HIGH load(1, XDATA, add(CFA_XSP16, literal(-4)))
          CFI (cfiCond318) ?BRET_EXT load(1, XDATA, add(CFA_XSP16, literal(-3)))
          CFI (cfiCond318) DPL0 load(1, XDATA, add(CFA_XSP16, literal(-2)))
          CFI (cfiCond318) DPH0 load(1, XDATA, add(CFA_XSP16, literal(-1)))
          CFI (cfiCond318) CFA_SP SP+-2
          CFI (cfiCond318) CFA_XSP16 add(XSP16, 11)
          CFI Block cfiCond319 Using cfiCommon0
          CFI (cfiCond319) Function initiatorProcessStateChange
          CFI (cfiCond319) Conditional ??CrossCallReturnLabel_167
          CFI (cfiCond319) R6 load(1, XDATA, add(CFA_XSP16, literal(-10)))
          CFI (cfiCond319) VB load(1, XDATA, add(CFA_XSP16, literal(-9)))
          CFI (cfiCond319) V0 load(1, XDATA, add(CFA_XSP16, literal(-8)))
          CFI (cfiCond319) V1 load(1, XDATA, add(CFA_XSP16, literal(-7)))
          CFI (cfiCond319) R7 load(1, XDATA, add(CFA_XSP16, literal(-6)))
          CFI (cfiCond319) ?RET_LOW load(1, XDATA, add(CFA_XSP16, literal(-5)))
          CFI (cfiCond319) ?RET_HIGH load(1, XDATA, add(CFA_XSP16, literal(-4)))
          CFI (cfiCond319) ?BRET_EXT load(1, XDATA, add(CFA_XSP16, literal(-3)))
          CFI (cfiCond319) DPL0 load(1, XDATA, add(CFA_XSP16, literal(-2)))
          CFI (cfiCond319) DPH0 load(1, XDATA, add(CFA_XSP16, literal(-1)))
          CFI (cfiCond319) CFA_SP SP+-2
          CFI (cfiCond319) CFA_XSP16 add(XSP16, 10)
          CFI Block cfiCond320 Using cfiCommon0
          CFI (cfiCond320) Function initiatorNwkStartRspCB
          CFI (cfiCond320) Conditional ??CrossCallReturnLabel_164
          CFI (cfiCond320) R6 load(1, XDATA, add(CFA_XSP16, literal(-9)))
          CFI (cfiCond320) VB load(1, XDATA, add(CFA_XSP16, literal(-8)))
          CFI (cfiCond320) V0 load(1, XDATA, add(CFA_XSP16, literal(-7)))
          CFI (cfiCond320) R7 load(1, XDATA, add(CFA_XSP16, literal(-6)))
          CFI (cfiCond320) ?RET_LOW load(1, XDATA, add(CFA_XSP16, literal(-5)))
          CFI (cfiCond320) ?RET_HIGH load(1, XDATA, add(CFA_XSP16, literal(-4)))
          CFI (cfiCond320) ?BRET_EXT load(1, XDATA, add(CFA_XSP16, literal(-3)))
          CFI (cfiCond320) DPL0 load(1, XDATA, add(CFA_XSP16, literal(-2)))
          CFI (cfiCond320) DPH0 load(1, XDATA, add(CFA_XSP16, literal(-1)))
          CFI (cfiCond320) CFA_SP SP+-2
          CFI (cfiCond320) CFA_XSP16 add(XSP16, 9)
          CFI Block cfiCond321 Using cfiCommon0
          CFI (cfiCond321) Function touchLinkInitiator_StartDevDisc
          CFI (cfiCond321) Conditional ??CrossCallReturnLabel_161
          CFI (cfiCond321) R6 load(1, XDATA, add(CFA_XSP16, literal(-16)))
          CFI (cfiCond321) VB load(1, XDATA, add(CFA_XSP16, literal(-15)))
          CFI (cfiCond321) V0 load(1, XDATA, add(CFA_XSP16, literal(-14)))
          CFI (cfiCond321) V1 load(1, XDATA, add(CFA_XSP16, literal(-13)))
          CFI (cfiCond321) V2 load(1, XDATA, add(CFA_XSP16, literal(-12)))
          CFI (cfiCond321) V3 load(1, XDATA, add(CFA_XSP16, literal(-11)))
          CFI (cfiCond321) V4 load(1, XDATA, add(CFA_XSP16, literal(-10)))
          CFI (cfiCond321) V5 load(1, XDATA, add(CFA_XSP16, literal(-9)))
          CFI (cfiCond321) V6 load(1, XDATA, add(CFA_XSP16, literal(-8)))
          CFI (cfiCond321) V7 load(1, XDATA, add(CFA_XSP16, literal(-7)))
          CFI (cfiCond321) R7 load(1, XDATA, add(CFA_XSP16, literal(-6)))
          CFI (cfiCond321) ?RET_LOW load(1, XDATA, add(CFA_XSP16, literal(-5)))
          CFI (cfiCond321) ?RET_HIGH load(1, XDATA, add(CFA_XSP16, literal(-4)))
          CFI (cfiCond321) ?BRET_EXT load(1, XDATA, add(CFA_XSP16, literal(-3)))
          CFI (cfiCond321) DPL0 load(1, XDATA, add(CFA_XSP16, literal(-2)))
          CFI (cfiCond321) DPH0 load(1, XDATA, add(CFA_XSP16, literal(-1)))
          CFI (cfiCond321) CFA_SP SP+-2
          CFI (cfiCond321) CFA_XSP16 add(XSP16, 17)
          CFI Block cfiCond322 Using cfiCommon0
          CFI (cfiCond322) Function initiatorScanReqCB
          CFI (cfiCond322) Conditional ??CrossCallReturnLabel_162
          CFI (cfiCond322) R6 load(1, XDATA, add(CFA_XSP16, literal(-19)))
          CFI (cfiCond322) VB load(1, XDATA, add(CFA_XSP16, literal(-18)))
          CFI (cfiCond322) V0 load(1, XDATA, add(CFA_XSP16, literal(-17)))
          CFI (cfiCond322) V1 load(1, XDATA, add(CFA_XSP16, literal(-16)))
          CFI (cfiCond322) V2 load(1, XDATA, add(CFA_XSP16, literal(-15)))
          CFI (cfiCond322) V3 load(1, XDATA, add(CFA_XSP16, literal(-14)))
          CFI (cfiCond322) V4 load(1, XDATA, add(CFA_XSP16, literal(-13)))
          CFI (cfiCond322) V5 load(1, XDATA, add(CFA_XSP16, literal(-12)))
          CFI (cfiCond322) V6 load(1, XDATA, add(CFA_XSP16, literal(-11)))
          CFI (cfiCond322) V7 load(1, XDATA, add(CFA_XSP16, literal(-10)))
          CFI (cfiCond322) V8 load(1, XDATA, add(CFA_XSP16, literal(-9)))
          CFI (cfiCond322) V9 load(1, XDATA, add(CFA_XSP16, literal(-8)))
          CFI (cfiCond322) V10 load(1, XDATA, add(CFA_XSP16, literal(-7)))
          CFI (cfiCond322) R7 load(1, XDATA, add(CFA_XSP16, literal(-6)))
          CFI (cfiCond322) ?RET_LOW load(1, XDATA, add(CFA_XSP16, literal(-5)))
          CFI (cfiCond322) ?RET_HIGH load(1, XDATA, add(CFA_XSP16, literal(-4)))
          CFI (cfiCond322) ?BRET_EXT load(1, XDATA, add(CFA_XSP16, literal(-3)))
          CFI (cfiCond322) DPL0 load(1, XDATA, add(CFA_XSP16, literal(-2)))
          CFI (cfiCond322) DPH0 load(1, XDATA, add(CFA_XSP16, literal(-1)))
          CFI (cfiCond322) CFA_SP SP+-2
          CFI (cfiCond322) CFA_XSP16 add(XSP16, 31)
          CFI Block cfiCond323 Using cfiCommon0
          CFI (cfiCond323) Function initiatorScanRspCB
          CFI (cfiCond323) Conditional ??CrossCallReturnLabel_163
          CFI (cfiCond323) R6 load(1, XDATA, add(CFA_XSP16, literal(-12)))
          CFI (cfiCond323) VB load(1, XDATA, add(CFA_XSP16, literal(-11)))
          CFI (cfiCond323) V0 load(1, XDATA, add(CFA_XSP16, literal(-10)))
          CFI (cfiCond323) V1 load(1, XDATA, add(CFA_XSP16, literal(-9)))
          CFI (cfiCond323) V2 load(1, XDATA, add(CFA_XSP16, literal(-8)))
          CFI (cfiCond323) V3 load(1, XDATA, add(CFA_XSP16, literal(-7)))
          CFI (cfiCond323) R7 load(1, XDATA, add(CFA_XSP16, literal(-6)))
          CFI (cfiCond323) ?RET_LOW load(1, XDATA, add(CFA_XSP16, literal(-5)))
          CFI (cfiCond323) ?RET_HIGH load(1, XDATA, add(CFA_XSP16, literal(-4)))
          CFI (cfiCond323) ?BRET_EXT load(1, XDATA, add(CFA_XSP16, literal(-3)))
          CFI (cfiCond323) DPL0 load(1, XDATA, add(CFA_XSP16, literal(-2)))
          CFI (cfiCond323) DPH0 load(1, XDATA, add(CFA_XSP16, literal(-1)))
          CFI (cfiCond323) CFA_SP SP+-2
          CFI (cfiCond323) CFA_XSP16 add(XSP16, 17)
          CFI Block cfiPicker324 Using cfiCommon1
          CFI (cfiPicker324) NoFunction
          CFI (cfiPicker324) Picker
        MOV       DPTR,#touchLinkInitiator_TaskID
          CFI EndBlock cfiCond317
          CFI EndBlock cfiCond318
          CFI EndBlock cfiCond319
          CFI EndBlock cfiCond320
          CFI EndBlock cfiCond321
          CFI EndBlock cfiCond322
          CFI EndBlock cfiCond323
          CFI EndBlock cfiPicker324
        REQUIRE ??Subroutine67_0
        ; // Fall through to label ??Subroutine67_0

        RSEG BANKED_CODE:HUGECODE:NOROOT(0)
??Subroutine67_0:
          CFI Block cfiCond325 Using cfiCommon0
          CFI Function touchLinkInitiator_ResetToFNProcedure
          CFI Conditional ??CrossCallReturnLabel_168
          CFI DPL0 Frame(CFA_SP, 4)
          CFI DPH0 Frame(CFA_SP, 5)
          CFI CFA_SP SP+-7
          CFI Block cfiCond326 Using cfiCommon0
          CFI (cfiCond326) Function initiatorNwkJoinRtrRspCB
          CFI (cfiCond326) Conditional ??CrossCallReturnLabel_165
          CFI (cfiCond326) R6 load(1, XDATA, add(CFA_XSP16, literal(-11)))
          CFI (cfiCond326) VB load(1, XDATA, add(CFA_XSP16, literal(-10)))
          CFI (cfiCond326) V0 load(1, XDATA, add(CFA_XSP16, literal(-9)))
          CFI (cfiCond326) V1 load(1, XDATA, add(CFA_XSP16, literal(-8)))
          CFI (cfiCond326) V2 load(1, XDATA, add(CFA_XSP16, literal(-7)))
          CFI (cfiCond326) R7 load(1, XDATA, add(CFA_XSP16, literal(-6)))
          CFI (cfiCond326) ?RET_LOW load(1, XDATA, add(CFA_XSP16, literal(-5)))
          CFI (cfiCond326) ?RET_HIGH load(1, XDATA, add(CFA_XSP16, literal(-4)))
          CFI (cfiCond326) ?BRET_EXT load(1, XDATA, add(CFA_XSP16, literal(-3)))
          CFI (cfiCond326) DPL0 load(1, XDATA, add(CFA_XSP16, literal(-2)))
          CFI (cfiCond326) DPH0 load(1, XDATA, add(CFA_XSP16, literal(-1)))
          CFI (cfiCond326) CFA_SP SP+-2
          CFI (cfiCond326) CFA_XSP16 add(XSP16, 11)
          CFI Block cfiCond327 Using cfiCommon0
          CFI (cfiCond327) Function initiatorNwkJoinEDRspCB
          CFI (cfiCond327) Conditional ??CrossCallReturnLabel_166
          CFI (cfiCond327) R6 load(1, XDATA, add(CFA_XSP16, literal(-11)))
          CFI (cfiCond327) VB load(1, XDATA, add(CFA_XSP16, literal(-10)))
          CFI (cfiCond327) V0 load(1, XDATA, add(CFA_XSP16, literal(-9)))
          CFI (cfiCond327) V1 load(1, XDATA, add(CFA_XSP16, literal(-8)))
          CFI (cfiCond327) V2 load(1, XDATA, add(CFA_XSP16, literal(-7)))
          CFI (cfiCond327) R7 load(1, XDATA, add(CFA_XSP16, literal(-6)))
          CFI (cfiCond327) ?RET_LOW load(1, XDATA, add(CFA_XSP16, literal(-5)))
          CFI (cfiCond327) ?RET_HIGH load(1, XDATA, add(CFA_XSP16, literal(-4)))
          CFI (cfiCond327) ?BRET_EXT load(1, XDATA, add(CFA_XSP16, literal(-3)))
          CFI (cfiCond327) DPL0 load(1, XDATA, add(CFA_XSP16, literal(-2)))
          CFI (cfiCond327) DPH0 load(1, XDATA, add(CFA_XSP16, literal(-1)))
          CFI (cfiCond327) CFA_SP SP+-2
          CFI (cfiCond327) CFA_XSP16 add(XSP16, 11)
          CFI Block cfiCond328 Using cfiCommon0
          CFI (cfiCond328) Function initiatorProcessStateChange
          CFI (cfiCond328) Conditional ??CrossCallReturnLabel_167
          CFI (cfiCond328) R6 load(1, XDATA, add(CFA_XSP16, literal(-10)))
          CFI (cfiCond328) VB load(1, XDATA, add(CFA_XSP16, literal(-9)))
          CFI (cfiCond328) V0 load(1, XDATA, add(CFA_XSP16, literal(-8)))
          CFI (cfiCond328) V1 load(1, XDATA, add(CFA_XSP16, literal(-7)))
          CFI (cfiCond328) R7 load(1, XDATA, add(CFA_XSP16, literal(-6)))
          CFI (cfiCond328) ?RET_LOW load(1, XDATA, add(CFA_XSP16, literal(-5)))
          CFI (cfiCond328) ?RET_HIGH load(1, XDATA, add(CFA_XSP16, literal(-4)))
          CFI (cfiCond328) ?BRET_EXT load(1, XDATA, add(CFA_XSP16, literal(-3)))
          CFI (cfiCond328) DPL0 load(1, XDATA, add(CFA_XSP16, literal(-2)))
          CFI (cfiCond328) DPH0 load(1, XDATA, add(CFA_XSP16, literal(-1)))
          CFI (cfiCond328) CFA_SP SP+-2
          CFI (cfiCond328) CFA_XSP16 add(XSP16, 10)
          CFI Block cfiCond329 Using cfiCommon0
          CFI (cfiCond329) Function initiatorNwkStartRspCB
          CFI (cfiCond329) Conditional ??CrossCallReturnLabel_164
          CFI (cfiCond329) R6 load(1, XDATA, add(CFA_XSP16, literal(-9)))
          CFI (cfiCond329) VB load(1, XDATA, add(CFA_XSP16, literal(-8)))
          CFI (cfiCond329) V0 load(1, XDATA, add(CFA_XSP16, literal(-7)))
          CFI (cfiCond329) R7 load(1, XDATA, add(CFA_XSP16, literal(-6)))
          CFI (cfiCond329) ?RET_LOW load(1, XDATA, add(CFA_XSP16, literal(-5)))
          CFI (cfiCond329) ?RET_HIGH load(1, XDATA, add(CFA_XSP16, literal(-4)))
          CFI (cfiCond329) ?BRET_EXT load(1, XDATA, add(CFA_XSP16, literal(-3)))
          CFI (cfiCond329) DPL0 load(1, XDATA, add(CFA_XSP16, literal(-2)))
          CFI (cfiCond329) DPH0 load(1, XDATA, add(CFA_XSP16, literal(-1)))
          CFI (cfiCond329) CFA_SP SP+-2
          CFI (cfiCond329) CFA_XSP16 add(XSP16, 9)
          CFI Block cfiCond330 Using cfiCommon0
          CFI (cfiCond330) Function touchLinkInitiator_StartDevDisc
          CFI (cfiCond330) Conditional ??CrossCallReturnLabel_161
          CFI (cfiCond330) R6 load(1, XDATA, add(CFA_XSP16, literal(-16)))
          CFI (cfiCond330) VB load(1, XDATA, add(CFA_XSP16, literal(-15)))
          CFI (cfiCond330) V0 load(1, XDATA, add(CFA_XSP16, literal(-14)))
          CFI (cfiCond330) V1 load(1, XDATA, add(CFA_XSP16, literal(-13)))
          CFI (cfiCond330) V2 load(1, XDATA, add(CFA_XSP16, literal(-12)))
          CFI (cfiCond330) V3 load(1, XDATA, add(CFA_XSP16, literal(-11)))
          CFI (cfiCond330) V4 load(1, XDATA, add(CFA_XSP16, literal(-10)))
          CFI (cfiCond330) V5 load(1, XDATA, add(CFA_XSP16, literal(-9)))
          CFI (cfiCond330) V6 load(1, XDATA, add(CFA_XSP16, literal(-8)))
          CFI (cfiCond330) V7 load(1, XDATA, add(CFA_XSP16, literal(-7)))
          CFI (cfiCond330) R7 load(1, XDATA, add(CFA_XSP16, literal(-6)))
          CFI (cfiCond330) ?RET_LOW load(1, XDATA, add(CFA_XSP16, literal(-5)))
          CFI (cfiCond330) ?RET_HIGH load(1, XDATA, add(CFA_XSP16, literal(-4)))
          CFI (cfiCond330) ?BRET_EXT load(1, XDATA, add(CFA_XSP16, literal(-3)))
          CFI (cfiCond330) DPL0 load(1, XDATA, add(CFA_XSP16, literal(-2)))
          CFI (cfiCond330) DPH0 load(1, XDATA, add(CFA_XSP16, literal(-1)))
          CFI (cfiCond330) CFA_SP SP+-2
          CFI (cfiCond330) CFA_XSP16 add(XSP16, 17)
          CFI Block cfiCond331 Using cfiCommon0
          CFI (cfiCond331) Function initiatorScanReqCB
          CFI (cfiCond331) Conditional ??CrossCallReturnLabel_162
          CFI (cfiCond331) R6 load(1, XDATA, add(CFA_XSP16, literal(-19)))
          CFI (cfiCond331) VB load(1, XDATA, add(CFA_XSP16, literal(-18)))
          CFI (cfiCond331) V0 load(1, XDATA, add(CFA_XSP16, literal(-17)))
          CFI (cfiCond331) V1 load(1, XDATA, add(CFA_XSP16, literal(-16)))
          CFI (cfiCond331) V2 load(1, XDATA, add(CFA_XSP16, literal(-15)))
          CFI (cfiCond331) V3 load(1, XDATA, add(CFA_XSP16, literal(-14)))
          CFI (cfiCond331) V4 load(1, XDATA, add(CFA_XSP16, literal(-13)))
          CFI (cfiCond331) V5 load(1, XDATA, add(CFA_XSP16, literal(-12)))
          CFI (cfiCond331) V6 load(1, XDATA, add(CFA_XSP16, literal(-11)))
          CFI (cfiCond331) V7 load(1, XDATA, add(CFA_XSP16, literal(-10)))
          CFI (cfiCond331) V8 load(1, XDATA, add(CFA_XSP16, literal(-9)))
          CFI (cfiCond331) V9 load(1, XDATA, add(CFA_XSP16, literal(-8)))
          CFI (cfiCond331) V10 load(1, XDATA, add(CFA_XSP16, literal(-7)))
          CFI (cfiCond331) R7 load(1, XDATA, add(CFA_XSP16, literal(-6)))
          CFI (cfiCond331) ?RET_LOW load(1, XDATA, add(CFA_XSP16, literal(-5)))
          CFI (cfiCond331) ?RET_HIGH load(1, XDATA, add(CFA_XSP16, literal(-4)))
          CFI (cfiCond331) ?BRET_EXT load(1, XDATA, add(CFA_XSP16, literal(-3)))
          CFI (cfiCond331) DPL0 load(1, XDATA, add(CFA_XSP16, literal(-2)))
          CFI (cfiCond331) DPH0 load(1, XDATA, add(CFA_XSP16, literal(-1)))
          CFI (cfiCond331) CFA_SP SP+-2
          CFI (cfiCond331) CFA_XSP16 add(XSP16, 31)
          CFI Block cfiCond332 Using cfiCommon0
          CFI (cfiCond332) Function initiatorScanRspCB
          CFI (cfiCond332) Conditional ??CrossCallReturnLabel_163
          CFI (cfiCond332) R6 load(1, XDATA, add(CFA_XSP16, literal(-12)))
          CFI (cfiCond332) VB load(1, XDATA, add(CFA_XSP16, literal(-11)))
          CFI (cfiCond332) V0 load(1, XDATA, add(CFA_XSP16, literal(-10)))
          CFI (cfiCond332) V1 load(1, XDATA, add(CFA_XSP16, literal(-9)))
          CFI (cfiCond332) V2 load(1, XDATA, add(CFA_XSP16, literal(-8)))
          CFI (cfiCond332) V3 load(1, XDATA, add(CFA_XSP16, literal(-7)))
          CFI (cfiCond332) R7 load(1, XDATA, add(CFA_XSP16, literal(-6)))
          CFI (cfiCond332) ?RET_LOW load(1, XDATA, add(CFA_XSP16, literal(-5)))
          CFI (cfiCond332) ?RET_HIGH load(1, XDATA, add(CFA_XSP16, literal(-4)))
          CFI (cfiCond332) ?BRET_EXT load(1, XDATA, add(CFA_XSP16, literal(-3)))
          CFI (cfiCond332) DPL0 load(1, XDATA, add(CFA_XSP16, literal(-2)))
          CFI (cfiCond332) DPH0 load(1, XDATA, add(CFA_XSP16, literal(-1)))
          CFI (cfiCond332) CFA_SP SP+-2
          CFI (cfiCond332) CFA_XSP16 add(XSP16, 17)
          CFI Block cfiPicker333 Using cfiCommon1
          CFI (cfiPicker333) NoFunction
          CFI (cfiPicker333) Picker
        MOVX      A,@DPTR
        MOV       R1,A
        LCALL     `??osal_get_timeoutEx::?relay`; Banked call to: osal_get_timeoutEx
        MOV       A,R2
        ORL       A,R3
        ORL       A,R4
        ORL       A,R5
        RET
          CFI EndBlock cfiCond325
          CFI EndBlock cfiCond326
          CFI EndBlock cfiCond327
          CFI EndBlock cfiCond328
          CFI EndBlock cfiCond329
          CFI EndBlock cfiCond330
          CFI EndBlock cfiCond331
          CFI EndBlock cfiCond332
          CFI EndBlock cfiPicker333
// 1742 
// 1743 /*********************************************************************
// 1744  * @fn      initiatorNwkJoinRtrRspCB
// 1745  *
// 1746  * @brief   This callback is called to process a Network Join Router
// 1747  *          Response command.
// 1748  *
// 1749  * @param   srcAddr - sender's address
// 1750  * @param   pRsp - parsed command
// 1751  *
// 1752  * @return  ZStatus_t
// 1753  */

        RSEG BANKED_CODE:HUGECODE:NOROOT(0)
// 1754 static ZStatus_t initiatorNwkJoinRtrRspCB( afAddrType_t *srcAddr, bdbTLNwkJoinRsp_t *pRsp )
initiatorNwkJoinRtrRspCB:
          CFI Block cfiBlock334 Using cfiCommon0
          CFI Function initiatorNwkJoinRtrRspCB
        CODE
// 1755 {
        FUNCALL initiatorNwkJoinRtrRspCB, touchLink_IsValidTransID
        LOCFRAME ISTACK, 0, STACK
        LOCFRAME PSTACK, 0, STACK
        LOCFRAME XSTACK, 11, STACK
        LOCFRAME IOVERLAY, 0, STATIC
        LOCFRAME DOVERLAY, 0, STATIC
        ARGFRAME ISTACK, 0, STACK
        ARGFRAME PSTACK, 0, STACK
        ARGFRAME XSTACK, 11, STACK
        ARGFRAME IOVERLAY, 0, STATIC
        ARGFRAME DOVERLAY, 0, STATIC
        FUNCALL initiatorNwkJoinRtrRspCB, osal_memcmp
        LOCFRAME ISTACK, 0, STACK
        LOCFRAME PSTACK, 0, STACK
        LOCFRAME XSTACK, 14, STACK
        LOCFRAME IOVERLAY, 0, STATIC
        LOCFRAME DOVERLAY, 0, STATIC
        ARGFRAME ISTACK, 0, STACK
        ARGFRAME PSTACK, 0, STACK
        ARGFRAME XSTACK, 14, STACK
        ARGFRAME IOVERLAY, 0, STATIC
        ARGFRAME DOVERLAY, 0, STATIC
        FUNCALL initiatorNwkJoinRtrRspCB, osal_get_timeoutEx
        LOCFRAME ISTACK, 0, STACK
        LOCFRAME PSTACK, 0, STACK
        LOCFRAME XSTACK, 11, STACK
        LOCFRAME IOVERLAY, 0, STATIC
        LOCFRAME DOVERLAY, 0, STATIC
        ARGFRAME ISTACK, 0, STACK
        ARGFRAME PSTACK, 0, STACK
        ARGFRAME XSTACK, 11, STACK
        ARGFRAME IOVERLAY, 0, STATIC
        ARGFRAME DOVERLAY, 0, STATIC
        FUNCALL initiatorNwkJoinRtrRspCB, osal_set_event
        LOCFRAME ISTACK, 0, STACK
        LOCFRAME PSTACK, 0, STACK
        LOCFRAME XSTACK, 11, STACK
        LOCFRAME IOVERLAY, 0, STATIC
        LOCFRAME DOVERLAY, 0, STATIC
        ARGFRAME ISTACK, 0, STACK
        ARGFRAME PSTACK, 0, STACK
        ARGFRAME XSTACK, 11, STACK
        ARGFRAME IOVERLAY, 0, STATIC
        ARGFRAME DOVERLAY, 0, STATIC
        REQUIRE ?V0
        REQUIRE ?V1
        REQUIRE ?V2
        MOV       A,#-0xb
        LCALL     ?BANKED_ENTER_XDATA
          CFI DPH0 load(1, XDATA, add(CFA_XSP16, literal(-1)))
          CFI DPL0 load(1, XDATA, add(CFA_XSP16, literal(-2)))
          CFI ?BRET_EXT load(1, XDATA, add(CFA_XSP16, literal(-3)))
          CFI ?RET_HIGH load(1, XDATA, add(CFA_XSP16, literal(-4)))
          CFI ?RET_LOW load(1, XDATA, add(CFA_XSP16, literal(-5)))
          CFI R7 load(1, XDATA, add(CFA_XSP16, literal(-6)))
          CFI V2 load(1, XDATA, add(CFA_XSP16, literal(-7)))
          CFI V1 load(1, XDATA, add(CFA_XSP16, literal(-8)))
          CFI V0 load(1, XDATA, add(CFA_XSP16, literal(-9)))
          CFI VB load(1, XDATA, add(CFA_XSP16, literal(-10)))
          CFI R6 load(1, XDATA, add(CFA_XSP16, literal(-11)))
          CFI CFA_SP SP+0
          CFI CFA_XSP16 add(XSP16, 11)
        ; Saved register size: 11
        ; Auto size: 0
        MOV       ?V0,R2
        MOV       ?V1,R3
        MOV       A,R4
        MOV       R6,A
        MOV       A,R5
        MOV       R7,A
// 1756   if ( ( touchLink_IsValidTransID( pRsp->transID ) == FALSE ) || 
// 1757      ( ( srcAddr->addrMode != afAddr64Bit ) || ( !osal_memcmp( selectedTarget.srcAddr.addr.extAddr, srcAddr->addr.extAddr, Z_EXTADDR_LEN ) ) ) )
        ; Setup parameters for call to function touchLink_IsValidTransID
        MOV       DPL,R4
        MOV       DPH,A
        LCALL     ?XLOAD_R2345
        LCALL     ?Subroutine34 & 0xFFFF
??CrossCallReturnLabel_44:
        JZ        ??initiatorNwkJoinRtrRspCB_0
        MOV       DPL,?V0
        MOV       DPH,?V1
        INC       DPTR
        INC       DPTR
        INC       DPTR
        INC       DPTR
        INC       DPTR
        INC       DPTR
        INC       DPTR
        INC       DPTR
        MOVX      A,@DPTR
        XRL       A,#0x3
        JNZ       ??initiatorNwkJoinRtrRspCB_0
        ; Setup parameters for call to function osal_memcmp
        MOV       ?V2,#0x0
        MOV       R0,#?V0
        LCALL     ?PUSH_XSTACK_I_THREE
          CFI CFA_XSP16 add(XSP16, 14)
        MOV       R4,#0x8
        MOV       R5,#0x0
        MOV       R1,#(selectedTarget + 38) & 0xff
        MOV       R2,#((selectedTarget + 38) >> 8) & 0xff
        MOV       R3,#0x0
        LCALL     `??osal_memcmp::?relay`; Banked call to: osal_memcmp
        MOV       A,#0x3
        LCALL     ?DEALLOC_XSTACK8
          CFI CFA_XSP16 add(XSP16, 11)
        MOV       A,R1
        JNZ       ??initiatorNwkJoinRtrRspCB_1
// 1758   {
// 1759     return ( ZFailure );
??initiatorNwkJoinRtrRspCB_0:
        MOV       R1,#0x1
        SJMP      ??initiatorNwkJoinRtrRspCB_2
// 1760   }
// 1761   
// 1762   // Make sure we didn't timeout waiting for this response
// 1763   if ( osal_get_timeoutEx( touchLinkInitiator_TaskID, TOUCHLINK_W4_NWK_JOIN_RSP_EVT ) )
??initiatorNwkJoinRtrRspCB_1:
        ; Setup parameters for call to function osal_get_timeoutEx
        MOV       R2,#0x0
        MOV       R3,#0x1
        LCALL     ??Subroutine66_0 & 0xFFFF
??CrossCallReturnLabel_165:
        JZ        ??CrossCallReturnLabel_176
// 1764   {
// 1765     // Save the Network Start Response for later
// 1766     rxRsp.nwkJoinRsp = *pRsp;
        MOV       DPL,R6
        MOV       DPH,R7
        MOV       R4,#rxRsp & 0xff
        MOV       R5,#(rxRsp >> 8) & 0xff
        MOV       A,#0x5
        LCALL     ?MOVE_LONG8_XDATA_XDATA
// 1767 
// 1768     // No need to wait longer
// 1769     osal_set_event( touchLinkInitiator_TaskID, TOUCHLINK_W4_NWK_JOIN_RSP_EVT );
        ; Setup parameters for call to function osal_set_event
        MOV       R2,A
        MOV       R3,#0x1
        LCALL     ??Subroutine68_0 & 0xFFFF
// 1770   }
// 1771 
// 1772   return ( ZSuccess );
??CrossCallReturnLabel_176:
        MOV       R1,#0x0
??initiatorNwkJoinRtrRspCB_2:
        LJMP      ?Subroutine4 & 0xFFFF
// 1773 }
          CFI EndBlock cfiBlock334

        RSEG BANKED_CODE:HUGECODE:NOROOT(0)
?Subroutine10:
          CFI Block cfiCond335 Using cfiCommon0
          CFI Function touchLinkInitiator_event_loop
          CFI Conditional ??CrossCallReturnLabel_169
          CFI R6 load(1, XDATA, add(CFA_XSP16, literal(-16)))
          CFI VB load(1, XDATA, add(CFA_XSP16, literal(-15)))
          CFI V0 load(1, XDATA, add(CFA_XSP16, literal(-14)))
          CFI V1 load(1, XDATA, add(CFA_XSP16, literal(-13)))
          CFI V2 load(1, XDATA, add(CFA_XSP16, literal(-12)))
          CFI V3 load(1, XDATA, add(CFA_XSP16, literal(-11)))
          CFI V4 load(1, XDATA, add(CFA_XSP16, literal(-10)))
          CFI V5 load(1, XDATA, add(CFA_XSP16, literal(-9)))
          CFI V6 load(1, XDATA, add(CFA_XSP16, literal(-8)))
          CFI V7 load(1, XDATA, add(CFA_XSP16, literal(-7)))
          CFI R7 load(1, XDATA, add(CFA_XSP16, literal(-6)))
          CFI ?RET_LOW load(1, XDATA, add(CFA_XSP16, literal(-5)))
          CFI ?RET_HIGH load(1, XDATA, add(CFA_XSP16, literal(-4)))
          CFI ?BRET_EXT load(1, XDATA, add(CFA_XSP16, literal(-3)))
          CFI DPL0 load(1, XDATA, add(CFA_XSP16, literal(-2)))
          CFI DPH0 load(1, XDATA, add(CFA_XSP16, literal(-1)))
          CFI CFA_SP SP+-2
          CFI CFA_XSP16 add(XSP16, 75)
          CFI Block cfiCond336 Using cfiCommon0
          CFI (cfiCond336) Function touchLinkInitiator_event_loop
          CFI (cfiCond336) Conditional ??CrossCallReturnLabel_170
          CFI (cfiCond336) R6 load(1, XDATA, add(CFA_XSP16, literal(-16)))
          CFI (cfiCond336) VB load(1, XDATA, add(CFA_XSP16, literal(-15)))
          CFI (cfiCond336) V0 load(1, XDATA, add(CFA_XSP16, literal(-14)))
          CFI (cfiCond336) V1 load(1, XDATA, add(CFA_XSP16, literal(-13)))
          CFI (cfiCond336) V2 load(1, XDATA, add(CFA_XSP16, literal(-12)))
          CFI (cfiCond336) V3 load(1, XDATA, add(CFA_XSP16, literal(-11)))
          CFI (cfiCond336) V4 load(1, XDATA, add(CFA_XSP16, literal(-10)))
          CFI (cfiCond336) V5 load(1, XDATA, add(CFA_XSP16, literal(-9)))
          CFI (cfiCond336) V6 load(1, XDATA, add(CFA_XSP16, literal(-8)))
          CFI (cfiCond336) V7 load(1, XDATA, add(CFA_XSP16, literal(-7)))
          CFI (cfiCond336) R7 load(1, XDATA, add(CFA_XSP16, literal(-6)))
          CFI (cfiCond336) ?RET_LOW load(1, XDATA, add(CFA_XSP16, literal(-5)))
          CFI (cfiCond336) ?RET_HIGH load(1, XDATA, add(CFA_XSP16, literal(-4)))
          CFI (cfiCond336) ?BRET_EXT load(1, XDATA, add(CFA_XSP16, literal(-3)))
          CFI (cfiCond336) DPL0 load(1, XDATA, add(CFA_XSP16, literal(-2)))
          CFI (cfiCond336) DPH0 load(1, XDATA, add(CFA_XSP16, literal(-1)))
          CFI (cfiCond336) CFA_SP SP+-2
          CFI (cfiCond336) CFA_XSP16 add(XSP16, 75)
          CFI Block cfiPicker337 Using cfiCommon1
          CFI (cfiPicker337) NoFunction
          CFI (cfiPicker337) Picker
        MOV       R2,#0x0
        MOV       R3,#0x2
          CFI EndBlock cfiCond335
          CFI EndBlock cfiCond336
          CFI EndBlock cfiPicker337
        REQUIRE ??Subroutine68_0
        ; // Fall through to label ??Subroutine68_0

        RSEG BANKED_CODE:HUGECODE:NOROOT(0)
??Subroutine68_0:
          CFI Block cfiCond338 Using cfiCommon0
          CFI Function touchLinkInitiator_event_loop
          CFI Conditional ??CrossCallReturnLabel_171
          CFI R6 load(1, XDATA, add(CFA_XSP16, literal(-16)))
          CFI VB load(1, XDATA, add(CFA_XSP16, literal(-15)))
          CFI V0 load(1, XDATA, add(CFA_XSP16, literal(-14)))
          CFI V1 load(1, XDATA, add(CFA_XSP16, literal(-13)))
          CFI V2 load(1, XDATA, add(CFA_XSP16, literal(-12)))
          CFI V3 load(1, XDATA, add(CFA_XSP16, literal(-11)))
          CFI V4 load(1, XDATA, add(CFA_XSP16, literal(-10)))
          CFI V5 load(1, XDATA, add(CFA_XSP16, literal(-9)))
          CFI V6 load(1, XDATA, add(CFA_XSP16, literal(-8)))
          CFI V7 load(1, XDATA, add(CFA_XSP16, literal(-7)))
          CFI R7 load(1, XDATA, add(CFA_XSP16, literal(-6)))
          CFI ?RET_LOW load(1, XDATA, add(CFA_XSP16, literal(-5)))
          CFI ?RET_HIGH load(1, XDATA, add(CFA_XSP16, literal(-4)))
          CFI ?BRET_EXT load(1, XDATA, add(CFA_XSP16, literal(-3)))
          CFI DPL0 load(1, XDATA, add(CFA_XSP16, literal(-2)))
          CFI DPH0 load(1, XDATA, add(CFA_XSP16, literal(-1)))
          CFI CFA_SP SP+-2
          CFI CFA_XSP16 add(XSP16, 75)
          CFI Block cfiCond339 Using cfiCommon0
          CFI (cfiCond339) Function touchLinkInitiator_event_loop
          CFI (cfiCond339) Conditional ??CrossCallReturnLabel_172
          CFI (cfiCond339) R6 load(1, XDATA, add(CFA_XSP16, literal(-16)))
          CFI (cfiCond339) VB load(1, XDATA, add(CFA_XSP16, literal(-15)))
          CFI (cfiCond339) V0 load(1, XDATA, add(CFA_XSP16, literal(-14)))
          CFI (cfiCond339) V1 load(1, XDATA, add(CFA_XSP16, literal(-13)))
          CFI (cfiCond339) V2 load(1, XDATA, add(CFA_XSP16, literal(-12)))
          CFI (cfiCond339) V3 load(1, XDATA, add(CFA_XSP16, literal(-11)))
          CFI (cfiCond339) V4 load(1, XDATA, add(CFA_XSP16, literal(-10)))
          CFI (cfiCond339) V5 load(1, XDATA, add(CFA_XSP16, literal(-9)))
          CFI (cfiCond339) V6 load(1, XDATA, add(CFA_XSP16, literal(-8)))
          CFI (cfiCond339) V7 load(1, XDATA, add(CFA_XSP16, literal(-7)))
          CFI (cfiCond339) R7 load(1, XDATA, add(CFA_XSP16, literal(-6)))
          CFI (cfiCond339) ?RET_LOW load(1, XDATA, add(CFA_XSP16, literal(-5)))
          CFI (cfiCond339) ?RET_HIGH load(1, XDATA, add(CFA_XSP16, literal(-4)))
          CFI (cfiCond339) ?BRET_EXT load(1, XDATA, add(CFA_XSP16, literal(-3)))
          CFI (cfiCond339) DPL0 load(1, XDATA, add(CFA_XSP16, literal(-2)))
          CFI (cfiCond339) DPH0 load(1, XDATA, add(CFA_XSP16, literal(-1)))
          CFI (cfiCond339) CFA_SP SP+-2
          CFI (cfiCond339) CFA_XSP16 add(XSP16, 75)
          CFI Block cfiCond340 Using cfiCommon0
          CFI (cfiCond340) Function touchLinkInitiator_event_loop
          CFI (cfiCond340) Conditional ??CrossCallReturnLabel_173
          CFI (cfiCond340) R6 load(1, XDATA, add(CFA_XSP16, literal(-16)))
          CFI (cfiCond340) VB load(1, XDATA, add(CFA_XSP16, literal(-15)))
          CFI (cfiCond340) V0 load(1, XDATA, add(CFA_XSP16, literal(-14)))
          CFI (cfiCond340) V1 load(1, XDATA, add(CFA_XSP16, literal(-13)))
          CFI (cfiCond340) V2 load(1, XDATA, add(CFA_XSP16, literal(-12)))
          CFI (cfiCond340) V3 load(1, XDATA, add(CFA_XSP16, literal(-11)))
          CFI (cfiCond340) V4 load(1, XDATA, add(CFA_XSP16, literal(-10)))
          CFI (cfiCond340) V5 load(1, XDATA, add(CFA_XSP16, literal(-9)))
          CFI (cfiCond340) V6 load(1, XDATA, add(CFA_XSP16, literal(-8)))
          CFI (cfiCond340) V7 load(1, XDATA, add(CFA_XSP16, literal(-7)))
          CFI (cfiCond340) R7 load(1, XDATA, add(CFA_XSP16, literal(-6)))
          CFI (cfiCond340) ?RET_LOW load(1, XDATA, add(CFA_XSP16, literal(-5)))
          CFI (cfiCond340) ?RET_HIGH load(1, XDATA, add(CFA_XSP16, literal(-4)))
          CFI (cfiCond340) ?BRET_EXT load(1, XDATA, add(CFA_XSP16, literal(-3)))
          CFI (cfiCond340) DPL0 load(1, XDATA, add(CFA_XSP16, literal(-2)))
          CFI (cfiCond340) DPH0 load(1, XDATA, add(CFA_XSP16, literal(-1)))
          CFI (cfiCond340) CFA_SP SP+-2
          CFI (cfiCond340) CFA_XSP16 add(XSP16, 75)
          CFI Block cfiCond341 Using cfiCommon0
          CFI (cfiCond341) Function touchLinkInitiator_event_loop
          CFI (cfiCond341) Conditional ??CrossCallReturnLabel_174
          CFI (cfiCond341) R6 load(1, XDATA, add(CFA_XSP16, literal(-16)))
          CFI (cfiCond341) VB load(1, XDATA, add(CFA_XSP16, literal(-15)))
          CFI (cfiCond341) V0 load(1, XDATA, add(CFA_XSP16, literal(-14)))
          CFI (cfiCond341) V1 load(1, XDATA, add(CFA_XSP16, literal(-13)))
          CFI (cfiCond341) V2 load(1, XDATA, add(CFA_XSP16, literal(-12)))
          CFI (cfiCond341) V3 load(1, XDATA, add(CFA_XSP16, literal(-11)))
          CFI (cfiCond341) V4 load(1, XDATA, add(CFA_XSP16, literal(-10)))
          CFI (cfiCond341) V5 load(1, XDATA, add(CFA_XSP16, literal(-9)))
          CFI (cfiCond341) V6 load(1, XDATA, add(CFA_XSP16, literal(-8)))
          CFI (cfiCond341) V7 load(1, XDATA, add(CFA_XSP16, literal(-7)))
          CFI (cfiCond341) R7 load(1, XDATA, add(CFA_XSP16, literal(-6)))
          CFI (cfiCond341) ?RET_LOW load(1, XDATA, add(CFA_XSP16, literal(-5)))
          CFI (cfiCond341) ?RET_HIGH load(1, XDATA, add(CFA_XSP16, literal(-4)))
          CFI (cfiCond341) ?BRET_EXT load(1, XDATA, add(CFA_XSP16, literal(-3)))
          CFI (cfiCond341) DPL0 load(1, XDATA, add(CFA_XSP16, literal(-2)))
          CFI (cfiCond341) DPH0 load(1, XDATA, add(CFA_XSP16, literal(-1)))
          CFI (cfiCond341) CFA_SP SP+-2
          CFI (cfiCond341) CFA_XSP16 add(XSP16, 75)
          CFI Block cfiCond342 Using cfiCommon0
          CFI (cfiCond342) Function initiatorNwkStartRspCB
          CFI (cfiCond342) Conditional ??CrossCallReturnLabel_175
          CFI (cfiCond342) R6 load(1, XDATA, add(CFA_XSP16, literal(-9)))
          CFI (cfiCond342) VB load(1, XDATA, add(CFA_XSP16, literal(-8)))
          CFI (cfiCond342) V0 load(1, XDATA, add(CFA_XSP16, literal(-7)))
          CFI (cfiCond342) R7 load(1, XDATA, add(CFA_XSP16, literal(-6)))
          CFI (cfiCond342) ?RET_LOW load(1, XDATA, add(CFA_XSP16, literal(-5)))
          CFI (cfiCond342) ?RET_HIGH load(1, XDATA, add(CFA_XSP16, literal(-4)))
          CFI (cfiCond342) ?BRET_EXT load(1, XDATA, add(CFA_XSP16, literal(-3)))
          CFI (cfiCond342) DPL0 load(1, XDATA, add(CFA_XSP16, literal(-2)))
          CFI (cfiCond342) DPH0 load(1, XDATA, add(CFA_XSP16, literal(-1)))
          CFI (cfiCond342) CFA_SP SP+-2
          CFI (cfiCond342) CFA_XSP16 add(XSP16, 9)
          CFI Block cfiCond343 Using cfiCommon0
          CFI (cfiCond343) Function initiatorNwkJoinRtrRspCB
          CFI (cfiCond343) Conditional ??CrossCallReturnLabel_176
          CFI (cfiCond343) R6 load(1, XDATA, add(CFA_XSP16, literal(-11)))
          CFI (cfiCond343) VB load(1, XDATA, add(CFA_XSP16, literal(-10)))
          CFI (cfiCond343) V0 load(1, XDATA, add(CFA_XSP16, literal(-9)))
          CFI (cfiCond343) V1 load(1, XDATA, add(CFA_XSP16, literal(-8)))
          CFI (cfiCond343) V2 load(1, XDATA, add(CFA_XSP16, literal(-7)))
          CFI (cfiCond343) R7 load(1, XDATA, add(CFA_XSP16, literal(-6)))
          CFI (cfiCond343) ?RET_LOW load(1, XDATA, add(CFA_XSP16, literal(-5)))
          CFI (cfiCond343) ?RET_HIGH load(1, XDATA, add(CFA_XSP16, literal(-4)))
          CFI (cfiCond343) ?BRET_EXT load(1, XDATA, add(CFA_XSP16, literal(-3)))
          CFI (cfiCond343) DPL0 load(1, XDATA, add(CFA_XSP16, literal(-2)))
          CFI (cfiCond343) DPH0 load(1, XDATA, add(CFA_XSP16, literal(-1)))
          CFI (cfiCond343) CFA_SP SP+-2
          CFI (cfiCond343) CFA_XSP16 add(XSP16, 11)
          CFI Block cfiCond344 Using cfiCommon0
          CFI (cfiCond344) Function initiatorNwkJoinEDRspCB
          CFI (cfiCond344) Conditional ??CrossCallReturnLabel_177
          CFI (cfiCond344) R6 load(1, XDATA, add(CFA_XSP16, literal(-11)))
          CFI (cfiCond344) VB load(1, XDATA, add(CFA_XSP16, literal(-10)))
          CFI (cfiCond344) V0 load(1, XDATA, add(CFA_XSP16, literal(-9)))
          CFI (cfiCond344) V1 load(1, XDATA, add(CFA_XSP16, literal(-8)))
          CFI (cfiCond344) V2 load(1, XDATA, add(CFA_XSP16, literal(-7)))
          CFI (cfiCond344) R7 load(1, XDATA, add(CFA_XSP16, literal(-6)))
          CFI (cfiCond344) ?RET_LOW load(1, XDATA, add(CFA_XSP16, literal(-5)))
          CFI (cfiCond344) ?RET_HIGH load(1, XDATA, add(CFA_XSP16, literal(-4)))
          CFI (cfiCond344) ?BRET_EXT load(1, XDATA, add(CFA_XSP16, literal(-3)))
          CFI (cfiCond344) DPL0 load(1, XDATA, add(CFA_XSP16, literal(-2)))
          CFI (cfiCond344) DPH0 load(1, XDATA, add(CFA_XSP16, literal(-1)))
          CFI (cfiCond344) CFA_SP SP+-2
          CFI (cfiCond344) CFA_XSP16 add(XSP16, 11)
          CFI Block cfiCond345 Using cfiCommon0
          CFI (cfiCond345) Function initiatorZdoLeaveCnfCB
          CFI (cfiCond345) Conditional ??CrossCallReturnLabel_178
          CFI (cfiCond345) DPL0 Frame(CFA_SP, 4)
          CFI (cfiCond345) DPH0 Frame(CFA_SP, 5)
          CFI (cfiCond345) CFA_SP SP+-7
          CFI Block cfiCond346 Using cfiCommon0
          CFI (cfiCond346) Function touchLinkInitiator_event_loop
          CFI (cfiCond346) Conditional ??CrossCallReturnLabel_169
          CFI (cfiCond346) R6 load(1, XDATA, add(CFA_XSP16, literal(-16)))
          CFI (cfiCond346) VB load(1, XDATA, add(CFA_XSP16, literal(-15)))
          CFI (cfiCond346) V0 load(1, XDATA, add(CFA_XSP16, literal(-14)))
          CFI (cfiCond346) V1 load(1, XDATA, add(CFA_XSP16, literal(-13)))
          CFI (cfiCond346) V2 load(1, XDATA, add(CFA_XSP16, literal(-12)))
          CFI (cfiCond346) V3 load(1, XDATA, add(CFA_XSP16, literal(-11)))
          CFI (cfiCond346) V4 load(1, XDATA, add(CFA_XSP16, literal(-10)))
          CFI (cfiCond346) V5 load(1, XDATA, add(CFA_XSP16, literal(-9)))
          CFI (cfiCond346) V6 load(1, XDATA, add(CFA_XSP16, literal(-8)))
          CFI (cfiCond346) V7 load(1, XDATA, add(CFA_XSP16, literal(-7)))
          CFI (cfiCond346) R7 load(1, XDATA, add(CFA_XSP16, literal(-6)))
          CFI (cfiCond346) ?RET_LOW load(1, XDATA, add(CFA_XSP16, literal(-5)))
          CFI (cfiCond346) ?RET_HIGH load(1, XDATA, add(CFA_XSP16, literal(-4)))
          CFI (cfiCond346) ?BRET_EXT load(1, XDATA, add(CFA_XSP16, literal(-3)))
          CFI (cfiCond346) DPL0 load(1, XDATA, add(CFA_XSP16, literal(-2)))
          CFI (cfiCond346) DPH0 load(1, XDATA, add(CFA_XSP16, literal(-1)))
          CFI (cfiCond346) CFA_SP SP+-2
          CFI (cfiCond346) CFA_XSP16 add(XSP16, 75)
          CFI Block cfiCond347 Using cfiCommon0
          CFI (cfiCond347) Function touchLinkInitiator_event_loop
          CFI (cfiCond347) Conditional ??CrossCallReturnLabel_170
          CFI (cfiCond347) R6 load(1, XDATA, add(CFA_XSP16, literal(-16)))
          CFI (cfiCond347) VB load(1, XDATA, add(CFA_XSP16, literal(-15)))
          CFI (cfiCond347) V0 load(1, XDATA, add(CFA_XSP16, literal(-14)))
          CFI (cfiCond347) V1 load(1, XDATA, add(CFA_XSP16, literal(-13)))
          CFI (cfiCond347) V2 load(1, XDATA, add(CFA_XSP16, literal(-12)))
          CFI (cfiCond347) V3 load(1, XDATA, add(CFA_XSP16, literal(-11)))
          CFI (cfiCond347) V4 load(1, XDATA, add(CFA_XSP16, literal(-10)))
          CFI (cfiCond347) V5 load(1, XDATA, add(CFA_XSP16, literal(-9)))
          CFI (cfiCond347) V6 load(1, XDATA, add(CFA_XSP16, literal(-8)))
          CFI (cfiCond347) V7 load(1, XDATA, add(CFA_XSP16, literal(-7)))
          CFI (cfiCond347) R7 load(1, XDATA, add(CFA_XSP16, literal(-6)))
          CFI (cfiCond347) ?RET_LOW load(1, XDATA, add(CFA_XSP16, literal(-5)))
          CFI (cfiCond347) ?RET_HIGH load(1, XDATA, add(CFA_XSP16, literal(-4)))
          CFI (cfiCond347) ?BRET_EXT load(1, XDATA, add(CFA_XSP16, literal(-3)))
          CFI (cfiCond347) DPL0 load(1, XDATA, add(CFA_XSP16, literal(-2)))
          CFI (cfiCond347) DPH0 load(1, XDATA, add(CFA_XSP16, literal(-1)))
          CFI (cfiCond347) CFA_SP SP+-2
          CFI (cfiCond347) CFA_XSP16 add(XSP16, 75)
          CFI Block cfiPicker348 Using cfiCommon1
          CFI (cfiPicker348) NoFunction
          CFI (cfiPicker348) Picker
        MOV       DPTR,#touchLinkInitiator_TaskID
          CFI EndBlock cfiCond338
          CFI EndBlock cfiCond339
          CFI EndBlock cfiCond340
          CFI EndBlock cfiCond341
          CFI EndBlock cfiCond342
          CFI EndBlock cfiCond343
          CFI EndBlock cfiCond344
          CFI EndBlock cfiCond345
          CFI EndBlock cfiCond346
          CFI EndBlock cfiCond347
          CFI EndBlock cfiPicker348
        REQUIRE ??Subroutine69_0
        ; // Fall through to label ??Subroutine69_0

        RSEG BANKED_CODE:HUGECODE:NOROOT(0)
??Subroutine69_0:
          CFI Block cfiCond349 Using cfiCommon0
          CFI Function initiatorReJoinNwk
          CFI Conditional ??CrossCallReturnLabel_179
          CFI R6 load(1, XDATA, add(CFA_XSP16, literal(-9)))
          CFI VB load(1, XDATA, add(CFA_XSP16, literal(-8)))
          CFI V0 load(1, XDATA, add(CFA_XSP16, literal(-7)))
          CFI R7 load(1, XDATA, add(CFA_XSP16, literal(-6)))
          CFI ?RET_LOW load(1, XDATA, add(CFA_XSP16, literal(-5)))
          CFI ?RET_HIGH load(1, XDATA, add(CFA_XSP16, literal(-4)))
          CFI ?BRET_EXT load(1, XDATA, add(CFA_XSP16, literal(-3)))
          CFI DPL0 load(1, XDATA, add(CFA_XSP16, literal(-2)))
          CFI DPH0 load(1, XDATA, add(CFA_XSP16, literal(-1)))
          CFI CFA_SP SP+-2
          CFI CFA_XSP16 add(XSP16, 9)
          CFI Block cfiCond350 Using cfiCommon0
          CFI (cfiCond350) Function touchLinkInitiator_event_loop
          CFI (cfiCond350) Conditional ??CrossCallReturnLabel_171
          CFI (cfiCond350) R6 load(1, XDATA, add(CFA_XSP16, literal(-16)))
          CFI (cfiCond350) VB load(1, XDATA, add(CFA_XSP16, literal(-15)))
          CFI (cfiCond350) V0 load(1, XDATA, add(CFA_XSP16, literal(-14)))
          CFI (cfiCond350) V1 load(1, XDATA, add(CFA_XSP16, literal(-13)))
          CFI (cfiCond350) V2 load(1, XDATA, add(CFA_XSP16, literal(-12)))
          CFI (cfiCond350) V3 load(1, XDATA, add(CFA_XSP16, literal(-11)))
          CFI (cfiCond350) V4 load(1, XDATA, add(CFA_XSP16, literal(-10)))
          CFI (cfiCond350) V5 load(1, XDATA, add(CFA_XSP16, literal(-9)))
          CFI (cfiCond350) V6 load(1, XDATA, add(CFA_XSP16, literal(-8)))
          CFI (cfiCond350) V7 load(1, XDATA, add(CFA_XSP16, literal(-7)))
          CFI (cfiCond350) R7 load(1, XDATA, add(CFA_XSP16, literal(-6)))
          CFI (cfiCond350) ?RET_LOW load(1, XDATA, add(CFA_XSP16, literal(-5)))
          CFI (cfiCond350) ?RET_HIGH load(1, XDATA, add(CFA_XSP16, literal(-4)))
          CFI (cfiCond350) ?BRET_EXT load(1, XDATA, add(CFA_XSP16, literal(-3)))
          CFI (cfiCond350) DPL0 load(1, XDATA, add(CFA_XSP16, literal(-2)))
          CFI (cfiCond350) DPH0 load(1, XDATA, add(CFA_XSP16, literal(-1)))
          CFI (cfiCond350) CFA_SP SP+-2
          CFI (cfiCond350) CFA_XSP16 add(XSP16, 75)
          CFI Block cfiCond351 Using cfiCommon0
          CFI (cfiCond351) Function touchLinkInitiator_event_loop
          CFI (cfiCond351) Conditional ??CrossCallReturnLabel_172
          CFI (cfiCond351) R6 load(1, XDATA, add(CFA_XSP16, literal(-16)))
          CFI (cfiCond351) VB load(1, XDATA, add(CFA_XSP16, literal(-15)))
          CFI (cfiCond351) V0 load(1, XDATA, add(CFA_XSP16, literal(-14)))
          CFI (cfiCond351) V1 load(1, XDATA, add(CFA_XSP16, literal(-13)))
          CFI (cfiCond351) V2 load(1, XDATA, add(CFA_XSP16, literal(-12)))
          CFI (cfiCond351) V3 load(1, XDATA, add(CFA_XSP16, literal(-11)))
          CFI (cfiCond351) V4 load(1, XDATA, add(CFA_XSP16, literal(-10)))
          CFI (cfiCond351) V5 load(1, XDATA, add(CFA_XSP16, literal(-9)))
          CFI (cfiCond351) V6 load(1, XDATA, add(CFA_XSP16, literal(-8)))
          CFI (cfiCond351) V7 load(1, XDATA, add(CFA_XSP16, literal(-7)))
          CFI (cfiCond351) R7 load(1, XDATA, add(CFA_XSP16, literal(-6)))
          CFI (cfiCond351) ?RET_LOW load(1, XDATA, add(CFA_XSP16, literal(-5)))
          CFI (cfiCond351) ?RET_HIGH load(1, XDATA, add(CFA_XSP16, literal(-4)))
          CFI (cfiCond351) ?BRET_EXT load(1, XDATA, add(CFA_XSP16, literal(-3)))
          CFI (cfiCond351) DPL0 load(1, XDATA, add(CFA_XSP16, literal(-2)))
          CFI (cfiCond351) DPH0 load(1, XDATA, add(CFA_XSP16, literal(-1)))
          CFI (cfiCond351) CFA_SP SP+-2
          CFI (cfiCond351) CFA_XSP16 add(XSP16, 75)
          CFI Block cfiCond352 Using cfiCommon0
          CFI (cfiCond352) Function touchLinkInitiator_event_loop
          CFI (cfiCond352) Conditional ??CrossCallReturnLabel_173
          CFI (cfiCond352) R6 load(1, XDATA, add(CFA_XSP16, literal(-16)))
          CFI (cfiCond352) VB load(1, XDATA, add(CFA_XSP16, literal(-15)))
          CFI (cfiCond352) V0 load(1, XDATA, add(CFA_XSP16, literal(-14)))
          CFI (cfiCond352) V1 load(1, XDATA, add(CFA_XSP16, literal(-13)))
          CFI (cfiCond352) V2 load(1, XDATA, add(CFA_XSP16, literal(-12)))
          CFI (cfiCond352) V3 load(1, XDATA, add(CFA_XSP16, literal(-11)))
          CFI (cfiCond352) V4 load(1, XDATA, add(CFA_XSP16, literal(-10)))
          CFI (cfiCond352) V5 load(1, XDATA, add(CFA_XSP16, literal(-9)))
          CFI (cfiCond352) V6 load(1, XDATA, add(CFA_XSP16, literal(-8)))
          CFI (cfiCond352) V7 load(1, XDATA, add(CFA_XSP16, literal(-7)))
          CFI (cfiCond352) R7 load(1, XDATA, add(CFA_XSP16, literal(-6)))
          CFI (cfiCond352) ?RET_LOW load(1, XDATA, add(CFA_XSP16, literal(-5)))
          CFI (cfiCond352) ?RET_HIGH load(1, XDATA, add(CFA_XSP16, literal(-4)))
          CFI (cfiCond352) ?BRET_EXT load(1, XDATA, add(CFA_XSP16, literal(-3)))
          CFI (cfiCond352) DPL0 load(1, XDATA, add(CFA_XSP16, literal(-2)))
          CFI (cfiCond352) DPH0 load(1, XDATA, add(CFA_XSP16, literal(-1)))
          CFI (cfiCond352) CFA_SP SP+-2
          CFI (cfiCond352) CFA_XSP16 add(XSP16, 75)
          CFI Block cfiCond353 Using cfiCommon0
          CFI (cfiCond353) Function touchLinkInitiator_event_loop
          CFI (cfiCond353) Conditional ??CrossCallReturnLabel_174
          CFI (cfiCond353) R6 load(1, XDATA, add(CFA_XSP16, literal(-16)))
          CFI (cfiCond353) VB load(1, XDATA, add(CFA_XSP16, literal(-15)))
          CFI (cfiCond353) V0 load(1, XDATA, add(CFA_XSP16, literal(-14)))
          CFI (cfiCond353) V1 load(1, XDATA, add(CFA_XSP16, literal(-13)))
          CFI (cfiCond353) V2 load(1, XDATA, add(CFA_XSP16, literal(-12)))
          CFI (cfiCond353) V3 load(1, XDATA, add(CFA_XSP16, literal(-11)))
          CFI (cfiCond353) V4 load(1, XDATA, add(CFA_XSP16, literal(-10)))
          CFI (cfiCond353) V5 load(1, XDATA, add(CFA_XSP16, literal(-9)))
          CFI (cfiCond353) V6 load(1, XDATA, add(CFA_XSP16, literal(-8)))
          CFI (cfiCond353) V7 load(1, XDATA, add(CFA_XSP16, literal(-7)))
          CFI (cfiCond353) R7 load(1, XDATA, add(CFA_XSP16, literal(-6)))
          CFI (cfiCond353) ?RET_LOW load(1, XDATA, add(CFA_XSP16, literal(-5)))
          CFI (cfiCond353) ?RET_HIGH load(1, XDATA, add(CFA_XSP16, literal(-4)))
          CFI (cfiCond353) ?BRET_EXT load(1, XDATA, add(CFA_XSP16, literal(-3)))
          CFI (cfiCond353) DPL0 load(1, XDATA, add(CFA_XSP16, literal(-2)))
          CFI (cfiCond353) DPH0 load(1, XDATA, add(CFA_XSP16, literal(-1)))
          CFI (cfiCond353) CFA_SP SP+-2
          CFI (cfiCond353) CFA_XSP16 add(XSP16, 75)
          CFI Block cfiCond354 Using cfiCommon0
          CFI (cfiCond354) Function initiatorNwkStartRspCB
          CFI (cfiCond354) Conditional ??CrossCallReturnLabel_175
          CFI (cfiCond354) R6 load(1, XDATA, add(CFA_XSP16, literal(-9)))
          CFI (cfiCond354) VB load(1, XDATA, add(CFA_XSP16, literal(-8)))
          CFI (cfiCond354) V0 load(1, XDATA, add(CFA_XSP16, literal(-7)))
          CFI (cfiCond354) R7 load(1, XDATA, add(CFA_XSP16, literal(-6)))
          CFI (cfiCond354) ?RET_LOW load(1, XDATA, add(CFA_XSP16, literal(-5)))
          CFI (cfiCond354) ?RET_HIGH load(1, XDATA, add(CFA_XSP16, literal(-4)))
          CFI (cfiCond354) ?BRET_EXT load(1, XDATA, add(CFA_XSP16, literal(-3)))
          CFI (cfiCond354) DPL0 load(1, XDATA, add(CFA_XSP16, literal(-2)))
          CFI (cfiCond354) DPH0 load(1, XDATA, add(CFA_XSP16, literal(-1)))
          CFI (cfiCond354) CFA_SP SP+-2
          CFI (cfiCond354) CFA_XSP16 add(XSP16, 9)
          CFI Block cfiCond355 Using cfiCommon0
          CFI (cfiCond355) Function initiatorNwkJoinRtrRspCB
          CFI (cfiCond355) Conditional ??CrossCallReturnLabel_176
          CFI (cfiCond355) R6 load(1, XDATA, add(CFA_XSP16, literal(-11)))
          CFI (cfiCond355) VB load(1, XDATA, add(CFA_XSP16, literal(-10)))
          CFI (cfiCond355) V0 load(1, XDATA, add(CFA_XSP16, literal(-9)))
          CFI (cfiCond355) V1 load(1, XDATA, add(CFA_XSP16, literal(-8)))
          CFI (cfiCond355) V2 load(1, XDATA, add(CFA_XSP16, literal(-7)))
          CFI (cfiCond355) R7 load(1, XDATA, add(CFA_XSP16, literal(-6)))
          CFI (cfiCond355) ?RET_LOW load(1, XDATA, add(CFA_XSP16, literal(-5)))
          CFI (cfiCond355) ?RET_HIGH load(1, XDATA, add(CFA_XSP16, literal(-4)))
          CFI (cfiCond355) ?BRET_EXT load(1, XDATA, add(CFA_XSP16, literal(-3)))
          CFI (cfiCond355) DPL0 load(1, XDATA, add(CFA_XSP16, literal(-2)))
          CFI (cfiCond355) DPH0 load(1, XDATA, add(CFA_XSP16, literal(-1)))
          CFI (cfiCond355) CFA_SP SP+-2
          CFI (cfiCond355) CFA_XSP16 add(XSP16, 11)
          CFI Block cfiCond356 Using cfiCommon0
          CFI (cfiCond356) Function initiatorNwkJoinEDRspCB
          CFI (cfiCond356) Conditional ??CrossCallReturnLabel_177
          CFI (cfiCond356) R6 load(1, XDATA, add(CFA_XSP16, literal(-11)))
          CFI (cfiCond356) VB load(1, XDATA, add(CFA_XSP16, literal(-10)))
          CFI (cfiCond356) V0 load(1, XDATA, add(CFA_XSP16, literal(-9)))
          CFI (cfiCond356) V1 load(1, XDATA, add(CFA_XSP16, literal(-8)))
          CFI (cfiCond356) V2 load(1, XDATA, add(CFA_XSP16, literal(-7)))
          CFI (cfiCond356) R7 load(1, XDATA, add(CFA_XSP16, literal(-6)))
          CFI (cfiCond356) ?RET_LOW load(1, XDATA, add(CFA_XSP16, literal(-5)))
          CFI (cfiCond356) ?RET_HIGH load(1, XDATA, add(CFA_XSP16, literal(-4)))
          CFI (cfiCond356) ?BRET_EXT load(1, XDATA, add(CFA_XSP16, literal(-3)))
          CFI (cfiCond356) DPL0 load(1, XDATA, add(CFA_XSP16, literal(-2)))
          CFI (cfiCond356) DPH0 load(1, XDATA, add(CFA_XSP16, literal(-1)))
          CFI (cfiCond356) CFA_SP SP+-2
          CFI (cfiCond356) CFA_XSP16 add(XSP16, 11)
          CFI Block cfiCond357 Using cfiCommon0
          CFI (cfiCond357) Function initiatorZdoLeaveCnfCB
          CFI (cfiCond357) Conditional ??CrossCallReturnLabel_178
          CFI (cfiCond357) DPL0 Frame(CFA_SP, 4)
          CFI (cfiCond357) DPH0 Frame(CFA_SP, 5)
          CFI (cfiCond357) CFA_SP SP+-7
          CFI Block cfiCond358 Using cfiCommon0
          CFI (cfiCond358) Function touchLinkInitiator_event_loop
          CFI (cfiCond358) Conditional ??CrossCallReturnLabel_169
          CFI (cfiCond358) R6 load(1, XDATA, add(CFA_XSP16, literal(-16)))
          CFI (cfiCond358) VB load(1, XDATA, add(CFA_XSP16, literal(-15)))
          CFI (cfiCond358) V0 load(1, XDATA, add(CFA_XSP16, literal(-14)))
          CFI (cfiCond358) V1 load(1, XDATA, add(CFA_XSP16, literal(-13)))
          CFI (cfiCond358) V2 load(1, XDATA, add(CFA_XSP16, literal(-12)))
          CFI (cfiCond358) V3 load(1, XDATA, add(CFA_XSP16, literal(-11)))
          CFI (cfiCond358) V4 load(1, XDATA, add(CFA_XSP16, literal(-10)))
          CFI (cfiCond358) V5 load(1, XDATA, add(CFA_XSP16, literal(-9)))
          CFI (cfiCond358) V6 load(1, XDATA, add(CFA_XSP16, literal(-8)))
          CFI (cfiCond358) V7 load(1, XDATA, add(CFA_XSP16, literal(-7)))
          CFI (cfiCond358) R7 load(1, XDATA, add(CFA_XSP16, literal(-6)))
          CFI (cfiCond358) ?RET_LOW load(1, XDATA, add(CFA_XSP16, literal(-5)))
          CFI (cfiCond358) ?RET_HIGH load(1, XDATA, add(CFA_XSP16, literal(-4)))
          CFI (cfiCond358) ?BRET_EXT load(1, XDATA, add(CFA_XSP16, literal(-3)))
          CFI (cfiCond358) DPL0 load(1, XDATA, add(CFA_XSP16, literal(-2)))
          CFI (cfiCond358) DPH0 load(1, XDATA, add(CFA_XSP16, literal(-1)))
          CFI (cfiCond358) CFA_SP SP+-2
          CFI (cfiCond358) CFA_XSP16 add(XSP16, 75)
          CFI Block cfiCond359 Using cfiCommon0
          CFI (cfiCond359) Function touchLinkInitiator_event_loop
          CFI (cfiCond359) Conditional ??CrossCallReturnLabel_170
          CFI (cfiCond359) R6 load(1, XDATA, add(CFA_XSP16, literal(-16)))
          CFI (cfiCond359) VB load(1, XDATA, add(CFA_XSP16, literal(-15)))
          CFI (cfiCond359) V0 load(1, XDATA, add(CFA_XSP16, literal(-14)))
          CFI (cfiCond359) V1 load(1, XDATA, add(CFA_XSP16, literal(-13)))
          CFI (cfiCond359) V2 load(1, XDATA, add(CFA_XSP16, literal(-12)))
          CFI (cfiCond359) V3 load(1, XDATA, add(CFA_XSP16, literal(-11)))
          CFI (cfiCond359) V4 load(1, XDATA, add(CFA_XSP16, literal(-10)))
          CFI (cfiCond359) V5 load(1, XDATA, add(CFA_XSP16, literal(-9)))
          CFI (cfiCond359) V6 load(1, XDATA, add(CFA_XSP16, literal(-8)))
          CFI (cfiCond359) V7 load(1, XDATA, add(CFA_XSP16, literal(-7)))
          CFI (cfiCond359) R7 load(1, XDATA, add(CFA_XSP16, literal(-6)))
          CFI (cfiCond359) ?RET_LOW load(1, XDATA, add(CFA_XSP16, literal(-5)))
          CFI (cfiCond359) ?RET_HIGH load(1, XDATA, add(CFA_XSP16, literal(-4)))
          CFI (cfiCond359) ?BRET_EXT load(1, XDATA, add(CFA_XSP16, literal(-3)))
          CFI (cfiCond359) DPL0 load(1, XDATA, add(CFA_XSP16, literal(-2)))
          CFI (cfiCond359) DPH0 load(1, XDATA, add(CFA_XSP16, literal(-1)))
          CFI (cfiCond359) CFA_SP SP+-2
          CFI (cfiCond359) CFA_XSP16 add(XSP16, 75)
          CFI Block cfiPicker360 Using cfiCommon1
          CFI (cfiPicker360) NoFunction
          CFI (cfiPicker360) Picker
        MOVX      A,@DPTR
        MOV       R1,A
        LCALL     `??osal_set_event::?relay`; Banked call to: osal_set_event
        RET
          CFI EndBlock cfiCond349
          CFI EndBlock cfiCond350
          CFI EndBlock cfiCond351
          CFI EndBlock cfiCond352
          CFI EndBlock cfiCond353
          CFI EndBlock cfiCond354
          CFI EndBlock cfiCond355
          CFI EndBlock cfiCond356
          CFI EndBlock cfiCond357
          CFI EndBlock cfiCond358
          CFI EndBlock cfiCond359
          CFI EndBlock cfiPicker360
// 1774 
// 1775 /*********************************************************************
// 1776  * @fn      initiatorNwkJoinEDRspCB
// 1777  *
// 1778  * @brief   This callback is called to process a Network Join End Device
// 1779  *          Response command.
// 1780  *
// 1781  * @param   srcAddr - sender's address
// 1782  * @param   pRsp - parsed command
// 1783  *
// 1784  * @return  ZStatus_t
// 1785  */

        RSEG BANKED_CODE:HUGECODE:NOROOT(0)
// 1786 static ZStatus_t initiatorNwkJoinEDRspCB( afAddrType_t *srcAddr, bdbTLNwkJoinRsp_t *pRsp )
initiatorNwkJoinEDRspCB:
          CFI Block cfiBlock361 Using cfiCommon0
          CFI Function initiatorNwkJoinEDRspCB
        CODE
// 1787 {
        FUNCALL initiatorNwkJoinEDRspCB, touchLink_IsValidTransID
        LOCFRAME ISTACK, 0, STACK
        LOCFRAME PSTACK, 0, STACK
        LOCFRAME XSTACK, 11, STACK
        LOCFRAME IOVERLAY, 0, STATIC
        LOCFRAME DOVERLAY, 0, STATIC
        ARGFRAME ISTACK, 0, STACK
        ARGFRAME PSTACK, 0, STACK
        ARGFRAME XSTACK, 11, STACK
        ARGFRAME IOVERLAY, 0, STATIC
        ARGFRAME DOVERLAY, 0, STATIC
        FUNCALL initiatorNwkJoinEDRspCB, osal_memcmp
        LOCFRAME ISTACK, 0, STACK
        LOCFRAME PSTACK, 0, STACK
        LOCFRAME XSTACK, 14, STACK
        LOCFRAME IOVERLAY, 0, STATIC
        LOCFRAME DOVERLAY, 0, STATIC
        ARGFRAME ISTACK, 0, STACK
        ARGFRAME PSTACK, 0, STACK
        ARGFRAME XSTACK, 14, STACK
        ARGFRAME IOVERLAY, 0, STATIC
        ARGFRAME DOVERLAY, 0, STATIC
        FUNCALL initiatorNwkJoinEDRspCB, osal_get_timeoutEx
        LOCFRAME ISTACK, 0, STACK
        LOCFRAME PSTACK, 0, STACK
        LOCFRAME XSTACK, 11, STACK
        LOCFRAME IOVERLAY, 0, STATIC
        LOCFRAME DOVERLAY, 0, STATIC
        ARGFRAME ISTACK, 0, STACK
        ARGFRAME PSTACK, 0, STACK
        ARGFRAME XSTACK, 11, STACK
        ARGFRAME IOVERLAY, 0, STATIC
        ARGFRAME DOVERLAY, 0, STATIC
        FUNCALL initiatorNwkJoinEDRspCB, osal_set_event
        LOCFRAME ISTACK, 0, STACK
        LOCFRAME PSTACK, 0, STACK
        LOCFRAME XSTACK, 11, STACK
        LOCFRAME IOVERLAY, 0, STATIC
        LOCFRAME DOVERLAY, 0, STATIC
        ARGFRAME ISTACK, 0, STACK
        ARGFRAME PSTACK, 0, STACK
        ARGFRAME XSTACK, 11, STACK
        ARGFRAME IOVERLAY, 0, STATIC
        ARGFRAME DOVERLAY, 0, STATIC
        REQUIRE ?V0
        REQUIRE ?V1
        REQUIRE ?V2
        MOV       A,#-0xb
        LCALL     ?BANKED_ENTER_XDATA
          CFI DPH0 load(1, XDATA, add(CFA_XSP16, literal(-1)))
          CFI DPL0 load(1, XDATA, add(CFA_XSP16, literal(-2)))
          CFI ?BRET_EXT load(1, XDATA, add(CFA_XSP16, literal(-3)))
          CFI ?RET_HIGH load(1, XDATA, add(CFA_XSP16, literal(-4)))
          CFI ?RET_LOW load(1, XDATA, add(CFA_XSP16, literal(-5)))
          CFI R7 load(1, XDATA, add(CFA_XSP16, literal(-6)))
          CFI V2 load(1, XDATA, add(CFA_XSP16, literal(-7)))
          CFI V1 load(1, XDATA, add(CFA_XSP16, literal(-8)))
          CFI V0 load(1, XDATA, add(CFA_XSP16, literal(-9)))
          CFI VB load(1, XDATA, add(CFA_XSP16, literal(-10)))
          CFI R6 load(1, XDATA, add(CFA_XSP16, literal(-11)))
          CFI CFA_SP SP+0
          CFI CFA_XSP16 add(XSP16, 11)
        ; Saved register size: 11
        ; Auto size: 0
        MOV       ?V0,R2
        MOV       ?V1,R3
        MOV       A,R4
        MOV       R6,A
        MOV       A,R5
        MOV       R7,A
// 1788   if ( ( touchLink_IsValidTransID( pRsp->transID ) == FALSE ) || 
// 1789      ( ( srcAddr->addrMode != afAddr64Bit ) || ( !osal_memcmp( selectedTarget.srcAddr.addr.extAddr, srcAddr->addr.extAddr, Z_EXTADDR_LEN ) ) ) )
        ; Setup parameters for call to function touchLink_IsValidTransID
        MOV       DPL,R4
        MOV       DPH,A
        LCALL     ?XLOAD_R2345
        LCALL     ?Subroutine34 & 0xFFFF
??CrossCallReturnLabel_45:
        JZ        ??initiatorNwkJoinEDRspCB_0
        MOV       DPL,?V0
        MOV       DPH,?V1
        INC       DPTR
        INC       DPTR
        INC       DPTR
        INC       DPTR
        INC       DPTR
        INC       DPTR
        INC       DPTR
        INC       DPTR
        MOVX      A,@DPTR
        XRL       A,#0x3
        JNZ       ??initiatorNwkJoinEDRspCB_0
        ; Setup parameters for call to function osal_memcmp
        MOV       ?V2,#0x0
        MOV       R0,#?V0
        LCALL     ?PUSH_XSTACK_I_THREE
          CFI CFA_XSP16 add(XSP16, 14)
        MOV       R4,#0x8
        MOV       R5,#0x0
        MOV       R1,#(selectedTarget + 38) & 0xff
        MOV       R2,#((selectedTarget + 38) >> 8) & 0xff
        MOV       R3,#0x0
        LCALL     `??osal_memcmp::?relay`; Banked call to: osal_memcmp
        MOV       A,#0x3
        LCALL     ?DEALLOC_XSTACK8
          CFI CFA_XSP16 add(XSP16, 11)
        MOV       A,R1
        JNZ       ??initiatorNwkJoinEDRspCB_1
// 1790   {
// 1791     return ( ZFailure );
??initiatorNwkJoinEDRspCB_0:
        MOV       R1,#0x1
        SJMP      ??initiatorNwkJoinEDRspCB_2
// 1792   }
// 1793   
// 1794   // Make sure we didn't timeout waiting for this response
// 1795   if ( osal_get_timeoutEx( touchLinkInitiator_TaskID, TOUCHLINK_W4_NWK_JOIN_RSP_EVT ) )
??initiatorNwkJoinEDRspCB_1:
        ; Setup parameters for call to function osal_get_timeoutEx
        MOV       R2,#0x0
        MOV       R3,#0x1
        LCALL     ??Subroutine66_0 & 0xFFFF
??CrossCallReturnLabel_166:
        JZ        ??initiatorNwkJoinEDRspCB_3
// 1796   {
// 1797     // Save the Network Start Response for later
// 1798     rxRsp.nwkJoinRsp = *pRsp;
        MOV       DPL,R6
        MOV       DPH,R7
        MOV       R4,#rxRsp & 0xff
        MOV       R5,#(rxRsp >> 8) & 0xff
        MOV       A,#0x5
        LCALL     ?MOVE_LONG8_XDATA_XDATA
// 1799 
// 1800     // No need to wait longer
// 1801     osal_set_event( touchLinkInitiator_TaskID, TOUCHLINK_W4_NWK_JOIN_RSP_EVT );
        ; Setup parameters for call to function osal_set_event
        MOV       R2,A
        MOV       R3,#0x1
        LCALL     ??Subroutine68_0 & 0xFFFF
// 1802 
// 1803   }
??CrossCallReturnLabel_177:
        SJMP      ??initiatorNwkJoinEDRspCB_4
// 1804   else
// 1805   {
// 1806     rxRsp.nwkJoinRsp.status = TOUCHLINK_NETWORK_JOIN_RSP_STATUS_FAILURE;
??initiatorNwkJoinEDRspCB_3:
        MOV       DPTR,#rxRsp + 4
        MOV       A,#0x1
        MOVX      @DPTR,A
// 1807   }
// 1808 
// 1809   return ( ZSuccess );
??initiatorNwkJoinEDRspCB_4:
        MOV       R1,#0x0
??initiatorNwkJoinEDRspCB_2:
        LJMP      ?Subroutine4 & 0xFFFF
// 1810 }
          CFI EndBlock cfiBlock361
// 1811 
// 1812 /******************************************************************************
// 1813  * @fn      initiatorZdoLeaveCnfCB
// 1814  *
// 1815  * @brief   This callback is called to process a Leave Confirmation message.
// 1816  *
// 1817  *          Note: this callback function returns a pointer if it has handled
// 1818  *                the confirmation message and no further action should be
// 1819  *                taken with it. It returns NULL if it has not handled the
// 1820  *                confirmation message and normal processing should take place.
// 1821  *
// 1822  * @param   pParam - received message
// 1823  *
// 1824  * @return  Pointer if message processed. NULL, otherwise.
// 1825  */

        RSEG BANKED_CODE:HUGECODE:NOROOT(0)
// 1826 static void *initiatorZdoLeaveCnfCB( void *pParam )
initiatorZdoLeaveCnfCB:
          CFI Block cfiBlock362 Using cfiCommon0
          CFI Function initiatorZdoLeaveCnfCB
        CODE
// 1827 {
        FUNCALL initiatorZdoLeaveCnfCB, osal_set_event
        LOCFRAME ISTACK, 2, STACK
        LOCFRAME PSTACK, 0, STACK
        LOCFRAME XSTACK, 0, STACK
        LOCFRAME IOVERLAY, 0, STATIC
        LOCFRAME DOVERLAY, 0, STATIC
        ARGFRAME ISTACK, 2, STACK
        ARGFRAME PSTACK, 0, STACK
        ARGFRAME XSTACK, 0, STACK
        ARGFRAME IOVERLAY, 0, STATIC
        ARGFRAME DOVERLAY, 0, STATIC
        PUSH      DPL
          CFI DPL0 Frame(CFA_SP, 4)
          CFI CFA_SP SP+-4
        PUSH      DPH
          CFI DPH0 Frame(CFA_SP, 5)
          CFI CFA_SP SP+-5
        ; Saved register size: 2
        ; Auto size: 0
// 1828   (void)pParam;
// 1829 
// 1830   // Did we initiate the leave?
// 1831   if ( touchLinkLeaveInitiated == FALSE )
        MOV       DPTR,#touchLinkLeaveInitiated
        MOVX      A,@DPTR
        JNZ       ??initiatorZdoLeaveCnfCB_0
// 1832   {
// 1833     return ( NULL );
        MOV       R2,#0x0
        MOV       R3,#0x0
        SJMP      ??initiatorZdoLeaveCnfCB_1
// 1834   }
// 1835 
// 1836   if ( touchLinkLeaveInitiated == TOUCHLINK_LEAVE_TO_JOIN_NWK )
??initiatorZdoLeaveCnfCB_0:
        XRL       A,#0x1
        JNZ       ??CrossCallReturnLabel_178
// 1837   {
// 1838     // Notify our task to join the new network
// 1839     osal_set_event( touchLinkInitiator_TaskID, TOUCHLINK_JOIN_NWK_ATTEMPT_EVT );
        ; Setup parameters for call to function osal_set_event
        MOV       R2,#0x8
        MOV       R3,#0x0
        LCALL     ??Subroutine68_0 & 0xFFFF
// 1840   }
// 1841 
// 1842   return ( (void *)&touchLinkLeaveInitiated );
??CrossCallReturnLabel_178:
        MOV       R2,#touchLinkLeaveInitiated & 0xff
        MOV       R3,#(touchLinkLeaveInitiated >> 8) & 0xff
??initiatorZdoLeaveCnfCB_1:
        LJMP      ??Subroutine46_0 & 0xFFFF
// 1843 }
          CFI EndBlock cfiBlock362
// 1844 
// 1845 /*********************************************************************
// 1846  * @fn      initiatorProcessStateChange
// 1847  *
// 1848  * @brief   Process ZDO device state change
// 1849  *
// 1850  * @param   state - The device's network state
// 1851  *
// 1852  * @return  none
// 1853  */

        RSEG BANKED_CODE:HUGECODE:NOROOT(0)
// 1854 static void initiatorProcessStateChange( devStates_t state )
initiatorProcessStateChange:
          CFI Block cfiBlock363 Using cfiCommon0
          CFI Function initiatorProcessStateChange
        CODE
// 1855 {
        FUNCALL initiatorProcessStateChange, touchLink_UpdateNV
        LOCFRAME ISTACK, 0, STACK
        LOCFRAME PSTACK, 0, STACK
        LOCFRAME XSTACK, 10, STACK
        LOCFRAME IOVERLAY, 0, STATIC
        LOCFRAME DOVERLAY, 0, STATIC
        ARGFRAME ISTACK, 0, STACK
        ARGFRAME PSTACK, 0, STACK
        ARGFRAME XSTACK, 10, STACK
        ARGFRAME IOVERLAY, 0, STATIC
        ARGFRAME DOVERLAY, 0, STATIC
        FUNCALL initiatorProcessStateChange, nwkNeighborGetLinkInfo
        LOCFRAME ISTACK, 0, STACK
        LOCFRAME PSTACK, 0, STACK
        LOCFRAME XSTACK, 10, STACK
        LOCFRAME IOVERLAY, 0, STATIC
        LOCFRAME DOVERLAY, 0, STATIC
        ARGFRAME ISTACK, 0, STACK
        ARGFRAME PSTACK, 0, STACK
        ARGFRAME XSTACK, 10, STACK
        ARGFRAME IOVERLAY, 0, STATIC
        ARGFRAME DOVERLAY, 0, STATIC
        FUNCALL initiatorProcessStateChange, nwkNeighborAdd
        LOCFRAME ISTACK, 0, STACK
        LOCFRAME PSTACK, 0, STACK
        LOCFRAME XSTACK, 10, STACK
        LOCFRAME IOVERLAY, 0, STATIC
        LOCFRAME DOVERLAY, 0, STATIC
        ARGFRAME ISTACK, 0, STACK
        ARGFRAME PSTACK, 0, STACK
        ARGFRAME XSTACK, 10, STACK
        ARGFRAME IOVERLAY, 0, STATIC
        ARGFRAME DOVERLAY, 0, STATIC
        FUNCALL initiatorProcessStateChange, nwkNeighborGetLinkInfo
        LOCFRAME ISTACK, 0, STACK
        LOCFRAME PSTACK, 0, STACK
        LOCFRAME XSTACK, 10, STACK
        LOCFRAME IOVERLAY, 0, STATIC
        LOCFRAME DOVERLAY, 0, STATIC
        ARGFRAME ISTACK, 0, STACK
        ARGFRAME PSTACK, 0, STACK
        ARGFRAME XSTACK, 10, STACK
        ARGFRAME IOVERLAY, 0, STATIC
        ARGFRAME DOVERLAY, 0, STATIC
        FUNCALL initiatorProcessStateChange, bdb_setNodeIsOnANetwork
        LOCFRAME ISTACK, 0, STACK
        LOCFRAME PSTACK, 0, STACK
        LOCFRAME XSTACK, 10, STACK
        LOCFRAME IOVERLAY, 0, STATIC
        LOCFRAME DOVERLAY, 0, STATIC
        ARGFRAME ISTACK, 0, STACK
        ARGFRAME PSTACK, 0, STACK
        ARGFRAME XSTACK, 10, STACK
        ARGFRAME IOVERLAY, 0, STATIC
        ARGFRAME DOVERLAY, 0, STATIC
        FUNCALL initiatorProcessStateChange, osal_start_timerEx
        LOCFRAME ISTACK, 0, STACK
        LOCFRAME PSTACK, 0, STACK
        LOCFRAME XSTACK, 14, STACK
        LOCFRAME IOVERLAY, 0, STATIC
        LOCFRAME DOVERLAY, 0, STATIC
        ARGFRAME ISTACK, 0, STACK
        ARGFRAME PSTACK, 0, STACK
        ARGFRAME XSTACK, 14, STACK
        ARGFRAME IOVERLAY, 0, STATIC
        ARGFRAME DOVERLAY, 0, STATIC
        FUNCALL initiatorProcessStateChange, osal_stop_timerEx
        LOCFRAME ISTACK, 0, STACK
        LOCFRAME PSTACK, 0, STACK
        LOCFRAME XSTACK, 10, STACK
        LOCFRAME IOVERLAY, 0, STATIC
        LOCFRAME DOVERLAY, 0, STATIC
        ARGFRAME ISTACK, 0, STACK
        ARGFRAME PSTACK, 0, STACK
        ARGFRAME XSTACK, 10, STACK
        ARGFRAME IOVERLAY, 0, STATIC
        ARGFRAME DOVERLAY, 0, STATIC
        FUNCALL initiatorProcessStateChange, osal_get_timeoutEx
        LOCFRAME ISTACK, 0, STACK
        LOCFRAME PSTACK, 0, STACK
        LOCFRAME XSTACK, 10, STACK
        LOCFRAME IOVERLAY, 0, STATIC
        LOCFRAME DOVERLAY, 0, STATIC
        ARGFRAME ISTACK, 0, STACK
        ARGFRAME PSTACK, 0, STACK
        ARGFRAME XSTACK, 10, STACK
        ARGFRAME IOVERLAY, 0, STATIC
        ARGFRAME DOVERLAY, 0, STATIC
        FUNCALL initiatorProcessStateChange, osal_start_timerEx
        LOCFRAME ISTACK, 0, STACK
        LOCFRAME PSTACK, 0, STACK
        LOCFRAME XSTACK, 14, STACK
        LOCFRAME IOVERLAY, 0, STATIC
        LOCFRAME DOVERLAY, 0, STATIC
        ARGFRAME ISTACK, 0, STACK
        ARGFRAME PSTACK, 0, STACK
        ARGFRAME XSTACK, 14, STACK
        ARGFRAME IOVERLAY, 0, STATIC
        ARGFRAME DOVERLAY, 0, STATIC
        REQUIRE ?V0
        REQUIRE ?V1
        MOV       A,#-0xa
        LCALL     ?BANKED_ENTER_XDATA
          CFI DPH0 load(1, XDATA, add(CFA_XSP16, literal(-1)))
          CFI DPL0 load(1, XDATA, add(CFA_XSP16, literal(-2)))
          CFI ?BRET_EXT load(1, XDATA, add(CFA_XSP16, literal(-3)))
          CFI ?RET_HIGH load(1, XDATA, add(CFA_XSP16, literal(-4)))
          CFI ?RET_LOW load(1, XDATA, add(CFA_XSP16, literal(-5)))
          CFI R7 load(1, XDATA, add(CFA_XSP16, literal(-6)))
          CFI V1 load(1, XDATA, add(CFA_XSP16, literal(-7)))
          CFI V0 load(1, XDATA, add(CFA_XSP16, literal(-8)))
          CFI VB load(1, XDATA, add(CFA_XSP16, literal(-9)))
          CFI R6 load(1, XDATA, add(CFA_XSP16, literal(-10)))
          CFI CFA_SP SP+0
          CFI CFA_XSP16 add(XSP16, 10)
        ; Saved register size: 10
        ; Auto size: 0
        MOV       A,R1
        MOV       R6,A
// 1856   if ( ( ( devState == DEV_ROUTER ) || ( devState == DEV_END_DEVICE ) ) && ( touchlinkDistNwk == TRUE ) )
        MOV       DPTR,#devState
        MOVX      A,@DPTR
        XRL       A,#0x7
        JZ        ??initiatorProcessStateChange_0
        MOVX      A,@DPTR
        XRL       A,#0x6
        JNZ       ??initiatorProcessStateChange_1
??initiatorProcessStateChange_0:
        MOV       DPTR,#touchlinkDistNwk
        MOVX      A,@DPTR
        XRL       A,#0x1
        JNZ       ??initiatorProcessStateChange_1
// 1857   {
// 1858     // Set touchlink flag to false after joining is complete
// 1859     touchlinkDistNwk = FALSE;
        CLR       A
        MOVX      @DPTR,A
// 1860     
// 1861     // Save the latest NIB to update our parent's address
// 1862     touchLink_UpdateNV( TOUCHLINK_UPDATE_NV_NIB );
        ; Setup parameters for call to function touchLink_UpdateNV
        MOV       R1,#0x1
        LCALL     `??touchLink_UpdateNV::?relay`; Banked call to: touchLink_UpdateNV
// 1863    
// 1864     if ( !_NIB.CapabilityFlags )
        MOV       DPTR,#_NIB + 14
        MOVX      A,@DPTR
        JNZ       ??initiatorProcessStateChange_2
// 1865     {
// 1866       _NIB.CapabilityFlags = ZDO_Config_Node_Descriptor.CapabilityFlags;
        MOV       DPTR,#ZDO_Config_Node_Descriptor + 2
        MOVX      A,@DPTR
        MOV       DPTR,#_NIB + 14
        MOVX      @DPTR,A
// 1867     }
// 1868 
// 1869 #if (ZSTACK_ROUTER_BUILD)
// 1870       linkInfo_t *linkInfo;
// 1871       
// 1872       // check if entry exists
// 1873       linkInfo = nwkNeighborGetLinkInfo( selectedTargetNwkAddr, _NIB.nwkPanId );
// 1874 
// 1875       // if not, look for a vacant entry to add this node...
// 1876       if ( linkInfo == NULL )
??initiatorProcessStateChange_2:
        ; Setup parameters for call to function nwkNeighborGetLinkInfo
        LCALL     ?Subroutine15 & 0xFFFF
??CrossCallReturnLabel_9:
        MOV       A,R2
        ORL       A,R3
        JNZ       ??initiatorProcessStateChange_3
// 1877       {
// 1878         nwkNeighborAdd( selectedTargetNwkAddr, _NIB.nwkPanId, DEF_LQI );
        ; Setup parameters for call to function nwkNeighborAdd
        MOV       R1,#-0x56
        LCALL     ?Subroutine43 & 0xFFFF
??CrossCallReturnLabel_69:
        LCALL     ?Subroutine21 & 0xFFFF
??CrossCallReturnLabel_17:
        LCALL     `??nwkNeighborAdd::?relay`; Banked call to: nwkNeighborAdd
// 1879         linkInfo = nwkNeighborGetLinkInfo( selectedTargetNwkAddr, _NIB.nwkPanId );
        ; Setup parameters for call to function nwkNeighborGetLinkInfo
        LCALL     ?Subroutine15 & 0xFFFF
// 1880         linkInfo->txCost = DEF_LINK_COST;
??CrossCallReturnLabel_10:
        MOV       DPL,R2
        MOV       DPH,R3
        INC       DPTR
        MOV       A,#0x1
        MOVX      @DPTR,A
// 1881         linkInfo->rxLqi = MIN_LQI_COST_1; 
        MOV       DPL,R2
        MOV       DPH,R3
        INC       DPTR
        INC       DPTR
        MOV       A,#0xc
        MOVX      @DPTR,A
// 1882       }
// 1883       
// 1884       bdb_setNodeIsOnANetwork(TRUE);
??initiatorProcessStateChange_3:
        ; Setup parameters for call to function bdb_setNodeIsOnANetwork
        MOV       R1,#0x1
        LCALL     `??bdb_setNodeIsOnANetwork::?relay`; Banked call to: bdb_setNodeIsOnANetwork
// 1885       osal_start_timerEx( touchLinkInitiator_TaskID, TOUCHLINK_NWK_FORMATION_SUCCESS_EVT, 500);
        ; Setup parameters for call to function osal_start_timerEx
        MOV       DPTR,#__Constant_1f4
        LCALL     ?PUSH_XSTACK8_X_FOUR
          CFI CFA_XSP16 add(XSP16, 14)
        MOV       R2,#0x0
        MOV       R3,#0x20
        LCALL     ??Subroutine59_0 & 0xFFFF
??CrossCallReturnLabel_120:
        LCALL     ?DEALLOC_XSTACK8
          CFI CFA_XSP16 add(XSP16, 10)
// 1886 #endif
// 1887 
// 1888     // We found our parent
// 1889     osal_stop_timerEx( touchLinkInitiator_TaskID, TOUCHLINK_W4_REJOIN_EVT );
        ; Setup parameters for call to function osal_stop_timerEx
        MOV       R2,#0x0
        MOV       R3,#0x4
        LCALL     ??Subroutine56_0 & 0xFFFF
// 1890   }
??CrossCallReturnLabel_111:
        SJMP      ??initiatorProcessStateChange_4
// 1891   
// 1892   else if ( ( state == DEV_NWK_ORPHAN ) || ( state == DEV_NWK_DISC ) )
??initiatorProcessStateChange_1:
        MOV       A,#0xa
        XRL       A,R6
        JZ        ??initiatorProcessStateChange_5
        MOV       A,#0x2
        XRL       A,R6
        JNZ       ??initiatorProcessStateChange_4
// 1893   {
// 1894     // Device has lost information about its parent; give it some time to rejoin
// 1895     if ( !osal_get_timeoutEx( touchLinkInitiator_TaskID, TOUCHLINK_W4_REJOIN_EVT ) )
??initiatorProcessStateChange_5:
        ; Setup parameters for call to function osal_get_timeoutEx
        MOV       R2,#0x0
        MOV       R3,#0x4
        LCALL     ??Subroutine66_0 & 0xFFFF
??CrossCallReturnLabel_167:
        JNZ       ??initiatorProcessStateChange_4
// 1896     {
// 1897       osal_start_timerEx( touchLinkInitiator_TaskID, TOUCHLINK_W4_REJOIN_EVT,
// 1898                           (NUM_DISC_ATTEMPTS + 1) * TOUCHLINK_INITIATOR_REJOIN_TIMEOUT );
        ; Setup parameters for call to function osal_start_timerEx
        MOV       DPTR,#__Constant_30d4
        LCALL     ?PUSH_XSTACK8_X_FOUR
          CFI CFA_XSP16 add(XSP16, 14)
        MOV       R2,#0x0
        MOV       R3,#0x4
        LCALL     ??Subroutine59_0 & 0xFFFF
// 1899     }
// 1900   }
??CrossCallReturnLabel_121:
        LCALL     ?DEALLOC_XSTACK8
          CFI CFA_XSP16 add(XSP16, 10)
// 1901 }
??initiatorProcessStateChange_4:
        LJMP      ?Subroutine5 & 0xFFFF
          CFI EndBlock cfiBlock363

        RSEG BANKED_CODE:HUGECODE:NOROOT(0)
?Subroutine15:
          CFI Block cfiCond364 Using cfiCommon0
          CFI Function initiatorProcessStateChange
          CFI Conditional ??CrossCallReturnLabel_9
          CFI R6 load(1, XDATA, add(CFA_XSP16, literal(-10)))
          CFI VB load(1, XDATA, add(CFA_XSP16, literal(-9)))
          CFI V0 load(1, XDATA, add(CFA_XSP16, literal(-8)))
          CFI V1 load(1, XDATA, add(CFA_XSP16, literal(-7)))
          CFI R7 load(1, XDATA, add(CFA_XSP16, literal(-6)))
          CFI ?RET_LOW load(1, XDATA, add(CFA_XSP16, literal(-5)))
          CFI ?RET_HIGH load(1, XDATA, add(CFA_XSP16, literal(-4)))
          CFI ?BRET_EXT load(1, XDATA, add(CFA_XSP16, literal(-3)))
          CFI DPL0 load(1, XDATA, add(CFA_XSP16, literal(-2)))
          CFI DPH0 load(1, XDATA, add(CFA_XSP16, literal(-1)))
          CFI CFA_SP SP+-2
          CFI CFA_XSP16 add(XSP16, 10)
          CFI Block cfiCond365 Using cfiCommon0
          CFI (cfiCond365) Function initiatorProcessStateChange
          CFI (cfiCond365) Conditional ??CrossCallReturnLabel_10
          CFI (cfiCond365) R6 load(1, XDATA, add(CFA_XSP16, literal(-10)))
          CFI (cfiCond365) VB load(1, XDATA, add(CFA_XSP16, literal(-9)))
          CFI (cfiCond365) V0 load(1, XDATA, add(CFA_XSP16, literal(-8)))
          CFI (cfiCond365) V1 load(1, XDATA, add(CFA_XSP16, literal(-7)))
          CFI (cfiCond365) R7 load(1, XDATA, add(CFA_XSP16, literal(-6)))
          CFI (cfiCond365) ?RET_LOW load(1, XDATA, add(CFA_XSP16, literal(-5)))
          CFI (cfiCond365) ?RET_HIGH load(1, XDATA, add(CFA_XSP16, literal(-4)))
          CFI (cfiCond365) ?BRET_EXT load(1, XDATA, add(CFA_XSP16, literal(-3)))
          CFI (cfiCond365) DPL0 load(1, XDATA, add(CFA_XSP16, literal(-2)))
          CFI (cfiCond365) DPH0 load(1, XDATA, add(CFA_XSP16, literal(-1)))
          CFI (cfiCond365) CFA_SP SP+-2
          CFI (cfiCond365) CFA_XSP16 add(XSP16, 10)
          CFI Block cfiPicker366 Using cfiCommon1
          CFI (cfiPicker366) NoFunction
          CFI (cfiPicker366) Picker
        LCALL     ?Subroutine43 & 0xFFFF
??CrossCallReturnLabel_70:
        LCALL     ?Subroutine42 & 0xFFFF
??CrossCallReturnLabel_66:
        LCALL     `??nwkNeighborGetLinkInfo::?relay`; Banked call to: nwkNeighborGetLinkInfo
        RET
          CFI EndBlock cfiCond364
          CFI EndBlock cfiCond365
          CFI EndBlock cfiPicker366

        RSEG BANKED_CODE:HUGECODE:NOROOT(0)
?Subroutine43:
          CFI Block cfiCond367 Using cfiCommon0
          CFI Function initiatorProcessStateChange
          CFI Conditional ??CrossCallReturnLabel_69
          CFI R6 load(1, XDATA, add(CFA_XSP16, literal(-10)))
          CFI VB load(1, XDATA, add(CFA_XSP16, literal(-9)))
          CFI V0 load(1, XDATA, add(CFA_XSP16, literal(-8)))
          CFI V1 load(1, XDATA, add(CFA_XSP16, literal(-7)))
          CFI R7 load(1, XDATA, add(CFA_XSP16, literal(-6)))
          CFI ?RET_LOW load(1, XDATA, add(CFA_XSP16, literal(-5)))
          CFI ?RET_HIGH load(1, XDATA, add(CFA_XSP16, literal(-4)))
          CFI ?BRET_EXT load(1, XDATA, add(CFA_XSP16, literal(-3)))
          CFI DPL0 load(1, XDATA, add(CFA_XSP16, literal(-2)))
          CFI DPH0 load(1, XDATA, add(CFA_XSP16, literal(-1)))
          CFI CFA_SP SP+-2
          CFI CFA_XSP16 add(XSP16, 10)
          CFI Block cfiCond368 Using cfiCommon0
          CFI (cfiCond368) Function initiatorProcessStateChange
          CFI (cfiCond368) Conditional ??CrossCallReturnLabel_70, ??CrossCallReturnLabel_9
          CFI (cfiCond368) R6 load(1, XDATA, add(CFA_XSP16, literal(-10)))
          CFI (cfiCond368) VB load(1, XDATA, add(CFA_XSP16, literal(-9)))
          CFI (cfiCond368) V0 load(1, XDATA, add(CFA_XSP16, literal(-8)))
          CFI (cfiCond368) V1 load(1, XDATA, add(CFA_XSP16, literal(-7)))
          CFI (cfiCond368) R7 load(1, XDATA, add(CFA_XSP16, literal(-6)))
          CFI (cfiCond368) ?RET_LOW load(1, XDATA, add(CFA_XSP16, literal(-5)))
          CFI (cfiCond368) ?RET_HIGH load(1, XDATA, add(CFA_XSP16, literal(-4)))
          CFI (cfiCond368) ?BRET_EXT load(1, XDATA, add(CFA_XSP16, literal(-3)))
          CFI (cfiCond368) DPL0 load(1, XDATA, add(CFA_XSP16, literal(-2)))
          CFI (cfiCond368) DPH0 load(1, XDATA, add(CFA_XSP16, literal(-1)))
          CFI (cfiCond368) CFA_SP SP+-4
          CFI (cfiCond368) CFA_XSP16 add(XSP16, 10)
          CFI Block cfiCond369 Using cfiCommon0
          CFI (cfiCond369) Function initiatorProcessStateChange
          CFI (cfiCond369) Conditional ??CrossCallReturnLabel_70, ??CrossCallReturnLabel_10
          CFI (cfiCond369) R6 load(1, XDATA, add(CFA_XSP16, literal(-10)))
          CFI (cfiCond369) VB load(1, XDATA, add(CFA_XSP16, literal(-9)))
          CFI (cfiCond369) V0 load(1, XDATA, add(CFA_XSP16, literal(-8)))
          CFI (cfiCond369) V1 load(1, XDATA, add(CFA_XSP16, literal(-7)))
          CFI (cfiCond369) R7 load(1, XDATA, add(CFA_XSP16, literal(-6)))
          CFI (cfiCond369) ?RET_LOW load(1, XDATA, add(CFA_XSP16, literal(-5)))
          CFI (cfiCond369) ?RET_HIGH load(1, XDATA, add(CFA_XSP16, literal(-4)))
          CFI (cfiCond369) ?BRET_EXT load(1, XDATA, add(CFA_XSP16, literal(-3)))
          CFI (cfiCond369) DPL0 load(1, XDATA, add(CFA_XSP16, literal(-2)))
          CFI (cfiCond369) DPH0 load(1, XDATA, add(CFA_XSP16, literal(-1)))
          CFI (cfiCond369) CFA_SP SP+-4
          CFI (cfiCond369) CFA_XSP16 add(XSP16, 10)
          CFI Block cfiPicker370 Using cfiCommon1
          CFI (cfiPicker370) NoFunction
          CFI (cfiPicker370) Picker
        MOV       DPTR,#_NIB + 33
        MOVX      A,@DPTR
        MOV       R4,A
        INC       DPTR
        MOVX      A,@DPTR
        MOV       R5,A
        MOV       DPTR,#selectedTargetNwkAddr
        RET
          CFI EndBlock cfiCond367
          CFI EndBlock cfiCond368
          CFI EndBlock cfiCond369
          CFI EndBlock cfiPicker370
// 1902 
// 1903 /*********************************************************************
// 1904  * @fn      initiatorSetNwkToInitState
// 1905  *
// 1906  * @brief   Set our network state to its original state.
// 1907  *
// 1908  * @param   void
// 1909  *
// 1910  * @return  void
// 1911  */

        RSEG BANKED_CODE:HUGECODE:NOROOT(0)
// 1912 static void initiatorSetNwkToInitState()
initiatorSetNwkToInitState:
          CFI Block cfiBlock371 Using cfiCommon0
          CFI Function initiatorSetNwkToInitState
        CODE
// 1913 {
        FUNCALL initiatorSetNwkToInitState, ZMacSetReq
        LOCFRAME ISTACK, 0, STACK
        LOCFRAME PSTACK, 0, STACK
        LOCFRAME XSTACK, 12, STACK
        LOCFRAME IOVERLAY, 0, STATIC
        LOCFRAME DOVERLAY, 0, STATIC
        ARGFRAME ISTACK, 0, STACK
        ARGFRAME PSTACK, 0, STACK
        ARGFRAME XSTACK, 12, STACK
        ARGFRAME IOVERLAY, 0, STATIC
        ARGFRAME DOVERLAY, 0, STATIC
        FUNCALL initiatorSetNwkToInitState, touchLink_SetChannel
        LOCFRAME ISTACK, 0, STACK
        LOCFRAME PSTACK, 0, STACK
        LOCFRAME XSTACK, 12, STACK
        LOCFRAME IOVERLAY, 0, STATIC
        LOCFRAME DOVERLAY, 0, STATIC
        ARGFRAME ISTACK, 0, STACK
        ARGFRAME PSTACK, 0, STACK
        ARGFRAME XSTACK, 12, STACK
        ARGFRAME IOVERLAY, 0, STATIC
        ARGFRAME DOVERLAY, 0, STATIC
        FUNCALL initiatorSetNwkToInitState, nwk_setStateIdle
        LOCFRAME ISTACK, 0, STACK
        LOCFRAME PSTACK, 0, STACK
        LOCFRAME XSTACK, 12, STACK
        LOCFRAME IOVERLAY, 0, STATIC
        LOCFRAME DOVERLAY, 0, STATIC
        ARGFRAME ISTACK, 0, STACK
        ARGFRAME PSTACK, 0, STACK
        ARGFRAME XSTACK, 12, STACK
        ARGFRAME IOVERLAY, 0, STATIC
        ARGFRAME DOVERLAY, 0, STATIC
        FUNCALL initiatorSetNwkToInitState, NLME_SetPollRate
        LOCFRAME ISTACK, 0, STACK
        LOCFRAME PSTACK, 0, STACK
        LOCFRAME XSTACK, 12, STACK
        LOCFRAME IOVERLAY, 0, STATIC
        LOCFRAME DOVERLAY, 0, STATIC
        ARGFRAME ISTACK, 0, STACK
        ARGFRAME PSTACK, 0, STACK
        ARGFRAME XSTACK, 12, STACK
        ARGFRAME IOVERLAY, 0, STATIC
        ARGFRAME DOVERLAY, 0, STATIC
        FUNCALL initiatorSetNwkToInitState, NLME_SetQueuedPollRate
        LOCFRAME ISTACK, 0, STACK
        LOCFRAME PSTACK, 0, STACK
        LOCFRAME XSTACK, 12, STACK
        LOCFRAME IOVERLAY, 0, STATIC
        LOCFRAME DOVERLAY, 0, STATIC
        ARGFRAME ISTACK, 0, STACK
        ARGFRAME PSTACK, 0, STACK
        ARGFRAME XSTACK, 12, STACK
        ARGFRAME IOVERLAY, 0, STATIC
        ARGFRAME DOVERLAY, 0, STATIC
        FUNCALL initiatorSetNwkToInitState, NLME_SetResponseRate
        LOCFRAME ISTACK, 0, STACK
        LOCFRAME PSTACK, 0, STACK
        LOCFRAME XSTACK, 12, STACK
        LOCFRAME IOVERLAY, 0, STATIC
        LOCFRAME DOVERLAY, 0, STATIC
        ARGFRAME ISTACK, 0, STACK
        ARGFRAME PSTACK, 0, STACK
        ARGFRAME XSTACK, 12, STACK
        ARGFRAME IOVERLAY, 0, STATIC
        ARGFRAME DOVERLAY, 0, STATIC
        REQUIRE ?V0
        REQUIRE ?V1
        REQUIRE ?V2
        REQUIRE ?V3
        MOV       A,#-0xc
        LCALL     ?BANKED_ENTER_XDATA
          CFI DPH0 load(1, XDATA, add(CFA_XSP16, literal(-1)))
          CFI DPL0 load(1, XDATA, add(CFA_XSP16, literal(-2)))
          CFI ?BRET_EXT load(1, XDATA, add(CFA_XSP16, literal(-3)))
          CFI ?RET_HIGH load(1, XDATA, add(CFA_XSP16, literal(-4)))
          CFI ?RET_LOW load(1, XDATA, add(CFA_XSP16, literal(-5)))
          CFI R7 load(1, XDATA, add(CFA_XSP16, literal(-6)))
          CFI V3 load(1, XDATA, add(CFA_XSP16, literal(-7)))
          CFI V2 load(1, XDATA, add(CFA_XSP16, literal(-8)))
          CFI V1 load(1, XDATA, add(CFA_XSP16, literal(-9)))
          CFI V0 load(1, XDATA, add(CFA_XSP16, literal(-10)))
          CFI VB load(1, XDATA, add(CFA_XSP16, literal(-11)))
          CFI R6 load(1, XDATA, add(CFA_XSP16, literal(-12)))
          CFI CFA_SP SP+0
          CFI CFA_XSP16 add(XSP16, 12)
        ; Saved register size: 12
        ; Auto size: 0
// 1914   // Turn MAC receiver back to its old state
// 1915   ZMacSetReq( ZMacRxOnIdle, &savedRxOnIdle );
        ; Setup parameters for call to function ZMacSetReq
        MOV       R2,#savedRxOnIdle & 0xff
        MOV       R3,#(savedRxOnIdle >> 8) & 0xff
        MOV       R1,#0x52
        LCALL     `??ZMacSetReq::?relay`; Banked call to: ZMacSetReq
// 1916 
// 1917   // Tune back to our channel
// 1918   touchLink_SetChannel( _NIB.nwkLogicalChannel );
        ; Setup parameters for call to function touchLink_SetChannel
        MOV       DPTR,#_NIB + 22
        LCALL     ??Subroutine70_0 & 0xFFFF
// 1919 
// 1920   // Set NWK task to run
// 1921   nwk_setStateIdle( FALSE );
??CrossCallReturnLabel_184:
        ; Setup parameters for call to function nwk_setStateIdle
        MOV       R1,#0x0
        LCALL     `??nwk_setStateIdle::?relay`; Banked call to: nwk_setStateIdle
// 1922 
// 1923   if ( savedPollRate != zgPollRate )
        MOV       DPTR,#savedPollRate
        LCALL     ?Subroutine20 & 0xFFFF
??CrossCallReturnLabel_14:
        CLR       A
        MOV       ?V2,A
        MOV       ?V3,A
        MOV       DPTR,#zgPollRate
        MOV       R0,#?V0
        LCALL     ?L_EQ_X
        JZ        ??initiatorSetNwkToInitState_0
// 1924   {
// 1925     NLME_SetPollRate( savedPollRate );
        ; Setup parameters for call to function NLME_SetPollRate
        MOV       R2,?V0
        MOV       R3,?V1
        MOV       R4,?V2
        MOV       R5,?V3
        LCALL     `??NLME_SetPollRate::?relay`; Banked call to: NLME_SetPollRate
// 1926     savedPollRate = POLL_RATE;
        MOV       DPTR,#savedPollRate
        MOV       A,#-0x18
        MOVX      @DPTR,A
        INC       DPTR
        MOV       A,#0x3
        MOVX      @DPTR,A
// 1927   }
// 1928 
// 1929   if ( savedQueuedPollRate != zgQueuedPollRate )
??initiatorSetNwkToInitState_0:
        MOV       DPTR,#savedQueuedPollRate
        LCALL     ??Subroutine63_0 & 0xFFFF
??CrossCallReturnLabel_146:
        MOV       DPTR,#zgQueuedPollRate
        MOVX      A,@DPTR
        XRL       A,R0
        JNZ       ??initiatorSetNwkToInitState_1
        INC       DPTR
        MOVX      A,@DPTR
        XRL       A,R1
??initiatorSetNwkToInitState_1:
        JZ        ??initiatorSetNwkToInitState_2
// 1930   {
// 1931     NLME_SetQueuedPollRate( savedQueuedPollRate );
        ; Setup parameters for call to function NLME_SetQueuedPollRate
        MOV       DPTR,#savedQueuedPollRate
        LCALL     ?Subroutine21 & 0xFFFF
??CrossCallReturnLabel_18:
        LCALL     `??NLME_SetQueuedPollRate::?relay`; Banked call to: NLME_SetQueuedPollRate
// 1932     savedQueuedPollRate = QUEUED_POLL_RATE;
        MOV       DPTR,#savedQueuedPollRate
        MOV       A,#0x64
        MOVX      @DPTR,A
        INC       DPTR
        CLR       A
        MOVX      @DPTR,A
// 1933   }
// 1934 
// 1935   if ( savedResponsePollRate != zgResponsePollRate )
??initiatorSetNwkToInitState_2:
        MOV       DPTR,#savedResponsePollRate
        LCALL     ??Subroutine63_0 & 0xFFFF
??CrossCallReturnLabel_147:
        MOV       DPTR,#zgResponsePollRate
        MOVX      A,@DPTR
        XRL       A,R0
        JNZ       ??initiatorSetNwkToInitState_3
        INC       DPTR
        MOVX      A,@DPTR
        XRL       A,R1
??initiatorSetNwkToInitState_3:
        JZ        ??initiatorSetNwkToInitState_4
// 1936   {
// 1937     NLME_SetResponseRate( savedResponsePollRate );
        ; Setup parameters for call to function NLME_SetResponseRate
        MOV       DPTR,#savedResponsePollRate
        LCALL     ?Subroutine21 & 0xFFFF
??CrossCallReturnLabel_19:
        LCALL     `??NLME_SetResponseRate::?relay`; Banked call to: NLME_SetResponseRate
// 1938     savedResponsePollRate = RESPONSE_POLL_RATE;
        MOV       DPTR,#savedResponsePollRate
        MOV       A,#0x64
        MOVX      @DPTR,A
        INC       DPTR
        CLR       A
        MOVX      @DPTR,A
// 1939   }
// 1940 }
??initiatorSetNwkToInitState_4:
        LJMP      ??Subroutine61_0 & 0xFFFF
          CFI EndBlock cfiBlock371

        RSEG BANKED_CODE:HUGECODE:NOROOT(0)
?Subroutine21:
          CFI Block cfiCond372 Using cfiCommon0
          CFI Function initiatorDeviceInfoRspCB
          CFI Conditional ??CrossCallReturnLabel_16
          CFI R6 load(1, XDATA, add(CFA_XSP16, literal(-20)))
          CFI VB load(1, XDATA, add(CFA_XSP16, literal(-19)))
          CFI V0 load(1, XDATA, add(CFA_XSP16, literal(-18)))
          CFI V1 load(1, XDATA, add(CFA_XSP16, literal(-17)))
          CFI V2 load(1, XDATA, add(CFA_XSP16, literal(-16)))
          CFI V3 load(1, XDATA, add(CFA_XSP16, literal(-15)))
          CFI V4 load(1, XDATA, add(CFA_XSP16, literal(-14)))
          CFI V5 load(1, XDATA, add(CFA_XSP16, literal(-13)))
          CFI V6 load(1, XDATA, add(CFA_XSP16, literal(-12)))
          CFI V7 load(1, XDATA, add(CFA_XSP16, literal(-11)))
          CFI V8 load(1, XDATA, add(CFA_XSP16, literal(-10)))
          CFI V9 load(1, XDATA, add(CFA_XSP16, literal(-9)))
          CFI V10 load(1, XDATA, add(CFA_XSP16, literal(-8)))
          CFI V11 load(1, XDATA, add(CFA_XSP16, literal(-7)))
          CFI R7 load(1, XDATA, add(CFA_XSP16, literal(-6)))
          CFI ?RET_LOW load(1, XDATA, add(CFA_XSP16, literal(-5)))
          CFI ?RET_HIGH load(1, XDATA, add(CFA_XSP16, literal(-4)))
          CFI ?BRET_EXT load(1, XDATA, add(CFA_XSP16, literal(-3)))
          CFI DPL0 load(1, XDATA, add(CFA_XSP16, literal(-2)))
          CFI DPH0 load(1, XDATA, add(CFA_XSP16, literal(-1)))
          CFI CFA_SP SP+-2
          CFI CFA_XSP16 add(XSP16, 58)
          CFI Block cfiCond373 Using cfiCommon0
          CFI (cfiCond373) Function initiatorProcessStateChange
          CFI (cfiCond373) Conditional ??CrossCallReturnLabel_17
          CFI (cfiCond373) R6 load(1, XDATA, add(CFA_XSP16, literal(-10)))
          CFI (cfiCond373) VB load(1, XDATA, add(CFA_XSP16, literal(-9)))
          CFI (cfiCond373) V0 load(1, XDATA, add(CFA_XSP16, literal(-8)))
          CFI (cfiCond373) V1 load(1, XDATA, add(CFA_XSP16, literal(-7)))
          CFI (cfiCond373) R7 load(1, XDATA, add(CFA_XSP16, literal(-6)))
          CFI (cfiCond373) ?RET_LOW load(1, XDATA, add(CFA_XSP16, literal(-5)))
          CFI (cfiCond373) ?RET_HIGH load(1, XDATA, add(CFA_XSP16, literal(-4)))
          CFI (cfiCond373) ?BRET_EXT load(1, XDATA, add(CFA_XSP16, literal(-3)))
          CFI (cfiCond373) DPL0 load(1, XDATA, add(CFA_XSP16, literal(-2)))
          CFI (cfiCond373) DPH0 load(1, XDATA, add(CFA_XSP16, literal(-1)))
          CFI (cfiCond373) CFA_SP SP+-2
          CFI (cfiCond373) CFA_XSP16 add(XSP16, 10)
          CFI Block cfiCond374 Using cfiCommon0
          CFI (cfiCond374) Function initiatorSetNwkToInitState
          CFI (cfiCond374) Conditional ??CrossCallReturnLabel_18
          CFI (cfiCond374) R6 load(1, XDATA, add(CFA_XSP16, literal(-12)))
          CFI (cfiCond374) VB load(1, XDATA, add(CFA_XSP16, literal(-11)))
          CFI (cfiCond374) V0 load(1, XDATA, add(CFA_XSP16, literal(-10)))
          CFI (cfiCond374) V1 load(1, XDATA, add(CFA_XSP16, literal(-9)))
          CFI (cfiCond374) V2 load(1, XDATA, add(CFA_XSP16, literal(-8)))
          CFI (cfiCond374) V3 load(1, XDATA, add(CFA_XSP16, literal(-7)))
          CFI (cfiCond374) R7 load(1, XDATA, add(CFA_XSP16, literal(-6)))
          CFI (cfiCond374) ?RET_LOW load(1, XDATA, add(CFA_XSP16, literal(-5)))
          CFI (cfiCond374) ?RET_HIGH load(1, XDATA, add(CFA_XSP16, literal(-4)))
          CFI (cfiCond374) ?BRET_EXT load(1, XDATA, add(CFA_XSP16, literal(-3)))
          CFI (cfiCond374) DPL0 load(1, XDATA, add(CFA_XSP16, literal(-2)))
          CFI (cfiCond374) DPH0 load(1, XDATA, add(CFA_XSP16, literal(-1)))
          CFI (cfiCond374) CFA_SP SP+-2
          CFI (cfiCond374) CFA_XSP16 add(XSP16, 12)
          CFI Block cfiCond375 Using cfiCommon0
          CFI (cfiCond375) Function initiatorSetNwkToInitState
          CFI (cfiCond375) Conditional ??CrossCallReturnLabel_19
          CFI (cfiCond375) R6 load(1, XDATA, add(CFA_XSP16, literal(-12)))
          CFI (cfiCond375) VB load(1, XDATA, add(CFA_XSP16, literal(-11)))
          CFI (cfiCond375) V0 load(1, XDATA, add(CFA_XSP16, literal(-10)))
          CFI (cfiCond375) V1 load(1, XDATA, add(CFA_XSP16, literal(-9)))
          CFI (cfiCond375) V2 load(1, XDATA, add(CFA_XSP16, literal(-8)))
          CFI (cfiCond375) V3 load(1, XDATA, add(CFA_XSP16, literal(-7)))
          CFI (cfiCond375) R7 load(1, XDATA, add(CFA_XSP16, literal(-6)))
          CFI (cfiCond375) ?RET_LOW load(1, XDATA, add(CFA_XSP16, literal(-5)))
          CFI (cfiCond375) ?RET_HIGH load(1, XDATA, add(CFA_XSP16, literal(-4)))
          CFI (cfiCond375) ?BRET_EXT load(1, XDATA, add(CFA_XSP16, literal(-3)))
          CFI (cfiCond375) DPL0 load(1, XDATA, add(CFA_XSP16, literal(-2)))
          CFI (cfiCond375) DPH0 load(1, XDATA, add(CFA_XSP16, literal(-1)))
          CFI (cfiCond375) CFA_SP SP+-2
          CFI (cfiCond375) CFA_XSP16 add(XSP16, 12)
          CFI Block cfiCond376 Using cfiCommon0
          CFI (cfiCond376) Function initiatorSendNwkJoinReq
          CFI (cfiCond376) Conditional ??CrossCallReturnLabel_20
          CFI (cfiCond376) R6 load(1, XDATA, add(CFA_XSP16, literal(-16)))
          CFI (cfiCond376) VB load(1, XDATA, add(CFA_XSP16, literal(-15)))
          CFI (cfiCond376) V0 load(1, XDATA, add(CFA_XSP16, literal(-14)))
          CFI (cfiCond376) V1 load(1, XDATA, add(CFA_XSP16, literal(-13)))
          CFI (cfiCond376) V2 load(1, XDATA, add(CFA_XSP16, literal(-12)))
          CFI (cfiCond376) V3 load(1, XDATA, add(CFA_XSP16, literal(-11)))
          CFI (cfiCond376) V4 load(1, XDATA, add(CFA_XSP16, literal(-10)))
          CFI (cfiCond376) V5 load(1, XDATA, add(CFA_XSP16, literal(-9)))
          CFI (cfiCond376) V6 load(1, XDATA, add(CFA_XSP16, literal(-8)))
          CFI (cfiCond376) V7 load(1, XDATA, add(CFA_XSP16, literal(-7)))
          CFI (cfiCond376) R7 load(1, XDATA, add(CFA_XSP16, literal(-6)))
          CFI (cfiCond376) ?RET_LOW load(1, XDATA, add(CFA_XSP16, literal(-5)))
          CFI (cfiCond376) ?RET_HIGH load(1, XDATA, add(CFA_XSP16, literal(-4)))
          CFI (cfiCond376) ?BRET_EXT load(1, XDATA, add(CFA_XSP16, literal(-3)))
          CFI (cfiCond376) DPL0 load(1, XDATA, add(CFA_XSP16, literal(-2)))
          CFI (cfiCond376) DPH0 load(1, XDATA, add(CFA_XSP16, literal(-1)))
          CFI (cfiCond376) CFA_SP SP+-2
          CFI (cfiCond376) CFA_XSP16 add(XSP16, 16)
          CFI Block cfiPicker377 Using cfiCommon1
          CFI (cfiPicker377) NoFunction
          CFI (cfiPicker377) Picker
        LCALL     ?Subroutine42 & 0xFFFF
??CrossCallReturnLabel_68:
        RET
          CFI EndBlock cfiCond372
          CFI EndBlock cfiCond373
          CFI EndBlock cfiCond374
          CFI EndBlock cfiCond375
          CFI EndBlock cfiCond376
          CFI EndBlock cfiPicker377

        RSEG BANKED_CODE:HUGECODE:NOROOT(0)
?Subroutine42:
          CFI Block cfiCond378 Using cfiCommon0
          CFI Function touchLinkInitiator_event_loop
          CFI Conditional ??CrossCallReturnLabel_67, ??CrossCallReturnLabel_11
          CFI R6 load(1, XDATA, add(CFA_XSP16, literal(-16)))
          CFI VB load(1, XDATA, add(CFA_XSP16, literal(-15)))
          CFI V0 load(1, XDATA, add(CFA_XSP16, literal(-14)))
          CFI V1 load(1, XDATA, add(CFA_XSP16, literal(-13)))
          CFI V2 load(1, XDATA, add(CFA_XSP16, literal(-12)))
          CFI V3 load(1, XDATA, add(CFA_XSP16, literal(-11)))
          CFI V4 load(1, XDATA, add(CFA_XSP16, literal(-10)))
          CFI V5 load(1, XDATA, add(CFA_XSP16, literal(-9)))
          CFI V6 load(1, XDATA, add(CFA_XSP16, literal(-8)))
          CFI V7 load(1, XDATA, add(CFA_XSP16, literal(-7)))
          CFI R7 load(1, XDATA, add(CFA_XSP16, literal(-6)))
          CFI ?RET_LOW load(1, XDATA, add(CFA_XSP16, literal(-5)))
          CFI ?RET_HIGH load(1, XDATA, add(CFA_XSP16, literal(-4)))
          CFI ?BRET_EXT load(1, XDATA, add(CFA_XSP16, literal(-3)))
          CFI DPL0 load(1, XDATA, add(CFA_XSP16, literal(-2)))
          CFI DPH0 load(1, XDATA, add(CFA_XSP16, literal(-1)))
          CFI CFA_SP SP+-4
          CFI CFA_XSP16 add(XSP16, 79)
          CFI Block cfiCond379 Using cfiCommon0
          CFI (cfiCond379) Function initiatorNwkJoinReqCB
          CFI (cfiCond379) Conditional ??CrossCallReturnLabel_67, ??CrossCallReturnLabel_12
          CFI (cfiCond379) R6 load(1, XDATA, add(CFA_XSP16, literal(-16)))
          CFI (cfiCond379) VB load(1, XDATA, add(CFA_XSP16, literal(-15)))
          CFI (cfiCond379) V0 load(1, XDATA, add(CFA_XSP16, literal(-14)))
          CFI (cfiCond379) V1 load(1, XDATA, add(CFA_XSP16, literal(-13)))
          CFI (cfiCond379) V2 load(1, XDATA, add(CFA_XSP16, literal(-12)))
          CFI (cfiCond379) V3 load(1, XDATA, add(CFA_XSP16, literal(-11)))
          CFI (cfiCond379) V4 load(1, XDATA, add(CFA_XSP16, literal(-10)))
          CFI (cfiCond379) V5 load(1, XDATA, add(CFA_XSP16, literal(-9)))
          CFI (cfiCond379) V6 load(1, XDATA, add(CFA_XSP16, literal(-8)))
          CFI (cfiCond379) V7 load(1, XDATA, add(CFA_XSP16, literal(-7)))
          CFI (cfiCond379) R7 load(1, XDATA, add(CFA_XSP16, literal(-6)))
          CFI (cfiCond379) ?RET_LOW load(1, XDATA, add(CFA_XSP16, literal(-5)))
          CFI (cfiCond379) ?RET_HIGH load(1, XDATA, add(CFA_XSP16, literal(-4)))
          CFI (cfiCond379) ?BRET_EXT load(1, XDATA, add(CFA_XSP16, literal(-3)))
          CFI (cfiCond379) DPL0 load(1, XDATA, add(CFA_XSP16, literal(-2)))
          CFI (cfiCond379) DPH0 load(1, XDATA, add(CFA_XSP16, literal(-1)))
          CFI (cfiCond379) CFA_SP SP+-4
          CFI (cfiCond379) CFA_XSP16 add(XSP16, 37)
          CFI Block cfiCond380 Using cfiCommon0
          CFI (cfiCond380) Function initiatorSelectNwkParams
          CFI (cfiCond380) Conditional ??CrossCallReturnLabel_64, ??CrossCallReturnLabel_0
          CFI (cfiCond380) DPL0 Frame(CFA_SP, 4)
          CFI (cfiCond380) DPH0 Frame(CFA_SP, 5)
          CFI (cfiCond380) CFA_SP SP+-9
          CFI Block cfiCond381 Using cfiCommon0
          CFI (cfiCond381) Function initiatorNwkJoinReqCB
          CFI (cfiCond381) Conditional ??CrossCallReturnLabel_64, ??CrossCallReturnLabel_1
          CFI (cfiCond381) R6 load(1, XDATA, add(CFA_XSP16, literal(-16)))
          CFI (cfiCond381) VB load(1, XDATA, add(CFA_XSP16, literal(-15)))
          CFI (cfiCond381) V0 load(1, XDATA, add(CFA_XSP16, literal(-14)))
          CFI (cfiCond381) V1 load(1, XDATA, add(CFA_XSP16, literal(-13)))
          CFI (cfiCond381) V2 load(1, XDATA, add(CFA_XSP16, literal(-12)))
          CFI (cfiCond381) V3 load(1, XDATA, add(CFA_XSP16, literal(-11)))
          CFI (cfiCond381) V4 load(1, XDATA, add(CFA_XSP16, literal(-10)))
          CFI (cfiCond381) V5 load(1, XDATA, add(CFA_XSP16, literal(-9)))
          CFI (cfiCond381) V6 load(1, XDATA, add(CFA_XSP16, literal(-8)))
          CFI (cfiCond381) V7 load(1, XDATA, add(CFA_XSP16, literal(-7)))
          CFI (cfiCond381) R7 load(1, XDATA, add(CFA_XSP16, literal(-6)))
          CFI (cfiCond381) ?RET_LOW load(1, XDATA, add(CFA_XSP16, literal(-5)))
          CFI (cfiCond381) ?RET_HIGH load(1, XDATA, add(CFA_XSP16, literal(-4)))
          CFI (cfiCond381) ?BRET_EXT load(1, XDATA, add(CFA_XSP16, literal(-3)))
          CFI (cfiCond381) DPL0 load(1, XDATA, add(CFA_XSP16, literal(-2)))
          CFI (cfiCond381) DPH0 load(1, XDATA, add(CFA_XSP16, literal(-1)))
          CFI (cfiCond381) CFA_SP SP+-4
          CFI (cfiCond381) CFA_XSP16 add(XSP16, 33)
          CFI Block cfiCond382 Using cfiCommon0
          CFI (cfiCond382) Function initiatorReJoinNwk
          CFI (cfiCond382) Conditional ??CrossCallReturnLabel_64, ??CrossCallReturnLabel_2
          CFI (cfiCond382) R6 load(1, XDATA, add(CFA_XSP16, literal(-9)))
          CFI (cfiCond382) VB load(1, XDATA, add(CFA_XSP16, literal(-8)))
          CFI (cfiCond382) V0 load(1, XDATA, add(CFA_XSP16, literal(-7)))
          CFI (cfiCond382) R7 load(1, XDATA, add(CFA_XSP16, literal(-6)))
          CFI (cfiCond382) ?RET_LOW load(1, XDATA, add(CFA_XSP16, literal(-5)))
          CFI (cfiCond382) ?RET_HIGH load(1, XDATA, add(CFA_XSP16, literal(-4)))
          CFI (cfiCond382) ?BRET_EXT load(1, XDATA, add(CFA_XSP16, literal(-3)))
          CFI (cfiCond382) DPL0 load(1, XDATA, add(CFA_XSP16, literal(-2)))
          CFI (cfiCond382) DPH0 load(1, XDATA, add(CFA_XSP16, literal(-1)))
          CFI (cfiCond382) CFA_SP SP+-4
          CFI (cfiCond382) CFA_XSP16 add(XSP16, 9)
          CFI Block cfiCond383 Using cfiCommon0
          CFI (cfiCond383) Function initiatorProcessStateChange
          CFI (cfiCond383) Conditional ??CrossCallReturnLabel_66, ??CrossCallReturnLabel_9
          CFI (cfiCond383) R6 load(1, XDATA, add(CFA_XSP16, literal(-10)))
          CFI (cfiCond383) VB load(1, XDATA, add(CFA_XSP16, literal(-9)))
          CFI (cfiCond383) V0 load(1, XDATA, add(CFA_XSP16, literal(-8)))
          CFI (cfiCond383) V1 load(1, XDATA, add(CFA_XSP16, literal(-7)))
          CFI (cfiCond383) R7 load(1, XDATA, add(CFA_XSP16, literal(-6)))
          CFI (cfiCond383) ?RET_LOW load(1, XDATA, add(CFA_XSP16, literal(-5)))
          CFI (cfiCond383) ?RET_HIGH load(1, XDATA, add(CFA_XSP16, literal(-4)))
          CFI (cfiCond383) ?BRET_EXT load(1, XDATA, add(CFA_XSP16, literal(-3)))
          CFI (cfiCond383) DPL0 load(1, XDATA, add(CFA_XSP16, literal(-2)))
          CFI (cfiCond383) DPH0 load(1, XDATA, add(CFA_XSP16, literal(-1)))
          CFI (cfiCond383) CFA_SP SP+-4
          CFI (cfiCond383) CFA_XSP16 add(XSP16, 10)
          CFI Block cfiCond384 Using cfiCommon0
          CFI (cfiCond384) Function initiatorProcessStateChange
          CFI (cfiCond384) Conditional ??CrossCallReturnLabel_66, ??CrossCallReturnLabel_10
          CFI (cfiCond384) R6 load(1, XDATA, add(CFA_XSP16, literal(-10)))
          CFI (cfiCond384) VB load(1, XDATA, add(CFA_XSP16, literal(-9)))
          CFI (cfiCond384) V0 load(1, XDATA, add(CFA_XSP16, literal(-8)))
          CFI (cfiCond384) V1 load(1, XDATA, add(CFA_XSP16, literal(-7)))
          CFI (cfiCond384) R7 load(1, XDATA, add(CFA_XSP16, literal(-6)))
          CFI (cfiCond384) ?RET_LOW load(1, XDATA, add(CFA_XSP16, literal(-5)))
          CFI (cfiCond384) ?RET_HIGH load(1, XDATA, add(CFA_XSP16, literal(-4)))
          CFI (cfiCond384) ?BRET_EXT load(1, XDATA, add(CFA_XSP16, literal(-3)))
          CFI (cfiCond384) DPL0 load(1, XDATA, add(CFA_XSP16, literal(-2)))
          CFI (cfiCond384) DPH0 load(1, XDATA, add(CFA_XSP16, literal(-1)))
          CFI (cfiCond384) CFA_SP SP+-4
          CFI (cfiCond384) CFA_XSP16 add(XSP16, 10)
          CFI Block cfiCond385 Using cfiCommon0
          CFI (cfiCond385) Function initiatorDeviceInfoRspCB
          CFI (cfiCond385) Conditional ??CrossCallReturnLabel_68, ??CrossCallReturnLabel_16
          CFI (cfiCond385) R6 load(1, XDATA, add(CFA_XSP16, literal(-20)))
          CFI (cfiCond385) VB load(1, XDATA, add(CFA_XSP16, literal(-19)))
          CFI (cfiCond385) V0 load(1, XDATA, add(CFA_XSP16, literal(-18)))
          CFI (cfiCond385) V1 load(1, XDATA, add(CFA_XSP16, literal(-17)))
          CFI (cfiCond385) V2 load(1, XDATA, add(CFA_XSP16, literal(-16)))
          CFI (cfiCond385) V3 load(1, XDATA, add(CFA_XSP16, literal(-15)))
          CFI (cfiCond385) V4 load(1, XDATA, add(CFA_XSP16, literal(-14)))
          CFI (cfiCond385) V5 load(1, XDATA, add(CFA_XSP16, literal(-13)))
          CFI (cfiCond385) V6 load(1, XDATA, add(CFA_XSP16, literal(-12)))
          CFI (cfiCond385) V7 load(1, XDATA, add(CFA_XSP16, literal(-11)))
          CFI (cfiCond385) V8 load(1, XDATA, add(CFA_XSP16, literal(-10)))
          CFI (cfiCond385) V9 load(1, XDATA, add(CFA_XSP16, literal(-9)))
          CFI (cfiCond385) V10 load(1, XDATA, add(CFA_XSP16, literal(-8)))
          CFI (cfiCond385) V11 load(1, XDATA, add(CFA_XSP16, literal(-7)))
          CFI (cfiCond385) R7 load(1, XDATA, add(CFA_XSP16, literal(-6)))
          CFI (cfiCond385) ?RET_LOW load(1, XDATA, add(CFA_XSP16, literal(-5)))
          CFI (cfiCond385) ?RET_HIGH load(1, XDATA, add(CFA_XSP16, literal(-4)))
          CFI (cfiCond385) ?BRET_EXT load(1, XDATA, add(CFA_XSP16, literal(-3)))
          CFI (cfiCond385) DPL0 load(1, XDATA, add(CFA_XSP16, literal(-2)))
          CFI (cfiCond385) DPH0 load(1, XDATA, add(CFA_XSP16, literal(-1)))
          CFI (cfiCond385) CFA_SP SP+-4
          CFI (cfiCond385) CFA_XSP16 add(XSP16, 58)
          CFI Block cfiCond386 Using cfiCommon0
          CFI (cfiCond386) Function initiatorProcessStateChange
          CFI (cfiCond386) Conditional ??CrossCallReturnLabel_68, ??CrossCallReturnLabel_17
          CFI (cfiCond386) R6 load(1, XDATA, add(CFA_XSP16, literal(-10)))
          CFI (cfiCond386) VB load(1, XDATA, add(CFA_XSP16, literal(-9)))
          CFI (cfiCond386) V0 load(1, XDATA, add(CFA_XSP16, literal(-8)))
          CFI (cfiCond386) V1 load(1, XDATA, add(CFA_XSP16, literal(-7)))
          CFI (cfiCond386) R7 load(1, XDATA, add(CFA_XSP16, literal(-6)))
          CFI (cfiCond386) ?RET_LOW load(1, XDATA, add(CFA_XSP16, literal(-5)))
          CFI (cfiCond386) ?RET_HIGH load(1, XDATA, add(CFA_XSP16, literal(-4)))
          CFI (cfiCond386) ?BRET_EXT load(1, XDATA, add(CFA_XSP16, literal(-3)))
          CFI (cfiCond386) DPL0 load(1, XDATA, add(CFA_XSP16, literal(-2)))
          CFI (cfiCond386) DPH0 load(1, XDATA, add(CFA_XSP16, literal(-1)))
          CFI (cfiCond386) CFA_SP SP+-4
          CFI (cfiCond386) CFA_XSP16 add(XSP16, 10)
          CFI Block cfiCond387 Using cfiCommon0
          CFI (cfiCond387) Function initiatorSetNwkToInitState
          CFI (cfiCond387) Conditional ??CrossCallReturnLabel_68, ??CrossCallReturnLabel_18
          CFI (cfiCond387) R6 load(1, XDATA, add(CFA_XSP16, literal(-12)))
          CFI (cfiCond387) VB load(1, XDATA, add(CFA_XSP16, literal(-11)))
          CFI (cfiCond387) V0 load(1, XDATA, add(CFA_XSP16, literal(-10)))
          CFI (cfiCond387) V1 load(1, XDATA, add(CFA_XSP16, literal(-9)))
          CFI (cfiCond387) V2 load(1, XDATA, add(CFA_XSP16, literal(-8)))
          CFI (cfiCond387) V3 load(1, XDATA, add(CFA_XSP16, literal(-7)))
          CFI (cfiCond387) R7 load(1, XDATA, add(CFA_XSP16, literal(-6)))
          CFI (cfiCond387) ?RET_LOW load(1, XDATA, add(CFA_XSP16, literal(-5)))
          CFI (cfiCond387) ?RET_HIGH load(1, XDATA, add(CFA_XSP16, literal(-4)))
          CFI (cfiCond387) ?BRET_EXT load(1, XDATA, add(CFA_XSP16, literal(-3)))
          CFI (cfiCond387) DPL0 load(1, XDATA, add(CFA_XSP16, literal(-2)))
          CFI (cfiCond387) DPH0 load(1, XDATA, add(CFA_XSP16, literal(-1)))
          CFI (cfiCond387) CFA_SP SP+-4
          CFI (cfiCond387) CFA_XSP16 add(XSP16, 12)
          CFI Block cfiCond388 Using cfiCommon0
          CFI (cfiCond388) Function initiatorSetNwkToInitState
          CFI (cfiCond388) Conditional ??CrossCallReturnLabel_68, ??CrossCallReturnLabel_19
          CFI (cfiCond388) R6 load(1, XDATA, add(CFA_XSP16, literal(-12)))
          CFI (cfiCond388) VB load(1, XDATA, add(CFA_XSP16, literal(-11)))
          CFI (cfiCond388) V0 load(1, XDATA, add(CFA_XSP16, literal(-10)))
          CFI (cfiCond388) V1 load(1, XDATA, add(CFA_XSP16, literal(-9)))
          CFI (cfiCond388) V2 load(1, XDATA, add(CFA_XSP16, literal(-8)))
          CFI (cfiCond388) V3 load(1, XDATA, add(CFA_XSP16, literal(-7)))
          CFI (cfiCond388) R7 load(1, XDATA, add(CFA_XSP16, literal(-6)))
          CFI (cfiCond388) ?RET_LOW load(1, XDATA, add(CFA_XSP16, literal(-5)))
          CFI (cfiCond388) ?RET_HIGH load(1, XDATA, add(CFA_XSP16, literal(-4)))
          CFI (cfiCond388) ?BRET_EXT load(1, XDATA, add(CFA_XSP16, literal(-3)))
          CFI (cfiCond388) DPL0 load(1, XDATA, add(CFA_XSP16, literal(-2)))
          CFI (cfiCond388) DPH0 load(1, XDATA, add(CFA_XSP16, literal(-1)))
          CFI (cfiCond388) CFA_SP SP+-4
          CFI (cfiCond388) CFA_XSP16 add(XSP16, 12)
          CFI Block cfiCond389 Using cfiCommon0
          CFI (cfiCond389) Function initiatorSendNwkJoinReq
          CFI (cfiCond389) Conditional ??CrossCallReturnLabel_68, ??CrossCallReturnLabel_20
          CFI (cfiCond389) R6 load(1, XDATA, add(CFA_XSP16, literal(-16)))
          CFI (cfiCond389) VB load(1, XDATA, add(CFA_XSP16, literal(-15)))
          CFI (cfiCond389) V0 load(1, XDATA, add(CFA_XSP16, literal(-14)))
          CFI (cfiCond389) V1 load(1, XDATA, add(CFA_XSP16, literal(-13)))
          CFI (cfiCond389) V2 load(1, XDATA, add(CFA_XSP16, literal(-12)))
          CFI (cfiCond389) V3 load(1, XDATA, add(CFA_XSP16, literal(-11)))
          CFI (cfiCond389) V4 load(1, XDATA, add(CFA_XSP16, literal(-10)))
          CFI (cfiCond389) V5 load(1, XDATA, add(CFA_XSP16, literal(-9)))
          CFI (cfiCond389) V6 load(1, XDATA, add(CFA_XSP16, literal(-8)))
          CFI (cfiCond389) V7 load(1, XDATA, add(CFA_XSP16, literal(-7)))
          CFI (cfiCond389) R7 load(1, XDATA, add(CFA_XSP16, literal(-6)))
          CFI (cfiCond389) ?RET_LOW load(1, XDATA, add(CFA_XSP16, literal(-5)))
          CFI (cfiCond389) ?RET_HIGH load(1, XDATA, add(CFA_XSP16, literal(-4)))
          CFI (cfiCond389) ?BRET_EXT load(1, XDATA, add(CFA_XSP16, literal(-3)))
          CFI (cfiCond389) DPL0 load(1, XDATA, add(CFA_XSP16, literal(-2)))
          CFI (cfiCond389) DPH0 load(1, XDATA, add(CFA_XSP16, literal(-1)))
          CFI (cfiCond389) CFA_SP SP+-4
          CFI (cfiCond389) CFA_XSP16 add(XSP16, 16)
          CFI Block cfiCond390 Using cfiCommon0
          CFI (cfiCond390) Function initiatorScanRspCB
          CFI (cfiCond390) Conditional ??CrossCallReturnLabel_65, ??CrossCallReturnLabel_5
          CFI (cfiCond390) R6 load(1, XDATA, add(CFA_XSP16, literal(-12)))
          CFI (cfiCond390) VB load(1, XDATA, add(CFA_XSP16, literal(-11)))
          CFI (cfiCond390) V0 load(1, XDATA, add(CFA_XSP16, literal(-10)))
          CFI (cfiCond390) V1 load(1, XDATA, add(CFA_XSP16, literal(-9)))
          CFI (cfiCond390) V2 load(1, XDATA, add(CFA_XSP16, literal(-8)))
          CFI (cfiCond390) V3 load(1, XDATA, add(CFA_XSP16, literal(-7)))
          CFI (cfiCond390) R7 load(1, XDATA, add(CFA_XSP16, literal(-6)))
          CFI (cfiCond390) ?RET_LOW load(1, XDATA, add(CFA_XSP16, literal(-5)))
          CFI (cfiCond390) ?RET_HIGH load(1, XDATA, add(CFA_XSP16, literal(-4)))
          CFI (cfiCond390) ?BRET_EXT load(1, XDATA, add(CFA_XSP16, literal(-3)))
          CFI (cfiCond390) DPL0 load(1, XDATA, add(CFA_XSP16, literal(-2)))
          CFI (cfiCond390) DPH0 load(1, XDATA, add(CFA_XSP16, literal(-1)))
          CFI (cfiCond390) CFA_SP SP+-4
          CFI (cfiCond390) CFA_XSP16 add(XSP16, 17)
          CFI Block cfiCond391 Using cfiCommon0
          CFI (cfiCond391) Function initiatorSendNwkJoinReq
          CFI (cfiCond391) Conditional ??CrossCallReturnLabel_65, ??CrossCallReturnLabel_6
          CFI (cfiCond391) R6 load(1, XDATA, add(CFA_XSP16, literal(-16)))
          CFI (cfiCond391) VB load(1, XDATA, add(CFA_XSP16, literal(-15)))
          CFI (cfiCond391) V0 load(1, XDATA, add(CFA_XSP16, literal(-14)))
          CFI (cfiCond391) V1 load(1, XDATA, add(CFA_XSP16, literal(-13)))
          CFI (cfiCond391) V2 load(1, XDATA, add(CFA_XSP16, literal(-12)))
          CFI (cfiCond391) V3 load(1, XDATA, add(CFA_XSP16, literal(-11)))
          CFI (cfiCond391) V4 load(1, XDATA, add(CFA_XSP16, literal(-10)))
          CFI (cfiCond391) V5 load(1, XDATA, add(CFA_XSP16, literal(-9)))
          CFI (cfiCond391) V6 load(1, XDATA, add(CFA_XSP16, literal(-8)))
          CFI (cfiCond391) V7 load(1, XDATA, add(CFA_XSP16, literal(-7)))
          CFI (cfiCond391) R7 load(1, XDATA, add(CFA_XSP16, literal(-6)))
          CFI (cfiCond391) ?RET_LOW load(1, XDATA, add(CFA_XSP16, literal(-5)))
          CFI (cfiCond391) ?RET_HIGH load(1, XDATA, add(CFA_XSP16, literal(-4)))
          CFI (cfiCond391) ?BRET_EXT load(1, XDATA, add(CFA_XSP16, literal(-3)))
          CFI (cfiCond391) DPL0 load(1, XDATA, add(CFA_XSP16, literal(-2)))
          CFI (cfiCond391) DPH0 load(1, XDATA, add(CFA_XSP16, literal(-1)))
          CFI (cfiCond391) CFA_SP SP+-4
          CFI (cfiCond391) CFA_XSP16 add(XSP16, 16)
          CFI Block cfiPicker392 Using cfiCommon1
          CFI (cfiPicker392) NoFunction
          CFI (cfiPicker392) Picker
        MOVX      A,@DPTR
        MOV       R2,A
        INC       DPTR
        MOVX      A,@DPTR
        MOV       R3,A
        RET
          CFI EndBlock cfiCond378
          CFI EndBlock cfiCond379
          CFI EndBlock cfiCond380
          CFI EndBlock cfiCond381
          CFI EndBlock cfiCond382
          CFI EndBlock cfiCond383
          CFI EndBlock cfiCond384
          CFI EndBlock cfiCond385
          CFI EndBlock cfiCond386
          CFI EndBlock cfiCond387
          CFI EndBlock cfiCond388
          CFI EndBlock cfiCond389
          CFI EndBlock cfiCond390
          CFI EndBlock cfiCond391
          CFI EndBlock cfiPicker392

        RSEG BANKED_CODE:HUGECODE:NOROOT(0)
?Subroutine20:
          CFI Block cfiCond393 Using cfiCommon0
          CFI Function touchLinkInitiator_event_loop
          CFI Conditional ??CrossCallReturnLabel_13
          CFI R6 load(1, XDATA, add(CFA_XSP16, literal(-16)))
          CFI VB load(1, XDATA, add(CFA_XSP16, literal(-15)))
          CFI V0 load(1, XDATA, add(CFA_XSP16, literal(-14)))
          CFI V1 load(1, XDATA, add(CFA_XSP16, literal(-13)))
          CFI V2 load(1, XDATA, add(CFA_XSP16, literal(-12)))
          CFI V3 load(1, XDATA, add(CFA_XSP16, literal(-11)))
          CFI V4 load(1, XDATA, add(CFA_XSP16, literal(-10)))
          CFI V5 load(1, XDATA, add(CFA_XSP16, literal(-9)))
          CFI V6 load(1, XDATA, add(CFA_XSP16, literal(-8)))
          CFI V7 load(1, XDATA, add(CFA_XSP16, literal(-7)))
          CFI R7 load(1, XDATA, add(CFA_XSP16, literal(-6)))
          CFI ?RET_LOW load(1, XDATA, add(CFA_XSP16, literal(-5)))
          CFI ?RET_HIGH load(1, XDATA, add(CFA_XSP16, literal(-4)))
          CFI ?BRET_EXT load(1, XDATA, add(CFA_XSP16, literal(-3)))
          CFI DPL0 load(1, XDATA, add(CFA_XSP16, literal(-2)))
          CFI DPH0 load(1, XDATA, add(CFA_XSP16, literal(-1)))
          CFI CFA_SP SP+-2
          CFI CFA_XSP16 add(XSP16, 75)
          CFI Block cfiCond394 Using cfiCommon0
          CFI (cfiCond394) Function initiatorSetNwkToInitState
          CFI (cfiCond394) Conditional ??CrossCallReturnLabel_14
          CFI (cfiCond394) R6 load(1, XDATA, add(CFA_XSP16, literal(-12)))
          CFI (cfiCond394) VB load(1, XDATA, add(CFA_XSP16, literal(-11)))
          CFI (cfiCond394) V0 load(1, XDATA, add(CFA_XSP16, literal(-10)))
          CFI (cfiCond394) V1 load(1, XDATA, add(CFA_XSP16, literal(-9)))
          CFI (cfiCond394) V2 load(1, XDATA, add(CFA_XSP16, literal(-8)))
          CFI (cfiCond394) V3 load(1, XDATA, add(CFA_XSP16, literal(-7)))
          CFI (cfiCond394) R7 load(1, XDATA, add(CFA_XSP16, literal(-6)))
          CFI (cfiCond394) ?RET_LOW load(1, XDATA, add(CFA_XSP16, literal(-5)))
          CFI (cfiCond394) ?RET_HIGH load(1, XDATA, add(CFA_XSP16, literal(-4)))
          CFI (cfiCond394) ?BRET_EXT load(1, XDATA, add(CFA_XSP16, literal(-3)))
          CFI (cfiCond394) DPL0 load(1, XDATA, add(CFA_XSP16, literal(-2)))
          CFI (cfiCond394) DPH0 load(1, XDATA, add(CFA_XSP16, literal(-1)))
          CFI (cfiCond394) CFA_SP SP+-2
          CFI (cfiCond394) CFA_XSP16 add(XSP16, 12)
          CFI Block cfiCond395 Using cfiCommon0
          CFI (cfiCond395) Function initiatorSendNwkJoinReq
          CFI (cfiCond395) Conditional ??CrossCallReturnLabel_15
          CFI (cfiCond395) R6 load(1, XDATA, add(CFA_XSP16, literal(-16)))
          CFI (cfiCond395) VB load(1, XDATA, add(CFA_XSP16, literal(-15)))
          CFI (cfiCond395) V0 load(1, XDATA, add(CFA_XSP16, literal(-14)))
          CFI (cfiCond395) V1 load(1, XDATA, add(CFA_XSP16, literal(-13)))
          CFI (cfiCond395) V2 load(1, XDATA, add(CFA_XSP16, literal(-12)))
          CFI (cfiCond395) V3 load(1, XDATA, add(CFA_XSP16, literal(-11)))
          CFI (cfiCond395) V4 load(1, XDATA, add(CFA_XSP16, literal(-10)))
          CFI (cfiCond395) V5 load(1, XDATA, add(CFA_XSP16, literal(-9)))
          CFI (cfiCond395) V6 load(1, XDATA, add(CFA_XSP16, literal(-8)))
          CFI (cfiCond395) V7 load(1, XDATA, add(CFA_XSP16, literal(-7)))
          CFI (cfiCond395) R7 load(1, XDATA, add(CFA_XSP16, literal(-6)))
          CFI (cfiCond395) ?RET_LOW load(1, XDATA, add(CFA_XSP16, literal(-5)))
          CFI (cfiCond395) ?RET_HIGH load(1, XDATA, add(CFA_XSP16, literal(-4)))
          CFI (cfiCond395) ?BRET_EXT load(1, XDATA, add(CFA_XSP16, literal(-3)))
          CFI (cfiCond395) DPL0 load(1, XDATA, add(CFA_XSP16, literal(-2)))
          CFI (cfiCond395) DPH0 load(1, XDATA, add(CFA_XSP16, literal(-1)))
          CFI (cfiCond395) CFA_SP SP+-2
          CFI (cfiCond395) CFA_XSP16 add(XSP16, 16)
          CFI Block cfiPicker396 Using cfiCommon1
          CFI (cfiPicker396) NoFunction
          CFI (cfiPicker396) Picker
        MOVX      A,@DPTR
        MOV       ?V0,A
        INC       DPTR
        MOVX      A,@DPTR
        MOV       ?V1,A
        RET
          CFI EndBlock cfiCond393
          CFI EndBlock cfiCond394
          CFI EndBlock cfiCond395
          CFI EndBlock cfiPicker396

        RSEG BANKED_CODE:HUGECODE:NOROOT(0)
?Subroutine17:
          CFI Block cfiCond397 Using cfiCommon0
          CFI Function touchLinkInitiator_event_loop
          CFI Conditional ??CrossCallReturnLabel_180
          CFI R6 load(1, XDATA, add(CFA_XSP16, literal(-16)))
          CFI VB load(1, XDATA, add(CFA_XSP16, literal(-15)))
          CFI V0 load(1, XDATA, add(CFA_XSP16, literal(-14)))
          CFI V1 load(1, XDATA, add(CFA_XSP16, literal(-13)))
          CFI V2 load(1, XDATA, add(CFA_XSP16, literal(-12)))
          CFI V3 load(1, XDATA, add(CFA_XSP16, literal(-11)))
          CFI V4 load(1, XDATA, add(CFA_XSP16, literal(-10)))
          CFI V5 load(1, XDATA, add(CFA_XSP16, literal(-9)))
          CFI V6 load(1, XDATA, add(CFA_XSP16, literal(-8)))
          CFI V7 load(1, XDATA, add(CFA_XSP16, literal(-7)))
          CFI R7 load(1, XDATA, add(CFA_XSP16, literal(-6)))
          CFI ?RET_LOW load(1, XDATA, add(CFA_XSP16, literal(-5)))
          CFI ?RET_HIGH load(1, XDATA, add(CFA_XSP16, literal(-4)))
          CFI ?BRET_EXT load(1, XDATA, add(CFA_XSP16, literal(-3)))
          CFI DPL0 load(1, XDATA, add(CFA_XSP16, literal(-2)))
          CFI DPH0 load(1, XDATA, add(CFA_XSP16, literal(-1)))
          CFI CFA_SP SP+-2
          CFI CFA_XSP16 add(XSP16, 75)
          CFI Block cfiCond398 Using cfiCommon0
          CFI (cfiCond398) Function touchLinkInitiator_event_loop
          CFI (cfiCond398) Conditional ??CrossCallReturnLabel_181
          CFI (cfiCond398) R6 load(1, XDATA, add(CFA_XSP16, literal(-16)))
          CFI (cfiCond398) VB load(1, XDATA, add(CFA_XSP16, literal(-15)))
          CFI (cfiCond398) V0 load(1, XDATA, add(CFA_XSP16, literal(-14)))
          CFI (cfiCond398) V1 load(1, XDATA, add(CFA_XSP16, literal(-13)))
          CFI (cfiCond398) V2 load(1, XDATA, add(CFA_XSP16, literal(-12)))
          CFI (cfiCond398) V3 load(1, XDATA, add(CFA_XSP16, literal(-11)))
          CFI (cfiCond398) V4 load(1, XDATA, add(CFA_XSP16, literal(-10)))
          CFI (cfiCond398) V5 load(1, XDATA, add(CFA_XSP16, literal(-9)))
          CFI (cfiCond398) V6 load(1, XDATA, add(CFA_XSP16, literal(-8)))
          CFI (cfiCond398) V7 load(1, XDATA, add(CFA_XSP16, literal(-7)))
          CFI (cfiCond398) R7 load(1, XDATA, add(CFA_XSP16, literal(-6)))
          CFI (cfiCond398) ?RET_LOW load(1, XDATA, add(CFA_XSP16, literal(-5)))
          CFI (cfiCond398) ?RET_HIGH load(1, XDATA, add(CFA_XSP16, literal(-4)))
          CFI (cfiCond398) ?BRET_EXT load(1, XDATA, add(CFA_XSP16, literal(-3)))
          CFI (cfiCond398) DPL0 load(1, XDATA, add(CFA_XSP16, literal(-2)))
          CFI (cfiCond398) DPH0 load(1, XDATA, add(CFA_XSP16, literal(-1)))
          CFI (cfiCond398) CFA_SP SP+-2
          CFI (cfiCond398) CFA_XSP16 add(XSP16, 75)
          CFI Block cfiCond399 Using cfiCommon0
          CFI (cfiCond399) Function touchLinkInitiator_event_loop
          CFI (cfiCond399) Conditional ??CrossCallReturnLabel_182
          CFI (cfiCond399) R6 load(1, XDATA, add(CFA_XSP16, literal(-16)))
          CFI (cfiCond399) VB load(1, XDATA, add(CFA_XSP16, literal(-15)))
          CFI (cfiCond399) V0 load(1, XDATA, add(CFA_XSP16, literal(-14)))
          CFI (cfiCond399) V1 load(1, XDATA, add(CFA_XSP16, literal(-13)))
          CFI (cfiCond399) V2 load(1, XDATA, add(CFA_XSP16, literal(-12)))
          CFI (cfiCond399) V3 load(1, XDATA, add(CFA_XSP16, literal(-11)))
          CFI (cfiCond399) V4 load(1, XDATA, add(CFA_XSP16, literal(-10)))
          CFI (cfiCond399) V5 load(1, XDATA, add(CFA_XSP16, literal(-9)))
          CFI (cfiCond399) V6 load(1, XDATA, add(CFA_XSP16, literal(-8)))
          CFI (cfiCond399) V7 load(1, XDATA, add(CFA_XSP16, literal(-7)))
          CFI (cfiCond399) R7 load(1, XDATA, add(CFA_XSP16, literal(-6)))
          CFI (cfiCond399) ?RET_LOW load(1, XDATA, add(CFA_XSP16, literal(-5)))
          CFI (cfiCond399) ?RET_HIGH load(1, XDATA, add(CFA_XSP16, literal(-4)))
          CFI (cfiCond399) ?BRET_EXT load(1, XDATA, add(CFA_XSP16, literal(-3)))
          CFI (cfiCond399) DPL0 load(1, XDATA, add(CFA_XSP16, literal(-2)))
          CFI (cfiCond399) DPH0 load(1, XDATA, add(CFA_XSP16, literal(-1)))
          CFI (cfiCond399) CFA_SP SP+-2
          CFI (cfiCond399) CFA_XSP16 add(XSP16, 75)
          CFI Block cfiPicker400 Using cfiCommon1
          CFI (cfiPicker400) NoFunction
          CFI (cfiPicker400) Picker
        MOV       DPTR,#selectedTarget + 52
          CFI EndBlock cfiCond397
          CFI EndBlock cfiCond398
          CFI EndBlock cfiCond399
          CFI EndBlock cfiPicker400
        REQUIRE ??Subroutine70_0
        ; // Fall through to label ??Subroutine70_0

        RSEG BANKED_CODE:HUGECODE:NOROOT(0)
??Subroutine70_0:
          CFI Block cfiCond401 Using cfiCommon0
          CFI Function initiatorNwkJoinReqCB
          CFI Conditional ??CrossCallReturnLabel_183
          CFI R6 load(1, XDATA, add(CFA_XSP16, literal(-16)))
          CFI VB load(1, XDATA, add(CFA_XSP16, literal(-15)))
          CFI V0 load(1, XDATA, add(CFA_XSP16, literal(-14)))
          CFI V1 load(1, XDATA, add(CFA_XSP16, literal(-13)))
          CFI V2 load(1, XDATA, add(CFA_XSP16, literal(-12)))
          CFI V3 load(1, XDATA, add(CFA_XSP16, literal(-11)))
          CFI V4 load(1, XDATA, add(CFA_XSP16, literal(-10)))
          CFI V5 load(1, XDATA, add(CFA_XSP16, literal(-9)))
          CFI V6 load(1, XDATA, add(CFA_XSP16, literal(-8)))
          CFI V7 load(1, XDATA, add(CFA_XSP16, literal(-7)))
          CFI R7 load(1, XDATA, add(CFA_XSP16, literal(-6)))
          CFI ?RET_LOW load(1, XDATA, add(CFA_XSP16, literal(-5)))
          CFI ?RET_HIGH load(1, XDATA, add(CFA_XSP16, literal(-4)))
          CFI ?BRET_EXT load(1, XDATA, add(CFA_XSP16, literal(-3)))
          CFI DPL0 load(1, XDATA, add(CFA_XSP16, literal(-2)))
          CFI DPH0 load(1, XDATA, add(CFA_XSP16, literal(-1)))
          CFI CFA_SP SP+-2
          CFI CFA_XSP16 add(XSP16, 33)
          CFI Block cfiCond402 Using cfiCommon0
          CFI (cfiCond402) Function initiatorSetNwkToInitState
          CFI (cfiCond402) Conditional ??CrossCallReturnLabel_184
          CFI (cfiCond402) R6 load(1, XDATA, add(CFA_XSP16, literal(-12)))
          CFI (cfiCond402) VB load(1, XDATA, add(CFA_XSP16, literal(-11)))
          CFI (cfiCond402) V0 load(1, XDATA, add(CFA_XSP16, literal(-10)))
          CFI (cfiCond402) V1 load(1, XDATA, add(CFA_XSP16, literal(-9)))
          CFI (cfiCond402) V2 load(1, XDATA, add(CFA_XSP16, literal(-8)))
          CFI (cfiCond402) V3 load(1, XDATA, add(CFA_XSP16, literal(-7)))
          CFI (cfiCond402) R7 load(1, XDATA, add(CFA_XSP16, literal(-6)))
          CFI (cfiCond402) ?RET_LOW load(1, XDATA, add(CFA_XSP16, literal(-5)))
          CFI (cfiCond402) ?RET_HIGH load(1, XDATA, add(CFA_XSP16, literal(-4)))
          CFI (cfiCond402) ?BRET_EXT load(1, XDATA, add(CFA_XSP16, literal(-3)))
          CFI (cfiCond402) DPL0 load(1, XDATA, add(CFA_XSP16, literal(-2)))
          CFI (cfiCond402) DPH0 load(1, XDATA, add(CFA_XSP16, literal(-1)))
          CFI (cfiCond402) CFA_SP SP+-2
          CFI (cfiCond402) CFA_XSP16 add(XSP16, 12)
          CFI Block cfiCond403 Using cfiCommon0
          CFI (cfiCond403) Function touchLinkInitiator_event_loop
          CFI (cfiCond403) Conditional ??CrossCallReturnLabel_180
          CFI (cfiCond403) R6 load(1, XDATA, add(CFA_XSP16, literal(-16)))
          CFI (cfiCond403) VB load(1, XDATA, add(CFA_XSP16, literal(-15)))
          CFI (cfiCond403) V0 load(1, XDATA, add(CFA_XSP16, literal(-14)))
          CFI (cfiCond403) V1 load(1, XDATA, add(CFA_XSP16, literal(-13)))
          CFI (cfiCond403) V2 load(1, XDATA, add(CFA_XSP16, literal(-12)))
          CFI (cfiCond403) V3 load(1, XDATA, add(CFA_XSP16, literal(-11)))
          CFI (cfiCond403) V4 load(1, XDATA, add(CFA_XSP16, literal(-10)))
          CFI (cfiCond403) V5 load(1, XDATA, add(CFA_XSP16, literal(-9)))
          CFI (cfiCond403) V6 load(1, XDATA, add(CFA_XSP16, literal(-8)))
          CFI (cfiCond403) V7 load(1, XDATA, add(CFA_XSP16, literal(-7)))
          CFI (cfiCond403) R7 load(1, XDATA, add(CFA_XSP16, literal(-6)))
          CFI (cfiCond403) ?RET_LOW load(1, XDATA, add(CFA_XSP16, literal(-5)))
          CFI (cfiCond403) ?RET_HIGH load(1, XDATA, add(CFA_XSP16, literal(-4)))
          CFI (cfiCond403) ?BRET_EXT load(1, XDATA, add(CFA_XSP16, literal(-3)))
          CFI (cfiCond403) DPL0 load(1, XDATA, add(CFA_XSP16, literal(-2)))
          CFI (cfiCond403) DPH0 load(1, XDATA, add(CFA_XSP16, literal(-1)))
          CFI (cfiCond403) CFA_SP SP+-2
          CFI (cfiCond403) CFA_XSP16 add(XSP16, 75)
          CFI Block cfiCond404 Using cfiCommon0
          CFI (cfiCond404) Function touchLinkInitiator_event_loop
          CFI (cfiCond404) Conditional ??CrossCallReturnLabel_181
          CFI (cfiCond404) R6 load(1, XDATA, add(CFA_XSP16, literal(-16)))
          CFI (cfiCond404) VB load(1, XDATA, add(CFA_XSP16, literal(-15)))
          CFI (cfiCond404) V0 load(1, XDATA, add(CFA_XSP16, literal(-14)))
          CFI (cfiCond404) V1 load(1, XDATA, add(CFA_XSP16, literal(-13)))
          CFI (cfiCond404) V2 load(1, XDATA, add(CFA_XSP16, literal(-12)))
          CFI (cfiCond404) V3 load(1, XDATA, add(CFA_XSP16, literal(-11)))
          CFI (cfiCond404) V4 load(1, XDATA, add(CFA_XSP16, literal(-10)))
          CFI (cfiCond404) V5 load(1, XDATA, add(CFA_XSP16, literal(-9)))
          CFI (cfiCond404) V6 load(1, XDATA, add(CFA_XSP16, literal(-8)))
          CFI (cfiCond404) V7 load(1, XDATA, add(CFA_XSP16, literal(-7)))
          CFI (cfiCond404) R7 load(1, XDATA, add(CFA_XSP16, literal(-6)))
          CFI (cfiCond404) ?RET_LOW load(1, XDATA, add(CFA_XSP16, literal(-5)))
          CFI (cfiCond404) ?RET_HIGH load(1, XDATA, add(CFA_XSP16, literal(-4)))
          CFI (cfiCond404) ?BRET_EXT load(1, XDATA, add(CFA_XSP16, literal(-3)))
          CFI (cfiCond404) DPL0 load(1, XDATA, add(CFA_XSP16, literal(-2)))
          CFI (cfiCond404) DPH0 load(1, XDATA, add(CFA_XSP16, literal(-1)))
          CFI (cfiCond404) CFA_SP SP+-2
          CFI (cfiCond404) CFA_XSP16 add(XSP16, 75)
          CFI Block cfiCond405 Using cfiCommon0
          CFI (cfiCond405) Function touchLinkInitiator_event_loop
          CFI (cfiCond405) Conditional ??CrossCallReturnLabel_182
          CFI (cfiCond405) R6 load(1, XDATA, add(CFA_XSP16, literal(-16)))
          CFI (cfiCond405) VB load(1, XDATA, add(CFA_XSP16, literal(-15)))
          CFI (cfiCond405) V0 load(1, XDATA, add(CFA_XSP16, literal(-14)))
          CFI (cfiCond405) V1 load(1, XDATA, add(CFA_XSP16, literal(-13)))
          CFI (cfiCond405) V2 load(1, XDATA, add(CFA_XSP16, literal(-12)))
          CFI (cfiCond405) V3 load(1, XDATA, add(CFA_XSP16, literal(-11)))
          CFI (cfiCond405) V4 load(1, XDATA, add(CFA_XSP16, literal(-10)))
          CFI (cfiCond405) V5 load(1, XDATA, add(CFA_XSP16, literal(-9)))
          CFI (cfiCond405) V6 load(1, XDATA, add(CFA_XSP16, literal(-8)))
          CFI (cfiCond405) V7 load(1, XDATA, add(CFA_XSP16, literal(-7)))
          CFI (cfiCond405) R7 load(1, XDATA, add(CFA_XSP16, literal(-6)))
          CFI (cfiCond405) ?RET_LOW load(1, XDATA, add(CFA_XSP16, literal(-5)))
          CFI (cfiCond405) ?RET_HIGH load(1, XDATA, add(CFA_XSP16, literal(-4)))
          CFI (cfiCond405) ?BRET_EXT load(1, XDATA, add(CFA_XSP16, literal(-3)))
          CFI (cfiCond405) DPL0 load(1, XDATA, add(CFA_XSP16, literal(-2)))
          CFI (cfiCond405) DPH0 load(1, XDATA, add(CFA_XSP16, literal(-1)))
          CFI (cfiCond405) CFA_SP SP+-2
          CFI (cfiCond405) CFA_XSP16 add(XSP16, 75)
          CFI Block cfiPicker406 Using cfiCommon1
          CFI (cfiPicker406) NoFunction
          CFI (cfiPicker406) Picker
        MOVX      A,@DPTR
        MOV       R1,A
        LCALL     `??touchLink_SetChannel::?relay`; Banked call to: touchLink_SetChannel
        RET
          CFI EndBlock cfiCond401
          CFI EndBlock cfiCond402
          CFI EndBlock cfiCond403
          CFI EndBlock cfiCond404
          CFI EndBlock cfiCond405
          CFI EndBlock cfiPicker406
// 1941 
// 1942 #if ( ZSTACK_ROUTER_BUILD )
// 1943 /*********************************************************************
// 1944  * @fn      initiatorJoinNwk
// 1945  *
// 1946  * @brief   Initiate a network join request.
// 1947  *
// 1948  * @param   void
// 1949  *
// 1950  * @return  void
// 1951  */
// 1952 static void initiatorJoinNwk( void )
// 1953 {
// 1954   // Save free ranges
// 1955   touchLink_UpdateNV( TOUCHLINK_UPDATE_NV_RANGES );
// 1956 
// 1957   // In case we're here after a leave
// 1958   touchLinkLeaveInitiated = FALSE;
// 1959 
// 1960   // Clear leave control logic
// 1961   ZDApp_LeaveCtrlReset();
// 1962 
// 1963   if ( POLL_RATE == 0 )
// 1964   {
// 1965     //allow to respond to TOUCHLINK commission utility commands after TL
// 1966     NLME_SetPollRate( TOUCHLINK_INITIATOR_TEMP_POST_TL_POLL_RATE );
// 1967     //polling should reset when TL life time expires
// 1968   }
// 1969 
// 1970   touchLinkInitiator_PermitJoin( 0 );
// 1971 
// 1972   ZDOInitDevice( 0 );
// 1973   // Perform a network rejoin request
// 1974   _NIB.nwkState = NWK_REJOINING;
// 1975   initiatorReJoinNwk( MODE_REJOIN );
// 1976 }
// 1977 #endif
// 1978 
// 1979 /*********************************************************************
// 1980  * @fn      initiatorReJoinNwk
// 1981  *
// 1982  * @brief   Send out an Rejoin Request.
// 1983  *
// 1984  * @param   startMode - MODE_REJOIN or MODE_RESUME
// 1985  *
// 1986  * @return  none
// 1987  */

        RSEG BANKED_CODE:HUGECODE:NOROOT(0)
// 1988 static void initiatorReJoinNwk( devStartModes_t startMode )
initiatorReJoinNwk:
          CFI Block cfiBlock407 Using cfiCommon0
          CFI Function initiatorReJoinNwk
        CODE
// 1989 {
        FUNCALL initiatorReJoinNwk, nwk_setStateIdle
        LOCFRAME ISTACK, 0, STACK
        LOCFRAME PSTACK, 0, STACK
        LOCFRAME XSTACK, 9, STACK
        LOCFRAME IOVERLAY, 0, STATIC
        LOCFRAME DOVERLAY, 0, STATIC
        ARGFRAME ISTACK, 0, STACK
        ARGFRAME PSTACK, 0, STACK
        ARGFRAME XSTACK, 9, STACK
        ARGFRAME IOVERLAY, 0, STATIC
        ARGFRAME DOVERLAY, 0, STATIC
        FUNCALL initiatorReJoinNwk, touchLink_SetMacNwkParams
        LOCFRAME ISTACK, 0, STACK
        LOCFRAME PSTACK, 0, STACK
        LOCFRAME XSTACK, 9, STACK
        LOCFRAME IOVERLAY, 0, STATIC
        LOCFRAME DOVERLAY, 0, STATIC
        ARGFRAME ISTACK, 0, STACK
        ARGFRAME PSTACK, 0, STACK
        ARGFRAME XSTACK, 9, STACK
        ARGFRAME IOVERLAY, 0, STATIC
        ARGFRAME DOVERLAY, 0, STATIC
        FUNCALL initiatorReJoinNwk, sAddrExtCpy
        LOCFRAME ISTACK, 0, STACK
        LOCFRAME PSTACK, 0, STACK
        LOCFRAME XSTACK, 9, STACK
        LOCFRAME IOVERLAY, 0, STATIC
        LOCFRAME DOVERLAY, 0, STATIC
        ARGFRAME ISTACK, 0, STACK
        ARGFRAME PSTACK, 0, STACK
        ARGFRAME XSTACK, 9, STACK
        ARGFRAME IOVERLAY, 0, STATIC
        ARGFRAME DOVERLAY, 0, STATIC
        FUNCALL initiatorReJoinNwk, osal_set_event
        LOCFRAME ISTACK, 0, STACK
        LOCFRAME PSTACK, 0, STACK
        LOCFRAME XSTACK, 9, STACK
        LOCFRAME IOVERLAY, 0, STATIC
        LOCFRAME DOVERLAY, 0, STATIC
        ARGFRAME ISTACK, 0, STACK
        ARGFRAME PSTACK, 0, STACK
        ARGFRAME XSTACK, 9, STACK
        ARGFRAME IOVERLAY, 0, STATIC
        ARGFRAME DOVERLAY, 0, STATIC
        MOV       A,#-0x9
        LCALL     ?BANKED_ENTER_XDATA
          CFI DPH0 load(1, XDATA, add(CFA_XSP16, literal(-1)))
          CFI DPL0 load(1, XDATA, add(CFA_XSP16, literal(-2)))
          CFI ?BRET_EXT load(1, XDATA, add(CFA_XSP16, literal(-3)))
          CFI ?RET_HIGH load(1, XDATA, add(CFA_XSP16, literal(-4)))
          CFI ?RET_LOW load(1, XDATA, add(CFA_XSP16, literal(-5)))
          CFI R7 load(1, XDATA, add(CFA_XSP16, literal(-6)))
          CFI V0 load(1, XDATA, add(CFA_XSP16, literal(-7)))
          CFI VB load(1, XDATA, add(CFA_XSP16, literal(-8)))
          CFI R6 load(1, XDATA, add(CFA_XSP16, literal(-9)))
          CFI CFA_SP SP+0
          CFI CFA_XSP16 add(XSP16, 9)
        ; Saved register size: 9
        ; Auto size: 0
        MOV       A,R1
        MOV       R6,A
// 1990   // Set NWK task to run
// 1991   nwk_setStateIdle( FALSE );
        ; Setup parameters for call to function nwk_setStateIdle
        MOV       R1,#0x0
        LCALL     `??nwk_setStateIdle::?relay`; Banked call to: nwk_setStateIdle
// 1992 
// 1993   // Configure MAC with our network parameters
// 1994   touchLink_SetMacNwkParams( _NIB.nwkDevAddress, _NIB.nwkPanId, _NIB.nwkLogicalChannel );
        ; Setup parameters for call to function touchLink_SetMacNwkParams
        LCALL     ?Subroutine9 & 0xFFFF
// 1995 
// 1996   // Use the new network paramters
// 1997   zgConfigPANID = _NIB.nwkPanId;
??CrossCallReturnLabel_2:
        MOV       DPTR,#_NIB + 33
        LCALL     ??Subroutine63_0 & 0xFFFF
??CrossCallReturnLabel_148:
        MOV       DPTR,#zgConfigPANID
        LCALL     ??Subroutine49_0 & 0xFFFF
// 1998   zgDefaultChannelList = _NIB.channelList;
??CrossCallReturnLabel_92:
        MOV       DPTR,#_NIB + 36
        LCALL     ?XLOAD_R0123
        MOV       DPTR,#zgDefaultChannelList
        LCALL     ?XSTORE_R0123
// 1999   osal_cpyExtAddr( ZDO_UseExtendedPANID, _NIB.extendedPANID );
        ; Setup parameters for call to function sAddrExtCpy
        MOV       R4,#(_NIB + 53) & 0xff
        MOV       R5,#((_NIB + 53) >> 8) & 0xff
        MOV       R2,#ZDO_UseExtendedPANID & 0xff
        MOV       R3,#(ZDO_UseExtendedPANID >> 8) & 0xff
        LCALL     `??sAddrExtCpy::?relay`; Banked call to: sAddrExtCpy
// 2000 
// 2001   devStartMode = startMode;
        MOV       A,R6
        MOV       DPTR,#devStartMode
        MOVX      @DPTR,A
// 2002 
// 2003   _tmpRejoinState = TRUE;
        MOV       DPTR,#_tmpRejoinState
        MOV       A,#0x1
        MOVX      @DPTR,A
// 2004 
// 2005   // Start the network joining process
// 2006   osal_set_event( ZDAppTaskID, ZDO_NETWORK_INIT );
        ; Setup parameters for call to function osal_set_event
        MOV       R2,A
        MOV       R3,#0x0
        MOV       DPTR,#ZDAppTaskID
        LCALL     ??Subroutine69_0 & 0xFFFF
// 2007 }
??CrossCallReturnLabel_179:
        LJMP      ??Subroutine54_0 & 0xFFFF
          CFI EndBlock cfiBlock407
// 2008 
// 2009 /*********************************************************************
// 2010  * @fn      initiatorSendScanReq
// 2011  *
// 2012  * @brief   Send out an Scan Request command on one of the TOUCHLINK channels.
// 2013  *
// 2014  * @param   freshScan - TRUE to start fresh scan, FALSE to resume existing process.
// 2015  *
// 2016  * @return  void
// 2017  */

        RSEG BANKED_CODE:HUGECODE:NOROOT(0)
// 2018 static void initiatorSendScanReq( bool freshScan )
initiatorSendScanReq:
          CFI Block cfiBlock408 Using cfiCommon0
          CFI Function initiatorSendScanReq
        CODE
// 2019 {
        FUNCALL initiatorSendScanReq, touchLink_DeviceIsInitiator
        LOCFRAME ISTACK, 0, STACK
        LOCFRAME PSTACK, 0, STACK
        LOCFRAME XSTACK, 29, STACK
        LOCFRAME IOVERLAY, 0, STATIC
        LOCFRAME DOVERLAY, 0, STATIC
        ARGFRAME ISTACK, 0, STACK
        ARGFRAME PSTACK, 0, STACK
        ARGFRAME XSTACK, 29, STACK
        ARGFRAME IOVERLAY, 0, STATIC
        ARGFRAME DOVERLAY, 0, STATIC
        FUNCALL initiatorSendScanReq, touchLink_SetChannel
        LOCFRAME ISTACK, 0, STACK
        LOCFRAME PSTACK, 0, STACK
        LOCFRAME XSTACK, 29, STACK
        LOCFRAME IOVERLAY, 0, STATIC
        LOCFRAME DOVERLAY, 0, STATIC
        ARGFRAME ISTACK, 0, STACK
        ARGFRAME PSTACK, 0, STACK
        ARGFRAME XSTACK, 29, STACK
        ARGFRAME IOVERLAY, 0, STATIC
        ARGFRAME DOVERLAY, 0, STATIC
        FUNCALL initiatorSendScanReq, bdbTL_Send_ScanReq
        LOCFRAME ISTACK, 0, STACK
        LOCFRAME PSTACK, 0, STACK
        LOCFRAME XSTACK, 30, STACK
        LOCFRAME IOVERLAY, 0, STATIC
        LOCFRAME DOVERLAY, 0, STATIC
        ARGFRAME ISTACK, 0, STACK
        ARGFRAME PSTACK, 0, STACK
        ARGFRAME XSTACK, 30, STACK
        ARGFRAME IOVERLAY, 0, STATIC
        ARGFRAME DOVERLAY, 0, STATIC
        FUNCALL initiatorSendScanReq, osal_start_timerEx
        LOCFRAME ISTACK, 0, STACK
        LOCFRAME PSTACK, 0, STACK
        LOCFRAME XSTACK, 33, STACK
        LOCFRAME IOVERLAY, 0, STATIC
        LOCFRAME DOVERLAY, 0, STATIC
        ARGFRAME ISTACK, 0, STACK
        ARGFRAME PSTACK, 0, STACK
        ARGFRAME XSTACK, 33, STACK
        ARGFRAME IOVERLAY, 0, STATIC
        ARGFRAME DOVERLAY, 0, STATIC
        FUNCALL initiatorSendScanReq, touchLinkInitiator_AbortTL
        LOCFRAME ISTACK, 0, STACK
        LOCFRAME PSTACK, 0, STACK
        LOCFRAME XSTACK, 29, STACK
        LOCFRAME IOVERLAY, 0, STATIC
        LOCFRAME DOVERLAY, 0, STATIC
        ARGFRAME ISTACK, 0, STACK
        ARGFRAME PSTACK, 0, STACK
        ARGFRAME XSTACK, 29, STACK
        ARGFRAME IOVERLAY, 0, STATIC
        ARGFRAME DOVERLAY, 0, STATIC
        REQUIRE ?V0
        MOV       A,#-0x9
        LCALL     ?BANKED_ENTER_XDATA
          CFI DPH0 load(1, XDATA, add(CFA_XSP16, literal(-1)))
          CFI DPL0 load(1, XDATA, add(CFA_XSP16, literal(-2)))
          CFI ?BRET_EXT load(1, XDATA, add(CFA_XSP16, literal(-3)))
          CFI ?RET_HIGH load(1, XDATA, add(CFA_XSP16, literal(-4)))
          CFI ?RET_LOW load(1, XDATA, add(CFA_XSP16, literal(-5)))
          CFI R7 load(1, XDATA, add(CFA_XSP16, literal(-6)))
          CFI V0 load(1, XDATA, add(CFA_XSP16, literal(-7)))
          CFI VB load(1, XDATA, add(CFA_XSP16, literal(-8)))
          CFI R6 load(1, XDATA, add(CFA_XSP16, literal(-9)))
          CFI CFA_SP SP+0
          CFI CFA_XSP16 add(XSP16, 9)
        ; Saved register size: 9
        ; Auto size: 20
        MOV       A,#-0x14
        LCALL     ?ALLOC_XSTACK8
          CFI CFA_XSP16 add(XSP16, 29)
        MOV       A,R1
        MOV       R6,A
// 2020   bdbTLScanReq_t req;
// 2021   uint8 newChannel;
// 2022   uint8 secondaryChList[] = TOUCHLINK_SECONDARY_CHANNELS_SET;
        MOV       DPTR,#`?<Constant {12, 13, 14, 16, 17, 18, 19, 21, 22`
        MOV       A,#0x8
        LCALL     ?XSTACK_DISP102_8
        MOV       A,#0xc
        LCALL     ?MOVE_LONG8_XDATA_XDATA
// 2023   static uint8 channelIndex = 0;
// 2024   
// 2025   // Set the device as initiator of touchlink commissioning
// 2026   touchLink_DeviceIsInitiator( TRUE );
        ; Setup parameters for call to function touchLink_DeviceIsInitiator
        MOV       R1,#0x1
        LCALL     `??touchLink_DeviceIsInitiator::?relay`; Banked call to: touchLink_DeviceIsInitiator
// 2027 
// 2028   if ( freshScan )
        MOV       A,R6
        JZ        ??initiatorSendScanReq_0
// 2029   {
// 2030     channelIndex = 0;
        MOV       DPTR,#??channelIndex
        CLR       A
        MOVX      @DPTR,A
// 2031   }
// 2032 
// 2033   // First figure out the channel
// 2034   if ( scanReqChannels == TOUCHLINK_SCAN_PRIMARY_CHANNELS )
??initiatorSendScanReq_0:
        MOV       DPTR,#scanReqChannels
        MOVX      A,@DPTR
        XRL       A,#0x1
        JZ        $+5
        LJMP      ??initiatorSendScanReq_1 & 0xFFFF
// 2035   {
// 2036     if ( numScanReqSent < 5 )
        MOV       DPTR,#numScanReqSent
        MOVX      A,@DPTR
        CLR       C
        SUBB      A,#0x5
        JNC       ??initiatorSendScanReq_2
// 2037     {
// 2038       // First five consecutive requests are sent on channel 11
// 2039       newChannel = TOUCHLINK_FIRST_CHANNEL;
        MOV       R4,#0xb
// 2040     }
// 2041     else if ( numScanReqSent == 5 )
// 2042     {
// 2043       // Sixth request is sent on channel 15
// 2044       newChannel = TOUCHLINK_SECOND_CHANNEL;
// 2045     }
// 2046     else if ( numScanReqSent == 6 )
// 2047     {
// 2048       // Seventh request is sent on channel 20
// 2049       newChannel = TOUCHLINK_THIRD_CHANNEL;
// 2050     }
// 2051     else
// 2052     {
// 2053       // Last request is sent on channel 25
// 2054       newChannel = TOUCHLINK_FOURTH_CHANNEL;
// 2055     }
// 2056   }
// 2057   else
// 2058   {
// 2059     // scan secondary channel list
// 2060     if ( channelIndex < sizeof(secondaryChList) )
// 2061     {
// 2062        newChannel = secondaryChList[channelIndex++];
// 2063     }
// 2064     else
// 2065     {
// 2066       // set it to initial value for next discovery process
// 2067       channelIndex = 0;
// 2068       return;
// 2069     }
// 2070   }
// 2071 
// 2072   if ( touchLinkTransID != 0 )
??initiatorSendScanReq_3:
        MOV       DPTR,#touchLinkTransID
        LCALL     ?XLOAD_R0123
        MOV       A,R0
        ORL       A,R1
        ORL       A,R2
        ORL       A,R3
        JNZ       $+5
        LJMP      ??initiatorSendScanReq_4 & 0xFFFF
// 2073   {
// 2074     // Build the request
// 2075     req.transID = touchLinkTransID;
        MOV       DPTR,#touchLinkTransID
        LCALL     ?XLOAD_R0123
        MOV       DPL,?XSP + 0
        MOV       DPH,?XSP + 1
        LCALL     ?XSTORE_R0123
// 2076     touchLinkLastAcceptedTransID = touchLinkTransID;
        MOV       DPTR,#touchLinkTransID
        LCALL     ?XLOAD_R0123
        MOV       DPTR,#touchLinkLastAcceptedTransID
        LCALL     ?XSTORE_R0123
// 2077 
// 2078     req.zInfo.zInfoByte = 0;
        MOV       A,#0x4
        LCALL     ?XSTACK_DISP0_8
        CLR       A
        MOVX      @DPTR,A
// 2079     req.zLogicalType = zgDeviceLogicalType;
        MOVX      @DPTR,A
        MOV       DPTR,#zgDeviceLogicalType
        MOVX      A,@DPTR
        ANL       A,#0x3
        MOV       R0,A
        MOV       A,#0x4
        LCALL     ?XSTACK_DISP0_8
        MOV       A,R0
        MOVX      @DPTR,A
// 2080     if ( ZDO_Config_Node_Descriptor.CapabilityFlags & CAPINFO_RCVR_ON_IDLE )
        MOV       DPTR,#ZDO_Config_Node_Descriptor + 2
        MOVX      A,@DPTR
        MOV       C,0xE0 /* A   */.3
        JNC       ??initiatorSendScanReq_5
// 2081     {
// 2082       req.zRxOnWhenIdle = TRUE;
        MOV       A,#0x4
        LCALL     ?XSTACK_DISP0_8
        MOVX      A,@DPTR
        ORL       A,#0x4
        MOVX      @DPTR,A
// 2083     }
// 2084 
// 2085     req.touchLinkInfo.touchLinkInfoByte = 0;
??initiatorSendScanReq_5:
        MOV       A,#0x6
        LCALL     ?XSTACK_DISP0_8
        CLR       A
        MOVX      @DPTR,A
// 2086     req.touchLinkFactoryNew = !bdbAttributes.bdbNodeIsOnANetwork;
        MOV       DPTR,#bdbAttributes + 14
        MOVX      A,@DPTR
        JNZ       ??initiatorSendScanReq_6
        MOV       R2,#0x1
        SJMP      ??initiatorSendScanReq_7
??initiatorSendScanReq_2:
        MOVX      A,@DPTR
        XRL       A,#0x5
        JNZ       ??initiatorSendScanReq_8
        MOV       R4,#0xf
        SJMP      ??initiatorSendScanReq_3
??initiatorSendScanReq_8:
        MOVX      A,@DPTR
        XRL       A,#0x6
        JNZ       ??initiatorSendScanReq_9
        MOV       R4,#0x14
        SJMP      ??initiatorSendScanReq_3
??initiatorSendScanReq_9:
        MOV       R4,#0x19
        SJMP      ??initiatorSendScanReq_3
??initiatorSendScanReq_1:
        MOV       DPTR,#??channelIndex
        MOVX      A,@DPTR
        CLR       C
        SUBB      A,#0xc
        JNC       ??initiatorSendScanReq_10
        MOVX      A,@DPTR
        MOV       R0,A
        MOV       A,#0x8
        LCALL     ?XSTACK_DISP0_8
        MOV       A,DPL
        ADD       A,R0
        MOV       DPL,A
        CLR       A
        ADDC      A,DPH
        MOV       DPH,A
        MOVX      A,@DPTR
        MOV       R4,A
        MOV       DPTR,#??channelIndex
        MOVX      A,@DPTR
        INC       A
        MOVX      @DPTR,A
        LJMP      ??initiatorSendScanReq_3 & 0xFFFF
??initiatorSendScanReq_10:
        CLR       A
        MOVX      @DPTR,A
        SJMP      ??initiatorSendScanReq_11
??initiatorSendScanReq_6:
        MOV       R2,#0x0
// 2087     req.touchLinkAddressAssignment = TRUE;
// 2088     req.touchLinkInitiator = TRUE;
??initiatorSendScanReq_7:
        MOV       A,#0x6
        LCALL     ?XSTACK_DISP0_8
        INC       DPTR
        MOVX      A,@DPTR
        MOV       R1,A
        MOV       A,R2
        ORL       A,#0x12
        MOV       R0,A
        MOV       A,#0x6
        LCALL     ?XSTACK_DISP0_8
        LCALL     ??Subroutine49_0 & 0xFFFF
// 2089 
// 2090     // First switch to the right channel
// 2091     touchLink_SetChannel( newChannel );
??CrossCallReturnLabel_93:
        ; Setup parameters for call to function touchLink_SetChannel
        MOV       A,R4
        LCALL     ?Subroutine8 & 0xFFFF
// 2092 
// 2093     // Broadcast the request
// 2094     bdbTL_Send_ScanReq( TOUCHLINK_INTERNAL_ENDPOINT, &bcastAddr, &req, initiatorSeqNum++ );
??CrossCallReturnLabel_99:
        LCALL     ?PUSH_XSTACK_I_ONE
          CFI CFA_XSP16 add(XSP16, 30)
        MOV       A,#0x1
        LCALL     ?XSTACK_DISP102_8
        MOV       R2,#bcastAddr & 0xff
        MOV       R3,#(bcastAddr >> 8) & 0xff
        MOV       R1,#0xd
        LCALL     `??bdbTL_Send_ScanReq::?relay`; Banked call to: bdbTL_Send_ScanReq
        MOV       A,#0x1
        LCALL     ?DEALLOC_XSTACK8
          CFI CFA_XSP16 add(XSP16, 29)
// 2095 
// 2096     numScanReqSent++;
        MOV       DPTR,#numScanReqSent
        MOVX      A,@DPTR
        INC       A
        MOVX      @DPTR,A
// 2097 
// 2098     // After each transmission, wait BDBCTL_SCAN_TIME_BASE_DURATION seconds
// 2099     // to receive any responses.
// 2100     osal_start_timerEx( touchLinkInitiator_TaskID, TOUCHLINK_TL_SCAN_BASE_EVT, BDBCTL_SCAN_TIME_BASE_DURATION );
        ; Setup parameters for call to function osal_start_timerEx
        MOV       DPTR,#__Constant_fa
        LCALL     ?PUSH_XSTACK8_X_FOUR
          CFI CFA_XSP16 add(XSP16, 33)
        MOV       R2,#0x20
        LCALL     ??Subroutine58_0 & 0xFFFF
// 2101   }
??CrossCallReturnLabel_117:
        LCALL     ?DEALLOC_XSTACK8
          CFI CFA_XSP16 add(XSP16, 29)
        SJMP      ??initiatorSendScanReq_11
// 2102   else
// 2103   {
// 2104     touchLinkInitiator_AbortTL();
??initiatorSendScanReq_4:
        ; Setup parameters for call to function touchLinkInitiator_AbortTL
        LCALL     `??touchLinkInitiator_AbortTL::?relay`; Banked call to: touchLinkInitiator_AbortTL
// 2105   }
// 2106 }
??initiatorSendScanReq_11:
        MOV       A,#0x14
        LJMP      ?Subroutine2 & 0xFFFF
          CFI EndBlock cfiBlock408

        RSEG XDATA_Z:XDATA:NOROOT(0)
        DATA8
??channelIndex:
        DS 1
        REQUIRE __INIT_XDATA_Z
// 2107 
// 2108 /*********************************************************************
// 2109  * @fn      initiatorSendNwkStartReq
// 2110  *
// 2111  * @brief   Send out a Network Start Request command.
// 2112  *
// 2113  * @param   pRsp - received Scan Response
// 2114  *
// 2115  * @return  ZStatus_t
// 2116  */
// 2117 static ZStatus_t initiatorSendNwkStartReq( bdbTLScanRsp_t *pRsp )
// 2118 {
// 2119   bdbTLNwkStartReq_t *pReq;
// 2120   ZStatus_t status;
// 2121 
// 2122   pReq = (bdbTLNwkStartReq_t *)osal_mem_alloc( sizeof( bdbTLNwkStartReq_t ) );
// 2123   if ( pReq != NULL )
// 2124   {
// 2125     uint16 i;
// 2126     bdbTLNwkParams_t *pParams = &(pReq->nwkParams);
// 2127 
// 2128     osal_memset( pReq, 0, sizeof( bdbTLNwkStartReq_t ) );
// 2129 
// 2130     // Build the request
// 2131     pReq->transID = selectedTarget.scanRsp.transID;
// 2132 
// 2133     // Find out key index (prefer highest)
// 2134     for ( i = 15; i > 0; i-- )
// 2135     {
// 2136       if ( ( (uint16)1 << i ) & pRsp->keyBitmask )
// 2137       {
// 2138         break;
// 2139       }
// 2140     }
// 2141     pParams->keyIndex = i;
// 2142 
// 2143     // Copy in the encrypted network key
// 2144     touchLink_EncryptNwkKey( pParams->nwkKey, i, pRsp->transID, pRsp->responseID );
// 2145 
// 2146     pParams->nwkAddr = touchLink_PopNwkAddress();
// 2147     if ( pParams->nwkAddr == 0 )
// 2148     {
// 2149       pParams->nwkAddr = osal_rand();
// 2150     }
// 2151     // update address for app notification
// 2152     selectedTarget.newNwkAddr = pParams->nwkAddr;
// 2153     selectedTargetNwkAddr = pParams->nwkAddr;
// 2154 
// 2155     // Set group ID range
// 2156     if ( pRsp->totalGrpIDs > 0 )
// 2157     {
// 2158       touchLink_PopGrpIDRange( pRsp->totalGrpIDs, &(pParams->grpIDsBegin), &(pParams->grpIDsEnd) );
// 2159     }
// 2160 
// 2161     if ( pRsp->touchLinkAddressAssignment )
// 2162     {
// 2163       touchLink_SplitFreeRanges( &(pParams->freeNwkAddrBegin), &(pParams->freeNwkAddrEnd),
// 2164                            &(pParams->freeGrpIDBegin), &(pParams->freeGrpIDEnd) );
// 2165     }
// 2166 
// 2167 #ifdef TOUCHLINK_INITIATOR_SET_NEW_NWK_PARAMS
// 2168     pParams->logicalChannel = _NIB.nwkLogicalChannel;
// 2169     pParams->panId = _NIB.nwkPanId;
// 2170     osal_memcpy( pParams->extendedPANID, _NIB.extendedPANID ,Z_EXTADDR_LEN);
// 2171 #endif
// 2172 
// 2173     osal_cpyExtAddr( pReq->initiatorIeeeAddr, NLME_GetExtAddr() );
// 2174     pReq->initiatorNwkAddr = _NIB.nwkDevAddress;
// 2175 
// 2176     status = bdbTL_Send_NwkStartReq( TOUCHLINK_INTERNAL_ENDPOINT, &(selectedTarget.srcAddr), pReq, initiatorSeqNum++ );
// 2177     if ( status == ZSuccess )
// 2178     {
// 2179       // Keep a copy of the encryted network key sent to the target
// 2180       keyIndexSent = i;
// 2181       osal_memcpy( encKeySent, pParams->nwkKey, SEC_KEY_LEN );
// 2182       responseIDSent = pRsp->responseID;
// 2183 
// 2184       // After the transmission, wait BDBCTL_RX_WINDOW_DURATION seconds to
// 2185       // receive a response.
// 2186       osal_start_timerEx( touchLinkInitiator_TaskID, TOUCHLINK_W4_NWK_START_RSP_EVT, BDBCTL_RX_WINDOW_DURATION );
// 2187     }
// 2188 
// 2189     osal_mem_free( pReq );
// 2190   }
// 2191   else
// 2192   {
// 2193     status = ZMemError;
// 2194   }
// 2195 
// 2196   return ( status );
// 2197 }
// 2198 
// 2199 /*********************************************************************
// 2200  * @fn      initiatorSendNwkJoinReq
// 2201  *
// 2202  * @brief   Send out a Network Join Router or End Device Request command.
// 2203  *
// 2204  * @param   pRsp - received Scan Response
// 2205  *
// 2206  * @return  ZStatus_t
// 2207  */

        RSEG BANKED_CODE:HUGECODE:NOROOT(0)
// 2208 static ZStatus_t initiatorSendNwkJoinReq( bdbTLScanRsp_t *pRsp )
initiatorSendNwkJoinReq:
          CFI Block cfiBlock409 Using cfiCommon0
          CFI Function initiatorSendNwkJoinReq
        CODE
// 2209 {
        FUNCALL initiatorSendNwkJoinReq, osal_mem_alloc
        LOCFRAME ISTACK, 0, STACK
        LOCFRAME PSTACK, 0, STACK
        LOCFRAME XSTACK, 16, STACK
        LOCFRAME IOVERLAY, 0, STATIC
        LOCFRAME DOVERLAY, 0, STATIC
        ARGFRAME ISTACK, 0, STACK
        ARGFRAME PSTACK, 0, STACK
        ARGFRAME XSTACK, 16, STACK
        ARGFRAME IOVERLAY, 0, STATIC
        ARGFRAME DOVERLAY, 0, STATIC
        FUNCALL initiatorSendNwkJoinReq, osal_memset
        LOCFRAME ISTACK, 0, STACK
        LOCFRAME PSTACK, 0, STACK
        LOCFRAME XSTACK, 16, STACK
        LOCFRAME IOVERLAY, 0, STATIC
        LOCFRAME DOVERLAY, 0, STATIC
        ARGFRAME ISTACK, 0, STACK
        ARGFRAME PSTACK, 0, STACK
        ARGFRAME XSTACK, 16, STACK
        ARGFRAME IOVERLAY, 0, STATIC
        ARGFRAME DOVERLAY, 0, STATIC
        FUNCALL initiatorSendNwkJoinReq, touchLink_EncryptNwkKey
        LOCFRAME ISTACK, 0, STACK
        LOCFRAME PSTACK, 0, STACK
        LOCFRAME XSTACK, 24, STACK
        LOCFRAME IOVERLAY, 0, STATIC
        LOCFRAME DOVERLAY, 0, STATIC
        ARGFRAME ISTACK, 0, STACK
        ARGFRAME PSTACK, 0, STACK
        ARGFRAME XSTACK, 24, STACK
        ARGFRAME IOVERLAY, 0, STATIC
        ARGFRAME DOVERLAY, 0, STATIC
        FUNCALL initiatorSendNwkJoinReq, touchLink_PopNwkAddress
        LOCFRAME ISTACK, 0, STACK
        LOCFRAME PSTACK, 0, STACK
        LOCFRAME XSTACK, 16, STACK
        LOCFRAME IOVERLAY, 0, STATIC
        LOCFRAME DOVERLAY, 0, STATIC
        ARGFRAME ISTACK, 0, STACK
        ARGFRAME PSTACK, 0, STACK
        ARGFRAME XSTACK, 16, STACK
        ARGFRAME IOVERLAY, 0, STATIC
        ARGFRAME DOVERLAY, 0, STATIC
        FUNCALL initiatorSendNwkJoinReq, osal_rand
        LOCFRAME ISTACK, 0, STACK
        LOCFRAME PSTACK, 0, STACK
        LOCFRAME XSTACK, 16, STACK
        LOCFRAME IOVERLAY, 0, STATIC
        LOCFRAME DOVERLAY, 0, STATIC
        ARGFRAME ISTACK, 0, STACK
        ARGFRAME PSTACK, 0, STACK
        ARGFRAME XSTACK, 16, STACK
        ARGFRAME IOVERLAY, 0, STATIC
        ARGFRAME DOVERLAY, 0, STATIC
        FUNCALL initiatorSendNwkJoinReq, touchLink_PopGrpIDRange
        LOCFRAME ISTACK, 0, STACK
        LOCFRAME PSTACK, 0, STACK
        LOCFRAME XSTACK, 16, STACK
        LOCFRAME IOVERLAY, 0, STATIC
        LOCFRAME DOVERLAY, 0, STATIC
        ARGFRAME ISTACK, 0, STACK
        ARGFRAME PSTACK, 0, STACK
        ARGFRAME XSTACK, 16, STACK
        ARGFRAME IOVERLAY, 0, STATIC
        ARGFRAME DOVERLAY, 0, STATIC
        FUNCALL initiatorSendNwkJoinReq, touchLink_SplitFreeRanges
        LOCFRAME ISTACK, 0, STACK
        LOCFRAME PSTACK, 0, STACK
        LOCFRAME XSTACK, 20, STACK
        LOCFRAME IOVERLAY, 0, STATIC
        LOCFRAME DOVERLAY, 0, STATIC
        ARGFRAME ISTACK, 0, STACK
        ARGFRAME PSTACK, 0, STACK
        ARGFRAME XSTACK, 20, STACK
        ARGFRAME IOVERLAY, 0, STATIC
        ARGFRAME DOVERLAY, 0, STATIC
        FUNCALL initiatorSendNwkJoinReq, sAddrExtCpy
        LOCFRAME ISTACK, 0, STACK
        LOCFRAME PSTACK, 0, STACK
        LOCFRAME XSTACK, 16, STACK
        LOCFRAME IOVERLAY, 0, STATIC
        LOCFRAME DOVERLAY, 0, STATIC
        ARGFRAME ISTACK, 0, STACK
        ARGFRAME PSTACK, 0, STACK
        ARGFRAME XSTACK, 16, STACK
        ARGFRAME IOVERLAY, 0, STATIC
        ARGFRAME DOVERLAY, 0, STATIC
        FUNCALL initiatorSendNwkJoinReq, bdbTL_Send_NwkJoinReq
        LOCFRAME ISTACK, 0, STACK
        LOCFRAME PSTACK, 0, STACK
        LOCFRAME XSTACK, 18, STACK
        LOCFRAME IOVERLAY, 0, STATIC
        LOCFRAME DOVERLAY, 0, STATIC
        ARGFRAME ISTACK, 0, STACK
        ARGFRAME PSTACK, 0, STACK
        ARGFRAME XSTACK, 18, STACK
        ARGFRAME IOVERLAY, 0, STATIC
        ARGFRAME DOVERLAY, 0, STATIC
        FUNCALL initiatorSendNwkJoinReq, bdbTL_Send_NwkJoinReq
        LOCFRAME ISTACK, 0, STACK
        LOCFRAME PSTACK, 0, STACK
        LOCFRAME XSTACK, 18, STACK
        LOCFRAME IOVERLAY, 0, STATIC
        LOCFRAME DOVERLAY, 0, STATIC
        ARGFRAME ISTACK, 0, STACK
        ARGFRAME PSTACK, 0, STACK
        ARGFRAME XSTACK, 18, STACK
        ARGFRAME IOVERLAY, 0, STATIC
        ARGFRAME DOVERLAY, 0, STATIC
        FUNCALL initiatorSendNwkJoinReq, osal_start_timerEx
        LOCFRAME ISTACK, 0, STACK
        LOCFRAME PSTACK, 0, STACK
        LOCFRAME XSTACK, 20, STACK
        LOCFRAME IOVERLAY, 0, STATIC
        LOCFRAME DOVERLAY, 0, STATIC
        ARGFRAME ISTACK, 0, STACK
        ARGFRAME PSTACK, 0, STACK
        ARGFRAME XSTACK, 20, STACK
        ARGFRAME IOVERLAY, 0, STATIC
        ARGFRAME DOVERLAY, 0, STATIC
        FUNCALL initiatorSendNwkJoinReq, osal_mem_free
        LOCFRAME ISTACK, 0, STACK
        LOCFRAME PSTACK, 0, STACK
        LOCFRAME XSTACK, 16, STACK
        LOCFRAME IOVERLAY, 0, STATIC
        LOCFRAME DOVERLAY, 0, STATIC
        ARGFRAME ISTACK, 0, STACK
        ARGFRAME PSTACK, 0, STACK
        ARGFRAME XSTACK, 16, STACK
        ARGFRAME IOVERLAY, 0, STATIC
        ARGFRAME DOVERLAY, 0, STATIC
        REQUIRE ?V0
        REQUIRE ?V1
        REQUIRE ?V2
        REQUIRE ?V3
        REQUIRE ?V4
        REQUIRE ?V5
        REQUIRE ?V6
        REQUIRE ?V7
        MOV       A,#-0x10
        LCALL     ?BANKED_ENTER_XDATA
          CFI DPH0 load(1, XDATA, add(CFA_XSP16, literal(-1)))
          CFI DPL0 load(1, XDATA, add(CFA_XSP16, literal(-2)))
          CFI ?BRET_EXT load(1, XDATA, add(CFA_XSP16, literal(-3)))
          CFI ?RET_HIGH load(1, XDATA, add(CFA_XSP16, literal(-4)))
          CFI ?RET_LOW load(1, XDATA, add(CFA_XSP16, literal(-5)))
          CFI R7 load(1, XDATA, add(CFA_XSP16, literal(-6)))
          CFI V7 load(1, XDATA, add(CFA_XSP16, literal(-7)))
          CFI V6 load(1, XDATA, add(CFA_XSP16, literal(-8)))
          CFI V5 load(1, XDATA, add(CFA_XSP16, literal(-9)))
          CFI V4 load(1, XDATA, add(CFA_XSP16, literal(-10)))
          CFI V3 load(1, XDATA, add(CFA_XSP16, literal(-11)))
          CFI V2 load(1, XDATA, add(CFA_XSP16, literal(-12)))
          CFI V1 load(1, XDATA, add(CFA_XSP16, literal(-13)))
          CFI V0 load(1, XDATA, add(CFA_XSP16, literal(-14)))
          CFI VB load(1, XDATA, add(CFA_XSP16, literal(-15)))
          CFI R6 load(1, XDATA, add(CFA_XSP16, literal(-16)))
          CFI CFA_SP SP+0
          CFI CFA_XSP16 add(XSP16, 16)
        ; Saved register size: 16
        ; Auto size: 0
        MOV       ?V4,R2
        MOV       ?V5,R3
// 2210   bdbTLNwkJoinReq_t *pReq;
// 2211   ZStatus_t status;
// 2212   bdbFindingBindingRespondent_t *pCurr;
// 2213 
// 2214   pReq = (bdbTLNwkJoinReq_t *)osal_mem_alloc( sizeof( bdbTLNwkJoinReq_t ) );
        ; Setup parameters for call to function osal_mem_alloc
        MOV       R2,#0x2f
        MOV       R3,#0x0
        LCALL     `??osal_mem_alloc::?relay`; Banked call to: osal_mem_alloc
        MOV       ?V2,R2
        MOV       ?V3,R3
// 2215   if ( pReq != NULL )
        MOV       A,R2
        ORL       A,R3
        JNZ       $+5
        LJMP      ??initiatorSendNwkJoinReq_0 & 0xFFFF
// 2216   {
// 2217     uint16 i;
// 2218     bdbTLNwkParams_t *pParams = &(pReq->nwkParams);
        MOV       A,R2
        ADD       A,#0x4
        MOV       R6,A
        CLR       A
        ADDC      A,?V3
        MOV       R7,A
// 2219 
// 2220     osal_memset( pReq, 0, sizeof( bdbTLNwkJoinReq_t ) );
        ; Setup parameters for call to function osal_memset
        MOV       R4,#0x2f
        MOV       R5,#0x0
        MOV       R1,#0x0
        LCALL     `??osal_memset::?relay`; Banked call to: osal_memset
// 2221 
// 2222     // Build the request
// 2223     pReq->transID = selectedTarget.scanRsp.transID;
        MOV       DPTR,#selectedTarget
        LCALL     ?XLOAD_R0123
        MOV       DPL,?V2
        MOV       DPH,?V3
        LCALL     ?XSTORE_R0123
// 2224 
// 2225     // Find out key index (prefer highest)
// 2226     for ( i = 15; i > 0; i-- )
        MOV       R2,#0xf
        MOV       R3,#0x0
// 2227     {
// 2228       if ( ( (uint16)1 << i ) & pRsp->keyBitmask )
??initiatorSendNwkJoinReq_1:
        MOV       DPL,?V4
        MOV       DPH,?V5
        INC       DPTR
        INC       DPTR
        INC       DPTR
        INC       DPTR
        INC       DPTR
        INC       DPTR
        INC       DPTR
        INC       DPTR
        INC       DPTR
        LCALL     ?Subroutine20 & 0xFFFF
// 2229       {
// 2230         break;
// 2231       }
// 2232     }
??CrossCallReturnLabel_15:
        MOV       A,R2
        MOV       R0,#?V0
        LCALL     ?US_SHR
        MOV       A,?V0
        MOV       C,0xE0 /* A   */.0
        JC        ??initiatorSendNwkJoinReq_2
        MOV       A,R2
        ADD       A,#-0x1
        DEC       R2
        MOV       A,R3
        ADDC      A,#-0x1
        MOV       R3,A
        MOV       A,R2
        ORL       A,R3
        JNZ       ??initiatorSendNwkJoinReq_1
// 2233     pParams->keyIndex = i;
??initiatorSendNwkJoinReq_2:
        MOV       A,R2
        MOV       DPL,R6
        MOV       DPH,R7
        INC       DPTR
        INC       DPTR
        INC       DPTR
        INC       DPTR
        INC       DPTR
        INC       DPTR
        INC       DPTR
        INC       DPTR
        MOVX      @DPTR,A
// 2234 
// 2235     // Copy in the encrypted network key
// 2236     touchLink_EncryptNwkKey( pParams->nwkKey, i, pRsp->transID, pRsp->responseID );
        ; Setup parameters for call to function touchLink_EncryptNwkKey
        MOV       A,?V4
        ADD       A,#0xb
        MOV       DPL,A
        CLR       A
        ADDC      A,?V5
        MOV       DPH,A
        LCALL     ?PUSH_XSTACK8_X_FOUR
          CFI CFA_XSP16 add(XSP16, 20)
        MOV       DPL,?V4
        MOV       DPH,?V5
        LCALL     ?PUSH_XSTACK8_X_FOUR
          CFI CFA_XSP16 add(XSP16, 24)
        MOV       A,R2
        MOV       R1,A
        MOV       A,R6
        ADD       A,#0x9
        MOV       R2,A
        CLR       A
        ADDC      A,R7
        MOV       R3,A
        LCALL     `??touchLink_EncryptNwkKey::?relay`; Banked call to: touchLink_EncryptNwkKey
        MOV       A,#0x8
        LCALL     ?DEALLOC_XSTACK8
          CFI CFA_XSP16 add(XSP16, 16)
// 2237 
// 2238     pParams->nwkAddr = touchLink_PopNwkAddress();
        ; Setup parameters for call to function touchLink_PopNwkAddress
        LCALL     `??touchLink_PopNwkAddress::?relay`; Banked call to: touchLink_PopNwkAddress
        MOV       ?V1,R3
        MOV       R1,?V1
        MOV       A,R6
        ADD       A,#0x1c
        LCALL     ?Subroutine36 & 0xFFFF
??CrossCallReturnLabel_50:
        LCALL     ?Subroutine26 & 0xFFFF
// 2239     if ( pParams->nwkAddr == 0 )
??CrossCallReturnLabel_81:
        MOV       A,R2
        ORL       A,R1
        JNZ       ??CrossCallReturnLabel_82
// 2240     {
// 2241       pParams->nwkAddr = osal_rand();
        ; Setup parameters for call to function osal_rand
        LCALL     `??osal_rand::?relay`; Banked call to: osal_rand
        MOV       DPL,?V0
        MOV       DPH,?V1
        LCALL     ?Subroutine26 & 0xFFFF
// 2242     }
// 2243     // update address for app notification
// 2244     selectedTarget.newNwkAddr = pParams->nwkAddr;
??CrossCallReturnLabel_82:
        MOV       DPL,?V0
        MOV       DPH,?V1
        LCALL     ??Subroutine63_0 & 0xFFFF
??CrossCallReturnLabel_149:
        MOV       DPTR,#selectedTarget + 50
        MOV       A,R0
        MOVX      @DPTR,A
        INC       DPTR
        MOV       A,R1
        LCALL     ?Subroutine28 & 0xFFFF
// 2245     selectedTargetNwkAddr = pParams->nwkAddr;
??CrossCallReturnLabel_27:
        LCALL     ??Subroutine63_0 & 0xFFFF
??CrossCallReturnLabel_150:
        MOV       DPTR,#selectedTargetNwkAddr
        LCALL     ??Subroutine49_0 & 0xFFFF
// 2246     
// 2247     // Set group ID range
// 2248     if ( pRsp->totalGrpIDs > 0 )
??CrossCallReturnLabel_94:
        MOV       A,?V4
        ADD       A,#0x1e
        MOV       DPL,A
        CLR       A
        ADDC      A,?V5
        MOV       DPH,A
        MOVX      A,@DPTR
        MOV       R1,A
        JZ        ??initiatorSendNwkJoinReq_3
// 2249     {
// 2250       touchLink_PopGrpIDRange( pRsp->totalGrpIDs, &(pParams->grpIDsBegin), &(pParams->grpIDsEnd) );
        ; Setup parameters for call to function touchLink_PopGrpIDRange
        MOV       A,R6
        ADD       A,#0x20
        MOV       R4,A
        CLR       A
        ADDC      A,R7
        MOV       R5,A
        MOV       A,R6
        ADD       A,#0x1e
        MOV       R2,A
        CLR       A
        ADDC      A,R7
        MOV       R3,A
        LCALL     `??touchLink_PopGrpIDRange::?relay`; Banked call to: touchLink_PopGrpIDRange
// 2251     }
// 2252 
// 2253     if ( pRsp->touchLinkAddressAssignment )
??initiatorSendNwkJoinReq_3:
        MOV       DPL,?V4
        MOV       DPH,?V5
        INC       DPTR
        INC       DPTR
        INC       DPTR
        INC       DPTR
        INC       DPTR
        INC       DPTR
        INC       DPTR
        MOVX      A,@DPTR
        ANL       A,#0x2
        JZ        ??initiatorSendNwkJoinReq_4
// 2254     {
// 2255       touchLink_SplitFreeRanges( &(pParams->freeNwkAddrBegin), &(pParams->freeNwkAddrEnd),
// 2256                            &(pParams->freeGrpIDBegin), &(pParams->freeGrpIDEnd) );
        ; Setup parameters for call to function touchLink_SplitFreeRanges
        MOV       A,R6
        ADD       A,#0x28
        MOV       ?V6,A
        CLR       A
        ADDC      A,R7
        MOV       ?V7,A
        MOV       R0,#?V6
        LCALL     ?PUSH_XSTACK_I_TWO
          CFI CFA_XSP16 add(XSP16, 18)
        MOV       A,R6
        ADD       A,#0x26
        MOV       ?V6,A
        CLR       A
        ADDC      A,R7
        MOV       ?V7,A
        MOV       R0,#?V6
        LCALL     ?PUSH_XSTACK_I_TWO
          CFI CFA_XSP16 add(XSP16, 20)
        MOV       A,R6
        ADD       A,#0x24
        MOV       R4,A
        CLR       A
        ADDC      A,R7
        MOV       R5,A
        MOV       A,R6
        ADD       A,#0x22
        MOV       R2,A
        CLR       A
        ADDC      A,R7
        MOV       R3,A
        LCALL     `??touchLink_SplitFreeRanges::?relay`; Banked call to: touchLink_SplitFreeRanges
        MOV       A,#0x4
        LCALL     ?DEALLOC_XSTACK8
          CFI CFA_XSP16 add(XSP16, 16)
// 2257     }
// 2258     // update 
// 2259     pCurr = pRespondentHead;
??initiatorSendNwkJoinReq_4:
        MOV       DPTR,#pRespondentHead
        SJMP      ??CrossCallReturnLabel_59
// 2260     while( pCurr != NULL )
// 2261     {
// 2262       pCurr->data.addr.shortAddr = pParams->nwkAddr;
??initiatorSendNwkJoinReq_5:
        MOV       DPL,?V0
        MOV       DPH,?V1
        LCALL     ?Subroutine21 & 0xFFFF
??CrossCallReturnLabel_20:
        MOV       DPL,R0
        MOV       DPH,R1
        LCALL     ?Subroutine26 & 0xFFFF
// 2263       pCurr->data.addrMode = afAddr16Bit;
??CrossCallReturnLabel_83:
        MOV       DPL,R0
        MOV       DPH,R1
        INC       DPTR
        INC       DPTR
        INC       DPTR
        INC       DPTR
        INC       DPTR
        INC       DPTR
        INC       DPTR
        INC       DPTR
        MOV       A,#0x2
        MOVX      @DPTR,A
// 2264       pCurr->data.panId = _NIB.nwkPanId;
        MOV       DPTR,#_NIB + 33
        LCALL     ?Subroutine12 & 0xFFFF
// 2265       pCurr = pCurr->pNext;
??CrossCallReturnLabel_6:
        LCALL     ?Subroutine38 & 0xFFFF
// 2266     }
??CrossCallReturnLabel_59:
        LCALL     ??Subroutine62_0 & 0xFFFF
??CrossCallReturnLabel_126:
        JNZ       ??initiatorSendNwkJoinReq_5
// 2267 
// 2268     pParams->logicalChannel = _NIB.nwkLogicalChannel;
        MOV       DPTR,#_NIB + 22
        MOVX      A,@DPTR
        PUSH      A
          CFI CFA_SP SP+-1
        MOV       A,R6
        ADD       A,#0x19
        MOV       DPL,A
        CLR       A
        ADDC      A,R7
        MOV       DPH,A
        POP       A
          CFI CFA_SP SP+0
        LCALL     ?Subroutine22 & 0xFFFF
// 2269     pParams->panId = _NIB.nwkPanId;
??CrossCallReturnLabel_105:
        ADD       A,#0x1a
        LCALL     ?Subroutine32 & 0xFFFF
// 2270     osal_cpyExtAddr( pParams->extendedPANID, _NIB.extendedPANID );
??CrossCallReturnLabel_97:
        ; Setup parameters for call to function sAddrExtCpy
        MOV       R4,#(_NIB + 53) & 0xff
        MOV       R5,#((_NIB + 53) >> 8) & 0xff
        MOV       A,R6
        MOV       R2,A
        MOV       A,R7
        MOV       R3,A
        LCALL     `??sAddrExtCpy::?relay`; Banked call to: sAddrExtCpy
// 2271     pReq->nwkUpdateId = _NIB.nwkUpdateId;
        MOV       DPTR,#_NIB + 109
        MOVX      A,@DPTR
        PUSH      A
          CFI CFA_SP SP+-1
        MOV       A,?V2
        ADD       A,#0x2e
        MOV       DPL,A
        CLR       A
        ADDC      A,?V3
        MOV       DPH,A
        POP       A
          CFI CFA_SP SP+0
        MOVX      @DPTR,A
// 2272 
// 2273     // Let PAN ID, Extended PAN ID and Logical Channel to be determined by the target
// 2274     if ( pRsp->zLogicalType == ZG_DEVICETYPE_ROUTER )
        MOV       DPL,?V4
        MOV       DPH,?V5
        INC       DPTR
        INC       DPTR
        INC       DPTR
        INC       DPTR
        INC       DPTR
        MOVX      A,@DPTR
        ANL       A,#0x3
        XRL       A,#0x1
        MOV       DPTR,#initiatorSeqNum
        JNZ       ??initiatorSendNwkJoinReq_6
// 2275     {
// 2276       // It's a light
// 2277       status = bdbTL_Send_NwkJoinRtrReq( TOUCHLINK_INTERNAL_ENDPOINT, &(selectedTarget.srcAddr), pReq, initiatorSeqNum++ );
        LCALL     ??Subroutine52_0 & 0xFFFF
// 2278     }
??CrossCallReturnLabel_100:
        LCALL     ?PUSH_XSTACK_I_ONE
          CFI CFA_XSP16 add(XSP16, 17)
        MOV       ?V0,#0x12
        SJMP      ??initiatorSendNwkJoinReq_7
          CFI CFA_XSP16 add(XSP16, 16)
// 2279     else // another controller
// 2280     {
// 2281       status = bdbTL_Send_NwkJoinEDReq( TOUCHLINK_INTERNAL_ENDPOINT, &(selectedTarget.srcAddr), pReq, initiatorSeqNum++ );
??initiatorSendNwkJoinReq_6:
        LCALL     ??Subroutine52_0 & 0xFFFF
// 2282     }
??CrossCallReturnLabel_101:
        LCALL     ?PUSH_XSTACK_I_ONE
          CFI CFA_XSP16 add(XSP16, 17)
        MOV       ?V0,#0x14
??initiatorSendNwkJoinReq_7:
        MOV       R0,#?V0
        LCALL     ?PUSH_XSTACK_I_ONE
          CFI CFA_XSP16 add(XSP16, 18)
        MOV       R4,?V2
        MOV       R5,?V3
        MOV       R2,#(selectedTarget + 38) & 0xff
        MOV       R3,#((selectedTarget + 38) >> 8) & 0xff
        MOV       R1,#0xd
        LCALL     `??bdbTL_Send_NwkJoinReq::?relay`; Banked call to: bdbTL_Send_NwkJoinReq
        MOV       A,#0x2
        LCALL     ?DEALLOC_XSTACK8
          CFI CFA_XSP16 add(XSP16, 16)
        MOV       A,R1
        MOV       R6,A
// 2283 
// 2284     if ( status == ZSuccess )
        MOV       A,R6
        JNZ       ??initiatorSendNwkJoinReq_8
// 2285     {
// 2286       // After the transmission, wait BDBCTL_RX_WINDOW_DURATION seconds to
// 2287       // receive a response.
// 2288       osal_start_timerEx( touchLinkInitiator_TaskID, TOUCHLINK_W4_NWK_JOIN_RSP_EVT, BDBCTL_RX_WINDOW_DURATION );
        ; Setup parameters for call to function osal_start_timerEx
        MOV       DPTR,#__Constant_1388
        LCALL     ?PUSH_XSTACK8_X_FOUR
          CFI CFA_XSP16 add(XSP16, 20)
        MOV       R2,#0x0
        MOV       R3,#0x1
        LCALL     ??Subroutine59_0 & 0xFFFF
// 2289     }
??CrossCallReturnLabel_122:
        LCALL     ?DEALLOC_XSTACK8
          CFI CFA_XSP16 add(XSP16, 16)
// 2290 
// 2291     osal_mem_free( pReq );
??initiatorSendNwkJoinReq_8:
        ; Setup parameters for call to function osal_mem_free
        MOV       R2,?V2
        MOV       R3,?V3
        LCALL     `??osal_mem_free::?relay`; Banked call to: osal_mem_free
        SJMP      ??initiatorSendNwkJoinReq_9
// 2292   }
// 2293   else
// 2294   {
// 2295     status = ZMemError;
??initiatorSendNwkJoinReq_0:
        MOV       R6,#0x10
// 2296   }
// 2297 
// 2298   return ( status );
??initiatorSendNwkJoinReq_9:
        MOV       A,R6
        MOV       R1,A
        LJMP      ??Subroutine57_0 & 0xFFFF
// 2299 }
          CFI EndBlock cfiBlock409

        RSEG BANKED_CODE:HUGECODE:NOROOT(0)
?Subroutine38:
          CFI Block cfiCond410 Using cfiCommon0
          CFI Function initiatorDeviceInfoRspCB
          CFI Conditional ??CrossCallReturnLabel_57
          CFI R6 load(1, XDATA, add(CFA_XSP16, literal(-20)))
          CFI VB load(1, XDATA, add(CFA_XSP16, literal(-19)))
          CFI V0 load(1, XDATA, add(CFA_XSP16, literal(-18)))
          CFI V1 load(1, XDATA, add(CFA_XSP16, literal(-17)))
          CFI V2 load(1, XDATA, add(CFA_XSP16, literal(-16)))
          CFI V3 load(1, XDATA, add(CFA_XSP16, literal(-15)))
          CFI V4 load(1, XDATA, add(CFA_XSP16, literal(-14)))
          CFI V5 load(1, XDATA, add(CFA_XSP16, literal(-13)))
          CFI V6 load(1, XDATA, add(CFA_XSP16, literal(-12)))
          CFI V7 load(1, XDATA, add(CFA_XSP16, literal(-11)))
          CFI V8 load(1, XDATA, add(CFA_XSP16, literal(-10)))
          CFI V9 load(1, XDATA, add(CFA_XSP16, literal(-9)))
          CFI V10 load(1, XDATA, add(CFA_XSP16, literal(-8)))
          CFI V11 load(1, XDATA, add(CFA_XSP16, literal(-7)))
          CFI R7 load(1, XDATA, add(CFA_XSP16, literal(-6)))
          CFI ?RET_LOW load(1, XDATA, add(CFA_XSP16, literal(-5)))
          CFI ?RET_HIGH load(1, XDATA, add(CFA_XSP16, literal(-4)))
          CFI ?BRET_EXT load(1, XDATA, add(CFA_XSP16, literal(-3)))
          CFI DPL0 load(1, XDATA, add(CFA_XSP16, literal(-2)))
          CFI DPH0 load(1, XDATA, add(CFA_XSP16, literal(-1)))
          CFI CFA_SP SP+-2
          CFI CFA_XSP16 add(XSP16, 58)
          CFI Block cfiCond411 Using cfiCommon0
          CFI (cfiCond411) Function initiatorDeviceInfoRspCB
          CFI (cfiCond411) Conditional ??CrossCallReturnLabel_58
          CFI (cfiCond411) R6 load(1, XDATA, add(CFA_XSP16, literal(-20)))
          CFI (cfiCond411) VB load(1, XDATA, add(CFA_XSP16, literal(-19)))
          CFI (cfiCond411) V0 load(1, XDATA, add(CFA_XSP16, literal(-18)))
          CFI (cfiCond411) V1 load(1, XDATA, add(CFA_XSP16, literal(-17)))
          CFI (cfiCond411) V2 load(1, XDATA, add(CFA_XSP16, literal(-16)))
          CFI (cfiCond411) V3 load(1, XDATA, add(CFA_XSP16, literal(-15)))
          CFI (cfiCond411) V4 load(1, XDATA, add(CFA_XSP16, literal(-14)))
          CFI (cfiCond411) V5 load(1, XDATA, add(CFA_XSP16, literal(-13)))
          CFI (cfiCond411) V6 load(1, XDATA, add(CFA_XSP16, literal(-12)))
          CFI (cfiCond411) V7 load(1, XDATA, add(CFA_XSP16, literal(-11)))
          CFI (cfiCond411) V8 load(1, XDATA, add(CFA_XSP16, literal(-10)))
          CFI (cfiCond411) V9 load(1, XDATA, add(CFA_XSP16, literal(-9)))
          CFI (cfiCond411) V10 load(1, XDATA, add(CFA_XSP16, literal(-8)))
          CFI (cfiCond411) V11 load(1, XDATA, add(CFA_XSP16, literal(-7)))
          CFI (cfiCond411) R7 load(1, XDATA, add(CFA_XSP16, literal(-6)))
          CFI (cfiCond411) ?RET_LOW load(1, XDATA, add(CFA_XSP16, literal(-5)))
          CFI (cfiCond411) ?RET_HIGH load(1, XDATA, add(CFA_XSP16, literal(-4)))
          CFI (cfiCond411) ?BRET_EXT load(1, XDATA, add(CFA_XSP16, literal(-3)))
          CFI (cfiCond411) DPL0 load(1, XDATA, add(CFA_XSP16, literal(-2)))
          CFI (cfiCond411) DPH0 load(1, XDATA, add(CFA_XSP16, literal(-1)))
          CFI (cfiCond411) CFA_SP SP+-2
          CFI (cfiCond411) CFA_XSP16 add(XSP16, 58)
          CFI Block cfiCond412 Using cfiCommon0
          CFI (cfiCond412) Function initiatorSendNwkJoinReq
          CFI (cfiCond412) Conditional ??CrossCallReturnLabel_59
          CFI (cfiCond412) R6 load(1, XDATA, add(CFA_XSP16, literal(-16)))
          CFI (cfiCond412) VB load(1, XDATA, add(CFA_XSP16, literal(-15)))
          CFI (cfiCond412) V0 load(1, XDATA, add(CFA_XSP16, literal(-14)))
          CFI (cfiCond412) V1 load(1, XDATA, add(CFA_XSP16, literal(-13)))
          CFI (cfiCond412) V2 load(1, XDATA, add(CFA_XSP16, literal(-12)))
          CFI (cfiCond412) V3 load(1, XDATA, add(CFA_XSP16, literal(-11)))
          CFI (cfiCond412) V4 load(1, XDATA, add(CFA_XSP16, literal(-10)))
          CFI (cfiCond412) V5 load(1, XDATA, add(CFA_XSP16, literal(-9)))
          CFI (cfiCond412) V6 load(1, XDATA, add(CFA_XSP16, literal(-8)))
          CFI (cfiCond412) V7 load(1, XDATA, add(CFA_XSP16, literal(-7)))
          CFI (cfiCond412) R7 load(1, XDATA, add(CFA_XSP16, literal(-6)))
          CFI (cfiCond412) ?RET_LOW load(1, XDATA, add(CFA_XSP16, literal(-5)))
          CFI (cfiCond412) ?RET_HIGH load(1, XDATA, add(CFA_XSP16, literal(-4)))
          CFI (cfiCond412) ?BRET_EXT load(1, XDATA, add(CFA_XSP16, literal(-3)))
          CFI (cfiCond412) DPL0 load(1, XDATA, add(CFA_XSP16, literal(-2)))
          CFI (cfiCond412) DPH0 load(1, XDATA, add(CFA_XSP16, literal(-1)))
          CFI (cfiCond412) CFA_SP SP+-2
          CFI (cfiCond412) CFA_XSP16 add(XSP16, 16)
          CFI Block cfiPicker413 Using cfiCommon1
          CFI (cfiPicker413) NoFunction
          CFI (cfiPicker413) Picker
        MOV       A,R0
        ADD       A,#0xf
        MOV       DPL,A
        CLR       A
        ADDC      A,R1
        MOV       DPH,A
        RET
          CFI EndBlock cfiCond410
          CFI EndBlock cfiCond411
          CFI EndBlock cfiCond412
          CFI EndBlock cfiPicker413

        RSEG BANKED_CODE:HUGECODE:NOROOT(0)
?Subroutine36:
          CFI Block cfiCond414 Using cfiCommon0
          CFI Function touchLink_InitiatorSendScanRsp
          CFI Conditional ??CrossCallReturnLabel_49
          CFI R6 load(1, XDATA, add(CFA_XSP16, literal(-22)))
          CFI VB load(1, XDATA, add(CFA_XSP16, literal(-21)))
          CFI V0 load(1, XDATA, add(CFA_XSP16, literal(-20)))
          CFI V1 load(1, XDATA, add(CFA_XSP16, literal(-19)))
          CFI V2 load(1, XDATA, add(CFA_XSP16, literal(-18)))
          CFI V3 load(1, XDATA, add(CFA_XSP16, literal(-17)))
          CFI V4 load(1, XDATA, add(CFA_XSP16, literal(-16)))
          CFI V5 load(1, XDATA, add(CFA_XSP16, literal(-15)))
          CFI V6 load(1, XDATA, add(CFA_XSP16, literal(-14)))
          CFI V7 load(1, XDATA, add(CFA_XSP16, literal(-13)))
          CFI V8 load(1, XDATA, add(CFA_XSP16, literal(-12)))
          CFI V9 load(1, XDATA, add(CFA_XSP16, literal(-11)))
          CFI V10 load(1, XDATA, add(CFA_XSP16, literal(-10)))
          CFI V11 load(1, XDATA, add(CFA_XSP16, literal(-9)))
          CFI V12 load(1, XDATA, add(CFA_XSP16, literal(-8)))
          CFI V13 load(1, XDATA, add(CFA_XSP16, literal(-7)))
          CFI R7 load(1, XDATA, add(CFA_XSP16, literal(-6)))
          CFI ?RET_LOW load(1, XDATA, add(CFA_XSP16, literal(-5)))
          CFI ?RET_HIGH load(1, XDATA, add(CFA_XSP16, literal(-4)))
          CFI ?BRET_EXT load(1, XDATA, add(CFA_XSP16, literal(-3)))
          CFI DPL0 load(1, XDATA, add(CFA_XSP16, literal(-2)))
          CFI DPH0 load(1, XDATA, add(CFA_XSP16, literal(-1)))
          CFI CFA_SP SP+-2
          CFI CFA_XSP16 add(XSP16, 22)
          CFI Block cfiCond415 Using cfiCommon0
          CFI (cfiCond415) Function initiatorSendNwkJoinReq
          CFI (cfiCond415) Conditional ??CrossCallReturnLabel_50
          CFI (cfiCond415) R6 load(1, XDATA, add(CFA_XSP16, literal(-16)))
          CFI (cfiCond415) VB load(1, XDATA, add(CFA_XSP16, literal(-15)))
          CFI (cfiCond415) V0 load(1, XDATA, add(CFA_XSP16, literal(-14)))
          CFI (cfiCond415) V1 load(1, XDATA, add(CFA_XSP16, literal(-13)))
          CFI (cfiCond415) V2 load(1, XDATA, add(CFA_XSP16, literal(-12)))
          CFI (cfiCond415) V3 load(1, XDATA, add(CFA_XSP16, literal(-11)))
          CFI (cfiCond415) V4 load(1, XDATA, add(CFA_XSP16, literal(-10)))
          CFI (cfiCond415) V5 load(1, XDATA, add(CFA_XSP16, literal(-9)))
          CFI (cfiCond415) V6 load(1, XDATA, add(CFA_XSP16, literal(-8)))
          CFI (cfiCond415) V7 load(1, XDATA, add(CFA_XSP16, literal(-7)))
          CFI (cfiCond415) R7 load(1, XDATA, add(CFA_XSP16, literal(-6)))
          CFI (cfiCond415) ?RET_LOW load(1, XDATA, add(CFA_XSP16, literal(-5)))
          CFI (cfiCond415) ?RET_HIGH load(1, XDATA, add(CFA_XSP16, literal(-4)))
          CFI (cfiCond415) ?BRET_EXT load(1, XDATA, add(CFA_XSP16, literal(-3)))
          CFI (cfiCond415) DPL0 load(1, XDATA, add(CFA_XSP16, literal(-2)))
          CFI (cfiCond415) DPH0 load(1, XDATA, add(CFA_XSP16, literal(-1)))
          CFI (cfiCond415) CFA_SP SP+-2
          CFI (cfiCond415) CFA_XSP16 add(XSP16, 16)
          CFI Block cfiPicker416 Using cfiCommon1
          CFI (cfiPicker416) NoFunction
          CFI (cfiPicker416) Picker
        MOV       ?V0,A
        CLR       A
        ADDC      A,R7
        MOV       ?V1,A
        MOV       DPL,?V0
        MOV       DPH,A
        RET
          CFI EndBlock cfiCond414
          CFI EndBlock cfiCond415
          CFI EndBlock cfiPicker416

        RSEG BANKED_CODE:HUGECODE:NOROOT(0)
?Subroutine28:
          CFI Block cfiCond417 Using cfiCommon0
          CFI Function initiatorScanRspCB
          CFI Conditional ??CrossCallReturnLabel_25
          CFI R6 load(1, XDATA, add(CFA_XSP16, literal(-12)))
          CFI VB load(1, XDATA, add(CFA_XSP16, literal(-11)))
          CFI V0 load(1, XDATA, add(CFA_XSP16, literal(-10)))
          CFI V1 load(1, XDATA, add(CFA_XSP16, literal(-9)))
          CFI V2 load(1, XDATA, add(CFA_XSP16, literal(-8)))
          CFI V3 load(1, XDATA, add(CFA_XSP16, literal(-7)))
          CFI R7 load(1, XDATA, add(CFA_XSP16, literal(-6)))
          CFI ?RET_LOW load(1, XDATA, add(CFA_XSP16, literal(-5)))
          CFI ?RET_HIGH load(1, XDATA, add(CFA_XSP16, literal(-4)))
          CFI ?BRET_EXT load(1, XDATA, add(CFA_XSP16, literal(-3)))
          CFI DPL0 load(1, XDATA, add(CFA_XSP16, literal(-2)))
          CFI DPH0 load(1, XDATA, add(CFA_XSP16, literal(-1)))
          CFI CFA_SP SP+-2
          CFI CFA_XSP16 add(XSP16, 17)
          CFI Block cfiCond418 Using cfiCommon0
          CFI (cfiCond418) Function initiatorScanRspCB
          CFI (cfiCond418) Conditional ??CrossCallReturnLabel_26
          CFI (cfiCond418) R6 load(1, XDATA, add(CFA_XSP16, literal(-12)))
          CFI (cfiCond418) VB load(1, XDATA, add(CFA_XSP16, literal(-11)))
          CFI (cfiCond418) V0 load(1, XDATA, add(CFA_XSP16, literal(-10)))
          CFI (cfiCond418) V1 load(1, XDATA, add(CFA_XSP16, literal(-9)))
          CFI (cfiCond418) V2 load(1, XDATA, add(CFA_XSP16, literal(-8)))
          CFI (cfiCond418) V3 load(1, XDATA, add(CFA_XSP16, literal(-7)))
          CFI (cfiCond418) R7 load(1, XDATA, add(CFA_XSP16, literal(-6)))
          CFI (cfiCond418) ?RET_LOW load(1, XDATA, add(CFA_XSP16, literal(-5)))
          CFI (cfiCond418) ?RET_HIGH load(1, XDATA, add(CFA_XSP16, literal(-4)))
          CFI (cfiCond418) ?BRET_EXT load(1, XDATA, add(CFA_XSP16, literal(-3)))
          CFI (cfiCond418) DPL0 load(1, XDATA, add(CFA_XSP16, literal(-2)))
          CFI (cfiCond418) DPH0 load(1, XDATA, add(CFA_XSP16, literal(-1)))
          CFI (cfiCond418) CFA_SP SP+-2
          CFI (cfiCond418) CFA_XSP16 add(XSP16, 17)
          CFI Block cfiCond419 Using cfiCommon0
          CFI (cfiCond419) Function initiatorSendNwkJoinReq
          CFI (cfiCond419) Conditional ??CrossCallReturnLabel_27
          CFI (cfiCond419) R6 load(1, XDATA, add(CFA_XSP16, literal(-16)))
          CFI (cfiCond419) VB load(1, XDATA, add(CFA_XSP16, literal(-15)))
          CFI (cfiCond419) V0 load(1, XDATA, add(CFA_XSP16, literal(-14)))
          CFI (cfiCond419) V1 load(1, XDATA, add(CFA_XSP16, literal(-13)))
          CFI (cfiCond419) V2 load(1, XDATA, add(CFA_XSP16, literal(-12)))
          CFI (cfiCond419) V3 load(1, XDATA, add(CFA_XSP16, literal(-11)))
          CFI (cfiCond419) V4 load(1, XDATA, add(CFA_XSP16, literal(-10)))
          CFI (cfiCond419) V5 load(1, XDATA, add(CFA_XSP16, literal(-9)))
          CFI (cfiCond419) V6 load(1, XDATA, add(CFA_XSP16, literal(-8)))
          CFI (cfiCond419) V7 load(1, XDATA, add(CFA_XSP16, literal(-7)))
          CFI (cfiCond419) R7 load(1, XDATA, add(CFA_XSP16, literal(-6)))
          CFI (cfiCond419) ?RET_LOW load(1, XDATA, add(CFA_XSP16, literal(-5)))
          CFI (cfiCond419) ?RET_HIGH load(1, XDATA, add(CFA_XSP16, literal(-4)))
          CFI (cfiCond419) ?BRET_EXT load(1, XDATA, add(CFA_XSP16, literal(-3)))
          CFI (cfiCond419) DPL0 load(1, XDATA, add(CFA_XSP16, literal(-2)))
          CFI (cfiCond419) DPH0 load(1, XDATA, add(CFA_XSP16, literal(-1)))
          CFI (cfiCond419) CFA_SP SP+-2
          CFI (cfiCond419) CFA_XSP16 add(XSP16, 16)
          CFI Block cfiPicker420 Using cfiCommon1
          CFI (cfiPicker420) NoFunction
          CFI (cfiPicker420) Picker
        MOVX      @DPTR,A
        MOV       DPL,?V0
        MOV       DPH,?V1
        RET
          CFI EndBlock cfiCond417
          CFI EndBlock cfiCond418
          CFI EndBlock cfiCond419
          CFI EndBlock cfiPicker420

        RSEG BANKED_CODE:HUGECODE:NOROOT(0)
?Subroutine12:
          CFI Block cfiCond421 Using cfiCommon0
          CFI Function initiatorScanRspCB
          CFI Conditional ??CrossCallReturnLabel_5
          CFI R6 load(1, XDATA, add(CFA_XSP16, literal(-12)))
          CFI VB load(1, XDATA, add(CFA_XSP16, literal(-11)))
          CFI V0 load(1, XDATA, add(CFA_XSP16, literal(-10)))
          CFI V1 load(1, XDATA, add(CFA_XSP16, literal(-9)))
          CFI V2 load(1, XDATA, add(CFA_XSP16, literal(-8)))
          CFI V3 load(1, XDATA, add(CFA_XSP16, literal(-7)))
          CFI R7 load(1, XDATA, add(CFA_XSP16, literal(-6)))
          CFI ?RET_LOW load(1, XDATA, add(CFA_XSP16, literal(-5)))
          CFI ?RET_HIGH load(1, XDATA, add(CFA_XSP16, literal(-4)))
          CFI ?BRET_EXT load(1, XDATA, add(CFA_XSP16, literal(-3)))
          CFI DPL0 load(1, XDATA, add(CFA_XSP16, literal(-2)))
          CFI DPH0 load(1, XDATA, add(CFA_XSP16, literal(-1)))
          CFI CFA_SP SP+-2
          CFI CFA_XSP16 add(XSP16, 17)
          CFI Block cfiCond422 Using cfiCommon0
          CFI (cfiCond422) Function initiatorSendNwkJoinReq
          CFI (cfiCond422) Conditional ??CrossCallReturnLabel_6
          CFI (cfiCond422) R6 load(1, XDATA, add(CFA_XSP16, literal(-16)))
          CFI (cfiCond422) VB load(1, XDATA, add(CFA_XSP16, literal(-15)))
          CFI (cfiCond422) V0 load(1, XDATA, add(CFA_XSP16, literal(-14)))
          CFI (cfiCond422) V1 load(1, XDATA, add(CFA_XSP16, literal(-13)))
          CFI (cfiCond422) V2 load(1, XDATA, add(CFA_XSP16, literal(-12)))
          CFI (cfiCond422) V3 load(1, XDATA, add(CFA_XSP16, literal(-11)))
          CFI (cfiCond422) V4 load(1, XDATA, add(CFA_XSP16, literal(-10)))
          CFI (cfiCond422) V5 load(1, XDATA, add(CFA_XSP16, literal(-9)))
          CFI (cfiCond422) V6 load(1, XDATA, add(CFA_XSP16, literal(-8)))
          CFI (cfiCond422) V7 load(1, XDATA, add(CFA_XSP16, literal(-7)))
          CFI (cfiCond422) R7 load(1, XDATA, add(CFA_XSP16, literal(-6)))
          CFI (cfiCond422) ?RET_LOW load(1, XDATA, add(CFA_XSP16, literal(-5)))
          CFI (cfiCond422) ?RET_HIGH load(1, XDATA, add(CFA_XSP16, literal(-4)))
          CFI (cfiCond422) ?BRET_EXT load(1, XDATA, add(CFA_XSP16, literal(-3)))
          CFI (cfiCond422) DPL0 load(1, XDATA, add(CFA_XSP16, literal(-2)))
          CFI (cfiCond422) DPH0 load(1, XDATA, add(CFA_XSP16, literal(-1)))
          CFI (cfiCond422) CFA_SP SP+-2
          CFI (cfiCond422) CFA_XSP16 add(XSP16, 16)
          CFI Block cfiPicker423 Using cfiCommon1
          CFI (cfiPicker423) NoFunction
          CFI (cfiPicker423) Picker
        LCALL     ?Subroutine42 & 0xFFFF
??CrossCallReturnLabel_65:
        MOV       DPL,R0
        MOV       DPH,R1
        INC       DPTR
        INC       DPTR
        INC       DPTR
        INC       DPTR
        INC       DPTR
        INC       DPTR
        INC       DPTR
        INC       DPTR
        INC       DPTR
        INC       DPTR
        MOV       A,R2
        MOVX      @DPTR,A
        INC       DPTR
        MOV       A,R3
        MOVX      @DPTR,A
        RET
          CFI EndBlock cfiCond421
          CFI EndBlock cfiCond422
          CFI EndBlock cfiPicker423
// 2300 
// 2301 /*********************************************************************
// 2302  * @fn      initiatorSendNwkUpdateReq
// 2303  *
// 2304  * @brief   Send out a Network Update Request command.
// 2305  *
// 2306  * @param   pRsp - received Scan Response
// 2307  *
// 2308  * @return  ZStatus_t
// 2309  */
// 2310 static ZStatus_t initiatorSendNwkUpdateReq( bdbTLScanRsp_t *pRsp )
// 2311 {
// 2312   bdbTLNwkUpdateReq_t *pReq;
// 2313   ZStatus_t status;
// 2314 
// 2315   pReq = (bdbTLNwkUpdateReq_t *)osal_mem_alloc( sizeof( bdbTLNwkUpdateReq_t ) );
// 2316   if ( pReq!= NULL )
// 2317   {
// 2318     // Build the request
// 2319     pReq->transID = pRsp->transID;
// 2320     osal_cpyExtAddr( pReq->extendedPANID, _NIB.extendedPANID );
// 2321     pReq->nwkUpdateId = _NIB.nwkUpdateId;
// 2322     pReq->logicalChannel = _NIB.nwkLogicalChannel;
// 2323     pReq->PANID = _NIB.nwkPanId;
// 2324     pReq->nwkAddr = pRsp->nwkAddr;
// 2325 
// 2326     status = bdbTL_Send_NwkUpdateReq( TOUCHLINK_INTERNAL_ENDPOINT, &(selectedTarget.srcAddr), pReq, initiatorSeqNum++ );
// 2327 
// 2328     osal_mem_free( pReq );
// 2329   }
// 2330   else
// 2331   {
// 2332     status = ZMemError;
// 2333   }
// 2334 
// 2335   return ( status );
// 2336 }
// 2337 
// 2338 /*********************************************************************
// 2339  * @fn      initiatorClearSelectedTarget
// 2340  *
// 2341  * @brief   clear selected target variable.
// 2342  *
// 2343  * @param   none
// 2344  *
// 2345  * @return  none
// 2346  */

        RSEG BANKED_CODE:HUGECODE:NOROOT(0)
// 2347 static void initiatorClearSelectedTarget( void )
initiatorClearSelectedTarget:
          CFI Block cfiBlock424 Using cfiCommon0
          CFI Function initiatorClearSelectedTarget
        CODE
// 2348 {
        FUNCALL initiatorClearSelectedTarget, osal_memset
        LOCFRAME ISTACK, 2, STACK
        LOCFRAME PSTACK, 0, STACK
        LOCFRAME XSTACK, 0, STACK
        LOCFRAME IOVERLAY, 0, STATIC
        LOCFRAME DOVERLAY, 0, STATIC
        ARGFRAME ISTACK, 2, STACK
        ARGFRAME PSTACK, 0, STACK
        ARGFRAME XSTACK, 0, STACK
        ARGFRAME IOVERLAY, 0, STATIC
        ARGFRAME DOVERLAY, 0, STATIC
        PUSH      DPL
          CFI DPL0 Frame(CFA_SP, 4)
          CFI CFA_SP SP+-4
        PUSH      DPH
          CFI DPH0 Frame(CFA_SP, 5)
          CFI CFA_SP SP+-5
        ; Saved register size: 2
        ; Auto size: 0
// 2349   osal_memset( &selectedTarget, 0x00, sizeof(targetCandidate_t) );
        ; Setup parameters for call to function osal_memset
        MOV       R4,#0x36
        MOV       R5,#0x0
        MOV       R1,#0x0
        MOV       R2,#selectedTarget & 0xff
        MOV       R3,#(selectedTarget >> 8) & 0xff
        LCALL     `??osal_memset::?relay`; Banked call to: osal_memset
// 2350   selectedTarget.lastRssi = TOUCHLINK_WORST_RSSI;
        MOV       DPTR,#selectedTarget + 53
        MOV       A,#-0x46
        LJMP      ??Subroutine45_0 & 0xFFFF
// 2351 }
          CFI EndBlock cfiBlock424

        RSEG XDATA_ID:CODE:NOROOT(0)
`?<Initializer for initiatorRegisteredMsgAppTas`:
        DATA8
        DB 255

        RSEG XDATA_ID:CODE:NOROOT(0)
`?<Initializer for touchLinkInitiator_CmdCBs>`:
        DATA16
        DW `??initiatorScanReqCB::?relay`
        DW `??initiatorDeviceInfoReqCB::?relay`
        DW `??initiatorIdentifyReqCB::?relay`
        DW 0H
        DW 0H
        DW `??initiatorNwkJoinReqCB::?relay`
        DW 0H
        DW `??initiatorNwkUpdateReqCB::?relay`
        DW `??initiatorScanRspCB::?relay`
        DW `??initiatorDeviceInfoRspCB::?relay`
        DW `??initiatorNwkStartRspCB::?relay`
        DW `??initiatorNwkJoinRtrRspCB::?relay`
        DW `??initiatorNwkJoinEDRspCB::?relay`

        RSEG BANK_RELAYS:CODE:REORDER:NOROOT(0)
`??touchLinkInitiator_InitDevice::?relay`:
        CODE
        LCALL   ?BDISPATCH
        DATA24
        DC24    touchLinkInitiator_InitDevice

        RSEG BANK_RELAYS:CODE:REORDER:NOROOT(0)
`??touchLinkInitiator_RegisterNotifyTLCB::?relay`:
        CODE
        LCALL   ?BDISPATCH
        DATA24
        DC24    touchLinkInitiator_RegisterNotifyTLCB

        RSEG BANK_RELAYS:CODE:REORDER:NOROOT(0)
`??touchLinkInitiator_RegisterSelectDiscDevCB::?`:
        CODE
        LCALL   ?BDISPATCH
        DATA24
        DC24    touchLinkInitiator_RegisterSelectDiscDevCB

        RSEG BANK_RELAYS:CODE:REORDER:NOROOT(0)
`??touchLinkInitiator_StartDevDisc::?relay`:
        CODE
        LCALL   ?BDISPATCH
        DATA24
        DC24    touchLinkInitiator_StartDevDisc

        RSEG BANK_RELAYS:CODE:REORDER:NOROOT(0)
`??touchLinkInitiator_ResetToFNProcedure::?relay`:
        CODE
        LCALL   ?BDISPATCH
        DATA24
        DC24    touchLinkInitiator_ResetToFNProcedure

        RSEG BANK_RELAYS:CODE:REORDER:NOROOT(0)
`??touchLinkInitiator_AbortTL::?relay`:
        CODE
        LCALL   ?BDISPATCH
        DATA24
        DC24    touchLinkInitiator_AbortTL

        RSEG BANK_RELAYS:CODE:REORDER:NOROOT(0)
`??touchLinkInitiator_Init::?relay`:
        CODE
        LCALL   ?BDISPATCH
        DATA24
        DC24    touchLinkInitiator_Init

        RSEG BANK_RELAYS:CODE:REORDER:NOROOT(0)
`??initiatorSelectNwkParams::?relay`:
        CODE
        LCALL   ?BDISPATCH
        DATA24
        DC24    initiatorSelectNwkParams

        RSEG BANK_RELAYS:CODE:REORDER:NOROOT(0)
`??touchLinkInitiator_RegisterForMsg::?relay`:
        CODE
        LCALL   ?BDISPATCH
        DATA24
        DC24    touchLinkInitiator_RegisterForMsg

        RSEG BANK_RELAYS:CODE:REORDER:NOROOT(0)
`??touchLinkInitiator_event_loop::?relay`:
        CODE
        LCALL   ?BDISPATCH
        DATA24
        DC24    touchLinkInitiator_event_loop

        RSEG BANK_RELAYS:CODE:REORDER:NOROOT(0)
`??touchLinkInitiator_ChannelChange::?relay`:
        CODE
        LCALL   ?BDISPATCH
        DATA24
        DC24    touchLinkInitiator_ChannelChange

        RSEG BANK_RELAYS:CODE:REORDER:NOROOT(0)
`??touchLinkInitiator_SendEPInfo::?relay`:
        CODE
        LCALL   ?BDISPATCH
        DATA24
        DC24    touchLinkInitiator_SendEPInfo

        RSEG BANK_RELAYS:CODE:REORDER:NOROOT(0)
`??touchLinkInitiator_ResetToFNSelectedTarget::?`:
        CODE
        LCALL   ?BDISPATCH
        DATA24
        DC24    touchLinkInitiator_ResetToFNSelectedTarget

        RSEG BANK_RELAYS:CODE:REORDER:NOROOT(0)
`??touchLink_InitiatorSendScanRsp::?relay`:
        CODE
        LCALL   ?BDISPATCH
        DATA24
        DC24    touchLink_InitiatorSendScanRsp

        RSEG BANK_RELAYS:CODE:REORDER:NOROOT(0)
`??bdb_Initiator_SendNwkJoinReq::?relay`:
        CODE
        LCALL   ?BDISPATCH
        DATA24
        DC24    bdb_Initiator_SendNwkJoinReq

        RSEG BANK_RELAYS:CODE:REORDER:NOROOT(0)
`??touchLinkInitiator_PermitJoin::?relay`:
        CODE
        LCALL   ?BDISPATCH
        DATA24
        DC24    touchLinkInitiator_PermitJoin

        RSEG BANK_RELAYS:CODE:REORDER:NOROOT(0)
`??initiatorScanReqCB::?relay`:
        CODE
        LCALL   ?BDISPATCH
        DATA24
        DC24    initiatorScanReqCB

        RSEG BANK_RELAYS:CODE:REORDER:NOROOT(0)
`??initiatorDeviceInfoReqCB::?relay`:
        CODE
        LCALL   ?BDISPATCH
        DATA24
        DC24    initiatorDeviceInfoReqCB

        RSEG BANK_RELAYS:CODE:REORDER:NOROOT(0)
`??initiatorIdentifyReqCB::?relay`:
        CODE
        LCALL   ?BDISPATCH
        DATA24
        DC24    initiatorIdentifyReqCB

        RSEG BANK_RELAYS:CODE:REORDER:NOROOT(0)
`??initiatorNwkJoinReqCB::?relay`:
        CODE
        LCALL   ?BDISPATCH
        DATA24
        DC24    initiatorNwkJoinReqCB

        RSEG BANK_RELAYS:CODE:REORDER:NOROOT(0)
`??initiatorNwkUpdateReqCB::?relay`:
        CODE
        LCALL   ?BDISPATCH
        DATA24
        DC24    initiatorNwkUpdateReqCB

        RSEG BANK_RELAYS:CODE:REORDER:NOROOT(0)
`??initiatorScanRspCB::?relay`:
        CODE
        LCALL   ?BDISPATCH
        DATA24
        DC24    initiatorScanRspCB

        RSEG BANK_RELAYS:CODE:REORDER:NOROOT(0)
`??initiatorDeviceInfoRspCB::?relay`:
        CODE
        LCALL   ?BDISPATCH
        DATA24
        DC24    initiatorDeviceInfoRspCB

        RSEG BANK_RELAYS:CODE:REORDER:NOROOT(0)
`??initiatorNwkStartRspCB::?relay`:
        CODE
        LCALL   ?BDISPATCH
        DATA24
        DC24    initiatorNwkStartRspCB

        RSEG BANK_RELAYS:CODE:REORDER:NOROOT(0)
`??initiatorNwkJoinRtrRspCB::?relay`:
        CODE
        LCALL   ?BDISPATCH
        DATA24
        DC24    initiatorNwkJoinRtrRspCB

        RSEG BANK_RELAYS:CODE:REORDER:NOROOT(0)
`??initiatorNwkJoinEDRspCB::?relay`:
        CODE
        LCALL   ?BDISPATCH
        DATA24
        DC24    initiatorNwkJoinEDRspCB

        RSEG BANK_RELAYS:CODE:REORDER:NOROOT(0)
`??initiatorZdoLeaveCnfCB::?relay`:
        CODE
        LCALL   ?BDISPATCH
        DATA24
        DC24    initiatorZdoLeaveCnfCB

        RSEG BANK_RELAYS:CODE:REORDER:NOROOT(0)
`??initiatorProcessStateChange::?relay`:
        CODE
        LCALL   ?BDISPATCH
        DATA24
        DC24    initiatorProcessStateChange

        RSEG BANK_RELAYS:CODE:REORDER:NOROOT(0)
`??initiatorSetNwkToInitState::?relay`:
        CODE
        LCALL   ?BDISPATCH
        DATA24
        DC24    initiatorSetNwkToInitState

        RSEG BANK_RELAYS:CODE:REORDER:NOROOT(0)
`??initiatorReJoinNwk::?relay`:
        CODE
        LCALL   ?BDISPATCH
        DATA24
        DC24    initiatorReJoinNwk

        RSEG BANK_RELAYS:CODE:REORDER:NOROOT(0)
`??initiatorSendScanReq::?relay`:
        CODE
        LCALL   ?BDISPATCH
        DATA24
        DC24    initiatorSendScanReq

        RSEG BANK_RELAYS:CODE:REORDER:NOROOT(0)
`??initiatorSendNwkJoinReq::?relay`:
        CODE
        LCALL   ?BDISPATCH
        DATA24
        DC24    initiatorSendNwkJoinReq

        RSEG BANK_RELAYS:CODE:REORDER:NOROOT(0)
`??initiatorClearSelectedTarget::?relay`:
        CODE
        LCALL   ?BDISPATCH
        DATA24
        DC24    initiatorClearSelectedTarget

        RSEG XDATA_ROM_C:CONST:REORDER:NOROOT(0)
        DATA8
`?<Constant {255, 255, 255, 255, 255, 255, 255,`:
        DB 255
        DB 255
        DB 255
        DB 255
        DB 255
        DB 255
        DB 255
        DB 255

        RSEG XDATA_ROM_C:CONST:REORDER:NOROOT(0)
        DATA8
`?<Constant {12, 13, 14, 16, 17, 18, 19, 21, 22`:
        DB 12
        DB 13
        DB 14
        DB 16
        DB 17
        DB 18
        DB 19
        DB 21
        DB 22
        DB 23
        DB 24
        DB 26

        RSEG XDATA_ROM_C:CONST:REORDER:NOROOT(0)
        DATA32
__Constant_1f40:
        DD 8000

        RSEG XDATA_ROM_C:CONST:REORDER:NOROOT(0)
        DATA32
__Constant_0:
        DD 0

        RSEG XDATA_ROM_C:CONST:REORDER:NOROOT(0)
        DATA32
__Constant_1f4:
        DD 500

        RSEG XDATA_ROM_C:CONST:REORDER:NOROOT(0)
        DATA32
__Constant_32:
        DD 50

        RSEG XDATA_ROM_C:CONST:REORDER:NOROOT(0)
        DATA32
__Constant_7d0:
        DD 2000

        RSEG XDATA_ROM_C:CONST:REORDER:NOROOT(0)
        DATA32
__Constant_1388:
        DD 5000

        RSEG XDATA_ROM_C:CONST:REORDER:NOROOT(0)
        DATA32
__Constant_30d4:
        DD 12500

        RSEG XDATA_ROM_C:CONST:REORDER:NOROOT(0)
        DATA32
__Constant_fa:
        DD 250

        END
// 2352 
// 2353 #endif //BDB_TL_INITIATOR
// 2354 
// 2355 /*********************************************************************
// 2356 *********************************************************************/
// 
// 7 010 bytes in segment BANKED_CODE
//   198 bytes in segment BANK_RELAYS
//    27 bytes in segment XDATA_I
//    27 bytes in segment XDATA_ID
//    61 bytes in segment XDATA_ROM_C
//   172 bytes in segment XDATA_Z
// 
//   225 bytes of CODE     memory
//    29 bytes of CONST    memory (+ 32 bytes shared)
// 7 010 bytes of HUGECODE memory
//   199 bytes of XDATA    memory
//
//Errors: none
//Warnings: none
