///////////////////////////////////////////////////////////////////////////////
//
// IAR C/C++ Compiler V10.30.1.6000 for 8051              21/Jul/2020  00:36:38
// Copyright 2004-2018 IAR Systems AB.
// PC-locked license - IAR Embedded Workbench for 8051
//
//    Core               =  plain
//    Code model         =  banked
//    Data model         =  large
//    Calling convention =  xdata reentrant
//    Constant location  =  data_rom
//    Dptr setup         =  1,16
//                          
//    Source file        =  D:\AA\Z-Stack 3.0.2\Components\stack\zcl\zcl.c
//    Command line       =  
//        -f C:\Users\sunli\AppData\Local\Temp\EW223B.tmp ("D:\AA\Z-Stack
//        3.0.2\Components\stack\zcl\zcl.c" -D BDB_REPORTING -D SECURE=1 -D
//        TC_LINKKEY_JOIN -D NV_INIT -D xNV_RESTORE -D xPOWER_SAVING -D
//        NWK_AUTO_POLL -D xZTOOL_P1 -D xMT_TASK -D xMT_APP_FUNC -D
//        xMT_SYS_FUNC -D xMT_ZDO_FUNC -D xMT_APP_CNF_FUNC -D
//        LCD_SUPPORTED=DEBUG -D MULTICAST_ENABLED=FALSE -D ZCL_READ -D
//        ZCL_DISCOVER -D ZCL_WRITE -D ZCL_BASIC -D ZCL_IDENTIFY -D
//        ZCL_TEMPERATURE_MEASUREMENT -D ZCL_GROUPS -D ZCL_ON_OFF -D ZCL_REPORT
//        -D ZCL_REPORT_DESTINATION_DEVICE -lC "D:\AA\Z-Stack
//        3.0.2\Projects\zstack\HomeAutomation\SampleTemperatureSensor\CC2530DB\EndDeviceEB\List"
//        -lA "D:\AA\Z-Stack
//        3.0.2\Projects\zstack\HomeAutomation\SampleTemperatureSensor\CC2530DB\EndDeviceEB\List"
//        --diag_suppress Pe001,Pa010 -o "D:\AA\Z-Stack
//        3.0.2\Projects\zstack\HomeAutomation\SampleTemperatureSensor\CC2530DB\EndDeviceEB\Obj"
//        -e --debug --core=plain --dptr=16,1 --data_model=large
//        --code_model=banked --calling_convention=xdata_reentrant
//        --place_constants=data_rom --nr_virtual_regs 16 -f "D:\AA\Z-Stack
//        3.0.2\Projects\zstack\HomeAutomation\SampleTemperatureSensor\CC2530DB\..\..\..\Tools\CC2530DB\f8wEndev.cfg"
//        (-DCPU32MHZ -DROOT=__near_func -DMAC_CFG_TX_DATA_MAX=3
//        -DMAC_CFG_TX_MAX=6 -DMAC_CFG_RX_MAX=3) -f "D:\AA\Z-Stack
//        3.0.2\Projects\zstack\HomeAutomation\SampleTemperatureSensor\CC2530DB\..\..\..\Tools\CC2530DB\f8wConfig.cfg"
//        (-DZIGBEEPRO -DSECURE=1 -DZG_SECURE_DYNAMIC=0 -DREFLECTOR
//        -DDEFAULT_CHANLIST=0x00000800 -DZDAPP_CONFIG_PAN_ID=0xFFFF
//        -DNWK_START_DELAY=100 -DEXTENDED_JOINING_RANDOM_MASK=0x007F
//        -DBEACON_REQUEST_DELAY=100 -DBEACON_REQ_DELAY_MASK=0x00FF
//        -DLINK_STATUS_JITTER_MASK=0x007F -DROUTE_EXPIRY_TIME=30
//        -DAPSC_ACK_WAIT_DURATION_POLLED=3000 -DNWK_INDIRECT_MSG_TIMEOUT=7
//        -DMAX_RREQ_ENTRIES=8 -DAPSC_MAX_FRAME_RETRIES=3
//        -DNWK_MAX_DATA_RETRIES=2 -DMAX_POLL_FAILURE_RETRIES=2 -DMAX_BCAST=9
//        -DAPS_MAX_GROUPS=16 -DMAX_RTG_ENTRIES=40 -DNWK_MAX_BINDING_ENTRIES=4
//        -DMAX_BINDING_CLUSTER_IDS=4 -DDEFAULT_KEY={0}
//        -DMAC_MAX_FRAME_SIZE=116 -DZDNWKMGR_MIN_TRANSMISSIONS=20
//        "-DCONST=const __code" -DGENERIC=__generic -DRFD_RCVC_ALWAYS_ON=FALSE
//        -DPOLL_RATE=1000 -DQUEUED_POLL_RATE=100 -DRESPONSE_POLL_RATE=100
//        -DREJOIN_POLL_RATE=440 -DREJOIN_BACKOFF=900000 -DREJOIN_SCAN=900000
//        -DENABLE_LED4_DISABLE_S1) -f "D:\AA\Z-Stack
//        3.0.2\Projects\zstack\HomeAutomation\SampleTemperatureSensor\CC2530DB\..\..\..\Tools\CC2530DB\f8wZCL.cfg"
//        -I "D:\AA\Z-Stack
//        3.0.2\Projects\zstack\HomeAutomation\SampleTemperatureSensor\CC2530DB\"
//        -I "D:\AA\Z-Stack
//        3.0.2\Projects\zstack\HomeAutomation\SampleTemperatureSensor\CC2530DB\..\Source\"
//        -I "D:\AA\Z-Stack
//        3.0.2\Projects\zstack\HomeAutomation\SampleTemperatureSensor\CC2530DB\..\..\Source\"
//        -I "D:\AA\Z-Stack
//        3.0.2\Projects\zstack\HomeAutomation\SampleTemperatureSensor\CC2530DB\..\..\..\ZMain\TI2530DB\"
//        -I "D:\AA\Z-Stack
//        3.0.2\Projects\zstack\HomeAutomation\SampleTemperatureSensor\CC2530DB\..\..\..\..\..\Components\hal\include\"
//        -I "D:\AA\Z-Stack
//        3.0.2\Projects\zstack\HomeAutomation\SampleTemperatureSensor\CC2530DB\..\..\..\..\..\Components\hal\target\CC2530EB\"
//        -I "D:\AA\Z-Stack
//        3.0.2\Projects\zstack\HomeAutomation\SampleTemperatureSensor\CC2530DB\..\..\..\..\..\Components\mac\include\"
//        -I "D:\AA\Z-Stack
//        3.0.2\Projects\zstack\HomeAutomation\SampleTemperatureSensor\CC2530DB\..\..\..\..\..\Components\mac\high_level\"
//        -I "D:\AA\Z-Stack
//        3.0.2\Projects\zstack\HomeAutomation\SampleTemperatureSensor\CC2530DB\..\..\..\..\..\Components\mac\low_level\srf04\"
//        -I "D:\AA\Z-Stack
//        3.0.2\Projects\zstack\HomeAutomation\SampleTemperatureSensor\CC2530DB\..\..\..\..\..\Components\mac\low_level\srf04\single_chip\"
//        -I "D:\AA\Z-Stack
//        3.0.2\Projects\zstack\HomeAutomation\SampleTemperatureSensor\CC2530DB\..\..\..\..\..\Components\mt\"
//        -I "D:\AA\Z-Stack
//        3.0.2\Projects\zstack\HomeAutomation\SampleTemperatureSensor\CC2530DB\..\..\..\..\..\Components\osal\include\"
//        -I "D:\AA\Z-Stack
//        3.0.2\Projects\zstack\HomeAutomation\SampleTemperatureSensor\CC2530DB\..\..\..\..\..\Components\services\saddr\"
//        -I "D:\AA\Z-Stack
//        3.0.2\Projects\zstack\HomeAutomation\SampleTemperatureSensor\CC2530DB\..\..\..\..\..\Components\services\sdata\"
//        -I "D:\AA\Z-Stack
//        3.0.2\Projects\zstack\HomeAutomation\SampleTemperatureSensor\CC2530DB\..\..\..\..\..\Components\stack\af\"
//        -I "D:\AA\Z-Stack
//        3.0.2\Projects\zstack\HomeAutomation\SampleTemperatureSensor\CC2530DB\..\..\..\..\..\Components\stack\bdb\"
//        -I "D:\AA\Z-Stack
//        3.0.2\Projects\zstack\HomeAutomation\SampleTemperatureSensor\CC2530DB\..\..\..\..\..\Components\stack\gp\"
//        -I "D:\AA\Z-Stack
//        3.0.2\Projects\zstack\HomeAutomation\SampleTemperatureSensor\CC2530DB\..\..\..\..\..\Components\stack\nwk\"
//        -I "D:\AA\Z-Stack
//        3.0.2\Projects\zstack\HomeAutomation\SampleTemperatureSensor\CC2530DB\..\..\..\..\..\Components\stack\sapi\"
//        -I "D:\AA\Z-Stack
//        3.0.2\Projects\zstack\HomeAutomation\SampleTemperatureSensor\CC2530DB\..\..\..\..\..\Components\stack\sec\"
//        -I "D:\AA\Z-Stack
//        3.0.2\Projects\zstack\HomeAutomation\SampleTemperatureSensor\CC2530DB\..\..\..\..\..\Components\stack\sys\"
//        -I "D:\AA\Z-Stack
//        3.0.2\Projects\zstack\HomeAutomation\SampleTemperatureSensor\CC2530DB\..\..\..\..\..\Components\stack\zcl\"
//        -I "D:\AA\Z-Stack
//        3.0.2\Projects\zstack\HomeAutomation\SampleTemperatureSensor\CC2530DB\..\..\..\..\..\Components\stack\zdo\"
//        -I "D:\AA\Z-Stack
//        3.0.2\Projects\zstack\HomeAutomation\SampleTemperatureSensor\CC2530DB\..\..\..\..\..\Components\zmac\"
//        -I "D:\AA\Z-Stack
//        3.0.2\Projects\zstack\HomeAutomation\SampleTemperatureSensor\CC2530DB\..\..\..\..\..\Components\zmac\f8w\"
//        -Om --require_prototypes --no_unroll --no_inline --no_tbaa
//        --no_cross_call)
//    Locale             =  Chinese (Simplified)_CHN.936
//    List file          =  
//        D:\AA\Z-Stack
//        3.0.2\Projects\zstack\HomeAutomation\SampleTemperatureSensor\CC2530DB\EndDeviceEB\List\zcl.s51
//
///////////////////////////////////////////////////////////////////////////////

        NAME zcl

        RTMODEL "__SystemLibrary", "CLib"
        RTMODEL "__calling_convention", "xdata_reentrant"
        RTMODEL "__code_model", "banked"
        RTMODEL "__core", "plain"
        RTMODEL "__data_model", "large"
        RTMODEL "__dptr_size", "16"
        RTMODEL "__extended_stack", "disabled"
        RTMODEL "__location_for_constants", "data"
        RTMODEL "__number_of_dptrs", "1"
        RTMODEL "__register_banks", "*"
        RTMODEL "__rt_version", "1"

        RSEG DOVERLAY:DATA:NOROOT(0)
        RSEG IOVERLAY:IDATA:NOROOT(0)
        RSEG ISTACK:IDATA:NOROOT(0)
        RSEG PSTACK:XDATA:NOROOT(0)
        RSEG XSTACK:XDATA:NOROOT(0)

        EXTERN ?V0
        EXTERN ?V1
        EXTERN ?V2
        EXTERN ?V3
        EXTERN ?V4
        EXTERN ?V5
        EXTERN ?V6
        EXTERN ?V7
        EXTERN ?V8
        EXTERN ?V9
        EXTERN ?V10
        EXTERN ?V12
        EXTERN ?V13
        EXTERN ?V14
        EXTERN ?V15
        EXTERN ?V11
        EXTERN ?ALLOC_XSTACK8
        EXTERN ?BANKED_ENTER_XDATA
        EXTERN ?BANKED_LEAVE_XDATA
        EXTERN ?BDISPATCH
        EXTERN ?BRET
        EXTERN ?CALL_IND
        EXTERN ?DEALLOC_XSTACK8
        EXTERN ?L_MOV_X
        EXTERN ?MOVE_LONG8_XDATA_CODE
        EXTERN ?MOVE_LONG8_XDATA_XDATA
        EXTERN ?PUSH_XSTACK8_X_FOUR
        EXTERN ?PUSH_XSTACK8_X_TWO
        EXTERN ?PUSH_XSTACK_I_ONE
        EXTERN ?PUSH_XSTACK_I_THREE
        EXTERN ?PUSH_XSTACK_I_TWO
        EXTERN ?S_SHL
        EXTERN ?UC_SWITCH_SPARSE
        EXTERN ?UL_SHR
        EXTERN ?US_DIV_MOD
        EXTERN ?US_SHR
        EXTERN ?XSP
        EXTERN ?XSTACK_DISP0_8
        EXTERN ?XSTACK_DISP100_8
        EXTERN ?XSTACK_DISP101_8
        EXTERN ?XSTACK_DISP102_8
        EXTERN __INIT_XDATA_I
        EXTERN __INIT_XDATA_Z

        PUBLIC `??zclAnalogDataType::?relay`
        FUNCTION `??zclAnalogDataType::?relay`,0203H
        FUNCTION `??zclAuthorizeRead::?relay`,0203H
        FUNCTION `??zclAuthorizeWrite::?relay`,0203H
        FUNCTION `??zclBuildHdr::?relay`,0203H
        FUNCTION `??zclCalcHdrSize::?relay`,0203H
        PUBLIC `??zclFindAttrRec::?relay`
        FUNCTION `??zclFindAttrRec::?relay`,0203H
        PUBLIC `??zclFindAttrRecsList::?relay`
        FUNCTION `??zclFindAttrRecsList::?relay`,0203H
        FUNCTION `??zclFindClusterOption::?relay`,0203H
        PUBLIC `??zclFindCmdRec::?relay`
        FUNCTION `??zclFindCmdRec::?relay`,0203H
        FUNCTION `??zclFindCmdRecsList::?relay`,0203H
        FUNCTION `??zclFindNextAttrRec::?relay`,0203H
        FUNCTION `??zclFindNextCmdRec::?relay`,0203H
        FUNCTION `??zclFindPlugin::?relay`,0203H
        PUBLIC `??zclGetAttrDataLength::?relay`
        FUNCTION `??zclGetAttrDataLength::?relay`,0203H
        FUNCTION `??zclGetAttrDataLengthUsingCB::?relay`,0203H
        FUNCTION `??zclGetAuthorizeCB::?relay`,0203H
        FUNCTION `??zclGetClusterOption::?relay`,0203H
        PUBLIC `??zclGetDataTypeLength::?relay`
        FUNCTION `??zclGetDataTypeLength::?relay`,0203H
        FUNCTION `??zclGetReadWriteCB::?relay`,0203H
        FUNCTION `??zclIsLittleEndianMachine::?relay`,0203H
        PUBLIC `??zclParseHdr::?relay`
        FUNCTION `??zclParseHdr::?relay`,0203H
        PUBLIC `??zclParseInConfigReportCmd::?relay`
        FUNCTION `??zclParseInConfigReportCmd::?relay`,0203H
        FUNCTION `??zclParseInDefaultRspCmd::?relay`,0203H
        PUBLIC `??zclParseInDiscAttrsCmd::?relay`
        FUNCTION `??zclParseInDiscAttrsCmd::?relay`,0203H
        FUNCTION `??zclParseInDiscAttrsExtRspCmd::?relay`,0203H
        FUNCTION `??zclParseInDiscAttrsRspCmd::?relay`,0203H
        PUBLIC `??zclParseInDiscCmdsCmd::?relay`
        FUNCTION `??zclParseInDiscCmdsCmd::?relay`,0203H
        FUNCTION `??zclParseInDiscCmdsRspCmd::?relay`,0203H
        PUBLIC `??zclParseInReadCmd::?relay`
        FUNCTION `??zclParseInReadCmd::?relay`,0203H
        PUBLIC `??zclParseInReadReportCfgCmd::?relay`
        FUNCTION `??zclParseInReadReportCfgCmd::?relay`,0203H
        FUNCTION `??zclParseInReadRspCmd::?relay`,0203H
        PUBLIC `??zclParseInReportCmd::?relay`
        FUNCTION `??zclParseInReportCmd::?relay`,0203H
        PUBLIC `??zclParseInWriteCmd::?relay`
        FUNCTION `??zclParseInWriteCmd::?relay`,0203H
        FUNCTION `??zclParseInWriteRspCmd::?relay`,0203H
        FUNCTION `??zclProcessInDiscAttrs::?relay`,0203H
        FUNCTION `??zclProcessInDiscAttrsCmd::?relay`,0203H
        FUNCTION `??zclProcessInDiscAttrsExtCmd::?relay`,0203H
        FUNCTION `??zclProcessInDiscCmd::?relay`,0203H
        FUNCTION `??zclProcessInReadCmd::?relay`,0203H
        FUNCTION `??zclProcessInWriteCmd::?relay`,0203H
        FUNCTION `??zclProcessInWriteUndividedCmd::?relay`,0203H
        PUBLIC `??zclReadAttrData::?relay`
        FUNCTION `??zclReadAttrData::?relay`,0203H
        FUNCTION `??zclReadAttrDataUsingCB::?relay`,0203H
        FUNCTION `??zclRevertWriteUndividedCmd::?relay`,0203H
        PUBLIC `??zclSerializeData::?relay`
        FUNCTION `??zclSerializeData::?relay`,0203H
        FUNCTION `??zclSetSecurityOption::?relay`,0203H
        FUNCTION `??zclWriteAttrData::?relay`,0203H
        FUNCTION `??zclWriteAttrDataUsingCB::?relay`,0203H
        FUNCTION `??zcl_BuildAnalogData::?relay`,0203H
        FUNCTION `??zcl_DeviceOperational::?relay`,0203H
        PUBLIC `??zcl_HandleExternal::?relay`
        FUNCTION `??zcl_HandleExternal::?relay`,0203H
        PUBLIC `??zcl_Init::?relay`
        FUNCTION `??zcl_Init::?relay`,0203H
        PUBLIC `??zcl_ProcessMessageMSG::?relay`
        FUNCTION `??zcl_ProcessMessageMSG::?relay`,0203H
        PUBLIC `??zcl_ReadAttrData::?relay`
        FUNCTION `??zcl_ReadAttrData::?relay`,0203H
        PUBLIC `??zcl_SendCommand::?relay`
        FUNCTION `??zcl_SendCommand::?relay`,0203H
        PUBLIC `??zcl_SendConfigReportRspCmd::?relay`
        FUNCTION `??zcl_SendConfigReportRspCmd::?relay`,0203H
        PUBLIC `??zcl_SendDefaultRspCmd::?relay`
        FUNCTION `??zcl_SendDefaultRspCmd::?relay`,0203H
        PUBLIC `??zcl_SendDiscoverAttrsCmd::?relay`
        FUNCTION `??zcl_SendDiscoverAttrsCmd::?relay`,0203H
        PUBLIC `??zcl_SendDiscoverAttrsExt::?relay`
        FUNCTION `??zcl_SendDiscoverAttrsExt::?relay`,0203H
        PUBLIC `??zcl_SendDiscoverAttrsExtRsp::?relay`
        FUNCTION `??zcl_SendDiscoverAttrsExtRsp::?relay`,0203H
        PUBLIC `??zcl_SendDiscoverAttrsRspCmd::?relay`
        FUNCTION `??zcl_SendDiscoverAttrsRspCmd::?relay`,0203H
        PUBLIC `??zcl_SendDiscoverCmdsCmd::?relay`
        FUNCTION `??zcl_SendDiscoverCmdsCmd::?relay`,0203H
        PUBLIC `??zcl_SendDiscoverCmdsRspCmd::?relay`
        FUNCTION `??zcl_SendDiscoverCmdsRspCmd::?relay`,0203H
        PUBLIC `??zcl_SendRead::?relay`
        FUNCTION `??zcl_SendRead::?relay`,0203H
        PUBLIC `??zcl_SendReadReportCfgRspCmd::?relay`
        FUNCTION `??zcl_SendReadReportCfgRspCmd::?relay`,0203H
        PUBLIC `??zcl_SendReadRsp::?relay`
        FUNCTION `??zcl_SendReadRsp::?relay`,0203H
        PUBLIC `??zcl_SendReportCmd::?relay`
        FUNCTION `??zcl_SendReportCmd::?relay`,0203H
        PUBLIC `??zcl_SendWriteRequest::?relay`
        FUNCTION `??zcl_SendWriteRequest::?relay`,0203H
        PUBLIC `??zcl_SendWriteRsp::?relay`
        FUNCTION `??zcl_SendWriteRsp::?relay`,0203H
        FUNCTION `??zcl_addExternalFoundationHandler::?relay`,0203H
        PUBLIC `??zcl_event_loop::?relay`
        FUNCTION `??zcl_event_loop::?relay`,0203H
        FUNCTION `??zcl_getExternalFoundationHandler::?relay`,0203H
        PUBLIC `??zcl_getParsedTransSeqNum::?relay`
        FUNCTION `??zcl_getParsedTransSeqNum::?relay`,0203H
        PUBLIC `??zcl_getRawAFMsg::?relay`
        FUNCTION `??zcl_getRawAFMsg::?relay`,0203H
        PUBLIC `??zcl_registerAttrList::?relay`
        FUNCTION `??zcl_registerAttrList::?relay`,0203H
        PUBLIC `??zcl_registerClusterOptionList::?relay`
        FUNCTION `??zcl_registerClusterOptionList::?relay`,0203H
        PUBLIC `??zcl_registerCmdList::?relay`
        FUNCTION `??zcl_registerCmdList::?relay`,0203H
        PUBLIC `??zcl_registerForMsg::?relay`
        FUNCTION `??zcl_registerForMsg::?relay`,0203H
        PUBLIC `??zcl_registerForMsgExt::?relay`
        FUNCTION `??zcl_registerForMsgExt::?relay`,0203H
        PUBLIC `??zcl_registerPlugin::?relay`
        FUNCTION `??zcl_registerPlugin::?relay`,0203H
        PUBLIC `??zcl_registerReadWriteCB::?relay`
        FUNCTION `??zcl_registerReadWriteCB::?relay`,0203H
        PUBLIC `??zcl_registerValidateAttrData::?relay`
        FUNCTION `??zcl_registerValidateAttrData::?relay`,0203H
        PUBLIC zclAnalogDataType
        FUNCTION zclAnalogDataType,080203H
        ARGFRAME XSTACK, 26, STACK
        ARGFRAME IOVERLAY, 0, STATIC
        ARGFRAME DOVERLAY, 0, STATIC
        LOCFRAME ISTACK, 2, STACK
        FUNCTION zclAuthorizeRead,0a1203H
        ARGFRAME XSTACK, 28, STACK
        ARGFRAME IOVERLAY, 0, STATIC
        ARGFRAME DOVERLAY, 0, STATIC
        LOCFRAME XSTACK, 14, STACK
        FUNCTION zclAuthorizeWrite,0a1203H
        ARGFRAME XSTACK, 15, STACK
        ARGFRAME IOVERLAY, 0, STATIC
        ARGFRAME DOVERLAY, 0, STATIC
        LOCFRAME XSTACK, 14, STACK
        FUNCTION zclBuildHdr,0203H
        ARGFRAME XSTACK, 30, STACK
        ARGFRAME IOVERLAY, 0, STATIC
        ARGFRAME DOVERLAY, 0, STATIC
        LOCFRAME ISTACK, 1, STACK
        LOCFRAME XSTACK, 9, STACK
        FUNCTION zclCalcHdrSize,0203H
        ARGFRAME XSTACK, 30, STACK
        ARGFRAME IOVERLAY, 0, STATIC
        ARGFRAME DOVERLAY, 0, STATIC
        LOCFRAME ISTACK, 2, STACK
        PUBLIC zclFindAttrRec
        FUNCTION zclFindAttrRec,0a1203H
        ARGFRAME XSTACK, 38, STACK
        ARGFRAME IOVERLAY, 0, STATIC
        ARGFRAME DOVERLAY, 0, STATIC
        LOCFRAME ISTACK, 2, STACK
        LOCFRAME XSTACK, 16, STACK
        PUBLIC zclFindAttrRecsList
        FUNCTION zclFindAttrRecsList,0203H
        ARGFRAME XSTACK, 16, STACK
        ARGFRAME IOVERLAY, 0, STATIC
        ARGFRAME DOVERLAY, 0, STATIC
        LOCFRAME ISTACK, 2, STACK
        FUNCTION zclFindClusterOption,080203H
        ARGFRAME XSTACK, 10, STACK
        ARGFRAME IOVERLAY, 0, STATIC
        ARGFRAME DOVERLAY, 0, STATIC
        LOCFRAME XSTACK, 9, STACK
        PUBLIC zclFindCmdRec
        FUNCTION zclFindCmdRec,0a1203H
        ARGFRAME XSTACK, 2, STACK
        LOCFRAME ISTACK, 2, STACK
        LOCFRAME XSTACK, 14, STACK
        FUNCTION zclFindCmdRecsList,0203H
        ARGFRAME XSTACK, 16, STACK
        ARGFRAME IOVERLAY, 0, STATIC
        ARGFRAME DOVERLAY, 0, STATIC
        LOCFRAME ISTACK, 2, STACK
        FUNCTION zclFindNextAttrRec,0a1203H
        ARGFRAME XSTACK, 34, STACK
        ARGFRAME IOVERLAY, 0, STATIC
        ARGFRAME DOVERLAY, 0, STATIC
        LOCFRAME XSTACK, 16, STACK
        FUNCTION zclFindNextCmdRec,0a1203H
        ARGFRAME XSTACK, 32, STACK
        ARGFRAME IOVERLAY, 0, STATIC
        ARGFRAME DOVERLAY, 0, STATIC
        LOCFRAME ISTACK, 1, STACK
        LOCFRAME XSTACK, 16, STACK
        FUNCTION zclFindPlugin,0203H
        ARGFRAME XSTACK, 38, STACK
        ARGFRAME IOVERLAY, 0, STATIC
        ARGFRAME DOVERLAY, 0, STATIC
        LOCFRAME ISTACK, 2, STACK
        PUBLIC zclGetAttrDataLength
        FUNCTION zclGetAttrDataLength,021203H
        ARGFRAME XSTACK, 36, STACK
        ARGFRAME IOVERLAY, 0, STATIC
        ARGFRAME DOVERLAY, 0, STATIC
        LOCFRAME XSTACK, 9, STACK
        FUNCTION zclGetAttrDataLengthUsingCB,0a1203H
        ARGFRAME XSTACK, 36, STACK
        ARGFRAME IOVERLAY, 0, STATIC
        ARGFRAME DOVERLAY, 0, STATIC
        LOCFRAME XSTACK, 22, STACK
        FUNCTION zclGetAuthorizeCB,0a1203H
        ARGFRAME XSTACK, 14, STACK
        ARGFRAME IOVERLAY, 0, STATIC
        ARGFRAME DOVERLAY, 0, STATIC
        LOCFRAME XSTACK, 10, STACK
        FUNCTION zclGetClusterOption,0a1203H
        ARGFRAME XSTACK, 38, STACK
        ARGFRAME IOVERLAY, 0, STATIC
        ARGFRAME DOVERLAY, 0, STATIC
        LOCFRAME XSTACK, 10, STACK
        PUBLIC zclGetDataTypeLength
        FUNCTION zclGetDataTypeLength,0203H
        ARGFRAME XSTACK, 26, STACK
        ARGFRAME IOVERLAY, 0, STATIC
        ARGFRAME DOVERLAY, 0, STATIC
        FUNCTION zclGetReadWriteCB,0a1203H
        ARGFRAME XSTACK, 18, STACK
        ARGFRAME IOVERLAY, 0, STATIC
        ARGFRAME DOVERLAY, 0, STATIC
        LOCFRAME XSTACK, 10, STACK
        FUNCTION zclIsLittleEndianMachine,0203H
        ARGFRAME XSTACK, 16, STACK
        ARGFRAME IOVERLAY, 0, STATIC
        ARGFRAME DOVERLAY, 0, STATIC
        LOCFRAME ISTACK, 2, STACK
        LOCFRAME XSTACK, 2, STACK
        PUBLIC zclParseHdr
        FUNCTION zclParseHdr,0a1203H
        ARGFRAME XSTACK, 38, STACK
        ARGFRAME IOVERLAY, 0, STATIC
        ARGFRAME DOVERLAY, 0, STATIC
        LOCFRAME ISTACK, 1, STACK
        LOCFRAME XSTACK, 12, STACK
        PUBLIC zclParseInConfigReportCmd
        FUNCTION zclParseInConfigReportCmd,0a1603H
        ARGFRAME XSTACK, 0, STACK
        LOCFRAME ISTACK, 1, STACK
        LOCFRAME XSTACK, 18, STACK
        FUNCTION zclParseInDefaultRspCmd,0a1603H
        ARGFRAME XSTACK, 0, STACK
        LOCFRAME ISTACK, 1, STACK
        LOCFRAME XSTACK, 10, STACK
        PUBLIC zclParseInDiscAttrsCmd
        FUNCTION zclParseInDiscAttrsCmd,0a1603H
        ARGFRAME XSTACK, 0, STACK
        LOCFRAME ISTACK, 1, STACK
        LOCFRAME XSTACK, 10, STACK
        FUNCTION zclParseInDiscAttrsExtRspCmd,0a1603H
        ARGFRAME XSTACK, 0, STACK
        LOCFRAME ISTACK, 1, STACK
        LOCFRAME XSTACK, 14, STACK
        FUNCTION zclParseInDiscAttrsRspCmd,0a1603H
        ARGFRAME XSTACK, 0, STACK
        LOCFRAME ISTACK, 1, STACK
        LOCFRAME XSTACK, 12, STACK
        PUBLIC zclParseInDiscCmdsCmd
        FUNCTION zclParseInDiscCmdsCmd,0a1603H
        ARGFRAME XSTACK, 0, STACK
        LOCFRAME ISTACK, 1, STACK
        LOCFRAME XSTACK, 10, STACK
        FUNCTION zclParseInDiscCmdsRspCmd,0a1603H
        ARGFRAME XSTACK, 0, STACK
        LOCFRAME ISTACK, 1, STACK
        LOCFRAME XSTACK, 12, STACK
        PUBLIC zclParseInReadCmd
        FUNCTION zclParseInReadCmd,0a1603H
        ARGFRAME XSTACK, 0, STACK
        LOCFRAME ISTACK, 1, STACK
        LOCFRAME XSTACK, 12, STACK
        PUBLIC zclParseInReadReportCfgCmd
        FUNCTION zclParseInReadReportCfgCmd,0a1603H
        ARGFRAME XSTACK, 0, STACK
        LOCFRAME ISTACK, 1, STACK
        LOCFRAME XSTACK, 12, STACK
        FUNCTION zclParseInReadRspCmd,0a1603H
        ARGFRAME XSTACK, 0, STACK
        LOCFRAME ISTACK, 1, STACK
        LOCFRAME XSTACK, 25, STACK
        PUBLIC zclParseInReportCmd
        FUNCTION zclParseInReportCmd,0a1603H
        ARGFRAME XSTACK, 0, STACK
        LOCFRAME ISTACK, 1, STACK
        LOCFRAME XSTACK, 25, STACK
        PUBLIC zclParseInWriteCmd
        FUNCTION zclParseInWriteCmd,0a1603H
        ARGFRAME XSTACK, 0, STACK
        LOCFRAME ISTACK, 1, STACK
        LOCFRAME XSTACK, 25, STACK
        FUNCTION zclParseInWriteRspCmd,0a1603H
        ARGFRAME XSTACK, 0, STACK
        LOCFRAME ISTACK, 1, STACK
        LOCFRAME XSTACK, 16, STACK
        FUNCTION zclProcessInDiscAttrs,0a1603H
        ARGFRAME XSTACK, 0, STACK
        LOCFRAME XSTACK, 30, STACK
        FUNCTION zclProcessInDiscAttrsCmd,0a1203H
        ARGFRAME XSTACK, 26, STACK
        ARGFRAME IOVERLAY, 0, STATIC
        ARGFRAME DOVERLAY, 0, STATIC
        LOCFRAME ISTACK, 1, STACK
        LOCFRAME XSTACK, 35, STACK
        FUNCTION zclProcessInDiscAttrsExtCmd,0a1203H
        ARGFRAME XSTACK, 26, STACK
        ARGFRAME IOVERLAY, 0, STATIC
        ARGFRAME DOVERLAY, 0, STATIC
        LOCFRAME ISTACK, 1, STACK
        LOCFRAME XSTACK, 35, STACK
        FUNCTION zclProcessInDiscCmd,0a1603H
        ARGFRAME XSTACK, 0, STACK
        LOCFRAME ISTACK, 1, STACK
        LOCFRAME XSTACK, 33, STACK
        FUNCTION zclProcessInReadCmd,0a1603H
        ARGFRAME XSTACK, 0, STACK
        LOCFRAME ISTACK, 1, STACK
        LOCFRAME XSTACK, 33, STACK
        FUNCTION zclProcessInWriteCmd,0a1603H
        ARGFRAME XSTACK, 0, STACK
        LOCFRAME ISTACK, 1, STACK
        LOCFRAME XSTACK, 37, STACK
        FUNCTION zclProcessInWriteUndividedCmd,0a1603H
        ARGFRAME XSTACK, 0, STACK
        LOCFRAME ISTACK, 1, STACK
        LOCFRAME XSTACK, 41, STACK
        PUBLIC zclReadAttrData
        FUNCTION zclReadAttrData,0a1203H
        ARGFRAME XSTACK, 38, STACK
        ARGFRAME IOVERLAY, 0, STATIC
        ARGFRAME DOVERLAY, 0, STATIC
        LOCFRAME XSTACK, 18, STACK
        FUNCTION zclReadAttrDataUsingCB,0a1203H
        ARGFRAME XSTACK, 40, STACK
        ARGFRAME IOVERLAY, 0, STATIC
        ARGFRAME DOVERLAY, 0, STATIC
        LOCFRAME XSTACK, 20, STACK
        FUNCTION zclRevertWriteUndividedCmd,0a1203H
        ARGFRAME XSTACK, 38, STACK
        ARGFRAME IOVERLAY, 0, STATIC
        ARGFRAME DOVERLAY, 0, STATIC
        LOCFRAME XSTACK, 33, STACK
        PUBLIC zclSerializeData
        FUNCTION zclSerializeData,0a1203H
        ARGFRAME XSTACK, 26, STACK
        ARGFRAME IOVERLAY, 0, STATIC
        ARGFRAME DOVERLAY, 0, STATIC
        LOCFRAME ISTACK, 1, STACK
        LOCFRAME XSTACK, 20, STACK
        FUNCTION zclSetSecurityOption,0a1203H
        ARGFRAME XSTACK, 38, STACK
        ARGFRAME IOVERLAY, 0, STATIC
        ARGFRAME DOVERLAY, 0, STATIC
        LOCFRAME XSTACK, 10, STACK
        FUNCTION zclWriteAttrData,0a1203H
        ARGFRAME XSTACK, 38, STACK
        ARGFRAME IOVERLAY, 0, STATIC
        ARGFRAME DOVERLAY, 0, STATIC
        LOCFRAME XSTACK, 18, STACK
        FUNCTION zclWriteAttrDataUsingCB,0a1203H
        ARGFRAME XSTACK, 38, STACK
        ARGFRAME IOVERLAY, 0, STATIC
        ARGFRAME DOVERLAY, 0, STATIC
        LOCFRAME XSTACK, 18, STACK
        FUNCTION zcl_BuildAnalogData,0a1203H
        ARGFRAME XSTACK, 18, STACK
        ARGFRAME IOVERLAY, 0, STATIC
        ARGFRAME DOVERLAY, 0, STATIC
        LOCFRAME ISTACK, 1, STACK
        LOCFRAME XSTACK, 16, STACK
        FUNCTION zcl_DeviceOperational,0a1203H
        ARGFRAME XSTACK, 40, STACK
        ARGFRAME IOVERLAY, 0, STATIC
        ARGFRAME DOVERLAY, 0, STATIC
        LOCFRAME XSTACK, 23, STACK
        PUBLIC zcl_HandleExternal
        FUNCTION zcl_HandleExternal,0a1603H
        ARGFRAME XSTACK, 0, STACK
        LOCFRAME ISTACK, 1, STACK
        LOCFRAME XSTACK, 14, STACK
        PUBLIC zcl_InSeqNum
        PUBLIC zcl_Init
        FUNCTION zcl_Init,0203H
        ARGFRAME XSTACK, 0, STACK
        LOCFRAME ISTACK, 2, STACK
        PUBLIC zcl_ProcessMessageMSG
        FUNCTION zcl_ProcessMessageMSG,0a1203H
        ARGFRAME XSTACK, 12, STACK
        ARGFRAME IOVERLAY, 0, STATIC
        ARGFRAME DOVERLAY, 0, STATIC
        LOCFRAME ISTACK, 1, STACK
        LOCFRAME XSTACK, 45, STACK
        PUBLIC zcl_ReadAttrData
        FUNCTION zcl_ReadAttrData,0a1203H
        ARGFRAME XSTACK, 4, STACK
        LOCFRAME XSTACK, 28, STACK
        PUBLIC zcl_SendCommand
        FUNCTION zcl_SendCommand,0a1203H
        ARGFRAME XSTACK, 37, STACK
        ARGFRAME IOVERLAY, 0, STATIC
        ARGFRAME DOVERLAY, 0, STATIC
        LOCFRAME ISTACK, 1, STACK
        LOCFRAME XSTACK, 39, STACK
        PUBLIC zcl_SendConfigReportRspCmd
        FUNCTION zcl_SendConfigReportRspCmd,0a1203H
        ARGFRAME XSTACK, 5, STACK
        LOCFRAME ISTACK, 1, STACK
        LOCFRAME XSTACK, 31, STACK
        PUBLIC zcl_SendDefaultRspCmd
        FUNCTION zcl_SendDefaultRspCmd,0a1203H
        ARGFRAME XSTACK, 45, STACK
        ARGFRAME IOVERLAY, 0, STATIC
        ARGFRAME DOVERLAY, 0, STATIC
        LOCFRAME ISTACK, 1, STACK
        LOCFRAME XSTACK, 23, STACK
        PUBLIC zcl_SendDiscoverAttrsCmd
        FUNCTION zcl_SendDiscoverAttrsCmd,0a1203H
        ARGFRAME XSTACK, 5, STACK
        LOCFRAME ISTACK, 1, STACK
        LOCFRAME XSTACK, 27, STACK
        PUBLIC zcl_SendDiscoverAttrsExt
        FUNCTION zcl_SendDiscoverAttrsExt,0a1203H
        ARGFRAME XSTACK, 5, STACK
        LOCFRAME ISTACK, 1, STACK
        LOCFRAME XSTACK, 26, STACK
        PUBLIC zcl_SendDiscoverAttrsExtRsp
        FUNCTION zcl_SendDiscoverAttrsExtRsp,0a1203H
        ARGFRAME XSTACK, 35, STACK
        ARGFRAME IOVERLAY, 0, STATIC
        ARGFRAME DOVERLAY, 0, STATIC
        LOCFRAME ISTACK, 1, STACK
        LOCFRAME XSTACK, 35, STACK
        PUBLIC zcl_SendDiscoverAttrsRspCmd
        FUNCTION zcl_SendDiscoverAttrsRspCmd,0a1203H
        ARGFRAME XSTACK, 35, STACK
        ARGFRAME IOVERLAY, 0, STATIC
        ARGFRAME DOVERLAY, 0, STATIC
        LOCFRAME ISTACK, 1, STACK
        LOCFRAME XSTACK, 35, STACK
        PUBLIC zcl_SendDiscoverCmdsCmd
        FUNCTION zcl_SendDiscoverCmdsCmd,0a1203H
        ARGFRAME XSTACK, 6, STACK
        LOCFRAME ISTACK, 1, STACK
        LOCFRAME XSTACK, 25, STACK
        PUBLIC zcl_SendDiscoverCmdsRspCmd
        FUNCTION zcl_SendDiscoverCmdsRspCmd,0a1203H
        ARGFRAME XSTACK, 33, STACK
        ARGFRAME IOVERLAY, 0, STATIC
        ARGFRAME DOVERLAY, 0, STATIC
        LOCFRAME ISTACK, 1, STACK
        LOCFRAME XSTACK, 33, STACK
        PUBLIC zcl_SendRead
        FUNCTION zcl_SendRead,0a1203H
        ARGFRAME XSTACK, 5, STACK
        LOCFRAME ISTACK, 1, STACK
        LOCFRAME XSTACK, 31, STACK
        PUBLIC zcl_SendReadReportCfgRspCmd
        FUNCTION zcl_SendReadReportCfgRspCmd,0a1203H
        ARGFRAME XSTACK, 5, STACK
        LOCFRAME ISTACK, 1, STACK
        LOCFRAME XSTACK, 37, STACK
        PUBLIC zcl_SendReadRsp
        FUNCTION zcl_SendReadRsp,0a1203H
        ARGFRAME XSTACK, 33, STACK
        ARGFRAME IOVERLAY, 0, STATIC
        ARGFRAME DOVERLAY, 0, STATIC
        LOCFRAME ISTACK, 1, STACK
        LOCFRAME XSTACK, 35, STACK
        PUBLIC zcl_SendReportCmd
        FUNCTION zcl_SendReportCmd,0a1203H
        ARGFRAME XSTACK, 5, STACK
        LOCFRAME ISTACK, 1, STACK
        LOCFRAME XSTACK, 33, STACK
        PUBLIC zcl_SendWriteRequest
        FUNCTION zcl_SendWriteRequest,0a1203H
        ARGFRAME XSTACK, 6, STACK
        LOCFRAME ISTACK, 1, STACK
        LOCFRAME XSTACK, 33, STACK
        PUBLIC zcl_SendWriteRsp
        FUNCTION zcl_SendWriteRsp,0a1203H
        ARGFRAME XSTACK, 41, STACK
        ARGFRAME IOVERLAY, 0, STATIC
        ARGFRAME DOVERLAY, 0, STATIC
        LOCFRAME ISTACK, 1, STACK
        LOCFRAME XSTACK, 31, STACK
        PUBLIC zcl_TaskID
        PUBLIC zcl_ValidateAttrDataCB
        FUNCTION zcl_addExternalFoundationHandler,0a1203H
        ARGFRAME XSTACK, 9, STACK
        ARGFRAME IOVERLAY, 0, STATIC
        ARGFRAME DOVERLAY, 0, STATIC
        LOCFRAME ISTACK, 1, STACK
        LOCFRAME XSTACK, 10, STACK
        PUBLIC zcl_event_loop
        FUNCTION zcl_event_loop,0a1203H
        ARGFRAME XSTACK, 0, STACK
        LOCFRAME XSTACK, 12, STACK
        FUNCTION zcl_getExternalFoundationHandler,0203H
        ARGFRAME XSTACK, 14, STACK
        ARGFRAME IOVERLAY, 0, STATIC
        ARGFRAME DOVERLAY, 0, STATIC
        LOCFRAME ISTACK, 2, STACK
        PUBLIC zcl_getParsedTransSeqNum
        FUNCTION zcl_getParsedTransSeqNum,0203H
        ARGFRAME XSTACK, 0, STACK
        LOCFRAME ISTACK, 2, STACK
        PUBLIC zcl_getRawAFMsg
        FUNCTION zcl_getRawAFMsg,0203H
        ARGFRAME XSTACK, 30, STACK
        ARGFRAME IOVERLAY, 0, STATIC
        ARGFRAME DOVERLAY, 0, STATIC
        LOCFRAME ISTACK, 2, STACK
        PUBLIC zcl_radius
        PUBLIC zcl_registerAttrList
        FUNCTION zcl_registerAttrList,0a1203H
        ARGFRAME XSTACK, 0, STACK
        LOCFRAME ISTACK, 1, STACK
        LOCFRAME XSTACK, 12, STACK
        PUBLIC zcl_registerClusterOptionList
        FUNCTION zcl_registerClusterOptionList,0a1203H
        ARGFRAME XSTACK, 0, STACK
        LOCFRAME ISTACK, 1, STACK
        LOCFRAME XSTACK, 12, STACK
        PUBLIC zcl_registerCmdList
        FUNCTION zcl_registerCmdList,0a1203H
        ARGFRAME XSTACK, 0, STACK
        LOCFRAME ISTACK, 1, STACK
        LOCFRAME XSTACK, 12, STACK
        PUBLIC zcl_registerForMsg
        FUNCTION zcl_registerForMsg,021203H
        ARGFRAME XSTACK, 0, STACK
        LOCFRAME XSTACK, 9, STACK
        PUBLIC zcl_registerForMsgExt
        FUNCTION zcl_registerForMsgExt,021203H
        ARGFRAME XSTACK, 0, STACK
        LOCFRAME XSTACK, 9, STACK
        PUBLIC zcl_registerPlugin
        FUNCTION zcl_registerPlugin,0a1203H
        ARGFRAME XSTACK, 2, STACK
        LOCFRAME XSTACK, 12, STACK
        PUBLIC zcl_registerReadWriteCB
        FUNCTION zcl_registerReadWriteCB,0a1203H
        ARGFRAME XSTACK, 0, STACK
        LOCFRAME XSTACK, 14, STACK
        PUBLIC zcl_registerValidateAttrData
        FUNCTION zcl_registerValidateAttrData,0203H
        ARGFRAME XSTACK, 0, STACK
        LOCFRAME ISTACK, 2, STACK
        
          CFI Names cfiNames0
          CFI StackFrame CFA_SP SP IDATA
          CFI StackFrame CFA_PSP16 PSP16 XDATA
          CFI StackFrame CFA_XSP16 XSP16 XDATA
          CFI StaticOverlayFrame CFA_IOVERLAY IOVERLAY
          CFI StaticOverlayFrame CFA_DOVERLAY DOVERLAY
          CFI Resource `PSW.CY`:1, `B.BR0`:1, `B.BR1`:1, `B.BR2`:1, `B.BR3`:1
          CFI Resource `B.BR4`:1, `B.BR5`:1, `B.BR6`:1, `B.BR7`:1, `VB.BR8`:1
          CFI Resource `VB.BR9`:1, `VB.BR10`:1, `VB.BR11`:1, `VB.BR12`:1
          CFI Resource `VB.BR13`:1, `VB.BR14`:1, `VB.BR15`:1, VB:8, B:8, A:8
          CFI Resource PSW:8, DPL0:8, DPH0:8, R0:8, R1:8, R2:8, R3:8, R4:8, R5:8
          CFI Resource R6:8, R7:8, V0:8, V1:8, V2:8, V3:8, V4:8, V5:8, V6:8, V7:8
          CFI Resource V8:8, V9:8, V10:8, V11:8, V12:8, V13:8, V14:8, V15:8, SP:8
          CFI Resource PSPH:8, PSPL:8, PSP16:16, XSPH:8, XSPL:8, XSP16:16
          CFI VirtualResource ?RET:24
          CFI Resource ?BRET_EXT:8
          CFI VirtualResource ?RET_HIGH:8, ?RET_LOW:8
          CFI ResourceParts PSP16 PSPH, PSPL
          CFI ResourceParts XSP16 XSPH, XSPL
          CFI ResourceParts ?RET ?BRET_EXT, ?RET_HIGH, ?RET_LOW
          CFI EndNames cfiNames0
        
          CFI Common cfiCommon0 Using cfiNames0
          CFI CodeAlign 1
          CFI DataAlign -1
          CFI ReturnAddress ?RET CODE
          CFI CFA_DOVERLAY Used
          CFI CFA_IOVERLAY Used
          CFI CFA_SP SP+-3
          CFI CFA_PSP16 PSP16+0
          CFI CFA_XSP16 XSP16+0
          CFI `PSW.CY` SameValue
          CFI `B.BR0` SameValue
          CFI `B.BR1` SameValue
          CFI `B.BR2` SameValue
          CFI `B.BR3` SameValue
          CFI `B.BR4` SameValue
          CFI `B.BR5` SameValue
          CFI `B.BR6` SameValue
          CFI `B.BR7` SameValue
          CFI `VB.BR8` SameValue
          CFI `VB.BR9` SameValue
          CFI `VB.BR10` SameValue
          CFI `VB.BR11` SameValue
          CFI `VB.BR12` SameValue
          CFI `VB.BR13` SameValue
          CFI `VB.BR14` SameValue
          CFI `VB.BR15` SameValue
          CFI VB SameValue
          CFI B Undefined
          CFI A Undefined
          CFI PSW SameValue
          CFI DPL0 SameValue
          CFI DPH0 SameValue
          CFI R0 Undefined
          CFI R1 Undefined
          CFI R2 Undefined
          CFI R3 Undefined
          CFI R4 Undefined
          CFI R5 Undefined
          CFI R6 SameValue
          CFI R7 SameValue
          CFI V0 SameValue
          CFI V1 SameValue
          CFI V2 SameValue
          CFI V3 SameValue
          CFI V4 SameValue
          CFI V5 SameValue
          CFI V6 SameValue
          CFI V7 SameValue
          CFI V8 SameValue
          CFI V9 SameValue
          CFI V10 SameValue
          CFI V11 SameValue
          CFI V12 SameValue
          CFI V13 SameValue
          CFI V14 SameValue
          CFI V15 SameValue
          CFI PSPH Undefined
          CFI PSPL Undefined
          CFI XSPH Undefined
          CFI XSPL Undefined
          CFI ?RET Concat
          CFI ?BRET_EXT Frame(CFA_SP, 3)
          CFI ?RET_HIGH Frame(CFA_SP, 2)
          CFI ?RET_LOW Frame(CFA_SP, 1)
          CFI EndCommon cfiCommon0
        
AF_DataRequest      SYMBOL "AF_DataRequest"
`??AF_DataRequest::?relay` SYMBOL "?relay", AF_DataRequest
afFindEndPointDesc  SYMBOL "afFindEndPointDesc"
`??afFindEndPointDesc::?relay` SYMBOL "?relay", afFindEndPointDesc
bdb_ProcessInConfigReportCmd SYMBOL "bdb_ProcessInConfigReportCmd"
`??bdb_ProcessInConfigReportCmd::?relay` SYMBOL "?relay", bdb_ProcessInConfigReportCmd
bdb_ProcessInReadReportCfgCmd SYMBOL "bdb_ProcessInReadReportCfgCmd"
`??bdb_ProcessInReadReportCfgCmd::?relay` SYMBOL "?relay", bdb_ProcessInReadReportCfgCmd
bdb_ZclIdentifyCmdInd SYMBOL "bdb_ZclIdentifyCmdInd"
`??bdb_ZclIdentifyCmdInd::?relay` SYMBOL "?relay", bdb_ZclIdentifyCmdInd
osal_buffer_uint32  SYMBOL "osal_buffer_uint32"
`??osal_buffer_uint32::?relay` SYMBOL "?relay", osal_buffer_uint32
osal_mem_alloc      SYMBOL "osal_mem_alloc"
`??osal_mem_alloc::?relay` SYMBOL "?relay", osal_mem_alloc
osal_mem_free       SYMBOL "osal_mem_free"
`??osal_mem_free::?relay` SYMBOL "?relay", osal_mem_free
osal_memcpy         SYMBOL "osal_memcpy"
`??osal_memcpy::?relay` SYMBOL "?relay", osal_memcpy
osal_memset         SYMBOL "osal_memset"
`??osal_memset::?relay` SYMBOL "?relay", osal_memset
osal_msg_allocate   SYMBOL "osal_msg_allocate"
`??osal_msg_allocate::?relay` SYMBOL "?relay", osal_msg_allocate
osal_msg_deallocate SYMBOL "osal_msg_deallocate"
`??osal_msg_deallocate::?relay` SYMBOL "?relay", osal_msg_deallocate
osal_msg_receive    SYMBOL "osal_msg_receive"
`??osal_msg_receive::?relay` SYMBOL "?relay", osal_msg_receive
osal_msg_send       SYMBOL "osal_msg_send"
`??osal_msg_send::?relay` SYMBOL "?relay", osal_msg_send
zclAnalogDataType   SYMBOL "zclAnalogDataType"
`??zclAnalogDataType::?relay` SYMBOL "?relay", zclAnalogDataType
zclFindAttrRec      SYMBOL "zclFindAttrRec"
`??zclFindAttrRec::?relay` SYMBOL "?relay", zclFindAttrRec
zclFindAttrRecsList SYMBOL "zclFindAttrRecsList"
`??zclFindAttrRecsList::?relay` SYMBOL "?relay", zclFindAttrRecsList
zclFindCmdRec       SYMBOL "zclFindCmdRec"
`??zclFindCmdRec::?relay` SYMBOL "?relay", zclFindCmdRec
zclGetAttrDataLength SYMBOL "zclGetAttrDataLength"
`??zclGetAttrDataLength::?relay` SYMBOL "?relay", zclGetAttrDataLength
zclGetDataTypeLength SYMBOL "zclGetDataTypeLength"
`??zclGetDataTypeLength::?relay` SYMBOL "?relay", zclGetDataTypeLength
zclParseHdr         SYMBOL "zclParseHdr"
`??zclParseHdr::?relay` SYMBOL "?relay", zclParseHdr
zclParseInConfigReportCmd SYMBOL "zclParseInConfigReportCmd"
`??zclParseInConfigReportCmd::?relay` SYMBOL "?relay", zclParseInConfigReportCmd
zclParseInDiscAttrsCmd SYMBOL "zclParseInDiscAttrsCmd"
`??zclParseInDiscAttrsCmd::?relay` SYMBOL "?relay", zclParseInDiscAttrsCmd
zclParseInDiscCmdsCmd SYMBOL "zclParseInDiscCmdsCmd"
`??zclParseInDiscCmdsCmd::?relay` SYMBOL "?relay", zclParseInDiscCmdsCmd
zclParseInReadCmd   SYMBOL "zclParseInReadCmd"
`??zclParseInReadCmd::?relay` SYMBOL "?relay", zclParseInReadCmd
zclParseInReadReportCfgCmd SYMBOL "zclParseInReadReportCfgCmd"
`??zclParseInReadReportCfgCmd::?relay` SYMBOL "?relay", zclParseInReadReportCfgCmd
zclParseInReportCmd SYMBOL "zclParseInReportCmd"
`??zclParseInReportCmd::?relay` SYMBOL "?relay", zclParseInReportCmd
zclParseInWriteCmd  SYMBOL "zclParseInWriteCmd"
`??zclParseInWriteCmd::?relay` SYMBOL "?relay", zclParseInWriteCmd
zclReadAttrData     SYMBOL "zclReadAttrData"
`??zclReadAttrData::?relay` SYMBOL "?relay", zclReadAttrData
zclSerializeData    SYMBOL "zclSerializeData"
`??zclSerializeData::?relay` SYMBOL "?relay", zclSerializeData
zcl_HandleExternal  SYMBOL "zcl_HandleExternal"
`??zcl_HandleExternal::?relay` SYMBOL "?relay", zcl_HandleExternal
zcl_Init            SYMBOL "zcl_Init"
`??zcl_Init::?relay` SYMBOL "?relay", zcl_Init
zcl_ProcessMessageMSG SYMBOL "zcl_ProcessMessageMSG"
`??zcl_ProcessMessageMSG::?relay` SYMBOL "?relay", zcl_ProcessMessageMSG
zcl_ReadAttrData    SYMBOL "zcl_ReadAttrData"
`??zcl_ReadAttrData::?relay` SYMBOL "?relay", zcl_ReadAttrData
zcl_SendCommand     SYMBOL "zcl_SendCommand"
`??zcl_SendCommand::?relay` SYMBOL "?relay", zcl_SendCommand
zcl_SendConfigReportRspCmd SYMBOL "zcl_SendConfigReportRspCmd"
`??zcl_SendConfigReportRspCmd::?relay` SYMBOL "?relay", zcl_SendConfigReportRspCmd
zcl_SendDefaultRspCmd SYMBOL "zcl_SendDefaultRspCmd"
`??zcl_SendDefaultRspCmd::?relay` SYMBOL "?relay", zcl_SendDefaultRspCmd
zcl_SendDiscoverAttrsCmd SYMBOL "zcl_SendDiscoverAttrsCmd"
`??zcl_SendDiscoverAttrsCmd::?relay` SYMBOL "?relay", zcl_SendDiscoverAttrsCmd
zcl_SendDiscoverAttrsExt SYMBOL "zcl_SendDiscoverAttrsExt"
`??zcl_SendDiscoverAttrsExt::?relay` SYMBOL "?relay", zcl_SendDiscoverAttrsExt
zcl_SendDiscoverAttrsExtRsp SYMBOL "zcl_SendDiscoverAttrsExtRsp"
`??zcl_SendDiscoverAttrsExtRsp::?relay` SYMBOL "?relay", zcl_SendDiscoverAttrsExtRsp
zcl_SendDiscoverAttrsRspCmd SYMBOL "zcl_SendDiscoverAttrsRspCmd"
`??zcl_SendDiscoverAttrsRspCmd::?relay` SYMBOL "?relay", zcl_SendDiscoverAttrsRspCmd
zcl_SendDiscoverCmdsCmd SYMBOL "zcl_SendDiscoverCmdsCmd"
`??zcl_SendDiscoverCmdsCmd::?relay` SYMBOL "?relay", zcl_SendDiscoverCmdsCmd
zcl_SendDiscoverCmdsRspCmd SYMBOL "zcl_SendDiscoverCmdsRspCmd"
`??zcl_SendDiscoverCmdsRspCmd::?relay` SYMBOL "?relay", zcl_SendDiscoverCmdsRspCmd
zcl_SendRead        SYMBOL "zcl_SendRead"
`??zcl_SendRead::?relay` SYMBOL "?relay", zcl_SendRead
zcl_SendReadReportCfgRspCmd SYMBOL "zcl_SendReadReportCfgRspCmd"
`??zcl_SendReadReportCfgRspCmd::?relay` SYMBOL "?relay", zcl_SendReadReportCfgRspCmd
zcl_SendReadRsp     SYMBOL "zcl_SendReadRsp"
`??zcl_SendReadRsp::?relay` SYMBOL "?relay", zcl_SendReadRsp
zcl_SendReportCmd   SYMBOL "zcl_SendReportCmd"
`??zcl_SendReportCmd::?relay` SYMBOL "?relay", zcl_SendReportCmd
zcl_SendWriteRequest SYMBOL "zcl_SendWriteRequest"
`??zcl_SendWriteRequest::?relay` SYMBOL "?relay", zcl_SendWriteRequest
zcl_SendWriteRsp    SYMBOL "zcl_SendWriteRsp"
`??zcl_SendWriteRsp::?relay` SYMBOL "?relay", zcl_SendWriteRsp
zcl_event_loop      SYMBOL "zcl_event_loop"
`??zcl_event_loop::?relay` SYMBOL "?relay", zcl_event_loop
zcl_getParsedTransSeqNum SYMBOL "zcl_getParsedTransSeqNum"
`??zcl_getParsedTransSeqNum::?relay` SYMBOL "?relay", zcl_getParsedTransSeqNum
zcl_getRawAFMsg     SYMBOL "zcl_getRawAFMsg"
`??zcl_getRawAFMsg::?relay` SYMBOL "?relay", zcl_getRawAFMsg
zcl_registerAttrList SYMBOL "zcl_registerAttrList"
`??zcl_registerAttrList::?relay` SYMBOL "?relay", zcl_registerAttrList
zcl_registerClusterOptionList SYMBOL "zcl_registerClusterOptionList"
`??zcl_registerClusterOptionList::?relay` SYMBOL "?relay", zcl_registerClusterOptionList
zcl_registerCmdList SYMBOL "zcl_registerCmdList"
`??zcl_registerCmdList::?relay` SYMBOL "?relay", zcl_registerCmdList
zcl_registerForMsg  SYMBOL "zcl_registerForMsg"
`??zcl_registerForMsg::?relay` SYMBOL "?relay", zcl_registerForMsg
zcl_registerForMsgExt SYMBOL "zcl_registerForMsgExt"
`??zcl_registerForMsgExt::?relay` SYMBOL "?relay", zcl_registerForMsgExt
zcl_registerPlugin  SYMBOL "zcl_registerPlugin"
`??zcl_registerPlugin::?relay` SYMBOL "?relay", zcl_registerPlugin
zcl_registerReadWriteCB SYMBOL "zcl_registerReadWriteCB"
`??zcl_registerReadWriteCB::?relay` SYMBOL "?relay", zcl_registerReadWriteCB
zcl_registerValidateAttrData SYMBOL "zcl_registerValidateAttrData"
`??zcl_registerValidateAttrData::?relay` SYMBOL "?relay", zcl_registerValidateAttrData

        EXTERN `??AF_DataRequest::?relay`
        FUNCTION `??AF_DataRequest::?relay`,00H
        EXTERN `??afFindEndPointDesc::?relay`
        FUNCTION `??afFindEndPointDesc::?relay`,00H
        EXTERN `??bdb_ProcessInConfigReportCmd::?relay`
        FUNCTION `??bdb_ProcessInConfigReportCmd::?relay`,00H
        EXTERN `??bdb_ProcessInReadReportCfgCmd::?relay`
        FUNCTION `??bdb_ProcessInReadReportCfgCmd::?relay`,00H
        EXTERN `??bdb_ZclIdentifyCmdInd::?relay`
        FUNCTION `??bdb_ZclIdentifyCmdInd::?relay`,00H
        EXTERN `??osal_buffer_uint32::?relay`
        FUNCTION `??osal_buffer_uint32::?relay`,00H
        EXTERN `??osal_mem_alloc::?relay`
        FUNCTION `??osal_mem_alloc::?relay`,00H
        EXTERN `??osal_mem_free::?relay`
        FUNCTION `??osal_mem_free::?relay`,00H
        EXTERN `??osal_memcpy::?relay`
        FUNCTION `??osal_memcpy::?relay`,00H
        EXTERN `??osal_memset::?relay`
        FUNCTION `??osal_memset::?relay`,00H
        EXTERN `??osal_msg_allocate::?relay`
        FUNCTION `??osal_msg_allocate::?relay`,00H
        EXTERN `??osal_msg_deallocate::?relay`
        FUNCTION `??osal_msg_deallocate::?relay`,00H
        EXTERN `??osal_msg_receive::?relay`
        FUNCTION `??osal_msg_receive::?relay`,00H
        EXTERN `??osal_msg_send::?relay`
        FUNCTION `??osal_msg_send::?relay`,00H
        EXTERN AF_DataRequest
        FUNCTION AF_DataRequest,0202H
        ARGFRAME ISTACK, 0, STACK
        ARGFRAME PSTACK, 0, STACK
        ARGFRAME XSTACK, 39, STACK
        ARGFRAME IOVERLAY, 0, STATIC
        ARGFRAME DOVERLAY, 0, STATIC
        EXTERN APS_Counter
        EXTERN afFindEndPointDesc
        FUNCTION afFindEndPointDesc,0202H
        ARGFRAME ISTACK, 0, STACK
        ARGFRAME PSTACK, 0, STACK
        ARGFRAME XSTACK, 38, STACK
        ARGFRAME IOVERLAY, 0, STATIC
        ARGFRAME DOVERLAY, 0, STATIC
        EXTERN bdb_ProcessInConfigReportCmd
        FUNCTION bdb_ProcessInConfigReportCmd,0202H
        ARGFRAME ISTACK, 0, STACK
        ARGFRAME PSTACK, 0, STACK
        ARGFRAME XSTACK, 14, STACK
        ARGFRAME IOVERLAY, 0, STATIC
        ARGFRAME DOVERLAY, 0, STATIC
        EXTERN bdb_ProcessInReadReportCfgCmd
        FUNCTION bdb_ProcessInReadReportCfgCmd,0202H
        ARGFRAME ISTACK, 0, STACK
        ARGFRAME PSTACK, 0, STACK
        ARGFRAME XSTACK, 14, STACK
        ARGFRAME IOVERLAY, 0, STATIC
        ARGFRAME DOVERLAY, 0, STATIC
        EXTERN bdb_ZclIdentifyCmdInd
        FUNCTION bdb_ZclIdentifyCmdInd,0202H
        ARGFRAME ISTACK, 0, STACK
        ARGFRAME PSTACK, 0, STACK
        ARGFRAME XSTACK, 32, STACK
        ARGFRAME IOVERLAY, 0, STATIC
        ARGFRAME DOVERLAY, 0, STATIC
        EXTERN osal_buffer_uint32
        FUNCTION osal_buffer_uint32,0202H
        ARGFRAME ISTACK, 0, STACK
        ARGFRAME PSTACK, 0, STACK
        ARGFRAME XSTACK, 20, STACK
        ARGFRAME IOVERLAY, 0, STATIC
        ARGFRAME DOVERLAY, 0, STATIC
        EXTERN osal_mem_alloc
        FUNCTION osal_mem_alloc,0202H
        ARGFRAME ISTACK, 0, STACK
        ARGFRAME PSTACK, 0, STACK
        ARGFRAME XSTACK, 36, STACK
        ARGFRAME IOVERLAY, 0, STATIC
        ARGFRAME DOVERLAY, 0, STATIC
        EXTERN osal_mem_free
        FUNCTION osal_mem_free,0202H
        ARGFRAME ISTACK, 0, STACK
        ARGFRAME PSTACK, 0, STACK
        ARGFRAME XSTACK, 38, STACK
        ARGFRAME IOVERLAY, 0, STATIC
        ARGFRAME DOVERLAY, 0, STATIC
        EXTERN osal_memcpy
        FUNCTION osal_memcpy,0202H
        ARGFRAME ISTACK, 0, STACK
        ARGFRAME PSTACK, 0, STACK
        ARGFRAME XSTACK, 35, STACK
        ARGFRAME IOVERLAY, 0, STATIC
        ARGFRAME DOVERLAY, 0, STATIC
        EXTERN osal_memset
        FUNCTION osal_memset,0202H
        ARGFRAME ISTACK, 0, STACK
        ARGFRAME PSTACK, 0, STACK
        ARGFRAME XSTACK, 30, STACK
        ARGFRAME IOVERLAY, 0, STATIC
        ARGFRAME DOVERLAY, 0, STATIC
        EXTERN osal_msg_allocate
        FUNCTION osal_msg_allocate,0202H
        ARGFRAME ISTACK, 0, STACK
        ARGFRAME PSTACK, 0, STACK
        ARGFRAME XSTACK, 14, STACK
        ARGFRAME IOVERLAY, 0, STATIC
        ARGFRAME DOVERLAY, 0, STATIC
        EXTERN osal_msg_deallocate
        FUNCTION osal_msg_deallocate,0202H
        ARGFRAME ISTACK, 0, STACK
        ARGFRAME PSTACK, 0, STACK
        ARGFRAME XSTACK, 14, STACK
        ARGFRAME IOVERLAY, 0, STATIC
        ARGFRAME DOVERLAY, 0, STATIC
        EXTERN osal_msg_receive
        FUNCTION osal_msg_receive,0202H
        ARGFRAME ISTACK, 0, STACK
        ARGFRAME PSTACK, 0, STACK
        ARGFRAME XSTACK, 12, STACK
        ARGFRAME IOVERLAY, 0, STATIC
        ARGFRAME DOVERLAY, 0, STATIC
        EXTERN osal_msg_send
        FUNCTION osal_msg_send,0202H
        ARGFRAME ISTACK, 0, STACK
        ARGFRAME PSTACK, 0, STACK
        ARGFRAME XSTACK, 14, STACK
        ARGFRAME IOVERLAY, 0, STATIC
        ARGFRAME DOVERLAY, 0, STATIC

// D:\AA\Z-Stack 3.0.2\Components\stack\zcl\zcl.c
//    1 /**************************************************************************************************
//    2   Filename:       zcl.c
//    3   Revised:        $Date: 2015-09-09 11:51:49 -0700 (Wed, 09 Sep 2015) $
//    4   Revision:       $Revision: 44489 $
//    5 
//    6   Description:    This file contains the Zigbee Cluster Library Foundation functions.
//    7 
//    8 
//    9   Copyright 2006-2015 Texas Instruments Incorporated. All rights reserved.
//   10 
//   11   IMPORTANT: Your use of this Software is limited to those specific rights
//   12   granted under the terms of a software license agreement between the user
//   13   who downloaded the software, his/her employer (which must be your employer)
//   14   and Texas Instruments Incorporated (the "License").  You may not use this
//   15   Software unless you agree to abide by the terms of the License. The License
//   16   limits your use, and you acknowledge, that the Software may not be modified,
//   17   copied or distributed unless embedded on a Texas Instruments microcontroller
//   18   or used solely and exclusively in conjunction with a Texas Instruments radio
//   19   frequency transceiver, which is integrated into your product.  Other than for
//   20   the foregoing purpose, you may not use, reproduce, copy, prepare derivative
//   21   works of, modify, distribute, perform, display or sell this Software and/or
//   22   its documentation for any purpose.
//   23 
//   24   YOU FURTHER ACKNOWLEDGE AND AGREE THAT THE SOFTWARE AND DOCUMENTATION ARE
//   25   PROVIDED "AS IS" WITHOUT WARRANTY OF ANY KIND, EITHER EXPRESS OR IMPLIED,
//   26   INCLUDING WITHOUT LIMITATION, ANY WARRANTY OF MERCHANTABILITY, TITLE,
//   27   NON-INFRINGEMENT AND FITNESS FOR A PARTICULAR PURPOSE. IN NO EVENT SHALL
//   28   TEXAS INSTRUMENTS OR ITS LICENSORS BE LIABLE OR OBLIGATED UNDER CONTRACT,
//   29   NEGLIGENCE, STRICT LIABILITY, CONTRIBUTION, BREACH OF WARRANTY, OR OTHER
//   30   LEGAL EQUITABLE THEORY ANY DIRECT OR INDIRECT DAMAGES OR EXPENSES
//   31   INCLUDING BUT NOT LIMITED TO ANY INCIDENTAL, SPECIAL, INDIRECT, PUNITIVE
//   32   OR CONSEQUENTIAL DAMAGES, LOST PROFITS OR LOST DATA, COST OF PROCUREMENT
//   33   OF SUBSTITUTE GOODS, TECHNOLOGY, SERVICES, OR ANY CLAIMS BY THIRD PARTIES
//   34   (INCLUDING BUT NOT LIMITED TO ANY DEFENSE THEREOF), OR OTHER SIMILAR COSTS.
//   35 
//   36   Should you have any questions regarding your right to use this Software,
//   37   contact Texas Instruments Incorporated at www.TI.com.
//   38 **************************************************************************************************/
//   39 
//   40 /*********************************************************************
//   41  * INCLUDES
//   42  */
//   43 #include "ZComDef.h"
//   44 #include "AF.h"
//   45 #include "APS.h"
//   46 #include "zcl.h"
//   47 #include "zcl_general.h"
//   48 
//   49 #if defined ( INTER_PAN )
//   50   #include "stub_aps.h"
//   51 #endif
//   52    
//   53 #ifdef BDB_REPORTING
//   54   #include "bdb_Reporting.h"
//   55 #endif
//   56 #include "bdb_interface.h"
//   57 
//   58 #include "zcl_green_power.h"
//   59 
//   60    
//   61 /*********************************************************************
//   62  * MACROS
//   63  */
//   64 /*** Frame Control ***/
//   65 #define zcl_FCType( a )               ( (a) & ZCL_FRAME_CONTROL_TYPE )
//   66 #define zcl_FCManuSpecific( a )       ( (a) & ZCL_FRAME_CONTROL_MANU_SPECIFIC )
//   67 #define zcl_FCDirection( a )          ( (a) & ZCL_FRAME_CONTROL_DIRECTION )
//   68 #define zcl_FCDisableDefaultRsp( a )  ( (a) & ZCL_FRAME_CONTROL_DISABLE_DEFAULT_RSP )
//   69 
//   70 /*** Attribute Access Control ***/
//   71 #define zcl_AccessCtrlRead( a )       ( (a) & ACCESS_CONTROL_READ )
//   72 #define zcl_AccessCtrlWrite( a )      ( (a) & ACCESS_CONTROL_WRITE )
//   73 #define zcl_AccessCtrlCmd( a )        ( (a) & ACCESS_CONTROL_CMD )
//   74 #define zcl_AccessCtrlAuthRead( a )   ( (a) & ACCESS_CONTROL_AUTH_READ )
//   75 #define zcl_AccessCtrlAuthWrite( a )  ( (a) & ACCESS_CONTROL_AUTH_WRITE )
//   76 #define zcl_AccessClient( a )         ( (a) & ACCESS_CLIENT )
//   77 
//   78 #define zclParseCmd( a, b )           zclCmdTable[(a)].pfnParseInProfile( (b) )
//   79 #define zclProcessCmd( a, b )         zclCmdTable[(a)].pfnProcessInProfile( (b) )
//   80 
//   81 #define zcl_DefaultRspCmd( zclHdr )   ( zcl_ProfileCmd( (zclHdr).fc.type )     && \ 
//   82                                         (zclHdr).fc.manuSpecific == 0          && \ 
//   83                                         (zclHdr).commandID == ZCL_CMD_DEFAULT_RSP )
//   84 
//   85 // Commands that have corresponding responses (ZCL_CMD_WRITE_NO_RSP, does not have response, but must not send default response)
//   86 #define CMD_HAS_RSP( cmd )            ( (cmd) == ZCL_CMD_READ                   || \ 
//   87                                         (cmd) == ZCL_CMD_WRITE                  || \ 
//   88                                         (cmd) == ZCL_CMD_WRITE_UNDIVIDED        || \ 
//   89                                         (cmd) == ZCL_CMD_WRITE_NO_RSP           || \ 
//   90                                         (cmd) == ZCL_CMD_CONFIG_REPORT          || \ 
//   91                                         (cmd) == ZCL_CMD_READ_REPORT_CFG        || \ 
//   92                                         (cmd) == ZCL_CMD_DISCOVER_ATTRS         || \ 
//   93                                         (cmd) == ZCL_CMD_DISCOVER_CMDS_RECEIVED || \ 
//   94                                         (cmd) == ZCL_CMD_DISCOVER_CMDS_GEN      || \ 
//   95                                         (cmd) == ZCL_CMD_DISCOVER_ATTRS_EXT     || \ 
//   96                                         (cmd) == ZCL_CMD_DEFAULT_RSP ) // exception
//   97 #define  ZCL_VALID_MIN_HEADER_LEN  3
//   98 
//   99 /*********************************************************************
//  100  * CONSTANTS
//  101  */
//  102 
//  103 /*********************************************************************
//  104  * TYPEDEFS
//  105  */
//  106 typedef struct zclLibPlugin
//  107 {
//  108   struct zclLibPlugin *next;
//  109   uint16              startClusterID;    // starting cluster ID
//  110   uint16              endClusterID;      // ending cluster ID
//  111   zclInHdlr_t         pfnIncomingHdlr;    // function to handle incoming message
//  112 } zclLibPlugin_t;
//  113 
//  114 // Command record list
//  115 typedef struct zclCmdRecsList
//  116 {
//  117   struct zclCmdRecsList *pNext;
//  118   uint8                 endpoint;
//  119   uint8                 numCommands;
//  120   CONST zclCommandRec_t *pCmdRecs;
//  121 } zclCmdRecsList_t;
//  122 
//  123 
//  124 // Cluster option list item
//  125 typedef struct zclClusterOptionList
//  126 {
//  127   struct zclClusterOptionList *next;
//  128   uint8                       endpoint;   // Used to link it into the endpoint descriptor
//  129   uint8                       numOptions; // Number of the following records
//  130   zclOptionRec_t              *options;   // option records
//  131 } zclClusterOptionList;
//  132 
//  133 typedef void *(*zclParseInProfileCmd_t)( zclParseCmd_t *pCmd );
//  134 typedef uint8 (*zclProcessInProfileCmd_t)( zclIncoming_t *pInMsg );
//  135 
//  136 typedef struct
//  137 {
//  138   zclParseInProfileCmd_t   pfnParseInProfile;
//  139   zclProcessInProfileCmd_t pfnProcessInProfile;
//  140 } zclCmdItems_t;
//  141 
//  142 
//  143 // List record for external handler for unhandled ZCL Foundation commands/rsps
//  144 typedef struct zclExternalFoundationHandlerList
//  145 {
//  146     struct zclExternalFoundationHandlerList *next;
//  147     uint8 zcl_ExternalTaskID;
//  148     uint8 zcl_ExternalEndPoint;
//  149 } zclExternalFoundationHandlerList;
//  150 
//  151 
//  152 /*********************************************************************
//  153  * GLOBAL VARIABLES
//  154  */
//  155 
//  156 #if !defined ( ZCL_STANDALONE )

        RSEG XDATA_Z:XDATA:NOROOT(0)
        DATA8
//  157   uint8 zcl_TaskID;
zcl_TaskID:
        DS 1
        REQUIRE __INIT_XDATA_Z
//  158 #endif
//  159 
//  160 // The Application should register its attribute data validation function

        RSEG XDATA_Z:XDATA:NOROOT(0)
        DATA16
//  161 zclValidateAttrData_t zcl_ValidateAttrDataCB = (zclValidateAttrData_t)NULL;
zcl_ValidateAttrDataCB:
        DS 2
        REQUIRE __INIT_XDATA_Z
//  162 
//  163 // ZCL Sequence number
//  164 //uint8 zcl_SeqNum = 0x00;  //Not longer used, refer to bdb_getZCLFrameCounter() in bdb_interface.h

        RSEG XDATA_Z:XDATA:NOROOT(0)
        DATA8
//  165 uint8 zcl_InSeqNum = 0x00;
zcl_InSeqNum:
        DS 1
        REQUIRE __INIT_XDATA_Z
//  166 

        RSEG XDATA_I:XDATA:NOROOT(0)
//  167 uint8 zcl_radius = AF_DEFAULT_RADIUS;
zcl_radius:
        DATA8
        DS 1
        REQUIRE `?<Initializer for zcl_radius>`
        REQUIRE __INIT_XDATA_I
//  168 

        RSEG XDATA_Z:XDATA:NOROOT(0)
        DATA8
//  169 static uint8 savedZCLTransSeqNum = 0;
savedZCLTransSeqNum:
        DS 1
        REQUIRE __INIT_XDATA_Z
//  170 
//  171 /*********************************************************************
//  172  * EXTERNAL VARIABLES
//  173  */
//  174 
//  175 /*********************************************************************
//  176  * EXTERNAL FUNCTIONS
//  177  */
//  178 
//  179 /*********************************************************************
//  180  * LOCAL VARIABLES
//  181  */

        RSEG XDATA_Z:XDATA:NOROOT(0)
        DATA16
//  182 static zclLibPlugin_t *plugins = (zclLibPlugin_t *)NULL;
plugins:
        DS 2
        REQUIRE __INIT_XDATA_Z
//  183 
//  184 #if defined ( ZCL_DISCOVER )

        RSEG XDATA_Z:XDATA:NOROOT(0)
        DATA16
//  185   static zclCmdRecsList_t *gpCmdList = (zclCmdRecsList_t *)NULL;
gpCmdList:
        DS 2
        REQUIRE __INIT_XDATA_Z
//  186 #endif
//  187 

        RSEG XDATA_Z:XDATA:NOROOT(0)
        DATA16
//  188 static zclAttrRecsList *attrList = (zclAttrRecsList *)NULL;
attrList:
        DS 2
        REQUIRE __INIT_XDATA_Z

        RSEG XDATA_Z:XDATA:NOROOT(0)
        DATA16
//  189 static zclClusterOptionList *clusterOptionList = (zclClusterOptionList *)NULL;
clusterOptionList:
        DS 2
        REQUIRE __INIT_XDATA_Z
//  190 

        RSEG XDATA_Z:XDATA:NOROOT(0)
        DATA16
//  191 static afIncomingMSGPacket_t *rawAFMsg = (afIncomingMSGPacket_t *)NULL;
rawAFMsg:
        DS 2
        REQUIRE __INIT_XDATA_Z
//  192 
//  193 #if !defined ( ZCL_STANDALONE )

        RSEG XDATA_Z:XDATA:NOROOT(0)
        DATA16
//  194 static zclExternalFoundationHandlerList *externalEndPointHandlerList = (zclExternalFoundationHandlerList *)NULL;
externalEndPointHandlerList:
        DS 2
        REQUIRE __INIT_XDATA_Z
//  195 #endif
//  196 
//  197 /*********************************************************************
//  198  * LOCAL FUNCTIONS
//  199  */
//  200 static uint8 *zclBuildHdr( zclFrameHdr_t *hdr, uint8 *pData );
//  201 static uint8 zclCalcHdrSize( zclFrameHdr_t *hdr );
//  202 static zclLibPlugin_t *zclFindPlugin( uint16 clusterID, uint16 profileID );
//  203 
//  204 #if !defined ( ZCL_STANDALONE )
//  205 static uint8 zcl_addExternalFoundationHandler( uint8 taskId, uint8 endPointId );
//  206 static uint8 zcl_getExternalFoundationHandler( afIncomingMSGPacket_t *pInMsg );
//  207 #endif // !defined ( ZCL_STANDALONE )
//  208 
//  209 #if defined ( ZCL_DISCOVER )
//  210   static zclCmdRecsList_t *zclFindCmdRecsList( uint8 endpoint );
//  211 #endif
//  212 
//  213 zclAttrRecsList *zclFindAttrRecsList( uint8 endpoint );
//  214 static zclOptionRec_t *zclFindClusterOption( uint8 endpoint, uint16 clusterID );
//  215 static uint8 zclGetClusterOption( uint8 endpoint, uint16 clusterID );
//  216 static void zclSetSecurityOption( uint8 endpoint, uint16 clusterID, uint8 enable );
//  217 
//  218 static uint8 zcl_DeviceOperational( uint8 srcEP, uint16 clusterID, uint8 frameType, uint8 cmd, uint16 profileID );
//  219 
//  220 #if defined ( ZCL_READ ) || defined ( ZCL_WRITE )
//  221 static zclReadWriteCB_t zclGetReadWriteCB( uint8 endpoint );
//  222 static zclAuthorizeCB_t zclGetAuthorizeCB( uint8 endpoint );
//  223 #endif // ZCL_READ || ZCL_WRITE
//  224 
//  225 #ifdef ZCL_READ
//  226 ZStatus_t zclReadAttrData( uint8 *pAttrData, zclAttrRec_t *pAttr, uint16 *pDataLen );
//  227 static uint16 zclGetAttrDataLengthUsingCB( uint8 endpoint, uint16 clusterID, uint16 attrId );
//  228 static ZStatus_t zclReadAttrDataUsingCB( uint8 endpoint, uint16 clusterId, uint16 attrId,
//  229                                          uint8 *pAttrData, uint16 *pDataLen );
//  230 static ZStatus_t zclAuthorizeRead( uint8 endpoint, afAddrType_t *srcAddr, zclAttrRec_t *pAttr );
//  231 static void *zclParseInReadRspCmd( zclParseCmd_t *pCmd );
//  232 static uint8 zclProcessInReadCmd( zclIncoming_t *pInMsg );
//  233 #endif // ZCL_READ
//  234 
//  235 #ifdef ZCL_WRITE
//  236 static ZStatus_t zclWriteAttrData( uint8 endpoint, afAddrType_t *srcAddr,
//  237                                    zclAttrRec_t *pAttr, zclWriteRec_t *pWriteRec );
//  238 static ZStatus_t zclWriteAttrDataUsingCB( uint8 endpoint, afAddrType_t *srcAddr,
//  239                                           zclAttrRec_t *pAttr, uint8 *pAttrData );
//  240 static ZStatus_t zclAuthorizeWrite( uint8 endpoint, afAddrType_t *srcAddr, zclAttrRec_t *pAttr );
//  241 static void *zclParseInWriteRspCmd( zclParseCmd_t *pCmd );
//  242 static uint8 zclProcessInWriteCmd( zclIncoming_t *pInMsg );
//  243 static uint8 zclProcessInWriteUndividedCmd( zclIncoming_t *pInMsg );
//  244 #endif // ZCL_WRITE
//  245 
//  246 #ifdef ZCL_REPORT_CONFIGURING_DEVICE
//  247 static void *zclParseInConfigReportRspCmd( zclParseCmd_t *pCmd );
//  248 static void *zclParseInReadReportCfgRspCmd( zclParseCmd_t *pCmd );
//  249 #endif
//  250 
//  251 static void *zclParseInDefaultRspCmd( zclParseCmd_t *pCmd );
//  252 
//  253 #ifdef ZCL_DISCOVER
//  254 static uint8 zclFindNextCmdRec( uint8 endpoint, uint16 clusterID, uint8 commandID, uint8 direction, uint8 *pCmdID, zclCommandRec_t *pCmd );
//  255 static uint8 zclFindNextAttrRec( uint8 endpoint, uint16 clusterID, uint8 direction, uint16 *attrId, zclAttrRec_t *pAttr );
//  256 static void *zclParseInDiscCmdsRspCmd( zclParseCmd_t *pCmd );
//  257 static void *zclParseInDiscAttrsRspCmd( zclParseCmd_t *pCmd );
//  258 static void *zclParseInDiscAttrsExtRspCmd( zclParseCmd_t *pCmd );
//  259 static uint8 zclProcessInDiscCmd( zclIncoming_t *pInMsg );
//  260 static uint8 zclProcessInDiscAttrs( zclIncoming_t *pInMsg );
//  261 static void zclProcessInDiscAttrsCmd( zclIncoming_t *pInMsg, zclDiscoverAttrsCmd_t *pDiscoverCmd, uint8 attrLenBuf );
//  262 static void zclProcessInDiscAttrsExtCmd( zclIncoming_t *pInMsg, zclDiscoverAttrsCmd_t *pDiscoverCmd, uint8 attrLenBuf );
//  263 #endif // ZCL_DISCOVER
//  264 
//  265 /*********************************************************************
//  266  * Parse Profile Command Function Table
//  267  */
//  268 

        RSEG CODE_C:CODE:REORDER:NOROOT(0)
        DATA8
//  269 static CONST zclCmdItems_t zclCmdTable[] =
zclCmdTable:
        DATA16
        DW `??zclParseInReadCmd::?relay`
        DW `??zclProcessInReadCmd::?relay`
        DW `??zclParseInReadRspCmd::?relay`
        DW `??zcl_HandleExternal::?relay`
        DW `??zclParseInWriteCmd::?relay`
        DW `??zclProcessInWriteCmd::?relay`
        DW `??zclParseInWriteCmd::?relay`
        DW `??zclProcessInWriteUndividedCmd::?relay`
        DW `??zclParseInWriteRspCmd::?relay`
        DW `??zcl_HandleExternal::?relay`
        DW `??zclParseInWriteCmd::?relay`
        DW `??zclProcessInWriteCmd::?relay`
        DW `??zclParseInConfigReportCmd::?relay`
        DW `??zcl_HandleExternal::?relay`
        DW 0H
        DW 0H
        DW `??zclParseInReadReportCfgCmd::?relay`
        DW `??zcl_HandleExternal::?relay`
        DW 0H
        DW 0H
        DW `??zclParseInReportCmd::?relay`
        DW `??zcl_HandleExternal::?relay`
        DW `??zclParseInDefaultRspCmd::?relay`
        DW `??zcl_HandleExternal::?relay`
        DW `??zclParseInDiscAttrsCmd::?relay`
        DW `??zclProcessInDiscAttrs::?relay`
        DW `??zclParseInDiscAttrsRspCmd::?relay`
        DW `??zcl_HandleExternal::?relay`
        DW 0H
        DW 0H
        DW 0H
        DW 0H
        DW 0H
        DW 0H
        DW `??zclParseInDiscCmdsCmd::?relay`
        DW `??zclProcessInDiscCmd::?relay`
        DW `??zclParseInDiscCmdsRspCmd::?relay`
        DW `??zcl_HandleExternal::?relay`
        DW `??zclParseInDiscCmdsCmd::?relay`
        DW `??zclProcessInDiscCmd::?relay`
        DW `??zclParseInDiscCmdsRspCmd::?relay`
        DW `??zcl_HandleExternal::?relay`
        DW `??zclParseInDiscAttrsCmd::?relay`
        DW `??zclProcessInDiscAttrs::?relay`
        DW `??zclParseInDiscAttrsExtRspCmd::?relay`
        DW `??zcl_HandleExternal::?relay`
//  270 {
//  271 #ifdef ZCL_READ
//  272   /* ZCL_CMD_READ */                { zclParseInReadCmd,             zclProcessInReadCmd             },
//  273   /* ZCL_CMD_READ_RSP */            { zclParseInReadRspCmd,          zcl_HandleExternal              },
//  274 #else
//  275   /* ZCL_CMD_READ */                { (zclParseInProfileCmd_t)NULL,  (zclProcessInProfileCmd_t)NULL  },
//  276   /* ZCL_CMD_READ_RSP */            { (zclParseInProfileCmd_t)NULL,  (zclProcessInProfileCmd_t)NULL  },
//  277 #endif // ZCL_READ
//  278 
//  279 #ifdef ZCL_WRITE
//  280   /* ZCL_CMD_WRITE */               { zclParseInWriteCmd,            zclProcessInWriteCmd            },
//  281   /* ZCL_CMD_WRITE_UNDIVIDED */     { zclParseInWriteCmd,            zclProcessInWriteUndividedCmd   },
//  282   /* ZCL_CMD_WRITE_RSP */           { zclParseInWriteRspCmd,         zcl_HandleExternal              },
//  283   /* ZCL_CMD_WRITE_NO_RSP */        { zclParseInWriteCmd,            zclProcessInWriteCmd            },
//  284 #else
//  285   /* ZCL_CMD_WRITE */               { (zclParseInProfileCmd_t)NULL,  (zclProcessInProfileCmd_t)NULL  },
//  286   /* ZCL_CMD_WRITE_UNDIVIDED */     { (zclParseInProfileCmd_t)NULL,  (zclProcessInProfileCmd_t)NULL  },
//  287   /* ZCL_CMD_WRITE_RSP */           { (zclParseInProfileCmd_t)NULL,  (zclProcessInProfileCmd_t)NULL  },
//  288   /* ZCL_CMD_WRITE_NO_RSP */        { (zclParseInProfileCmd_t)NULL,  (zclProcessInProfileCmd_t)NULL  },
//  289 #endif // ZCL_WRITE
//  290 
//  291 #ifdef ZCL_REPORTING_DEVICE
//  292     /* ZCL_CMD_CONFIG_REPORT */       { zclParseInConfigReportCmd,     zcl_HandleExternal              },
//  293 #else
//  294     /* ZCL_CMD_CONFIG_REPORT */       { (zclParseInProfileCmd_t)NULL,  (zclProcessInProfileCmd_t)NULL  },
//  295 #endif
//  296 
//  297 #ifdef ZCL_REPORT_CONFIGURING_DEVICE
//  298     /* ZCL_CMD_CONFIG_REPORT_RSP */   { zclParseInConfigReportRspCmd,  zcl_HandleExternal              },
//  299 #else
//  300     /* ZCL_CMD_CONFIG_REPORT_RSP */   { (zclParseInProfileCmd_t)NULL,  (zclProcessInProfileCmd_t)NULL  },
//  301 #endif
//  302 
//  303 #ifdef ZCL_REPORTING_DEVICE
//  304     /* ZCL_CMD_READ_REPORT_CFG */     { zclParseInReadReportCfgCmd,    zcl_HandleExternal              },
//  305 #else
//  306     /* ZCL_CMD_READ_REPORT_CFG */     { (zclParseInProfileCmd_t)NULL,  (zclProcessInProfileCmd_t)NULL  },
//  307 #endif
//  308 
//  309 #ifdef ZCL_REPORT_CONFIGURING_DEVICE
//  310     /* ZCL_CMD_READ_REPORT_CFG_RSP */ { zclParseInReadReportCfgRspCmd, zcl_HandleExternal              },
//  311 #else
//  312     /* ZCL_CMD_READ_REPORT_CFG_RSP */ { (zclParseInProfileCmd_t)NULL,  (zclProcessInProfileCmd_t)NULL  },
//  313 #endif
//  314 
//  315 #ifdef ZCL_REPORT_DESTINATION_DEVICE
//  316     /* ZCL_CMD_REPORT */              { zclParseInReportCmd,           zcl_HandleExternal              },
//  317 #else
//  318     /* ZCL_CMD_REPORT */              { (zclParseInProfileCmd_t)NULL,  (zclProcessInProfileCmd_t)NULL  },
//  319 #endif
//  320 
//  321   /* ZCL_CMD_DEFAULT_RSP */         { zclParseInDefaultRspCmd,       zcl_HandleExternal              },
//  322 
//  323 #ifdef ZCL_DISCOVER
//  324   /* ZCL_CMD_DISCOVER_ATTRS */                { zclParseInDiscAttrsCmd,         zclProcessInDiscAttrs           },
//  325   /* ZCL_CMD_DISCOVER_ATTRS_RSP */            { zclParseInDiscAttrsRspCmd,      zcl_HandleExternal              },
//  326   /* *not supported* READ_ATTRS_STRCT */      { NULL,                           (zclProcessInProfileCmd_t)NULL  },
//  327   /* *not supported* WRITE_ATTRS_STRCT */     { NULL,                           (zclProcessInProfileCmd_t)NULL  },
//  328   /* *not supported* WRITE_ATTRS_STRCT_RSP */ { NULL,                           (zclProcessInProfileCmd_t)NULL  },
//  329   /* ZCL_CMD_DISCOVER_CMDS_RECEIVED */        { zclParseInDiscCmdsCmd,          zclProcessInDiscCmd             },
//  330   /* ZCL_CMD_DISCOVER_CMDS_RECEIVED_RSP */    { zclParseInDiscCmdsRspCmd,       zcl_HandleExternal              },
//  331   /* ZCL_CMD_DISCOVER_CMDS_GEN */             { zclParseInDiscCmdsCmd,          zclProcessInDiscCmd             },
//  332   /* ZCL_CMD_DISCOVER_CMDS_GEN_RSP */         { zclParseInDiscCmdsRspCmd,       zcl_HandleExternal              },
//  333   /* ZCL_CMD_DISCOVER_ATTRS_EXT */            { zclParseInDiscAttrsCmd,         zclProcessInDiscAttrs           },
//  334   /* ZCL_CMD_DISCOVER_ATTRS_EXT_RSP */        { zclParseInDiscAttrsExtRspCmd,   zcl_HandleExternal              },
//  335 #else
//  336   /* ZCL_CMD_DISCOVER_ATTRS */                { (zclParseInProfileCmd_t)NULL,    (zclProcessInProfileCmd_t)NULL  },
//  337   /* ZCL_CMD_DISCOVER_ATTRS_RSP */            { (zclParseInProfileCmd_t)NULL,   (zclProcessInProfileCmd_t)NULL  },
//  338   /* *not supported* READ_ATTRS_STRCT */      { (zclParseInProfileCmd_t)NULL,   (zclProcessInProfileCmd_t)NULL  },
//  339   /* *not supported* WRITE_ATTRS_STRCT */     { (zclParseInProfileCmd_t)NULL,   (zclProcessInProfileCmd_t)NULL  },
//  340   /* *not supported* WRITE_ATTRS_STRCT_RSP */ { (zclParseInProfileCmd_t)NULL,   (zclProcessInProfileCmd_t)NULL  },
//  341   /* ZCL_CMD_DISCOVER_CMDS_RECEIVED */        { (zclParseInProfileCmd_t)NULL,   (zclProcessInProfileCmd_t)NULL  },
//  342   /* ZCL_CMD_DISCOVER_CMDS_RECEIVED_RSP */    { (zclParseInProfileCmd_t)NULL,   (zclProcessInProfileCmd_t)NULL  },
//  343   /* ZCL_CMD_DISCOVER_CMDS_GEN */             { (zclParseInProfileCmd_t)NULL,   (zclProcessInProfileCmd_t)NULL  },
//  344   /* ZCL_CMD_DISCOVER_CMDS_GEN_RSP */         { (zclParseInProfileCmd_t)NULL,   (zclProcessInProfileCmd_t)NULL  },
//  345   /* ZCL_CMD_DISCOVER_ATTRS_EXT */            { (zclParseInProfileCmd_t)NULL,   (zclProcessInProfileCmd_t)NULL  },
//  346   /* ZCL_CMD_DISCOVER_ATTRS_EXT_RSP */        { (zclParseInProfileCmd_t)NULL,   (zclProcessInProfileCmd_t)NULL  },
//  347 #endif // ZCL_DISCOVER
//  348 };
//  349 
//  350 /*********************************************************************
//  351  * PUBLIC FUNCTIONS
//  352  *********************************************************************/
//  353 
//  354 #if !defined ( ZCL_STANDALONE )
//  355 /*********************************************************************
//  356  * @fn          zcl_Init
//  357  *
//  358  * @brief       Initialization function for the zcl layer.
//  359  *
//  360  * @param       task_id - ZCL task id
//  361  *
//  362  * @return      none
//  363  */

        RSEG BANKED_CODE:HUGECODE:NOROOT(0)
//  364 void zcl_Init( uint8 task_id )
zcl_Init:
          CFI Block cfiBlock0 Using cfiCommon0
          CFI Function zcl_Init
        CODE
//  365 {
        PUSH      DPL
          CFI DPL0 Frame(CFA_SP, 4)
          CFI CFA_SP SP+-4
        PUSH      DPH
          CFI DPH0 Frame(CFA_SP, 5)
          CFI CFA_SP SP+-5
        ; Saved register size: 2
        ; Auto size: 0
//  366   zcl_TaskID = task_id;
        MOV       A,R1
        MOV       DPTR,#zcl_TaskID
        MOVX      @DPTR,A
//  367 }
        POP       DPH
          CFI DPH0 SameValue
          CFI CFA_SP SP+-4
        POP       DPL
          CFI DPL0 SameValue
          CFI CFA_SP SP+-3
        LJMP      ?BRET
          CFI EndBlock cfiBlock0
//  368 #endif
//  369 
//  370 #if !defined ( ZCL_STANDALONE )
//  371 /*********************************************************************
//  372  * @fn          zcl_event_loop
//  373  *
//  374  * @brief       Event Loop Processor for zcl.
//  375  *
//  376  * @param       task_id - task id
//  377  * @param       events - event bitmap
//  378  *
//  379  * @return      unprocessed events
//  380  */

        RSEG BANKED_CODE:HUGECODE:NOROOT(0)
//  381 uint16 zcl_event_loop( uint8 task_id, uint16 events )
zcl_event_loop:
          CFI Block cfiBlock1 Using cfiCommon0
          CFI Function zcl_event_loop
        CODE
//  382 {
        FUNCALL zcl_event_loop, osal_msg_receive
        LOCFRAME ISTACK, 0, STACK
        LOCFRAME PSTACK, 0, STACK
        LOCFRAME XSTACK, 12, STACK
        LOCFRAME IOVERLAY, 0, STATIC
        LOCFRAME DOVERLAY, 0, STATIC
        ARGFRAME ISTACK, 0, STACK
        ARGFRAME PSTACK, 0, STACK
        ARGFRAME XSTACK, 12, STACK
        ARGFRAME IOVERLAY, 0, STATIC
        ARGFRAME DOVERLAY, 0, STATIC
        FUNCALL zcl_event_loop, zcl_getExternalFoundationHandler
        LOCFRAME ISTACK, 0, STACK
        LOCFRAME PSTACK, 0, STACK
        LOCFRAME XSTACK, 12, STACK
        LOCFRAME IOVERLAY, 0, STATIC
        LOCFRAME DOVERLAY, 0, STATIC
        ARGFRAME ISTACK, 0, STACK
        ARGFRAME PSTACK, 0, STACK
        ARGFRAME XSTACK, 12, STACK
        ARGFRAME IOVERLAY, 0, STATIC
        ARGFRAME DOVERLAY, 0, STATIC
        FUNCALL zcl_event_loop, osal_msg_send
        LOCFRAME ISTACK, 0, STACK
        LOCFRAME PSTACK, 0, STACK
        LOCFRAME XSTACK, 12, STACK
        LOCFRAME IOVERLAY, 0, STATIC
        LOCFRAME DOVERLAY, 0, STATIC
        ARGFRAME ISTACK, 0, STACK
        ARGFRAME PSTACK, 0, STACK
        ARGFRAME XSTACK, 12, STACK
        ARGFRAME IOVERLAY, 0, STATIC
        ARGFRAME DOVERLAY, 0, STATIC
        FUNCALL zcl_event_loop, osal_msg_deallocate
        LOCFRAME ISTACK, 0, STACK
        LOCFRAME PSTACK, 0, STACK
        LOCFRAME XSTACK, 12, STACK
        LOCFRAME IOVERLAY, 0, STATIC
        LOCFRAME DOVERLAY, 0, STATIC
        ARGFRAME ISTACK, 0, STACK
        ARGFRAME PSTACK, 0, STACK
        ARGFRAME XSTACK, 12, STACK
        ARGFRAME IOVERLAY, 0, STATIC
        ARGFRAME DOVERLAY, 0, STATIC
        FUNCALL zcl_event_loop, osal_msg_receive
        LOCFRAME ISTACK, 0, STACK
        LOCFRAME PSTACK, 0, STACK
        LOCFRAME XSTACK, 12, STACK
        LOCFRAME IOVERLAY, 0, STATIC
        LOCFRAME DOVERLAY, 0, STATIC
        ARGFRAME ISTACK, 0, STACK
        ARGFRAME PSTACK, 0, STACK
        ARGFRAME XSTACK, 12, STACK
        ARGFRAME IOVERLAY, 0, STATIC
        ARGFRAME DOVERLAY, 0, STATIC
        FUNCALL zcl_event_loop, zcl_ProcessMessageMSG
        LOCFRAME ISTACK, 0, STACK
        LOCFRAME PSTACK, 0, STACK
        LOCFRAME XSTACK, 12, STACK
        LOCFRAME IOVERLAY, 0, STATIC
        LOCFRAME DOVERLAY, 0, STATIC
        ARGFRAME ISTACK, 0, STACK
        ARGFRAME PSTACK, 0, STACK
        ARGFRAME XSTACK, 12, STACK
        ARGFRAME IOVERLAY, 0, STATIC
        ARGFRAME DOVERLAY, 0, STATIC
        REQUIRE ?V0
        REQUIRE ?V1
        REQUIRE ?V2
        REQUIRE ?V3
        MOV       A,#-0xc
        LCALL     ?BANKED_ENTER_XDATA
          CFI DPH0 load(1, XDATA, add(CFA_XSP16, literal(-1)))
          CFI DPL0 load(1, XDATA, add(CFA_XSP16, literal(-2)))
          CFI ?BRET_EXT load(1, XDATA, add(CFA_XSP16, literal(-3)))
          CFI ?RET_HIGH load(1, XDATA, add(CFA_XSP16, literal(-4)))
          CFI ?RET_LOW load(1, XDATA, add(CFA_XSP16, literal(-5)))
          CFI R7 load(1, XDATA, add(CFA_XSP16, literal(-6)))
          CFI V3 load(1, XDATA, add(CFA_XSP16, literal(-7)))
          CFI V2 load(1, XDATA, add(CFA_XSP16, literal(-8)))
          CFI V1 load(1, XDATA, add(CFA_XSP16, literal(-9)))
          CFI V0 load(1, XDATA, add(CFA_XSP16, literal(-10)))
          CFI VB load(1, XDATA, add(CFA_XSP16, literal(-11)))
          CFI R6 load(1, XDATA, add(CFA_XSP16, literal(-12)))
          CFI CFA_SP SP+0
          CFI CFA_XSP16 add(XSP16, 12)
        ; Saved register size: 12
        ; Auto size: 0
        MOV       ?V2,R2
        MOV       ?V3,R3
//  383   uint8 *msgPtr;
//  384 
//  385   (void)task_id;  // Intentionally unreferenced parameter
//  386 
//  387   if ( events & SYS_EVENT_MSG )
        MOV       A,R3
        ANL       A,#0x80
        JZ        ??zcl_event_loop_0
//  388   {
//  389     msgPtr = osal_msg_receive( zcl_TaskID );
        ; Setup parameters for call to function osal_msg_receive
        SJMP      ??zcl_event_loop_1
//  390     while ( msgPtr != NULL )
//  391     {
//  392       uint8 dealloc = TRUE;
//  393 
//  394       if ( *msgPtr == AF_INCOMING_MSG_CMD )
//  395       {
//  396         zcl_ProcessMessageMSG( (afIncomingMSGPacket_t *)msgPtr );
//  397       }
//  398       else
//  399       {
//  400         uint8 taskID;
//  401         taskID = zcl_getExternalFoundationHandler( (afIncomingMSGPacket_t *)msgPtr );
??zcl_event_loop_2:
        ; Setup parameters for call to function zcl_getExternalFoundationHandler
        MOV       A,R6
        MOV       R2,A
        MOV       A,R7
        MOV       R3,A
        LCALL     `??zcl_getExternalFoundationHandler::?relay`; Banked call to: zcl_getExternalFoundationHandler
        MOV       A,R1
        MOV       R1,A
//  402 
//  403         if ( taskID != TASK_NO_TASK )
        MOV       A,#-0x1
        XRL       A,R1
        JZ        ??zcl_event_loop_3
//  404         {
//  405           // send it to another task to process.
//  406           osal_msg_send( taskID, msgPtr );
        ; Setup parameters for call to function osal_msg_send
        MOV       A,R6
        MOV       R2,A
        MOV       A,R7
        MOV       R3,A
        LCALL     `??osal_msg_send::?relay`; Banked call to: osal_msg_send
//  407           dealloc = FALSE;
        MOV       ?V0,#0x0
//  408         }
//  409       }
//  410 
//  411       // Release the memory
//  412       if ( dealloc )
??zcl_event_loop_3:
        MOV       A,?V0
        JZ        ??zcl_event_loop_1
//  413       {
//  414         osal_msg_deallocate( msgPtr );
        ; Setup parameters for call to function osal_msg_deallocate
        MOV       A,R6
        MOV       R2,A
        MOV       A,R7
        MOV       R3,A
        LCALL     `??osal_msg_deallocate::?relay`; Banked call to: osal_msg_deallocate
//  415       }
//  416 
//  417       // Next
//  418       msgPtr = osal_msg_receive( zcl_TaskID );
??zcl_event_loop_1:
        ; Setup parameters for call to function osal_msg_receive
        MOV       DPTR,#zcl_TaskID
        MOVX      A,@DPTR
        MOV       R1,A
        LCALL     `??osal_msg_receive::?relay`; Banked call to: osal_msg_receive
        MOV       ?V0,R2
        MOV       ?V1,R3
        MOV       R6,?V0
        MOV       R7,?V1
        MOV       A,R6
        ORL       A,R7
        JZ        ??zcl_event_loop_4
        MOV       ?V0,#0x1
        MOV       DPL,R6
        MOV       DPH,R7
        MOVX      A,@DPTR
        XRL       A,#0x1a
        JNZ       ??zcl_event_loop_2
        ; Setup parameters for call to function zcl_ProcessMessageMSG
        MOV       A,R6
        MOV       R2,A
        MOV       A,R7
        MOV       R3,A
        LCALL     `??zcl_ProcessMessageMSG::?relay`; Banked call to: zcl_ProcessMessageMSG
        SJMP      ??zcl_event_loop_3
//  419     }
//  420 
//  421     // return unprocessed events
//  422     return (events ^ SYS_EVENT_MSG);
??zcl_event_loop_4:
        MOV       R2,?V2
        MOV       A,?V3
        XRL       A,#0x80
        MOV       R3,A
        SJMP      ??zcl_event_loop_5
//  423   }
//  424 
//  425 #if !defined (DISABLE_GREENPOWER_BASIC_PROXY) && (ZG_BUILD_RTR_TYPE)
//  426   if ( events & ZCL_DATABUF_SEND )
//  427   {
//  428     gpNotificationMsg_t *gpNotification = NULL;
//  429     gpCmdPayloadMsg_t *pCmdPayloadMsgCurr = NULL;
//  430     gpd_ID_t gpd_ID;
//  431     uint8 *pgpdid;
//  432     uint8 entry[PROXY_TBL_ENTRY_LEN];
//  433     uint8 appId;
//  434     uint8 nwkSeqNum;
//  435     uint8 apsSecNum;
//  436     uint16 nwkAddr;
//  437     
//  438     gpNotification = gp_GetHeadNotificationMsg( );
//  439     
//  440     if ( gpNotification == NULL )
//  441     {
//  442       return 0;
//  443     }
//  444     
//  445     pCmdPayloadMsgCurr = ( gpCmdPayloadMsg_t* ) gpNotification->pMsg ;
//  446     appId = PROXY_TBL_GET_APPLICTION_ID((uint16)*pCmdPayloadMsgCurr->pMsg);
//  447     
//  448     // To save the NIB nwk sequense number and use the GP alias nwk sequence number
//  449     // for the GP notification
//  450     nwkSeqNum = _NIB.SequenceNum;
//  451     _NIB.SequenceNum = pCmdPayloadMsgCurr->secNum;
//  452     
//  453     // To save the NIB nwk address and use the GP alias nwk address for the GP notification
//  454     nwkAddr = _NIB.nwkDevAddress;
//  455     
//  456     if( appId == GP_OPT_APP_ID_GPD )
//  457     {
//  458       pgpdid = pCmdPayloadMsgCurr->pMsg + sizeof( uint16 );
//  459       
//  460       osal_memcpy( &_NIB.nwkDevAddress, pgpdid, sizeof(uint16) );
//  461       gpd_ID.AppID = GP_OPT_APP_ID_GPD;
//  462       osal_memcpy( &gpd_ID.GPDId.SrcID, pgpdid, sizeof( uint32 ) );
//  463     }
//  464     else if( appId == GP_OPT_APP_ID_IEEE )
//  465     {
//  466       pgpdid = pCmdPayloadMsgCurr->pMsg + Z_EXTADDR_LEN;
//  467       
//  468       osal_revmemcpy( &_NIB.nwkDevAddress,(pCmdPayloadMsgCurr->pMsg + Z_EXTADDR_LEN), sizeof(uint16) );
//  469       
//  470       gpd_ID.AppID = GP_OPT_APP_ID_IEEE;
//  471 
//  472       pgpdid = pCmdPayloadMsgCurr->pMsg + sizeof( uint16 );
//  473       osal_memcpy( gpd_ID.GPDId.GPDExtAddr, pgpdid, Z_EXTADDR_LEN );
//  474     }
//  475     
//  476     gp_getProxyTableByGpId(&gpd_ID, entry, NULL);
//  477 
//  478     if ( PROXY_TBL_GET_ASSIGNED_ALIAS( entry[PROXY_TBL_ENTRY_OPT + 1] ) )
//  479     {
//  480       _NIB.nwkDevAddress = 0;
//  481       osal_memcpy( (uint8*)&_NIB.nwkDevAddress, &entry[PROXY_TBL_ENTRY_ALIAS], sizeof(uint16));
//  482     }
//  483     
//  484     // save aps sequence number
//  485     apsSecNum = APS_Counter;
//  486     APS_Counter = pCmdPayloadMsgCurr->secNum;
//  487     
//  488     // Set nwk radius for zcl frame
//  489     if ( entry[PROXY_TBL_ENTRY_GRP_RAD] != 0xFF)
//  490     {
//  491       zcl_radius =  entry[PROXY_TBL_ENTRY_GRP_RAD];
//  492     }
//  493     
//  494     zcl_SendCommand( GREEN_POWER_INTERNAL_ENDPOINT, &gpNotification->addr, ZCL_CLUSTER_ID_GREEN_POWER,
//  495                           COMMAND_GP_NOTIFICATION, TRUE, ZCL_FRAME_CLIENT_SERVER_DIR,
//  496                           TRUE, 0,  bdb_getZCLFrameCounter(), pCmdPayloadMsgCurr->lenght, pCmdPayloadMsgCurr->pMsg );
//  497     
//  498     // restore nwk radius
//  499     zcl_radius = AF_DEFAULT_RADIUS;
//  500     
//  501     // restore aps sequence number
//  502     APS_Counter = apsSecNum;
//  503      
//  504     // Restore the NIB nwk sequence number
//  505     _NIB.SequenceNum = nwkSeqNum;
//  506     
//  507     // Restore the NIB nwk address
//  508     _NIB.nwkDevAddress = nwkAddr;
//  509     
//  510     gp_NotificationMsgClean( gp_GetPHeadNotification ( ) );
//  511     
//  512     if ( gp_GetHeadNotificationMsg ( ) != NULL )
//  513     {
//  514       osal_start_timerEx( zcl_TaskID, ZCL_DATABUF_SEND, 50 );
//  515     }
//  516   }
//  517 #endif
//  518 
//  519   // Discard unknown events
//  520   return 0;
??zcl_event_loop_0:
        MOV       R2,#0x0
        MOV       R3,#0x0
??zcl_event_loop_5:
        MOV       R7,#0x4
        LJMP      ?BANKED_LEAVE_XDATA
//  521 }
          CFI EndBlock cfiBlock1
//  522 #endif
//  523 
//  524 #if !defined ( ZCL_STANDALONE )
//  525 /*********************************************************************
//  526  * @fn      zcl_registerForMsg
//  527  *
//  528  * @brief   The ZCL is setup to send all incoming Foundation Command/Response
//  529  *          messages that aren't processed to one task (if a task is
//  530  *          registered).
//  531  *
//  532  * @param   taskId - task Id of the Application where commands will be sent to
//  533  *
//  534  * @return  TRUE if task registeration successful, FALSE otherwise
//  535  *********************************************************************/

        RSEG BANKED_CODE:HUGECODE:NOROOT(0)
//  536 uint8 zcl_registerForMsg( uint8 taskId )
zcl_registerForMsg:
          CFI Block cfiBlock2 Using cfiCommon0
          CFI Function zcl_registerForMsg
        CODE
//  537 {
        FUNCALL zcl_registerForMsg, zcl_addExternalFoundationHandler
        LOCFRAME ISTACK, 0, STACK
        LOCFRAME PSTACK, 0, STACK
        LOCFRAME XSTACK, 9, STACK
        LOCFRAME IOVERLAY, 0, STATIC
        LOCFRAME DOVERLAY, 0, STATIC
        ARGFRAME ISTACK, 0, STACK
        ARGFRAME PSTACK, 0, STACK
        ARGFRAME XSTACK, 9, STACK
        ARGFRAME IOVERLAY, 0, STATIC
        ARGFRAME DOVERLAY, 0, STATIC
        MOV       A,#-0x9
        LCALL     ?BANKED_ENTER_XDATA
          CFI DPH0 load(1, XDATA, add(CFA_XSP16, literal(-1)))
          CFI DPL0 load(1, XDATA, add(CFA_XSP16, literal(-2)))
          CFI ?BRET_EXT load(1, XDATA, add(CFA_XSP16, literal(-3)))
          CFI ?RET_HIGH load(1, XDATA, add(CFA_XSP16, literal(-4)))
          CFI ?RET_LOW load(1, XDATA, add(CFA_XSP16, literal(-5)))
          CFI R7 load(1, XDATA, add(CFA_XSP16, literal(-6)))
          CFI V0 load(1, XDATA, add(CFA_XSP16, literal(-7)))
          CFI VB load(1, XDATA, add(CFA_XSP16, literal(-8)))
          CFI R6 load(1, XDATA, add(CFA_XSP16, literal(-9)))
          CFI CFA_SP SP+0
          CFI CFA_XSP16 add(XSP16, 9)
        ; Saved register size: 9
        ; Auto size: 0
//  538   return zcl_addExternalFoundationHandler( taskId, AF_BROADCAST_ENDPOINT );
        ; Setup parameters for call to function zcl_addExternalFoundationHandler
        MOV       R2,#-0x1
        LCALL     `??zcl_addExternalFoundationHandler::?relay`; Banked call to: zcl_addExternalFoundationHandler
        MOV       R7,#0x1
        LJMP      ?BANKED_LEAVE_XDATA
//  539 }
          CFI EndBlock cfiBlock2
//  540 
//  541 /*********************************************************************
//  542  * @fn      zcl_registerForMsgExt
//  543  *
//  544  * @brief   This function enables a Task to register to recieve all
//  545  *          incoming Foundation Command/Response messages, for a particular
//  546  *          End Point, that aren't processed by ZCL.
//  547  *
//  548  *          NOTE: Any Task registered for a unique end point will take
//  549  *          priority over any Task registered with the AF_BROADCAST_ENDPOINT
//  550  *          value.  ie. If task A registers for End Point 1, task B registers
//  551  *          for AF_BROADCAST_ENDPOINT,  commands addressed to End Point 1 will be
//  552  *          sent to Task A and NOT Task B.
//  553  *
//  554  * @param   taskId - task Id of the Application where commands will be sent to
//  555  * @param   endPointId - end point Id of interest
//  556  *
//  557  * @return  TRUE if task registeration successful, FALSE otherwise
//  558  *********************************************************************/

        RSEG BANKED_CODE:HUGECODE:NOROOT(0)
//  559 uint8 zcl_registerForMsgExt( uint8 taskId, uint8 endPointId  )
zcl_registerForMsgExt:
          CFI Block cfiBlock3 Using cfiCommon0
          CFI Function zcl_registerForMsgExt
        CODE
//  560 {
        FUNCALL zcl_registerForMsgExt, zcl_addExternalFoundationHandler
        LOCFRAME ISTACK, 0, STACK
        LOCFRAME PSTACK, 0, STACK
        LOCFRAME XSTACK, 9, STACK
        LOCFRAME IOVERLAY, 0, STATIC
        LOCFRAME DOVERLAY, 0, STATIC
        ARGFRAME ISTACK, 0, STACK
        ARGFRAME PSTACK, 0, STACK
        ARGFRAME XSTACK, 9, STACK
        ARGFRAME IOVERLAY, 0, STATIC
        ARGFRAME DOVERLAY, 0, STATIC
        MOV       A,#-0x9
        LCALL     ?BANKED_ENTER_XDATA
          CFI DPH0 load(1, XDATA, add(CFA_XSP16, literal(-1)))
          CFI DPL0 load(1, XDATA, add(CFA_XSP16, literal(-2)))
          CFI ?BRET_EXT load(1, XDATA, add(CFA_XSP16, literal(-3)))
          CFI ?RET_HIGH load(1, XDATA, add(CFA_XSP16, literal(-4)))
          CFI ?RET_LOW load(1, XDATA, add(CFA_XSP16, literal(-5)))
          CFI R7 load(1, XDATA, add(CFA_XSP16, literal(-6)))
          CFI V0 load(1, XDATA, add(CFA_XSP16, literal(-7)))
          CFI VB load(1, XDATA, add(CFA_XSP16, literal(-8)))
          CFI R6 load(1, XDATA, add(CFA_XSP16, literal(-9)))
          CFI CFA_SP SP+0
          CFI CFA_XSP16 add(XSP16, 9)
        ; Saved register size: 9
        ; Auto size: 0
//  561   return ( zcl_addExternalFoundationHandler( taskId, endPointId  ) );
        ; Setup parameters for call to function zcl_addExternalFoundationHandler
        LCALL     `??zcl_addExternalFoundationHandler::?relay`; Banked call to: zcl_addExternalFoundationHandler
        MOV       R7,#0x1
        LJMP      ?BANKED_LEAVE_XDATA
//  562 }
          CFI EndBlock cfiBlock3
//  563 
//  564 /*********************************************************************
//  565  * @fn      zcl_addExternalFoundationHandler
//  566  *
//  567  * @brief   This function adds a record to the internal list of external
//  568  *          handlers of unhandled incoming Foundation Command/Response messages.
//  569  *
//  570  * @param   taskId - task Id of the Application where commands will be sent to
//  571  * @param   endPointId - end point Id of interest
//  572  *
//  573  * @return  TRUE if task registeration successful, FALSE otherwise
//  574  *********************************************************************/

        RSEG BANKED_CODE:HUGECODE:NOROOT(0)
//  575 uint8 zcl_addExternalFoundationHandler( uint8 taskId, uint8 endPointId  )
zcl_addExternalFoundationHandler:
          CFI Block cfiBlock4 Using cfiCommon0
          CFI Function zcl_addExternalFoundationHandler
        CODE
//  576 {
        FUNCALL zcl_addExternalFoundationHandler, osal_mem_alloc
        LOCFRAME ISTACK, 0, STACK
        LOCFRAME PSTACK, 0, STACK
        LOCFRAME XSTACK, 10, STACK
        LOCFRAME IOVERLAY, 0, STATIC
        LOCFRAME DOVERLAY, 0, STATIC
        ARGFRAME ISTACK, 0, STACK
        ARGFRAME PSTACK, 0, STACK
        ARGFRAME XSTACK, 10, STACK
        ARGFRAME IOVERLAY, 0, STATIC
        ARGFRAME DOVERLAY, 0, STATIC
        FUNCALL zcl_addExternalFoundationHandler, osal_mem_free
        LOCFRAME ISTACK, 0, STACK
        LOCFRAME PSTACK, 0, STACK
        LOCFRAME XSTACK, 10, STACK
        LOCFRAME IOVERLAY, 0, STATIC
        LOCFRAME DOVERLAY, 0, STATIC
        ARGFRAME ISTACK, 0, STACK
        ARGFRAME PSTACK, 0, STACK
        ARGFRAME XSTACK, 10, STACK
        ARGFRAME IOVERLAY, 0, STATIC
        ARGFRAME DOVERLAY, 0, STATIC
        REQUIRE ?V0
        REQUIRE ?V1
        MOV       A,#-0xa
        LCALL     ?BANKED_ENTER_XDATA
          CFI DPH0 load(1, XDATA, add(CFA_XSP16, literal(-1)))
          CFI DPL0 load(1, XDATA, add(CFA_XSP16, literal(-2)))
          CFI ?BRET_EXT load(1, XDATA, add(CFA_XSP16, literal(-3)))
          CFI ?RET_HIGH load(1, XDATA, add(CFA_XSP16, literal(-4)))
          CFI ?RET_LOW load(1, XDATA, add(CFA_XSP16, literal(-5)))
          CFI R7 load(1, XDATA, add(CFA_XSP16, literal(-6)))
          CFI V1 load(1, XDATA, add(CFA_XSP16, literal(-7)))
          CFI V0 load(1, XDATA, add(CFA_XSP16, literal(-8)))
          CFI VB load(1, XDATA, add(CFA_XSP16, literal(-9)))
          CFI R6 load(1, XDATA, add(CFA_XSP16, literal(-10)))
          CFI CFA_SP SP+0
          CFI CFA_XSP16 add(XSP16, 10)
        ; Saved register size: 10
        ; Auto size: 0
        MOV       A,R1
        MOV       R6,A
        MOV       A,R2
        MOV       R7,A
//  577   zclExternalFoundationHandlerList *pNewItem;
//  578   zclExternalFoundationHandlerList *pLoop;
//  579   zclExternalFoundationHandlerList *pLoopPrev;
//  580 
//  581   // Fill in the new endpoint registrant list
//  582   pNewItem = zcl_mem_alloc( sizeof( zclExternalFoundationHandlerList ) );
        ; Setup parameters for call to function osal_mem_alloc
        MOV       R2,#0x4
        MOV       R3,#0x0
        LCALL     `??osal_mem_alloc::?relay`; Banked call to: osal_mem_alloc
//  583   if ( pNewItem == NULL )
        MOV       A,R2
        ORL       A,R3
        JZ        ??zcl_addExternalFoundationHandler_0
//  584   {
//  585     return ( false );
//  586   }
//  587 
//  588   pNewItem->zcl_ExternalEndPoint = endPointId;
        MOV       A,R7
        MOV       DPL,R2
        MOV       DPH,R3
        INC       DPTR
        INC       DPTR
        INC       DPTR
        MOVX      @DPTR,A
//  589   pNewItem->zcl_ExternalTaskID = taskId;
        MOV       A,R6
        MOV       DPL,R2
        MOV       DPH,R3
        INC       DPTR
        INC       DPTR
        MOVX      @DPTR,A
//  590   pNewItem->next = NULL;
        MOV       DPL,R2
        MOV       DPH,R3
        CLR       A
        MOVX      @DPTR,A
        INC       DPTR
        MOVX      @DPTR,A
//  591 
//  592   // Add to the list
//  593   if ( externalEndPointHandlerList == NULL )
        MOV       DPTR,#externalEndPointHandlerList
        MOVX      A,@DPTR
        MOV       R0,A
        INC       DPTR
        MOVX      A,@DPTR
        MOV       R1,A
        MOV       A,R0
        ORL       A,R1
        MOV       DPTR,#externalEndPointHandlerList
        JNZ       ??zcl_addExternalFoundationHandler_1
//  594   {
//  595     externalEndPointHandlerList = pNewItem;
        MOV       A,R2
        MOVX      @DPTR,A
        INC       DPTR
        MOV       A,R3
        SJMP      ??zcl_addExternalFoundationHandler_2
//  596   }
//  597   else
//  598   {
//  599     // make sure no one else tried to register for this endpoint
//  600     pLoop = externalEndPointHandlerList;
??zcl_addExternalFoundationHandler_1:
        MOVX      A,@DPTR
        MOV       R0,A
        INC       DPTR
        MOVX      A,@DPTR
        MOV       R1,A
//  601     pLoopPrev = externalEndPointHandlerList;
        MOV       DPTR,#externalEndPointHandlerList
        MOVX      A,@DPTR
        MOV       R4,A
        INC       DPTR
        MOVX      A,@DPTR
        MOV       R5,A
        SJMP      ??zcl_addExternalFoundationHandler_3
//  602 
//  603     while ( pLoop != NULL )
//  604     {
//  605       if ( ( pLoop->zcl_ExternalEndPoint ) == endPointId )
//  606       {
//  607         zcl_mem_free(pNewItem);
//  608         return ( false );
//  609       }
//  610       pLoopPrev = pLoop;
??zcl_addExternalFoundationHandler_4:
        MOV       A,R0
        MOV       R4,A
        MOV       A,R1
        MOV       R5,A
//  611       pLoop = pLoop->next;
        MOV       DPL,R0
        MOV       DPH,R1
        MOVX      A,@DPTR
        MOV       R0,A
        INC       DPTR
        MOVX      A,@DPTR
        MOV       R1,A
??zcl_addExternalFoundationHandler_3:
        MOV       A,R0
        ORL       A,R1
        JZ        ??zcl_addExternalFoundationHandler_5
        MOV       DPL,R0
        MOV       DPH,R1
        INC       DPTR
        INC       DPTR
        INC       DPTR
        MOVX      A,@DPTR
        XRL       A,R7
        JNZ       ??zcl_addExternalFoundationHandler_4
        ; Setup parameters for call to function osal_mem_free
        LCALL     `??osal_mem_free::?relay`; Banked call to: osal_mem_free
??zcl_addExternalFoundationHandler_0:
        MOV       R1,#0x0
        SJMP      ??zcl_addExternalFoundationHandler_6
//  612     }
//  613 
//  614     if ( endPointId == AF_BROADCAST_ENDPOINT )
??zcl_addExternalFoundationHandler_5:
        MOV       A,#-0x1
        XRL       A,R7
        JNZ       ??zcl_addExternalFoundationHandler_7
//  615     {
//  616       // put new registration at the end of the list
//  617       pLoopPrev->next = pNewItem;
        MOV       DPL,R4
        MOV       DPH,R5
        MOV       A,R2
        MOVX      @DPTR,A
        INC       DPTR
        MOV       A,R3
        MOVX      @DPTR,A
//  618       pNewItem->next = NULL;
        MOV       DPL,R2
        MOV       DPH,R3
        CLR       A
        MOVX      @DPTR,A
        INC       DPTR
        SJMP      ??zcl_addExternalFoundationHandler_2
//  619     }
//  620     else
//  621     {
//  622       // put new registration at the front of the list
//  623       zclExternalFoundationHandlerList *temp = externalEndPointHandlerList;
??zcl_addExternalFoundationHandler_7:
        MOV       DPTR,#externalEndPointHandlerList
        MOVX      A,@DPTR
        MOV       R0,A
        INC       DPTR
        MOVX      A,@DPTR
        MOV       R1,A
//  624       externalEndPointHandlerList = pNewItem;
        MOV       DPTR,#externalEndPointHandlerList
        MOV       A,R2
        MOVX      @DPTR,A
        INC       DPTR
        MOV       A,R3
        MOVX      @DPTR,A
//  625       pNewItem->next = temp;
        MOV       DPL,R2
        MOV       DPH,R3
        MOV       A,R0
        MOVX      @DPTR,A
        INC       DPTR
        MOV       A,R1
??zcl_addExternalFoundationHandler_2:
        MOVX      @DPTR,A
//  626     }
//  627   }
//  628 
//  629   return ( true );
        MOV       R1,#0x1
??zcl_addExternalFoundationHandler_6:
        MOV       R7,#0x2
        LJMP      ?BANKED_LEAVE_XDATA
//  630 
//  631 }
          CFI EndBlock cfiBlock4
//  632 
//  633 /*********************************************************************
//  634  * @fn      zcl_getExternalFoundationHandler
//  635  *
//  636  * @brief   This function retrieves the Task ID of the task registered
//  637  *          to received unhandled incoming Foundation Command/Response messages
//  638  *          for a particular End Point ID.
//  639  *
//  640  * @param   pInMsg - recevied ZCL command
//  641  *
//  642  * @return  TASK ID of registered task.  If no task is reigistered, it returns
//  643  *          TASK_NO_TASK.
//  644  *********************************************************************/

        RSEG BANKED_CODE:HUGECODE:NOROOT(0)
//  645 static uint8 zcl_getExternalFoundationHandler( afIncomingMSGPacket_t *pInMsg )
zcl_getExternalFoundationHandler:
          CFI Block cfiBlock5 Using cfiCommon0
          CFI Function zcl_getExternalFoundationHandler
        CODE
//  646 {
        PUSH      DPL
          CFI DPL0 Frame(CFA_SP, 4)
          CFI CFA_SP SP+-4
        PUSH      DPH
          CFI DPH0 Frame(CFA_SP, 5)
          CFI CFA_SP SP+-5
        ; Saved register size: 2
        ; Auto size: 0
//  647   zclExternalFoundationHandlerList *pLoop;
//  648   uint8 addressedEndPointId = pInMsg->endPoint;
        MOV       A,R2
        ADD       A,#0x14
        MOV       DPL,A
        CLR       A
        ADDC      A,R3
        MOV       DPH,A
        MOVX      A,@DPTR
        MOV       R2,A
//  649 
//  650   // make sure no one else tried to register for this endpoint
//  651   pLoop = externalEndPointHandlerList;
        MOV       DPTR,#externalEndPointHandlerList
        SJMP      ??zcl_getExternalFoundationHandler_0
//  652 
//  653   while ( pLoop != NULL )
//  654   {
//  655     if ( ( ( pLoop->zcl_ExternalEndPoint ) == addressedEndPointId ) ||
//  656          ( ( pLoop->zcl_ExternalEndPoint ) == AF_BROADCAST_ENDPOINT ) )
//  657     {
//  658       return ( pLoop->zcl_ExternalTaskID );
//  659     }
//  660     pLoop = pLoop->next;
??zcl_getExternalFoundationHandler_1:
        MOV       DPL,R0
        MOV       DPH,R1
??zcl_getExternalFoundationHandler_0:
        MOVX      A,@DPTR
        MOV       R0,A
        INC       DPTR
        MOVX      A,@DPTR
        MOV       R1,A
        MOV       A,R0
        ORL       A,R1
        JZ        ??zcl_getExternalFoundationHandler_2
        MOV       DPL,R0
        MOV       DPH,R1
        INC       DPTR
        INC       DPTR
        INC       DPTR
        MOVX      A,@DPTR
        MOV       R3,A
        MOV       A,R2
        XRL       A,R3
        JZ        ??zcl_getExternalFoundationHandler_3
        MOV       A,#-0x1
        XRL       A,R3
        JNZ       ??zcl_getExternalFoundationHandler_1
??zcl_getExternalFoundationHandler_3:
        MOV       DPL,R0
        MOV       DPH,R1
        INC       DPTR
        INC       DPTR
        MOVX      A,@DPTR
        MOV       R1,A
        SJMP      ??zcl_getExternalFoundationHandler_4
//  661   }
//  662 
//  663   return ( TASK_NO_TASK );
??zcl_getExternalFoundationHandler_2:
        MOV       R1,#-0x1
??zcl_getExternalFoundationHandler_4:
        POP       DPH
          CFI DPH0 SameValue
          CFI CFA_SP SP+-4
        POP       DPL
          CFI DPL0 SameValue
          CFI CFA_SP SP+-3
        LJMP      ?BRET
//  664 }
          CFI EndBlock cfiBlock5
//  665 #endif
//  666 
//  667 #if !defined ( ZCL_STANDALONE )
//  668 /*********************************************************************
//  669  * @fn      zcl_HandleExternal
//  670  *
//  671  * @brief
//  672  *
//  673  * @param   pInMsg - incoming message to process
//  674  *
//  675  * @return  TRUE
//  676  */

        RSEG BANKED_CODE:HUGECODE:NOROOT(0)
//  677 uint8 zcl_HandleExternal( zclIncoming_t *pInMsg )
zcl_HandleExternal:
          CFI Block cfiBlock6 Using cfiCommon0
          CFI Function zcl_HandleExternal
        CODE
//  678 {
        FUNCALL zcl_HandleExternal, zcl_getExternalFoundationHandler
        LOCFRAME ISTACK, 0, STACK
        LOCFRAME PSTACK, 0, STACK
        LOCFRAME XSTACK, 14, STACK
        LOCFRAME IOVERLAY, 0, STATIC
        LOCFRAME DOVERLAY, 0, STATIC
        ARGFRAME ISTACK, 0, STACK
        ARGFRAME PSTACK, 0, STACK
        ARGFRAME XSTACK, 14, STACK
        ARGFRAME IOVERLAY, 0, STATIC
        ARGFRAME DOVERLAY, 0, STATIC
        FUNCALL zcl_HandleExternal, osal_msg_allocate
        LOCFRAME ISTACK, 0, STACK
        LOCFRAME PSTACK, 0, STACK
        LOCFRAME XSTACK, 14, STACK
        LOCFRAME IOVERLAY, 0, STATIC
        LOCFRAME DOVERLAY, 0, STATIC
        ARGFRAME ISTACK, 0, STACK
        ARGFRAME PSTACK, 0, STACK
        ARGFRAME XSTACK, 14, STACK
        ARGFRAME IOVERLAY, 0, STATIC
        ARGFRAME DOVERLAY, 0, STATIC
        FUNCALL zcl_HandleExternal, bdb_ProcessInConfigReportCmd
        LOCFRAME ISTACK, 0, STACK
        LOCFRAME PSTACK, 0, STACK
        LOCFRAME XSTACK, 14, STACK
        LOCFRAME IOVERLAY, 0, STATIC
        LOCFRAME DOVERLAY, 0, STATIC
        ARGFRAME ISTACK, 0, STACK
        ARGFRAME PSTACK, 0, STACK
        ARGFRAME XSTACK, 14, STACK
        ARGFRAME IOVERLAY, 0, STATIC
        ARGFRAME DOVERLAY, 0, STATIC
        FUNCALL zcl_HandleExternal, osal_msg_deallocate
        LOCFRAME ISTACK, 0, STACK
        LOCFRAME PSTACK, 0, STACK
        LOCFRAME XSTACK, 14, STACK
        LOCFRAME IOVERLAY, 0, STATIC
        LOCFRAME DOVERLAY, 0, STATIC
        ARGFRAME ISTACK, 0, STACK
        ARGFRAME PSTACK, 0, STACK
        ARGFRAME XSTACK, 14, STACK
        ARGFRAME IOVERLAY, 0, STATIC
        ARGFRAME DOVERLAY, 0, STATIC
        FUNCALL zcl_HandleExternal, bdb_ProcessInReadReportCfgCmd
        LOCFRAME ISTACK, 0, STACK
        LOCFRAME PSTACK, 0, STACK
        LOCFRAME XSTACK, 14, STACK
        LOCFRAME IOVERLAY, 0, STATIC
        LOCFRAME DOVERLAY, 0, STATIC
        ARGFRAME ISTACK, 0, STACK
        ARGFRAME PSTACK, 0, STACK
        ARGFRAME XSTACK, 14, STACK
        ARGFRAME IOVERLAY, 0, STATIC
        ARGFRAME DOVERLAY, 0, STATIC
        FUNCALL zcl_HandleExternal, osal_msg_deallocate
        LOCFRAME ISTACK, 0, STACK
        LOCFRAME PSTACK, 0, STACK
        LOCFRAME XSTACK, 14, STACK
        LOCFRAME IOVERLAY, 0, STATIC
        LOCFRAME DOVERLAY, 0, STATIC
        ARGFRAME ISTACK, 0, STACK
        ARGFRAME PSTACK, 0, STACK
        ARGFRAME XSTACK, 14, STACK
        ARGFRAME IOVERLAY, 0, STATIC
        ARGFRAME DOVERLAY, 0, STATIC
        FUNCALL zcl_HandleExternal, osal_msg_send
        LOCFRAME ISTACK, 0, STACK
        LOCFRAME PSTACK, 0, STACK
        LOCFRAME XSTACK, 14, STACK
        LOCFRAME IOVERLAY, 0, STATIC
        LOCFRAME DOVERLAY, 0, STATIC
        ARGFRAME ISTACK, 0, STACK
        ARGFRAME PSTACK, 0, STACK
        ARGFRAME XSTACK, 14, STACK
        ARGFRAME IOVERLAY, 0, STATIC
        ARGFRAME DOVERLAY, 0, STATIC
        REQUIRE ?V0
        REQUIRE ?V1
        REQUIRE ?V2
        REQUIRE ?V4
        REQUIRE ?V5
        MOV       A,#-0xe
        LCALL     ?BANKED_ENTER_XDATA
          CFI DPH0 load(1, XDATA, add(CFA_XSP16, literal(-1)))
          CFI DPL0 load(1, XDATA, add(CFA_XSP16, literal(-2)))
          CFI ?BRET_EXT load(1, XDATA, add(CFA_XSP16, literal(-3)))
          CFI ?RET_HIGH load(1, XDATA, add(CFA_XSP16, literal(-4)))
          CFI ?RET_LOW load(1, XDATA, add(CFA_XSP16, literal(-5)))
          CFI R7 load(1, XDATA, add(CFA_XSP16, literal(-6)))
          CFI V5 load(1, XDATA, add(CFA_XSP16, literal(-7)))
          CFI V4 load(1, XDATA, add(CFA_XSP16, literal(-8)))
          CFI V3 load(1, XDATA, add(CFA_XSP16, literal(-9)))
          CFI V2 load(1, XDATA, add(CFA_XSP16, literal(-10)))
          CFI V1 load(1, XDATA, add(CFA_XSP16, literal(-11)))
          CFI V0 load(1, XDATA, add(CFA_XSP16, literal(-12)))
          CFI VB load(1, XDATA, add(CFA_XSP16, literal(-13)))
          CFI R6 load(1, XDATA, add(CFA_XSP16, literal(-14)))
          CFI CFA_SP SP+0
          CFI CFA_XSP16 add(XSP16, 14)
        ; Saved register size: 14
        ; Auto size: 0
        MOV       ?V0,R2
        MOV       ?V1,R3
//  679   zclIncomingMsg_t *pCmd;
//  680   uint8 taskID;
//  681 
//  682   taskID = zcl_getExternalFoundationHandler( pInMsg->msg );
        ; Setup parameters for call to function zcl_getExternalFoundationHandler
        MOV       DPL,R2
        MOV       DPH,R3
        MOVX      A,@DPTR
        MOV       R2,A
        INC       DPTR
        MOVX      A,@DPTR
        MOV       R3,A
        LCALL     `??zcl_getExternalFoundationHandler::?relay`; Banked call to: zcl_getExternalFoundationHandler
        MOV       A,R1
        MOV       ?V2,A
//  683 
//  684   if ( taskID == TASK_NO_TASK )
        MOV       A,#-0x1
        XRL       A,R1
        JNZ       $+5
        LJMP      ??zcl_HandleExternal_0 & 0xFFFF
//  685   {
//  686     return ( TRUE );
//  687   }
//  688 
//  689   pCmd = (zclIncomingMsg_t *)osal_msg_allocate( sizeof ( zclIncomingMsg_t ) );
        ; Setup parameters for call to function osal_msg_allocate
        MOV       R2,#0x19
        MOV       R3,#0x0
        LCALL     `??osal_msg_allocate::?relay`; Banked call to: osal_msg_allocate
        MOV       ?V4,R2
        MOV       ?V5,R3
        MOV       R6,?V4
        MOV       R7,?V5
//  690   if ( pCmd != NULL )
        MOV       A,R2
        ORL       A,R7
        JNZ       $+5
        LJMP      ??zcl_HandleExternal_0 & 0xFFFF
//  691   {
//  692     // fill in the message
//  693     pCmd->hdr.event = ZCL_INCOMING_MSG;
        MOV       DPL,R2
        MOV       DPH,R3
        MOV       A,#0x34
        MOVX      @DPTR,A
//  694     pCmd->zclHdr    = pInMsg->hdr;
        MOV       DPL,?V0
        MOV       DPH,?V1
        INC       DPTR
        INC       DPTR
        MOV       A,R2
        ADD       A,#0x2
        MOV       R4,A
        CLR       A
        ADDC      A,R7
        MOV       R5,A
        MOV       A,#0x6
        LCALL     ?MOVE_LONG8_XDATA_XDATA
//  695     pCmd->clusterId = pInMsg->msg->clusterId;
        MOV       DPL,?V0
        MOV       DPH,?V1
        MOVX      A,@DPTR
        MOV       R0,A
        INC       DPTR
        MOVX      A,@DPTR
        MOV       DPH,A
        MOV       DPL,R0
        INC       DPTR
        INC       DPTR
        INC       DPTR
        INC       DPTR
        MOVX      A,@DPTR
        MOV       R0,A
        INC       DPTR
        MOVX      A,@DPTR
        MOV       R1,A
        MOV       DPL,R2
        MOV       DPH,R3
        INC       DPTR
        INC       DPTR
        INC       DPTR
        INC       DPTR
        INC       DPTR
        INC       DPTR
        INC       DPTR
        INC       DPTR
        MOV       A,R0
        MOVX      @DPTR,A
        INC       DPTR
        MOV       A,R1
        MOVX      @DPTR,A
//  696     pCmd->srcAddr   = pInMsg->msg->srcAddr;
        MOV       DPL,?V0
        MOV       DPH,?V1
        MOVX      A,@DPTR
        MOV       R0,A
        INC       DPTR
        MOVX      A,@DPTR
        XCH       A,R0
        ADD       A,#0x6
        MOV       DPL,A
        CLR       A
        ADDC      A,R0
        MOV       DPH,A
        MOV       A,R2
        ADD       A,#0xa
        MOV       R4,A
        CLR       A
        ADDC      A,R7
        MOV       R5,A
        MOV       A,#0xc
        LCALL     ?MOVE_LONG8_XDATA_XDATA
//  697     pCmd->endPoint  = pInMsg->msg->endPoint;
        MOV       DPL,?V0
        MOV       DPH,?V1
        MOVX      A,@DPTR
        MOV       R0,A
        INC       DPTR
        MOVX      A,@DPTR
        XCH       A,R0
        ADD       A,#0x14
        MOV       DPL,A
        CLR       A
        ADDC      A,R0
        MOV       DPH,A
        MOVX      A,@DPTR
        PUSH      A
          CFI CFA_SP SP+-1
        MOV       A,R2
        ADD       A,#0x16
        MOV       DPL,A
        CLR       A
        ADDC      A,R7
        MOV       DPH,A
        POP       A
          CFI CFA_SP SP+0
        MOVX      @DPTR,A
//  698     pCmd->attrCmd   = pInMsg->attrCmd;
        MOV       A,?V0
        ADD       A,#0xc
        MOV       R0,A
        CLR       A
        ADDC      A,?V1
        MOV       R1,A
        MOV       DPL,R0
        MOV       DPH,A
        MOVX      A,@DPTR
        MOV       R2,A
        INC       DPTR
        MOVX      A,@DPTR
        MOV       R3,A
        MOV       A,R6
        ADD       A,#0x17
        MOV       DPL,A
        CLR       A
        ADDC      A,R7
        MOV       DPH,A
        MOV       A,R2
        MOVX      @DPTR,A
        INC       DPTR
        MOV       A,R3
        MOVX      @DPTR,A
//  699     
//  700 #ifdef BDB_REPORTING
//  701     if(pCmd->zclHdr.commandID == ZCL_CMD_CONFIG_REPORT)
        MOV       DPL,R6
        MOV       DPH,R7
        INC       DPTR
        INC       DPTR
        INC       DPTR
        INC       DPTR
        INC       DPTR
        INC       DPTR
        INC       DPTR
        MOVX      A,@DPTR
        MOV       R2,A
        MOV       A,#0x6
        XRL       A,R2
        JNZ       ??zcl_HandleExternal_1
//  702     {
//  703       bdb_ProcessInConfigReportCmd(pCmd);
        ; Setup parameters for call to function bdb_ProcessInConfigReportCmd
        MOV       A,R6
        MOV       R2,A
        MOV       A,R7
        MOV       R3,A
        LCALL     `??bdb_ProcessInConfigReportCmd::?relay`; Banked call to: bdb_ProcessInConfigReportCmd
//  704       osal_msg_deallocate((uint8*)pCmd);
        ; Setup parameters for call to function osal_msg_deallocate
        SJMP      ??zcl_HandleExternal_2
//  705       return TRUE;          
//  706     }
//  707     if(pCmd->zclHdr.commandID == ZCL_CMD_READ_REPORT_CFG)
??zcl_HandleExternal_1:
        MOV       A,#0x8
        XRL       A,R2
        JNZ       ??zcl_HandleExternal_3
//  708     {
//  709       bdb_ProcessInReadReportCfgCmd(pCmd);
        ; Setup parameters for call to function bdb_ProcessInReadReportCfgCmd
        MOV       A,R6
        MOV       R2,A
        MOV       A,R7
        MOV       R3,A
        LCALL     `??bdb_ProcessInReadReportCfgCmd::?relay`; Banked call to: bdb_ProcessInReadReportCfgCmd
//  710       osal_msg_deallocate((uint8*)pCmd);
        ; Setup parameters for call to function osal_msg_deallocate
??zcl_HandleExternal_2:
        MOV       A,R6
        MOV       R2,A
        MOV       A,R7
        MOV       R3,A
        LCALL     `??osal_msg_deallocate::?relay`; Banked call to: osal_msg_deallocate
//  711       return TRUE;
        SJMP      ??zcl_HandleExternal_0
//  712     }
//  713 #endif
//  714     // Application will free the attrCmd buffer
//  715     pInMsg->attrCmd = NULL;
??zcl_HandleExternal_3:
        MOV       DPL,R0
        MOV       DPH,R1
        CLR       A
        MOVX      @DPTR,A
        INC       DPTR
        MOVX      @DPTR,A
//  716 
//  717     /* send message through task message */
//  718     osal_msg_send( taskID, (uint8 *)pCmd );
        ; Setup parameters for call to function osal_msg_send
        MOV       A,R6
        MOV       R2,A
        MOV       A,R7
        MOV       R3,A
        MOV       R1,?V2
        LCALL     `??osal_msg_send::?relay`; Banked call to: osal_msg_send
//  719   }
//  720 
//  721   return ( TRUE );
??zcl_HandleExternal_0:
        MOV       R1,#0x1
        MOV       R7,#0x6
        LJMP      ?BANKED_LEAVE_XDATA
//  722 }
          CFI EndBlock cfiBlock6
//  723 #endif
//  724 
//  725 
//  726 /*********************************************************************
//  727  * @fn          zcl_getRawAFMsg
//  728  *
//  729  * @brief       Call to get original unprocessed AF message
//  730  *              (not parsed by ZCL).
//  731  *
//  732  *   NOTE:  This function can only be called during a ZCL callback function
//  733  *          and the calling function must NOT change any data in the message.
//  734  *
//  735  * @param       none
//  736  *
//  737  * @return      pointer to original AF message, NULL if not processing
//  738  *              AF message.
//  739  */

        RSEG BANKED_CODE:HUGECODE:NOROOT(0)
//  740 afIncomingMSGPacket_t *zcl_getRawAFMsg( void )
zcl_getRawAFMsg:
          CFI Block cfiBlock7 Using cfiCommon0
          CFI Function zcl_getRawAFMsg
        CODE
//  741 {
        PUSH      DPL
          CFI DPL0 Frame(CFA_SP, 4)
          CFI CFA_SP SP+-4
        PUSH      DPH
          CFI DPH0 Frame(CFA_SP, 5)
          CFI CFA_SP SP+-5
        ; Saved register size: 2
        ; Auto size: 0
//  742   return ( rawAFMsg );
        MOV       DPTR,#rawAFMsg
        MOVX      A,@DPTR
        MOV       R2,A
        INC       DPTR
        MOVX      A,@DPTR
        MOV       R3,A
        POP       DPH
          CFI DPH0 SameValue
          CFI CFA_SP SP+-4
        POP       DPL
          CFI DPL0 SameValue
          CFI CFA_SP SP+-3
        LJMP      ?BRET
//  743 }
          CFI EndBlock cfiBlock7
//  744 
//  745 /*********************************************************************
//  746  * @fn          zcl_getParsedTransSeqNum
//  747  *
//  748  * @brief       Call to the get the transaction sequence number from
//  749  *              the incoming message.
//  750  *
//  751  *   NOTE:  This function can only be called during a ZCL callback function
//  752  *          and the calling function must NOT change any data in the message.
//  753  *
//  754  * @param       none
//  755  *
//  756  * @return      transaction sequence number.
//  757  */

        RSEG BANKED_CODE:HUGECODE:NOROOT(0)
//  758 uint8 zcl_getParsedTransSeqNum( void )
zcl_getParsedTransSeqNum:
          CFI Block cfiBlock8 Using cfiCommon0
          CFI Function zcl_getParsedTransSeqNum
        CODE
//  759 {
        PUSH      DPL
          CFI DPL0 Frame(CFA_SP, 4)
          CFI CFA_SP SP+-4
        PUSH      DPH
          CFI DPH0 Frame(CFA_SP, 5)
          CFI CFA_SP SP+-5
        ; Saved register size: 2
        ; Auto size: 0
//  760   return ( savedZCLTransSeqNum );
        MOV       DPTR,#savedZCLTransSeqNum
        MOVX      A,@DPTR
        MOV       R1,A
        POP       DPH
          CFI DPH0 SameValue
          CFI CFA_SP SP+-4
        POP       DPL
          CFI DPL0 SameValue
          CFI CFA_SP SP+-3
        LJMP      ?BRET
//  761 }
          CFI EndBlock cfiBlock8
//  762 
//  763 /*********************************************************************
//  764  * @fn          zcl_registerPlugin
//  765  *
//  766  * @brief       Add a Cluster Library handler
//  767  *
//  768  * @param       startClusterID - starting cluster ID
//  769  * @param       endClusterID - ending cluster ID
//  770  * @param       pfnHdlr - function pointer to incoming message handler
//  771  *
//  772  * @return      ZSuccess if OK
//  773  */

        RSEG BANKED_CODE:HUGECODE:NOROOT(0)
//  774 ZStatus_t zcl_registerPlugin( uint16 startClusterID,
zcl_registerPlugin:
          CFI Block cfiBlock9 Using cfiCommon0
          CFI Function zcl_registerPlugin
        CODE
//  775           uint16 endClusterID, zclInHdlr_t pfnIncomingHdlr )
//  776 {
        FUNCALL zcl_registerPlugin, osal_mem_alloc
        LOCFRAME ISTACK, 0, STACK
        LOCFRAME PSTACK, 0, STACK
        LOCFRAME XSTACK, 12, STACK
        LOCFRAME IOVERLAY, 0, STATIC
        LOCFRAME DOVERLAY, 0, STATIC
        ARGFRAME ISTACK, 0, STACK
        ARGFRAME PSTACK, 0, STACK
        ARGFRAME XSTACK, 12, STACK
        ARGFRAME IOVERLAY, 0, STATIC
        ARGFRAME DOVERLAY, 0, STATIC
        REQUIRE ?V0
        REQUIRE ?V1
        REQUIRE ?V2
        REQUIRE ?V3
        MOV       A,#-0xc
        LCALL     ?BANKED_ENTER_XDATA
          CFI DPH0 load(1, XDATA, add(CFA_XSP16, literal(-1)))
          CFI DPL0 load(1, XDATA, add(CFA_XSP16, literal(-2)))
          CFI ?BRET_EXT load(1, XDATA, add(CFA_XSP16, literal(-3)))
          CFI ?RET_HIGH load(1, XDATA, add(CFA_XSP16, literal(-4)))
          CFI ?RET_LOW load(1, XDATA, add(CFA_XSP16, literal(-5)))
          CFI R7 load(1, XDATA, add(CFA_XSP16, literal(-6)))
          CFI V3 load(1, XDATA, add(CFA_XSP16, literal(-7)))
          CFI V2 load(1, XDATA, add(CFA_XSP16, literal(-8)))
          CFI V1 load(1, XDATA, add(CFA_XSP16, literal(-9)))
          CFI V0 load(1, XDATA, add(CFA_XSP16, literal(-10)))
          CFI VB load(1, XDATA, add(CFA_XSP16, literal(-11)))
          CFI R6 load(1, XDATA, add(CFA_XSP16, literal(-12)))
          CFI CFA_SP SP+0
          CFI CFA_XSP16 add(XSP16, 12)
        ; Saved register size: 12
        ; Auto size: 0
        MOV       ?V0,R2
        MOV       ?V1,R3
        MOV       A,R4
        MOV       R6,A
        MOV       A,R5
        MOV       R7,A
//  777   zclLibPlugin_t *pNewItem;
//  778   zclLibPlugin_t *pLoop;
//  779 
//  780   // Fill in the new profile list
//  781   pNewItem = zcl_mem_alloc( sizeof( zclLibPlugin_t ) );
        ; Setup parameters for call to function osal_mem_alloc
        MOV       R2,#0x8
        MOV       R3,#0x0
        LCALL     `??osal_mem_alloc::?relay`; Banked call to: osal_mem_alloc
        MOV       ?V2,R2
        MOV       ?V3,R3
        MOV       R0,?V2
        MOV       R1,?V3
//  782   if ( pNewItem == NULL )
        MOV       A,R2
        ORL       A,R1
        JNZ       ??zcl_registerPlugin_0
//  783   {
//  784     return (ZMemError);
        MOV       R1,#0x10
        SJMP      ??zcl_registerPlugin_1
//  785   }
//  786 
//  787   // Fill in the plugin record.
//  788   pNewItem->next = (zclLibPlugin_t *)NULL;
??zcl_registerPlugin_0:
        MOV       DPL,R2
        MOV       DPH,R3
        CLR       A
        MOVX      @DPTR,A
        INC       DPTR
        MOVX      @DPTR,A
//  789   pNewItem->startClusterID = startClusterID;
        MOV       DPL,R2
        MOV       DPH,R3
        INC       DPTR
        INC       DPTR
        MOV       A,?V0
        MOVX      @DPTR,A
        INC       DPTR
        MOV       A,?V1
        MOVX      @DPTR,A
//  790   pNewItem->endClusterID = endClusterID;
        MOV       DPL,R2
        MOV       DPH,R3
        INC       DPTR
        INC       DPTR
        INC       DPTR
        INC       DPTR
        MOV       A,R6
        MOVX      @DPTR,A
        INC       DPTR
        MOV       A,R7
        MOVX      @DPTR,A
//  791   pNewItem->pfnIncomingHdlr = pfnIncomingHdlr;
        MOV       A,#0xc
        LCALL     ?XSTACK_DISP0_8
        MOVX      A,@DPTR
        MOV       R2,A
        INC       DPTR
        MOVX      A,@DPTR
        MOV       R3,A
        MOV       DPL,R0
        MOV       DPH,R1
        INC       DPTR
        INC       DPTR
        INC       DPTR
        INC       DPTR
        INC       DPTR
        INC       DPTR
        MOV       A,R2
        MOVX      @DPTR,A
        INC       DPTR
        MOV       A,R3
        MOVX      @DPTR,A
//  792 
//  793   // Find spot in list
//  794   if (  plugins == NULL )
        MOV       DPTR,#plugins
        MOVX      A,@DPTR
        MOV       R2,A
        INC       DPTR
        MOVX      A,@DPTR
        MOV       R3,A
        MOV       A,R2
        ORL       A,R3
        MOV       DPTR,#plugins
        JZ        ??zcl_registerPlugin_2
//  795   {
//  796     plugins = pNewItem;
//  797   }
//  798   else
//  799   {
//  800     // Look for end of list
//  801     pLoop = plugins;
        MOVX      A,@DPTR
        MOV       R4,A
        INC       DPTR
        MOVX      A,@DPTR
        SJMP      ??zcl_registerPlugin_3
//  802     while ( pLoop->next != NULL )
//  803     {
//  804       pLoop = pLoop->next;
??zcl_registerPlugin_4:
        MOV       A,R2
        MOV       R4,A
        MOV       A,R3
??zcl_registerPlugin_3:
        MOV       R5,A
//  805     }
        MOV       DPL,R4
        MOV       DPH,R5
        MOVX      A,@DPTR
        MOV       R2,A
        INC       DPTR
        MOVX      A,@DPTR
        MOV       R3,A
        MOV       A,R2
        ORL       A,R3
        JNZ       ??zcl_registerPlugin_4
//  806 
//  807     // Put new item at end of list
//  808     pLoop->next = pNewItem;
        MOV       DPL,R4
        MOV       DPH,R5
??zcl_registerPlugin_2:
        MOV       A,R0
        MOVX      @DPTR,A
        INC       DPTR
        MOV       A,R1
        MOVX      @DPTR,A
//  809   }
//  810 
//  811   return ( ZSuccess );
        MOV       R1,#0x0
??zcl_registerPlugin_1:
        MOV       R7,#0x4
        LJMP      ?BANKED_LEAVE_XDATA
//  812 }
          CFI EndBlock cfiBlock9
//  813 
//  814 #ifdef ZCL_DISCOVER
//  815 /*********************************************************************
//  816  * @fn          zcl_registerCmdList
//  817  *
//  818  * @brief       Register a Command List with ZCL Foundation
//  819  *
//  820  * @param       endpoint - endpoint the attribute list belongs to
//  821  * @param       newCmdList - array of command records
//  822  *
//  823  * @return      ZSuccess if OK
//  824  */

        RSEG BANKED_CODE:HUGECODE:NOROOT(0)
//  825 ZStatus_t zcl_registerCmdList( uint8 endpoint, CONST uint8 cmdListSize, CONST zclCommandRec_t newCmdList[] )
zcl_registerCmdList:
          CFI Block cfiBlock10 Using cfiCommon0
          CFI Function zcl_registerCmdList
        CODE
//  826 {
        FUNCALL zcl_registerCmdList, osal_mem_alloc
        LOCFRAME ISTACK, 0, STACK
        LOCFRAME PSTACK, 0, STACK
        LOCFRAME XSTACK, 12, STACK
        LOCFRAME IOVERLAY, 0, STATIC
        LOCFRAME DOVERLAY, 0, STATIC
        ARGFRAME ISTACK, 0, STACK
        ARGFRAME PSTACK, 0, STACK
        ARGFRAME XSTACK, 12, STACK
        ARGFRAME IOVERLAY, 0, STATIC
        ARGFRAME DOVERLAY, 0, STATIC
        REQUIRE ?V0
        REQUIRE ?V1
        REQUIRE ?V2
        REQUIRE ?V3
        MOV       A,#-0xc
        LCALL     ?BANKED_ENTER_XDATA
          CFI DPH0 load(1, XDATA, add(CFA_XSP16, literal(-1)))
          CFI DPL0 load(1, XDATA, add(CFA_XSP16, literal(-2)))
          CFI ?BRET_EXT load(1, XDATA, add(CFA_XSP16, literal(-3)))
          CFI ?RET_HIGH load(1, XDATA, add(CFA_XSP16, literal(-4)))
          CFI ?RET_LOW load(1, XDATA, add(CFA_XSP16, literal(-5)))
          CFI R7 load(1, XDATA, add(CFA_XSP16, literal(-6)))
          CFI V3 load(1, XDATA, add(CFA_XSP16, literal(-7)))
          CFI V2 load(1, XDATA, add(CFA_XSP16, literal(-8)))
          CFI V1 load(1, XDATA, add(CFA_XSP16, literal(-9)))
          CFI V0 load(1, XDATA, add(CFA_XSP16, literal(-10)))
          CFI VB load(1, XDATA, add(CFA_XSP16, literal(-11)))
          CFI R6 load(1, XDATA, add(CFA_XSP16, literal(-12)))
          CFI CFA_SP SP+0
          CFI CFA_XSP16 add(XSP16, 12)
        ; Saved register size: 12
        ; Auto size: 0
        MOV       ?V0,R1
        MOV       ?V1,R2
        MOV       A,R4
        MOV       R6,A
        MOV       A,R5
        MOV       R7,A
//  827   zclCmdRecsList_t *pNewItem;
//  828   zclCmdRecsList_t *pLoop;
//  829 
//  830   // Fill in the new profile list
//  831   pNewItem = zcl_mem_alloc( sizeof( zclCmdRecsList_t ) );
        ; Setup parameters for call to function osal_mem_alloc
        MOV       R2,#0x6
        MOV       R3,#0x0
        LCALL     `??osal_mem_alloc::?relay`; Banked call to: osal_mem_alloc
        MOV       ?V2,R2
        MOV       ?V3,R3
        MOV       R0,?V2
        MOV       R1,?V3
//  832   if ( pNewItem == NULL )
        MOV       A,R2
        ORL       A,R1
        JNZ       ??zcl_registerCmdList_0
//  833   {
//  834     return (ZMemError);
        MOV       R1,#0x10
        SJMP      ??zcl_registerCmdList_1
//  835   }
//  836 
//  837   pNewItem->pNext = (zclCmdRecsList_t *)NULL;
??zcl_registerCmdList_0:
        MOV       DPL,R2
        MOV       DPH,R3
        CLR       A
        MOVX      @DPTR,A
        INC       DPTR
        MOVX      @DPTR,A
//  838   pNewItem->endpoint = endpoint;
        MOV       DPL,R2
        MOV       DPH,R3
        INC       DPTR
        INC       DPTR
        MOV       A,?V0
        MOVX      @DPTR,A
//  839   pNewItem->numCommands = cmdListSize;
        MOV       DPL,R2
        MOV       DPH,R3
        INC       DPTR
        INC       DPTR
        INC       DPTR
        MOV       A,?V1
        MOVX      @DPTR,A
//  840   pNewItem->pCmdRecs = newCmdList;
        MOV       DPL,R2
        MOV       DPH,R3
        INC       DPTR
        INC       DPTR
        INC       DPTR
        INC       DPTR
        MOV       A,R6
        MOVX      @DPTR,A
        INC       DPTR
        MOV       A,R7
        MOVX      @DPTR,A
//  841 
//  842   // Find spot in list
//  843   if ( gpCmdList == NULL )
        MOV       DPTR,#gpCmdList
        MOVX      A,@DPTR
        MOV       R2,A
        INC       DPTR
        MOVX      A,@DPTR
        MOV       R3,A
        MOV       A,R2
        ORL       A,R3
        MOV       DPTR,#gpCmdList
        JZ        ??zcl_registerCmdList_2
//  844   {
//  845     gpCmdList = pNewItem;
//  846   }
//  847   else
//  848   {
//  849     // Look for end of list
//  850     pLoop = gpCmdList;
        MOVX      A,@DPTR
        MOV       R4,A
        INC       DPTR
        MOVX      A,@DPTR
        SJMP      ??zcl_registerCmdList_3
//  851     while ( pLoop->pNext != NULL )
//  852     {
//  853       pLoop = pLoop->pNext;
??zcl_registerCmdList_4:
        MOV       A,R2
        MOV       R4,A
        MOV       A,R3
??zcl_registerCmdList_3:
        MOV       R5,A
//  854     }
        MOV       DPL,R4
        MOV       DPH,R5
        MOVX      A,@DPTR
        MOV       R2,A
        INC       DPTR
        MOVX      A,@DPTR
        MOV       R3,A
        MOV       A,R2
        ORL       A,R3
        JNZ       ??zcl_registerCmdList_4
//  855 
//  856     // Put new item at end of list
//  857     pLoop->pNext = pNewItem;
        MOV       DPL,R4
        MOV       DPH,R5
??zcl_registerCmdList_2:
        MOV       A,R0
        MOVX      @DPTR,A
        INC       DPTR
        MOV       A,R1
        MOVX      @DPTR,A
//  858   }
//  859 
//  860   return ( ZSuccess );
        MOV       R1,#0x0
??zcl_registerCmdList_1:
        MOV       R7,#0x4
        LJMP      ?BANKED_LEAVE_XDATA
//  861 }
          CFI EndBlock cfiBlock10
//  862 #endif  // ZCL_DISCOVER
//  863 
//  864 /*********************************************************************
//  865  * @fn          zcl_registerAttrList
//  866  *
//  867  * @brief       Register an Attribute List with ZCL Foundation
//  868  *
//  869  * @param       endpoint - endpoint the attribute list belongs to
//  870  * @param       numAttr - number of attributes in list
//  871  * @param       newAttrList - array of Attribute records.
//  872  *                            NOTE: THE ATTRIBUTE IDs (FOR A CLUSTER) MUST BE IN
//  873  *                            ASCENDING ORDER. OTHERWISE, THE DISCOVERY RESPONSE
//  874  *                            COMMAND WILL NOT HAVE THE RIGHT ATTRIBUTE INFO
//  875  *
//  876  * @return      ZSuccess if OK
//  877  */

        RSEG BANKED_CODE:HUGECODE:NOROOT(0)
//  878 ZStatus_t zcl_registerAttrList( uint8 endpoint, uint8 numAttr, CONST zclAttrRec_t newAttrList[] )
zcl_registerAttrList:
          CFI Block cfiBlock11 Using cfiCommon0
          CFI Function zcl_registerAttrList
        CODE
//  879 {
        FUNCALL zcl_registerAttrList, osal_mem_alloc
        LOCFRAME ISTACK, 0, STACK
        LOCFRAME PSTACK, 0, STACK
        LOCFRAME XSTACK, 12, STACK
        LOCFRAME IOVERLAY, 0, STATIC
        LOCFRAME DOVERLAY, 0, STATIC
        ARGFRAME ISTACK, 0, STACK
        ARGFRAME PSTACK, 0, STACK
        ARGFRAME XSTACK, 12, STACK
        ARGFRAME IOVERLAY, 0, STATIC
        ARGFRAME DOVERLAY, 0, STATIC
        REQUIRE ?V0
        REQUIRE ?V1
        REQUIRE ?V2
        REQUIRE ?V3
        MOV       A,#-0xc
        LCALL     ?BANKED_ENTER_XDATA
          CFI DPH0 load(1, XDATA, add(CFA_XSP16, literal(-1)))
          CFI DPL0 load(1, XDATA, add(CFA_XSP16, literal(-2)))
          CFI ?BRET_EXT load(1, XDATA, add(CFA_XSP16, literal(-3)))
          CFI ?RET_HIGH load(1, XDATA, add(CFA_XSP16, literal(-4)))
          CFI ?RET_LOW load(1, XDATA, add(CFA_XSP16, literal(-5)))
          CFI R7 load(1, XDATA, add(CFA_XSP16, literal(-6)))
          CFI V3 load(1, XDATA, add(CFA_XSP16, literal(-7)))
          CFI V2 load(1, XDATA, add(CFA_XSP16, literal(-8)))
          CFI V1 load(1, XDATA, add(CFA_XSP16, literal(-9)))
          CFI V0 load(1, XDATA, add(CFA_XSP16, literal(-10)))
          CFI VB load(1, XDATA, add(CFA_XSP16, literal(-11)))
          CFI R6 load(1, XDATA, add(CFA_XSP16, literal(-12)))
          CFI CFA_SP SP+0
          CFI CFA_XSP16 add(XSP16, 12)
        ; Saved register size: 12
        ; Auto size: 0
        MOV       ?V0,R1
        MOV       ?V1,R2
        MOV       A,R4
        MOV       R6,A
        MOV       A,R5
        MOV       R7,A
//  880   zclAttrRecsList *pNewItem;
//  881   zclAttrRecsList *pLoop;
//  882 
//  883   // Fill in the new profile list
//  884   pNewItem = zcl_mem_alloc( sizeof( zclAttrRecsList ) );
        ; Setup parameters for call to function osal_mem_alloc
        MOV       R2,#0xa
        MOV       R3,#0x0
        LCALL     `??osal_mem_alloc::?relay`; Banked call to: osal_mem_alloc
        MOV       ?V2,R2
        MOV       ?V3,R3
        MOV       R0,?V2
        MOV       R1,?V3
//  885   if ( pNewItem == NULL )
        MOV       A,R2
        ORL       A,R1
        JNZ       ??zcl_registerAttrList_0
//  886   {
//  887     return (ZMemError);
        MOV       R1,#0x10
        SJMP      ??zcl_registerAttrList_1
//  888   }
//  889 
//  890   pNewItem->next = (zclAttrRecsList *)NULL;
??zcl_registerAttrList_0:
        MOV       DPL,R2
        MOV       DPH,R3
        CLR       A
        MOVX      @DPTR,A
        INC       DPTR
        MOVX      @DPTR,A
//  891   pNewItem->endpoint = endpoint;
        MOV       DPL,R2
        MOV       DPH,R3
        INC       DPTR
        INC       DPTR
        MOV       A,?V0
        MOVX      @DPTR,A
//  892   pNewItem->pfnReadWriteCB = NULL;
        MOV       DPL,R2
        MOV       DPH,R3
        INC       DPTR
        INC       DPTR
        INC       DPTR
        CLR       A
        MOVX      @DPTR,A
        INC       DPTR
        MOVX      @DPTR,A
//  893   pNewItem->numAttributes = numAttr;
        MOV       DPL,R2
        MOV       DPH,R3
        INC       DPTR
        INC       DPTR
        INC       DPTR
        INC       DPTR
        INC       DPTR
        INC       DPTR
        INC       DPTR
        MOV       A,?V1
        MOVX      @DPTR,A
//  894   pNewItem->attrs = newAttrList;
        MOV       DPL,R2
        MOV       DPH,R3
        INC       DPTR
        INC       DPTR
        INC       DPTR
        INC       DPTR
        INC       DPTR
        INC       DPTR
        INC       DPTR
        INC       DPTR
        MOV       A,R6
        MOVX      @DPTR,A
        INC       DPTR
        MOV       A,R7
        MOVX      @DPTR,A
//  895 
//  896   // Find spot in list
//  897   if ( attrList == NULL )
        MOV       DPTR,#attrList
        MOVX      A,@DPTR
        MOV       R2,A
        INC       DPTR
        MOVX      A,@DPTR
        MOV       R3,A
        MOV       A,R2
        ORL       A,R3
        MOV       DPTR,#attrList
        JZ        ??zcl_registerAttrList_2
//  898   {
//  899     attrList = pNewItem;
//  900   }
//  901   else
//  902   {
//  903     // Look for end of list
//  904     pLoop = attrList;
        MOVX      A,@DPTR
        MOV       R4,A
        INC       DPTR
        MOVX      A,@DPTR
        SJMP      ??zcl_registerAttrList_3
//  905     while ( pLoop->next != NULL )
//  906     {
//  907       pLoop = pLoop->next;
??zcl_registerAttrList_4:
        MOV       A,R2
        MOV       R4,A
        MOV       A,R3
??zcl_registerAttrList_3:
        MOV       R5,A
//  908     }
        MOV       DPL,R4
        MOV       DPH,R5
        MOVX      A,@DPTR
        MOV       R2,A
        INC       DPTR
        MOVX      A,@DPTR
        MOV       R3,A
        MOV       A,R2
        ORL       A,R3
        JNZ       ??zcl_registerAttrList_4
//  909 
//  910     // Put new item at end of list
//  911     pLoop->next = pNewItem;
        MOV       DPL,R4
        MOV       DPH,R5
??zcl_registerAttrList_2:
        MOV       A,R0
        MOVX      @DPTR,A
        INC       DPTR
        MOV       A,R1
        MOVX      @DPTR,A
//  912   }
//  913 
//  914   return ( ZSuccess );
        MOV       R1,#0x0
??zcl_registerAttrList_1:
        MOV       R7,#0x4
        LJMP      ?BANKED_LEAVE_XDATA
//  915 }
          CFI EndBlock cfiBlock11
//  916 
//  917 /*********************************************************************
//  918  * @fn          zcl_registerClusterOptionList
//  919  *
//  920  * @brief       Register a Cluster Option List with ZCL Foundation
//  921  *
//  922  * @param       endpoint - endpoint the option list belongs to
//  923  * @param       numOption - number of options in list
//  924  * @param       optionList - array of cluster option records.
//  925  *
//  926  *              NOTE: This API should be called to enable 'Application
//  927  *                    Link Key' security and/or 'APS ACK' for a specific
//  928  *                    Cluster. The 'Application Link Key' is discarded
//  929  *                    if security isn't enabled on the device.
//  930  *                    The default behavior is 'Network Key' when security
//  931  *                    is enabled and no 'APS ACK' for the ZCL messages.
//  932  *
//  933  * @return      ZSuccess if OK
//  934  */

        RSEG BANKED_CODE:HUGECODE:NOROOT(0)
//  935 ZStatus_t zcl_registerClusterOptionList( uint8 endpoint, uint8 numOption, zclOptionRec_t optionList[] )
zcl_registerClusterOptionList:
          CFI Block cfiBlock12 Using cfiCommon0
          CFI Function zcl_registerClusterOptionList
        CODE
//  936 {
        FUNCALL zcl_registerClusterOptionList, osal_mem_alloc
        LOCFRAME ISTACK, 0, STACK
        LOCFRAME PSTACK, 0, STACK
        LOCFRAME XSTACK, 12, STACK
        LOCFRAME IOVERLAY, 0, STATIC
        LOCFRAME DOVERLAY, 0, STATIC
        ARGFRAME ISTACK, 0, STACK
        ARGFRAME PSTACK, 0, STACK
        ARGFRAME XSTACK, 12, STACK
        ARGFRAME IOVERLAY, 0, STATIC
        ARGFRAME DOVERLAY, 0, STATIC
        REQUIRE ?V0
        REQUIRE ?V1
        REQUIRE ?V2
        REQUIRE ?V3
        MOV       A,#-0xc
        LCALL     ?BANKED_ENTER_XDATA
          CFI DPH0 load(1, XDATA, add(CFA_XSP16, literal(-1)))
          CFI DPL0 load(1, XDATA, add(CFA_XSP16, literal(-2)))
          CFI ?BRET_EXT load(1, XDATA, add(CFA_XSP16, literal(-3)))
          CFI ?RET_HIGH load(1, XDATA, add(CFA_XSP16, literal(-4)))
          CFI ?RET_LOW load(1, XDATA, add(CFA_XSP16, literal(-5)))
          CFI R7 load(1, XDATA, add(CFA_XSP16, literal(-6)))
          CFI V3 load(1, XDATA, add(CFA_XSP16, literal(-7)))
          CFI V2 load(1, XDATA, add(CFA_XSP16, literal(-8)))
          CFI V1 load(1, XDATA, add(CFA_XSP16, literal(-9)))
          CFI V0 load(1, XDATA, add(CFA_XSP16, literal(-10)))
          CFI VB load(1, XDATA, add(CFA_XSP16, literal(-11)))
          CFI R6 load(1, XDATA, add(CFA_XSP16, literal(-12)))
          CFI CFA_SP SP+0
          CFI CFA_XSP16 add(XSP16, 12)
        ; Saved register size: 12
        ; Auto size: 0
        MOV       ?V0,R1
        MOV       ?V1,R2
        MOV       A,R4
        MOV       R6,A
        MOV       A,R5
        MOV       R7,A
//  937   zclClusterOptionList *pNewItem;
//  938   zclClusterOptionList *pLoop;
//  939 
//  940   // Fill in the new profile list
//  941   pNewItem = zcl_mem_alloc( sizeof( zclClusterOptionList ) );
        ; Setup parameters for call to function osal_mem_alloc
        MOV       R2,#0x6
        MOV       R3,#0x0
        LCALL     `??osal_mem_alloc::?relay`; Banked call to: osal_mem_alloc
        MOV       ?V2,R2
        MOV       ?V3,R3
        MOV       R0,?V2
        MOV       R1,?V3
//  942   if ( pNewItem == NULL )
        MOV       A,R2
        ORL       A,R1
        JNZ       ??zcl_registerClusterOptionList_0
//  943   {
//  944     return (ZMemError);
        MOV       R1,#0x10
        SJMP      ??zcl_registerClusterOptionList_1
//  945   }
//  946 
//  947   pNewItem->next = (zclClusterOptionList *)NULL;
??zcl_registerClusterOptionList_0:
        MOV       DPL,R2
        MOV       DPH,R3
        CLR       A
        MOVX      @DPTR,A
        INC       DPTR
        MOVX      @DPTR,A
//  948   pNewItem->endpoint = endpoint;
        MOV       DPL,R2
        MOV       DPH,R3
        INC       DPTR
        INC       DPTR
        MOV       A,?V0
        MOVX      @DPTR,A
//  949   pNewItem->numOptions = numOption;
        MOV       DPL,R2
        MOV       DPH,R3
        INC       DPTR
        INC       DPTR
        INC       DPTR
        MOV       A,?V1
        MOVX      @DPTR,A
//  950   pNewItem->options = optionList;
        MOV       DPL,R2
        MOV       DPH,R3
        INC       DPTR
        INC       DPTR
        INC       DPTR
        INC       DPTR
        MOV       A,R6
        MOVX      @DPTR,A
        INC       DPTR
        MOV       A,R7
        MOVX      @DPTR,A
//  951 
//  952   // Find spot in list
//  953   if ( clusterOptionList == NULL )
        MOV       DPTR,#clusterOptionList
        MOVX      A,@DPTR
        MOV       R2,A
        INC       DPTR
        MOVX      A,@DPTR
        MOV       R3,A
        MOV       A,R2
        ORL       A,R3
        MOV       DPTR,#clusterOptionList
        JZ        ??zcl_registerClusterOptionList_2
//  954   {
//  955     clusterOptionList = pNewItem;
//  956   }
//  957   else
//  958   {
//  959     // Look for end of list
//  960     pLoop = clusterOptionList;
        MOVX      A,@DPTR
        MOV       R4,A
        INC       DPTR
        MOVX      A,@DPTR
        SJMP      ??zcl_registerClusterOptionList_3
//  961     while ( pLoop->next != NULL )
//  962     {
//  963       pLoop = pLoop->next;
??zcl_registerClusterOptionList_4:
        MOV       A,R2
        MOV       R4,A
        MOV       A,R3
??zcl_registerClusterOptionList_3:
        MOV       R5,A
//  964     }
        MOV       DPL,R4
        MOV       DPH,R5
        MOVX      A,@DPTR
        MOV       R2,A
        INC       DPTR
        MOVX      A,@DPTR
        MOV       R3,A
        MOV       A,R2
        ORL       A,R3
        JNZ       ??zcl_registerClusterOptionList_4
//  965 
//  966     // Put new item at end of list
//  967     pLoop->next = pNewItem;
        MOV       DPL,R4
        MOV       DPH,R5
??zcl_registerClusterOptionList_2:
        MOV       A,R0
        MOVX      @DPTR,A
        INC       DPTR
        MOV       A,R1
        MOVX      @DPTR,A
//  968   }
//  969 
//  970   return ( ZSuccess );
        MOV       R1,#0x0
??zcl_registerClusterOptionList_1:
        MOV       R7,#0x4
        LJMP      ?BANKED_LEAVE_XDATA
//  971 }
          CFI EndBlock cfiBlock12
//  972 
//  973 /*********************************************************************
//  974  * @fn          zcl_registerValidateAttrData
//  975  *
//  976  * @brief       Add a validation function for attribute data
//  977  *
//  978  * @param       pfnValidateAttrData - function pointer to validate routine
//  979  *
//  980  * @return      ZSuccess if OK
//  981  */

        RSEG BANKED_CODE:HUGECODE:NOROOT(0)
//  982 ZStatus_t zcl_registerValidateAttrData( zclValidateAttrData_t pfnValidateAttrData )
zcl_registerValidateAttrData:
          CFI Block cfiBlock13 Using cfiCommon0
          CFI Function zcl_registerValidateAttrData
        CODE
//  983 {
        PUSH      DPL
          CFI DPL0 Frame(CFA_SP, 4)
          CFI CFA_SP SP+-4
        PUSH      DPH
          CFI DPH0 Frame(CFA_SP, 5)
          CFI CFA_SP SP+-5
        ; Saved register size: 2
        ; Auto size: 0
//  984   zcl_ValidateAttrDataCB = pfnValidateAttrData;
        MOV       DPTR,#zcl_ValidateAttrDataCB
        MOV       A,R2
        MOVX      @DPTR,A
        INC       DPTR
        MOV       A,R3
        MOVX      @DPTR,A
//  985 
//  986   return ( ZSuccess );
        MOV       R1,#0x0
        POP       DPH
          CFI DPH0 SameValue
          CFI CFA_SP SP+-4
        POP       DPL
          CFI DPL0 SameValue
          CFI CFA_SP SP+-3
        LJMP      ?BRET
//  987 }
          CFI EndBlock cfiBlock13
//  988 
//  989 /*********************************************************************
//  990  * @fn          zcl_registerReadWriteCB
//  991  *
//  992  * @brief       Register the application's callback function to read/write
//  993  *              attribute data, and authorize read/write operation.
//  994  *
//  995  *              Note: The pfnReadWriteCB callback function is only required
//  996  *                    when the attribute data format is unknown to ZCL. The
//  997  *                    callback function gets called when the pointer 'dataPtr'
//  998  *                    to the attribute value is NULL in the attribute database
//  999  *                    registered with the ZCL.
// 1000  *
// 1001  *              Note: The pfnAuthorizeCB callback function is only required
// 1002  *                    when the Read/Write operation on an attribute requires
// 1003  *                    authorization (i.e., attributes with ACCESS_CONTROL_AUTH_READ
// 1004  *                    or ACCESS_CONTROL_AUTH_WRITE access permissions).
// 1005  *
// 1006  * @param       endpoint - application's endpoint
// 1007  * @param       pfnReadWriteCB - function pointer to read/write routine
// 1008  * @param       pfnAuthorizeCB - function pointer to authorize read/write operation
// 1009  *
// 1010  * @return      ZSuccess if successful. ZFailure, otherwise.
// 1011  */

        RSEG BANKED_CODE:HUGECODE:NOROOT(0)
// 1012 ZStatus_t zcl_registerReadWriteCB( uint8 endpoint, zclReadWriteCB_t pfnReadWriteCB,
zcl_registerReadWriteCB:
          CFI Block cfiBlock14 Using cfiCommon0
          CFI Function zcl_registerReadWriteCB
        CODE
// 1013                                    zclAuthorizeCB_t pfnAuthorizeCB )
// 1014 {
        FUNCALL zcl_registerReadWriteCB, zclFindAttrRecsList
        LOCFRAME ISTACK, 0, STACK
        LOCFRAME PSTACK, 0, STACK
        LOCFRAME XSTACK, 14, STACK
        LOCFRAME IOVERLAY, 0, STATIC
        LOCFRAME DOVERLAY, 0, STATIC
        ARGFRAME ISTACK, 0, STACK
        ARGFRAME PSTACK, 0, STACK
        ARGFRAME XSTACK, 14, STACK
        ARGFRAME IOVERLAY, 0, STATIC
        ARGFRAME DOVERLAY, 0, STATIC
        REQUIRE ?V0
        REQUIRE ?V1
        REQUIRE ?V2
        REQUIRE ?V4
        REQUIRE ?V5
        MOV       A,#-0xe
        LCALL     ?BANKED_ENTER_XDATA
          CFI DPH0 load(1, XDATA, add(CFA_XSP16, literal(-1)))
          CFI DPL0 load(1, XDATA, add(CFA_XSP16, literal(-2)))
          CFI ?BRET_EXT load(1, XDATA, add(CFA_XSP16, literal(-3)))
          CFI ?RET_HIGH load(1, XDATA, add(CFA_XSP16, literal(-4)))
          CFI ?RET_LOW load(1, XDATA, add(CFA_XSP16, literal(-5)))
          CFI R7 load(1, XDATA, add(CFA_XSP16, literal(-6)))
          CFI V5 load(1, XDATA, add(CFA_XSP16, literal(-7)))
          CFI V4 load(1, XDATA, add(CFA_XSP16, literal(-8)))
          CFI V3 load(1, XDATA, add(CFA_XSP16, literal(-9)))
          CFI V2 load(1, XDATA, add(CFA_XSP16, literal(-10)))
          CFI V1 load(1, XDATA, add(CFA_XSP16, literal(-11)))
          CFI V0 load(1, XDATA, add(CFA_XSP16, literal(-12)))
          CFI VB load(1, XDATA, add(CFA_XSP16, literal(-13)))
          CFI R6 load(1, XDATA, add(CFA_XSP16, literal(-14)))
          CFI CFA_SP SP+0
          CFI CFA_XSP16 add(XSP16, 14)
        ; Saved register size: 14
        ; Auto size: 0
        MOV       A,R2
        MOV       R6,A
        MOV       A,R3
        MOV       R7,A
        MOV       ?V0,R4
        MOV       ?V1,R5
// 1015   zclAttrRecsList *pRec = zclFindAttrRecsList( endpoint );
        ; Setup parameters for call to function zclFindAttrRecsList
        LCALL     `??zclFindAttrRecsList::?relay`; Banked call to: zclFindAttrRecsList
        MOV       ?V5,R3
        MOV       R1,?V5
// 1016 
// 1017   if ( pRec != NULL )
        MOV       A,R2
        ORL       A,R1
        JZ        ??zcl_registerReadWriteCB_0
// 1018   {
// 1019     pRec->pfnReadWriteCB = pfnReadWriteCB;
        MOV       DPL,R2
        MOV       DPH,R3
        INC       DPTR
        INC       DPTR
        INC       DPTR
        MOV       A,R6
        MOVX      @DPTR,A
        INC       DPTR
        MOV       A,R7
        MOVX      @DPTR,A
// 1020     pRec->pfnAuthorizeCB = pfnAuthorizeCB;
        MOV       DPL,R2
        MOV       DPH,R3
        INC       DPTR
        INC       DPTR
        INC       DPTR
        INC       DPTR
        INC       DPTR
        MOV       A,?V0
        MOVX      @DPTR,A
        INC       DPTR
        MOV       A,?V1
        MOVX      @DPTR,A
// 1021 
// 1022     return ( ZSuccess );
        MOV       R1,#0x0
        SJMP      ??zcl_registerReadWriteCB_1
// 1023   }
// 1024 
// 1025   return ( ZFailure );
??zcl_registerReadWriteCB_0:
        MOV       R1,#0x1
??zcl_registerReadWriteCB_1:
        MOV       R7,#0x6
        LJMP      ?BANKED_LEAVE_XDATA
// 1026 }
          CFI EndBlock cfiBlock14
// 1027 
// 1028 /*********************************************************************
// 1029  * @fn      zcl_DeviceOperational
// 1030  *
// 1031  * @brief   Used to see whether or not the device can send or respond
// 1032  *          to application level commands.
// 1033  *
// 1034  * @param   srcEP - source endpoint
// 1035  * @param   clusterID - cluster ID
// 1036  * @param   frameType - command type
// 1037  * @param   cmd - command ID
// 1038  *
// 1039  * @return  TRUE if device is operational, FALSE otherwise
// 1040  */

        RSEG BANKED_CODE:HUGECODE:NOROOT(0)
// 1041 static uint8 zcl_DeviceOperational( uint8 srcEP, uint16 clusterID,
zcl_DeviceOperational:
          CFI Block cfiBlock15 Using cfiCommon0
          CFI Function zcl_DeviceOperational
        CODE
// 1042                                     uint8 frameType, uint8 cmd, uint16 profileID )
// 1043 {
        FUNCALL zcl_DeviceOperational, zclFindAttrRec
        LOCFRAME ISTACK, 0, STACK
        LOCFRAME PSTACK, 0, STACK
        LOCFRAME XSTACK, 23, STACK
        LOCFRAME IOVERLAY, 0, STATIC
        LOCFRAME DOVERLAY, 0, STATIC
        ARGFRAME ISTACK, 0, STACK
        ARGFRAME PSTACK, 0, STACK
        ARGFRAME XSTACK, 23, STACK
        ARGFRAME IOVERLAY, 0, STATIC
        ARGFRAME DOVERLAY, 0, STATIC
        FUNCALL zcl_DeviceOperational, zclReadAttrData
        LOCFRAME ISTACK, 0, STACK
        LOCFRAME PSTACK, 0, STACK
        LOCFRAME XSTACK, 23, STACK
        LOCFRAME IOVERLAY, 0, STATIC
        LOCFRAME DOVERLAY, 0, STATIC
        ARGFRAME ISTACK, 0, STACK
        ARGFRAME PSTACK, 0, STACK
        ARGFRAME XSTACK, 23, STACK
        ARGFRAME IOVERLAY, 0, STATIC
        ARGFRAME DOVERLAY, 0, STATIC
        REQUIRE ?V0
        REQUIRE ?V2
        REQUIRE ?V3
        MOV       A,#-0xc
        LCALL     ?BANKED_ENTER_XDATA
          CFI DPH0 load(1, XDATA, add(CFA_XSP16, literal(-1)))
          CFI DPL0 load(1, XDATA, add(CFA_XSP16, literal(-2)))
          CFI ?BRET_EXT load(1, XDATA, add(CFA_XSP16, literal(-3)))
          CFI ?RET_HIGH load(1, XDATA, add(CFA_XSP16, literal(-4)))
          CFI ?RET_LOW load(1, XDATA, add(CFA_XSP16, literal(-5)))
          CFI R7 load(1, XDATA, add(CFA_XSP16, literal(-6)))
          CFI V3 load(1, XDATA, add(CFA_XSP16, literal(-7)))
          CFI V2 load(1, XDATA, add(CFA_XSP16, literal(-8)))
          CFI V1 load(1, XDATA, add(CFA_XSP16, literal(-9)))
          CFI V0 load(1, XDATA, add(CFA_XSP16, literal(-10)))
          CFI VB load(1, XDATA, add(CFA_XSP16, literal(-11)))
          CFI R6 load(1, XDATA, add(CFA_XSP16, literal(-12)))
          CFI CFA_SP SP+0
          CFI CFA_XSP16 add(XSP16, 12)
        ; Saved register size: 12
        ; Auto size: 9
        MOV       A,#-0x9
        LCALL     ?ALLOC_XSTACK8
          CFI CFA_XSP16 add(XSP16, 21)
        MOV       A,R1
        MOV       R6,A
// 1044   zclAttrRec_t attrRec;
// 1045   uint8 deviceEnabled = DEVICE_ENABLED; // default value
        MOV       DPL,?XSP + 0
        MOV       DPH,?XSP + 1
        MOV       A,#0x1
        MOVX      @DPTR,A
// 1046 
// 1047   (void)profileID;  // Intentionally unreferenced parameter
// 1048 
// 1049   // If the device is Disabled (DeviceEnabled attribute is set to Disabled), it
// 1050   // cannot send or respond to application level commands, other than commands
// 1051   // to read or write attributes. Note that the Identify cluster cannot be
// 1052   // disabled, and remains functional regardless of this setting.
// 1053   if ( zcl_ProfileCmd( frameType ) && cmd <= ZCL_CMD_WRITE_NO_RSP )
        MOV       A,R4
        JNZ       ??zcl_DeviceOperational_0
        MOV       A,R5
        CLR       C
        SUBB      A,#0x6
        JC        ??zcl_DeviceOperational_1
// 1054   {
// 1055     return ( TRUE );
// 1056   }
// 1057 
// 1058   if ( clusterID == ZCL_CLUSTER_ID_GEN_IDENTIFY )
??zcl_DeviceOperational_0:
        MOV       A,#0x3
        XRL       A,R2
        ORL       A,R3
        JZ        ??zcl_DeviceOperational_1
// 1059   {
// 1060     return ( TRUE );
// 1061   }
// 1062 
// 1063   // Is device enabled?
// 1064   if ( zclFindAttrRec( srcEP, ZCL_CLUSTER_ID_GEN_BASIC,
// 1065                        ATTRID_BASIC_DEVICE_ENABLED, &attrRec ) )
        ; Setup parameters for call to function zclFindAttrRec
        MOV       A,#0x1
        LCALL     ?XSTACK_DISP100_8
        MOV       ?V2,R0
        MOV       ?V3,R1
        MOV       R0,#?V2
        LCALL     ?PUSH_XSTACK_I_TWO
          CFI CFA_XSP16 add(XSP16, 23)
        MOV       R4,#0x12
        MOV       R5,#0x0
        MOV       R2,#0x0
        MOV       R3,#0x0
        MOV       A,R6
        MOV       R1,A
        LCALL     `??zclFindAttrRec::?relay`; Banked call to: zclFindAttrRec
        MOV       A,#0x2
        LCALL     ?DEALLOC_XSTACK8
          CFI CFA_XSP16 add(XSP16, 21)
        MOV       A,R1
        JZ        ??zcl_DeviceOperational_2
// 1066   {
// 1067 #ifdef ZCL_READ
// 1068     zclReadAttrData( &deviceEnabled, &attrRec, NULL );
        ; Setup parameters for call to function zclReadAttrData
        CLR       A
        MOV       ?V2,A
        MOV       ?V3,A
        MOV       R0,#?V2
        LCALL     ?PUSH_XSTACK_I_TWO
          CFI CFA_XSP16 add(XSP16, 23)
        MOV       A,#0x3
        LCALL     ?XSTACK_DISP102_8
        MOV       A,#0x2
        LCALL     ?XSTACK_DISP101_8
        LCALL     `??zclReadAttrData::?relay`; Banked call to: zclReadAttrData
        MOV       A,#0x2
        LCALL     ?DEALLOC_XSTACK8
          CFI CFA_XSP16 add(XSP16, 21)
// 1069 #endif
// 1070   }
// 1071 
// 1072   return ( deviceEnabled == DEVICE_ENABLED ? TRUE : FALSE );
??zcl_DeviceOperational_2:
        MOV       DPL,?XSP + 0
        MOV       DPH,?XSP + 1
        MOVX      A,@DPTR
        XRL       A,#0x1
        JNZ       ??zcl_DeviceOperational_3
??zcl_DeviceOperational_1:
        MOV       R1,#0x1
        SJMP      ??zcl_DeviceOperational_4
??zcl_DeviceOperational_3:
        MOV       R1,#0x0
??zcl_DeviceOperational_4:
        MOV       A,#0x9
        LCALL     ?DEALLOC_XSTACK8
          CFI CFA_XSP16 add(XSP16, 12)
        MOV       R7,#0x4
        LJMP      ?BANKED_LEAVE_XDATA
// 1073 }
          CFI EndBlock cfiBlock15
// 1074 
// 1075 /*********************************************************************
// 1076  * @fn      zcl_SendCommand
// 1077  *
// 1078  * @brief   Used to send Profile and Cluster Specific Command messages.
// 1079  *
// 1080  *          NOTE: The calling application is responsible for incrementing
// 1081  *                the Sequence Number.
// 1082  *
// 1083  * @param   srcEp - source endpoint
// 1084  * @param   destAddr - destination address
// 1085  * @param   clusterID - cluster ID
// 1086  * @param   cmd - command ID
// 1087  * @param   specific - whether the command is Cluster Specific
// 1088  * @param   direction - client/server direction of the command
// 1089  * @param   disableDefaultRsp - disable Default Response command
// 1090  * @param   manuCode - manufacturer code for proprietary extensions to a profile
// 1091  * @param   seqNumber - identification number for the transaction
// 1092  * @param   cmdFormatLen - length of the command to be sent
// 1093  * @param   cmdFormat - command to be sent
// 1094  *
// 1095  * @return  ZSuccess if OK
// 1096  */

        RSEG BANKED_CODE:HUGECODE:NOROOT(0)
// 1097 ZStatus_t zcl_SendCommand( uint8 srcEP, afAddrType_t *destAddr,
zcl_SendCommand:
          CFI Block cfiBlock16 Using cfiCommon0
          CFI Function zcl_SendCommand
        CODE
// 1098                            uint16 clusterID, uint8 cmd, uint8 specific, uint8 direction,
// 1099                            uint8 disableDefaultRsp, uint16 manuCode, uint8 seqNum,
// 1100                            uint16 cmdFormatLen, uint8 *cmdFormat )
// 1101 {
        FUNCALL zcl_SendCommand, afFindEndPointDesc
        LOCFRAME ISTACK, 0, STACK
        LOCFRAME PSTACK, 0, STACK
        LOCFRAME XSTACK, 30, STACK
        LOCFRAME IOVERLAY, 0, STATIC
        LOCFRAME DOVERLAY, 0, STATIC
        ARGFRAME ISTACK, 0, STACK
        ARGFRAME PSTACK, 0, STACK
        ARGFRAME XSTACK, 30, STACK
        ARGFRAME IOVERLAY, 0, STATIC
        ARGFRAME DOVERLAY, 0, STATIC
        FUNCALL zcl_SendCommand, zclGetClusterOption
        LOCFRAME ISTACK, 0, STACK
        LOCFRAME PSTACK, 0, STACK
        LOCFRAME XSTACK, 30, STACK
        LOCFRAME IOVERLAY, 0, STATIC
        LOCFRAME DOVERLAY, 0, STATIC
        ARGFRAME ISTACK, 0, STACK
        ARGFRAME PSTACK, 0, STACK
        ARGFRAME XSTACK, 30, STACK
        ARGFRAME IOVERLAY, 0, STATIC
        ARGFRAME DOVERLAY, 0, STATIC
        FUNCALL zcl_SendCommand, zcl_getRawAFMsg
        LOCFRAME ISTACK, 0, STACK
        LOCFRAME PSTACK, 0, STACK
        LOCFRAME XSTACK, 30, STACK
        LOCFRAME IOVERLAY, 0, STATIC
        LOCFRAME DOVERLAY, 0, STATIC
        ARGFRAME ISTACK, 0, STACK
        ARGFRAME PSTACK, 0, STACK
        ARGFRAME XSTACK, 30, STACK
        ARGFRAME IOVERLAY, 0, STATIC
        ARGFRAME DOVERLAY, 0, STATIC
        FUNCALL zcl_SendCommand, osal_memset
        LOCFRAME ISTACK, 0, STACK
        LOCFRAME PSTACK, 0, STACK
        LOCFRAME XSTACK, 30, STACK
        LOCFRAME IOVERLAY, 0, STATIC
        LOCFRAME DOVERLAY, 0, STATIC
        ARGFRAME ISTACK, 0, STACK
        ARGFRAME PSTACK, 0, STACK
        ARGFRAME XSTACK, 30, STACK
        ARGFRAME IOVERLAY, 0, STATIC
        ARGFRAME DOVERLAY, 0, STATIC
        FUNCALL zcl_SendCommand, zcl_DeviceOperational
        LOCFRAME ISTACK, 0, STACK
        LOCFRAME PSTACK, 0, STACK
        LOCFRAME XSTACK, 32, STACK
        LOCFRAME IOVERLAY, 0, STATIC
        LOCFRAME DOVERLAY, 0, STATIC
        ARGFRAME ISTACK, 0, STACK
        ARGFRAME PSTACK, 0, STACK
        ARGFRAME XSTACK, 32, STACK
        ARGFRAME IOVERLAY, 0, STATIC
        ARGFRAME DOVERLAY, 0, STATIC
        FUNCALL zcl_SendCommand, zclCalcHdrSize
        LOCFRAME ISTACK, 0, STACK
        LOCFRAME PSTACK, 0, STACK
        LOCFRAME XSTACK, 30, STACK
        LOCFRAME IOVERLAY, 0, STATIC
        LOCFRAME DOVERLAY, 0, STATIC
        ARGFRAME ISTACK, 0, STACK
        ARGFRAME PSTACK, 0, STACK
        ARGFRAME XSTACK, 30, STACK
        ARGFRAME IOVERLAY, 0, STATIC
        ARGFRAME DOVERLAY, 0, STATIC
        FUNCALL zcl_SendCommand, osal_mem_alloc
        LOCFRAME ISTACK, 0, STACK
        LOCFRAME PSTACK, 0, STACK
        LOCFRAME XSTACK, 30, STACK
        LOCFRAME IOVERLAY, 0, STATIC
        LOCFRAME DOVERLAY, 0, STATIC
        ARGFRAME ISTACK, 0, STACK
        ARGFRAME PSTACK, 0, STACK
        ARGFRAME XSTACK, 30, STACK
        ARGFRAME IOVERLAY, 0, STATIC
        ARGFRAME DOVERLAY, 0, STATIC
        FUNCALL zcl_SendCommand, zclBuildHdr
        LOCFRAME ISTACK, 0, STACK
        LOCFRAME PSTACK, 0, STACK
        LOCFRAME XSTACK, 30, STACK
        LOCFRAME IOVERLAY, 0, STATIC
        LOCFRAME DOVERLAY, 0, STATIC
        ARGFRAME ISTACK, 0, STACK
        ARGFRAME PSTACK, 0, STACK
        ARGFRAME XSTACK, 30, STACK
        ARGFRAME IOVERLAY, 0, STATIC
        ARGFRAME DOVERLAY, 0, STATIC
        FUNCALL zcl_SendCommand, osal_memcpy
        LOCFRAME ISTACK, 0, STACK
        LOCFRAME PSTACK, 0, STACK
        LOCFRAME XSTACK, 33, STACK
        LOCFRAME IOVERLAY, 0, STATIC
        LOCFRAME DOVERLAY, 0, STATIC
        ARGFRAME ISTACK, 0, STACK
        ARGFRAME PSTACK, 0, STACK
        ARGFRAME XSTACK, 33, STACK
        ARGFRAME IOVERLAY, 0, STATIC
        ARGFRAME DOVERLAY, 0, STATIC
        FUNCALL zcl_SendCommand, AF_DataRequest
        LOCFRAME ISTACK, 0, STACK
        LOCFRAME PSTACK, 0, STACK
        LOCFRAME XSTACK, 39, STACK
        LOCFRAME IOVERLAY, 0, STATIC
        LOCFRAME DOVERLAY, 0, STATIC
        ARGFRAME ISTACK, 0, STACK
        ARGFRAME PSTACK, 0, STACK
        ARGFRAME XSTACK, 39, STACK
        ARGFRAME IOVERLAY, 0, STATIC
        ARGFRAME DOVERLAY, 0, STATIC
        FUNCALL zcl_SendCommand, osal_mem_free
        LOCFRAME ISTACK, 0, STACK
        LOCFRAME PSTACK, 0, STACK
        LOCFRAME XSTACK, 30, STACK
        LOCFRAME IOVERLAY, 0, STATIC
        LOCFRAME DOVERLAY, 0, STATIC
        ARGFRAME ISTACK, 0, STACK
        ARGFRAME PSTACK, 0, STACK
        ARGFRAME XSTACK, 30, STACK
        ARGFRAME IOVERLAY, 0, STATIC
        ARGFRAME DOVERLAY, 0, STATIC
        REQUIRE ?V0
        REQUIRE ?V1
        REQUIRE ?V2
        REQUIRE ?V3
        REQUIRE ?V4
        REQUIRE ?V5
        REQUIRE ?V6
        REQUIRE ?V7
        REQUIRE ?V8
        REQUIRE ?V9
        REQUIRE ?V10
        REQUIRE ?V12
        REQUIRE ?V13
        REQUIRE ?V14
        REQUIRE ?V15
        MOV       A,#-0x18
        LCALL     ?BANKED_ENTER_XDATA
          CFI DPH0 load(1, XDATA, add(CFA_XSP16, literal(-1)))
          CFI DPL0 load(1, XDATA, add(CFA_XSP16, literal(-2)))
          CFI ?BRET_EXT load(1, XDATA, add(CFA_XSP16, literal(-3)))
          CFI ?RET_HIGH load(1, XDATA, add(CFA_XSP16, literal(-4)))
          CFI ?RET_LOW load(1, XDATA, add(CFA_XSP16, literal(-5)))
          CFI R7 load(1, XDATA, add(CFA_XSP16, literal(-6)))
          CFI V15 load(1, XDATA, add(CFA_XSP16, literal(-7)))
          CFI V14 load(1, XDATA, add(CFA_XSP16, literal(-8)))
          CFI V13 load(1, XDATA, add(CFA_XSP16, literal(-9)))
          CFI V12 load(1, XDATA, add(CFA_XSP16, literal(-10)))
          CFI V11 load(1, XDATA, add(CFA_XSP16, literal(-11)))
          CFI V10 load(1, XDATA, add(CFA_XSP16, literal(-12)))
          CFI V9 load(1, XDATA, add(CFA_XSP16, literal(-13)))
          CFI V8 load(1, XDATA, add(CFA_XSP16, literal(-14)))
          CFI V7 load(1, XDATA, add(CFA_XSP16, literal(-15)))
          CFI V6 load(1, XDATA, add(CFA_XSP16, literal(-16)))
          CFI V5 load(1, XDATA, add(CFA_XSP16, literal(-17)))
          CFI V4 load(1, XDATA, add(CFA_XSP16, literal(-18)))
          CFI V3 load(1, XDATA, add(CFA_XSP16, literal(-19)))
          CFI V2 load(1, XDATA, add(CFA_XSP16, literal(-20)))
          CFI V1 load(1, XDATA, add(CFA_XSP16, literal(-21)))
          CFI V0 load(1, XDATA, add(CFA_XSP16, literal(-22)))
          CFI VB load(1, XDATA, add(CFA_XSP16, literal(-23)))
          CFI R6 load(1, XDATA, add(CFA_XSP16, literal(-24)))
          CFI CFA_SP SP+0
          CFI CFA_XSP16 add(XSP16, 24)
        ; Saved register size: 24
        ; Auto size: 6
        MOV       A,#-0x6
        LCALL     ?ALLOC_XSTACK8
          CFI CFA_XSP16 add(XSP16, 30)
        MOV       ?V10,R1
        MOV       ?V14,R2
        MOV       ?V15,R3
        MOV       ?V0,R4
        MOV       ?V1,R5
// 1102   endPointDesc_t *epDesc;
// 1103   zclFrameHdr_t hdr;
// 1104   uint8 *msgBuf;
// 1105   uint16 msgLen;
// 1106   uint8 *pBuf;
// 1107   uint8 options;
// 1108   ZStatus_t status;
// 1109 
// 1110   epDesc = afFindEndPointDesc( srcEP );
        ; Setup parameters for call to function afFindEndPointDesc
        LCALL     `??afFindEndPointDesc::?relay`; Banked call to: afFindEndPointDesc
        MOV       ?V12,R2
        MOV       ?V13,R3
// 1111   if ( epDesc == NULL )
        MOV       A,R2
        ORL       A,R3
        JNZ       ??zcl_SendCommand_0
// 1112   {
// 1113     return ( ZInvalidParameter ); // EMBEDDED RETURN
        MOV       R1,#0x2
        LJMP      ??zcl_SendCommand_1 & 0xFFFF
// 1114   }
// 1115 
// 1116 #if defined ( INTER_PAN )
// 1117   if ( StubAPS_InterPan( destAddr->panId, destAddr->endPoint ) )
// 1118   {
// 1119     options = AF_TX_OPTIONS_NONE;
// 1120   }
// 1121   else
// 1122 #endif
// 1123   {
// 1124     options = zclGetClusterOption( srcEP, clusterID );
??zcl_SendCommand_0:
        ; Setup parameters for call to function zclGetClusterOption
        MOV       R2,?V0
        MOV       R3,?V1
        MOV       R1,?V10
        LCALL     `??zclGetClusterOption::?relay`; Banked call to: zclGetClusterOption
        MOV       A,R1
        MOV       ?V7,A
// 1125 
// 1126     // The cluster might not have been defined to use security but if this message
// 1127     // is in response to another message that was using APS security this message
// 1128     // will be sent with APS security
// 1129     if ( !( options & AF_EN_SECURITY ) )
        MOV       C,0xE0 /* A   */.6
        JC        ??zcl_SendCommand_2
// 1130     {
// 1131       afIncomingMSGPacket_t *origPkt = zcl_getRawAFMsg();
        ; Setup parameters for call to function zcl_getRawAFMsg
        LCALL     `??zcl_getRawAFMsg::?relay`; Banked call to: zcl_getRawAFMsg
        MOV       ?V3,R3
        MOV       R1,?V3
// 1132 
// 1133       if ( ( origPkt != NULL ) && ( origPkt->SecurityUse == TRUE ) )
        MOV       A,R2
        ORL       A,R1
        JZ        ??zcl_SendCommand_2
        MOV       A,R2
        ADD       A,#0x19
        MOV       DPL,A
        CLR       A
        ADDC      A,R1
        MOV       DPH,A
        MOVX      A,@DPTR
        XRL       A,#0x1
        JNZ       ??zcl_SendCommand_2
// 1134       {
// 1135         options |= AF_EN_SECURITY;
        MOV       A,?V7
        SETB      0xE0 /* A   */.6
        MOV       ?V7,A
// 1136       }
// 1137     }
// 1138   }
// 1139 
// 1140   zcl_memset( &hdr, 0, sizeof( zclFrameHdr_t ) );
??zcl_SendCommand_2:
        ; Setup parameters for call to function osal_memset
        MOV       R4,#0x6
        MOV       R5,#0x0
        MOV       R1,#0x0
        MOV       R2,?XSP + 0
        MOV       R3,?XSP + 1
        LCALL     `??osal_memset::?relay`; Banked call to: osal_memset
// 1141 
// 1142   // Not Profile wide command (like READ, WRITE)
// 1143   if ( specific )
        MOV       A,#0x1f
        LCALL     ?XSTACK_DISP0_8
        MOVX      A,@DPTR
        MOV       DPL,?XSP + 0
        MOV       DPH,?XSP + 1
        JZ        ??zcl_SendCommand_3
// 1144   {
// 1145     hdr.fc.type = ZCL_FRAME_TYPE_SPECIFIC_CMD;
        MOVX      A,@DPTR
        ANL       A,#0xfc
        MOVX      @DPTR,A
        MOVX      A,@DPTR
        ORL       A,#0x1
        SJMP      ??zcl_SendCommand_4
// 1146   }
// 1147   else
// 1148   {
// 1149     hdr.fc.type = ZCL_FRAME_TYPE_PROFILE_CMD;
??zcl_SendCommand_3:
        MOVX      A,@DPTR
        ANL       A,#0xfc
??zcl_SendCommand_4:
        MOVX      @DPTR,A
// 1150   }
// 1151 
// 1152   if ( ( epDesc->simpleDesc == NULL ) ||
// 1153        ( zcl_DeviceOperational( srcEP, clusterID, hdr.fc.type,
// 1154                                 cmd, epDesc->simpleDesc->AppProfId ) == FALSE ) )
        MOV       DPL,?V12
        MOV       DPH,?V13
        INC       DPTR
        INC       DPTR
        INC       DPTR
        INC       DPTR
        MOVX      A,@DPTR
        MOV       R0,A
        INC       DPTR
        MOVX      A,@DPTR
        MOV       R1,A
        MOV       A,R0
        ORL       A,R1
        JZ        ??zcl_SendCommand_5
        MOV       A,#0x1e
        LCALL     ?XSTACK_DISP0_8
        MOVX      A,@DPTR
        MOV       R6,A
        ; Setup parameters for call to function zcl_DeviceOperational
        MOV       DPL,R0
        MOV       DPH,R1
        INC       DPTR
        LCALL     ?PUSH_XSTACK8_X_TWO
          CFI CFA_XSP16 add(XSP16, 32)
        MOV       A,R6
        MOV       R5,A
        MOV       A,#0x2
        LCALL     ?XSTACK_DISP0_8
        MOVX      A,@DPTR
        ANL       A,#0x3
        MOV       R4,A
        MOV       R2,?V0
        MOV       R3,?V1
        MOV       R1,?V10
        LCALL     `??zcl_DeviceOperational::?relay`; Banked call to: zcl_DeviceOperational
        MOV       A,#0x2
        LCALL     ?DEALLOC_XSTACK8
          CFI CFA_XSP16 add(XSP16, 30)
        MOV       A,R1
        JNZ       ??zcl_SendCommand_6
// 1155   {
// 1156     return ( ZFailure ); // EMBEDDED RETURN
??zcl_SendCommand_5:
        MOV       R1,#0x1
        LJMP      ??zcl_SendCommand_1 & 0xFFFF
// 1157   }
??zcl_SendCommand_6:
        MOV       A,#0x22
        LCALL     ?XSTACK_DISP0_8
        MOVX      A,@DPTR
        MOV       R0,A
        INC       DPTR
        MOVX      A,@DPTR
        MOV       R1,A
// 1158 
// 1159   // Fill in the Maufacturer Code
// 1160   if ( manuCode != 0 )
        MOV       A,R0
        ORL       A,R1
        JZ        ??zcl_SendCommand_7
// 1161   {
// 1162     hdr.fc.manuSpecific = 1;
        MOV       DPL,?XSP + 0
        MOV       DPH,?XSP + 1
        MOVX      A,@DPTR
        ORL       A,#0x4
        MOVX      @DPTR,A
// 1163     hdr.manuCode = manuCode;
        MOV       A,#0x2
        LCALL     ?XSTACK_DISP0_8
        MOV       A,R0
        MOVX      @DPTR,A
        INC       DPTR
        MOV       A,R1
        MOVX      @DPTR,A
// 1164   }
// 1165 
// 1166   // Set the Command Direction
// 1167   if ( direction )
??zcl_SendCommand_7:
        MOV       A,#0x20
        LCALL     ?XSTACK_DISP0_8
        MOVX      A,@DPTR
        MOV       DPL,?XSP + 0
        MOV       DPH,?XSP + 1
        JZ        ??zcl_SendCommand_8
// 1168   {
// 1169     hdr.fc.direction = ZCL_FRAME_SERVER_CLIENT_DIR;
        MOVX      A,@DPTR
        ORL       A,#0x8
        SJMP      ??zcl_SendCommand_9
// 1170   }
// 1171   else
// 1172   {
// 1173     hdr.fc.direction = ZCL_FRAME_CLIENT_SERVER_DIR;
??zcl_SendCommand_8:
        MOVX      A,@DPTR
        ANL       A,#0xf7
??zcl_SendCommand_9:
        MOVX      @DPTR,A
// 1174   }
// 1175 
// 1176   // Set the Disable Default Response field
// 1177   if ( disableDefaultRsp )
        MOV       A,#0x21
        LCALL     ?XSTACK_DISP0_8
        MOVX      A,@DPTR
        MOV       DPL,?XSP + 0
        MOV       DPH,?XSP + 1
        JZ        ??zcl_SendCommand_10
// 1178   {
// 1179     hdr.fc.disableDefaultRsp = 1;
        MOVX      A,@DPTR
        ORL       A,#0x10
        SJMP      ??zcl_SendCommand_11
// 1180   }
// 1181   else
// 1182   {
// 1183     hdr.fc.disableDefaultRsp = 0;
??zcl_SendCommand_10:
        MOVX      A,@DPTR
        ANL       A,#0xef
??zcl_SendCommand_11:
        MOVX      @DPTR,A
// 1184   }
// 1185 
// 1186   // Fill in the Transaction Sequence Number
// 1187   hdr.transSeqNum = seqNum;
        MOV       A,#0x24
        LCALL     ?XSTACK_DISP0_8
        MOVX      A,@DPTR
        PUSH      A
          CFI CFA_SP SP+-1
        MOV       A,#0x4
        LCALL     ?XSTACK_DISP0_8
        POP       A
          CFI CFA_SP SP+0
        MOVX      @DPTR,A
// 1188 
// 1189   // Fill in the command
// 1190   hdr.commandID = cmd;
        MOV       A,R6
        PUSH      A
          CFI CFA_SP SP+-1
        MOV       A,#0x5
        LCALL     ?XSTACK_DISP0_8
        POP       A
          CFI CFA_SP SP+0
        MOVX      @DPTR,A
// 1191 
// 1192   // calculate the needed buffer size
// 1193   msgLen = zclCalcHdrSize( &hdr );
        ; Setup parameters for call to function zclCalcHdrSize
        MOV       R2,?XSP + 0
        MOV       R3,?XSP + 1
        LCALL     `??zclCalcHdrSize::?relay`; Banked call to: zclCalcHdrSize
        MOV       A,#0x25
        LCALL     ?XSTACK_DISP0_8
        MOVX      A,@DPTR
        MOV       ?V8,A
        INC       DPTR
        MOVX      A,@DPTR
        MOV       ?V9,A
// 1194   msgLen += cmdFormatLen;
        MOV       A,R1
        ADD       A,?V8
        MOV       R6,A
        CLR       A
        ADDC      A,?V9
        MOV       R7,A
// 1195 
// 1196   // Allocate the buffer needed
// 1197   msgBuf = zcl_mem_alloc( msgLen );
        ; Setup parameters for call to function osal_mem_alloc
        MOV       A,R6
        MOV       R2,A
        MOV       A,R7
        MOV       R3,A
        LCALL     `??osal_mem_alloc::?relay`; Banked call to: osal_mem_alloc
        MOV       ?V2,R2
        MOV       ?V3,R3
// 1198   if ( msgBuf != NULL )
        MOV       A,R2
        ORL       A,R3
        JZ        ??zcl_SendCommand_12
// 1199   {
// 1200     // Fill in the ZCL Header
// 1201     pBuf = zclBuildHdr( &hdr, msgBuf );
        ; Setup parameters for call to function zclBuildHdr
        MOV       R4,?V2
        MOV       R5,?V3
        MOV       R2,?XSP + 0
        MOV       R3,?XSP + 1
        LCALL     `??zclBuildHdr::?relay`; Banked call to: zclBuildHdr
// 1202 
// 1203     // Fill in the command frame
// 1204     zcl_memcpy( pBuf, cmdFormat, cmdFormatLen );
        ; Setup parameters for call to function osal_memcpy
        MOV       A,#0x27
        LCALL     ?XSTACK_DISP0_8
        MOVX      A,@DPTR
        MOV       ?V4,A
        INC       DPTR
        MOVX      A,@DPTR
        MOV       ?V5,A
        MOV       ?V6,#0x0
        MOV       R0,#?V4
        LCALL     ?PUSH_XSTACK_I_THREE
          CFI CFA_XSP16 add(XSP16, 33)
        MOV       R4,?V8
        MOV       R5,?V9
        LCALL     `??osal_memcpy::?relay`; Banked call to: osal_memcpy
        MOV       A,#0x3
        LCALL     ?DEALLOC_XSTACK8
          CFI CFA_XSP16 add(XSP16, 30)
// 1205 
// 1206     status = AF_DataRequest( destAddr, epDesc, clusterID, msgLen, msgBuf,
// 1207                              &APS_Counter, options, zcl_radius );
        ; Setup parameters for call to function AF_DataRequest
        MOV       DPTR,#zcl_radius
        MOVX      A,@DPTR
        MOV       ?V4,A
        MOV       R0,#?V4
        LCALL     ?PUSH_XSTACK_I_ONE
          CFI CFA_XSP16 add(XSP16, 31)
        MOV       ?V4,#APS_Counter & 0xff
        MOV       ?V5,#(APS_Counter >> 8) & 0xff
        MOV       R0,#?V4
        LCALL     ?PUSH_XSTACK_I_TWO
          CFI CFA_XSP16 add(XSP16, 33)
        MOV       R0,#?V2
        LCALL     ?PUSH_XSTACK_I_TWO
          CFI CFA_XSP16 add(XSP16, 35)
        MOV       ?V4,R6
        MOV       ?V5,R7
        MOV       R0,#?V4
        LCALL     ?PUSH_XSTACK_I_TWO
          CFI CFA_XSP16 add(XSP16, 37)
        MOV       R0,#?V0
        LCALL     ?PUSH_XSTACK_I_TWO
          CFI CFA_XSP16 add(XSP16, 39)
        MOV       R1,?V7
        MOV       R4,?V12
        MOV       R5,?V13
        MOV       R2,?V14
        MOV       R3,?V15
        LCALL     `??AF_DataRequest::?relay`; Banked call to: AF_DataRequest
        MOV       A,#0x9
        LCALL     ?DEALLOC_XSTACK8
          CFI CFA_XSP16 add(XSP16, 30)
        MOV       A,R1
        MOV       R6,A
// 1208     zcl_mem_free ( msgBuf );
        ; Setup parameters for call to function osal_mem_free
        MOV       R2,?V2
        MOV       R3,?V3
        LCALL     `??osal_mem_free::?relay`; Banked call to: osal_mem_free
        SJMP      ??zcl_SendCommand_13
// 1209   }
// 1210   else
// 1211   {
// 1212     status = ZMemError;
??zcl_SendCommand_12:
        MOV       R6,#0x10
// 1213   }
// 1214 
// 1215   return ( status );
??zcl_SendCommand_13:
        MOV       A,R6
        MOV       R1,A
??zcl_SendCommand_1:
        MOV       A,#0x6
        LCALL     ?DEALLOC_XSTACK8
          CFI CFA_XSP16 add(XSP16, 24)
        MOV       R7,#0x10
        LJMP      ?BANKED_LEAVE_XDATA
// 1216 }
          CFI EndBlock cfiBlock16
// 1217 
// 1218 #ifdef ZCL_READ
// 1219 /*********************************************************************
// 1220  * @fn      zcl_SendRead
// 1221  *
// 1222  * @brief   Send a Read command
// 1223  *
// 1224  * @param   srcEP - Application's endpoint
// 1225  * @param   dstAddr - destination address
// 1226  * @param   clusterID - cluster ID
// 1227  * @param   readCmd - read command to be sent
// 1228  * @param   direction - direction of the command
// 1229  * @param   seqNum - transaction sequence number
// 1230  *
// 1231  * @return  ZSuccess if OK
// 1232  */

        RSEG BANKED_CODE:HUGECODE:NOROOT(0)
// 1233 ZStatus_t zcl_SendRead( uint8 srcEP, afAddrType_t *dstAddr,
zcl_SendRead:
          CFI Block cfiBlock17 Using cfiCommon0
          CFI Function zcl_SendRead
        CODE
// 1234                         uint16 clusterID, zclReadCmd_t *readCmd,
// 1235                         uint8 direction, uint8 disableDefaultRsp, uint8 seqNum)
// 1236 {
        FUNCALL zcl_SendRead, osal_mem_alloc
        LOCFRAME ISTACK, 0, STACK
        LOCFRAME PSTACK, 0, STACK
        LOCFRAME XSTACK, 20, STACK
        LOCFRAME IOVERLAY, 0, STATIC
        LOCFRAME DOVERLAY, 0, STATIC
        ARGFRAME ISTACK, 0, STACK
        ARGFRAME PSTACK, 0, STACK
        ARGFRAME XSTACK, 20, STACK
        ARGFRAME IOVERLAY, 0, STATIC
        ARGFRAME DOVERLAY, 0, STATIC
        FUNCALL zcl_SendRead, zcl_SendCommand
        LOCFRAME ISTACK, 0, STACK
        LOCFRAME PSTACK, 0, STACK
        LOCFRAME XSTACK, 31, STACK
        LOCFRAME IOVERLAY, 0, STATIC
        LOCFRAME DOVERLAY, 0, STATIC
        ARGFRAME ISTACK, 0, STACK
        ARGFRAME PSTACK, 0, STACK
        ARGFRAME XSTACK, 31, STACK
        ARGFRAME IOVERLAY, 0, STATIC
        ARGFRAME DOVERLAY, 0, STATIC
        FUNCALL zcl_SendRead, osal_mem_free
        LOCFRAME ISTACK, 0, STACK
        LOCFRAME PSTACK, 0, STACK
        LOCFRAME XSTACK, 20, STACK
        LOCFRAME IOVERLAY, 0, STATIC
        LOCFRAME DOVERLAY, 0, STATIC
        ARGFRAME ISTACK, 0, STACK
        ARGFRAME PSTACK, 0, STACK
        ARGFRAME XSTACK, 20, STACK
        ARGFRAME IOVERLAY, 0, STATIC
        ARGFRAME DOVERLAY, 0, STATIC
        REQUIRE ?V0
        REQUIRE ?V1
        REQUIRE ?V2
        REQUIRE ?V3
        REQUIRE ?V4
        REQUIRE ?V5
        REQUIRE ?V6
        REQUIRE ?V7
        REQUIRE ?V8
        REQUIRE ?V9
        REQUIRE ?V10
        REQUIRE ?V11
        MOV       A,#-0x14
        LCALL     ?BANKED_ENTER_XDATA
          CFI DPH0 load(1, XDATA, add(CFA_XSP16, literal(-1)))
          CFI DPL0 load(1, XDATA, add(CFA_XSP16, literal(-2)))
          CFI ?BRET_EXT load(1, XDATA, add(CFA_XSP16, literal(-3)))
          CFI ?RET_HIGH load(1, XDATA, add(CFA_XSP16, literal(-4)))
          CFI ?RET_LOW load(1, XDATA, add(CFA_XSP16, literal(-5)))
          CFI R7 load(1, XDATA, add(CFA_XSP16, literal(-6)))
          CFI V11 load(1, XDATA, add(CFA_XSP16, literal(-7)))
          CFI V10 load(1, XDATA, add(CFA_XSP16, literal(-8)))
          CFI V9 load(1, XDATA, add(CFA_XSP16, literal(-9)))
          CFI V8 load(1, XDATA, add(CFA_XSP16, literal(-10)))
          CFI V7 load(1, XDATA, add(CFA_XSP16, literal(-11)))
          CFI V6 load(1, XDATA, add(CFA_XSP16, literal(-12)))
          CFI V5 load(1, XDATA, add(CFA_XSP16, literal(-13)))
          CFI V4 load(1, XDATA, add(CFA_XSP16, literal(-14)))
          CFI V3 load(1, XDATA, add(CFA_XSP16, literal(-15)))
          CFI V2 load(1, XDATA, add(CFA_XSP16, literal(-16)))
          CFI V1 load(1, XDATA, add(CFA_XSP16, literal(-17)))
          CFI V0 load(1, XDATA, add(CFA_XSP16, literal(-18)))
          CFI VB load(1, XDATA, add(CFA_XSP16, literal(-19)))
          CFI R6 load(1, XDATA, add(CFA_XSP16, literal(-20)))
          CFI CFA_SP SP+0
          CFI CFA_XSP16 add(XSP16, 20)
        ; Saved register size: 20
        ; Auto size: 0
        MOV       ?V2,R1
        MOV       ?V8,R2
        MOV       ?V9,R3
        MOV       A,R4
        MOV       R6,A
        MOV       A,R5
        MOV       R7,A
        MOV       A,#0x14
        LCALL     ?XSTACK_DISP0_8
        MOVX      A,@DPTR
        MOV       ?V4,A
        INC       DPTR
        MOVX      A,@DPTR
        MOV       ?V5,A
// 1237   uint16 dataLen;
// 1238   uint8 *buf;
// 1239   uint8 *pBuf;
// 1240   ZStatus_t status;
// 1241 
// 1242   dataLen = readCmd->numAttr * 2; // Attribute ID
        MOV       DPL,?V4
        MOV       DPH,A
        MOVX      A,@DPTR
        ADD       A,0xE0 /* A   */
        MOV       ?V6,A
        CLR       A
        RLC       A
        MOV       ?V7,A
// 1243 
// 1244   buf = zcl_mem_alloc( dataLen );
        ; Setup parameters for call to function osal_mem_alloc
        MOV       R2,?V6
        MOV       R3,A
        LCALL     `??osal_mem_alloc::?relay`; Banked call to: osal_mem_alloc
        MOV       ?V0,R2
        MOV       ?V1,R3
// 1245   if ( buf != NULL )
        MOV       A,R2
        ORL       A,R3
        JNZ       $+5
        LJMP      ??zcl_SendRead_0 & 0xFFFF
// 1246   {
// 1247     uint8 i;
// 1248 
// 1249     // Load the buffer - serially
// 1250     pBuf = buf;
        MOV       R0,?V0
        MOV       R1,?V1
// 1251     for (i = 0; i < readCmd->numAttr; i++)
        MOV       R4,#0x0
        SJMP      ??zcl_SendRead_1
// 1252     {
// 1253       *pBuf++ = LO_UINT16( readCmd->attrID[i] );
??zcl_SendRead_2:
        MOV       A,R4
        ADD       A,0xE0 /* A   */
        MOV       R2,A
        CLR       A
        RLC       A
        MOV       R3,A
        MOV       A,?V4
        ADD       A,R2
        MOV       DPL,A
        MOV       A,?V5
        ADDC      A,R3
        MOV       DPH,A
        INC       DPTR
        MOV       R2,DPL
        MOV       R3,DPH
        MOVX      A,@DPTR
        MOV       DPL,R0
        MOV       DPH,R1
        MOVX      @DPTR,A
// 1254       *pBuf++ = HI_UINT16( readCmd->attrID[i] );
        MOV       DPL,R2
        MOV       DPH,R3
        INC       DPTR
        MOVX      A,@DPTR
        MOV       DPL,R0
        MOV       DPH,R1
        INC       DPTR
        MOVX      @DPTR,A
        MOV       A,R0
        ADD       A,#0x2
        MOV       R0,A
        JNC       ??zcl_SendRead_3
        INC       R1
// 1255     }
??zcl_SendRead_3:
        INC       R4
??zcl_SendRead_1:
        MOV       DPL,?V4
        MOV       DPH,?V5
        MOVX      A,@DPTR
        MOV       R2,A
        MOV       A,R4
        CLR       C
        SUBB      A,R2
        JC        ??zcl_SendRead_2
// 1256 
// 1257     status = zcl_SendCommand( srcEP, dstAddr, clusterID, ZCL_CMD_READ, FALSE,
// 1258                               direction, disableDefaultRsp, 0, seqNum, dataLen, buf );
        ; Setup parameters for call to function zcl_SendCommand
        MOV       R0,#?V0
        LCALL     ?PUSH_XSTACK_I_TWO
          CFI CFA_XSP16 add(XSP16, 22)
        MOV       R0,#?V6
        LCALL     ?PUSH_XSTACK_I_TWO
          CFI CFA_XSP16 add(XSP16, 24)
        MOV       A,#0x1c
        LCALL     ?XSTACK_DISP0_8
        MOVX      A,@DPTR
        MOV       ?V3,A
        MOV       R0,#?V3
        LCALL     ?PUSH_XSTACK_I_ONE
          CFI CFA_XSP16 add(XSP16, 25)
        CLR       A
        MOV       ?V4,A
        MOV       ?V5,A
        MOV       R0,#?V4
        LCALL     ?PUSH_XSTACK_I_TWO
          CFI CFA_XSP16 add(XSP16, 27)
        MOV       A,#0x1e
        LCALL     ?XSTACK_DISP0_8
        MOVX      A,@DPTR
        MOV       ?V3,A
        MOV       R0,#?V3
        LCALL     ?PUSH_XSTACK_I_ONE
          CFI CFA_XSP16 add(XSP16, 28)
        MOV       A,#0x1e
        LCALL     ?XSTACK_DISP0_8
        MOVX      A,@DPTR
        MOV       ?V3,A
        MOV       R0,#?V3
        LCALL     ?PUSH_XSTACK_I_ONE
          CFI CFA_XSP16 add(XSP16, 29)
        MOV       ?V3,#0x0
        MOV       R0,#?V3
        LCALL     ?PUSH_XSTACK_I_ONE
          CFI CFA_XSP16 add(XSP16, 30)
        MOV       R0,#?V3
        LCALL     ?PUSH_XSTACK_I_ONE
          CFI CFA_XSP16 add(XSP16, 31)
        MOV       A,R6
        MOV       R4,A
        MOV       A,R7
        MOV       R5,A
        MOV       R2,?V8
        MOV       R3,?V9
        MOV       R1,?V2
        LCALL     `??zcl_SendCommand::?relay`; Banked call to: zcl_SendCommand
        MOV       A,#0xb
        LCALL     ?DEALLOC_XSTACK8
          CFI CFA_XSP16 add(XSP16, 20)
        MOV       A,R1
        MOV       R6,A
// 1259     zcl_mem_free( buf );
        ; Setup parameters for call to function osal_mem_free
        MOV       R2,?V0
        MOV       R3,?V1
        LCALL     `??osal_mem_free::?relay`; Banked call to: osal_mem_free
        SJMP      ??zcl_SendRead_4
// 1260   }
// 1261   else
// 1262   {
// 1263     status = ZMemError;
??zcl_SendRead_0:
        MOV       R6,#0x10
// 1264   }
// 1265 
// 1266   return ( status );
??zcl_SendRead_4:
        MOV       A,R6
        MOV       R1,A
        MOV       R7,#0xc
        LJMP      ?BANKED_LEAVE_XDATA
// 1267 }
          CFI EndBlock cfiBlock17
// 1268 
// 1269 /*********************************************************************
// 1270  * @fn      zcl_SendReadRsp
// 1271  *
// 1272  * @brief   Send a Read Response command.
// 1273  *
// 1274  * @param   srcEP - Application's endpoint
// 1275  * @param   dstAddr - destination address
// 1276  * @param   clusterID - cluster ID
// 1277  * @param   readRspCmd - read response command to be sent
// 1278  * @param   direction - direction of the command
// 1279  * @param   seqNum - transaction sequence number
// 1280  *
// 1281  * @return  ZSuccess if OK
// 1282  */

        RSEG BANKED_CODE:HUGECODE:NOROOT(0)
// 1283 ZStatus_t zcl_SendReadRsp( uint8 srcEP, afAddrType_t *dstAddr,
zcl_SendReadRsp:
          CFI Block cfiBlock18 Using cfiCommon0
          CFI Function zcl_SendReadRsp
        CODE
// 1284                            uint16 clusterID, zclReadRspCmd_t *readRspCmd,
// 1285                            uint8 direction, uint8 disableDefaultRsp, uint8 seqNum )
// 1286 {
        FUNCALL zcl_SendReadRsp, zclGetAttrDataLengthUsingCB
        LOCFRAME ISTACK, 0, STACK
        LOCFRAME PSTACK, 0, STACK
        LOCFRAME XSTACK, 24, STACK
        LOCFRAME IOVERLAY, 0, STATIC
        LOCFRAME DOVERLAY, 0, STATIC
        ARGFRAME ISTACK, 0, STACK
        ARGFRAME PSTACK, 0, STACK
        ARGFRAME XSTACK, 24, STACK
        ARGFRAME IOVERLAY, 0, STATIC
        ARGFRAME DOVERLAY, 0, STATIC
        FUNCALL zcl_SendReadRsp, zclGetAttrDataLength
        LOCFRAME ISTACK, 0, STACK
        LOCFRAME PSTACK, 0, STACK
        LOCFRAME XSTACK, 24, STACK
        LOCFRAME IOVERLAY, 0, STATIC
        LOCFRAME DOVERLAY, 0, STATIC
        ARGFRAME ISTACK, 0, STACK
        ARGFRAME PSTACK, 0, STACK
        ARGFRAME XSTACK, 24, STACK
        ARGFRAME IOVERLAY, 0, STATIC
        ARGFRAME DOVERLAY, 0, STATIC
        FUNCALL zcl_SendReadRsp, osal_mem_alloc
        LOCFRAME ISTACK, 0, STACK
        LOCFRAME PSTACK, 0, STACK
        LOCFRAME XSTACK, 24, STACK
        LOCFRAME IOVERLAY, 0, STATIC
        LOCFRAME DOVERLAY, 0, STATIC
        ARGFRAME ISTACK, 0, STACK
        ARGFRAME PSTACK, 0, STACK
        ARGFRAME XSTACK, 24, STACK
        ARGFRAME IOVERLAY, 0, STATIC
        ARGFRAME DOVERLAY, 0, STATIC
        FUNCALL zcl_SendReadRsp, zclReadAttrDataUsingCB
        LOCFRAME ISTACK, 0, STACK
        LOCFRAME PSTACK, 0, STACK
        LOCFRAME XSTACK, 28, STACK
        LOCFRAME IOVERLAY, 0, STATIC
        LOCFRAME DOVERLAY, 0, STATIC
        ARGFRAME ISTACK, 0, STACK
        ARGFRAME PSTACK, 0, STACK
        ARGFRAME XSTACK, 28, STACK
        ARGFRAME IOVERLAY, 0, STATIC
        ARGFRAME DOVERLAY, 0, STATIC
        FUNCALL zcl_SendReadRsp, zclSerializeData
        LOCFRAME ISTACK, 0, STACK
        LOCFRAME PSTACK, 0, STACK
        LOCFRAME XSTACK, 24, STACK
        LOCFRAME IOVERLAY, 0, STATIC
        LOCFRAME DOVERLAY, 0, STATIC
        ARGFRAME ISTACK, 0, STACK
        ARGFRAME PSTACK, 0, STACK
        ARGFRAME XSTACK, 24, STACK
        ARGFRAME IOVERLAY, 0, STATIC
        ARGFRAME DOVERLAY, 0, STATIC
        FUNCALL zcl_SendReadRsp, zcl_SendCommand
        LOCFRAME ISTACK, 0, STACK
        LOCFRAME PSTACK, 0, STACK
        LOCFRAME XSTACK, 35, STACK
        LOCFRAME IOVERLAY, 0, STATIC
        LOCFRAME DOVERLAY, 0, STATIC
        ARGFRAME ISTACK, 0, STACK
        ARGFRAME PSTACK, 0, STACK
        ARGFRAME XSTACK, 35, STACK
        ARGFRAME IOVERLAY, 0, STATIC
        ARGFRAME DOVERLAY, 0, STATIC
        FUNCALL zcl_SendReadRsp, osal_mem_free
        LOCFRAME ISTACK, 0, STACK
        LOCFRAME PSTACK, 0, STACK
        LOCFRAME XSTACK, 24, STACK
        LOCFRAME IOVERLAY, 0, STATIC
        LOCFRAME DOVERLAY, 0, STATIC
        ARGFRAME ISTACK, 0, STACK
        ARGFRAME PSTACK, 0, STACK
        ARGFRAME XSTACK, 24, STACK
        ARGFRAME IOVERLAY, 0, STATIC
        ARGFRAME DOVERLAY, 0, STATIC
        REQUIRE ?V0
        REQUIRE ?V1
        REQUIRE ?V2
        REQUIRE ?V3
        REQUIRE ?V4
        REQUIRE ?V5
        REQUIRE ?V6
        REQUIRE ?V7
        REQUIRE ?V8
        REQUIRE ?V9
        REQUIRE ?V10
        REQUIRE ?V11
        REQUIRE ?V12
        REQUIRE ?V13
        MOV       A,#-0x16
        LCALL     ?BANKED_ENTER_XDATA
          CFI DPH0 load(1, XDATA, add(CFA_XSP16, literal(-1)))
          CFI DPL0 load(1, XDATA, add(CFA_XSP16, literal(-2)))
          CFI ?BRET_EXT load(1, XDATA, add(CFA_XSP16, literal(-3)))
          CFI ?RET_HIGH load(1, XDATA, add(CFA_XSP16, literal(-4)))
          CFI ?RET_LOW load(1, XDATA, add(CFA_XSP16, literal(-5)))
          CFI R7 load(1, XDATA, add(CFA_XSP16, literal(-6)))
          CFI V13 load(1, XDATA, add(CFA_XSP16, literal(-7)))
          CFI V12 load(1, XDATA, add(CFA_XSP16, literal(-8)))
          CFI V11 load(1, XDATA, add(CFA_XSP16, literal(-9)))
          CFI V10 load(1, XDATA, add(CFA_XSP16, literal(-10)))
          CFI V9 load(1, XDATA, add(CFA_XSP16, literal(-11)))
          CFI V8 load(1, XDATA, add(CFA_XSP16, literal(-12)))
          CFI V7 load(1, XDATA, add(CFA_XSP16, literal(-13)))
          CFI V6 load(1, XDATA, add(CFA_XSP16, literal(-14)))
          CFI V5 load(1, XDATA, add(CFA_XSP16, literal(-15)))
          CFI V4 load(1, XDATA, add(CFA_XSP16, literal(-16)))
          CFI V3 load(1, XDATA, add(CFA_XSP16, literal(-17)))
          CFI V2 load(1, XDATA, add(CFA_XSP16, literal(-18)))
          CFI V1 load(1, XDATA, add(CFA_XSP16, literal(-19)))
          CFI V0 load(1, XDATA, add(CFA_XSP16, literal(-20)))
          CFI VB load(1, XDATA, add(CFA_XSP16, literal(-21)))
          CFI R6 load(1, XDATA, add(CFA_XSP16, literal(-22)))
          CFI CFA_SP SP+0
          CFI CFA_XSP16 add(XSP16, 22)
        ; Saved register size: 22
        ; Auto size: 2
        MOV       A,#-0x2
        LCALL     ?ALLOC_XSTACK8
          CFI CFA_XSP16 add(XSP16, 24)
        MOV       ?V3,R1
        MOV       ?V12,R2
        MOV       ?V13,R3
        MOV       ?V6,R4
        MOV       ?V7,R5
// 1287   uint8 *buf;
// 1288   uint16 len = 0;
        MOV       R6,#0x0
        MOV       R7,#0x0
// 1289   ZStatus_t status;
// 1290   uint8 i;
// 1291 
// 1292   // calculate the size of the command
// 1293   for ( i = 0; i < readRspCmd->numAttr; i++ )
        MOV       ?V2,#0x0
        MOV       A,#0x18
        LCALL     ?XSTACK_DISP0_8
        MOVX      A,@DPTR
        MOV       ?V8,A
        INC       DPTR
        MOVX      A,@DPTR
        MOV       ?V9,A
        SJMP      ??zcl_SendReadRsp_0
// 1294   {
// 1295     zclReadRspStatus_t *statusRec = &(readRspCmd->attrList[i]);
// 1296 
// 1297     len += 2 + 1; // Attribute ID + Status
// 1298 
// 1299     if ( statusRec->status == ZCL_STATUS_SUCCESS )
// 1300     {
// 1301       len++; // Attribute Data Type length
// 1302 
// 1303       // Attribute Data length
// 1304       if ( statusRec->data != NULL )
// 1305       {
// 1306         len += zclGetAttrDataLength( statusRec->dataType, statusRec->data );
// 1307       }
// 1308       else
// 1309       {
// 1310         len += zclGetAttrDataLengthUsingCB( srcEP, clusterID, statusRec->attrID );
??zcl_SendReadRsp_1:
        ; Setup parameters for call to function zclGetAttrDataLengthUsingCB
        MOVX      A,@DPTR
        MOV       R4,A
        INC       DPTR
        MOVX      A,@DPTR
        MOV       R5,A
        MOV       R2,?V6
        MOV       R3,?V7
        MOV       R1,?V3
        LCALL     `??zclGetAttrDataLengthUsingCB::?relay`; Banked call to: zclGetAttrDataLengthUsingCB
??zcl_SendReadRsp_2:
        MOV       ?V1,R3
        MOV       A,R6
        ADD       A,R2
        MOV       R6,A
        MOV       A,R7
        ADDC      A,?V1
        MOV       R7,A
// 1311       }
??zcl_SendReadRsp_3:
        INC       ?V2
??zcl_SendReadRsp_0:
        MOV       DPL,?V8
        MOV       DPH,?V9
        MOVX      A,@DPTR
        MOV       R0,A
        MOV       A,?V2
        CLR       C
        SUBB      A,R0
        JNC       ??zcl_SendReadRsp_4
        MOV       A,?V2
        MOV       B,#0x6
        MUL       AB
        MOV       R0,A
        MOV       R1,B
        MOV       A,?V8
        ADD       A,R0
        MOV       DPL,A
        MOV       A,?V9
        ADDC      A,R1
        MOV       DPH,A
        INC       DPTR
        MOV       R0,DPL
        MOV       R1,DPH
        MOV       A,R6
        ADD       A,#0x3
        MOV       R6,A
        CLR       A
        ADDC      A,R7
        MOV       R7,A
        INC       DPTR
        INC       DPTR
        MOVX      A,@DPTR
        JNZ       ??zcl_SendReadRsp_3
        INC       R6
        MOV       A,R6
        JNZ       ??zcl_SendReadRsp_5
        INC       R7
??zcl_SendReadRsp_5:
        MOV       DPL,R0
        MOV       DPH,R1
        INC       DPTR
        INC       DPTR
        INC       DPTR
        INC       DPTR
        MOVX      A,@DPTR
        MOV       R2,A
        INC       DPTR
        MOVX      A,@DPTR
        MOV       R3,A
        MOV       A,R2
        ORL       A,R3
        MOV       DPL,R0
        MOV       DPH,R1
        JZ        ??zcl_SendReadRsp_1
        ; Setup parameters for call to function zclGetAttrDataLength
        INC       DPTR
        INC       DPTR
        INC       DPTR
        MOVX      A,@DPTR
        MOV       R1,A
        LCALL     `??zclGetAttrDataLength::?relay`; Banked call to: zclGetAttrDataLength
        SJMP      ??zcl_SendReadRsp_2
// 1312     }
// 1313   }
// 1314 
// 1315   buf = zcl_mem_alloc( len );
??zcl_SendReadRsp_4:
        ; Setup parameters for call to function osal_mem_alloc
        MOV       A,R6
        MOV       R2,A
        MOV       A,R7
        MOV       R3,A
        LCALL     `??osal_mem_alloc::?relay`; Banked call to: osal_mem_alloc
        MOV       ?V0,R2
        MOV       ?V1,R3
        MOV       ?V4,R2
        MOV       ?V5,R3
// 1316   if ( buf != NULL )
        MOV       A,R2
        ORL       A,R3
        JNZ       $+5
        LJMP      ??zcl_SendReadRsp_6 & 0xFFFF
// 1317   {
// 1318     // Load the buffer - serially
// 1319     uint8 *pBuf = buf;
// 1320 
// 1321     for ( i = 0; i < readRspCmd->numAttr; i++ )
        MOV       ?V2,#0x0
        SJMP      ??zcl_SendReadRsp_7
// 1322     {
// 1323       zclReadRspStatus_t *statusRec = &(readRspCmd->attrList[i]);
// 1324 
// 1325       *pBuf++ = LO_UINT16( statusRec->attrID );
// 1326       *pBuf++ = HI_UINT16( statusRec->attrID );
// 1327       *pBuf++ = statusRec->status;
// 1328 
// 1329       if ( statusRec->status == ZCL_STATUS_SUCCESS )
// 1330       {
// 1331         *pBuf++ = statusRec->dataType;
// 1332 
// 1333         if ( statusRec->data != NULL )
// 1334         {
// 1335           // Copy attribute data to the buffer to be sent out
// 1336           pBuf = zclSerializeData( statusRec->dataType, statusRec->data, pBuf );
// 1337         }
// 1338         else
// 1339         {
// 1340           uint16 dataLen;
// 1341 
// 1342           // Read attribute data directly into the buffer to be sent out
// 1343           zclReadAttrDataUsingCB( srcEP, clusterID, statusRec->attrID, pBuf, &dataLen );
??zcl_SendReadRsp_8:
        ; Setup parameters for call to function zclReadAttrDataUsingCB
        MOV       R0,?XSP + 0
        MOV       R1,?XSP + 1
        MOV       ?V10,R0
        MOV       ?V11,R1
        MOV       R0,#?V10
        LCALL     ?PUSH_XSTACK_I_TWO
          CFI CFA_XSP16 add(XSP16, 26)
        MOV       R0,#?V0
        LCALL     ?PUSH_XSTACK_I_TWO
          CFI CFA_XSP16 add(XSP16, 28)
        MOV       DPL,R2
        MOV       DPH,R3
        MOVX      A,@DPTR
        MOV       R4,A
        INC       DPTR
        MOVX      A,@DPTR
        MOV       R5,A
        MOV       R2,?V6
        MOV       R3,?V7
        MOV       R1,?V3
        LCALL     `??zclReadAttrDataUsingCB::?relay`; Banked call to: zclReadAttrDataUsingCB
        MOV       A,#0x4
        LCALL     ?DEALLOC_XSTACK8
          CFI CFA_XSP16 add(XSP16, 24)
// 1344           pBuf += dataLen;
        MOV       DPL,?XSP + 0
        MOV       DPH,?XSP + 1
        MOVX      A,@DPTR
        MOV       R0,A
        INC       DPTR
        MOVX      A,@DPTR
        MOV       R1,A
        MOV       A,?V0
        ADD       A,R0
        MOV       ?V0,A
        MOV       A,?V1
        ADDC      A,R1
        MOV       ?V1,A
// 1345         }
??zcl_SendReadRsp_9:
        INC       ?V2
??zcl_SendReadRsp_7:
        MOV       DPL,?V8
        MOV       DPH,?V9
        MOVX      A,@DPTR
        MOV       R0,A
        MOV       A,?V2
        CLR       C
        SUBB      A,R0
        JC        $+5
        LJMP      ??zcl_SendReadRsp_10 & 0xFFFF
        MOV       A,?V2
        MOV       B,#0x6
        MUL       AB
        MOV       R0,A
        MOV       R1,B
        MOV       A,?V8
        ADD       A,R0
        MOV       DPL,A
        MOV       A,?V9
        ADDC      A,R1
        MOV       DPH,A
        INC       DPTR
        MOV       R2,DPL
        MOV       R3,DPH
        MOVX      A,@DPTR
        MOV       DPL,?V0
        MOV       DPH,?V1
        MOVX      @DPTR,A
        MOV       DPL,R2
        MOV       DPH,R3
        INC       DPTR
        MOVX      A,@DPTR
        MOV       DPL,?V0
        MOV       DPH,?V1
        INC       DPTR
        MOVX      @DPTR,A
        MOV       A,R2
        ADD       A,#0x2
        MOV       R0,A
        CLR       A
        ADDC      A,R3
        MOV       R1,A
        MOV       DPL,R0
        MOV       DPH,A
        MOVX      A,@DPTR
        MOV       DPL,?V0
        MOV       DPH,?V1
        INC       DPTR
        INC       DPTR
        MOVX      @DPTR,A
        MOV       A,?V0
        ADD       A,#0x3
        MOV       ?V0,A
        JNC       ??zcl_SendReadRsp_11
        INC       ?V1
??zcl_SendReadRsp_11:
        MOV       DPL,R0
        MOV       DPH,R1
        MOVX      A,@DPTR
        JNZ       ??zcl_SendReadRsp_9
        MOV       A,R2
        ADD       A,#0x3
        INC       R0
        CLR       A
        ADDC      A,R3
        MOV       R1,A
        MOV       DPL,R0
        MOV       DPH,A
        MOVX      A,@DPTR
        MOV       DPL,?V0
        MOV       DPH,?V1
        MOVX      @DPTR,A
        INC       DPTR
        MOV       ?V0,DPL
        MOV       ?V1,DPH
        MOV       DPL,R2
        MOV       DPH,R3
        INC       DPTR
        INC       DPTR
        INC       DPTR
        INC       DPTR
        MOVX      A,@DPTR
        MOV       R4,A
        INC       DPTR
        MOVX      A,@DPTR
        MOV       DPL,R4
        MOV       DPH,A
        MOV       A,DPL
        ORL       A,DPH
        JNZ       $+5
        LJMP      ??zcl_SendReadRsp_8 & 0xFFFF
        ; Setup parameters for call to function zclSerializeData
        MOV       R4,?V0
        MOV       R5,?V1
        MOV       R2,DPL
        MOV       R3,DPH
        MOV       DPL,R0
        MOV       DPH,R1
        MOVX      A,@DPTR
        MOV       R1,A
        LCALL     `??zclSerializeData::?relay`; Banked call to: zclSerializeData
        MOV       ?V0,R2
        MOV       ?V1,R3
        LJMP      ??zcl_SendReadRsp_9 & 0xFFFF
// 1346       }
// 1347     } // for loop
// 1348 
// 1349     status = zcl_SendCommand( srcEP, dstAddr, clusterID, ZCL_CMD_READ_RSP, FALSE,
// 1350                               direction, disableDefaultRsp, 0, seqNum, len, buf );
??zcl_SendReadRsp_10:
        ; Setup parameters for call to function zcl_SendCommand
        MOV       R0,#?V4
        LCALL     ?PUSH_XSTACK_I_TWO
          CFI CFA_XSP16 add(XSP16, 26)
        MOV       ?V0,R6
        MOV       ?V1,R7
        MOV       R0,#?V0
        LCALL     ?PUSH_XSTACK_I_TWO
          CFI CFA_XSP16 add(XSP16, 28)
        MOV       A,#0x20
        LCALL     ?XSTACK_DISP0_8
        MOVX      A,@DPTR
        MOV       ?V0,A
        MOV       R0,#?V0
        LCALL     ?PUSH_XSTACK_I_ONE
          CFI CFA_XSP16 add(XSP16, 29)
        CLR       A
        MOV       ?V0,A
        MOV       ?V1,A
        MOV       R0,#?V0
        LCALL     ?PUSH_XSTACK_I_TWO
          CFI CFA_XSP16 add(XSP16, 31)
        MOV       A,#0x22
        LCALL     ?XSTACK_DISP0_8
        MOVX      A,@DPTR
        MOV       ?V0,A
        MOV       R0,#?V0
        LCALL     ?PUSH_XSTACK_I_ONE
          CFI CFA_XSP16 add(XSP16, 32)
        MOV       A,#0x22
        LCALL     ?XSTACK_DISP0_8
        MOVX      A,@DPTR
        MOV       ?V0,A
        MOV       R0,#?V0
        LCALL     ?PUSH_XSTACK_I_ONE
          CFI CFA_XSP16 add(XSP16, 33)
        MOV       ?V0,#0x0
        MOV       R0,#?V0
        LCALL     ?PUSH_XSTACK_I_ONE
          CFI CFA_XSP16 add(XSP16, 34)
        MOV       ?V0,#0x1
        MOV       R0,#?V0
        LCALL     ?PUSH_XSTACK_I_ONE
          CFI CFA_XSP16 add(XSP16, 35)
        MOV       R4,?V6
        MOV       R5,?V7
        MOV       R2,?V12
        MOV       R3,?V13
        MOV       R1,?V3
        LCALL     `??zcl_SendCommand::?relay`; Banked call to: zcl_SendCommand
        MOV       A,#0xb
        LCALL     ?DEALLOC_XSTACK8
          CFI CFA_XSP16 add(XSP16, 24)
        MOV       A,R1
        MOV       R6,A
// 1351     zcl_mem_free( buf );
        ; Setup parameters for call to function osal_mem_free
        MOV       R2,?V4
        MOV       R3,?V5
        LCALL     `??osal_mem_free::?relay`; Banked call to: osal_mem_free
        SJMP      ??zcl_SendReadRsp_12
// 1352   }
// 1353   else
// 1354   {
// 1355     status = ZMemError;
??zcl_SendReadRsp_6:
        MOV       R6,#0x10
// 1356   }
// 1357 
// 1358   return ( status );
??zcl_SendReadRsp_12:
        MOV       A,R6
        MOV       R1,A
        MOV       A,#0x2
        LCALL     ?DEALLOC_XSTACK8
          CFI CFA_XSP16 add(XSP16, 22)
        MOV       R7,#0xe
        LJMP      ?BANKED_LEAVE_XDATA
// 1359 }
          CFI EndBlock cfiBlock18
// 1360 #endif // ZCL_READ
// 1361 
// 1362 #ifdef ZCL_WRITE
// 1363 /*********************************************************************
// 1364  * @fn      sendWriteRequest
// 1365  *
// 1366  * @brief   Send a Write command
// 1367  *
// 1368  * @param   dstAddr - destination address
// 1369  * @param   clusterID - cluster ID
// 1370  * @param   writeCmd - write command to be sent
// 1371  * @param   cmd - ZCL_CMD_WRITE, ZCL_CMD_WRITE_UNDIVIDED or ZCL_CMD_WRITE_NO_RSP
// 1372  * @param   direction - direction of the command
// 1373  * @param   seqNum - transaction sequence number
// 1374  *
// 1375  * @return  ZSuccess if OK
// 1376  */

        RSEG BANKED_CODE:HUGECODE:NOROOT(0)
// 1377 ZStatus_t zcl_SendWriteRequest( uint8 srcEP, afAddrType_t *dstAddr, uint16 clusterID,
zcl_SendWriteRequest:
          CFI Block cfiBlock19 Using cfiCommon0
          CFI Function zcl_SendWriteRequest
        CODE
// 1378                                 zclWriteCmd_t *writeCmd, uint8 cmd, uint8 direction,
// 1379                                 uint8 disableDefaultRsp, uint8 seqNum )
// 1380 {
        FUNCALL zcl_SendWriteRequest, zclGetAttrDataLength
        LOCFRAME ISTACK, 0, STACK
        LOCFRAME PSTACK, 0, STACK
        LOCFRAME XSTACK, 22, STACK
        LOCFRAME IOVERLAY, 0, STATIC
        LOCFRAME DOVERLAY, 0, STATIC
        ARGFRAME ISTACK, 0, STACK
        ARGFRAME PSTACK, 0, STACK
        ARGFRAME XSTACK, 22, STACK
        ARGFRAME IOVERLAY, 0, STATIC
        ARGFRAME DOVERLAY, 0, STATIC
        FUNCALL zcl_SendWriteRequest, osal_mem_alloc
        LOCFRAME ISTACK, 0, STACK
        LOCFRAME PSTACK, 0, STACK
        LOCFRAME XSTACK, 22, STACK
        LOCFRAME IOVERLAY, 0, STATIC
        LOCFRAME DOVERLAY, 0, STATIC
        ARGFRAME ISTACK, 0, STACK
        ARGFRAME PSTACK, 0, STACK
        ARGFRAME XSTACK, 22, STACK
        ARGFRAME IOVERLAY, 0, STATIC
        ARGFRAME DOVERLAY, 0, STATIC
        FUNCALL zcl_SendWriteRequest, zclSerializeData
        LOCFRAME ISTACK, 0, STACK
        LOCFRAME PSTACK, 0, STACK
        LOCFRAME XSTACK, 22, STACK
        LOCFRAME IOVERLAY, 0, STATIC
        LOCFRAME DOVERLAY, 0, STATIC
        ARGFRAME ISTACK, 0, STACK
        ARGFRAME PSTACK, 0, STACK
        ARGFRAME XSTACK, 22, STACK
        ARGFRAME IOVERLAY, 0, STATIC
        ARGFRAME DOVERLAY, 0, STATIC
        FUNCALL zcl_SendWriteRequest, zcl_SendCommand
        LOCFRAME ISTACK, 0, STACK
        LOCFRAME PSTACK, 0, STACK
        LOCFRAME XSTACK, 33, STACK
        LOCFRAME IOVERLAY, 0, STATIC
        LOCFRAME DOVERLAY, 0, STATIC
        ARGFRAME ISTACK, 0, STACK
        ARGFRAME PSTACK, 0, STACK
        ARGFRAME XSTACK, 33, STACK
        ARGFRAME IOVERLAY, 0, STATIC
        ARGFRAME DOVERLAY, 0, STATIC
        FUNCALL zcl_SendWriteRequest, osal_mem_free
        LOCFRAME ISTACK, 0, STACK
        LOCFRAME PSTACK, 0, STACK
        LOCFRAME XSTACK, 22, STACK
        LOCFRAME IOVERLAY, 0, STATIC
        LOCFRAME DOVERLAY, 0, STATIC
        ARGFRAME ISTACK, 0, STACK
        ARGFRAME PSTACK, 0, STACK
        ARGFRAME XSTACK, 22, STACK
        ARGFRAME IOVERLAY, 0, STATIC
        ARGFRAME DOVERLAY, 0, STATIC
        REQUIRE ?V0
        REQUIRE ?V1
        REQUIRE ?V2
        REQUIRE ?V3
        REQUIRE ?V4
        REQUIRE ?V5
        REQUIRE ?V6
        REQUIRE ?V7
        REQUIRE ?V8
        REQUIRE ?V9
        REQUIRE ?V10
        REQUIRE ?V11
        REQUIRE ?V12
        REQUIRE ?V13
        MOV       A,#-0x16
        LCALL     ?BANKED_ENTER_XDATA
          CFI DPH0 load(1, XDATA, add(CFA_XSP16, literal(-1)))
          CFI DPL0 load(1, XDATA, add(CFA_XSP16, literal(-2)))
          CFI ?BRET_EXT load(1, XDATA, add(CFA_XSP16, literal(-3)))
          CFI ?RET_HIGH load(1, XDATA, add(CFA_XSP16, literal(-4)))
          CFI ?RET_LOW load(1, XDATA, add(CFA_XSP16, literal(-5)))
          CFI R7 load(1, XDATA, add(CFA_XSP16, literal(-6)))
          CFI V13 load(1, XDATA, add(CFA_XSP16, literal(-7)))
          CFI V12 load(1, XDATA, add(CFA_XSP16, literal(-8)))
          CFI V11 load(1, XDATA, add(CFA_XSP16, literal(-9)))
          CFI V10 load(1, XDATA, add(CFA_XSP16, literal(-10)))
          CFI V9 load(1, XDATA, add(CFA_XSP16, literal(-11)))
          CFI V8 load(1, XDATA, add(CFA_XSP16, literal(-12)))
          CFI V7 load(1, XDATA, add(CFA_XSP16, literal(-13)))
          CFI V6 load(1, XDATA, add(CFA_XSP16, literal(-14)))
          CFI V5 load(1, XDATA, add(CFA_XSP16, literal(-15)))
          CFI V4 load(1, XDATA, add(CFA_XSP16, literal(-16)))
          CFI V3 load(1, XDATA, add(CFA_XSP16, literal(-17)))
          CFI V2 load(1, XDATA, add(CFA_XSP16, literal(-18)))
          CFI V1 load(1, XDATA, add(CFA_XSP16, literal(-19)))
          CFI V0 load(1, XDATA, add(CFA_XSP16, literal(-20)))
          CFI VB load(1, XDATA, add(CFA_XSP16, literal(-21)))
          CFI R6 load(1, XDATA, add(CFA_XSP16, literal(-22)))
          CFI CFA_SP SP+0
          CFI CFA_XSP16 add(XSP16, 22)
        ; Saved register size: 22
        ; Auto size: 0
        MOV       ?V3,R1
        MOV       ?V8,R2
        MOV       ?V9,R3
        MOV       ?V6,R4
        MOV       ?V7,R5
// 1381   uint8 *buf;
// 1382   uint16 dataLen = 0;
        MOV       R6,#0x0
        MOV       R7,#0x0
// 1383   ZStatus_t status;
// 1384   uint8 i;
// 1385 
// 1386   for ( i = 0; i < writeCmd->numAttr; i++ )
        MOV       ?V2,#0x0
        MOV       A,#0x16
        LCALL     ?XSTACK_DISP0_8
        MOVX      A,@DPTR
        MOV       ?V4,A
        INC       DPTR
        MOVX      A,@DPTR
        MOV       ?V5,A
        SJMP      ??zcl_SendWriteRequest_0
// 1387   {
// 1388     zclWriteRec_t *statusRec = &(writeCmd->attrList[i]);
??zcl_SendWriteRequest_1:
        MOV       A,?V2
        MOV       B,#0x5
        MUL       AB
        MOV       R0,A
        MOV       R1,B
        MOV       A,?V4
        ADD       A,R0
        MOV       DPL,A
        MOV       A,?V5
        ADDC      A,R1
        MOV       DPH,A
        INC       DPTR
        MOV       R0,DPL
        MOV       R1,DPH
// 1389 
// 1390     dataLen += 2 + 1; // Attribute ID + Attribute Type
// 1391 
// 1392     // Attribute Data
// 1393     dataLen += zclGetAttrDataLength( statusRec->dataType, statusRec->attrData );
        ; Setup parameters for call to function zclGetAttrDataLength
        INC       DPTR
        INC       DPTR
        INC       DPTR
        MOVX      A,@DPTR
        MOV       R2,A
        INC       DPTR
        MOVX      A,@DPTR
        MOV       R3,A
        MOV       DPL,R0
        MOV       DPH,R1
        INC       DPTR
        INC       DPTR
        MOVX      A,@DPTR
        MOV       R1,A
        LCALL     `??zclGetAttrDataLength::?relay`; Banked call to: zclGetAttrDataLength
        MOV       ?V1,R3
        MOV       A,R2
        ADD       A,#0x3
        MOV       R0,A
        CLR       A
        ADDC      A,?V1
        MOV       R1,A
        MOV       A,R6
        ADD       A,R0
        MOV       R6,A
        MOV       A,R7
        ADDC      A,R1
        MOV       R7,A
// 1394   }
        INC       ?V2
??zcl_SendWriteRequest_0:
        MOV       DPL,?V4
        MOV       DPH,?V5
        MOVX      A,@DPTR
        MOV       R0,A
        MOV       A,?V2
        CLR       C
        SUBB      A,R0
        JC        ??zcl_SendWriteRequest_1
// 1395 
// 1396   buf = zcl_mem_alloc( dataLen );
        ; Setup parameters for call to function osal_mem_alloc
        MOV       A,R6
        MOV       R2,A
        MOV       A,R7
        MOV       R3,A
        LCALL     `??osal_mem_alloc::?relay`; Banked call to: osal_mem_alloc
        MOV       ?V0,R2
        MOV       ?V1,R3
// 1397   if ( buf != NULL )
        MOV       A,R2
        ORL       A,R3
        JNZ       $+5
        LJMP      ??zcl_SendWriteRequest_2 & 0xFFFF
// 1398   {
// 1399     // Load the buffer - serially
// 1400     uint8 *pBuf = buf;
        MOV       R0,?V0
        MOV       R1,?V1
// 1401     for ( i = 0; i < writeCmd->numAttr; i++ )
        MOV       ?V2,#0x0
        SJMP      ??zcl_SendWriteRequest_3
// 1402     {
// 1403       zclWriteRec_t *statusRec = &(writeCmd->attrList[i]);
??zcl_SendWriteRequest_4:
        MOV       A,?V2
        MOV       B,#0x5
        MUL       AB
        MOV       R2,A
        MOV       R3,B
        MOV       A,?V4
        ADD       A,R2
        MOV       DPL,A
        MOV       A,?V5
        ADDC      A,R3
        MOV       DPH,A
        INC       DPTR
        MOV       ?V12,DPL
        MOV       ?V13,DPH
// 1404 
// 1405       *pBuf++ = LO_UINT16( statusRec->attrID );
        MOVX      A,@DPTR
        MOV       DPL,R0
        MOV       DPH,R1
        MOVX      @DPTR,A
// 1406       *pBuf++ = HI_UINT16( statusRec->attrID );
        MOV       DPL,?V12
        MOV       DPH,?V13
        INC       DPTR
        MOVX      A,@DPTR
        MOV       DPL,R0
        MOV       DPH,R1
        INC       DPTR
        MOVX      @DPTR,A
// 1407       *pBuf++ = statusRec->dataType;
        MOV       A,?V12
        ADD       A,#0x2
        MOV       R2,A
        CLR       A
        ADDC      A,?V13
        MOV       ?V10,R2
        MOV       ?V11,A
        MOV       DPL,R2
        MOV       DPH,A
        MOVX      A,@DPTR
        MOV       DPL,R0
        MOV       DPH,R1
        INC       DPTR
        INC       DPTR
        MOVX      @DPTR,A
// 1408 
// 1409       pBuf = zclSerializeData( statusRec->dataType, statusRec->attrData, pBuf );
        ; Setup parameters for call to function zclSerializeData
        MOV       A,R0
        ADD       A,#0x3
        MOV       R4,A
        CLR       A
        ADDC      A,R1
        MOV       R5,A
        MOV       DPL,?V12
        MOV       DPH,?V13
        INC       DPTR
        INC       DPTR
        INC       DPTR
        MOVX      A,@DPTR
        MOV       R2,A
        INC       DPTR
        MOVX      A,@DPTR
        MOV       R3,A
        MOV       DPL,?V10
        MOV       DPH,?V11
        MOVX      A,@DPTR
        MOV       R1,A
        LCALL     `??zclSerializeData::?relay`; Banked call to: zclSerializeData
        MOV       ?V10,R2
        MOV       ?V11,R3
        MOV       R0,?V10
        MOV       R1,?V11
// 1410     }
        INC       ?V2
??zcl_SendWriteRequest_3:
        MOV       DPL,?V4
        MOV       DPH,?V5
        MOVX      A,@DPTR
        MOV       R2,A
        MOV       A,?V2
        CLR       C
        SUBB      A,R2
        JC        ??zcl_SendWriteRequest_4
// 1411 
// 1412     status = zcl_SendCommand( srcEP, dstAddr, clusterID, cmd, FALSE,
// 1413                               direction, disableDefaultRsp, 0, seqNum, dataLen, buf );
        ; Setup parameters for call to function zcl_SendCommand
        MOV       R0,#?V0
        LCALL     ?PUSH_XSTACK_I_TWO
          CFI CFA_XSP16 add(XSP16, 24)
        MOV       ?V4,R6
        MOV       ?V5,R7
        MOV       R0,#?V4
        LCALL     ?PUSH_XSTACK_I_TWO
          CFI CFA_XSP16 add(XSP16, 26)
        MOV       A,#0x1f
        LCALL     ?XSTACK_DISP0_8
        MOVX      A,@DPTR
        MOV       ?V2,A
        MOV       R0,#?V2
        LCALL     ?PUSH_XSTACK_I_ONE
          CFI CFA_XSP16 add(XSP16, 27)
        CLR       A
        MOV       ?V4,A
        MOV       ?V5,A
        MOV       R0,#?V4
        LCALL     ?PUSH_XSTACK_I_TWO
          CFI CFA_XSP16 add(XSP16, 29)
        MOV       A,#0x21
        LCALL     ?XSTACK_DISP0_8
        MOVX      A,@DPTR
        MOV       ?V2,A
        MOV       R0,#?V2
        LCALL     ?PUSH_XSTACK_I_ONE
          CFI CFA_XSP16 add(XSP16, 30)
        MOV       A,#0x21
        LCALL     ?XSTACK_DISP0_8
        MOVX      A,@DPTR
        MOV       ?V2,A
        MOV       R0,#?V2
        LCALL     ?PUSH_XSTACK_I_ONE
          CFI CFA_XSP16 add(XSP16, 31)
        MOV       ?V2,#0x0
        MOV       R0,#?V2
        LCALL     ?PUSH_XSTACK_I_ONE
          CFI CFA_XSP16 add(XSP16, 32)
        MOV       A,#0x22
        LCALL     ?XSTACK_DISP0_8
        MOVX      A,@DPTR
        MOV       ?V2,A
        MOV       R0,#?V2
        LCALL     ?PUSH_XSTACK_I_ONE
          CFI CFA_XSP16 add(XSP16, 33)
        MOV       R4,?V6
        MOV       R5,?V7
        MOV       R2,?V8
        MOV       R3,?V9
        MOV       R1,?V3
        LCALL     `??zcl_SendCommand::?relay`; Banked call to: zcl_SendCommand
        MOV       A,#0xb
        LCALL     ?DEALLOC_XSTACK8
          CFI CFA_XSP16 add(XSP16, 22)
        MOV       A,R1
        MOV       R6,A
// 1414     zcl_mem_free( buf );
        ; Setup parameters for call to function osal_mem_free
        MOV       R2,?V0
        MOV       R3,?V1
        LCALL     `??osal_mem_free::?relay`; Banked call to: osal_mem_free
        SJMP      ??zcl_SendWriteRequest_5
// 1415   }
// 1416   else
// 1417   {
// 1418     status = ZMemError;
??zcl_SendWriteRequest_2:
        MOV       R6,#0x10
// 1419   }
// 1420 
// 1421   return ( status);
??zcl_SendWriteRequest_5:
        MOV       A,R6
        MOV       R1,A
        MOV       R7,#0xe
        LJMP      ?BANKED_LEAVE_XDATA
// 1422 }
          CFI EndBlock cfiBlock19
// 1423 
// 1424 /*********************************************************************
// 1425  * @fn      zcl_SendWriteRsp
// 1426  *
// 1427  * @brief   Send a Write Response command
// 1428  *
// 1429  * @param   dstAddr - destination address
// 1430  * @param   clusterID - cluster ID
// 1431  * @param   wrtieRspCmd - write response command to be sent
// 1432  * @param   direction - direction of the command
// 1433  * @param   seqNum - transaction sequence number
// 1434  *
// 1435  * @return  ZSuccess if OK
// 1436  */

        RSEG BANKED_CODE:HUGECODE:NOROOT(0)
// 1437 ZStatus_t zcl_SendWriteRsp( uint8 srcEP, afAddrType_t *dstAddr,
zcl_SendWriteRsp:
          CFI Block cfiBlock20 Using cfiCommon0
          CFI Function zcl_SendWriteRsp
        CODE
// 1438                             uint16 clusterID, zclWriteRspCmd_t *writeRspCmd,
// 1439                             uint8 direction, uint8 disableDefaultRsp, uint8 seqNum )
// 1440 {
        FUNCALL zcl_SendWriteRsp, osal_mem_alloc
        LOCFRAME ISTACK, 0, STACK
        LOCFRAME PSTACK, 0, STACK
        LOCFRAME XSTACK, 20, STACK
        LOCFRAME IOVERLAY, 0, STATIC
        LOCFRAME DOVERLAY, 0, STATIC
        ARGFRAME ISTACK, 0, STACK
        ARGFRAME PSTACK, 0, STACK
        ARGFRAME XSTACK, 20, STACK
        ARGFRAME IOVERLAY, 0, STATIC
        ARGFRAME DOVERLAY, 0, STATIC
        FUNCALL zcl_SendWriteRsp, zcl_SendCommand
        LOCFRAME ISTACK, 0, STACK
        LOCFRAME PSTACK, 0, STACK
        LOCFRAME XSTACK, 31, STACK
        LOCFRAME IOVERLAY, 0, STATIC
        LOCFRAME DOVERLAY, 0, STATIC
        ARGFRAME ISTACK, 0, STACK
        ARGFRAME PSTACK, 0, STACK
        ARGFRAME XSTACK, 31, STACK
        ARGFRAME IOVERLAY, 0, STATIC
        ARGFRAME DOVERLAY, 0, STATIC
        FUNCALL zcl_SendWriteRsp, osal_mem_free
        LOCFRAME ISTACK, 0, STACK
        LOCFRAME PSTACK, 0, STACK
        LOCFRAME XSTACK, 20, STACK
        LOCFRAME IOVERLAY, 0, STATIC
        LOCFRAME DOVERLAY, 0, STATIC
        ARGFRAME ISTACK, 0, STACK
        ARGFRAME PSTACK, 0, STACK
        ARGFRAME XSTACK, 20, STACK
        ARGFRAME IOVERLAY, 0, STATIC
        ARGFRAME DOVERLAY, 0, STATIC
        REQUIRE ?V0
        REQUIRE ?V1
        REQUIRE ?V2
        REQUIRE ?V3
        REQUIRE ?V4
        REQUIRE ?V5
        REQUIRE ?V6
        REQUIRE ?V7
        REQUIRE ?V8
        REQUIRE ?V9
        REQUIRE ?V10
        REQUIRE ?V11
        MOV       A,#-0x14
        LCALL     ?BANKED_ENTER_XDATA
          CFI DPH0 load(1, XDATA, add(CFA_XSP16, literal(-1)))
          CFI DPL0 load(1, XDATA, add(CFA_XSP16, literal(-2)))
          CFI ?BRET_EXT load(1, XDATA, add(CFA_XSP16, literal(-3)))
          CFI ?RET_HIGH load(1, XDATA, add(CFA_XSP16, literal(-4)))
          CFI ?RET_LOW load(1, XDATA, add(CFA_XSP16, literal(-5)))
          CFI R7 load(1, XDATA, add(CFA_XSP16, literal(-6)))
          CFI V11 load(1, XDATA, add(CFA_XSP16, literal(-7)))
          CFI V10 load(1, XDATA, add(CFA_XSP16, literal(-8)))
          CFI V9 load(1, XDATA, add(CFA_XSP16, literal(-9)))
          CFI V8 load(1, XDATA, add(CFA_XSP16, literal(-10)))
          CFI V7 load(1, XDATA, add(CFA_XSP16, literal(-11)))
          CFI V6 load(1, XDATA, add(CFA_XSP16, literal(-12)))
          CFI V5 load(1, XDATA, add(CFA_XSP16, literal(-13)))
          CFI V4 load(1, XDATA, add(CFA_XSP16, literal(-14)))
          CFI V3 load(1, XDATA, add(CFA_XSP16, literal(-15)))
          CFI V2 load(1, XDATA, add(CFA_XSP16, literal(-16)))
          CFI V1 load(1, XDATA, add(CFA_XSP16, literal(-17)))
          CFI V0 load(1, XDATA, add(CFA_XSP16, literal(-18)))
          CFI VB load(1, XDATA, add(CFA_XSP16, literal(-19)))
          CFI R6 load(1, XDATA, add(CFA_XSP16, literal(-20)))
          CFI CFA_SP SP+0
          CFI CFA_XSP16 add(XSP16, 20)
        ; Saved register size: 20
        ; Auto size: 0
        MOV       ?V2,R1
        MOV       ?V8,R2
        MOV       ?V9,R3
        MOV       A,R4
        MOV       R6,A
        MOV       A,R5
        MOV       R7,A
        MOV       A,#0x14
        LCALL     ?XSTACK_DISP0_8
        MOVX      A,@DPTR
        MOV       ?V4,A
        INC       DPTR
        MOVX      A,@DPTR
        MOV       ?V5,A
// 1441   uint16 dataLen;
// 1442   uint8 *buf;
// 1443   ZStatus_t status;
// 1444 
// 1445   dataLen = writeRspCmd->numAttr * ( 1 + 2 ); // status + attribute id
        MOV       DPL,?V4
        MOV       DPH,A
        MOVX      A,@DPTR
        MOV       B,#0x3
        MUL       AB
        MOV       ?V6,A
        MOV       A,B
        MOV       ?V7,A
// 1446 
// 1447   buf = zcl_mem_alloc( dataLen );
        ; Setup parameters for call to function osal_mem_alloc
        MOV       R2,?V6
        MOV       R3,A
        LCALL     `??osal_mem_alloc::?relay`; Banked call to: osal_mem_alloc
        MOV       ?V0,R2
        MOV       ?V1,R3
// 1448   if ( buf != NULL )
        MOV       A,R2
        ORL       A,R3
        JNZ       $+5
        LJMP      ??zcl_SendWriteRsp_0 & 0xFFFF
// 1449   {
// 1450     // Load the buffer - serially
// 1451     uint8 i;
// 1452     uint8 *pBuf = buf;
        MOV       R0,?V0
        MOV       R1,?V1
// 1453     for ( i = 0; i < writeRspCmd->numAttr; i++ )
        MOV       R4,#0x0
        SJMP      ??zcl_SendWriteRsp_1
// 1454     {
// 1455       *pBuf++ = writeRspCmd->attrList[i].status;
??zcl_SendWriteRsp_2:
        MOV       A,R4
        MOV       B,#0x3
        MUL       AB
        MOV       R2,A
        MOV       R3,B
        MOV       A,?V4
        ADD       A,R2
        MOV       R2,A
        MOV       A,?V5
        ADDC      A,R3
        MOV       R3,A
        MOV       DPL,R2
        MOV       DPH,A
        INC       DPTR
        MOVX      A,@DPTR
        MOV       DPL,R0
        MOV       DPH,R1
        MOVX      @DPTR,A
// 1456       *pBuf++ = LO_UINT16( writeRspCmd->attrList[i].attrID );
        MOV       A,R2
        ADD       A,#0x2
        MOV       R2,A
        JNC       ??zcl_SendWriteRsp_3
        INC       R3
??zcl_SendWriteRsp_3:
        MOV       DPL,A
        MOV       DPH,R3
        MOVX      A,@DPTR
        MOV       DPL,R0
        MOV       DPH,R1
        INC       DPTR
        MOVX      @DPTR,A
// 1457       *pBuf++ = HI_UINT16( writeRspCmd->attrList[i].attrID );
        MOV       DPL,R2
        MOV       DPH,R3
        INC       DPTR
        MOVX      A,@DPTR
        MOV       DPL,R0
        MOV       DPH,R1
        INC       DPTR
        INC       DPTR
        MOVX      @DPTR,A
        MOV       A,R0
        ADD       A,#0x3
        MOV       R0,A
        JNC       ??zcl_SendWriteRsp_4
        INC       R1
// 1458     }
??zcl_SendWriteRsp_4:
        INC       R4
??zcl_SendWriteRsp_1:
        MOV       DPL,?V4
        MOV       DPH,?V5
        MOVX      A,@DPTR
        MOV       R2,A
        MOV       A,R4
        CLR       C
        SUBB      A,R2
        JC        ??zcl_SendWriteRsp_2
// 1459 
// 1460     // If there's only a single status record and its status field is set to
// 1461     // SUCCESS then omit the attribute ID field.
// 1462     if ( writeRspCmd->numAttr == 1 && writeRspCmd->attrList[0].status == ZCL_STATUS_SUCCESS )
        MOV       A,#0x1
        XRL       A,R2
        JNZ       ??zcl_SendWriteRsp_5
        INC       DPTR
        MOVX      A,@DPTR
        JNZ       ??zcl_SendWriteRsp_5
// 1463     {
// 1464       dataLen = 1;
        MOV       ?V6,#0x1
        MOV       ?V7,#0x0
// 1465     }
// 1466 
// 1467     status = zcl_SendCommand( srcEP, dstAddr, clusterID, ZCL_CMD_WRITE_RSP, FALSE,
// 1468                               direction, disableDefaultRsp, 0, seqNum, dataLen, buf );
??zcl_SendWriteRsp_5:
        ; Setup parameters for call to function zcl_SendCommand
        MOV       R0,#?V0
        LCALL     ?PUSH_XSTACK_I_TWO
          CFI CFA_XSP16 add(XSP16, 22)
        MOV       R0,#?V6
        LCALL     ?PUSH_XSTACK_I_TWO
          CFI CFA_XSP16 add(XSP16, 24)
        MOV       A,#0x1c
        LCALL     ?XSTACK_DISP0_8
        MOVX      A,@DPTR
        MOV       ?V3,A
        MOV       R0,#?V3
        LCALL     ?PUSH_XSTACK_I_ONE
          CFI CFA_XSP16 add(XSP16, 25)
        CLR       A
        MOV       ?V4,A
        MOV       ?V5,A
        MOV       R0,#?V4
        LCALL     ?PUSH_XSTACK_I_TWO
          CFI CFA_XSP16 add(XSP16, 27)
        MOV       A,#0x1e
        LCALL     ?XSTACK_DISP0_8
        MOVX      A,@DPTR
        MOV       ?V3,A
        MOV       R0,#?V3
        LCALL     ?PUSH_XSTACK_I_ONE
          CFI CFA_XSP16 add(XSP16, 28)
        MOV       A,#0x1e
        LCALL     ?XSTACK_DISP0_8
        MOVX      A,@DPTR
        MOV       ?V3,A
        MOV       R0,#?V3
        LCALL     ?PUSH_XSTACK_I_ONE
          CFI CFA_XSP16 add(XSP16, 29)
        MOV       ?V3,#0x0
        MOV       R0,#?V3
        LCALL     ?PUSH_XSTACK_I_ONE
          CFI CFA_XSP16 add(XSP16, 30)
        MOV       ?V3,#0x4
        MOV       R0,#?V3
        LCALL     ?PUSH_XSTACK_I_ONE
          CFI CFA_XSP16 add(XSP16, 31)
        MOV       A,R6
        MOV       R4,A
        MOV       A,R7
        MOV       R5,A
        MOV       R2,?V8
        MOV       R3,?V9
        MOV       R1,?V2
        LCALL     `??zcl_SendCommand::?relay`; Banked call to: zcl_SendCommand
        MOV       A,#0xb
        LCALL     ?DEALLOC_XSTACK8
          CFI CFA_XSP16 add(XSP16, 20)
        MOV       A,R1
        MOV       R6,A
// 1469     zcl_mem_free( buf );
        ; Setup parameters for call to function osal_mem_free
        MOV       R2,?V0
        MOV       R3,?V1
        LCALL     `??osal_mem_free::?relay`; Banked call to: osal_mem_free
        SJMP      ??zcl_SendWriteRsp_6
// 1470   }
// 1471   else
// 1472   {
// 1473     status = ZMemError;
??zcl_SendWriteRsp_0:
        MOV       R6,#0x10
// 1474   }
// 1475 
// 1476   return ( status );
??zcl_SendWriteRsp_6:
        MOV       A,R6
        MOV       R1,A
        MOV       R7,#0xc
        LJMP      ?BANKED_LEAVE_XDATA
// 1477 }
          CFI EndBlock cfiBlock20
// 1478 #endif // ZCL_WRITE
// 1479 
// 1480 #ifdef ZCL_REPORT_CONFIGURING_DEVICE
// 1481 /*********************************************************************
// 1482  * @fn      zcl_SendConfigReportCmd
// 1483  *
// 1484  * @brief   Send a Configure Reporting command
// 1485  *
// 1486  * @param   dstAddr - destination address
// 1487  * @param   clusterID - cluster ID
// 1488  * @param   cfgReportCmd - configure reporting command to be sent
// 1489  * @param   direction - direction of the command
// 1490  * @param   seqNum - transaction sequence number
// 1491  *
// 1492  * @return  ZSuccess if OK
// 1493  */
// 1494 ZStatus_t zcl_SendConfigReportCmd( uint8 srcEP, afAddrType_t *dstAddr,
// 1495                           uint16 clusterID, zclCfgReportCmd_t *cfgReportCmd,
// 1496                           uint8 direction, uint8 disableDefaultRsp, uint8 seqNum )
// 1497 {
// 1498   uint8 *buf;
// 1499   uint16 dataLen = 0;
// 1500   ZStatus_t status;
// 1501   uint8 i;
// 1502 
// 1503   // Find out the data length
// 1504   for ( i = 0; i < cfgReportCmd->numAttr; i++ )
// 1505   {
// 1506     zclCfgReportRec_t *reportRec = &(cfgReportCmd->attrList[i]);
// 1507 
// 1508     dataLen += 1 + 2; // Direction + Attribute ID
// 1509 
// 1510     if ( reportRec->direction == ZCL_SEND_ATTR_REPORTS )
// 1511     {
// 1512       dataLen += 1 + 2 + 2; // Data Type + Min + Max Reporting Intervals
// 1513 
// 1514       // Find out the size of the Reportable Change field (for Analog data types)
// 1515       if ( zclAnalogDataType( reportRec->dataType ) )
// 1516       {
// 1517         dataLen += zclGetDataTypeLength( reportRec->dataType );
// 1518       }
// 1519     }
// 1520     else
// 1521     {
// 1522       dataLen += 2; // Timeout Period
// 1523     }
// 1524   }
// 1525 
// 1526   buf = zcl_mem_alloc( dataLen );
// 1527   if ( buf != NULL )
// 1528   {
// 1529     // Load the buffer - serially
// 1530     uint8 *pBuf = buf;
// 1531 
// 1532     for ( i = 0; i < cfgReportCmd->numAttr; i++ )
// 1533     {
// 1534       zclCfgReportRec_t *reportRec = &(cfgReportCmd->attrList[i]);
// 1535 
// 1536       *pBuf++ = reportRec->direction;
// 1537       *pBuf++ = LO_UINT16( reportRec->attrID );
// 1538       *pBuf++ = HI_UINT16( reportRec->attrID );
// 1539 
// 1540       if ( reportRec->direction == ZCL_SEND_ATTR_REPORTS )
// 1541       {
// 1542         *pBuf++ = reportRec->dataType;
// 1543         *pBuf++ = LO_UINT16( reportRec->minReportInt );
// 1544         *pBuf++ = HI_UINT16( reportRec->minReportInt );
// 1545         *pBuf++ = LO_UINT16( reportRec->maxReportInt );
// 1546         *pBuf++ = HI_UINT16( reportRec->maxReportInt );
// 1547 
// 1548         if ( zclAnalogDataType( reportRec->dataType ) )
// 1549         {
// 1550           pBuf = zclSerializeData( reportRec->dataType, reportRec->reportableChange, pBuf );
// 1551         }
// 1552       }
// 1553       else
// 1554       {
// 1555         *pBuf++ = LO_UINT16( reportRec->timeoutPeriod );
// 1556         *pBuf++ = HI_UINT16( reportRec->timeoutPeriod );
// 1557       }
// 1558     } // for loop
// 1559 
// 1560     status = zcl_SendCommand( srcEP, dstAddr, clusterID, ZCL_CMD_CONFIG_REPORT, FALSE,
// 1561                               direction, disableDefaultRsp, 0, seqNum, dataLen, buf );
// 1562     zcl_mem_free( buf );
// 1563   }
// 1564   else
// 1565   {
// 1566     status = ZMemError;
// 1567   }
// 1568 
// 1569   return ( status );
// 1570 }
// 1571 #endif
// 1572 
// 1573 #ifdef ZCL_REPORTING_DEVICE
// 1574 /*********************************************************************
// 1575  * @fn      zcl_SendConfigReportRspCmd
// 1576  *
// 1577  * @brief   Send a Configure Reporting Response command
// 1578  *
// 1579  * @param   dstAddr - destination address
// 1580  * @param   clusterID - cluster ID
// 1581  * @param   cfgReportRspCmd - configure reporting response command to be sent
// 1582  * @param   direction - direction of the command
// 1583  * @param   seqNum - transaction sequence number
// 1584  *
// 1585  * @return  ZSuccess if OK
// 1586  */

        RSEG BANKED_CODE:HUGECODE:NOROOT(0)
// 1587 ZStatus_t zcl_SendConfigReportRspCmd( uint8 srcEP, afAddrType_t *dstAddr,
zcl_SendConfigReportRspCmd:
          CFI Block cfiBlock21 Using cfiCommon0
          CFI Function zcl_SendConfigReportRspCmd
        CODE
// 1588                     uint16 clusterID, zclCfgReportRspCmd_t *cfgReportRspCmd,
// 1589                     uint8 direction, uint8 disableDefaultRsp, uint8 seqNum )
// 1590 {
        FUNCALL zcl_SendConfigReportRspCmd, osal_mem_alloc
        LOCFRAME ISTACK, 0, STACK
        LOCFRAME PSTACK, 0, STACK
        LOCFRAME XSTACK, 20, STACK
        LOCFRAME IOVERLAY, 0, STATIC
        LOCFRAME DOVERLAY, 0, STATIC
        ARGFRAME ISTACK, 0, STACK
        ARGFRAME PSTACK, 0, STACK
        ARGFRAME XSTACK, 20, STACK
        ARGFRAME IOVERLAY, 0, STATIC
        ARGFRAME DOVERLAY, 0, STATIC
        FUNCALL zcl_SendConfigReportRspCmd, zcl_SendCommand
        LOCFRAME ISTACK, 0, STACK
        LOCFRAME PSTACK, 0, STACK
        LOCFRAME XSTACK, 31, STACK
        LOCFRAME IOVERLAY, 0, STATIC
        LOCFRAME DOVERLAY, 0, STATIC
        ARGFRAME ISTACK, 0, STACK
        ARGFRAME PSTACK, 0, STACK
        ARGFRAME XSTACK, 31, STACK
        ARGFRAME IOVERLAY, 0, STATIC
        ARGFRAME DOVERLAY, 0, STATIC
        FUNCALL zcl_SendConfigReportRspCmd, osal_mem_free
        LOCFRAME ISTACK, 0, STACK
        LOCFRAME PSTACK, 0, STACK
        LOCFRAME XSTACK, 20, STACK
        LOCFRAME IOVERLAY, 0, STATIC
        LOCFRAME DOVERLAY, 0, STATIC
        ARGFRAME ISTACK, 0, STACK
        ARGFRAME PSTACK, 0, STACK
        ARGFRAME XSTACK, 20, STACK
        ARGFRAME IOVERLAY, 0, STATIC
        ARGFRAME DOVERLAY, 0, STATIC
        REQUIRE ?V0
        REQUIRE ?V1
        REQUIRE ?V2
        REQUIRE ?V3
        REQUIRE ?V4
        REQUIRE ?V5
        REQUIRE ?V6
        REQUIRE ?V7
        REQUIRE ?V8
        REQUIRE ?V9
        REQUIRE ?V10
        REQUIRE ?V11
        MOV       A,#-0x14
        LCALL     ?BANKED_ENTER_XDATA
          CFI DPH0 load(1, XDATA, add(CFA_XSP16, literal(-1)))
          CFI DPL0 load(1, XDATA, add(CFA_XSP16, literal(-2)))
          CFI ?BRET_EXT load(1, XDATA, add(CFA_XSP16, literal(-3)))
          CFI ?RET_HIGH load(1, XDATA, add(CFA_XSP16, literal(-4)))
          CFI ?RET_LOW load(1, XDATA, add(CFA_XSP16, literal(-5)))
          CFI R7 load(1, XDATA, add(CFA_XSP16, literal(-6)))
          CFI V11 load(1, XDATA, add(CFA_XSP16, literal(-7)))
          CFI V10 load(1, XDATA, add(CFA_XSP16, literal(-8)))
          CFI V9 load(1, XDATA, add(CFA_XSP16, literal(-9)))
          CFI V8 load(1, XDATA, add(CFA_XSP16, literal(-10)))
          CFI V7 load(1, XDATA, add(CFA_XSP16, literal(-11)))
          CFI V6 load(1, XDATA, add(CFA_XSP16, literal(-12)))
          CFI V5 load(1, XDATA, add(CFA_XSP16, literal(-13)))
          CFI V4 load(1, XDATA, add(CFA_XSP16, literal(-14)))
          CFI V3 load(1, XDATA, add(CFA_XSP16, literal(-15)))
          CFI V2 load(1, XDATA, add(CFA_XSP16, literal(-16)))
          CFI V1 load(1, XDATA, add(CFA_XSP16, literal(-17)))
          CFI V0 load(1, XDATA, add(CFA_XSP16, literal(-18)))
          CFI VB load(1, XDATA, add(CFA_XSP16, literal(-19)))
          CFI R6 load(1, XDATA, add(CFA_XSP16, literal(-20)))
          CFI CFA_SP SP+0
          CFI CFA_XSP16 add(XSP16, 20)
        ; Saved register size: 20
        ; Auto size: 0
        MOV       ?V2,R1
        MOV       ?V8,R2
        MOV       ?V9,R3
        MOV       A,R4
        MOV       R6,A
        MOV       A,R5
        MOV       R7,A
        MOV       A,#0x14
        LCALL     ?XSTACK_DISP0_8
        MOVX      A,@DPTR
        MOV       ?V4,A
        INC       DPTR
        MOVX      A,@DPTR
        MOV       ?V5,A
// 1591   uint16 dataLen;
// 1592   uint8 *buf;
// 1593   ZStatus_t status;
// 1594 
// 1595   // Atrribute list (Status, Direction and Attribute ID)
// 1596   dataLen = cfgReportRspCmd->numAttr * ( 1 + 1 + 2 );
        MOV       DPL,?V4
        MOV       DPH,A
        MOVX      A,@DPTR
        MOV       ?V0,A
        MOV       ?V1,#0x0
        MOV       A,#0x2
        MOV       R0,#?V0
        LCALL     ?S_SHL
        MOV       ?V6,?V0
        MOV       ?V7,?V1
// 1597 
// 1598   buf = zcl_mem_alloc( dataLen );
        ; Setup parameters for call to function osal_mem_alloc
        MOV       R2,?V6
        MOV       R3,?V7
        LCALL     `??osal_mem_alloc::?relay`; Banked call to: osal_mem_alloc
        MOV       ?V0,R2
        MOV       ?V1,R3
// 1599   if ( buf != NULL )
        MOV       A,R2
        ORL       A,R3
        JNZ       $+5
        LJMP      ??zcl_SendConfigReportRspCmd_0 & 0xFFFF
// 1600   {
// 1601     // Load the buffer - serially
// 1602     uint8 *pBuf = buf;
// 1603     uint8 i;
// 1604 
// 1605     for ( i = 0; i < cfgReportRspCmd->numAttr; i++ )
        MOV       R1,#0x0
        SJMP      ??zcl_SendConfigReportRspCmd_1
// 1606     {
// 1607       *pBuf++ = cfgReportRspCmd->attrList[i].status;
??zcl_SendConfigReportRspCmd_2:
        MOV       A,R1
        MOV       ?V10,A
        MOV       ?V11,#0x0
        MOV       A,#0x2
        MOV       R0,#?V10
        LCALL     ?S_SHL
        MOV       A,?V4
        ADD       A,?V10
        MOV       R4,A
        MOV       A,?V5
        ADDC      A,?V11
        MOV       R5,A
        MOV       DPL,R4
        MOV       DPH,A
        INC       DPTR
        MOVX      A,@DPTR
        MOV       DPL,R2
        MOV       DPH,R3
        MOVX      @DPTR,A
// 1608       *pBuf++ = cfgReportRspCmd->attrList[i].direction;
        MOV       DPL,R4
        MOV       DPH,R5
        INC       DPTR
        INC       DPTR
        MOVX      A,@DPTR
        MOV       DPL,R2
        MOV       DPH,R3
        INC       DPTR
        MOVX      @DPTR,A
// 1609       *pBuf++ = LO_UINT16( cfgReportRspCmd->attrList[i].attrID );
        MOV       A,R4
        ADD       A,#0x3
        MOV       R4,A
        JNC       ??zcl_SendConfigReportRspCmd_3
        INC       R5
??zcl_SendConfigReportRspCmd_3:
        MOV       DPL,A
        MOV       DPH,R5
        MOVX      A,@DPTR
        MOV       DPL,R2
        MOV       DPH,R3
        INC       DPTR
        INC       DPTR
        MOVX      @DPTR,A
// 1610       *pBuf++ = HI_UINT16( cfgReportRspCmd->attrList[i].attrID );
        MOV       DPL,R4
        MOV       DPH,R5
        INC       DPTR
        MOVX      A,@DPTR
        MOV       DPL,R2
        MOV       DPH,R3
        INC       DPTR
        INC       DPTR
        INC       DPTR
        MOVX      @DPTR,A
        MOV       A,R2
        ADD       A,#0x4
        MOV       R2,A
        JNC       ??zcl_SendConfigReportRspCmd_4
        INC       R3
// 1611     }
??zcl_SendConfigReportRspCmd_4:
        INC       R1
??zcl_SendConfigReportRspCmd_1:
        MOV       DPL,?V4
        MOV       DPH,?V5
        MOVX      A,@DPTR
        MOV       R0,A
        MOV       A,R1
        CLR       C
        SUBB      A,R0
        JC        ??zcl_SendConfigReportRspCmd_2
// 1612 
// 1613     // If there's only a single status record and its status field is set to
// 1614     // SUCCESS then omit the attribute ID field.
// 1615     if ( cfgReportRspCmd->numAttr == 1 && cfgReportRspCmd->attrList[0].status == ZCL_STATUS_SUCCESS )
        MOV       A,#0x1
        XRL       A,R0
        JNZ       ??zcl_SendConfigReportRspCmd_5
        INC       DPTR
        MOVX      A,@DPTR
        JNZ       ??zcl_SendConfigReportRspCmd_5
// 1616     {
// 1617       dataLen = 1;
        MOV       ?V6,#0x1
        MOV       ?V7,#0x0
// 1618     }
// 1619 
// 1620     status = zcl_SendCommand( srcEP, dstAddr, clusterID,
// 1621                               ZCL_CMD_CONFIG_REPORT_RSP, FALSE, direction,
// 1622                               disableDefaultRsp, 0, seqNum, dataLen, buf );
??zcl_SendConfigReportRspCmd_5:
        ; Setup parameters for call to function zcl_SendCommand
        MOV       R0,#?V0
        LCALL     ?PUSH_XSTACK_I_TWO
          CFI CFA_XSP16 add(XSP16, 22)
        MOV       R0,#?V6
        LCALL     ?PUSH_XSTACK_I_TWO
          CFI CFA_XSP16 add(XSP16, 24)
        MOV       A,#0x1c
        LCALL     ?XSTACK_DISP0_8
        MOVX      A,@DPTR
        MOV       ?V3,A
        MOV       R0,#?V3
        LCALL     ?PUSH_XSTACK_I_ONE
          CFI CFA_XSP16 add(XSP16, 25)
        CLR       A
        MOV       ?V4,A
        MOV       ?V5,A
        MOV       R0,#?V4
        LCALL     ?PUSH_XSTACK_I_TWO
          CFI CFA_XSP16 add(XSP16, 27)
        MOV       A,#0x1e
        LCALL     ?XSTACK_DISP0_8
        MOVX      A,@DPTR
        MOV       ?V3,A
        MOV       R0,#?V3
        LCALL     ?PUSH_XSTACK_I_ONE
          CFI CFA_XSP16 add(XSP16, 28)
        MOV       A,#0x1e
        LCALL     ?XSTACK_DISP0_8
        MOVX      A,@DPTR
        MOV       ?V3,A
        MOV       R0,#?V3
        LCALL     ?PUSH_XSTACK_I_ONE
          CFI CFA_XSP16 add(XSP16, 29)
        MOV       ?V3,#0x0
        MOV       R0,#?V3
        LCALL     ?PUSH_XSTACK_I_ONE
          CFI CFA_XSP16 add(XSP16, 30)
        MOV       ?V3,#0x7
        MOV       R0,#?V3
        LCALL     ?PUSH_XSTACK_I_ONE
          CFI CFA_XSP16 add(XSP16, 31)
        MOV       A,R6
        MOV       R4,A
        MOV       A,R7
        MOV       R5,A
        MOV       R2,?V8
        MOV       R3,?V9
        MOV       R1,?V2
        LCALL     `??zcl_SendCommand::?relay`; Banked call to: zcl_SendCommand
        MOV       A,#0xb
        LCALL     ?DEALLOC_XSTACK8
          CFI CFA_XSP16 add(XSP16, 20)
        MOV       A,R1
        MOV       R6,A
// 1623     zcl_mem_free( buf );
        ; Setup parameters for call to function osal_mem_free
        MOV       R2,?V0
        MOV       R3,?V1
        LCALL     `??osal_mem_free::?relay`; Banked call to: osal_mem_free
        SJMP      ??zcl_SendConfigReportRspCmd_6
// 1624   }
// 1625   else
// 1626   {
// 1627     status = ZMemError;
??zcl_SendConfigReportRspCmd_0:
        MOV       R6,#0x10
// 1628   }
// 1629 
// 1630   return ( status );
??zcl_SendConfigReportRspCmd_6:
        MOV       A,R6
        MOV       R1,A
        MOV       R7,#0xc
        LJMP      ?BANKED_LEAVE_XDATA
// 1631 }
          CFI EndBlock cfiBlock21
// 1632 #endif
// 1633 
// 1634 #ifdef ZCL_REPORT_CONFIGURING_DEVICE
// 1635 /*********************************************************************
// 1636  * @fn      zcl_SendReadReportCfgCmd
// 1637  *
// 1638  * @brief   Send a Read Reporting Configuration command
// 1639  *
// 1640  * @param   dstAddr - destination address
// 1641  * @param   clusterID - cluster ID
// 1642  * @param   readReportCfgCmd - read reporting configuration command to be sent
// 1643  * @param   direction - direction of the command
// 1644  * @param   seqNum - transaction sequence number
// 1645  *
// 1646  * @return  ZSuccess if OK
// 1647  */
// 1648 ZStatus_t zcl_SendReadReportCfgCmd( uint8 srcEP, afAddrType_t *dstAddr,
// 1649                   uint16 clusterID, zclReadReportCfgCmd_t *readReportCfgCmd,
// 1650                   uint8 direction, uint8 disableDefaultRsp, uint8 seqNum )
// 1651 {
// 1652   uint16 dataLen;
// 1653   uint8 *buf;
// 1654   ZStatus_t status;
// 1655 
// 1656   dataLen = readReportCfgCmd->numAttr * ( 1 + 2 ); // Direction + Atrribute ID
// 1657 
// 1658   buf = zcl_mem_alloc( dataLen );
// 1659   if ( buf != NULL )
// 1660   {
// 1661     // Load the buffer - serially
// 1662     uint8 *pBuf = buf;
// 1663     uint8 i;
// 1664 
// 1665     for ( i = 0; i < readReportCfgCmd->numAttr; i++ )
// 1666     {
// 1667       *pBuf++ = readReportCfgCmd->attrList[i].direction;
// 1668       *pBuf++ = LO_UINT16( readReportCfgCmd->attrList[i].attrID );
// 1669       *pBuf++ = HI_UINT16( readReportCfgCmd->attrList[i].attrID );
// 1670     }
// 1671 
// 1672     status = zcl_SendCommand( srcEP, dstAddr, clusterID, ZCL_CMD_READ_REPORT_CFG, FALSE,
// 1673                               direction, disableDefaultRsp, 0, seqNum, dataLen, buf );
// 1674     zcl_mem_free( buf );
// 1675   }
// 1676   else
// 1677   {
// 1678     status = ZMemError;
// 1679   }
// 1680 
// 1681   return ( status );
// 1682 }
// 1683 #endif
// 1684 
// 1685 #ifdef ZCL_REPORTING_DEVICE
// 1686 /*********************************************************************
// 1687  * @fn      zcl_SendReadReportCfgRspCmd
// 1688  *
// 1689  * @brief   Send a Read Reporting Configuration Response command
// 1690  *
// 1691  * @param   dstAddr - destination address
// 1692  * @param   clusterID - cluster ID
// 1693  * @param   readReportCfgRspCmd - read reporting configuration response command to be sent
// 1694  * @param   direction - direction of the command
// 1695  * @param   seqNum - transaction sequence number
// 1696  *
// 1697  * @return  ZSuccess if OK
// 1698  */

        RSEG BANKED_CODE:HUGECODE:NOROOT(0)
// 1699 ZStatus_t zcl_SendReadReportCfgRspCmd( uint8 srcEP, afAddrType_t *dstAddr,
zcl_SendReadReportCfgRspCmd:
          CFI Block cfiBlock22 Using cfiCommon0
          CFI Function zcl_SendReadReportCfgRspCmd
        CODE
// 1700              uint16 clusterID, zclReadReportCfgRspCmd_t *readReportCfgRspCmd,
// 1701              uint8 direction, uint8 disableDefaultRsp, uint8 seqNum )
// 1702 {
        FUNCALL zcl_SendReadReportCfgRspCmd, zclAnalogDataType
        LOCFRAME ISTACK, 0, STACK
        LOCFRAME PSTACK, 0, STACK
        LOCFRAME XSTACK, 26, STACK
        LOCFRAME IOVERLAY, 0, STATIC
        LOCFRAME DOVERLAY, 0, STATIC
        ARGFRAME ISTACK, 0, STACK
        ARGFRAME PSTACK, 0, STACK
        ARGFRAME XSTACK, 26, STACK
        ARGFRAME IOVERLAY, 0, STATIC
        ARGFRAME DOVERLAY, 0, STATIC
        FUNCALL zcl_SendReadReportCfgRspCmd, zclGetDataTypeLength
        LOCFRAME ISTACK, 0, STACK
        LOCFRAME PSTACK, 0, STACK
        LOCFRAME XSTACK, 26, STACK
        LOCFRAME IOVERLAY, 0, STATIC
        LOCFRAME DOVERLAY, 0, STATIC
        ARGFRAME ISTACK, 0, STACK
        ARGFRAME PSTACK, 0, STACK
        ARGFRAME XSTACK, 26, STACK
        ARGFRAME IOVERLAY, 0, STATIC
        ARGFRAME DOVERLAY, 0, STATIC
        FUNCALL zcl_SendReadReportCfgRspCmd, osal_mem_alloc
        LOCFRAME ISTACK, 0, STACK
        LOCFRAME PSTACK, 0, STACK
        LOCFRAME XSTACK, 26, STACK
        LOCFRAME IOVERLAY, 0, STATIC
        LOCFRAME DOVERLAY, 0, STATIC
        ARGFRAME ISTACK, 0, STACK
        ARGFRAME PSTACK, 0, STACK
        ARGFRAME XSTACK, 26, STACK
        ARGFRAME IOVERLAY, 0, STATIC
        ARGFRAME DOVERLAY, 0, STATIC
        FUNCALL zcl_SendReadReportCfgRspCmd, zclAnalogDataType
        LOCFRAME ISTACK, 0, STACK
        LOCFRAME PSTACK, 0, STACK
        LOCFRAME XSTACK, 26, STACK
        LOCFRAME IOVERLAY, 0, STATIC
        LOCFRAME DOVERLAY, 0, STATIC
        ARGFRAME ISTACK, 0, STACK
        ARGFRAME PSTACK, 0, STACK
        ARGFRAME XSTACK, 26, STACK
        ARGFRAME IOVERLAY, 0, STATIC
        ARGFRAME DOVERLAY, 0, STATIC
        FUNCALL zcl_SendReadReportCfgRspCmd, zclSerializeData
        LOCFRAME ISTACK, 0, STACK
        LOCFRAME PSTACK, 0, STACK
        LOCFRAME XSTACK, 26, STACK
        LOCFRAME IOVERLAY, 0, STATIC
        LOCFRAME DOVERLAY, 0, STATIC
        ARGFRAME ISTACK, 0, STACK
        ARGFRAME PSTACK, 0, STACK
        ARGFRAME XSTACK, 26, STACK
        ARGFRAME IOVERLAY, 0, STATIC
        ARGFRAME DOVERLAY, 0, STATIC
        FUNCALL zcl_SendReadReportCfgRspCmd, zcl_SendCommand
        LOCFRAME ISTACK, 0, STACK
        LOCFRAME PSTACK, 0, STACK
        LOCFRAME XSTACK, 37, STACK
        LOCFRAME IOVERLAY, 0, STATIC
        LOCFRAME DOVERLAY, 0, STATIC
        ARGFRAME ISTACK, 0, STACK
        ARGFRAME PSTACK, 0, STACK
        ARGFRAME XSTACK, 37, STACK
        ARGFRAME IOVERLAY, 0, STATIC
        ARGFRAME DOVERLAY, 0, STATIC
        FUNCALL zcl_SendReadReportCfgRspCmd, osal_mem_free
        LOCFRAME ISTACK, 0, STACK
        LOCFRAME PSTACK, 0, STACK
        LOCFRAME XSTACK, 26, STACK
        LOCFRAME IOVERLAY, 0, STATIC
        LOCFRAME DOVERLAY, 0, STATIC
        ARGFRAME ISTACK, 0, STACK
        ARGFRAME PSTACK, 0, STACK
        ARGFRAME XSTACK, 26, STACK
        ARGFRAME IOVERLAY, 0, STATIC
        ARGFRAME DOVERLAY, 0, STATIC
        REQUIRE ?V0
        REQUIRE ?V1
        REQUIRE ?V2
        REQUIRE ?V3
        REQUIRE ?V4
        REQUIRE ?V5
        REQUIRE ?V6
        REQUIRE ?V7
        REQUIRE ?V8
        REQUIRE ?V9
        REQUIRE ?V10
        REQUIRE ?V11
        REQUIRE ?V12
        REQUIRE ?V13
        REQUIRE ?V14
        REQUIRE ?V15
        MOV       A,#-0x18
        LCALL     ?BANKED_ENTER_XDATA
          CFI DPH0 load(1, XDATA, add(CFA_XSP16, literal(-1)))
          CFI DPL0 load(1, XDATA, add(CFA_XSP16, literal(-2)))
          CFI ?BRET_EXT load(1, XDATA, add(CFA_XSP16, literal(-3)))
          CFI ?RET_HIGH load(1, XDATA, add(CFA_XSP16, literal(-4)))
          CFI ?RET_LOW load(1, XDATA, add(CFA_XSP16, literal(-5)))
          CFI R7 load(1, XDATA, add(CFA_XSP16, literal(-6)))
          CFI V15 load(1, XDATA, add(CFA_XSP16, literal(-7)))
          CFI V14 load(1, XDATA, add(CFA_XSP16, literal(-8)))
          CFI V13 load(1, XDATA, add(CFA_XSP16, literal(-9)))
          CFI V12 load(1, XDATA, add(CFA_XSP16, literal(-10)))
          CFI V11 load(1, XDATA, add(CFA_XSP16, literal(-11)))
          CFI V10 load(1, XDATA, add(CFA_XSP16, literal(-12)))
          CFI V9 load(1, XDATA, add(CFA_XSP16, literal(-13)))
          CFI V8 load(1, XDATA, add(CFA_XSP16, literal(-14)))
          CFI V7 load(1, XDATA, add(CFA_XSP16, literal(-15)))
          CFI V6 load(1, XDATA, add(CFA_XSP16, literal(-16)))
          CFI V5 load(1, XDATA, add(CFA_XSP16, literal(-17)))
          CFI V4 load(1, XDATA, add(CFA_XSP16, literal(-18)))
          CFI V3 load(1, XDATA, add(CFA_XSP16, literal(-19)))
          CFI V2 load(1, XDATA, add(CFA_XSP16, literal(-20)))
          CFI V1 load(1, XDATA, add(CFA_XSP16, literal(-21)))
          CFI V0 load(1, XDATA, add(CFA_XSP16, literal(-22)))
          CFI VB load(1, XDATA, add(CFA_XSP16, literal(-23)))
          CFI R6 load(1, XDATA, add(CFA_XSP16, literal(-24)))
          CFI CFA_SP SP+0
          CFI CFA_XSP16 add(XSP16, 24)
        ; Saved register size: 24
        ; Auto size: 2
        MOV       A,#-0x2
        LCALL     ?ALLOC_XSTACK8
          CFI CFA_XSP16 add(XSP16, 26)
        MOV       DPL,?XSP + 0
        MOV       DPH,?XSP + 1
        MOV       A,R2
        MOVX      @DPTR,A
        INC       DPTR
        MOV       A,R3
        MOVX      @DPTR,A
        MOV       ?V1,R1
        MOV       ?V12,R4
        MOV       ?V13,R5
// 1703   uint8 *buf;
// 1704   uint16 dataLen = 0;
        MOV       R6,#0x0
        MOV       R7,#0x0
// 1705   ZStatus_t status;
// 1706   uint8 i;
// 1707 
// 1708   // Find out the data length
// 1709   for ( i = 0; i < readReportCfgRspCmd->numAttr; i++ )
        MOV       ?V0,#0x0
        MOV       A,#0x1a
        LCALL     ?XSTACK_DISP0_8
        MOVX      A,@DPTR
        MOV       ?V8,A
        INC       DPTR
        MOVX      A,@DPTR
        MOV       ?V9,A
        SJMP      ??zcl_SendReadReportCfgRspCmd_0
// 1710   {
// 1711     zclReportCfgRspRec_t *reportRspRec = &(readReportCfgRspCmd->attrList[i]);
// 1712 
// 1713     dataLen += 1 + 1 + 2 ; // Status, Direction and Atrribute ID
// 1714 
// 1715     if ( reportRspRec->status == ZCL_STATUS_SUCCESS )
// 1716     {
// 1717       if ( reportRspRec->direction == ZCL_SEND_ATTR_REPORTS )
// 1718       {
// 1719         dataLen += 1 + 2 + 2; // Data Type + Min + Max Reporting Intervals
// 1720 
// 1721         // Find out the size of the Reportable Change field (for Analog data types)
// 1722         if ( zclAnalogDataType( reportRspRec->dataType ) )
// 1723         {
// 1724           dataLen += zclGetDataTypeLength( reportRspRec->dataType );
// 1725         }
// 1726       }
// 1727       else
// 1728       {
// 1729         dataLen += 2; // Timeout Period
??zcl_SendReadReportCfgRspCmd_1:
        MOV       A,R6
        ADD       A,#0x2
??zcl_SendReadReportCfgRspCmd_2:
        MOV       R6,A
        CLR       A
        ADDC      A,R7
        MOV       R7,A
// 1730       }
??zcl_SendReadReportCfgRspCmd_3:
        INC       ?V0
??zcl_SendReadReportCfgRspCmd_0:
        MOV       DPL,?V8
        MOV       DPH,?V9
        MOVX      A,@DPTR
        MOV       R0,A
        MOV       A,?V0
        CLR       C
        SUBB      A,R0
        JNC       ??zcl_SendReadReportCfgRspCmd_4
        MOV       A,?V0
        MOV       B,#0xd
        MUL       AB
        MOV       R0,A
        MOV       R1,B
        MOV       A,?V8
        ADD       A,R0
        MOV       DPL,A
        MOV       A,?V9
        ADDC      A,R1
        MOV       DPH,A
        INC       DPTR
        MOV       R0,DPL
        MOV       R1,DPH
        MOV       A,R6
        ADD       A,#0x4
        MOV       R6,A
        CLR       A
        ADDC      A,R7
        MOV       R7,A
        MOVX      A,@DPTR
        JNZ       ??zcl_SendReadReportCfgRspCmd_3
        INC       DPTR
        MOVX      A,@DPTR
        JNZ       ??zcl_SendReadReportCfgRspCmd_1
        MOV       A,R6
        ADD       A,#0x5
        MOV       R6,A
        CLR       A
        ADDC      A,R7
        MOV       R7,A
        MOV       A,R0
        ADD       A,#0x4
        MOV       ?V2,A
        CLR       A
        ADDC      A,R1
        MOV       ?V3,A
        ; Setup parameters for call to function zclAnalogDataType
        MOV       DPL,?V2
        MOV       DPH,A
        MOVX      A,@DPTR
        MOV       R1,A
        LCALL     `??zclAnalogDataType::?relay`; Banked call to: zclAnalogDataType
        MOV       A,R1
        JZ        ??zcl_SendReadReportCfgRspCmd_3
        ; Setup parameters for call to function zclGetDataTypeLength
        MOV       DPL,?V2
        MOV       DPH,?V3
        MOVX      A,@DPTR
        MOV       R1,A
        LCALL     `??zclGetDataTypeLength::?relay`; Banked call to: zclGetDataTypeLength
        MOV       A,R6
        ADD       A,R1
        SJMP      ??zcl_SendReadReportCfgRspCmd_2
// 1731     }
// 1732   }
// 1733 
// 1734   buf = zcl_mem_alloc( dataLen );
??zcl_SendReadReportCfgRspCmd_4:
        ; Setup parameters for call to function osal_mem_alloc
        MOV       A,R6
        MOV       R2,A
        MOV       A,R7
        MOV       R3,A
        LCALL     `??osal_mem_alloc::?relay`; Banked call to: osal_mem_alloc
        MOV       ?V2,R2
        MOV       ?V3,R3
// 1735   if ( buf != NULL )
        MOV       A,R2
        ORL       A,R3
        JNZ       $+5
        LJMP      ??zcl_SendReadReportCfgRspCmd_5 & 0xFFFF
// 1736   {
// 1737     // Load the buffer - serially
// 1738     uint8 *pBuf = buf;
        MOV       ?V6,R2
        MOV       ?V7,R3
// 1739 
// 1740     for ( i = 0; i < readReportCfgRspCmd->numAttr; i++ )
        MOV       ?V0,#0x0
        SJMP      ??zcl_SendReadReportCfgRspCmd_6
// 1741     {
// 1742       zclReportCfgRspRec_t *reportRspRec = &(readReportCfgRspCmd->attrList[i]);
// 1743 
// 1744       *pBuf++ = reportRspRec->status;
// 1745       *pBuf++ = reportRspRec->direction;
// 1746       *pBuf++ = LO_UINT16( reportRspRec->attrID );
// 1747       *pBuf++ = HI_UINT16( reportRspRec->attrID );
// 1748 
// 1749       if ( reportRspRec->status == ZCL_STATUS_SUCCESS )
// 1750       {
// 1751         if ( reportRspRec->direction == ZCL_SEND_ATTR_REPORTS )
// 1752         {
// 1753           *pBuf++ = reportRspRec->dataType;
// 1754           *pBuf++ = LO_UINT16( reportRspRec->minReportInt );
// 1755           *pBuf++ = HI_UINT16( reportRspRec->minReportInt );
// 1756           *pBuf++ = LO_UINT16( reportRspRec->maxReportInt );
// 1757           *pBuf++ = HI_UINT16( reportRspRec->maxReportInt );
// 1758 
// 1759           if ( zclAnalogDataType( reportRspRec->dataType ) )
// 1760           {
// 1761             pBuf = zclSerializeData( reportRspRec->dataType,
// 1762                                      reportRspRec->reportableChange, pBuf );
// 1763           }
// 1764         }
// 1765         else
// 1766         {
// 1767           *pBuf++ = LO_UINT16( reportRspRec->timeoutPeriod );
??zcl_SendReadReportCfgRspCmd_7:
        MOV       A,?V4
        ADD       A,#0x9
        MOV       R2,A
        CLR       A
        ADDC      A,?V5
        MOV       R3,A
        MOV       DPL,R2
        MOV       DPH,A
        MOVX      A,@DPTR
        MOV       DPL,?V6
        MOV       DPH,?V7
        MOVX      @DPTR,A
// 1768           *pBuf++ = HI_UINT16( reportRspRec->timeoutPeriod );
        MOV       DPL,R2
        MOV       DPH,R3
        INC       DPTR
        MOVX      A,@DPTR
        MOV       DPL,R0
        MOV       DPH,R1
        MOVX      @DPTR,A
        MOV       ?V6,R4
        MOV       ?V7,R5
// 1769         }
??zcl_SendReadReportCfgRspCmd_8:
        INC       ?V0
??zcl_SendReadReportCfgRspCmd_6:
        MOV       DPL,?V8
        MOV       DPH,?V9
        MOVX      A,@DPTR
        MOV       R0,A
        MOV       A,?V0
        CLR       C
        SUBB      A,R0
        JC        $+5
        LJMP      ??zcl_SendReadReportCfgRspCmd_9 & 0xFFFF
        MOV       A,?V0
        MOV       B,#0xd
        MUL       AB
        MOV       R0,A
        MOV       R1,B
        MOV       A,?V8
        ADD       A,R0
        MOV       DPL,A
        MOV       A,?V9
        ADDC      A,R1
        MOV       DPH,A
        INC       DPTR
        MOV       ?V4,DPL
        MOV       ?V5,DPH
        MOVX      A,@DPTR
        MOV       DPL,?V6
        MOV       DPH,?V7
        MOVX      @DPTR,A
        MOV       DPL,?V4
        MOV       DPH,?V5
        INC       DPTR
        MOV       R2,DPL
        MOV       R3,DPH
        MOVX      A,@DPTR
        MOV       DPL,?V6
        MOV       DPH,?V7
        INC       DPTR
        MOVX      @DPTR,A
        MOV       A,?V4
        ADD       A,#0x2
        MOV       R0,A
        CLR       A
        ADDC      A,?V5
        MOV       R1,A
        MOV       DPL,R0
        MOV       DPH,A
        MOVX      A,@DPTR
        MOV       DPL,?V6
        MOV       DPH,?V7
        INC       DPTR
        INC       DPTR
        MOVX      @DPTR,A
        MOV       DPL,R0
        MOV       DPH,R1
        INC       DPTR
        MOVX      A,@DPTR
        MOV       DPL,?V6
        MOV       DPH,?V7
        INC       DPTR
        INC       DPTR
        INC       DPTR
        MOVX      @DPTR,A
        MOV       A,?V6
        ADD       A,#0x4
        MOV       ?V6,A
        JNC       ??zcl_SendReadReportCfgRspCmd_10
        INC       ?V7
??zcl_SendReadReportCfgRspCmd_10:
        MOV       DPL,?V4
        MOV       DPH,?V5
        MOVX      A,@DPTR
        JZ        $+5
        LJMP      ??zcl_SendReadReportCfgRspCmd_8 & 0xFFFF
        MOV       A,?V6
        ADD       A,#0x2
        MOV       R4,A
        CLR       A
        ADDC      A,?V7
        MOV       R5,A
        MOV       DPL,?V6
        MOV       DPH,?V7
        INC       DPTR
        MOV       R0,DPL
        MOV       R1,DPH
        MOV       DPL,R2
        MOV       DPH,R3
        MOVX      A,@DPTR
        JZ        $+5
        LJMP      ??zcl_SendReadReportCfgRspCmd_7 & 0xFFFF
        MOV       A,?V4
        ADD       A,#0x4
        MOV       ?V10,A
        CLR       A
        ADDC      A,?V5
        MOV       ?V11,A
        MOV       DPL,?V10
        MOV       DPH,A
        MOVX      A,@DPTR
        MOV       DPL,?V6
        MOV       DPH,?V7
        MOVX      @DPTR,A
        MOV       A,?V4
        ADD       A,#0x5
        MOV       ?V14,A
        CLR       A
        ADDC      A,?V5
        MOV       ?V15,A
        MOV       DPL,?V14
        MOV       DPH,A
        MOVX      A,@DPTR
        MOV       DPL,R0
        MOV       DPH,R1
        MOVX      @DPTR,A
        MOV       DPL,?V14
        MOV       DPH,?V15
        INC       DPTR
        MOVX      A,@DPTR
        MOV       DPL,R4
        MOV       DPH,R5
        MOVX      @DPTR,A
        MOV       A,?V4
        ADD       A,#0x7
        MOV       R0,A
        CLR       A
        ADDC      A,?V5
        MOV       R1,A
        MOV       DPL,R0
        MOV       DPH,A
        MOVX      A,@DPTR
        MOV       DPL,?V6
        MOV       DPH,?V7
        INC       DPTR
        INC       DPTR
        INC       DPTR
        MOVX      @DPTR,A
        MOV       DPL,R0
        MOV       DPH,R1
        INC       DPTR
        MOVX      A,@DPTR
        MOV       DPL,?V6
        MOV       DPH,?V7
        INC       DPTR
        INC       DPTR
        INC       DPTR
        INC       DPTR
        MOVX      @DPTR,A
        MOV       A,?V6
        ADD       A,#0x5
        MOV       ?V6,A
        JNC       ??zcl_SendReadReportCfgRspCmd_11
        INC       ?V7
??zcl_SendReadReportCfgRspCmd_11:
        ; Setup parameters for call to function zclAnalogDataType
        MOV       DPL,?V10
        MOV       DPH,?V11
        MOVX      A,@DPTR
        MOV       R1,A
        LCALL     `??zclAnalogDataType::?relay`; Banked call to: zclAnalogDataType
        MOV       A,R1
        JNZ       $+5
        LJMP      ??zcl_SendReadReportCfgRspCmd_8 & 0xFFFF
        ; Setup parameters for call to function zclSerializeData
        MOV       R4,?V6
        MOV       R5,?V7
        MOV       A,?V4
        ADD       A,#0xb
        MOV       DPL,A
        CLR       A
        ADDC      A,?V5
        MOV       DPH,A
        MOVX      A,@DPTR
        MOV       R2,A
        INC       DPTR
        MOVX      A,@DPTR
        MOV       R3,A
        MOV       DPL,?V10
        MOV       DPH,?V11
        MOVX      A,@DPTR
        MOV       R1,A
        LCALL     `??zclSerializeData::?relay`; Banked call to: zclSerializeData
        MOV       ?V6,R2
        MOV       ?V7,R3
        LJMP      ??zcl_SendReadReportCfgRspCmd_8 & 0xFFFF
// 1770       }
// 1771     }
// 1772 
// 1773     status = zcl_SendCommand( srcEP, dstAddr, clusterID,
// 1774                               ZCL_CMD_READ_REPORT_CFG_RSP, FALSE,
// 1775                               direction, disableDefaultRsp, 0, seqNum, dataLen, buf );
??zcl_SendReadReportCfgRspCmd_9:
        ; Setup parameters for call to function zcl_SendCommand
        MOV       R0,#?V2
        LCALL     ?PUSH_XSTACK_I_TWO
          CFI CFA_XSP16 add(XSP16, 28)
        MOV       ?V4,R6
        MOV       ?V5,R7
        MOV       R0,#?V4
        LCALL     ?PUSH_XSTACK_I_TWO
          CFI CFA_XSP16 add(XSP16, 30)
        MOV       A,#0x22
        LCALL     ?XSTACK_DISP0_8
        MOVX      A,@DPTR
        MOV       ?V0,A
        MOV       R0,#?V0
        LCALL     ?PUSH_XSTACK_I_ONE
          CFI CFA_XSP16 add(XSP16, 31)
        CLR       A
        MOV       ?V4,A
        MOV       ?V5,A
        MOV       R0,#?V4
        LCALL     ?PUSH_XSTACK_I_TWO
          CFI CFA_XSP16 add(XSP16, 33)
        MOV       A,#0x24
        LCALL     ?XSTACK_DISP0_8
        MOVX      A,@DPTR
        MOV       ?V0,A
        MOV       R0,#?V0
        LCALL     ?PUSH_XSTACK_I_ONE
          CFI CFA_XSP16 add(XSP16, 34)
        MOV       A,#0x24
        LCALL     ?XSTACK_DISP0_8
        MOVX      A,@DPTR
        MOV       ?V0,A
        MOV       R0,#?V0
        LCALL     ?PUSH_XSTACK_I_ONE
          CFI CFA_XSP16 add(XSP16, 35)
        MOV       ?V0,#0x0
        MOV       R0,#?V0
        LCALL     ?PUSH_XSTACK_I_ONE
          CFI CFA_XSP16 add(XSP16, 36)
        MOV       ?V0,#0x9
        MOV       R0,#?V0
        LCALL     ?PUSH_XSTACK_I_ONE
          CFI CFA_XSP16 add(XSP16, 37)
        MOV       R4,?V12
        MOV       R5,?V13
        MOV       A,#0xb
        LCALL     ?XSTACK_DISP0_8
        MOVX      A,@DPTR
        MOV       R2,A
        INC       DPTR
        MOVX      A,@DPTR
        MOV       R3,A
        MOV       R1,?V1
        LCALL     `??zcl_SendCommand::?relay`; Banked call to: zcl_SendCommand
        MOV       A,#0xb
        LCALL     ?DEALLOC_XSTACK8
          CFI CFA_XSP16 add(XSP16, 26)
        MOV       A,R1
        MOV       R6,A
// 1776     zcl_mem_free( buf );
        ; Setup parameters for call to function osal_mem_free
        MOV       R2,?V2
        MOV       R3,?V3
        LCALL     `??osal_mem_free::?relay`; Banked call to: osal_mem_free
        SJMP      ??zcl_SendReadReportCfgRspCmd_12
// 1777   }
// 1778   else
// 1779   {
// 1780     status = ZMemError;
??zcl_SendReadReportCfgRspCmd_5:
        MOV       R6,#0x10
// 1781   }
// 1782 
// 1783   return ( status );
??zcl_SendReadReportCfgRspCmd_12:
        MOV       A,R6
        MOV       R1,A
        MOV       A,#0x2
        LCALL     ?DEALLOC_XSTACK8
          CFI CFA_XSP16 add(XSP16, 24)
        MOV       R7,#0x10
        LJMP      ?BANKED_LEAVE_XDATA
// 1784 }
          CFI EndBlock cfiBlock22
// 1785 
// 1786 /*********************************************************************
// 1787  * @fn      zcl_SendReportCmd
// 1788  *
// 1789  * @brief   Send a Report command
// 1790  *
// 1791  * @param   dstAddr - destination address
// 1792  * @param   clusterID - cluster ID
// 1793  * @param   reportCmd - report command to be sent
// 1794  * @param   direction - direction of the command
// 1795  * @param   seqNum - transaction sequence number
// 1796  *
// 1797  * @return  ZSuccess if OK
// 1798  */

        RSEG BANKED_CODE:HUGECODE:NOROOT(0)
// 1799 ZStatus_t zcl_SendReportCmd( uint8 srcEP, afAddrType_t *dstAddr,
zcl_SendReportCmd:
          CFI Block cfiBlock23 Using cfiCommon0
          CFI Function zcl_SendReportCmd
        CODE
// 1800                              uint16 clusterID, zclReportCmd_t *reportCmd,
// 1801                              uint8 direction, uint8 disableDefaultRsp, uint8 seqNum )
// 1802 {
        FUNCALL zcl_SendReportCmd, zclGetAttrDataLength
        LOCFRAME ISTACK, 0, STACK
        LOCFRAME PSTACK, 0, STACK
        LOCFRAME XSTACK, 22, STACK
        LOCFRAME IOVERLAY, 0, STATIC
        LOCFRAME DOVERLAY, 0, STATIC
        ARGFRAME ISTACK, 0, STACK
        ARGFRAME PSTACK, 0, STACK
        ARGFRAME XSTACK, 22, STACK
        ARGFRAME IOVERLAY, 0, STATIC
        ARGFRAME DOVERLAY, 0, STATIC
        FUNCALL zcl_SendReportCmd, osal_mem_alloc
        LOCFRAME ISTACK, 0, STACK
        LOCFRAME PSTACK, 0, STACK
        LOCFRAME XSTACK, 22, STACK
        LOCFRAME IOVERLAY, 0, STATIC
        LOCFRAME DOVERLAY, 0, STATIC
        ARGFRAME ISTACK, 0, STACK
        ARGFRAME PSTACK, 0, STACK
        ARGFRAME XSTACK, 22, STACK
        ARGFRAME IOVERLAY, 0, STATIC
        ARGFRAME DOVERLAY, 0, STATIC
        FUNCALL zcl_SendReportCmd, zclSerializeData
        LOCFRAME ISTACK, 0, STACK
        LOCFRAME PSTACK, 0, STACK
        LOCFRAME XSTACK, 22, STACK
        LOCFRAME IOVERLAY, 0, STATIC
        LOCFRAME DOVERLAY, 0, STATIC
        ARGFRAME ISTACK, 0, STACK
        ARGFRAME PSTACK, 0, STACK
        ARGFRAME XSTACK, 22, STACK
        ARGFRAME IOVERLAY, 0, STATIC
        ARGFRAME DOVERLAY, 0, STATIC
        FUNCALL zcl_SendReportCmd, zcl_SendCommand
        LOCFRAME ISTACK, 0, STACK
        LOCFRAME PSTACK, 0, STACK
        LOCFRAME XSTACK, 33, STACK
        LOCFRAME IOVERLAY, 0, STATIC
        LOCFRAME DOVERLAY, 0, STATIC
        ARGFRAME ISTACK, 0, STACK
        ARGFRAME PSTACK, 0, STACK
        ARGFRAME XSTACK, 33, STACK
        ARGFRAME IOVERLAY, 0, STATIC
        ARGFRAME DOVERLAY, 0, STATIC
        FUNCALL zcl_SendReportCmd, osal_mem_free
        LOCFRAME ISTACK, 0, STACK
        LOCFRAME PSTACK, 0, STACK
        LOCFRAME XSTACK, 22, STACK
        LOCFRAME IOVERLAY, 0, STATIC
        LOCFRAME DOVERLAY, 0, STATIC
        ARGFRAME ISTACK, 0, STACK
        ARGFRAME PSTACK, 0, STACK
        ARGFRAME XSTACK, 22, STACK
        ARGFRAME IOVERLAY, 0, STATIC
        ARGFRAME DOVERLAY, 0, STATIC
        REQUIRE ?V0
        REQUIRE ?V1
        REQUIRE ?V2
        REQUIRE ?V3
        REQUIRE ?V4
        REQUIRE ?V5
        REQUIRE ?V6
        REQUIRE ?V7
        REQUIRE ?V8
        REQUIRE ?V9
        REQUIRE ?V10
        REQUIRE ?V11
        REQUIRE ?V12
        REQUIRE ?V13
        MOV       A,#-0x16
        LCALL     ?BANKED_ENTER_XDATA
          CFI DPH0 load(1, XDATA, add(CFA_XSP16, literal(-1)))
          CFI DPL0 load(1, XDATA, add(CFA_XSP16, literal(-2)))
          CFI ?BRET_EXT load(1, XDATA, add(CFA_XSP16, literal(-3)))
          CFI ?RET_HIGH load(1, XDATA, add(CFA_XSP16, literal(-4)))
          CFI ?RET_LOW load(1, XDATA, add(CFA_XSP16, literal(-5)))
          CFI R7 load(1, XDATA, add(CFA_XSP16, literal(-6)))
          CFI V13 load(1, XDATA, add(CFA_XSP16, literal(-7)))
          CFI V12 load(1, XDATA, add(CFA_XSP16, literal(-8)))
          CFI V11 load(1, XDATA, add(CFA_XSP16, literal(-9)))
          CFI V10 load(1, XDATA, add(CFA_XSP16, literal(-10)))
          CFI V9 load(1, XDATA, add(CFA_XSP16, literal(-11)))
          CFI V8 load(1, XDATA, add(CFA_XSP16, literal(-12)))
          CFI V7 load(1, XDATA, add(CFA_XSP16, literal(-13)))
          CFI V6 load(1, XDATA, add(CFA_XSP16, literal(-14)))
          CFI V5 load(1, XDATA, add(CFA_XSP16, literal(-15)))
          CFI V4 load(1, XDATA, add(CFA_XSP16, literal(-16)))
          CFI V3 load(1, XDATA, add(CFA_XSP16, literal(-17)))
          CFI V2 load(1, XDATA, add(CFA_XSP16, literal(-18)))
          CFI V1 load(1, XDATA, add(CFA_XSP16, literal(-19)))
          CFI V0 load(1, XDATA, add(CFA_XSP16, literal(-20)))
          CFI VB load(1, XDATA, add(CFA_XSP16, literal(-21)))
          CFI R6 load(1, XDATA, add(CFA_XSP16, literal(-22)))
          CFI CFA_SP SP+0
          CFI CFA_XSP16 add(XSP16, 22)
        ; Saved register size: 22
        ; Auto size: 0
        MOV       ?V3,R1
        MOV       ?V8,R2
        MOV       ?V9,R3
        MOV       ?V6,R4
        MOV       ?V7,R5
// 1803   uint16 dataLen = 0;
        MOV       R6,#0x0
        MOV       R7,#0x0
// 1804   uint8 *buf;
// 1805   ZStatus_t status;
// 1806   uint8 i;
// 1807 
// 1808   // calculate the size of the command
// 1809   for ( i = 0; i < reportCmd->numAttr; i++ )
        MOV       ?V2,#0x0
        MOV       A,#0x16
        LCALL     ?XSTACK_DISP0_8
        MOVX      A,@DPTR
        MOV       ?V4,A
        INC       DPTR
        MOVX      A,@DPTR
        MOV       ?V5,A
        SJMP      ??zcl_SendReportCmd_0
// 1810   {
// 1811     zclReport_t *reportRec = &(reportCmd->attrList[i]);
??zcl_SendReportCmd_1:
        MOV       A,?V2
        MOV       B,#0x5
        MUL       AB
        MOV       R0,A
        MOV       R1,B
        MOV       A,?V4
        ADD       A,R0
        MOV       DPL,A
        MOV       A,?V5
        ADDC      A,R1
        MOV       DPH,A
        INC       DPTR
        MOV       R0,DPL
        MOV       R1,DPH
// 1812 
// 1813     dataLen += 2 + 1; // Attribute ID + data type
// 1814 
// 1815     // Attribute Data
// 1816     dataLen += zclGetAttrDataLength( reportRec->dataType, reportRec->attrData );
        ; Setup parameters for call to function zclGetAttrDataLength
        INC       DPTR
        INC       DPTR
        INC       DPTR
        MOVX      A,@DPTR
        MOV       R2,A
        INC       DPTR
        MOVX      A,@DPTR
        MOV       R3,A
        MOV       DPL,R0
        MOV       DPH,R1
        INC       DPTR
        INC       DPTR
        MOVX      A,@DPTR
        MOV       R1,A
        LCALL     `??zclGetAttrDataLength::?relay`; Banked call to: zclGetAttrDataLength
        MOV       ?V1,R3
        MOV       A,R2
        ADD       A,#0x3
        MOV       R0,A
        CLR       A
        ADDC      A,?V1
        MOV       R1,A
        MOV       A,R6
        ADD       A,R0
        MOV       R6,A
        MOV       A,R7
        ADDC      A,R1
        MOV       R7,A
// 1817   }
        INC       ?V2
??zcl_SendReportCmd_0:
        MOV       DPL,?V4
        MOV       DPH,?V5
        MOVX      A,@DPTR
        MOV       R0,A
        MOV       A,?V2
        CLR       C
        SUBB      A,R0
        JC        ??zcl_SendReportCmd_1
// 1818 
// 1819   buf = zcl_mem_alloc( dataLen );
        ; Setup parameters for call to function osal_mem_alloc
        MOV       A,R6
        MOV       R2,A
        MOV       A,R7
        MOV       R3,A
        LCALL     `??osal_mem_alloc::?relay`; Banked call to: osal_mem_alloc
        MOV       ?V0,R2
        MOV       ?V1,R3
// 1820   if ( buf != NULL )
        MOV       A,R2
        ORL       A,R3
        JNZ       $+5
        LJMP      ??zcl_SendReportCmd_2 & 0xFFFF
// 1821   {
// 1822     // Load the buffer - serially
// 1823     uint8 *pBuf = buf;
        MOV       R0,?V0
        MOV       R1,?V1
// 1824 
// 1825     for ( i = 0; i < reportCmd->numAttr; i++ )
        MOV       ?V2,#0x0
        SJMP      ??zcl_SendReportCmd_3
// 1826     {
// 1827       zclReport_t *reportRec = &(reportCmd->attrList[i]);
??zcl_SendReportCmd_4:
        MOV       A,?V2
        MOV       B,#0x5
        MUL       AB
        MOV       R2,A
        MOV       R3,B
        MOV       A,?V4
        ADD       A,R2
        MOV       DPL,A
        MOV       A,?V5
        ADDC      A,R3
        MOV       DPH,A
        INC       DPTR
        MOV       ?V12,DPL
        MOV       ?V13,DPH
// 1828 
// 1829       *pBuf++ = LO_UINT16( reportRec->attrID );
        MOVX      A,@DPTR
        MOV       DPL,R0
        MOV       DPH,R1
        MOVX      @DPTR,A
// 1830       *pBuf++ = HI_UINT16( reportRec->attrID );
        MOV       DPL,?V12
        MOV       DPH,?V13
        INC       DPTR
        MOVX      A,@DPTR
        MOV       DPL,R0
        MOV       DPH,R1
        INC       DPTR
        MOVX      @DPTR,A
// 1831       *pBuf++ = reportRec->dataType;
        MOV       A,?V12
        ADD       A,#0x2
        MOV       R2,A
        CLR       A
        ADDC      A,?V13
        MOV       ?V10,R2
        MOV       ?V11,A
        MOV       DPL,R2
        MOV       DPH,A
        MOVX      A,@DPTR
        MOV       DPL,R0
        MOV       DPH,R1
        INC       DPTR
        INC       DPTR
        MOVX      @DPTR,A
// 1832 
// 1833       pBuf = zclSerializeData( reportRec->dataType, reportRec->attrData, pBuf );
        ; Setup parameters for call to function zclSerializeData
        MOV       A,R0
        ADD       A,#0x3
        MOV       R4,A
        CLR       A
        ADDC      A,R1
        MOV       R5,A
        MOV       DPL,?V12
        MOV       DPH,?V13
        INC       DPTR
        INC       DPTR
        INC       DPTR
        MOVX      A,@DPTR
        MOV       R2,A
        INC       DPTR
        MOVX      A,@DPTR
        MOV       R3,A
        MOV       DPL,?V10
        MOV       DPH,?V11
        MOVX      A,@DPTR
        MOV       R1,A
        LCALL     `??zclSerializeData::?relay`; Banked call to: zclSerializeData
        MOV       ?V10,R2
        MOV       ?V11,R3
        MOV       R0,?V10
        MOV       R1,?V11
// 1834     }
        INC       ?V2
??zcl_SendReportCmd_3:
        MOV       DPL,?V4
        MOV       DPH,?V5
        MOVX      A,@DPTR
        MOV       R2,A
        MOV       A,?V2
        CLR       C
        SUBB      A,R2
        JC        ??zcl_SendReportCmd_4
// 1835 
// 1836     status = zcl_SendCommand( srcEP, dstAddr, clusterID, ZCL_CMD_REPORT, FALSE,
// 1837                               direction, disableDefaultRsp, 0, seqNum, dataLen, buf );
        ; Setup parameters for call to function zcl_SendCommand
        MOV       R0,#?V0
        LCALL     ?PUSH_XSTACK_I_TWO
          CFI CFA_XSP16 add(XSP16, 24)
        MOV       ?V4,R6
        MOV       ?V5,R7
        MOV       R0,#?V4
        LCALL     ?PUSH_XSTACK_I_TWO
          CFI CFA_XSP16 add(XSP16, 26)
        MOV       A,#0x1e
        LCALL     ?XSTACK_DISP0_8
        MOVX      A,@DPTR
        MOV       ?V2,A
        MOV       R0,#?V2
        LCALL     ?PUSH_XSTACK_I_ONE
          CFI CFA_XSP16 add(XSP16, 27)
        CLR       A
        MOV       ?V4,A
        MOV       ?V5,A
        MOV       R0,#?V4
        LCALL     ?PUSH_XSTACK_I_TWO
          CFI CFA_XSP16 add(XSP16, 29)
        MOV       A,#0x20
        LCALL     ?XSTACK_DISP0_8
        MOVX      A,@DPTR
        MOV       ?V2,A
        MOV       R0,#?V2
        LCALL     ?PUSH_XSTACK_I_ONE
          CFI CFA_XSP16 add(XSP16, 30)
        MOV       A,#0x20
        LCALL     ?XSTACK_DISP0_8
        MOVX      A,@DPTR
        MOV       ?V2,A
        MOV       R0,#?V2
        LCALL     ?PUSH_XSTACK_I_ONE
          CFI CFA_XSP16 add(XSP16, 31)
        MOV       ?V2,#0x0
        MOV       R0,#?V2
        LCALL     ?PUSH_XSTACK_I_ONE
          CFI CFA_XSP16 add(XSP16, 32)
        MOV       ?V2,#0xa
        MOV       R0,#?V2
        LCALL     ?PUSH_XSTACK_I_ONE
          CFI CFA_XSP16 add(XSP16, 33)
        MOV       R4,?V6
        MOV       R5,?V7
        MOV       R2,?V8
        MOV       R3,?V9
        MOV       R1,?V3
        LCALL     `??zcl_SendCommand::?relay`; Banked call to: zcl_SendCommand
        MOV       A,#0xb
        LCALL     ?DEALLOC_XSTACK8
          CFI CFA_XSP16 add(XSP16, 22)
        MOV       A,R1
        MOV       R6,A
// 1838     zcl_mem_free( buf );
        ; Setup parameters for call to function osal_mem_free
        MOV       R2,?V0
        MOV       R3,?V1
        LCALL     `??osal_mem_free::?relay`; Banked call to: osal_mem_free
        SJMP      ??zcl_SendReportCmd_5
// 1839   }
// 1840   else
// 1841   {
// 1842     status = ZMemError;
??zcl_SendReportCmd_2:
        MOV       R6,#0x10
// 1843   }
// 1844 
// 1845   return ( status );
??zcl_SendReportCmd_5:
        MOV       A,R6
        MOV       R1,A
        MOV       R7,#0xe
        LJMP      ?BANKED_LEAVE_XDATA
// 1846 }
          CFI EndBlock cfiBlock23
// 1847 #endif
// 1848 
// 1849 /*********************************************************************
// 1850  * @fn      zcl_SendDefaultRspCmd
// 1851  *
// 1852  * @brief   Send a Default Response command
// 1853  *
// 1854  *          Note: The manufacturer code field should be set if this
// 1855  *          command is being sent in response to a manufacturer specific
// 1856  *          command.
// 1857  *
// 1858  * @param   dstAddr - destination address
// 1859  * @param   clusterID - cluster ID
// 1860  * @param   defaultRspCmd - default response command to be sent
// 1861  * @param   direction - direction of the command
// 1862  * @param   manuCode - manufacturer code for proprietary extensions to a profile
// 1863  * @param   seqNum - transaction sequence number
// 1864  *
// 1865  * @return  ZSuccess if OK
// 1866  */

        RSEG BANKED_CODE:HUGECODE:NOROOT(0)
// 1867 ZStatus_t zcl_SendDefaultRspCmd( uint8 srcEP, afAddrType_t *dstAddr, uint16 clusterID,
zcl_SendDefaultRspCmd:
          CFI Block cfiBlock24 Using cfiCommon0
          CFI Function zcl_SendDefaultRspCmd
        CODE
// 1868                                  zclDefaultRspCmd_t *defaultRspCmd, uint8 direction,
// 1869                                  uint8 disableDefaultRsp, uint16 manuCode, uint8 seqNum )
// 1870 {
        FUNCALL zcl_SendDefaultRspCmd, zcl_SendCommand
        LOCFRAME ISTACK, 0, STACK
        LOCFRAME PSTACK, 0, STACK
        LOCFRAME XSTACK, 23, STACK
        LOCFRAME IOVERLAY, 0, STATIC
        LOCFRAME DOVERLAY, 0, STATIC
        ARGFRAME ISTACK, 0, STACK
        ARGFRAME PSTACK, 0, STACK
        ARGFRAME XSTACK, 23, STACK
        ARGFRAME IOVERLAY, 0, STATIC
        ARGFRAME DOVERLAY, 0, STATIC
        REQUIRE ?V0
        REQUIRE ?V1
        MOV       A,#-0xa
        LCALL     ?BANKED_ENTER_XDATA
          CFI DPH0 load(1, XDATA, add(CFA_XSP16, literal(-1)))
          CFI DPL0 load(1, XDATA, add(CFA_XSP16, literal(-2)))
          CFI ?BRET_EXT load(1, XDATA, add(CFA_XSP16, literal(-3)))
          CFI ?RET_HIGH load(1, XDATA, add(CFA_XSP16, literal(-4)))
          CFI ?RET_LOW load(1, XDATA, add(CFA_XSP16, literal(-5)))
          CFI R7 load(1, XDATA, add(CFA_XSP16, literal(-6)))
          CFI V1 load(1, XDATA, add(CFA_XSP16, literal(-7)))
          CFI V0 load(1, XDATA, add(CFA_XSP16, literal(-8)))
          CFI VB load(1, XDATA, add(CFA_XSP16, literal(-9)))
          CFI R6 load(1, XDATA, add(CFA_XSP16, literal(-10)))
          CFI CFA_SP SP+0
          CFI CFA_XSP16 add(XSP16, 10)
        ; Saved register size: 10
        ; Auto size: 2
        MOV       A,#-0x2
        LCALL     ?ALLOC_XSTACK8
          CFI CFA_XSP16 add(XSP16, 12)
        MOV       A,R1
        MOV       R6,A
        MOV       A,#0xc
        LCALL     ?XSTACK_DISP0_8
        MOVX      A,@DPTR
        MOV       R0,A
        INC       DPTR
        MOVX      A,@DPTR
        MOV       R1,A
// 1871   uint8 buf[2]; // Command ID and Status;
// 1872 
// 1873   // Load the buffer - serially
// 1874   buf[0] = defaultRspCmd->commandID;
        MOV       DPL,R0
        MOV       DPH,A
        MOVX      A,@DPTR
        MOV       DPL,?XSP + 0
        MOV       DPH,?XSP + 1
        MOVX      @DPTR,A
// 1875   buf[1] = defaultRspCmd->statusCode;
        MOV       DPL,R0
        MOV       DPH,R1
        INC       DPTR
        MOVX      A,@DPTR
        PUSH      A
          CFI CFA_SP SP+-1
        MOV       A,#0x1
        LCALL     ?XSTACK_DISP0_8
        POP       A
          CFI CFA_SP SP+0
        MOVX      @DPTR,A
// 1876 
// 1877   return ( zcl_SendCommand( srcEP, dstAddr, clusterID, ZCL_CMD_DEFAULT_RSP, FALSE,
// 1878                             direction, disableDefaultRsp, manuCode, seqNum, 2, buf ) );
        ; Setup parameters for call to function zcl_SendCommand
        MOV       R0,?XSP + 0
        MOV       R1,?XSP + 1
        MOV       ?V0,R0
        MOV       ?V1,R1
        MOV       R0,#?V0
        LCALL     ?PUSH_XSTACK_I_TWO
          CFI CFA_XSP16 add(XSP16, 14)
        MOV       ?V0,#0x2
        MOV       ?V1,#0x0
        MOV       R0,#?V0
        LCALL     ?PUSH_XSTACK_I_TWO
          CFI CFA_XSP16 add(XSP16, 16)
        MOV       A,#0x16
        LCALL     ?XSTACK_DISP0_8
        MOVX      A,@DPTR
        MOV       ?V0,A
        MOV       R0,#?V0
        LCALL     ?PUSH_XSTACK_I_ONE
          CFI CFA_XSP16 add(XSP16, 17)
        MOV       A,#0x15
        LCALL     ?XSTACK_DISP0_8
        LCALL     ?PUSH_XSTACK8_X_TWO
          CFI CFA_XSP16 add(XSP16, 19)
        MOV       A,#0x16
        LCALL     ?XSTACK_DISP0_8
        MOVX      A,@DPTR
        MOV       ?V0,A
        MOV       R0,#?V0
        LCALL     ?PUSH_XSTACK_I_ONE
          CFI CFA_XSP16 add(XSP16, 20)
        MOV       A,#0x16
        LCALL     ?XSTACK_DISP0_8
        MOVX      A,@DPTR
        MOV       ?V0,A
        MOV       R0,#?V0
        LCALL     ?PUSH_XSTACK_I_ONE
          CFI CFA_XSP16 add(XSP16, 21)
        MOV       ?V0,#0x0
        MOV       R0,#?V0
        LCALL     ?PUSH_XSTACK_I_ONE
          CFI CFA_XSP16 add(XSP16, 22)
        MOV       ?V0,#0xb
        MOV       R0,#?V0
        LCALL     ?PUSH_XSTACK_I_ONE
          CFI CFA_XSP16 add(XSP16, 23)
        MOV       A,R6
        MOV       R1,A
        LCALL     `??zcl_SendCommand::?relay`; Banked call to: zcl_SendCommand
        MOV       A,#0xb
        LCALL     ?DEALLOC_XSTACK8
          CFI CFA_XSP16 add(XSP16, 12)
        MOV       A,#0x2
        LCALL     ?DEALLOC_XSTACK8
          CFI CFA_XSP16 add(XSP16, 10)
        MOV       R7,#0x2
        LJMP      ?BANKED_LEAVE_XDATA
// 1879 }
          CFI EndBlock cfiBlock24
// 1880 
// 1881 #ifdef ZCL_DISCOVER
// 1882 /*********************************************************************
// 1883  * @fn      zcl_SendDiscoverCmdsCmd
// 1884  *
// 1885  * @brief   Send a Discover Commands command
// 1886  *
// 1887  * @param   dstAddr - destination address
// 1888  * @param   clusterID - cluster ID
// 1889  * @param   cmdType - requesting command ID
// 1890  * @param   pDiscoverCmd - discover command to be sent
// 1891  * @param   direction - direction of the command
// 1892  * @param   seqNum - transaction sequence number
// 1893  *
// 1894  * @return  ZSuccess if OK
// 1895  */

        RSEG BANKED_CODE:HUGECODE:NOROOT(0)
// 1896 ZStatus_t zcl_SendDiscoverCmdsCmd( uint8 srcEP, afAddrType_t *dstAddr, uint16 clusterID,
zcl_SendDiscoverCmdsCmd:
          CFI Block cfiBlock25 Using cfiCommon0
          CFI Function zcl_SendDiscoverCmdsCmd
        CODE
// 1897                                   uint8 cmdType, zclDiscoverCmdsCmd_t *pDiscoverCmd,
// 1898                                   uint8 direction, uint8 disableDefaultRsp, uint8 seqNum )
// 1899 {
        FUNCALL zcl_SendDiscoverCmdsCmd, zcl_SendCommand
        LOCFRAME ISTACK, 0, STACK
        LOCFRAME PSTACK, 0, STACK
        LOCFRAME XSTACK, 25, STACK
        LOCFRAME IOVERLAY, 0, STATIC
        LOCFRAME DOVERLAY, 0, STATIC
        ARGFRAME ISTACK, 0, STACK
        ARGFRAME PSTACK, 0, STACK
        ARGFRAME XSTACK, 25, STACK
        ARGFRAME IOVERLAY, 0, STATIC
        ARGFRAME DOVERLAY, 0, STATIC
        FUNCALL zcl_SendDiscoverCmdsCmd, zcl_SendCommand
        LOCFRAME ISTACK, 0, STACK
        LOCFRAME PSTACK, 0, STACK
        LOCFRAME XSTACK, 25, STACK
        LOCFRAME IOVERLAY, 0, STATIC
        LOCFRAME DOVERLAY, 0, STATIC
        ARGFRAME ISTACK, 0, STACK
        ARGFRAME PSTACK, 0, STACK
        ARGFRAME XSTACK, 25, STACK
        ARGFRAME IOVERLAY, 0, STATIC
        ARGFRAME DOVERLAY, 0, STATIC
        REQUIRE ?V0
        REQUIRE ?V1
        REQUIRE ?V2
        REQUIRE ?V3
        MOV       A,#-0xc
        LCALL     ?BANKED_ENTER_XDATA
          CFI DPH0 load(1, XDATA, add(CFA_XSP16, literal(-1)))
          CFI DPL0 load(1, XDATA, add(CFA_XSP16, literal(-2)))
          CFI ?BRET_EXT load(1, XDATA, add(CFA_XSP16, literal(-3)))
          CFI ?RET_HIGH load(1, XDATA, add(CFA_XSP16, literal(-4)))
          CFI ?RET_LOW load(1, XDATA, add(CFA_XSP16, literal(-5)))
          CFI R7 load(1, XDATA, add(CFA_XSP16, literal(-6)))
          CFI V3 load(1, XDATA, add(CFA_XSP16, literal(-7)))
          CFI V2 load(1, XDATA, add(CFA_XSP16, literal(-8)))
          CFI V1 load(1, XDATA, add(CFA_XSP16, literal(-9)))
          CFI V0 load(1, XDATA, add(CFA_XSP16, literal(-10)))
          CFI VB load(1, XDATA, add(CFA_XSP16, literal(-11)))
          CFI R6 load(1, XDATA, add(CFA_XSP16, literal(-12)))
          CFI CFA_SP SP+0
          CFI CFA_XSP16 add(XSP16, 12)
        ; Saved register size: 12
        ; Auto size: 2
        MOV       A,#-0x2
        LCALL     ?ALLOC_XSTACK8
          CFI CFA_XSP16 add(XSP16, 14)
        MOV       A,R1
        MOV       R6,A
        MOV       A,#0xf
        LCALL     ?XSTACK_DISP0_8
        MOVX      A,@DPTR
        MOV       R0,A
        INC       DPTR
        MOVX      A,@DPTR
        MOV       R1,A
// 1900   uint8 payload[2]; // size of startCmdID and maxCmdID
// 1901   ZStatus_t status;
// 1902 
// 1903   payload[0] = pDiscoverCmd->startCmdID;
        MOV       DPL,R0
        MOV       DPH,A
        MOVX      A,@DPTR
        MOV       DPL,?XSP + 0
        MOV       DPH,?XSP + 1
        MOVX      @DPTR,A
// 1904   payload[1] = pDiscoverCmd->maxCmdID;
        MOV       DPL,R0
        MOV       DPH,R1
        INC       DPTR
        MOVX      A,@DPTR
        PUSH      A
          CFI CFA_SP SP+-1
        MOV       A,#0x1
        LCALL     ?XSTACK_DISP0_8
        POP       A
          CFI CFA_SP SP+0
        MOVX      @DPTR,A
        MOV       A,#0x11
        LCALL     ?XSTACK_DISP0_8
        MOVX      A,@DPTR
        MOV       R7,A
        MOV       A,#0x12
        LCALL     ?XSTACK_DISP0_8
        MOVX      A,@DPTR
        MOV       ?V0,A
        MOV       A,#0x13
        LCALL     ?XSTACK_DISP0_8
        MOVX      A,@DPTR
        MOV       ?V1,A
// 1905 
// 1906   // Send message for either commands received or generated
// 1907   if ( cmdType == ZCL_CMD_DISCOVER_CMDS_RECEIVED )
        MOV       A,#0xe
        LCALL     ?XSTACK_DISP0_8
        MOVX      A,@DPTR
        XRL       A,#0x11
        MOV       R0,?XSP + 0
        MOV       R1,?XSP + 1
        MOV       ?V2,R0
        MOV       ?V3,R1
        MOV       R0,#?V2
        JNZ       ??zcl_SendDiscoverCmdsCmd_0
// 1908   {
// 1909     status = zcl_SendCommand( srcEP, dstAddr, clusterID, ZCL_CMD_DISCOVER_CMDS_RECEIVED, FALSE,
// 1910                                 direction, disableDefaultRsp, 0, seqNum, sizeof(payload), payload );
        ; Setup parameters for call to function zcl_SendCommand
        LCALL     ?PUSH_XSTACK_I_TWO
          CFI CFA_XSP16 add(XSP16, 16)
        MOV       ?V2,#0x2
        MOV       ?V3,#0x0
        MOV       R0,#?V2
        LCALL     ?PUSH_XSTACK_I_TWO
          CFI CFA_XSP16 add(XSP16, 18)
        MOV       R0,#?V1
        LCALL     ?PUSH_XSTACK_I_ONE
          CFI CFA_XSP16 add(XSP16, 19)
        CLR       A
        MOV       ?V2,A
        MOV       R0,#?V2
        LCALL     ?PUSH_XSTACK_I_TWO
          CFI CFA_XSP16 add(XSP16, 21)
        MOV       R0,#?V0
        LCALL     ?PUSH_XSTACK_I_ONE
          CFI CFA_XSP16 add(XSP16, 22)
        MOV       A,R7
        MOV       ?V0,A
        MOV       R0,#?V0
        LCALL     ?PUSH_XSTACK_I_ONE
          CFI CFA_XSP16 add(XSP16, 23)
        MOV       ?V0,#0x0
        MOV       R0,#?V0
        LCALL     ?PUSH_XSTACK_I_ONE
          CFI CFA_XSP16 add(XSP16, 24)
        MOV       ?V0,#0x11
        SJMP      ??zcl_SendDiscoverCmdsCmd_1
          CFI CFA_XSP16 add(XSP16, 14)
// 1911   }
// 1912   else  // generated
// 1913   {
// 1914     status = zcl_SendCommand( srcEP, dstAddr, clusterID, ZCL_CMD_DISCOVER_CMDS_GEN, FALSE,
// 1915                                 direction, disableDefaultRsp, 0, seqNum, sizeof(payload), payload );
??zcl_SendDiscoverCmdsCmd_0:
        ; Setup parameters for call to function zcl_SendCommand
        LCALL     ?PUSH_XSTACK_I_TWO
          CFI CFA_XSP16 add(XSP16, 16)
        MOV       ?V2,#0x2
        MOV       ?V3,#0x0
        MOV       R0,#?V2
        LCALL     ?PUSH_XSTACK_I_TWO
          CFI CFA_XSP16 add(XSP16, 18)
        MOV       R0,#?V1
        LCALL     ?PUSH_XSTACK_I_ONE
          CFI CFA_XSP16 add(XSP16, 19)
        CLR       A
        MOV       ?V2,A
        MOV       R0,#?V2
        LCALL     ?PUSH_XSTACK_I_TWO
          CFI CFA_XSP16 add(XSP16, 21)
        MOV       R0,#?V0
        LCALL     ?PUSH_XSTACK_I_ONE
          CFI CFA_XSP16 add(XSP16, 22)
        MOV       A,R7
        MOV       ?V0,A
        MOV       R0,#?V0
        LCALL     ?PUSH_XSTACK_I_ONE
          CFI CFA_XSP16 add(XSP16, 23)
        MOV       ?V0,#0x0
        MOV       R0,#?V0
        LCALL     ?PUSH_XSTACK_I_ONE
          CFI CFA_XSP16 add(XSP16, 24)
        MOV       ?V0,#0x13
??zcl_SendDiscoverCmdsCmd_1:
        MOV       R0,#?V0
        LCALL     ?PUSH_XSTACK_I_ONE
          CFI CFA_XSP16 add(XSP16, 25)
        MOV       A,R6
        MOV       R1,A
        LCALL     `??zcl_SendCommand::?relay`; Banked call to: zcl_SendCommand
        MOV       A,#0xb
        LCALL     ?DEALLOC_XSTACK8
          CFI CFA_XSP16 add(XSP16, 14)
        MOV       A,R1
        MOV       R1,A
// 1916   }
// 1917 
// 1918   return ( status );
        MOV       A,#0x2
        LCALL     ?DEALLOC_XSTACK8
          CFI CFA_XSP16 add(XSP16, 12)
        MOV       R7,#0x4
        LJMP      ?BANKED_LEAVE_XDATA
// 1919 }
          CFI EndBlock cfiBlock25
// 1920 
// 1921 /*********************************************************************
// 1922  * @fn      zcl_SendDiscoverCmdsRspCmd
// 1923  *
// 1924  * @brief   Send a Discover Commands Response command
// 1925  *
// 1926  * @param   dstAddr - destination address
// 1927  * @param   clusterID - cluster ID
// 1928  * @param   pDiscoverRspCmd - response command to be sent
// 1929  * @param   direction - direction of the command
// 1930  * @param   seqNum - transaction sequence number
// 1931  *
// 1932  * @return  ZSuccess if OK
// 1933  */

        RSEG BANKED_CODE:HUGECODE:NOROOT(0)
// 1934 ZStatus_t zcl_SendDiscoverCmdsRspCmd( uint8 srcEP, afAddrType_t *dstAddr,
zcl_SendDiscoverCmdsRspCmd:
          CFI Block cfiBlock26 Using cfiCommon0
          CFI Function zcl_SendDiscoverCmdsRspCmd
        CODE
// 1935                                       uint16 clusterID, zclDiscoverCmdsCmdRsp_t *pDiscoverRspCmd,
// 1936                                       uint8 direction, uint8 disableDefaultRsp, uint8 seqNum )
// 1937 {
        FUNCALL zcl_SendDiscoverCmdsRspCmd, osal_mem_alloc
        LOCFRAME ISTACK, 0, STACK
        LOCFRAME PSTACK, 0, STACK
        LOCFRAME XSTACK, 22, STACK
        LOCFRAME IOVERLAY, 0, STATIC
        LOCFRAME DOVERLAY, 0, STATIC
        ARGFRAME ISTACK, 0, STACK
        ARGFRAME PSTACK, 0, STACK
        ARGFRAME XSTACK, 22, STACK
        ARGFRAME IOVERLAY, 0, STATIC
        ARGFRAME DOVERLAY, 0, STATIC
        FUNCALL zcl_SendDiscoverCmdsRspCmd, zcl_SendCommand
        LOCFRAME ISTACK, 0, STACK
        LOCFRAME PSTACK, 0, STACK
        LOCFRAME XSTACK, 33, STACK
        LOCFRAME IOVERLAY, 0, STATIC
        LOCFRAME DOVERLAY, 0, STATIC
        ARGFRAME ISTACK, 0, STACK
        ARGFRAME PSTACK, 0, STACK
        ARGFRAME XSTACK, 33, STACK
        ARGFRAME IOVERLAY, 0, STATIC
        ARGFRAME DOVERLAY, 0, STATIC
        FUNCALL zcl_SendDiscoverCmdsRspCmd, zcl_SendCommand
        LOCFRAME ISTACK, 0, STACK
        LOCFRAME PSTACK, 0, STACK
        LOCFRAME XSTACK, 33, STACK
        LOCFRAME IOVERLAY, 0, STATIC
        LOCFRAME DOVERLAY, 0, STATIC
        ARGFRAME ISTACK, 0, STACK
        ARGFRAME PSTACK, 0, STACK
        ARGFRAME XSTACK, 33, STACK
        ARGFRAME IOVERLAY, 0, STATIC
        ARGFRAME DOVERLAY, 0, STATIC
        FUNCALL zcl_SendDiscoverCmdsRspCmd, osal_mem_free
        LOCFRAME ISTACK, 0, STACK
        LOCFRAME PSTACK, 0, STACK
        LOCFRAME XSTACK, 22, STACK
        LOCFRAME IOVERLAY, 0, STATIC
        LOCFRAME DOVERLAY, 0, STATIC
        ARGFRAME ISTACK, 0, STACK
        ARGFRAME PSTACK, 0, STACK
        ARGFRAME XSTACK, 22, STACK
        ARGFRAME IOVERLAY, 0, STATIC
        ARGFRAME DOVERLAY, 0, STATIC
        REQUIRE ?V0
        REQUIRE ?V1
        REQUIRE ?V2
        REQUIRE ?V3
        REQUIRE ?V4
        REQUIRE ?V5
        REQUIRE ?V6
        REQUIRE ?V7
        REQUIRE ?V8
        REQUIRE ?V9
        REQUIRE ?V10
        REQUIRE ?V11
        REQUIRE ?V12
        REQUIRE ?V13
        MOV       A,#-0x16
        LCALL     ?BANKED_ENTER_XDATA
          CFI DPH0 load(1, XDATA, add(CFA_XSP16, literal(-1)))
          CFI DPL0 load(1, XDATA, add(CFA_XSP16, literal(-2)))
          CFI ?BRET_EXT load(1, XDATA, add(CFA_XSP16, literal(-3)))
          CFI ?RET_HIGH load(1, XDATA, add(CFA_XSP16, literal(-4)))
          CFI ?RET_LOW load(1, XDATA, add(CFA_XSP16, literal(-5)))
          CFI R7 load(1, XDATA, add(CFA_XSP16, literal(-6)))
          CFI V13 load(1, XDATA, add(CFA_XSP16, literal(-7)))
          CFI V12 load(1, XDATA, add(CFA_XSP16, literal(-8)))
          CFI V11 load(1, XDATA, add(CFA_XSP16, literal(-9)))
          CFI V10 load(1, XDATA, add(CFA_XSP16, literal(-10)))
          CFI V9 load(1, XDATA, add(CFA_XSP16, literal(-11)))
          CFI V8 load(1, XDATA, add(CFA_XSP16, literal(-12)))
          CFI V7 load(1, XDATA, add(CFA_XSP16, literal(-13)))
          CFI V6 load(1, XDATA, add(CFA_XSP16, literal(-14)))
          CFI V5 load(1, XDATA, add(CFA_XSP16, literal(-15)))
          CFI V4 load(1, XDATA, add(CFA_XSP16, literal(-16)))
          CFI V3 load(1, XDATA, add(CFA_XSP16, literal(-17)))
          CFI V2 load(1, XDATA, add(CFA_XSP16, literal(-18)))
          CFI V1 load(1, XDATA, add(CFA_XSP16, literal(-19)))
          CFI V0 load(1, XDATA, add(CFA_XSP16, literal(-20)))
          CFI VB load(1, XDATA, add(CFA_XSP16, literal(-21)))
          CFI R6 load(1, XDATA, add(CFA_XSP16, literal(-22)))
          CFI CFA_SP SP+0
          CFI CFA_XSP16 add(XSP16, 22)
        ; Saved register size: 22
        ; Auto size: 0
        MOV       ?V11,R1
        MOV       ?V8,R2
        MOV       ?V9,R3
        MOV       A,R4
        MOV       R6,A
        MOV       A,R5
        MOV       R7,A
        MOV       A,#0x16
        LCALL     ?XSTACK_DISP0_8
        MOVX      A,@DPTR
        MOV       ?V2,A
        INC       DPTR
        MOVX      A,@DPTR
        MOV       ?V3,A
// 1938   uint8 payloadSize = ( 1 + pDiscoverRspCmd->numCmd );  // size of discovery complete field plus cmds
        MOV       A,?V2
        ADD       A,#0x2
        MOV       ?V4,A
        CLR       A
        ADDC      A,?V3
        MOV       ?V5,A
        MOV       DPL,?V4
        MOV       DPH,A
        MOVX      A,@DPTR
        INC       A
// 1939   uint8 *pCmdBuf;
// 1940   uint8 i;
// 1941   ZStatus_t status = ZSuccess;
        MOV       ?V10,#0x0
// 1942 
// 1943   // allocate memory
// 1944   pCmdBuf = zcl_mem_alloc( payloadSize );
        MOV       ?V6,A
        MOV       ?V7,#0x0
        ; Setup parameters for call to function osal_mem_alloc
        MOV       R2,A
        MOV       R3,?V7
        LCALL     `??osal_mem_alloc::?relay`; Banked call to: osal_mem_alloc
        MOV       ?V0,R2
        MOV       ?V1,R3
// 1945   if ( pCmdBuf != NULL )
        MOV       A,R2
        ORL       A,R3
        JNZ       $+5
        LJMP      ??zcl_SendDiscoverCmdsRspCmd_0 & 0xFFFF
// 1946   {
// 1947     uint8 *pBuf = pCmdBuf;
// 1948 
// 1949     // Load the buffer - serially
// 1950     *pBuf++ = pDiscoverRspCmd->discComplete;
        MOV       DPL,?V2
        MOV       DPH,?V3
        MOVX      A,@DPTR
        MOV       DPL,R2
        MOV       DPH,R3
        MOVX      @DPTR,A
        INC       DPTR
        MOV       R0,DPL
        MOV       R1,DPH
// 1951     for ( i = 0; i < pDiscoverRspCmd->numCmd; i++ )
        MOV       R2,#0x0
        SJMP      ??zcl_SendDiscoverCmdsRspCmd_1
// 1952     {
// 1953       *pBuf++ = pDiscoverRspCmd->pCmdID[i];
??zcl_SendDiscoverCmdsRspCmd_2:
        MOV       A,R2
        MOV       R4,A
        MOV       DPL,?V2
        MOV       DPH,?V3
        INC       DPTR
        INC       DPTR
        INC       DPTR
        MOVX      A,@DPTR
        ADD       A,R4
        MOV       R3,A
        INC       DPTR
        MOVX      A,@DPTR
        ADDC      A,#0x0
        MOV       DPL,R3
        MOV       DPH,A
        MOVX      A,@DPTR
        MOV       DPL,R0
        MOV       DPH,R1
        MOVX      @DPTR,A
        INC       DPTR
        MOV       R0,DPL
        MOV       R1,DPH
// 1954     }
        INC       R2
??zcl_SendDiscoverCmdsRspCmd_1:
        MOV       DPL,?V4
        MOV       DPH,?V5
        MOVX      A,@DPTR
        MOV       R3,A
        MOV       A,R2
        CLR       C
        SUBB      A,R3
        JC        ??zcl_SendDiscoverCmdsRspCmd_2
// 1955 
// 1956     // Send response message for either commands received or generated
// 1957     if( pDiscoverRspCmd->cmdType == ZCL_CMD_DISCOVER_CMDS_RECEIVED )
        MOV       DPL,?V2
        MOV       DPH,?V3
        INC       DPTR
        MOVX      A,@DPTR
        MOV       R0,A
        MOV       A,#0x18
        LCALL     ?XSTACK_DISP0_8
        MOVX      A,@DPTR
        MOV       R1,A
        MOV       A,#0x19
        LCALL     ?XSTACK_DISP0_8
        MOVX      A,@DPTR
        MOV       R2,A
        MOV       A,#0x1a
        LCALL     ?XSTACK_DISP0_8
        MOVX      A,@DPTR
        MOV       R3,A
        MOV       A,#0x11
        XRL       A,R0
        JNZ       ??zcl_SendDiscoverCmdsRspCmd_3
// 1958     {
// 1959       status = zcl_SendCommand( srcEP, dstAddr, clusterID, ZCL_CMD_DISCOVER_CMDS_RECEIVED_RSP, FALSE,
// 1960                                 direction, disableDefaultRsp, 0, seqNum, payloadSize, pCmdBuf );
        ; Setup parameters for call to function zcl_SendCommand
        MOV       R0,#?V0
        LCALL     ?PUSH_XSTACK_I_TWO
          CFI CFA_XSP16 add(XSP16, 24)
        MOV       R0,#?V6
        LCALL     ?PUSH_XSTACK_I_TWO
          CFI CFA_XSP16 add(XSP16, 26)
        MOV       A,R3
        MOV       ?V2,A
        MOV       R0,#?V2
        LCALL     ?PUSH_XSTACK_I_ONE
          CFI CFA_XSP16 add(XSP16, 27)
        CLR       A
        MOV       ?V2,A
        MOV       ?V3,A
        MOV       R0,#?V2
        LCALL     ?PUSH_XSTACK_I_TWO
          CFI CFA_XSP16 add(XSP16, 29)
        MOV       A,R2
        MOV       ?V2,A
        MOV       R0,#?V2
        LCALL     ?PUSH_XSTACK_I_ONE
          CFI CFA_XSP16 add(XSP16, 30)
        MOV       A,R1
        MOV       ?V2,A
        MOV       R0,#?V2
        LCALL     ?PUSH_XSTACK_I_ONE
          CFI CFA_XSP16 add(XSP16, 31)
        MOV       ?V2,#0x0
        MOV       R0,#?V2
        LCALL     ?PUSH_XSTACK_I_ONE
          CFI CFA_XSP16 add(XSP16, 32)
        MOV       ?V2,#0x12
        SJMP      ??zcl_SendDiscoverCmdsRspCmd_4
          CFI CFA_XSP16 add(XSP16, 22)
// 1961     }
// 1962     else if ( pDiscoverRspCmd->cmdType == ZCL_CMD_DISCOVER_CMDS_GEN )
??zcl_SendDiscoverCmdsRspCmd_3:
        MOV       A,#0x13
        XRL       A,R0
        JNZ       ??zcl_SendDiscoverCmdsRspCmd_5
// 1963     {
// 1964       status = zcl_SendCommand( srcEP, dstAddr, clusterID, ZCL_CMD_DISCOVER_CMDS_GEN_RSP, FALSE,
// 1965                                 direction, disableDefaultRsp, 0, seqNum, payloadSize, pCmdBuf );
        ; Setup parameters for call to function zcl_SendCommand
        MOV       R0,#?V0
        LCALL     ?PUSH_XSTACK_I_TWO
          CFI CFA_XSP16 add(XSP16, 24)
        MOV       R0,#?V6
        LCALL     ?PUSH_XSTACK_I_TWO
          CFI CFA_XSP16 add(XSP16, 26)
        MOV       A,R3
        MOV       ?V2,A
        MOV       R0,#?V2
        LCALL     ?PUSH_XSTACK_I_ONE
          CFI CFA_XSP16 add(XSP16, 27)
        CLR       A
        MOV       ?V2,A
        MOV       ?V3,A
        MOV       R0,#?V2
        LCALL     ?PUSH_XSTACK_I_TWO
          CFI CFA_XSP16 add(XSP16, 29)
        MOV       A,R2
        MOV       ?V2,A
        MOV       R0,#?V2
        LCALL     ?PUSH_XSTACK_I_ONE
          CFI CFA_XSP16 add(XSP16, 30)
        MOV       A,R1
        MOV       ?V2,A
        MOV       R0,#?V2
        LCALL     ?PUSH_XSTACK_I_ONE
          CFI CFA_XSP16 add(XSP16, 31)
        MOV       ?V2,#0x0
        MOV       R0,#?V2
        LCALL     ?PUSH_XSTACK_I_ONE
          CFI CFA_XSP16 add(XSP16, 32)
        MOV       ?V2,#0x14
??zcl_SendDiscoverCmdsRspCmd_4:
        MOV       R0,#?V2
        LCALL     ?PUSH_XSTACK_I_ONE
          CFI CFA_XSP16 add(XSP16, 33)
        MOV       A,R6
        MOV       R4,A
        MOV       A,R7
        MOV       R5,A
        MOV       R2,?V8
        MOV       R3,?V9
        MOV       R1,?V11
        LCALL     `??zcl_SendCommand::?relay`; Banked call to: zcl_SendCommand
        MOV       A,#0xb
        LCALL     ?DEALLOC_XSTACK8
          CFI CFA_XSP16 add(XSP16, 22)
        MOV       A,R1
        MOV       ?V10,A
// 1966     }
// 1967 
// 1968     zcl_mem_free( pCmdBuf );
??zcl_SendDiscoverCmdsRspCmd_5:
        ; Setup parameters for call to function osal_mem_free
        MOV       R2,?V0
        MOV       R3,?V1
        LCALL     `??osal_mem_free::?relay`; Banked call to: osal_mem_free
        SJMP      ??zcl_SendDiscoverCmdsRspCmd_6
// 1969   }
// 1970   else
// 1971   {
// 1972     status = ZMemError;
??zcl_SendDiscoverCmdsRspCmd_0:
        MOV       ?V10,#0x10
// 1973   }
// 1974 
// 1975   return ( status );
??zcl_SendDiscoverCmdsRspCmd_6:
        MOV       R1,?V10
        MOV       R7,#0xe
        LJMP      ?BANKED_LEAVE_XDATA
// 1976 }
          CFI EndBlock cfiBlock26
// 1977 
// 1978 /*********************************************************************
// 1979  * @fn      zcl_SendDiscoverAttrsCmd
// 1980  *
// 1981  * @brief   Send a Discover Attributes command
// 1982  *
// 1983  * @param   dstAddr - destination address
// 1984  * @param   clusterID - cluster ID
// 1985  * @param   pDiscoverCmd - discover command to be sent
// 1986  * @param   direction - direction of the command
// 1987  * @param   seqNum - transaction sequence number
// 1988  *
// 1989  * @return  ZSuccess if OK
// 1990  */

        RSEG BANKED_CODE:HUGECODE:NOROOT(0)
// 1991 ZStatus_t zcl_SendDiscoverAttrsCmd( uint8 srcEP, afAddrType_t *dstAddr,
zcl_SendDiscoverAttrsCmd:
          CFI Block cfiBlock27 Using cfiCommon0
          CFI Function zcl_SendDiscoverAttrsCmd
        CODE
// 1992                             uint16 clusterID, zclDiscoverAttrsCmd_t *pDiscoverCmd,
// 1993                             uint8 direction, uint8 disableDefaultRsp, uint8 seqNum )
// 1994 {
        FUNCALL zcl_SendDiscoverAttrsCmd, osal_mem_alloc
        LOCFRAME ISTACK, 0, STACK
        LOCFRAME PSTACK, 0, STACK
        LOCFRAME XSTACK, 16, STACK
        LOCFRAME IOVERLAY, 0, STATIC
        LOCFRAME DOVERLAY, 0, STATIC
        ARGFRAME ISTACK, 0, STACK
        ARGFRAME PSTACK, 0, STACK
        ARGFRAME XSTACK, 16, STACK
        ARGFRAME IOVERLAY, 0, STATIC
        ARGFRAME DOVERLAY, 0, STATIC
        FUNCALL zcl_SendDiscoverAttrsCmd, zcl_SendCommand
        LOCFRAME ISTACK, 0, STACK
        LOCFRAME PSTACK, 0, STACK
        LOCFRAME XSTACK, 27, STACK
        LOCFRAME IOVERLAY, 0, STATIC
        LOCFRAME DOVERLAY, 0, STATIC
        ARGFRAME ISTACK, 0, STACK
        ARGFRAME PSTACK, 0, STACK
        ARGFRAME XSTACK, 27, STACK
        ARGFRAME IOVERLAY, 0, STATIC
        ARGFRAME DOVERLAY, 0, STATIC
        FUNCALL zcl_SendDiscoverAttrsCmd, osal_mem_free
        LOCFRAME ISTACK, 0, STACK
        LOCFRAME PSTACK, 0, STACK
        LOCFRAME XSTACK, 16, STACK
        LOCFRAME IOVERLAY, 0, STATIC
        LOCFRAME DOVERLAY, 0, STATIC
        ARGFRAME ISTACK, 0, STACK
        ARGFRAME PSTACK, 0, STACK
        ARGFRAME XSTACK, 16, STACK
        ARGFRAME IOVERLAY, 0, STATIC
        ARGFRAME DOVERLAY, 0, STATIC
        REQUIRE ?V0
        REQUIRE ?V1
        REQUIRE ?V2
        REQUIRE ?V3
        REQUIRE ?V4
        REQUIRE ?V5
        REQUIRE ?V6
        REQUIRE ?V7
        MOV       A,#-0x10
        LCALL     ?BANKED_ENTER_XDATA
          CFI DPH0 load(1, XDATA, add(CFA_XSP16, literal(-1)))
          CFI DPL0 load(1, XDATA, add(CFA_XSP16, literal(-2)))
          CFI ?BRET_EXT load(1, XDATA, add(CFA_XSP16, literal(-3)))
          CFI ?RET_HIGH load(1, XDATA, add(CFA_XSP16, literal(-4)))
          CFI ?RET_LOW load(1, XDATA, add(CFA_XSP16, literal(-5)))
          CFI R7 load(1, XDATA, add(CFA_XSP16, literal(-6)))
          CFI V7 load(1, XDATA, add(CFA_XSP16, literal(-7)))
          CFI V6 load(1, XDATA, add(CFA_XSP16, literal(-8)))
          CFI V5 load(1, XDATA, add(CFA_XSP16, literal(-9)))
          CFI V4 load(1, XDATA, add(CFA_XSP16, literal(-10)))
          CFI V3 load(1, XDATA, add(CFA_XSP16, literal(-11)))
          CFI V2 load(1, XDATA, add(CFA_XSP16, literal(-12)))
          CFI V1 load(1, XDATA, add(CFA_XSP16, literal(-13)))
          CFI V0 load(1, XDATA, add(CFA_XSP16, literal(-14)))
          CFI VB load(1, XDATA, add(CFA_XSP16, literal(-15)))
          CFI R6 load(1, XDATA, add(CFA_XSP16, literal(-16)))
          CFI CFA_SP SP+0
          CFI CFA_XSP16 add(XSP16, 16)
        ; Saved register size: 16
        ; Auto size: 0
        MOV       ?V2,R1
        MOV       A,R2
        MOV       R6,A
        MOV       A,R3
        MOV       R7,A
        MOV       ?V0,R4
        MOV       ?V1,R5
// 1995   uint8 dataLen = 2 + 1; // Start Attribute ID and Max Attribute IDs
// 1996   uint8 *buf;
// 1997   ZStatus_t status;
// 1998 
// 1999   buf = zcl_mem_alloc( dataLen );
        ; Setup parameters for call to function osal_mem_alloc
        MOV       R2,#0x3
        MOV       R3,#0x0
        LCALL     `??osal_mem_alloc::?relay`; Banked call to: osal_mem_alloc
        MOV       ?V4,R2
        MOV       ?V5,R3
// 2000   if ( buf != NULL )
        MOV       A,R2
        ORL       A,R3
        JNZ       $+5
        LJMP      ??zcl_SendDiscoverAttrsCmd_0 & 0xFFFF
        MOV       A,#0x10
        LCALL     ?XSTACK_DISP0_8
        MOVX      A,@DPTR
        MOV       R0,A
        INC       DPTR
        MOVX      A,@DPTR
        MOV       R1,A
// 2001   {
// 2002     // Load the buffer - serially
// 2003     uint8 *pBuf = buf;
// 2004     *pBuf++ = LO_UINT16(pDiscoverCmd->startAttr);
        MOV       DPL,R0
        MOV       DPH,A
        MOVX      A,@DPTR
        MOV       DPL,R2
        MOV       DPH,R3
        MOVX      @DPTR,A
// 2005     *pBuf++ = HI_UINT16(pDiscoverCmd->startAttr);
        MOV       DPL,R0
        MOV       DPH,R1
        INC       DPTR
        MOVX      A,@DPTR
        MOV       DPL,R2
        MOV       DPH,R3
        INC       DPTR
        MOVX      @DPTR,A
// 2006     *pBuf++ = pDiscoverCmd->maxAttrIDs;
        MOV       DPL,R0
        MOV       DPH,R1
        INC       DPTR
        INC       DPTR
        MOVX      A,@DPTR
        MOV       DPL,R2
        MOV       DPH,R3
        INC       DPTR
        INC       DPTR
        MOVX      @DPTR,A
// 2007 
// 2008     status = zcl_SendCommand( srcEP, dstAddr, clusterID, ZCL_CMD_DISCOVER_ATTRS, FALSE,
// 2009                               direction, disableDefaultRsp, 0, seqNum, dataLen, buf );
        ; Setup parameters for call to function zcl_SendCommand
        MOV       R0,#?V4
        LCALL     ?PUSH_XSTACK_I_TWO
          CFI CFA_XSP16 add(XSP16, 18)
        MOV       ?V6,#0x3
        MOV       ?V7,#0x0
        MOV       R0,#?V6
        LCALL     ?PUSH_XSTACK_I_TWO
          CFI CFA_XSP16 add(XSP16, 20)
        MOV       A,#0x18
        LCALL     ?XSTACK_DISP0_8
        MOVX      A,@DPTR
        MOV       ?V3,A
        MOV       R0,#?V3
        LCALL     ?PUSH_XSTACK_I_ONE
          CFI CFA_XSP16 add(XSP16, 21)
        CLR       A
        MOV       ?V6,A
        MOV       R0,#?V6
        LCALL     ?PUSH_XSTACK_I_TWO
          CFI CFA_XSP16 add(XSP16, 23)
        MOV       A,#0x1a
        LCALL     ?XSTACK_DISP0_8
        MOVX      A,@DPTR
        MOV       ?V3,A
        MOV       R0,#?V3
        LCALL     ?PUSH_XSTACK_I_ONE
          CFI CFA_XSP16 add(XSP16, 24)
        MOV       A,#0x1a
        LCALL     ?XSTACK_DISP0_8
        MOVX      A,@DPTR
        MOV       ?V3,A
        MOV       R0,#?V3
        LCALL     ?PUSH_XSTACK_I_ONE
          CFI CFA_XSP16 add(XSP16, 25)
        MOV       ?V3,#0x0
        MOV       R0,#?V3
        LCALL     ?PUSH_XSTACK_I_ONE
          CFI CFA_XSP16 add(XSP16, 26)
        MOV       ?V3,#0xc
        MOV       R0,#?V3
        LCALL     ?PUSH_XSTACK_I_ONE
          CFI CFA_XSP16 add(XSP16, 27)
        MOV       R4,?V0
        MOV       R5,?V1
        MOV       A,R6
        MOV       R2,A
        MOV       A,R7
        MOV       R3,A
        MOV       R1,?V2
        LCALL     `??zcl_SendCommand::?relay`; Banked call to: zcl_SendCommand
        MOV       A,#0xb
        LCALL     ?DEALLOC_XSTACK8
          CFI CFA_XSP16 add(XSP16, 16)
        MOV       A,R1
        MOV       R6,A
// 2010     zcl_mem_free( buf );
        ; Setup parameters for call to function osal_mem_free
        MOV       R2,?V4
        MOV       R3,?V5
        LCALL     `??osal_mem_free::?relay`; Banked call to: osal_mem_free
        SJMP      ??zcl_SendDiscoverAttrsCmd_1
// 2011   }
// 2012   else
// 2013   {
// 2014     status = ZMemError;
??zcl_SendDiscoverAttrsCmd_0:
        MOV       R6,#0x10
// 2015   }
// 2016 
// 2017   return ( status );
??zcl_SendDiscoverAttrsCmd_1:
        MOV       A,R6
        MOV       R1,A
        MOV       R7,#0x8
        LJMP      ?BANKED_LEAVE_XDATA
// 2018 }
          CFI EndBlock cfiBlock27
// 2019 
// 2020 /*********************************************************************
// 2021  * @fn      zcl_SendDiscoverAttrsRspCmd
// 2022  *
// 2023  * @brief   Send a Discover Attributes Response command
// 2024  *
// 2025  * @param   dstAddr - destination address
// 2026  * @param   clusterID - cluster ID
// 2027  * @param   reportRspCmd - report response command to be sent
// 2028  * @param   direction - direction of the command
// 2029  * @param   seqNum - transaction sequence number
// 2030  *
// 2031  * @return  ZSuccess if OK
// 2032  */

        RSEG BANKED_CODE:HUGECODE:NOROOT(0)
// 2033 ZStatus_t zcl_SendDiscoverAttrsRspCmd( uint8 srcEP, afAddrType_t *dstAddr,
zcl_SendDiscoverAttrsRspCmd:
          CFI Block cfiBlock28 Using cfiCommon0
          CFI Function zcl_SendDiscoverAttrsRspCmd
        CODE
// 2034                           uint16 clusterID, zclDiscoverAttrsRspCmd_t *pDiscoverRspCmd,
// 2035                           uint8 direction, uint8 disableDefaultRsp, uint8 seqNum )
// 2036 {
        FUNCALL zcl_SendDiscoverAttrsRspCmd, osal_mem_alloc
        LOCFRAME ISTACK, 0, STACK
        LOCFRAME PSTACK, 0, STACK
        LOCFRAME XSTACK, 24, STACK
        LOCFRAME IOVERLAY, 0, STATIC
        LOCFRAME DOVERLAY, 0, STATIC
        ARGFRAME ISTACK, 0, STACK
        ARGFRAME PSTACK, 0, STACK
        ARGFRAME XSTACK, 24, STACK
        ARGFRAME IOVERLAY, 0, STATIC
        ARGFRAME DOVERLAY, 0, STATIC
        FUNCALL zcl_SendDiscoverAttrsRspCmd, zcl_SendCommand
        LOCFRAME ISTACK, 0, STACK
        LOCFRAME PSTACK, 0, STACK
        LOCFRAME XSTACK, 35, STACK
        LOCFRAME IOVERLAY, 0, STATIC
        LOCFRAME DOVERLAY, 0, STATIC
        ARGFRAME ISTACK, 0, STACK
        ARGFRAME PSTACK, 0, STACK
        ARGFRAME XSTACK, 35, STACK
        ARGFRAME IOVERLAY, 0, STATIC
        ARGFRAME DOVERLAY, 0, STATIC
        FUNCALL zcl_SendDiscoverAttrsRspCmd, osal_mem_free
        LOCFRAME ISTACK, 0, STACK
        LOCFRAME PSTACK, 0, STACK
        LOCFRAME XSTACK, 24, STACK
        LOCFRAME IOVERLAY, 0, STATIC
        LOCFRAME DOVERLAY, 0, STATIC
        ARGFRAME ISTACK, 0, STACK
        ARGFRAME PSTACK, 0, STACK
        ARGFRAME XSTACK, 24, STACK
        ARGFRAME IOVERLAY, 0, STATIC
        ARGFRAME DOVERLAY, 0, STATIC
        REQUIRE ?V0
        REQUIRE ?V1
        REQUIRE ?V2
        REQUIRE ?V3
        REQUIRE ?V4
        REQUIRE ?V5
        REQUIRE ?V6
        REQUIRE ?V7
        REQUIRE ?V8
        REQUIRE ?V10
        REQUIRE ?V11
        REQUIRE ?V12
        REQUIRE ?V13
        REQUIRE ?V14
        REQUIRE ?V15
        MOV       A,#-0x18
        LCALL     ?BANKED_ENTER_XDATA
          CFI DPH0 load(1, XDATA, add(CFA_XSP16, literal(-1)))
          CFI DPL0 load(1, XDATA, add(CFA_XSP16, literal(-2)))
          CFI ?BRET_EXT load(1, XDATA, add(CFA_XSP16, literal(-3)))
          CFI ?RET_HIGH load(1, XDATA, add(CFA_XSP16, literal(-4)))
          CFI ?RET_LOW load(1, XDATA, add(CFA_XSP16, literal(-5)))
          CFI R7 load(1, XDATA, add(CFA_XSP16, literal(-6)))
          CFI V15 load(1, XDATA, add(CFA_XSP16, literal(-7)))
          CFI V14 load(1, XDATA, add(CFA_XSP16, literal(-8)))
          CFI V13 load(1, XDATA, add(CFA_XSP16, literal(-9)))
          CFI V12 load(1, XDATA, add(CFA_XSP16, literal(-10)))
          CFI V11 load(1, XDATA, add(CFA_XSP16, literal(-11)))
          CFI V10 load(1, XDATA, add(CFA_XSP16, literal(-12)))
          CFI V9 load(1, XDATA, add(CFA_XSP16, literal(-13)))
          CFI V8 load(1, XDATA, add(CFA_XSP16, literal(-14)))
          CFI V7 load(1, XDATA, add(CFA_XSP16, literal(-15)))
          CFI V6 load(1, XDATA, add(CFA_XSP16, literal(-16)))
          CFI V5 load(1, XDATA, add(CFA_XSP16, literal(-17)))
          CFI V4 load(1, XDATA, add(CFA_XSP16, literal(-18)))
          CFI V3 load(1, XDATA, add(CFA_XSP16, literal(-19)))
          CFI V2 load(1, XDATA, add(CFA_XSP16, literal(-20)))
          CFI V1 load(1, XDATA, add(CFA_XSP16, literal(-21)))
          CFI V0 load(1, XDATA, add(CFA_XSP16, literal(-22)))
          CFI VB load(1, XDATA, add(CFA_XSP16, literal(-23)))
          CFI R6 load(1, XDATA, add(CFA_XSP16, literal(-24)))
          CFI CFA_SP SP+0
          CFI CFA_XSP16 add(XSP16, 24)
        ; Saved register size: 24
        ; Auto size: 0
        MOV       ?V8,R1
        MOV       ?V10,R2
        MOV       ?V11,R3
        MOV       A,R4
        MOV       R6,A
        MOV       A,R5
        MOV       R7,A
        MOV       A,#0x18
        LCALL     ?XSTACK_DISP0_8
        MOVX      A,@DPTR
        MOV       ?V4,A
        INC       DPTR
        MOVX      A,@DPTR
        MOV       ?V5,A
// 2037   uint16 dataLen = 1; // Discovery complete
// 2038   uint8 *buf;
// 2039   ZStatus_t status;
// 2040 
// 2041   // calculate the size of the command
// 2042   dataLen += pDiscoverRspCmd->numAttr * (2 + 1); // Attribute ID and Data Type
        MOV       DPL,?V4
        MOV       DPH,A
        INC       DPTR
        MOV       ?V2,DPL
        MOV       ?V3,DPH
        MOVX      A,@DPTR
        MOV       B,#0x3
        MUL       AB
        MOV       R1,B
        ADD       A,#0x1
        MOV       ?V6,A
        CLR       A
        ADDC      A,R1
        MOV       ?V7,A
// 2043 
// 2044   buf = zcl_mem_alloc( dataLen );
        ; Setup parameters for call to function osal_mem_alloc
        MOV       R2,?V6
        MOV       R3,A
        LCALL     `??osal_mem_alloc::?relay`; Banked call to: osal_mem_alloc
        MOV       ?V0,R2
        MOV       ?V1,R3
// 2045   if ( buf != NULL )
        MOV       A,R2
        ORL       A,R3
        JNZ       $+5
        LJMP      ??zcl_SendDiscoverAttrsRspCmd_0 & 0xFFFF
// 2046   {
// 2047     // Load the buffer - serially
// 2048     uint8 i;
// 2049     uint8 *pBuf = buf;
// 2050 
// 2051     *pBuf++ = pDiscoverRspCmd->discComplete;
        MOV       DPL,?V4
        MOV       DPH,?V5
        MOVX      A,@DPTR
        MOV       DPL,R2
        MOV       DPH,R3
        MOVX      @DPTR,A
        INC       DPTR
        MOV       R0,DPL
        MOV       R1,DPH
// 2052 
// 2053     for ( i = 0; i < pDiscoverRspCmd->numAttr; i++ )
        MOV       R2,#0x0
        SJMP      ??zcl_SendDiscoverAttrsRspCmd_1
// 2054     {
// 2055       *pBuf++ = LO_UINT16(pDiscoverRspCmd->attrList[i].attrID);
??zcl_SendDiscoverAttrsRspCmd_2:
        MOV       A,R2
        MOV       B,#0x3
        MUL       AB
        MOV       R4,A
        MOV       R5,B
        MOV       A,?V4
        ADD       A,R4
        MOV       R4,A
        MOV       A,?V5
        ADDC      A,R5
        MOV       R5,A
        MOV       A,R4
        ADD       A,#0x2
        MOV       ?V12,A
        CLR       A
        ADDC      A,R5
        MOV       ?V13,A
        MOV       DPL,?V12
        MOV       DPH,A
        MOVX      A,@DPTR
        MOV       DPL,R0
        MOV       DPH,R1
        MOVX      @DPTR,A
// 2056       *pBuf++ = HI_UINT16(pDiscoverRspCmd->attrList[i].attrID);
        MOV       DPL,?V12
        MOV       DPH,?V13
        INC       DPTR
        MOVX      A,@DPTR
        MOV       DPL,R0
        MOV       DPH,R1
        INC       DPTR
        MOVX      @DPTR,A
// 2057       *pBuf++ = pDiscoverRspCmd->attrList[i].dataType;
        MOV       DPL,R4
        MOV       DPH,R5
        INC       DPTR
        INC       DPTR
        INC       DPTR
        INC       DPTR
        MOVX      A,@DPTR
        MOV       DPL,R0
        MOV       DPH,R1
        INC       DPTR
        INC       DPTR
        MOVX      @DPTR,A
        MOV       A,R0
        ADD       A,#0x3
        MOV       R0,A
        JNC       ??zcl_SendDiscoverAttrsRspCmd_3
        INC       R1
// 2058     }
??zcl_SendDiscoverAttrsRspCmd_3:
        INC       R2
??zcl_SendDiscoverAttrsRspCmd_1:
        MOV       DPL,?V2
        MOV       DPH,?V3
        MOVX      A,@DPTR
        MOV       R3,A
        MOV       A,R2
        CLR       C
        SUBB      A,R3
        JC        ??zcl_SendDiscoverAttrsRspCmd_2
// 2059 
// 2060     status = zcl_SendCommand( srcEP, dstAddr, clusterID, ZCL_CMD_DISCOVER_ATTRS_RSP, FALSE,
// 2061                               direction, disableDefaultRsp, 0, seqNum, dataLen, buf );
        ; Setup parameters for call to function zcl_SendCommand
        MOV       R0,#?V0
        LCALL     ?PUSH_XSTACK_I_TWO
          CFI CFA_XSP16 add(XSP16, 26)
        MOV       R0,#?V6
        LCALL     ?PUSH_XSTACK_I_TWO
          CFI CFA_XSP16 add(XSP16, 28)
        MOV       A,#0x20
        LCALL     ?XSTACK_DISP0_8
        MOVX      A,@DPTR
        MOV       ?V2,A
        MOV       R0,#?V2
        LCALL     ?PUSH_XSTACK_I_ONE
          CFI CFA_XSP16 add(XSP16, 29)
        CLR       A
        MOV       ?V2,A
        MOV       ?V3,A
        MOV       R0,#?V2
        LCALL     ?PUSH_XSTACK_I_TWO
          CFI CFA_XSP16 add(XSP16, 31)
        MOV       A,#0x22
        LCALL     ?XSTACK_DISP0_8
        MOVX      A,@DPTR
        MOV       ?V2,A
        MOV       R0,#?V2
        LCALL     ?PUSH_XSTACK_I_ONE
          CFI CFA_XSP16 add(XSP16, 32)
        MOV       A,#0x22
        LCALL     ?XSTACK_DISP0_8
        MOVX      A,@DPTR
        MOV       ?V2,A
        MOV       R0,#?V2
        LCALL     ?PUSH_XSTACK_I_ONE
          CFI CFA_XSP16 add(XSP16, 33)
        MOV       ?V2,#0x0
        MOV       R0,#?V2
        LCALL     ?PUSH_XSTACK_I_ONE
          CFI CFA_XSP16 add(XSP16, 34)
        MOV       ?V2,#0xd
        MOV       R0,#?V2
        LCALL     ?PUSH_XSTACK_I_ONE
          CFI CFA_XSP16 add(XSP16, 35)
        MOV       A,R6
        MOV       R4,A
        MOV       A,R7
        MOV       R5,A
        MOV       R2,?V10
        MOV       R3,?V11
        MOV       R1,?V8
        LCALL     `??zcl_SendCommand::?relay`; Banked call to: zcl_SendCommand
        MOV       A,#0xb
        LCALL     ?DEALLOC_XSTACK8
          CFI CFA_XSP16 add(XSP16, 24)
        MOV       A,R1
        MOV       R6,A
// 2062     zcl_mem_free( buf );
        ; Setup parameters for call to function osal_mem_free
        MOV       R2,?V0
        MOV       R3,?V1
        LCALL     `??osal_mem_free::?relay`; Banked call to: osal_mem_free
        SJMP      ??zcl_SendDiscoverAttrsRspCmd_4
// 2063   }
// 2064   else
// 2065   {
// 2066     status = ZMemError;
??zcl_SendDiscoverAttrsRspCmd_0:
        MOV       R6,#0x10
// 2067   }
// 2068 
// 2069   return ( status );
??zcl_SendDiscoverAttrsRspCmd_4:
        MOV       A,R6
        MOV       R1,A
        MOV       R7,#0x10
        LJMP      ?BANKED_LEAVE_XDATA
// 2070 }
          CFI EndBlock cfiBlock28
// 2071 
// 2072 /*********************************************************************
// 2073  * @fn      zcl_SendDiscoverAttrsExt
// 2074  *
// 2075  * @brief   Send a Discover Attributes Extended command
// 2076  *
// 2077  * @param   dstAddr - destination address
// 2078  * @param   clusterID - cluster ID
// 2079  * @param   pDiscoverAttrsExt:
// 2080  *            - startAttrID: the first attribute to be selected
// 2081  *            - maxAttrIDs: maximum number of returned attributes
// 2082  * @param   direction - direction of the command
// 2083  * @param   seqNum - transaction sequence number
// 2084  *
// 2085  * @return  ZSuccess if OK
// 2086  */

        RSEG BANKED_CODE:HUGECODE:NOROOT(0)
// 2087 ZStatus_t zcl_SendDiscoverAttrsExt( uint8 srcEP, afAddrType_t *dstAddr,
zcl_SendDiscoverAttrsExt:
          CFI Block cfiBlock29 Using cfiCommon0
          CFI Function zcl_SendDiscoverAttrsExt
        CODE
// 2088                             uint16 clusterID, zclDiscoverAttrsCmd_t *pDiscoverAttrsExt,
// 2089                             uint8 direction, uint8 disableDefaultRsp, uint8 seqNum )
// 2090 {
        FUNCALL zcl_SendDiscoverAttrsExt, zcl_SendCommand
        LOCFRAME ISTACK, 0, STACK
        LOCFRAME PSTACK, 0, STACK
        LOCFRAME XSTACK, 26, STACK
        LOCFRAME IOVERLAY, 0, STATIC
        LOCFRAME DOVERLAY, 0, STATIC
        ARGFRAME ISTACK, 0, STACK
        ARGFRAME PSTACK, 0, STACK
        ARGFRAME XSTACK, 26, STACK
        ARGFRAME IOVERLAY, 0, STATIC
        ARGFRAME DOVERLAY, 0, STATIC
        REQUIRE ?V0
        REQUIRE ?V1
        REQUIRE ?V2
        REQUIRE ?V3
        MOV       A,#-0xc
        LCALL     ?BANKED_ENTER_XDATA
          CFI DPH0 load(1, XDATA, add(CFA_XSP16, literal(-1)))
          CFI DPL0 load(1, XDATA, add(CFA_XSP16, literal(-2)))
          CFI ?BRET_EXT load(1, XDATA, add(CFA_XSP16, literal(-3)))
          CFI ?RET_HIGH load(1, XDATA, add(CFA_XSP16, literal(-4)))
          CFI ?RET_LOW load(1, XDATA, add(CFA_XSP16, literal(-5)))
          CFI R7 load(1, XDATA, add(CFA_XSP16, literal(-6)))
          CFI V3 load(1, XDATA, add(CFA_XSP16, literal(-7)))
          CFI V2 load(1, XDATA, add(CFA_XSP16, literal(-8)))
          CFI V1 load(1, XDATA, add(CFA_XSP16, literal(-9)))
          CFI V0 load(1, XDATA, add(CFA_XSP16, literal(-10)))
          CFI VB load(1, XDATA, add(CFA_XSP16, literal(-11)))
          CFI R6 load(1, XDATA, add(CFA_XSP16, literal(-12)))
          CFI CFA_SP SP+0
          CFI CFA_XSP16 add(XSP16, 12)
        ; Saved register size: 12
        ; Auto size: 3
        MOV       A,#-0x3
        LCALL     ?ALLOC_XSTACK8
          CFI CFA_XSP16 add(XSP16, 15)
        MOV       ?V0,R1
        MOV       A,#0xf
        LCALL     ?XSTACK_DISP0_8
        MOVX      A,@DPTR
        MOV       R0,A
        INC       DPTR
        MOVX      A,@DPTR
        MOV       R1,A
// 2091   uint8 buf[3];  // Buffer size equal to Start Attribute ID and Max Attribute IDs
// 2092   ZStatus_t status;
// 2093 
// 2094   // Load the buffer - serially
// 2095   buf[0] = LO_UINT16(pDiscoverAttrsExt->startAttr);
        MOV       DPL,R0
        MOV       DPH,A
        MOVX      A,@DPTR
        MOV       DPL,?XSP + 0
        MOV       DPH,?XSP + 1
        MOVX      @DPTR,A
// 2096   buf[1] = HI_UINT16(pDiscoverAttrsExt->startAttr);
        MOV       DPL,R0
        MOV       DPH,R1
        INC       DPTR
        MOVX      A,@DPTR
        PUSH      A
          CFI CFA_SP SP+-1
        MOV       A,#0x1
        LCALL     ?XSTACK_DISP0_8
        POP       A
          CFI CFA_SP SP+0
        MOVX      @DPTR,A
// 2097   buf[2] = pDiscoverAttrsExt->maxAttrIDs;
        MOV       DPL,R0
        MOV       DPH,R1
        INC       DPTR
        INC       DPTR
        MOVX      A,@DPTR
        PUSH      A
          CFI CFA_SP SP+-1
        MOV       A,#0x2
        LCALL     ?XSTACK_DISP0_8
        POP       A
          CFI CFA_SP SP+0
        MOVX      @DPTR,A
// 2098 
// 2099   status = zcl_SendCommand( srcEP, dstAddr, clusterID, ZCL_CMD_DISCOVER_ATTRS_EXT, FALSE,
// 2100                             direction, disableDefaultRsp, 0, seqNum, sizeof( buf ), buf );
// 2101 
// 2102   return ( status );
        ; Setup parameters for call to function zcl_SendCommand
        MOV       R0,?XSP + 0
        MOV       R1,?XSP + 1
        MOV       ?V2,R0
        MOV       ?V3,R1
        MOV       R0,#?V2
        LCALL     ?PUSH_XSTACK_I_TWO
          CFI CFA_XSP16 add(XSP16, 17)
        MOV       ?V2,#0x3
        MOV       ?V3,#0x0
        MOV       R0,#?V2
        LCALL     ?PUSH_XSTACK_I_TWO
          CFI CFA_XSP16 add(XSP16, 19)
        MOV       A,#0x17
        LCALL     ?XSTACK_DISP0_8
        MOVX      A,@DPTR
        MOV       ?V1,A
        MOV       R0,#?V1
        LCALL     ?PUSH_XSTACK_I_ONE
          CFI CFA_XSP16 add(XSP16, 20)
        CLR       A
        MOV       ?V2,A
        MOV       R0,#?V2
        LCALL     ?PUSH_XSTACK_I_TWO
          CFI CFA_XSP16 add(XSP16, 22)
        MOV       A,#0x19
        LCALL     ?XSTACK_DISP0_8
        MOVX      A,@DPTR
        MOV       ?V1,A
        MOV       R0,#?V1
        LCALL     ?PUSH_XSTACK_I_ONE
          CFI CFA_XSP16 add(XSP16, 23)
        MOV       A,#0x19
        LCALL     ?XSTACK_DISP0_8
        MOVX      A,@DPTR
        MOV       ?V1,A
        MOV       R0,#?V1
        LCALL     ?PUSH_XSTACK_I_ONE
          CFI CFA_XSP16 add(XSP16, 24)
        MOV       ?V1,#0x0
        MOV       R0,#?V1
        LCALL     ?PUSH_XSTACK_I_ONE
          CFI CFA_XSP16 add(XSP16, 25)
        MOV       ?V1,#0x15
        MOV       R0,#?V1
        LCALL     ?PUSH_XSTACK_I_ONE
          CFI CFA_XSP16 add(XSP16, 26)
        MOV       R1,?V0
        LCALL     `??zcl_SendCommand::?relay`; Banked call to: zcl_SendCommand
        MOV       A,#0xb
        LCALL     ?DEALLOC_XSTACK8
          CFI CFA_XSP16 add(XSP16, 15)
        MOV       A,#0x3
        LCALL     ?DEALLOC_XSTACK8
          CFI CFA_XSP16 add(XSP16, 12)
        MOV       R7,#0x4
        LJMP      ?BANKED_LEAVE_XDATA
// 2103 }
          CFI EndBlock cfiBlock29
// 2104 
// 2105 /*********************************************************************
// 2106  * @fn      zcl_SendDiscoverAttrsExtRsp
// 2107  *
// 2108  * @brief   Send a Discover Attributes Extended Response command
// 2109  *
// 2110  * @param   dstAddr - destination address
// 2111  * @param   clusterID - cluster ID
// 2112  * @param   pDiscoverRspCmd:
// 2113  *            - discComplete: indicates whether all requested attributes returned
// 2114  *            - attrID: attribute ID
// 2115  *            - attrDataType: data type of the given attribute
// 2116  *            - attrAccessControl: access control of the given attribute
// 2117  * @param   direction - direction of the command
// 2118  * @param   seqNum - transaction sequence number
// 2119  *
// 2120  * @return  ZSuccess if OK
// 2121  */

        RSEG BANKED_CODE:HUGECODE:NOROOT(0)
// 2122 ZStatus_t zcl_SendDiscoverAttrsExtRsp( uint8 srcEP, afAddrType_t *dstAddr,
zcl_SendDiscoverAttrsExtRsp:
          CFI Block cfiBlock30 Using cfiCommon0
          CFI Function zcl_SendDiscoverAttrsExtRsp
        CODE
// 2123                                       uint16 clusterID, zclDiscoverAttrsExtRsp_t *pDiscoverRspCmd,
// 2124                                       uint8 direction, uint8 disableDefaultRsp, uint8 seqNum )
// 2125 {
        FUNCALL zcl_SendDiscoverAttrsExtRsp, osal_mem_alloc
        LOCFRAME ISTACK, 0, STACK
        LOCFRAME PSTACK, 0, STACK
        LOCFRAME XSTACK, 24, STACK
        LOCFRAME IOVERLAY, 0, STATIC
        LOCFRAME DOVERLAY, 0, STATIC
        ARGFRAME ISTACK, 0, STACK
        ARGFRAME PSTACK, 0, STACK
        ARGFRAME XSTACK, 24, STACK
        ARGFRAME IOVERLAY, 0, STATIC
        ARGFRAME DOVERLAY, 0, STATIC
        FUNCALL zcl_SendDiscoverAttrsExtRsp, zcl_SendCommand
        LOCFRAME ISTACK, 0, STACK
        LOCFRAME PSTACK, 0, STACK
        LOCFRAME XSTACK, 35, STACK
        LOCFRAME IOVERLAY, 0, STATIC
        LOCFRAME DOVERLAY, 0, STATIC
        ARGFRAME ISTACK, 0, STACK
        ARGFRAME PSTACK, 0, STACK
        ARGFRAME XSTACK, 35, STACK
        ARGFRAME IOVERLAY, 0, STATIC
        ARGFRAME DOVERLAY, 0, STATIC
        FUNCALL zcl_SendDiscoverAttrsExtRsp, osal_mem_free
        LOCFRAME ISTACK, 0, STACK
        LOCFRAME PSTACK, 0, STACK
        LOCFRAME XSTACK, 24, STACK
        LOCFRAME IOVERLAY, 0, STATIC
        LOCFRAME DOVERLAY, 0, STATIC
        ARGFRAME ISTACK, 0, STACK
        ARGFRAME PSTACK, 0, STACK
        ARGFRAME XSTACK, 24, STACK
        ARGFRAME IOVERLAY, 0, STATIC
        ARGFRAME DOVERLAY, 0, STATIC
        REQUIRE ?V0
        REQUIRE ?V1
        REQUIRE ?V2
        REQUIRE ?V3
        REQUIRE ?V4
        REQUIRE ?V5
        REQUIRE ?V6
        REQUIRE ?V7
        REQUIRE ?V8
        REQUIRE ?V9
        REQUIRE ?V10
        REQUIRE ?V12
        REQUIRE ?V13
        REQUIRE ?V14
        REQUIRE ?V15
        MOV       A,#-0x18
        LCALL     ?BANKED_ENTER_XDATA
          CFI DPH0 load(1, XDATA, add(CFA_XSP16, literal(-1)))
          CFI DPL0 load(1, XDATA, add(CFA_XSP16, literal(-2)))
          CFI ?BRET_EXT load(1, XDATA, add(CFA_XSP16, literal(-3)))
          CFI ?RET_HIGH load(1, XDATA, add(CFA_XSP16, literal(-4)))
          CFI ?RET_LOW load(1, XDATA, add(CFA_XSP16, literal(-5)))
          CFI R7 load(1, XDATA, add(CFA_XSP16, literal(-6)))
          CFI V15 load(1, XDATA, add(CFA_XSP16, literal(-7)))
          CFI V14 load(1, XDATA, add(CFA_XSP16, literal(-8)))
          CFI V13 load(1, XDATA, add(CFA_XSP16, literal(-9)))
          CFI V12 load(1, XDATA, add(CFA_XSP16, literal(-10)))
          CFI V11 load(1, XDATA, add(CFA_XSP16, literal(-11)))
          CFI V10 load(1, XDATA, add(CFA_XSP16, literal(-12)))
          CFI V9 load(1, XDATA, add(CFA_XSP16, literal(-13)))
          CFI V8 load(1, XDATA, add(CFA_XSP16, literal(-14)))
          CFI V7 load(1, XDATA, add(CFA_XSP16, literal(-15)))
          CFI V6 load(1, XDATA, add(CFA_XSP16, literal(-16)))
          CFI V5 load(1, XDATA, add(CFA_XSP16, literal(-17)))
          CFI V4 load(1, XDATA, add(CFA_XSP16, literal(-18)))
          CFI V3 load(1, XDATA, add(CFA_XSP16, literal(-19)))
          CFI V2 load(1, XDATA, add(CFA_XSP16, literal(-20)))
          CFI V1 load(1, XDATA, add(CFA_XSP16, literal(-21)))
          CFI V0 load(1, XDATA, add(CFA_XSP16, literal(-22)))
          CFI VB load(1, XDATA, add(CFA_XSP16, literal(-23)))
          CFI R6 load(1, XDATA, add(CFA_XSP16, literal(-24)))
          CFI CFA_SP SP+0
          CFI CFA_XSP16 add(XSP16, 24)
        ; Saved register size: 24
        ; Auto size: 0
        MOV       ?V10,R1
        MOV       ?V8,R2
        MOV       ?V9,R3
        MOV       A,R4
        MOV       R6,A
        MOV       A,R5
        MOV       R7,A
        MOV       A,#0x18
        LCALL     ?XSTACK_DISP0_8
        MOVX      A,@DPTR
        MOV       ?V4,A
        INC       DPTR
        MOVX      A,@DPTR
        MOV       ?V5,A
// 2126   uint8 *buf;
// 2127   uint8 i;
// 2128   uint16 dataLen = 1; // Discovery complete
// 2129   ZStatus_t status;
// 2130 
// 2131   // calculate the size of the command
// 2132   dataLen += pDiscoverRspCmd->numAttr * (2 + 1 + 1); // Attribute ID, Data Type, and Access Control
        MOV       DPL,?V4
        MOV       DPH,A
        INC       DPTR
        MOV       ?V2,DPL
        MOV       ?V3,DPH
        MOVX      A,@DPTR
        MOV       ?V0,A
        MOV       ?V1,#0x0
        MOV       A,#0x2
        MOV       R0,#?V0
        LCALL     ?S_SHL
        MOV       A,?V0
        ADD       A,#0x1
        MOV       ?V6,A
        CLR       A
        ADDC      A,?V1
        MOV       ?V7,A
// 2133 
// 2134   buf = zcl_mem_alloc( dataLen );
        ; Setup parameters for call to function osal_mem_alloc
        MOV       R2,?V6
        MOV       R3,A
        LCALL     `??osal_mem_alloc::?relay`; Banked call to: osal_mem_alloc
        MOV       ?V0,R2
        MOV       ?V1,R3
// 2135   if ( buf != NULL )
        MOV       A,R2
        ORL       A,R3
        JNZ       $+5
        LJMP      ??zcl_SendDiscoverAttrsExtRsp_0 & 0xFFFF
// 2136   {
// 2137     // Load the buffer - serially
// 2138     uint8 *pBuf = buf;
// 2139     *pBuf++ = pDiscoverRspCmd->discComplete;
        MOV       DPL,?V4
        MOV       DPH,?V5
        MOVX      A,@DPTR
        MOV       DPL,R2
        MOV       DPH,R3
        MOVX      @DPTR,A
        INC       DPTR
        MOV       R2,DPL
        MOV       R3,DPH
// 2140     for ( i = 0; i < pDiscoverRspCmd->numAttr; i++ )
        MOV       R1,#0x0
        SJMP      ??zcl_SendDiscoverAttrsExtRsp_1
// 2141     {
// 2142       *pBuf++ = LO_UINT16(pDiscoverRspCmd->aExtAttrInfo[i].attrID);
??zcl_SendDiscoverAttrsExtRsp_2:
        MOV       A,R1
        MOV       ?V12,A
        MOV       ?V13,#0x0
        MOV       A,#0x2
        MOV       R0,#?V12
        LCALL     ?S_SHL
        MOV       A,?V4
        ADD       A,?V12
        MOV       R4,A
        MOV       A,?V5
        ADDC      A,?V13
        MOV       R5,A
        MOV       A,R4
        ADD       A,#0x2
        MOV       ?V12,A
        CLR       A
        ADDC      A,R5
        MOV       ?V13,A
        MOV       DPL,?V12
        MOV       DPH,A
        MOVX      A,@DPTR
        MOV       DPL,R2
        MOV       DPH,R3
        MOVX      @DPTR,A
// 2143       *pBuf++ = HI_UINT16(pDiscoverRspCmd->aExtAttrInfo[i].attrID);
        MOV       DPL,?V12
        MOV       DPH,?V13
        INC       DPTR
        MOVX      A,@DPTR
        MOV       DPL,R2
        MOV       DPH,R3
        INC       DPTR
        MOVX      @DPTR,A
// 2144       *pBuf++ = pDiscoverRspCmd->aExtAttrInfo[i].attrDataType;
        MOV       DPL,R4
        MOV       DPH,R5
        INC       DPTR
        INC       DPTR
        INC       DPTR
        INC       DPTR
        MOVX      A,@DPTR
        MOV       DPL,R2
        MOV       DPH,R3
        INC       DPTR
        INC       DPTR
        MOVX      @DPTR,A
// 2145       *pBuf++ = pDiscoverRspCmd->aExtAttrInfo[i].attrAccessControl;
        MOV       DPL,R4
        MOV       DPH,R5
        INC       DPTR
        INC       DPTR
        INC       DPTR
        INC       DPTR
        INC       DPTR
        MOVX      A,@DPTR
        MOV       DPL,R2
        MOV       DPH,R3
        INC       DPTR
        INC       DPTR
        INC       DPTR
        MOVX      @DPTR,A
        MOV       A,R2
        ADD       A,#0x4
        MOV       R2,A
        JNC       ??zcl_SendDiscoverAttrsExtRsp_3
        INC       R3
// 2146     }
??zcl_SendDiscoverAttrsExtRsp_3:
        INC       R1
??zcl_SendDiscoverAttrsExtRsp_1:
        MOV       DPL,?V2
        MOV       DPH,?V3
        MOVX      A,@DPTR
        MOV       R0,A
        MOV       A,R1
        CLR       C
        SUBB      A,R0
        JC        ??zcl_SendDiscoverAttrsExtRsp_2
// 2147 
// 2148     status = zcl_SendCommand( srcEP, dstAddr, clusterID, ZCL_CMD_DISCOVER_ATTRS_EXT_RSP, FALSE,
// 2149                               direction, disableDefaultRsp, 0, seqNum, dataLen, buf );
        ; Setup parameters for call to function zcl_SendCommand
        MOV       R0,#?V0
        LCALL     ?PUSH_XSTACK_I_TWO
          CFI CFA_XSP16 add(XSP16, 26)
        MOV       R0,#?V6
        LCALL     ?PUSH_XSTACK_I_TWO
          CFI CFA_XSP16 add(XSP16, 28)
        MOV       A,#0x20
        LCALL     ?XSTACK_DISP0_8
        MOVX      A,@DPTR
        MOV       ?V2,A
        MOV       R0,#?V2
        LCALL     ?PUSH_XSTACK_I_ONE
          CFI CFA_XSP16 add(XSP16, 29)
        CLR       A
        MOV       ?V2,A
        MOV       ?V3,A
        MOV       R0,#?V2
        LCALL     ?PUSH_XSTACK_I_TWO
          CFI CFA_XSP16 add(XSP16, 31)
        MOV       A,#0x22
        LCALL     ?XSTACK_DISP0_8
        MOVX      A,@DPTR
        MOV       ?V2,A
        MOV       R0,#?V2
        LCALL     ?PUSH_XSTACK_I_ONE
          CFI CFA_XSP16 add(XSP16, 32)
        MOV       A,#0x22
        LCALL     ?XSTACK_DISP0_8
        MOVX      A,@DPTR
        MOV       ?V2,A
        MOV       R0,#?V2
        LCALL     ?PUSH_XSTACK_I_ONE
          CFI CFA_XSP16 add(XSP16, 33)
        MOV       ?V2,#0x0
        MOV       R0,#?V2
        LCALL     ?PUSH_XSTACK_I_ONE
          CFI CFA_XSP16 add(XSP16, 34)
        MOV       ?V2,#0x16
        MOV       R0,#?V2
        LCALL     ?PUSH_XSTACK_I_ONE
          CFI CFA_XSP16 add(XSP16, 35)
        MOV       A,R6
        MOV       R4,A
        MOV       A,R7
        MOV       R5,A
        MOV       R2,?V8
        MOV       R3,?V9
        MOV       R1,?V10
        LCALL     `??zcl_SendCommand::?relay`; Banked call to: zcl_SendCommand
        MOV       A,#0xb
        LCALL     ?DEALLOC_XSTACK8
          CFI CFA_XSP16 add(XSP16, 24)
        MOV       A,R1
        MOV       R6,A
// 2150     zcl_mem_free( buf );
        ; Setup parameters for call to function osal_mem_free
        MOV       R2,?V0
        MOV       R3,?V1
        LCALL     `??osal_mem_free::?relay`; Banked call to: osal_mem_free
        SJMP      ??zcl_SendDiscoverAttrsExtRsp_4
// 2151   }
// 2152   else
// 2153   {
// 2154     status = ZMemError;
??zcl_SendDiscoverAttrsExtRsp_0:
        MOV       R6,#0x10
// 2155   }
// 2156 
// 2157   return ( status );
??zcl_SendDiscoverAttrsExtRsp_4:
        MOV       A,R6
        MOV       R1,A
        MOV       R7,#0x10
        LJMP      ?BANKED_LEAVE_XDATA
// 2158 }
          CFI EndBlock cfiBlock30
// 2159 #endif // ZCL_DISCOVER
// 2160 
// 2161 /*********************************************************************
// 2162  * @fn      zcl_ProcessMessageMSG
// 2163  *
// 2164  * @brief   Data message processor callback.  This function processes
// 2165  *          any incoming data - probably from other devices.  So, based
// 2166  *          on cluster ID, perform the intended action.
// 2167  *
// 2168  * @param   pkt - incoming message
// 2169  *
// 2170  * @return  zclProcMsgStatus_t
// 2171  */

        RSEG BANKED_CODE:HUGECODE:NOROOT(0)
// 2172 zclProcMsgStatus_t zcl_ProcessMessageMSG( afIncomingMSGPacket_t *pkt )
zcl_ProcessMessageMSG:
          CFI Block cfiBlock31 Using cfiCommon0
          CFI Function zcl_ProcessMessageMSG
        CODE
// 2173 {
        FUNCALL zcl_ProcessMessageMSG, zclParseHdr
        LOCFRAME ISTACK, 0, STACK
        LOCFRAME PSTACK, 0, STACK
        LOCFRAME XSTACK, 38, STACK
        LOCFRAME IOVERLAY, 0, STATIC
        LOCFRAME DOVERLAY, 0, STATIC
        ARGFRAME ISTACK, 0, STACK
        ARGFRAME PSTACK, 0, STACK
        ARGFRAME XSTACK, 38, STACK
        ARGFRAME IOVERLAY, 0, STATIC
        ARGFRAME DOVERLAY, 0, STATIC
        FUNCALL zcl_ProcessMessageMSG, afFindEndPointDesc
        LOCFRAME ISTACK, 0, STACK
        LOCFRAME PSTACK, 0, STACK
        LOCFRAME XSTACK, 38, STACK
        LOCFRAME IOVERLAY, 0, STATIC
        LOCFRAME DOVERLAY, 0, STATIC
        ARGFRAME ISTACK, 0, STACK
        ARGFRAME PSTACK, 0, STACK
        ARGFRAME XSTACK, 38, STACK
        ARGFRAME IOVERLAY, 0, STATIC
        ARGFRAME DOVERLAY, 0, STATIC
        FUNCALL zcl_ProcessMessageMSG, zcl_DeviceOperational
        LOCFRAME ISTACK, 0, STACK
        LOCFRAME PSTACK, 0, STACK
        LOCFRAME XSTACK, 40, STACK
        LOCFRAME IOVERLAY, 0, STATIC
        LOCFRAME DOVERLAY, 0, STATIC
        ARGFRAME ISTACK, 0, STACK
        ARGFRAME PSTACK, 0, STACK
        ARGFRAME XSTACK, 40, STACK
        ARGFRAME IOVERLAY, 0, STATIC
        ARGFRAME DOVERLAY, 0, STATIC
        FUNCALL zcl_ProcessMessageMSG, zclGetClusterOption
        LOCFRAME ISTACK, 0, STACK
        LOCFRAME PSTACK, 0, STACK
        LOCFRAME XSTACK, 38, STACK
        LOCFRAME IOVERLAY, 0, STATIC
        LOCFRAME DOVERLAY, 0, STATIC
        ARGFRAME ISTACK, 0, STACK
        ARGFRAME PSTACK, 0, STACK
        ARGFRAME XSTACK, 38, STACK
        ARGFRAME IOVERLAY, 0, STATIC
        ARGFRAME DOVERLAY, 0, STATIC
        FUNCALL zcl_ProcessMessageMSG, zclFindPlugin
        LOCFRAME ISTACK, 0, STACK
        LOCFRAME PSTACK, 0, STACK
        LOCFRAME XSTACK, 38, STACK
        LOCFRAME IOVERLAY, 0, STATIC
        LOCFRAME DOVERLAY, 0, STATIC
        ARGFRAME ISTACK, 0, STACK
        ARGFRAME PSTACK, 0, STACK
        ARGFRAME XSTACK, 38, STACK
        ARGFRAME IOVERLAY, 0, STATIC
        ARGFRAME DOVERLAY, 0, STATIC
        FUNCALL zcl_ProcessMessageMSG, zclSetSecurityOption
        LOCFRAME ISTACK, 0, STACK
        LOCFRAME PSTACK, 0, STACK
        LOCFRAME XSTACK, 38, STACK
        LOCFRAME IOVERLAY, 0, STATIC
        LOCFRAME DOVERLAY, 0, STATIC
        ARGFRAME ISTACK, 0, STACK
        ARGFRAME PSTACK, 0, STACK
        ARGFRAME XSTACK, 38, STACK
        ARGFRAME IOVERLAY, 0, STATIC
        ARGFRAME DOVERLAY, 0, STATIC
        FUNCALL zcl_ProcessMessageMSG, zcl_SendDefaultRspCmd
        LOCFRAME ISTACK, 0, STACK
        LOCFRAME PSTACK, 0, STACK
        LOCFRAME XSTACK, 45, STACK
        LOCFRAME IOVERLAY, 0, STATIC
        LOCFRAME DOVERLAY, 0, STATIC
        ARGFRAME ISTACK, 0, STACK
        ARGFRAME PSTACK, 0, STACK
        ARGFRAME XSTACK, 45, STACK
        ARGFRAME IOVERLAY, 0, STATIC
        ARGFRAME DOVERLAY, 0, STATIC
        FUNCALL zcl_ProcessMessageMSG, zclSetSecurityOption
        LOCFRAME ISTACK, 0, STACK
        LOCFRAME PSTACK, 0, STACK
        LOCFRAME XSTACK, 38, STACK
        LOCFRAME IOVERLAY, 0, STATIC
        LOCFRAME DOVERLAY, 0, STATIC
        ARGFRAME ISTACK, 0, STACK
        ARGFRAME PSTACK, 0, STACK
        ARGFRAME XSTACK, 38, STACK
        ARGFRAME IOVERLAY, 0, STATIC
        ARGFRAME DOVERLAY, 0, STATIC
        FUNCALL zcl_ProcessMessageMSG, osal_mem_free
        LOCFRAME ISTACK, 0, STACK
        LOCFRAME PSTACK, 0, STACK
        LOCFRAME XSTACK, 38, STACK
        LOCFRAME IOVERLAY, 0, STATIC
        LOCFRAME DOVERLAY, 0, STATIC
        ARGFRAME ISTACK, 0, STACK
        ARGFRAME PSTACK, 0, STACK
        ARGFRAME XSTACK, 38, STACK
        ARGFRAME IOVERLAY, 0, STATIC
        ARGFRAME DOVERLAY, 0, STATIC
        FUNCALL zcl_ProcessMessageMSG, zcl_SendDefaultRspCmd
        LOCFRAME ISTACK, 0, STACK
        LOCFRAME PSTACK, 0, STACK
        LOCFRAME XSTACK, 45, STACK
        LOCFRAME IOVERLAY, 0, STATIC
        LOCFRAME DOVERLAY, 0, STATIC
        ARGFRAME ISTACK, 0, STACK
        ARGFRAME PSTACK, 0, STACK
        ARGFRAME XSTACK, 45, STACK
        ARGFRAME IOVERLAY, 0, STATIC
        ARGFRAME DOVERLAY, 0, STATIC
        REQUIRE ?V0
        REQUIRE ?V1
        REQUIRE ?V2
        REQUIRE ?V3
        REQUIRE ?V4
        REQUIRE ?V5
        REQUIRE ?V6
        REQUIRE ?V7
        REQUIRE ?V8
        MOV       A,#-0x11
        LCALL     ?BANKED_ENTER_XDATA
          CFI DPH0 load(1, XDATA, add(CFA_XSP16, literal(-1)))
          CFI DPL0 load(1, XDATA, add(CFA_XSP16, literal(-2)))
          CFI ?BRET_EXT load(1, XDATA, add(CFA_XSP16, literal(-3)))
          CFI ?RET_HIGH load(1, XDATA, add(CFA_XSP16, literal(-4)))
          CFI ?RET_LOW load(1, XDATA, add(CFA_XSP16, literal(-5)))
          CFI R7 load(1, XDATA, add(CFA_XSP16, literal(-6)))
          CFI V8 load(1, XDATA, add(CFA_XSP16, literal(-7)))
          CFI V7 load(1, XDATA, add(CFA_XSP16, literal(-8)))
          CFI V6 load(1, XDATA, add(CFA_XSP16, literal(-9)))
          CFI V5 load(1, XDATA, add(CFA_XSP16, literal(-10)))
          CFI V4 load(1, XDATA, add(CFA_XSP16, literal(-11)))
          CFI V3 load(1, XDATA, add(CFA_XSP16, literal(-12)))
          CFI V2 load(1, XDATA, add(CFA_XSP16, literal(-13)))
          CFI V1 load(1, XDATA, add(CFA_XSP16, literal(-14)))
          CFI V0 load(1, XDATA, add(CFA_XSP16, literal(-15)))
          CFI VB load(1, XDATA, add(CFA_XSP16, literal(-16)))
          CFI R6 load(1, XDATA, add(CFA_XSP16, literal(-17)))
          CFI CFA_SP SP+0
          CFI CFA_XSP16 add(XSP16, 17)
        ; Saved register size: 17
        ; Auto size: 21
        MOV       A,#-0x15
        LCALL     ?ALLOC_XSTACK8
          CFI CFA_XSP16 add(XSP16, 38)
        MOV       ?V0,R2
        MOV       ?V1,R3
// 2174   endPointDesc_t *epDesc;
// 2175   zclIncoming_t inMsg;
// 2176   zclLibPlugin_t *pInPlugin;
// 2177   zclDefaultRspCmd_t defautlRspCmd;
// 2178   uint8 options;
// 2179   uint8 securityEnable;
// 2180   uint8 interPanMsg;
// 2181   ZStatus_t status = ZFailure;
        MOV       R6,#0x1
// 2182   uint8 defaultResponseSent = FALSE;
        MOV       R7,#0x0
// 2183 
// 2184   if ( pkt->cmd.DataLength < ZCL_VALID_MIN_HEADER_LEN  )
        MOV       A,R2
        ADD       A,#0x20
        MOV       ?V4,A
        CLR       A
        ADDC      A,?V1
        MOV       ?V5,A
        MOV       DPL,?V4
        MOV       DPH,A
        CLR       C
        MOVX      A,@DPTR
        SUBB      A,#0x3
        INC       DPTR
        MOVX      A,@DPTR
        SUBB      A,#0x0
        JNC       ??zcl_ProcessMessageMSG_0
// 2185   {
// 2186     return ( ZCL_PROC_INVALID );   // Error, ignore the message
        MOV       R1,#0x1
        LJMP      ??zcl_ProcessMessageMSG_1 & 0xFFFF
// 2187   }
// 2188 
// 2189   // Initialize
// 2190   rawAFMsg = (afIncomingMSGPacket_t *)pkt;
??zcl_ProcessMessageMSG_0:
        MOV       DPTR,#rawAFMsg
        MOV       A,R2
        MOVX      @DPTR,A
        INC       DPTR
        MOV       A,R3
        MOVX      @DPTR,A
// 2191   inMsg.msg = pkt;
        MOV       A,#0x2
        LCALL     ?XSTACK_DISP0_8
        MOV       A,R2
        MOVX      @DPTR,A
        INC       DPTR
        MOV       A,R3
        MOVX      @DPTR,A
// 2192   inMsg.attrCmd = NULL;
        MOV       A,#0xe
        LCALL     ?XSTACK_DISP0_8
        CLR       A
        MOVX      @DPTR,A
        INC       DPTR
        MOVX      @DPTR,A
// 2193   inMsg.pData = NULL;
        MOV       A,#0xa
        LCALL     ?XSTACK_DISP0_8
        CLR       A
        MOVX      @DPTR,A
        INC       DPTR
        MOVX      @DPTR,A
// 2194   inMsg.pDataLen = 0;
        MOV       A,#0xc
        LCALL     ?XSTACK_DISP0_8
        CLR       A
        MOVX      @DPTR,A
        INC       DPTR
        MOVX      @DPTR,A
// 2195 
// 2196   inMsg.pData = zclParseHdr( &(inMsg.hdr), pkt->cmd.Data );
        MOV       A,R2
        ADD       A,#0x22
        MOV       ?V2,A
        CLR       A
        ADDC      A,?V1
        MOV       ?V3,A
        ; Setup parameters for call to function zclParseHdr
        MOV       DPL,?V2
        MOV       DPH,A
        MOVX      A,@DPTR
        MOV       R4,A
        INC       DPTR
        MOVX      A,@DPTR
        MOV       R5,A
        MOV       A,#0x4
        LCALL     ?XSTACK_DISP0_8
        MOV       R2,DPL
        MOV       R3,DPH
        LCALL     `??zclParseHdr::?relay`; Banked call to: zclParseHdr
        MOV       ?V6,R2
        MOV       ?V7,R3
        MOV       R0,?V6
        MOV       R1,?V7
        MOV       A,#0xa
        LCALL     ?XSTACK_DISP0_8
        MOV       A,R2
        MOVX      @DPTR,A
        INC       DPTR
        MOV       A,R3
        MOVX      @DPTR,A
// 2197   inMsg.pDataLen = pkt->cmd.DataLength;
        MOV       DPL,?V4
        MOV       DPH,?V5
        MOVX      A,@DPTR
        MOV       R2,A
        INC       DPTR
        MOVX      A,@DPTR
        MOV       R3,A
        MOV       A,#0xc
        LCALL     ?XSTACK_DISP0_8
        MOV       A,R2
        MOVX      @DPTR,A
        INC       DPTR
        MOV       A,R3
        MOVX      @DPTR,A
// 2198   inMsg.pDataLen -= (uint16)(inMsg.pData - pkt->cmd.Data);
        MOV       A,R2
        CLR       C
        SUBB      A,R0
        MOV       R0,A
        MOV       A,R3
        SUBB      A,R1
        MOV       R1,A
        MOV       DPL,?V2
        MOV       DPH,?V3
        MOVX      A,@DPTR
        ADD       A,R0
        MOV       R0,A
        INC       DPTR
        MOVX      A,@DPTR
        ADDC      A,R1
        MOV       R1,A
        MOV       A,#0xc
        LCALL     ?XSTACK_DISP0_8
        MOV       A,R0
        MOVX      @DPTR,A
        INC       DPTR
        MOV       A,R1
        MOVX      @DPTR,A
// 2199 
// 2200   // Temporary workaround to allow callback functions access to the
// 2201   // transaction sequence number.  Callback functions will call
// 2202   // zcl_getParsedTransSeqNum() to retrieve this number.
// 2203   savedZCLTransSeqNum = inMsg.hdr.transSeqNum;
        MOV       A,#0x8
        LCALL     ?XSTACK_DISP0_8
        MOVX      A,@DPTR
        MOV       DPTR,#savedZCLTransSeqNum
        MOVX      @DPTR,A
// 2204 
// 2205   // Find the wanted endpoint
// 2206   epDesc = afFindEndPointDesc( pkt->endPoint );
        MOV       A,?V0
        ADD       A,#0x14
        MOV       ?V2,A
        CLR       A
        ADDC      A,?V1
        MOV       ?V3,A
        ; Setup parameters for call to function afFindEndPointDesc
        MOV       DPL,?V2
        MOV       DPH,A
        MOVX      A,@DPTR
        MOV       R1,A
        LCALL     `??afFindEndPointDesc::?relay`; Banked call to: afFindEndPointDesc
        MOV       ?V5,R3
        MOV       R1,?V5
// 2207   if ( epDesc == NULL )
        MOV       A,R2
        ORL       A,R1
        JNZ       ??zcl_ProcessMessageMSG_2
// 2208   {
// 2209     rawAFMsg = NULL;
        MOV       DPTR,#rawAFMsg
        CLR       A
        MOVX      @DPTR,A
        INC       DPTR
        MOVX      @DPTR,A
// 2210     return ( ZCL_PROC_EP_NOT_FOUND );   // Error, ignore the message
        MOV       R1,#0x2
        LJMP      ??zcl_ProcessMessageMSG_1 & 0xFFFF
// 2211   }
// 2212 
// 2213   if ( ( epDesc->simpleDesc == NULL ) ||
// 2214        ( zcl_DeviceOperational( pkt->endPoint, pkt->clusterId, inMsg.hdr.fc.type,
// 2215                                 inMsg.hdr.commandID, epDesc->simpleDesc->AppProfId ) == FALSE ) )
??zcl_ProcessMessageMSG_2:
        MOV       A,R2
        ADD       A,#0x4
        MOV       ?V6,A
        CLR       A
        ADDC      A,R1
        MOV       ?V7,A
        MOV       DPL,?V6
        MOV       DPH,A
        MOVX      A,@DPTR
        MOV       R0,A
        INC       DPTR
        MOVX      A,@DPTR
        MOV       DPL,R0
        MOV       DPH,A
        MOV       A,DPL
        ORL       A,DPH
        JZ        ??zcl_ProcessMessageMSG_3
        MOV       A,?V0
        ADD       A,#0x4
        MOV       ?V4,A
        CLR       A
        ADDC      A,?V1
        MOV       ?V5,A
        ; Setup parameters for call to function zcl_DeviceOperational
        INC       DPTR
        LCALL     ?PUSH_XSTACK8_X_TWO
          CFI CFA_XSP16 add(XSP16, 40)
        MOV       A,#0xb
        LCALL     ?XSTACK_DISP0_8
        MOVX      A,@DPTR
        MOV       R5,A
        MOV       A,#0x6
        LCALL     ?XSTACK_DISP0_8
        MOVX      A,@DPTR
        ANL       A,#0x3
        MOV       R4,A
        MOV       DPL,?V4
        MOV       DPH,?V5
        MOVX      A,@DPTR
        MOV       R2,A
        INC       DPTR
        MOVX      A,@DPTR
        MOV       R3,A
        MOV       DPL,?V2
        MOV       DPH,?V3
        MOVX      A,@DPTR
        MOV       R1,A
        LCALL     `??zcl_DeviceOperational::?relay`; Banked call to: zcl_DeviceOperational
        MOV       A,#0x2
        LCALL     ?DEALLOC_XSTACK8
          CFI CFA_XSP16 add(XSP16, 38)
        MOV       A,R1
        JNZ       ??zcl_ProcessMessageMSG_4
// 2216   {
// 2217     rawAFMsg = NULL;
??zcl_ProcessMessageMSG_3:
        MOV       DPTR,#rawAFMsg
        CLR       A
        MOVX      @DPTR,A
        INC       DPTR
        MOVX      @DPTR,A
// 2218     return ( ZCL_PROC_NOT_OPERATIONAL ); // Error, ignore the message
        MOV       R1,#0x3
        LJMP      ??zcl_ProcessMessageMSG_1 & 0xFFFF
// 2219   }
// 2220 
// 2221 #if defined ( INTER_PAN )
// 2222   if ( StubAPS_InterPan( pkt->srcAddr.panId, pkt->srcAddr.endPoint ) )
// 2223   {
// 2224     // No foundation command is supported thru Inter-PAN communication.
// 2225     // But the Light Link cluster uses a different Frame Control format
// 2226     // for it's Inter-PAN messages, where the messages could be confused
// 2227     // with the foundation commands.
// 2228     if ( zcl_ProfileCmd( inMsg.hdr.fc.type ) )
// 2229     {
// 2230       rawAFMsg = NULL;
// 2231       return ( ZCL_PROC_INTERPAN_FOUNDATION_CMD );
// 2232     }
// 2233 
// 2234     interPanMsg = TRUE;
// 2235     options = AF_TX_OPTIONS_NONE;
// 2236   }
// 2237   else
// 2238 #endif
// 2239   {
// 2240     interPanMsg = FALSE;
// 2241     options = zclGetClusterOption( pkt->endPoint, pkt->clusterId );
??zcl_ProcessMessageMSG_4:
        ; Setup parameters for call to function zclGetClusterOption
        MOV       DPL,?V4
        MOV       DPH,?V5
        MOVX      A,@DPTR
        MOV       R2,A
        INC       DPTR
        MOVX      A,@DPTR
        MOV       R3,A
        MOV       DPL,?V2
        MOV       DPH,?V3
        MOVX      A,@DPTR
        MOV       R1,A
        LCALL     `??zclGetClusterOption::?relay`; Banked call to: zclGetClusterOption
        MOV       A,R1
        MOV       ?V8,A
// 2242   }
// 2243 
// 2244   // Find the appropriate plugin
// 2245   pInPlugin = zclFindPlugin( pkt->clusterId, epDesc->simpleDesc->AppProfId );
        ; Setup parameters for call to function zclFindPlugin
        MOV       DPL,?V6
        MOV       DPH,?V7
        MOVX      A,@DPTR
        MOV       R0,A
        INC       DPTR
        MOVX      A,@DPTR
        MOV       DPH,A
        MOV       DPL,R0
        INC       DPTR
        MOVX      A,@DPTR
        MOV       R4,A
        INC       DPTR
        MOVX      A,@DPTR
        MOV       R5,A
        MOV       DPL,?V4
        MOV       DPH,?V5
        MOVX      A,@DPTR
        MOV       R2,A
        INC       DPTR
        MOVX      A,@DPTR
        MOV       R3,A
        LCALL     `??zclFindPlugin::?relay`; Banked call to: zclFindPlugin
// 2246 
// 2247   // Local and remote Security options must match except for Default Response command
// 2248   if ( ( pInPlugin != NULL ) && !zcl_DefaultRspCmd( inMsg.hdr ) )
        MOV       A,#0x4
        LCALL     ?XSTACK_DISP0_8
        MOVX      A,@DPTR
        MOV       R0,A
        MOV       A,R2
        ORL       A,R3
        JNZ       $+5
        LJMP      ??zcl_ProcessMessageMSG_5 & 0xFFFF
        MOV       A,R0
        ANL       A,#0x7
        JNZ       ??zcl_ProcessMessageMSG_6
        MOV       A,#0x9
        LCALL     ?XSTACK_DISP0_8
        MOVX      A,@DPTR
        XRL       A,#0xb
        JNZ       $+5
        LJMP      ??zcl_ProcessMessageMSG_5 & 0xFFFF
// 2249   {
// 2250     securityEnable = ( options & AF_EN_SECURITY ) ? TRUE : FALSE;
// 2251 
// 2252     // Make sure that Clusters specifically defined to use security are received secure,
// 2253     // any other cluster that wants to use APS security will be allowed
// 2254     if ( ( securityEnable == TRUE ) && ( pkt->SecurityUse == FALSE ) )
??zcl_ProcessMessageMSG_6:
        MOV       A,?V8
        MOV       C,0xE0 /* A   */.6
        JC        $+5
        LJMP      ??zcl_ProcessMessageMSG_5 & 0xFFFF
        MOV       A,?V0
        ADD       A,#0x19
        MOV       DPL,A
        CLR       A
        ADDC      A,?V1
        MOV       DPH,A
        MOVX      A,@DPTR
        JZ        $+5
        LJMP      ??zcl_ProcessMessageMSG_5 & 0xFFFF
// 2255     {
// 2256       if ( UNICAST_MSG( inMsg.msg ) )
        MOV       A,#0x2
        LCALL     ?XSTACK_DISP0_8
        MOVX      A,@DPTR
        MOV       R0,A
        INC       DPTR
        MOVX      A,@DPTR
        XCH       A,R0
        ADD       A,#0x15
        MOV       DPL,A
        CLR       A
        ADDC      A,R0
        MOV       DPH,A
        MOVX      A,@DPTR
        JZ        $+5
        LJMP      ??zcl_ProcessMessageMSG_7 & 0xFFFF
        MOV       A,#0x2
        LCALL     ?XSTACK_DISP0_8
        MOVX      A,@DPTR
        MOV       R0,A
        INC       DPTR
        MOVX      A,@DPTR
        MOV       DPH,A
        MOV       DPL,R0
        INC       DPTR
        INC       DPTR
        MOVX      A,@DPTR
        MOV       R0,A
        INC       DPTR
        MOVX      A,@DPTR
        MOV       R1,A
        MOV       A,R0
        ORL       A,R1
        JZ        $+5
        LJMP      ??zcl_ProcessMessageMSG_7 & 0xFFFF
// 2257       {
// 2258         // Send a Default Response command back with no Application Link Key security
// 2259         zclSetSecurityOption( pkt->endPoint, pkt->clusterId, FALSE );
        ; Setup parameters for call to function zclSetSecurityOption
        MOV       R4,#0x0
        MOV       DPL,?V4
        MOV       DPH,?V5
        MOVX      A,@DPTR
        MOV       R2,A
        INC       DPTR
        MOVX      A,@DPTR
        MOV       R3,A
        MOV       DPL,?V2
        MOV       DPH,?V3
        MOVX      A,@DPTR
        MOV       R1,A
        LCALL     `??zclSetSecurityOption::?relay`; Banked call to: zclSetSecurityOption
// 2260 
// 2261         defautlRspCmd.statusCode = status;
        MOV       A,R6
        LCALL     ?XSTACK_DISP0_8
        MOV       A,R6
        MOVX      @DPTR,A
// 2262         defautlRspCmd.commandID = inMsg.hdr.commandID;
        MOV       A,#0x9
        LCALL     ?XSTACK_DISP0_8
        MOVX      A,@DPTR
        MOV       DPL,?XSP + 0
        MOV       DPH,?XSP + 1
        MOVX      @DPTR,A
// 2263         zcl_SendDefaultRspCmd( inMsg.msg->endPoint, &(inMsg.msg->srcAddr),
// 2264                                inMsg.msg->clusterId, &defautlRspCmd,
// 2265                                !inMsg.hdr.fc.direction, true,
// 2266                                inMsg.hdr.manuCode, inMsg.hdr.transSeqNum );
        ; Setup parameters for call to function zcl_SendDefaultRspCmd
        MOV       A,#0x8
        LCALL     ?XSTACK_DISP0_8
        MOVX      A,@DPTR
        MOV       ?V0,A
        MOV       R0,#?V0
        LCALL     ?PUSH_XSTACK_I_ONE
          CFI CFA_XSP16 add(XSP16, 39)
        MOV       A,#0x7
        LCALL     ?XSTACK_DISP0_8
        LCALL     ?PUSH_XSTACK8_X_TWO
          CFI CFA_XSP16 add(XSP16, 41)
        MOV       ?V0,R6
        MOV       R0,#?V0
        LCALL     ?PUSH_XSTACK_I_ONE
          CFI CFA_XSP16 add(XSP16, 42)
        MOV       A,#0x8
        LCALL     ?XSTACK_DISP0_8
        MOVX      A,@DPTR
        RRC       A
        RRC       A
        RRC       A
        ANL       A,#0x1f
        XRL       A,#0x1
        ANL       A,#0x1
        MOV       ?V0,A
        MOV       R0,#?V0
        LCALL     ?PUSH_XSTACK_I_ONE
          CFI CFA_XSP16 add(XSP16, 43)
        MOV       A,#0x5
        LCALL     ?XSTACK_DISP100_8
        MOV       ?V0,R0
        MOV       ?V1,R1
        MOV       R0,#?V0
        LCALL     ?PUSH_XSTACK_I_TWO
          CFI CFA_XSP16 add(XSP16, 45)
        MOV       A,#0x9
        LCALL     ?XSTACK_DISP0_8
        MOVX      A,@DPTR
        MOV       R0,A
        INC       DPTR
        MOVX      A,@DPTR
        MOV       DPH,A
        MOV       DPL,R0
        INC       DPTR
        INC       DPTR
        INC       DPTR
        INC       DPTR
        MOVX      A,@DPTR
        MOV       R4,A
        INC       DPTR
        MOVX      A,@DPTR
        MOV       R5,A
        MOV       A,#0x9
        LCALL     ?XSTACK_DISP0_8
        MOVX      A,@DPTR
        ADD       A,#0x6
        MOV       R2,A
        INC       DPTR
        MOVX      A,@DPTR
        ADDC      A,#0x0
        MOV       R3,A
        MOV       A,#0x9
        LCALL     ?XSTACK_DISP0_8
        MOVX      A,@DPTR
        MOV       R0,A
        INC       DPTR
        MOVX      A,@DPTR
        XCH       A,R0
        ADD       A,#0x14
        MOV       DPL,A
        CLR       A
        ADDC      A,R0
        MOV       DPH,A
        MOVX      A,@DPTR
        MOV       R1,A
        LCALL     `??zcl_SendDefaultRspCmd::?relay`; Banked call to: zcl_SendDefaultRspCmd
        MOV       A,#0x7
        LCALL     ?DEALLOC_XSTACK8
          CFI CFA_XSP16 add(XSP16, 38)
// 2267 
// 2268         zclSetSecurityOption( pkt->endPoint, pkt->clusterId, TRUE );
        ; Setup parameters for call to function zclSetSecurityOption
        MOV       R4,#0x1
        MOV       DPL,?V4
        MOV       DPH,?V5
        MOVX      A,@DPTR
        MOV       R2,A
        INC       DPTR
        MOVX      A,@DPTR
        MOV       R3,A
        MOV       DPL,?V2
        MOV       DPH,?V3
        MOVX      A,@DPTR
        MOV       R1,A
        LCALL     `??zclSetSecurityOption::?relay`; Banked call to: zclSetSecurityOption
// 2269       }
// 2270 
// 2271       rawAFMsg = NULL;
??zcl_ProcessMessageMSG_7:
        MOV       DPTR,#rawAFMsg
        CLR       A
        MOVX      @DPTR,A
        INC       DPTR
        MOVX      @DPTR,A
// 2272       return ( ZCL_PROC_NOT_SECURE );   // Error, ignore the message
        MOV       R1,#0x5
        LJMP      ??zcl_ProcessMessageMSG_1 & 0xFFFF
// 2273     }
// 2274   }
// 2275 
// 2276   // Is this a foundation type message
// 2277   if ( !interPanMsg && zcl_ProfileCmd( inMsg.hdr.fc.type ) )
??zcl_ProcessMessageMSG_5:
        MOV       A,R0
        ANL       A,#0x3
        JZ        $+5
        LJMP      ??zcl_ProcessMessageMSG_8 & 0xFFFF
// 2278   {
// 2279     if ( inMsg.hdr.fc.manuSpecific )
        MOV       A,R0
        ANL       A,#0x4
        JZ        ??zcl_ProcessMessageMSG_9
// 2280     {
// 2281       // We don't support any manufacturer specific command
// 2282       status = ZCL_STATUS_UNSUP_MANU_GENERAL_COMMAND;
        MOV       R6,#-0x7c
        LJMP      ??zcl_ProcessMessageMSG_10 & 0xFFFF
// 2283     }
// 2284     else if ( ( inMsg.hdr.commandID <= ZCL_CMD_MAX ) &&
// 2285               ( zclCmdTable[inMsg.hdr.commandID].pfnParseInProfile != NULL ) )
??zcl_ProcessMessageMSG_9:
        MOV       A,#0x9
        LCALL     ?XSTACK_DISP0_8
        MOVX      A,@DPTR
        MOV       R0,A
        CLR       C
        SUBB      A,#0x17
        JC        $+5
        LJMP      ??zcl_ProcessMessageMSG_11 & 0xFFFF
        MOV       A,R0
        MOV       ?V0,A
        MOV       ?V1,R7
        MOV       A,#0x2
        MOV       R0,#?V0
        LCALL     ?S_SHL
        MOV       A,#zclCmdTable & 0xff
        ADD       A,?V0
        MOV       DPL,A
        MOV       A,#(zclCmdTable >> 8) & 0xff
        ADDC      A,?V1
        MOV       DPH,A
        CLR       A
        MOVC      A,@A+DPTR
        MOV       R0,A
        MOV       A,R6
        MOVC      A,@A+DPTR
        MOV       R1,A
        MOV       A,R0
        ORL       A,R1
        JNZ       $+5
        LJMP      ??zcl_ProcessMessageMSG_11 & 0xFFFF
// 2286     {
// 2287       zclParseCmd_t parseCmd;
// 2288 
// 2289       parseCmd.endpoint = pkt->endPoint;
        MOV       DPL,?V2
        MOV       DPH,?V3
        MOVX      A,@DPTR
        PUSH      A
          CFI CFA_SP SP+-1
        MOV       A,#0x10
        LCALL     ?XSTACK_DISP0_8
        POP       A
          CFI CFA_SP SP+0
        MOVX      @DPTR,A
// 2290       parseCmd.dataLen = inMsg.pDataLen;
        MOV       A,#0xc
        LCALL     ?XSTACK_DISP0_8
        MOVX      A,@DPTR
        MOV       R2,A
        INC       DPTR
        MOVX      A,@DPTR
        MOV       R3,A
        MOV       A,#0x11
        LCALL     ?XSTACK_DISP0_8
        MOV       A,R2
        MOVX      @DPTR,A
        INC       DPTR
        MOV       A,R3
        MOVX      @DPTR,A
// 2291       parseCmd.pData = inMsg.pData;
        MOV       A,#0xa
        LCALL     ?XSTACK_DISP0_8
        MOVX      A,@DPTR
        MOV       R2,A
        INC       DPTR
        MOVX      A,@DPTR
        MOV       R3,A
        MOV       A,#0x13
        LCALL     ?XSTACK_DISP0_8
        MOV       A,R2
        MOVX      @DPTR,A
        INC       DPTR
        MOV       A,R3
        MOVX      @DPTR,A
// 2292 
// 2293       // Parse the command, remember that the return value is a pointer to allocated memory
// 2294       inMsg.attrCmd = zclParseCmd( inMsg.hdr.commandID, &parseCmd );
        ; Setup parameters for indirect call
        MOV       A,#0x10
        LCALL     ?XSTACK_DISP101_8
        MOV       DPL,R0
        MOV       DPH,R1
        LCALL     ?CALL_IND
        MOV       ?V1,R3
        MOV       R1,?V1
        MOV       A,#0xe
        LCALL     ?XSTACK_DISP0_8
        MOV       A,R2
        MOVX      @DPTR,A
        INC       DPTR
        MOV       A,R3
        MOVX      @DPTR,A
// 2295       if ( (inMsg.attrCmd != NULL) && (zclCmdTable[inMsg.hdr.commandID].pfnProcessInProfile != NULL) )
        MOV       A,R2
        ORL       A,R1
        JZ        ??zcl_ProcessMessageMSG_12
        MOV       A,#0x9
        LCALL     ?XSTACK_DISP0_8
        MOVX      A,@DPTR
        MOV       ?V0,A
        MOV       ?V1,R7
        MOV       A,#0x2
        MOV       R0,#?V0
        LCALL     ?S_SHL
        MOV       A,#(zclCmdTable + 2) & 0xff
        ADD       A,?V0
        MOV       DPL,A
        MOV       A,#((zclCmdTable + 2) >> 8) & 0xff
        ADDC      A,?V1
        MOV       DPH,A
        CLR       A
        MOVC      A,@A+DPTR
        MOV       R0,A
        MOV       A,R6
        MOVC      A,@A+DPTR
        MOV       DPL,R0
        MOV       DPH,A
        MOV       A,DPL
        ORL       A,DPH
        JZ        ??zcl_ProcessMessageMSG_12
// 2296       {
// 2297         // Process the command
// 2298         if ( zclProcessCmd( inMsg.hdr.commandID, &inMsg ) == FALSE )
        ; Setup parameters for indirect call
        MOV       A,#0x2
        LCALL     ?XSTACK_DISP101_8
        LCALL     ?CALL_IND
// 2299         {
// 2300           // Couldn't find attribute in the table.
// 2301         }
// 2302       }
// 2303 
// 2304       // Free the buffer
// 2305       if ( inMsg.attrCmd )
??zcl_ProcessMessageMSG_12:
        MOV       A,#0xe
        LCALL     ?XSTACK_DISP0_8
        MOVX      A,@DPTR
        MOV       R2,A
        INC       DPTR
        MOVX      A,@DPTR
        MOV       R3,A
        MOV       A,R2
        ORL       A,R3
        JZ        ??zcl_ProcessMessageMSG_13
// 2306       {
// 2307         zcl_mem_free( inMsg.attrCmd );
        ; Setup parameters for call to function osal_mem_free
        LCALL     `??osal_mem_free::?relay`; Banked call to: osal_mem_free
// 2308       }
// 2309 
// 2310       if ( CMD_HAS_RSP( inMsg.hdr.commandID ) )
??zcl_ProcessMessageMSG_13:
        MOV       A,#0x9
        LCALL     ?XSTACK_DISP0_8
        MOVX      A,@DPTR
        MOV       R0,A
        JZ        ??zcl_ProcessMessageMSG_14
        MOV       A,#0x2
        XRL       A,R0
        JZ        ??zcl_ProcessMessageMSG_14
        MOV       A,#0x3
        XRL       A,R0
        JZ        ??zcl_ProcessMessageMSG_14
        MOV       A,#0x5
        XRL       A,R0
        JZ        ??zcl_ProcessMessageMSG_14
        MOV       A,#0x6
        XRL       A,R0
        JZ        ??zcl_ProcessMessageMSG_14
        MOV       A,#0x8
        XRL       A,R0
        JZ        ??zcl_ProcessMessageMSG_14
        MOV       A,#0xc
        XRL       A,R0
        JZ        ??zcl_ProcessMessageMSG_14
        MOV       A,#0x11
        XRL       A,R0
        JZ        ??zcl_ProcessMessageMSG_14
        MOV       A,#0x13
        XRL       A,R0
        JZ        ??zcl_ProcessMessageMSG_14
        MOV       A,#0x15
        XRL       A,R0
        JZ        ??zcl_ProcessMessageMSG_14
        MOV       A,#0xb
        XRL       A,R0
        JZ        ??zcl_ProcessMessageMSG_14
// 2311       {
// 2312         rawAFMsg = NULL;
// 2313         return ( ZCL_PROC_SUCCESS ); // We're done
// 2314       }
// 2315 
// 2316       status = ZSuccess;
        MOV       R6,#0x0
        SJMP      ??zcl_ProcessMessageMSG_10
// 2317     }
// 2318     else
// 2319     {
// 2320       // Unsupported message
// 2321       status = ZCL_STATUS_UNSUP_GENERAL_COMMAND;
??zcl_ProcessMessageMSG_11:
        MOV       R6,#-0x7e
        SJMP      ??zcl_ProcessMessageMSG_10
// 2322     }
// 2323   }
// 2324   else  // Not a foundation type message, so it must be specific to the cluster ID.
// 2325   {
// 2326     if ( pInPlugin && pInPlugin->pfnIncomingHdlr )
??zcl_ProcessMessageMSG_8:
        MOV       A,R2
        ORL       A,R3
        JZ        ??zcl_ProcessMessageMSG_15
        MOV       DPL,R2
        MOV       DPH,R3
        INC       DPTR
        INC       DPTR
        INC       DPTR
        INC       DPTR
        INC       DPTR
        INC       DPTR
        MOVX      A,@DPTR
        MOV       R0,A
        INC       DPTR
        MOVX      A,@DPTR
        MOV       DPL,R0
        MOV       DPH,A
        MOV       A,DPL
        ORL       A,DPH
        JZ        ??zcl_ProcessMessageMSG_15
// 2327     {
// 2328       // The return value of the plugin function will be
// 2329       //  ZSuccess - Supported and need default response
// 2330       //  ZFailure - Unsupported
// 2331       //  ZCL_STATUS_CMD_HAS_RSP - Supported and do not need default rsp
// 2332       //  ZCL_STATUS_INVALID_FIELD - Supported, but the incoming msg is wrong formatted
// 2333       //  ZCL_STATUS_INVALID_VALUE - Supported, but the request not achievable by the h/w
// 2334       //  ZCL_STATUS_SOFTWARE_FAILURE - Supported but ZStack memory allocation fails
// 2335       status = pInPlugin->pfnIncomingHdlr( &inMsg );
        ; Setup parameters for indirect call
        MOV       A,#0x2
        LCALL     ?XSTACK_DISP101_8
        LCALL     ?CALL_IND
        MOV       A,R1
        MOV       R6,A
// 2336       if ( status == ZCL_STATUS_CMD_HAS_RSP || ( interPanMsg && status == ZSuccess ) )
        MOV       A,#-0x1
        XRL       A,R6
        JNZ       ??zcl_ProcessMessageMSG_15
// 2337       {
// 2338         rawAFMsg = NULL;
??zcl_ProcessMessageMSG_14:
        MOV       DPTR,#rawAFMsg
        CLR       A
        MOVX      @DPTR,A
        INC       DPTR
        MOVX      @DPTR,A
// 2339         return ( ZCL_PROC_SUCCESS ); // We're done
        MOV       R1,A
        LJMP      ??zcl_ProcessMessageMSG_1 & 0xFFFF
// 2340       }
// 2341     }
// 2342 
// 2343     if ( status == ZFailure )
??zcl_ProcessMessageMSG_15:
        MOV       A,#0x1
        XRL       A,R6
        JNZ       ??zcl_ProcessMessageMSG_10
// 2344     {
// 2345       // Unsupported message
// 2346       if ( inMsg.hdr.fc.manuSpecific )
        MOV       A,#0x4
        LCALL     ?XSTACK_DISP0_8
        MOVX      A,@DPTR
        ANL       A,#0x4
        JZ        ??zcl_ProcessMessageMSG_16
// 2347       {
// 2348         status = ZCL_STATUS_UNSUP_MANU_CLUSTER_COMMAND;
        MOV       R6,#-0x7d
        SJMP      ??zcl_ProcessMessageMSG_10
// 2349       }
// 2350       else
// 2351       {
// 2352         status = ZCL_STATUS_UNSUP_CLUSTER_COMMAND;
??zcl_ProcessMessageMSG_16:
        MOV       R6,#-0x7f
// 2353       }
// 2354     }
// 2355   }
// 2356 
// 2357   if ( UNICAST_MSG( inMsg.msg ) && inMsg.hdr.fc.disableDefaultRsp == 0 )
??zcl_ProcessMessageMSG_10:
        MOV       A,#0x2
        LCALL     ?XSTACK_DISP0_8
        MOVX      A,@DPTR
        MOV       R0,A
        INC       DPTR
        MOVX      A,@DPTR
        XCH       A,R0
        ADD       A,#0x15
        MOV       DPL,A
        CLR       A
        ADDC      A,R0
        MOV       DPH,A
        MOVX      A,@DPTR
        JZ        $+5
        LJMP      ??zcl_ProcessMessageMSG_17 & 0xFFFF
        MOV       A,#0x2
        LCALL     ?XSTACK_DISP0_8
        MOVX      A,@DPTR
        MOV       R0,A
        INC       DPTR
        MOVX      A,@DPTR
        MOV       DPH,A
        MOV       DPL,R0
        INC       DPTR
        INC       DPTR
        MOVX      A,@DPTR
        MOV       R0,A
        INC       DPTR
        MOVX      A,@DPTR
        MOV       R1,A
        MOV       A,R0
        ORL       A,R1
        JZ        $+5
        LJMP      ??zcl_ProcessMessageMSG_17 & 0xFFFF
        MOV       A,#0x4
        LCALL     ?XSTACK_DISP0_8
        MOVX      A,@DPTR
        MOV       R2,A
        ANL       A,#0x10
        JZ        $+5
        LJMP      ??zcl_ProcessMessageMSG_17 & 0xFFFF
// 2358   {
// 2359     // Send a Default Response command back
// 2360     defautlRspCmd.statusCode = status;
        MOV       A,R6
        PUSH      A
          CFI CFA_SP SP+-1
        MOV       A,#0x1
        LCALL     ?XSTACK_DISP0_8
        POP       A
          CFI CFA_SP SP+0
        MOVX      @DPTR,A
// 2361     defautlRspCmd.commandID = inMsg.hdr.commandID;
        MOV       A,#0x9
        LCALL     ?XSTACK_DISP0_8
        MOVX      A,@DPTR
        MOV       DPL,?XSP + 0
        MOV       DPH,?XSP + 1
        MOVX      @DPTR,A
// 2362     zcl_SendDefaultRspCmd( inMsg.msg->endPoint, &(inMsg.msg->srcAddr),
// 2363                            inMsg.msg->clusterId, &defautlRspCmd,
// 2364                            !inMsg.hdr.fc.direction, true,
// 2365                            inMsg.hdr.manuCode, inMsg.hdr.transSeqNum );
        ; Setup parameters for call to function zcl_SendDefaultRspCmd
        MOV       A,#0x8
        LCALL     ?XSTACK_DISP0_8
        MOVX      A,@DPTR
        MOV       ?V0,A
        MOV       R0,#?V0
        LCALL     ?PUSH_XSTACK_I_ONE
          CFI CFA_XSP16 add(XSP16, 39)
        MOV       A,#0x7
        LCALL     ?XSTACK_DISP0_8
        LCALL     ?PUSH_XSTACK8_X_TWO
          CFI CFA_XSP16 add(XSP16, 41)
        MOV       ?V0,#0x1
        MOV       R0,#?V0
        LCALL     ?PUSH_XSTACK_I_ONE
          CFI CFA_XSP16 add(XSP16, 42)
        MOV       A,R2
        RRC       A
        RRC       A
        RRC       A
        ANL       A,#0x1f
        XRL       A,#0x1
        ANL       A,#0x1
        MOV       ?V0,A
        MOV       R0,#?V0
        LCALL     ?PUSH_XSTACK_I_ONE
          CFI CFA_XSP16 add(XSP16, 43)
        MOV       A,#0x5
        LCALL     ?XSTACK_DISP100_8
        MOV       ?V0,R0
        MOV       ?V1,R1
        MOV       R0,#?V0
        LCALL     ?PUSH_XSTACK_I_TWO
          CFI CFA_XSP16 add(XSP16, 45)
        MOV       A,#0x9
        LCALL     ?XSTACK_DISP0_8
        MOVX      A,@DPTR
        MOV       R0,A
        INC       DPTR
        MOVX      A,@DPTR
        MOV       DPH,A
        MOV       DPL,R0
        INC       DPTR
        INC       DPTR
        INC       DPTR
        INC       DPTR
        MOVX      A,@DPTR
        MOV       R4,A
        INC       DPTR
        MOVX      A,@DPTR
        MOV       R5,A
        MOV       A,#0x9
        LCALL     ?XSTACK_DISP0_8
        MOVX      A,@DPTR
        ADD       A,#0x6
        MOV       R2,A
        INC       DPTR
        MOVX      A,@DPTR
        ADDC      A,#0x0
        MOV       R3,A
        MOV       A,#0x9
        LCALL     ?XSTACK_DISP0_8
        MOVX      A,@DPTR
        MOV       R0,A
        INC       DPTR
        MOVX      A,@DPTR
        XCH       A,R0
        ADD       A,#0x14
        MOV       DPL,A
        CLR       A
        ADDC      A,R0
        MOV       DPH,A
        MOVX      A,@DPTR
        MOV       R1,A
        LCALL     `??zcl_SendDefaultRspCmd::?relay`; Banked call to: zcl_SendDefaultRspCmd
        MOV       A,#0x7
        LCALL     ?DEALLOC_XSTACK8
          CFI CFA_XSP16 add(XSP16, 38)
// 2366     defaultResponseSent = TRUE;
        MOV       R7,#0x1
// 2367   }
// 2368 
// 2369   rawAFMsg = NULL;
??zcl_ProcessMessageMSG_17:
        MOV       DPTR,#rawAFMsg
        CLR       A
        MOVX      @DPTR,A
        INC       DPTR
        MOVX      @DPTR,A
// 2370   if ( status == ZSuccess )
        MOV       A,R6
        JNZ       ??zcl_ProcessMessageMSG_18
// 2371   {
// 2372     return ( ZCL_PROC_SUCCESS );
        MOV       R1,#0x0
        SJMP      ??zcl_ProcessMessageMSG_1
// 2373   }
// 2374   else if ( status == ZCL_STATUS_UNSUP_MANU_GENERAL_COMMAND )
??zcl_ProcessMessageMSG_18:
        MOV       A,#-0x7c
        XRL       A,R6
        JNZ       ??zcl_ProcessMessageMSG_19
// 2375   {
// 2376     if ( defaultResponseSent )
        MOV       A,R7
        JZ        ??zcl_ProcessMessageMSG_20
// 2377     {
// 2378       return ( ZCL_PROC_MANUFACTURER_SPECIFIC_DR );
        MOV       R1,#0x7
        SJMP      ??zcl_ProcessMessageMSG_1
// 2379     }
// 2380     else
// 2381     {
// 2382       return ( ZCL_PROC_MANUFACTURER_SPECIFIC );
??zcl_ProcessMessageMSG_20:
        MOV       R1,#0x6
        SJMP      ??zcl_ProcessMessageMSG_1
// 2383     }
// 2384   }
// 2385   else
// 2386   {
// 2387     if ( defaultResponseSent )
??zcl_ProcessMessageMSG_19:
        MOV       A,R7
        JZ        ??zcl_ProcessMessageMSG_21
// 2388     {
// 2389       return ( ZCL_PROC_NOT_HANDLED_DR );
        MOV       R1,#0x9
        SJMP      ??zcl_ProcessMessageMSG_1
// 2390     }
// 2391     else
// 2392     {
// 2393       return ( ZCL_PROC_NOT_HANDLED );
??zcl_ProcessMessageMSG_21:
        MOV       R1,#0x8
??zcl_ProcessMessageMSG_1:
        MOV       A,#0x15
        LCALL     ?DEALLOC_XSTACK8
          CFI CFA_XSP16 add(XSP16, 17)
        MOV       R7,#0x9
        LJMP      ?BANKED_LEAVE_XDATA
// 2394     }
// 2395   }
// 2396 }
          CFI EndBlock cfiBlock31
// 2397 
// 2398 /*********************************************************************
// 2399  * PRIVATE FUNCTIONS
// 2400  *********************************************************************/
// 2401 
// 2402 /*********************************************************************
// 2403  * @fn      zclParseHdr
// 2404  *
// 2405  * @brief   Parse header of the ZCL format
// 2406  *
// 2407  * @param   hdr - place to put the frame control information
// 2408  * @param   pData - incoming buffer to parse
// 2409  *
// 2410  * @return  pointer past the header
// 2411  */

        RSEG BANKED_CODE:HUGECODE:NOROOT(0)
// 2412 uint8 *zclParseHdr( zclFrameHdr_t *hdr, uint8 *pData )
zclParseHdr:
          CFI Block cfiBlock32 Using cfiCommon0
          CFI Function zclParseHdr
        CODE
// 2413 {
        FUNCALL zclParseHdr, osal_memset
        LOCFRAME ISTACK, 0, STACK
        LOCFRAME PSTACK, 0, STACK
        LOCFRAME XSTACK, 12, STACK
        LOCFRAME IOVERLAY, 0, STATIC
        LOCFRAME DOVERLAY, 0, STATIC
        ARGFRAME ISTACK, 0, STACK
        ARGFRAME PSTACK, 0, STACK
        ARGFRAME XSTACK, 12, STACK
        ARGFRAME IOVERLAY, 0, STATIC
        ARGFRAME DOVERLAY, 0, STATIC
        REQUIRE ?V0
        REQUIRE ?V1
        REQUIRE ?V2
        REQUIRE ?V3
        MOV       A,#-0xc
        LCALL     ?BANKED_ENTER_XDATA
          CFI DPH0 load(1, XDATA, add(CFA_XSP16, literal(-1)))
          CFI DPL0 load(1, XDATA, add(CFA_XSP16, literal(-2)))
          CFI ?BRET_EXT load(1, XDATA, add(CFA_XSP16, literal(-3)))
          CFI ?RET_HIGH load(1, XDATA, add(CFA_XSP16, literal(-4)))
          CFI ?RET_LOW load(1, XDATA, add(CFA_XSP16, literal(-5)))
          CFI R7 load(1, XDATA, add(CFA_XSP16, literal(-6)))
          CFI V3 load(1, XDATA, add(CFA_XSP16, literal(-7)))
          CFI V2 load(1, XDATA, add(CFA_XSP16, literal(-8)))
          CFI V1 load(1, XDATA, add(CFA_XSP16, literal(-9)))
          CFI V0 load(1, XDATA, add(CFA_XSP16, literal(-10)))
          CFI VB load(1, XDATA, add(CFA_XSP16, literal(-11)))
          CFI R6 load(1, XDATA, add(CFA_XSP16, literal(-12)))
          CFI CFA_SP SP+0
          CFI CFA_XSP16 add(XSP16, 12)
        ; Saved register size: 12
        ; Auto size: 0
        MOV       ?V0,R2
        MOV       ?V1,R3
        MOV       A,R4
        MOV       R6,A
        MOV       A,R5
        MOV       R7,A
// 2414   // Clear the header
// 2415   zcl_memset( (uint8 *)hdr, 0, sizeof ( zclFrameHdr_t ) );
        ; Setup parameters for call to function osal_memset
        MOV       R4,#0x6
        MOV       R5,#0x0
        MOV       R1,#0x0
        LCALL     `??osal_memset::?relay`; Banked call to: osal_memset
// 2416 
// 2417   // Parse the Frame Control
// 2418   hdr->fc.type = zcl_FCType( *pData );
        MOV       DPL,R6
        MOV       DPH,R7
        MOVX      A,@DPTR
        ANL       A,#0x3
        MOV       R0,A
        MOV       DPL,?V0
        MOV       DPH,?V1
        MOVX      A,@DPTR
        ANL       A,#0xfc
        MOVX      @DPTR,A
        MOVX      A,@DPTR
        ORL       A,R0
        MOVX      @DPTR,A
// 2419   hdr->fc.manuSpecific = zcl_FCManuSpecific( *pData ) ? 1 : 0;
        MOV       DPL,R6
        MOV       DPH,R7
        MOVX      A,@DPTR
        MOV       C,0xE0 /* A   */.2
        JNC       ??zclParseHdr_0
        SETB      B.0
        SJMP      ??zclParseHdr_1
??zclParseHdr_0:
        CLR       B.0
??zclParseHdr_1:
        MOV       DPL,?V0
        MOV       DPH,?V1
        MOVX      A,@DPTR
        ANL       A,#0xfb
        MOVX      @DPTR,A
        MOV       C,B.0
        CLR       A
        RLC       A
        MOV       ?V2,A
        MOV       ?V3,#0x0
        MOV       A,#0x2
        MOV       R0,#?V2
        LCALL     ?S_SHL
        MOVX      A,@DPTR
        ORL       A,?V2
        MOVX      @DPTR,A
// 2420   if ( zcl_FCDirection( *pData ) )
        MOV       DPL,R6
        MOV       DPH,R7
        MOVX      A,@DPTR
        MOV       C,0xE0 /* A   */.3
        MOV       DPL,?V0
        MOV       DPH,?V1
        MOVX      A,@DPTR
        JNC       ??zclParseHdr_2
// 2421   {
// 2422     hdr->fc.direction = ZCL_FRAME_SERVER_CLIENT_DIR;
        ORL       A,#0x8
        SJMP      ??zclParseHdr_3
// 2423   }
// 2424   else
// 2425   {
// 2426     hdr->fc.direction = ZCL_FRAME_CLIENT_SERVER_DIR;
??zclParseHdr_2:
        ANL       A,#0xf7
??zclParseHdr_3:
        MOVX      @DPTR,A
// 2427   }
// 2428 
// 2429   hdr->fc.disableDefaultRsp = zcl_FCDisableDefaultRsp( *pData ) ? 1 : 0;
        MOV       DPL,R6
        MOV       DPH,R7
        MOVX      A,@DPTR
        MOV       C,0xE0 /* A   */.4
        JNC       ??zclParseHdr_4
        SETB      B.0
        SJMP      ??zclParseHdr_5
??zclParseHdr_4:
        CLR       B.0
??zclParseHdr_5:
        MOV       DPL,?V0
        MOV       DPH,?V1
        MOVX      A,@DPTR
        ANL       A,#0xef
        MOVX      @DPTR,A
        MOV       C,B.0
        CLR       A
        RLC       A
        MOV       ?V2,A
        MOV       A,#0x4
        MOV       R0,#?V2
        LCALL     ?S_SHL
        MOVX      A,@DPTR
        ORL       A,?V2
        MOVX      @DPTR,A
// 2430   pData++;  // move past the frame control field
        MOV       DPL,R6
        MOV       DPH,R7
        INC       DPTR
        MOV       R6,DPL
        MOV       R7,DPH
// 2431 
// 2432   // parse the manfacturer code
// 2433   if ( hdr->fc.manuSpecific )
        MOV       DPL,?V0
        MOV       DPH,?V1
        MOVX      A,@DPTR
        ANL       A,#0x4
        JZ        ??zclParseHdr_6
// 2434   {
// 2435     hdr->manuCode = BUILD_UINT16( pData[0], pData[1] );
        MOV       DPL,R6
        MOV       DPH,R7
        MOVX      A,@DPTR
        MOV       R2,A
        INC       DPTR
        MOVX      A,@DPTR
        MOV       R1,A
        MOV       A,R2
        MOV       DPL,?V0
        MOV       DPH,?V1
        INC       DPTR
        INC       DPTR
        MOVX      @DPTR,A
        INC       DPTR
        MOV       A,R1
        MOVX      @DPTR,A
// 2436     pData += 2;
        MOV       A,R6
        ADD       A,#0x2
        MOV       R6,A
        JNC       ??zclParseHdr_6
        INC       R7
// 2437   }
// 2438 
// 2439   // parse the Transaction Sequence Number
// 2440   hdr->transSeqNum = *pData++;
??zclParseHdr_6:
        MOV       DPL,R6
        MOV       DPH,R7
        MOVX      A,@DPTR
        MOV       DPL,?V0
        MOV       DPH,?V1
        INC       DPTR
        INC       DPTR
        INC       DPTR
        INC       DPTR
        MOVX      @DPTR,A
// 2441 
// 2442   // parse the Cluster's command ID
// 2443   hdr->commandID = *pData++;
        MOV       DPL,R6
        MOV       DPH,R7
        INC       DPTR
        MOVX      A,@DPTR
        MOV       DPL,?V0
        MOV       DPH,?V1
        INC       DPTR
        INC       DPTR
        INC       DPTR
        INC       DPTR
        INC       DPTR
        MOVX      @DPTR,A
// 2444 
// 2445   // Should point to the frame payload
// 2446   return ( pData );
        MOV       A,R6
        ADD       A,#0x2
        MOV       R2,A
        CLR       A
        ADDC      A,R7
        MOV       R3,A
        MOV       R7,#0x4
        LJMP      ?BANKED_LEAVE_XDATA
// 2447 }
          CFI EndBlock cfiBlock32
// 2448 
// 2449 /*********************************************************************
// 2450  * @fn      zclBuildHdr
// 2451  *
// 2452  * @brief   Build header of the ZCL format
// 2453  *
// 2454  * @param   hdr - outgoing header information
// 2455  * @param   pData - outgoing header space
// 2456  *
// 2457  * @return  pointer past the header
// 2458  */

        RSEG BANKED_CODE:HUGECODE:NOROOT(0)
// 2459 static uint8 *zclBuildHdr( zclFrameHdr_t *hdr, uint8 *pData )
zclBuildHdr:
          CFI Block cfiBlock33 Using cfiCommon0
          CFI Function zclBuildHdr
        CODE
// 2460 {
        MOV       A,#-0x9
        LCALL     ?BANKED_ENTER_XDATA
          CFI DPH0 load(1, XDATA, add(CFA_XSP16, literal(-1)))
          CFI DPL0 load(1, XDATA, add(CFA_XSP16, literal(-2)))
          CFI ?BRET_EXT load(1, XDATA, add(CFA_XSP16, literal(-3)))
          CFI ?RET_HIGH load(1, XDATA, add(CFA_XSP16, literal(-4)))
          CFI ?RET_LOW load(1, XDATA, add(CFA_XSP16, literal(-5)))
          CFI R7 load(1, XDATA, add(CFA_XSP16, literal(-6)))
          CFI V0 load(1, XDATA, add(CFA_XSP16, literal(-7)))
          CFI VB load(1, XDATA, add(CFA_XSP16, literal(-8)))
          CFI R6 load(1, XDATA, add(CFA_XSP16, literal(-9)))
          CFI CFA_SP SP+0
          CFI CFA_XSP16 add(XSP16, 9)
        ; Saved register size: 9
        ; Auto size: 0
// 2461   // Build the Frame Control byte
// 2462   *pData = hdr->fc.type;
        MOV       DPL,R2
        MOV       DPH,R3
        MOVX      A,@DPTR
        ANL       A,#0x3
        MOV       DPL,R4
        MOV       DPH,R5
        MOVX      @DPTR,A
// 2463   *pData |= hdr->fc.manuSpecific << 2;
        MOV       DPL,R2
        MOV       DPH,R3
        MOVX      A,@DPTR
        ANL       A,#0x4
        MOV       R0,A
        MOV       DPL,R4
        MOV       DPH,R5
        MOVX      A,@DPTR
        ORL       A,R0
        MOVX      @DPTR,A
// 2464   *pData |= hdr->fc.direction << 3;
        MOV       DPL,R2
        MOV       DPH,R3
        MOVX      A,@DPTR
        ANL       A,#0x8
        MOV       R0,A
        MOV       DPL,R4
        MOV       DPH,R5
        MOVX      A,@DPTR
        ORL       A,R0
        MOVX      @DPTR,A
// 2465   *pData |= hdr->fc.disableDefaultRsp << 4;
        MOV       DPL,R2
        MOV       DPH,R3
        MOVX      A,@DPTR
        ANL       A,#0x10
        MOV       R0,A
        MOV       DPL,R4
        MOV       DPH,R5
        MOVX      A,@DPTR
        ORL       A,R0
        MOVX      @DPTR,A
// 2466   pData++;  // move past the frame control field
        INC       DPTR
        MOV       R4,DPL
        MOV       R5,DPH
// 2467 
// 2468   // Add the manfacturer code
// 2469   if ( hdr->fc.manuSpecific )
        MOV       DPL,R2
        MOV       DPH,R3
        MOVX      A,@DPTR
        ANL       A,#0x4
        JZ        ??zclBuildHdr_0
// 2470   {
// 2471     *pData++ = LO_UINT16( hdr->manuCode );
        MOV       A,R2
        ADD       A,#0x2
        MOV       R0,A
        CLR       A
        ADDC      A,R3
        MOV       R1,A
        MOV       DPL,R0
        MOV       DPH,A
        MOVX      A,@DPTR
        MOV       DPL,R4
        MOV       DPH,R5
        MOVX      @DPTR,A
// 2472     *pData++ = HI_UINT16( hdr->manuCode );
        MOV       DPL,R0
        MOV       DPH,R1
        INC       DPTR
        MOVX      A,@DPTR
        MOV       DPL,R4
        MOV       DPH,R5
        INC       DPTR
        MOVX      @DPTR,A
        MOV       A,R4
        ADD       A,#0x2
        MOV       R4,A
        JNC       ??zclBuildHdr_0
        INC       R5
// 2473   }
// 2474 
// 2475   // Add the Transaction Sequence Number
// 2476   *pData++ = hdr->transSeqNum;
??zclBuildHdr_0:
        MOV       DPL,R2
        MOV       DPH,R3
        INC       DPTR
        INC       DPTR
        INC       DPTR
        INC       DPTR
        MOVX      A,@DPTR
        MOV       DPL,R4
        MOV       DPH,R5
        MOVX      @DPTR,A
// 2477 
// 2478   // Add the Cluster's command ID
// 2479   *pData++ = hdr->commandID;
        MOV       DPL,R2
        MOV       DPH,R3
        INC       DPTR
        INC       DPTR
        INC       DPTR
        INC       DPTR
        INC       DPTR
        MOVX      A,@DPTR
        MOV       DPL,R4
        MOV       DPH,R5
        INC       DPTR
        MOVX      @DPTR,A
// 2480 
// 2481   // Should point to the frame payload
// 2482   return ( pData );
        MOV       A,R4
        ADD       A,#0x2
        MOV       R2,A
        CLR       A
        ADDC      A,R5
        MOV       R3,A
        MOV       R7,#0x1
        LJMP      ?BANKED_LEAVE_XDATA
// 2483 }
          CFI EndBlock cfiBlock33
// 2484 
// 2485 /*********************************************************************
// 2486  * @fn      zclCalcHdrSize
// 2487  *
// 2488  * @brief   Calculate the number of bytes needed for an outgoing
// 2489  *          ZCL header.
// 2490  *
// 2491  * @param   hdr - outgoing header information
// 2492  *
// 2493  * @return  returns the number of bytes needed
// 2494  */

        RSEG BANKED_CODE:HUGECODE:NOROOT(0)
// 2495 static uint8 zclCalcHdrSize( zclFrameHdr_t *hdr )
zclCalcHdrSize:
          CFI Block cfiBlock34 Using cfiCommon0
          CFI Function zclCalcHdrSize
        CODE
// 2496 {
        PUSH      DPL
          CFI DPL0 Frame(CFA_SP, 4)
          CFI CFA_SP SP+-4
        PUSH      DPH
          CFI DPH0 Frame(CFA_SP, 5)
          CFI CFA_SP SP+-5
        ; Saved register size: 2
        ; Auto size: 0
// 2497   uint8 needed = (1 + 1 + 1); // frame control + transaction seq num + cmd ID
        MOV       R1,#0x3
// 2498 
// 2499   // Add the manfacturer code
// 2500   if ( hdr->fc.manuSpecific )
        MOV       DPL,R2
        MOV       DPH,R3
        MOVX      A,@DPTR
        ANL       A,#0x4
        JZ        ??zclCalcHdrSize_0
// 2501   {
// 2502     needed += 2;
        MOV       R1,#0x5
// 2503   }
// 2504 
// 2505   return ( needed );
??zclCalcHdrSize_0:
        POP       DPH
          CFI DPH0 SameValue
          CFI CFA_SP SP+-4
        POP       DPL
          CFI DPL0 SameValue
          CFI CFA_SP SP+-3
        LJMP      ?BRET
// 2506 }
          CFI EndBlock cfiBlock34
// 2507 
// 2508 /*********************************************************************
// 2509  * @fn      zclFindPlugin
// 2510  *
// 2511  * @brief   Find the right plugin for a cluster ID
// 2512  *
// 2513  * @param   clusterID - cluster ID to look for
// 2514  * @param   profileID - profile ID
// 2515  *
// 2516  * @return  pointer to plugin, NULL if not found
// 2517  */

        RSEG BANKED_CODE:HUGECODE:NOROOT(0)
// 2518 static zclLibPlugin_t *zclFindPlugin( uint16 clusterID, uint16 profileID )
zclFindPlugin:
          CFI Block cfiBlock35 Using cfiCommon0
          CFI Function zclFindPlugin
        CODE
// 2519 {
        PUSH      DPL
          CFI DPL0 Frame(CFA_SP, 4)
          CFI CFA_SP SP+-4
        PUSH      DPH
          CFI DPH0 Frame(CFA_SP, 5)
          CFI CFA_SP SP+-5
        ; Saved register size: 2
        ; Auto size: 0
// 2520   zclLibPlugin_t *pLoop = plugins;
        MOV       DPTR,#plugins
        SJMP      ??zclFindPlugin_0
// 2521 
// 2522   (void)profileID;  // Intentionally unreferenced parameter
// 2523 
// 2524   while ( pLoop != NULL )
// 2525   {
// 2526     if ( ( clusterID >= pLoop->startClusterID ) && ( clusterID <= pLoop->endClusterID ) )
// 2527     {
// 2528       return ( pLoop );
// 2529     }
// 2530 
// 2531     pLoop = pLoop->next;
??zclFindPlugin_1:
        MOV       DPL,R0
        MOV       DPH,R1
??zclFindPlugin_0:
        MOVX      A,@DPTR
        MOV       R0,A
        INC       DPTR
        MOVX      A,@DPTR
        MOV       R1,A
        MOV       A,R0
        ORL       A,R1
        JZ        ??zclFindPlugin_2
        MOV       DPL,R0
        MOV       DPH,R1
        INC       DPTR
        INC       DPTR
        MOVX      A,@DPTR
        MOV       R4,A
        INC       DPTR
        MOVX      A,@DPTR
        MOV       R5,A
        CLR       C
        MOV       A,R2
        SUBB      A,R4
        MOV       A,R3
        SUBB      A,R5
        JC        ??zclFindPlugin_1
        MOV       DPL,R0
        MOV       DPH,R1
        INC       DPTR
        INC       DPTR
        INC       DPTR
        INC       DPTR
        CLR       C
        MOVX      A,@DPTR
        SUBB      A,R2
        INC       DPTR
        MOVX      A,@DPTR
        SUBB      A,R3
        JC        ??zclFindPlugin_1
        MOV       A,R0
        MOV       R2,A
        MOV       A,R1
        MOV       R3,A
        SJMP      ??zclFindPlugin_3
// 2532   }
// 2533 
// 2534   return ( (zclLibPlugin_t *)NULL );
??zclFindPlugin_2:
        MOV       R2,#0x0
        MOV       R3,#0x0
??zclFindPlugin_3:
        POP       DPH
          CFI DPH0 SameValue
          CFI CFA_SP SP+-4
        POP       DPL
          CFI DPL0 SameValue
          CFI CFA_SP SP+-3
        LJMP      ?BRET
// 2535 }
          CFI EndBlock cfiBlock35
// 2536 
// 2537 #ifdef ZCL_DISCOVER
// 2538 /*********************************************************************
// 2539  * @fn      zclFindCmdRecsList
// 2540  *
// 2541  * @brief   Find the right command record list for an endpoint
// 2542  *
// 2543  * @param   endpoint - endpoint to look for
// 2544  *
// 2545  * @return  pointer to record list, NULL if not found
// 2546  */

        RSEG BANKED_CODE:HUGECODE:NOROOT(0)
// 2547 static zclCmdRecsList_t *zclFindCmdRecsList( uint8 endpoint )
zclFindCmdRecsList:
          CFI Block cfiBlock36 Using cfiCommon0
          CFI Function zclFindCmdRecsList
        CODE
// 2548 {
        PUSH      DPL
          CFI DPL0 Frame(CFA_SP, 4)
          CFI CFA_SP SP+-4
        PUSH      DPH
          CFI DPH0 Frame(CFA_SP, 5)
          CFI CFA_SP SP+-5
        ; Saved register size: 2
        ; Auto size: 0
// 2549   zclCmdRecsList_t *pLoop = gpCmdList;
        MOV       DPTR,#gpCmdList
        SJMP      ??zclFindCmdRecsList_0
// 2550 
// 2551   while ( pLoop != NULL )
// 2552   {
// 2553     if ( pLoop->endpoint == endpoint )
// 2554     {
// 2555       return ( pLoop );
// 2556     }
// 2557 
// 2558     pLoop = pLoop->pNext;
??zclFindCmdRecsList_1:
        MOV       DPL,R2
        MOV       DPH,R3
??zclFindCmdRecsList_0:
        MOVX      A,@DPTR
        MOV       R2,A
        INC       DPTR
        MOVX      A,@DPTR
        MOV       R3,A
        MOV       A,R2
        ORL       A,R3
        JZ        ??zclFindCmdRecsList_2
        MOV       DPL,R2
        MOV       DPH,R3
        INC       DPTR
        INC       DPTR
        MOVX      A,@DPTR
        XRL       A,R1
        JNZ       ??zclFindCmdRecsList_1
        SJMP      ??zclFindCmdRecsList_3
// 2559   }
// 2560 
// 2561   return ( NULL );
??zclFindCmdRecsList_2:
        MOV       R2,#0x0
        MOV       R3,#0x0
??zclFindCmdRecsList_3:
        POP       DPH
          CFI DPH0 SameValue
          CFI CFA_SP SP+-4
        POP       DPL
          CFI DPL0 SameValue
          CFI CFA_SP SP+-3
        LJMP      ?BRET
// 2562 }
          CFI EndBlock cfiBlock36
// 2563 
// 2564 /*********************************************************************
// 2565  * @fn      zclFindCmdRec
// 2566  *
// 2567  * @brief   Find the command record that matchs the parameters
// 2568  *
// 2569  * @param   endpoint - Application's endpoint
// 2570  * @param   clusterID - cluster ID
// 2571  * @param   attrId - attribute looking for
// 2572  * @param   pAttr - attribute record to be returned
// 2573  *
// 2574  * @return  TRUE if record found. FALSE, otherwise.
// 2575  */

        RSEG BANKED_CODE:HUGECODE:NOROOT(0)
// 2576 uint8 zclFindCmdRec( uint8 endpoint, uint16 clusterID, uint8 cmdID, zclCommandRec_t *pCmd )
zclFindCmdRec:
          CFI Block cfiBlock37 Using cfiCommon0
          CFI Function zclFindCmdRec
        CODE
// 2577 {
        FUNCALL zclFindCmdRec, zclFindCmdRecsList
        LOCFRAME ISTACK, 0, STACK
        LOCFRAME PSTACK, 0, STACK
        LOCFRAME XSTACK, 14, STACK
        LOCFRAME IOVERLAY, 0, STATIC
        LOCFRAME DOVERLAY, 0, STATIC
        ARGFRAME ISTACK, 0, STACK
        ARGFRAME PSTACK, 0, STACK
        ARGFRAME XSTACK, 14, STACK
        ARGFRAME IOVERLAY, 0, STATIC
        ARGFRAME DOVERLAY, 0, STATIC
        REQUIRE ?V0
        REQUIRE ?V1
        REQUIRE ?V2
        REQUIRE ?V3
        REQUIRE ?V4
        REQUIRE ?V5
        MOV       A,#-0xe
        LCALL     ?BANKED_ENTER_XDATA
          CFI DPH0 load(1, XDATA, add(CFA_XSP16, literal(-1)))
          CFI DPL0 load(1, XDATA, add(CFA_XSP16, literal(-2)))
          CFI ?BRET_EXT load(1, XDATA, add(CFA_XSP16, literal(-3)))
          CFI ?RET_HIGH load(1, XDATA, add(CFA_XSP16, literal(-4)))
          CFI ?RET_LOW load(1, XDATA, add(CFA_XSP16, literal(-5)))
          CFI R7 load(1, XDATA, add(CFA_XSP16, literal(-6)))
          CFI V5 load(1, XDATA, add(CFA_XSP16, literal(-7)))
          CFI V4 load(1, XDATA, add(CFA_XSP16, literal(-8)))
          CFI V3 load(1, XDATA, add(CFA_XSP16, literal(-9)))
          CFI V2 load(1, XDATA, add(CFA_XSP16, literal(-10)))
          CFI V1 load(1, XDATA, add(CFA_XSP16, literal(-11)))
          CFI V0 load(1, XDATA, add(CFA_XSP16, literal(-12)))
          CFI VB load(1, XDATA, add(CFA_XSP16, literal(-13)))
          CFI R6 load(1, XDATA, add(CFA_XSP16, literal(-14)))
          CFI CFA_SP SP+0
          CFI CFA_XSP16 add(XSP16, 14)
        ; Saved register size: 14
        ; Auto size: 0
        MOV       A,R2
        MOV       R6,A
        MOV       A,R3
        MOV       R7,A
        MOV       ?V1,R4
// 2578   uint8 i;
// 2579   zclCmdRecsList_t *pRec = zclFindCmdRecsList( endpoint );
        ; Setup parameters for call to function zclFindCmdRecsList
        LCALL     `??zclFindCmdRecsList::?relay`; Banked call to: zclFindCmdRecsList
        MOV       ?V2,R2
        MOV       ?V3,R3
// 2580 
// 2581   if ( pRec != NULL )
        MOV       A,R2
        ORL       A,R3
        JZ        ??zclFindCmdRec_0
// 2582   {
// 2583     for ( i = 0; i < pRec->numCommands; i++ )
        MOV       R4,#0x0
        SJMP      ??zclFindCmdRec_1
??zclFindCmdRec_2:
        INC       R4
??zclFindCmdRec_1:
        MOV       DPL,?V2
        MOV       DPH,?V3
        INC       DPTR
        INC       DPTR
        INC       DPTR
        MOVX      A,@DPTR
        MOV       R0,A
        MOV       A,R4
        CLR       C
        SUBB      A,R0
        JNC       ??zclFindCmdRec_0
// 2584     {
// 2585       if ( pRec->pCmdRecs[i].clusterID == clusterID && pRec->pCmdRecs[i].cmdID == cmdID )
        MOV       A,R4
        MOV       ?V4,A
        MOV       ?V5,#0x0
        MOV       A,#0x2
        MOV       R0,#?V4
        LCALL     ?S_SHL
        MOV       DPL,?V2
        MOV       DPH,?V3
        INC       DPTR
        INC       DPTR
        INC       DPTR
        INC       DPTR
        MOVX      A,@DPTR
        ADD       A,?V4
        MOV       R0,A
        INC       DPTR
        MOVX      A,@DPTR
        ADDC      A,?V5
        MOV       R1,A
        MOV       DPL,R0
        MOV       DPH,A
        CLR       A
        MOVC      A,@A+DPTR
        MOV       R2,A
        MOV       A,#0x1
        MOVC      A,@A+DPTR
        MOV       R3,A
        MOV       A,R6
        XRL       A,R2
        JNZ       ??zclFindCmdRec_3
        MOV       A,R7
        XRL       A,R3
??zclFindCmdRec_3:
        JNZ       ??zclFindCmdRec_2
        INC       DPTR
        INC       DPTR
        CLR       A
        MOVC      A,@A+DPTR
        XRL       A,?V1
        JNZ       ??zclFindCmdRec_2
// 2586       {
// 2587         *pCmd = pRec->pCmdRecs[i];
        MOV       DPL,R0
        MOV       DPH,R1
        PUSH      DPL
          CFI CFA_SP SP+-1
        PUSH      DPH
          CFI CFA_SP SP+-2
        MOV       A,#0xe
        LCALL     ?XSTACK_DISP0_8
        MOVX      A,@DPTR
        MOV       R4,A
        INC       DPTR
        MOVX      A,@DPTR
        MOV       R5,A
        POP       DPH
          CFI CFA_SP SP+-1
        POP       DPL
          CFI CFA_SP SP+0
        MOV       A,#0x4
        LCALL     ?MOVE_LONG8_XDATA_CODE
// 2588 
// 2589         return ( TRUE ); // EMBEDDED RETURN
        MOV       R1,#0x1
        SJMP      ??zclFindCmdRec_4
// 2590       }
// 2591     }
// 2592   }
// 2593 
// 2594   return ( FALSE );
??zclFindCmdRec_0:
        MOV       R1,#0x0
??zclFindCmdRec_4:
        MOV       R7,#0x6
        LJMP      ?BANKED_LEAVE_XDATA
// 2595 }
          CFI EndBlock cfiBlock37
// 2596 #endif // ZCL_DISCOVER
// 2597 
// 2598 /*********************************************************************
// 2599  * @fn      zclFindAttrRecsList
// 2600  *
// 2601  * @brief   Find the right attribute record list for an endpoint
// 2602  *
// 2603  * @param   clusterID - endpointto look for
// 2604  *
// 2605  * @return  pointer to record list, NULL if not found
// 2606  */

        RSEG BANKED_CODE:HUGECODE:NOROOT(0)
// 2607 zclAttrRecsList *zclFindAttrRecsList( uint8 endpoint )
zclFindAttrRecsList:
          CFI Block cfiBlock38 Using cfiCommon0
          CFI Function zclFindAttrRecsList
        CODE
// 2608 {
        PUSH      DPL
          CFI DPL0 Frame(CFA_SP, 4)
          CFI CFA_SP SP+-4
        PUSH      DPH
          CFI DPH0 Frame(CFA_SP, 5)
          CFI CFA_SP SP+-5
        ; Saved register size: 2
        ; Auto size: 0
// 2609   zclAttrRecsList *pLoop = attrList;
        MOV       DPTR,#attrList
        SJMP      ??zclFindAttrRecsList_0
// 2610 
// 2611   while ( pLoop != NULL )
// 2612   {
// 2613     if ( pLoop->endpoint == endpoint )
// 2614     {
// 2615       return ( pLoop );
// 2616     }
// 2617 
// 2618     pLoop = pLoop->next;
??zclFindAttrRecsList_1:
        MOV       DPL,R2
        MOV       DPH,R3
??zclFindAttrRecsList_0:
        MOVX      A,@DPTR
        MOV       R2,A
        INC       DPTR
        MOVX      A,@DPTR
        MOV       R3,A
        MOV       A,R2
        ORL       A,R3
        JZ        ??zclFindAttrRecsList_2
        MOV       DPL,R2
        MOV       DPH,R3
        INC       DPTR
        INC       DPTR
        MOVX      A,@DPTR
        XRL       A,R1
        JNZ       ??zclFindAttrRecsList_1
        SJMP      ??zclFindAttrRecsList_3
// 2619   }
// 2620 
// 2621   return ( NULL );
??zclFindAttrRecsList_2:
        MOV       R2,#0x0
        MOV       R3,#0x0
??zclFindAttrRecsList_3:
        POP       DPH
          CFI DPH0 SameValue
          CFI CFA_SP SP+-4
        POP       DPL
          CFI DPL0 SameValue
          CFI CFA_SP SP+-3
        LJMP      ?BRET
// 2622 }
          CFI EndBlock cfiBlock38
// 2623 
// 2624 /*********************************************************************
// 2625  * @fn      zclFindAttrRec
// 2626  *
// 2627  * @brief   Find the attribute record that matchs the parameters
// 2628  *
// 2629  * @param   endpoint - Application's endpoint
// 2630  * @param   clusterID - cluster ID
// 2631  * @param   attrId - attribute looking for
// 2632  * @param   pAttr - attribute record to be returned
// 2633  *
// 2634  * @return  TRUE if record found. FALSE, otherwise.
// 2635  */

        RSEG BANKED_CODE:HUGECODE:NOROOT(0)
// 2636 uint8 zclFindAttrRec( uint8 endpoint, uint16 clusterID, uint16 attrId, zclAttrRec_t *pAttr )
zclFindAttrRec:
          CFI Block cfiBlock39 Using cfiCommon0
          CFI Function zclFindAttrRec
        CODE
// 2637 {
        FUNCALL zclFindAttrRec, zclFindAttrRecsList
        LOCFRAME ISTACK, 0, STACK
        LOCFRAME PSTACK, 0, STACK
        LOCFRAME XSTACK, 16, STACK
        LOCFRAME IOVERLAY, 0, STATIC
        LOCFRAME DOVERLAY, 0, STATIC
        ARGFRAME ISTACK, 0, STACK
        ARGFRAME PSTACK, 0, STACK
        ARGFRAME XSTACK, 16, STACK
        ARGFRAME IOVERLAY, 0, STATIC
        ARGFRAME DOVERLAY, 0, STATIC
        REQUIRE ?V0
        REQUIRE ?V1
        REQUIRE ?V2
        REQUIRE ?V4
        REQUIRE ?V5
        REQUIRE ?V6
        REQUIRE ?V7
        MOV       A,#-0x10
        LCALL     ?BANKED_ENTER_XDATA
          CFI DPH0 load(1, XDATA, add(CFA_XSP16, literal(-1)))
          CFI DPL0 load(1, XDATA, add(CFA_XSP16, literal(-2)))
          CFI ?BRET_EXT load(1, XDATA, add(CFA_XSP16, literal(-3)))
          CFI ?RET_HIGH load(1, XDATA, add(CFA_XSP16, literal(-4)))
          CFI ?RET_LOW load(1, XDATA, add(CFA_XSP16, literal(-5)))
          CFI R7 load(1, XDATA, add(CFA_XSP16, literal(-6)))
          CFI V7 load(1, XDATA, add(CFA_XSP16, literal(-7)))
          CFI V6 load(1, XDATA, add(CFA_XSP16, literal(-8)))
          CFI V5 load(1, XDATA, add(CFA_XSP16, literal(-9)))
          CFI V4 load(1, XDATA, add(CFA_XSP16, literal(-10)))
          CFI V3 load(1, XDATA, add(CFA_XSP16, literal(-11)))
          CFI V2 load(1, XDATA, add(CFA_XSP16, literal(-12)))
          CFI V1 load(1, XDATA, add(CFA_XSP16, literal(-13)))
          CFI V0 load(1, XDATA, add(CFA_XSP16, literal(-14)))
          CFI VB load(1, XDATA, add(CFA_XSP16, literal(-15)))
          CFI R6 load(1, XDATA, add(CFA_XSP16, literal(-16)))
          CFI CFA_SP SP+0
          CFI CFA_XSP16 add(XSP16, 16)
        ; Saved register size: 16
        ; Auto size: 0
        MOV       ?V0,R2
        MOV       ?V1,R3
        MOV       A,R4
        MOV       R6,A
        MOV       A,R5
        MOV       R7,A
// 2638   uint8 x;
// 2639   zclAttrRecsList *pRec = zclFindAttrRecsList( endpoint );
        ; Setup parameters for call to function zclFindAttrRecsList
        LCALL     `??zclFindAttrRecsList::?relay`; Banked call to: zclFindAttrRecsList
        MOV       ?V4,R2
        MOV       ?V5,R3
// 2640 
// 2641   if ( pRec != NULL )
        MOV       A,R2
        ORL       A,R3
        JNZ       $+5
        LJMP      ??zclFindAttrRec_0 & 0xFFFF
// 2642   {
// 2643     for ( x = 0; x < pRec->numAttributes; x++ )
        MOV       R4,#0x0
        SJMP      ??zclFindAttrRec_1
??zclFindAttrRec_2:
        INC       R4
??zclFindAttrRec_1:
        MOV       DPL,?V4
        MOV       DPH,?V5
        INC       DPTR
        INC       DPTR
        INC       DPTR
        INC       DPTR
        INC       DPTR
        INC       DPTR
        INC       DPTR
        MOVX      A,@DPTR
        MOV       R0,A
        MOV       A,R4
        CLR       C
        SUBB      A,R0
        JNC       ??zclFindAttrRec_0
// 2644     {
// 2645       if ( pRec->attrs[x].clusterID == clusterID && pRec->attrs[x].attr.attrId == attrId )
        MOV       A,R4
        MOV       ?V6,A
        MOV       ?V7,#0x0
        MOV       A,#0x3
        MOV       R0,#?V6
        LCALL     ?S_SHL
        MOV       DPL,?V4
        MOV       DPH,?V5
        INC       DPTR
        INC       DPTR
        INC       DPTR
        INC       DPTR
        INC       DPTR
        INC       DPTR
        INC       DPTR
        INC       DPTR
        MOVX      A,@DPTR
        ADD       A,?V6
        MOV       R0,A
        INC       DPTR
        MOVX      A,@DPTR
        ADDC      A,?V7
        MOV       R1,A
        MOV       DPL,R0
        MOV       DPH,A
        CLR       A
        MOVC      A,@A+DPTR
        MOV       R2,A
        MOV       A,#0x1
        MOVC      A,@A+DPTR
        MOV       R3,A
        MOV       A,?V0
        XRL       A,R2
        JNZ       ??zclFindAttrRec_3
        MOV       A,?V1
        XRL       A,R3
??zclFindAttrRec_3:
        JNZ       ??zclFindAttrRec_2
        INC       DPTR
        INC       DPTR
        CLR       A
        MOVC      A,@A+DPTR
        MOV       R2,A
        MOV       A,#0x1
        MOVC      A,@A+DPTR
        MOV       R3,A
        MOV       A,R6
        XRL       A,R2
        JNZ       ??zclFindAttrRec_4
        MOV       A,R7
        XRL       A,R3
??zclFindAttrRec_4:
        JNZ       ??zclFindAttrRec_2
// 2646       {
// 2647         *pAttr = pRec->attrs[x];
        MOV       DPL,R0
        MOV       DPH,R1
        PUSH      DPL
          CFI CFA_SP SP+-1
        PUSH      DPH
          CFI CFA_SP SP+-2
        MOV       A,#0x10
        LCALL     ?XSTACK_DISP0_8
        MOVX      A,@DPTR
        MOV       R4,A
        INC       DPTR
        MOVX      A,@DPTR
        MOV       R5,A
        POP       DPH
          CFI CFA_SP SP+-1
        POP       DPL
          CFI CFA_SP SP+0
        MOV       A,#0x8
        LCALL     ?MOVE_LONG8_XDATA_CODE
// 2648 
// 2649         return ( TRUE ); // EMBEDDED RETURN
        MOV       R1,#0x1
        SJMP      ??zclFindAttrRec_5
// 2650       }
// 2651     }
// 2652   }
// 2653 
// 2654   return ( FALSE );
??zclFindAttrRec_0:
        MOV       R1,#0x0
??zclFindAttrRec_5:
        MOV       R7,#0x8
        LJMP      ?BANKED_LEAVE_XDATA
// 2655 }
          CFI EndBlock cfiBlock39
// 2656 
// 2657 #if defined ( ZCL_STANDALONE )
// 2658 /*********************************************************************
// 2659  * @fn      zclSetAttrRecList
// 2660  *
// 2661  * @brief   Set attribute record list for end point
// 2662  *
// 2663  * @param   endpoint - endpoint the attribute list belongs to
// 2664  * @param   numAttr - number of attributes in list
// 2665  * @param   attrList - array of attribute records.
// 2666  *                     NOTE: THE ATTRIBUTE IDs (FOR A CLUSTER) MUST BE
// 2667  *                     IN ASCENDING ORDER. OTHERWISE, THE DISCOVERY
// 2668  *                     RESPONSE COMMAND WILL NOT HAVE THE RIGHT
// 2669  *                     ATTRIBUTE INFO
// 2670  *
// 2671  * @return  TRUE if successful, FALSE otherwise.
// 2672  */
// 2673 uint8 zclSetAttrRecList( uint8 endpoint, uint8 numAttr, CONST zclAttrRec_t attrList[] )
// 2674 {
// 2675   zclAttrRecsList *pRecsList = zclFindAttrRecsList( endpoint );
// 2676 
// 2677   if ( pRecsList != NULL )
// 2678   {
// 2679     pRecsList->numAttributes = numAttr;
// 2680     pRecsList->attrs = attrList;
// 2681     return ( TRUE );
// 2682   }
// 2683 
// 2684   return ( FALSE );
// 2685 }
// 2686 
// 2687 #endif // ZCL_STANDALONE
// 2688 
// 2689 #if defined ( ZCL_READ ) || defined ( ZCL_WRITE )
// 2690 /*********************************************************************
// 2691  * @fn      zclGetReadWriteCB
// 2692  *
// 2693  * @brief   Get the Read/Write callback function pointer for a given endpoint.
// 2694  *
// 2695  * @param   endpoint - Application's endpoint
// 2696  *
// 2697  * @return  Read/Write CB, NULL if not found
// 2698  */

        RSEG BANKED_CODE:HUGECODE:NOROOT(0)
// 2699 static zclReadWriteCB_t zclGetReadWriteCB( uint8 endpoint )
zclGetReadWriteCB:
          CFI Block cfiBlock40 Using cfiCommon0
          CFI Function zclGetReadWriteCB
        CODE
// 2700 {
        FUNCALL zclGetReadWriteCB, zclFindAttrRecsList
        LOCFRAME ISTACK, 0, STACK
        LOCFRAME PSTACK, 0, STACK
        LOCFRAME XSTACK, 10, STACK
        LOCFRAME IOVERLAY, 0, STATIC
        LOCFRAME DOVERLAY, 0, STATIC
        ARGFRAME ISTACK, 0, STACK
        ARGFRAME PSTACK, 0, STACK
        ARGFRAME XSTACK, 10, STACK
        ARGFRAME IOVERLAY, 0, STATIC
        ARGFRAME DOVERLAY, 0, STATIC
        REQUIRE ?V0
        REQUIRE ?V1
        MOV       A,#-0xa
        LCALL     ?BANKED_ENTER_XDATA
          CFI DPH0 load(1, XDATA, add(CFA_XSP16, literal(-1)))
          CFI DPL0 load(1, XDATA, add(CFA_XSP16, literal(-2)))
          CFI ?BRET_EXT load(1, XDATA, add(CFA_XSP16, literal(-3)))
          CFI ?RET_HIGH load(1, XDATA, add(CFA_XSP16, literal(-4)))
          CFI ?RET_LOW load(1, XDATA, add(CFA_XSP16, literal(-5)))
          CFI R7 load(1, XDATA, add(CFA_XSP16, literal(-6)))
          CFI V1 load(1, XDATA, add(CFA_XSP16, literal(-7)))
          CFI V0 load(1, XDATA, add(CFA_XSP16, literal(-8)))
          CFI VB load(1, XDATA, add(CFA_XSP16, literal(-9)))
          CFI R6 load(1, XDATA, add(CFA_XSP16, literal(-10)))
          CFI CFA_SP SP+0
          CFI CFA_XSP16 add(XSP16, 10)
        ; Saved register size: 10
        ; Auto size: 0
// 2701   zclAttrRecsList *pRec = zclFindAttrRecsList( endpoint );
        ; Setup parameters for call to function zclFindAttrRecsList
        LCALL     `??zclFindAttrRecsList::?relay`; Banked call to: zclFindAttrRecsList
        MOV       DPL,R2
        MOV       DPH,R3
// 2702 
// 2703   if ( pRec != NULL )
        MOV       A,DPL
        ORL       A,DPH
        JZ        ??zclGetReadWriteCB_0
// 2704   {
// 2705     return ( pRec->pfnReadWriteCB );
        INC       DPTR
        INC       DPTR
        INC       DPTR
        MOVX      A,@DPTR
        MOV       R2,A
        INC       DPTR
        MOVX      A,@DPTR
        MOV       R3,A
        SJMP      ??zclGetReadWriteCB_1
// 2706   }
// 2707 
// 2708   return ( NULL );
??zclGetReadWriteCB_0:
        MOV       R2,#0x0
        MOV       R3,#0x0
??zclGetReadWriteCB_1:
        MOV       R7,#0x2
        LJMP      ?BANKED_LEAVE_XDATA
// 2709 }
          CFI EndBlock cfiBlock40
// 2710 
// 2711 /*********************************************************************
// 2712  * @fn      zclGetAuthorizeCB
// 2713  *
// 2714  * @brief   Get the Read/Write Authorization callback function pointer
// 2715  *          for a given endpoint.
// 2716  *
// 2717  * @param   endpoint - Application's endpoint
// 2718  *
// 2719  * @return  Authorization CB, NULL if not found
// 2720  */

        RSEG BANKED_CODE:HUGECODE:NOROOT(0)
// 2721 static zclAuthorizeCB_t zclGetAuthorizeCB( uint8 endpoint )
zclGetAuthorizeCB:
          CFI Block cfiBlock41 Using cfiCommon0
          CFI Function zclGetAuthorizeCB
        CODE
// 2722 {
        FUNCALL zclGetAuthorizeCB, zclFindAttrRecsList
        LOCFRAME ISTACK, 0, STACK
        LOCFRAME PSTACK, 0, STACK
        LOCFRAME XSTACK, 10, STACK
        LOCFRAME IOVERLAY, 0, STATIC
        LOCFRAME DOVERLAY, 0, STATIC
        ARGFRAME ISTACK, 0, STACK
        ARGFRAME PSTACK, 0, STACK
        ARGFRAME XSTACK, 10, STACK
        ARGFRAME IOVERLAY, 0, STATIC
        ARGFRAME DOVERLAY, 0, STATIC
        REQUIRE ?V0
        REQUIRE ?V1
        MOV       A,#-0xa
        LCALL     ?BANKED_ENTER_XDATA
          CFI DPH0 load(1, XDATA, add(CFA_XSP16, literal(-1)))
          CFI DPL0 load(1, XDATA, add(CFA_XSP16, literal(-2)))
          CFI ?BRET_EXT load(1, XDATA, add(CFA_XSP16, literal(-3)))
          CFI ?RET_HIGH load(1, XDATA, add(CFA_XSP16, literal(-4)))
          CFI ?RET_LOW load(1, XDATA, add(CFA_XSP16, literal(-5)))
          CFI R7 load(1, XDATA, add(CFA_XSP16, literal(-6)))
          CFI V1 load(1, XDATA, add(CFA_XSP16, literal(-7)))
          CFI V0 load(1, XDATA, add(CFA_XSP16, literal(-8)))
          CFI VB load(1, XDATA, add(CFA_XSP16, literal(-9)))
          CFI R6 load(1, XDATA, add(CFA_XSP16, literal(-10)))
          CFI CFA_SP SP+0
          CFI CFA_XSP16 add(XSP16, 10)
        ; Saved register size: 10
        ; Auto size: 0
// 2723   zclAttrRecsList *pRec = zclFindAttrRecsList( endpoint );
        ; Setup parameters for call to function zclFindAttrRecsList
        LCALL     `??zclFindAttrRecsList::?relay`; Banked call to: zclFindAttrRecsList
        MOV       DPL,R2
        MOV       DPH,R3
// 2724 
// 2725   if ( pRec != NULL )
        MOV       A,DPL
        ORL       A,DPH
        JZ        ??zclGetAuthorizeCB_0
// 2726   {
// 2727     return ( pRec->pfnAuthorizeCB );
        INC       DPTR
        INC       DPTR
        INC       DPTR
        INC       DPTR
        INC       DPTR
        MOVX      A,@DPTR
        MOV       R2,A
        INC       DPTR
        MOVX      A,@DPTR
        MOV       R3,A
        SJMP      ??zclGetAuthorizeCB_1
// 2728   }
// 2729 
// 2730   return ( NULL );
??zclGetAuthorizeCB_0:
        MOV       R2,#0x0
        MOV       R3,#0x0
??zclGetAuthorizeCB_1:
        MOV       R7,#0x2
        LJMP      ?BANKED_LEAVE_XDATA
// 2731 }
          CFI EndBlock cfiBlock41
// 2732 #endif // ZCL_READ || ZCL_WRITE
// 2733 
// 2734 /*********************************************************************
// 2735  * @fn      zclFindClusterOption
// 2736  *
// 2737  * @brief   Find the option record that matchs the cluster id
// 2738  *
// 2739  * @param   endpoint - Application's endpoint
// 2740  * @param   clusterID - cluster ID looking for
// 2741  *
// 2742  * @return  pointer to clutser option, NULL if not found
// 2743  */

        RSEG BANKED_CODE:HUGECODE:NOROOT(0)
// 2744 static zclOptionRec_t *zclFindClusterOption( uint8 endpoint, uint16 clusterID )
zclFindClusterOption:
          CFI Block cfiBlock42 Using cfiCommon0
          CFI Function zclFindClusterOption
        CODE
// 2745 {
        REQUIRE ?V0
        MOV       A,#-0x9
        LCALL     ?BANKED_ENTER_XDATA
          CFI DPH0 load(1, XDATA, add(CFA_XSP16, literal(-1)))
          CFI DPL0 load(1, XDATA, add(CFA_XSP16, literal(-2)))
          CFI ?BRET_EXT load(1, XDATA, add(CFA_XSP16, literal(-3)))
          CFI ?RET_HIGH load(1, XDATA, add(CFA_XSP16, literal(-4)))
          CFI ?RET_LOW load(1, XDATA, add(CFA_XSP16, literal(-5)))
          CFI R7 load(1, XDATA, add(CFA_XSP16, literal(-6)))
          CFI V0 load(1, XDATA, add(CFA_XSP16, literal(-7)))
          CFI VB load(1, XDATA, add(CFA_XSP16, literal(-8)))
          CFI R6 load(1, XDATA, add(CFA_XSP16, literal(-9)))
          CFI CFA_SP SP+0
          CFI CFA_XSP16 add(XSP16, 9)
        ; Saved register size: 9
        ; Auto size: 0
        MOV       A,R1
        MOV       R7,A
        MOV       A,R2
        MOV       R4,A
        MOV       A,R3
        MOV       R5,A
// 2746   zclClusterOptionList *pLoop;
// 2747 
// 2748   pLoop = clusterOptionList;
        MOV       DPTR,#clusterOptionList
        SJMP      ??zclFindClusterOption_0
// 2749   while ( pLoop != NULL )
// 2750   {
// 2751     if ( pLoop->endpoint == endpoint )
// 2752     {
// 2753       uint8 x;
// 2754       for ( x = 0; x < pLoop->numOptions; x++ )
// 2755       {
// 2756         if ( pLoop->options[x].clusterID == clusterID )
// 2757         {
// 2758           return ( &(pLoop->options[x]) ); // EMBEDDED RETURN
// 2759         }
// 2760       }
// 2761     }
// 2762 
// 2763     pLoop = pLoop->next;
??zclFindClusterOption_1:
        MOV       DPL,R0
        MOV       DPH,R1
??zclFindClusterOption_0:
        MOVX      A,@DPTR
        MOV       R0,A
        INC       DPTR
        MOVX      A,@DPTR
        MOV       R1,A
        MOV       A,R0
        ORL       A,R1
        JZ        ??zclFindClusterOption_2
        MOV       DPL,R0
        MOV       DPH,R1
        INC       DPTR
        INC       DPTR
        MOVX      A,@DPTR
        XRL       A,R7
        JNZ       ??zclFindClusterOption_1
        MOV       R6,#0x0
        SJMP      ??zclFindClusterOption_3
??zclFindClusterOption_4:
        INC       R6
??zclFindClusterOption_3:
        MOV       DPL,R0
        MOV       DPH,R1
        INC       DPTR
        INC       DPTR
        INC       DPTR
        MOVX      A,@DPTR
        MOV       R2,A
        MOV       A,R6
        CLR       C
        SUBB      A,R2
        JNC       ??zclFindClusterOption_1
        MOV       A,R6
        MOV       B,#0x3
        MUL       AB
        MOV       R2,A
        MOV       ?V0,B
        MOV       R3,?V0
        MOV       DPL,R0
        MOV       DPH,R1
        INC       DPTR
        INC       DPTR
        INC       DPTR
        INC       DPTR
        MOVX      A,@DPTR
        ADD       A,R2
        MOV       R2,A
        INC       DPTR
        MOVX      A,@DPTR
        ADDC      A,R3
        MOV       R3,A
        MOV       DPL,R2
        MOV       DPH,A
        MOVX      A,@DPTR
        XRL       A,R4
        JNZ       ??zclFindClusterOption_5
        INC       DPTR
        MOVX      A,@DPTR
        XRL       A,R5
??zclFindClusterOption_5:
        JNZ       ??zclFindClusterOption_4
        SJMP      ??zclFindClusterOption_6
// 2764   }
// 2765 
// 2766   return ( NULL );
??zclFindClusterOption_2:
        MOV       R2,#0x0
        MOV       R3,#0x0
??zclFindClusterOption_6:
        MOV       R7,#0x1
        LJMP      ?BANKED_LEAVE_XDATA
// 2767 }
          CFI EndBlock cfiBlock42
// 2768 
// 2769 /*********************************************************************
// 2770  * @fn      zclGetClusterOption
// 2771  *
// 2772  * @brief   Get the option record that matchs the cluster id
// 2773  *
// 2774  * @param   endpoint - Application's endpoint
// 2775  * @param   clusterID - cluster ID looking for
// 2776  *
// 2777  * @return  clutser option, AF_TX_OPTIONS_NONE if not found
// 2778  */

        RSEG BANKED_CODE:HUGECODE:NOROOT(0)
// 2779 static uint8 zclGetClusterOption( uint8 endpoint, uint16 clusterID )
zclGetClusterOption:
          CFI Block cfiBlock43 Using cfiCommon0
          CFI Function zclGetClusterOption
        CODE
// 2780 {
        FUNCALL zclGetClusterOption, zclFindClusterOption
        LOCFRAME ISTACK, 0, STACK
        LOCFRAME PSTACK, 0, STACK
        LOCFRAME XSTACK, 10, STACK
        LOCFRAME IOVERLAY, 0, STATIC
        LOCFRAME DOVERLAY, 0, STATIC
        ARGFRAME ISTACK, 0, STACK
        ARGFRAME PSTACK, 0, STACK
        ARGFRAME XSTACK, 10, STACK
        ARGFRAME IOVERLAY, 0, STATIC
        ARGFRAME DOVERLAY, 0, STATIC
        REQUIRE ?V0
        REQUIRE ?V1
        MOV       A,#-0xa
        LCALL     ?BANKED_ENTER_XDATA
          CFI DPH0 load(1, XDATA, add(CFA_XSP16, literal(-1)))
          CFI DPL0 load(1, XDATA, add(CFA_XSP16, literal(-2)))
          CFI ?BRET_EXT load(1, XDATA, add(CFA_XSP16, literal(-3)))
          CFI ?RET_HIGH load(1, XDATA, add(CFA_XSP16, literal(-4)))
          CFI ?RET_LOW load(1, XDATA, add(CFA_XSP16, literal(-5)))
          CFI R7 load(1, XDATA, add(CFA_XSP16, literal(-6)))
          CFI V1 load(1, XDATA, add(CFA_XSP16, literal(-7)))
          CFI V0 load(1, XDATA, add(CFA_XSP16, literal(-8)))
          CFI VB load(1, XDATA, add(CFA_XSP16, literal(-9)))
          CFI R6 load(1, XDATA, add(CFA_XSP16, literal(-10)))
          CFI CFA_SP SP+0
          CFI CFA_XSP16 add(XSP16, 10)
        ; Saved register size: 10
        ; Auto size: 0
// 2781   uint8 option;
// 2782   zclOptionRec_t *pOption;
// 2783 
// 2784   pOption = zclFindClusterOption( endpoint, clusterID );
        ; Setup parameters for call to function zclFindClusterOption
        LCALL     `??zclFindClusterOption::?relay`; Banked call to: zclFindClusterOption
        MOV       DPL,R2
        MOV       DPH,R3
// 2785   if ( pOption != NULL )
        MOV       A,DPL
        ORL       A,DPH
        JZ        ??zclGetClusterOption_0
// 2786   {
// 2787     option = pOption->option;
// 2788     if ( !ZG_SECURE_ENABLED )
// 2789     {
// 2790       option &= (AF_EN_SECURITY ^ 0xFF); // make sure Application Link Key security is off
// 2791     }
// 2792 
// 2793     return ( option ); // EMBEDDED RETURN
        INC       DPTR
        INC       DPTR
        MOVX      A,@DPTR
        MOV       R1,A
        SJMP      ??zclGetClusterOption_1
// 2794   }
// 2795 
// 2796   return ( AF_TX_OPTIONS_NONE );
??zclGetClusterOption_0:
        MOV       R1,#0x0
??zclGetClusterOption_1:
        MOV       R7,#0x2
        LJMP      ?BANKED_LEAVE_XDATA
// 2797 }
          CFI EndBlock cfiBlock43
// 2798 
// 2799 /*********************************************************************
// 2800  * @fn      zclSetSecurityOption
// 2801  *
// 2802  * @brief   Set the security option for the cluster id
// 2803  *
// 2804  * @param   endpoint - Application's endpoint
// 2805  * @param   clusterID - cluster ID looking for
// 2806  * @param   enable - whether to enable (TRUE) or disable (FALSE) security option
// 2807  *
// 2808  * @return  none
// 2809  */

        RSEG BANKED_CODE:HUGECODE:NOROOT(0)
// 2810 static void zclSetSecurityOption( uint8 endpoint, uint16 clusterID, uint8 enable )
zclSetSecurityOption:
          CFI Block cfiBlock44 Using cfiCommon0
          CFI Function zclSetSecurityOption
        CODE
// 2811 {
        FUNCALL zclSetSecurityOption, zclFindClusterOption
        LOCFRAME ISTACK, 0, STACK
        LOCFRAME PSTACK, 0, STACK
        LOCFRAME XSTACK, 10, STACK
        LOCFRAME IOVERLAY, 0, STATIC
        LOCFRAME DOVERLAY, 0, STATIC
        ARGFRAME ISTACK, 0, STACK
        ARGFRAME PSTACK, 0, STACK
        ARGFRAME XSTACK, 10, STACK
        ARGFRAME IOVERLAY, 0, STATIC
        ARGFRAME DOVERLAY, 0, STATIC
        REQUIRE ?V0
        REQUIRE ?V1
        MOV       A,#-0xa
        LCALL     ?BANKED_ENTER_XDATA
          CFI DPH0 load(1, XDATA, add(CFA_XSP16, literal(-1)))
          CFI DPL0 load(1, XDATA, add(CFA_XSP16, literal(-2)))
          CFI ?BRET_EXT load(1, XDATA, add(CFA_XSP16, literal(-3)))
          CFI ?RET_HIGH load(1, XDATA, add(CFA_XSP16, literal(-4)))
          CFI ?RET_LOW load(1, XDATA, add(CFA_XSP16, literal(-5)))
          CFI R7 load(1, XDATA, add(CFA_XSP16, literal(-6)))
          CFI V1 load(1, XDATA, add(CFA_XSP16, literal(-7)))
          CFI V0 load(1, XDATA, add(CFA_XSP16, literal(-8)))
          CFI VB load(1, XDATA, add(CFA_XSP16, literal(-9)))
          CFI R6 load(1, XDATA, add(CFA_XSP16, literal(-10)))
          CFI CFA_SP SP+0
          CFI CFA_XSP16 add(XSP16, 10)
        ; Saved register size: 10
        ; Auto size: 0
        MOV       A,R4
        MOV       R7,A
// 2812   zclOptionRec_t *pOption;
// 2813 
// 2814   pOption = zclFindClusterOption( endpoint, clusterID );
        ; Setup parameters for call to function zclFindClusterOption
        LCALL     `??zclFindClusterOption::?relay`; Banked call to: zclFindClusterOption
        MOV       ?V1,R3
        MOV       R1,?V1
// 2815   if ( pOption != NULL )
        MOV       A,R2
        ORL       A,R1
        JZ        ??zclSetSecurityOption_0
// 2816   {
// 2817     if ( enable )
        MOV       A,R2
        ADD       A,#0x2
        MOV       DPL,A
        CLR       A
        ADDC      A,R1
        MOV       DPH,A
        MOV       A,R7
        JZ        ??zclSetSecurityOption_1
// 2818     {
// 2819       pOption->option |= AF_EN_SECURITY;
        MOVX      A,@DPTR
        SETB      0xE0 /* A   */.6
        SJMP      ??zclSetSecurityOption_2
// 2820     }
// 2821     else
// 2822     {
// 2823       pOption->option &= (AF_EN_SECURITY ^ 0xFF);
??zclSetSecurityOption_1:
        MOVX      A,@DPTR
        CLR       0xE0 /* A   */.6
??zclSetSecurityOption_2:
        MOVX      @DPTR,A
// 2824     }
// 2825   }
// 2826 }
??zclSetSecurityOption_0:
        MOV       R7,#0x2
        LJMP      ?BANKED_LEAVE_XDATA
          CFI EndBlock cfiBlock44
// 2827 
// 2828 #ifdef ZCL_DISCOVER
// 2829 /*********************************************************************
// 2830  * @fn      zclFindNextCmdRec
// 2831  *
// 2832  * @brief   Find the command (or next) record that matchs the parameters
// 2833  *
// 2834  * @param   endpoint - Application's endpoint
// 2835  * @param   clusterID - cluster ID
// 2836  * @param   commandID - command ID from requesting command
// 2837  * @param   direction- direction of received command
// 2838  * @param   pCmdID - command looking for
// 2839  * @param   pCmd - command information within command record list
// 2840  *
// 2841  * @return  pointer to command record, NULL no more records of this cluster
// 2842  */

        RSEG BANKED_CODE:HUGECODE:NOROOT(0)
// 2843 static uint8 zclFindNextCmdRec( uint8 endpoint, uint16 clusterID, uint8 commandID,
zclFindNextCmdRec:
          CFI Block cfiBlock45 Using cfiCommon0
          CFI Function zclFindNextCmdRec
        CODE
// 2844                                 uint8 direction, uint8 *pCmdID, zclCommandRec_t *pCmd )
// 2845 {
        FUNCALL zclFindNextCmdRec, zclFindCmdRecsList
        LOCFRAME ISTACK, 0, STACK
        LOCFRAME PSTACK, 0, STACK
        LOCFRAME XSTACK, 16, STACK
        LOCFRAME IOVERLAY, 0, STATIC
        LOCFRAME DOVERLAY, 0, STATIC
        ARGFRAME ISTACK, 0, STACK
        ARGFRAME PSTACK, 0, STACK
        ARGFRAME XSTACK, 16, STACK
        ARGFRAME IOVERLAY, 0, STATIC
        ARGFRAME DOVERLAY, 0, STATIC
        REQUIRE ?V0
        REQUIRE ?V1
        REQUIRE ?V2
        REQUIRE ?V3
        REQUIRE ?V4
        REQUIRE ?V5
        REQUIRE ?V6
        REQUIRE ?V7
        MOV       A,#-0x10
        LCALL     ?BANKED_ENTER_XDATA
          CFI DPH0 load(1, XDATA, add(CFA_XSP16, literal(-1)))
          CFI DPL0 load(1, XDATA, add(CFA_XSP16, literal(-2)))
          CFI ?BRET_EXT load(1, XDATA, add(CFA_XSP16, literal(-3)))
          CFI ?RET_HIGH load(1, XDATA, add(CFA_XSP16, literal(-4)))
          CFI ?RET_LOW load(1, XDATA, add(CFA_XSP16, literal(-5)))
          CFI R7 load(1, XDATA, add(CFA_XSP16, literal(-6)))
          CFI V7 load(1, XDATA, add(CFA_XSP16, literal(-7)))
          CFI V6 load(1, XDATA, add(CFA_XSP16, literal(-8)))
          CFI V5 load(1, XDATA, add(CFA_XSP16, literal(-9)))
          CFI V4 load(1, XDATA, add(CFA_XSP16, literal(-10)))
          CFI V3 load(1, XDATA, add(CFA_XSP16, literal(-11)))
          CFI V2 load(1, XDATA, add(CFA_XSP16, literal(-12)))
          CFI V1 load(1, XDATA, add(CFA_XSP16, literal(-13)))
          CFI V0 load(1, XDATA, add(CFA_XSP16, literal(-14)))
          CFI VB load(1, XDATA, add(CFA_XSP16, literal(-15)))
          CFI R6 load(1, XDATA, add(CFA_XSP16, literal(-16)))
          CFI CFA_SP SP+0
          CFI CFA_XSP16 add(XSP16, 16)
        ; Saved register size: 16
        ; Auto size: 0
        MOV       A,R2
        MOV       R6,A
        MOV       A,R3
        MOV       R7,A
        MOV       ?V1,R4
        MOV       ?V2,R5
// 2846   zclCmdRecsList_t *pRec = zclFindCmdRecsList( endpoint );
        ; Setup parameters for call to function zclFindCmdRecsList
        LCALL     `??zclFindCmdRecsList::?relay`; Banked call to: zclFindCmdRecsList
        MOV       ?V4,R2
        MOV       ?V5,R3
// 2847   uint8 i;
// 2848 
// 2849   if ( pRec != NULL )
        MOV       A,R2
        ORL       A,R3
        JNZ       $+5
        LJMP      ??zclFindNextCmdRec_0 & 0xFFFF
// 2850   {
// 2851     for ( i = 0; i < pRec->numCommands; i++ )
        MOV       ?V3,#0x0
        MOV       A,#0x10
        LCALL     ?XSTACK_DISP0_8
        MOVX      A,@DPTR
        MOV       R0,A
        INC       DPTR
        MOVX      A,@DPTR
        MOV       R1,A
        MOV       A,R0
        MOV       R2,A
        MOV       A,R1
        MOV       R3,A
        SJMP      ??zclFindNextCmdRec_1
// 2852     {
// 2853       if ( ( pRec->pCmdRecs[i].clusterID == clusterID ) &&
// 2854           ( pRec->pCmdRecs[i].cmdID >= *pCmdID ) )
// 2855       {
// 2856         if ( commandID == ZCL_CMD_DISCOVER_CMDS_RECEIVED )
// 2857         {
// 2858           if ( ( direction == ZCL_FRAME_SERVER_CLIENT_DIR ) && ( pRec->pCmdRecs[i].flag & CMD_DIR_CLIENT_RECEIVED ) )
??zclFindNextCmdRec_2:
        MOV       A,#0x1
        XRL       A,?V2
        JNZ       ??zclFindNextCmdRec_3
        MOV       DPL,R4
        MOV       DPH,R5
        INC       DPTR
        INC       DPTR
        INC       DPTR
        CLR       A
        MOVC      A,@A+DPTR
        MOV       C,0xE0 /* A   */.3
        JNC       $+5
        LJMP      ??zclFindNextCmdRec_4 & 0xFFFF
// 2859           {
// 2860             *pCmd = pRec->pCmdRecs[i];
// 2861 
// 2862             // Update command ID
// 2863             *pCmdID = pCmd->cmdID;
// 2864 
// 2865             return ( TRUE ); // EMBEDDED RETURN
// 2866           }
// 2867           else if ( ( direction == ZCL_FRAME_CLIENT_SERVER_DIR ) && ( pRec->pCmdRecs[i].flag & CMD_DIR_SERVER_RECEIVED ) )
??zclFindNextCmdRec_3:
        MOV       A,?V2
        JNZ       ??zclFindNextCmdRec_5
        MOV       DPL,R4
        MOV       DPH,R5
        INC       DPTR
        INC       DPTR
        INC       DPTR
        CLR       A
        MOVC      A,@A+DPTR
        MOV       C,0xE0 /* A   */.2
        JNC       $+5
        LJMP      ??zclFindNextCmdRec_4 & 0xFFFF
// 2868           {
// 2869             *pCmd = pRec->pCmdRecs[i];
// 2870 
// 2871             // Update command ID
// 2872             *pCmdID = pCmd->cmdID;
// 2873 
// 2874             return ( TRUE ); // EMBEDDED RETURN
// 2875           }
// 2876         }
??zclFindNextCmdRec_5:
        INC       ?V3
??zclFindNextCmdRec_1:
        MOV       DPL,?V4
        MOV       DPH,?V5
        INC       DPTR
        INC       DPTR
        INC       DPTR
        MOVX      A,@DPTR
        MOV       R0,A
        MOV       A,?V3
        CLR       C
        SUBB      A,R0
        JC        $+5
        LJMP      ??zclFindNextCmdRec_0 & 0xFFFF
        MOV       A,?V3
        MOV       ?V6,A
        MOV       ?V7,#0x0
        MOV       A,#0x2
        MOV       R0,#?V6
        LCALL     ?S_SHL
        MOV       DPL,?V4
        MOV       DPH,?V5
        INC       DPTR
        INC       DPTR
        INC       DPTR
        INC       DPTR
        MOVX      A,@DPTR
        ADD       A,?V6
        MOV       R0,A
        INC       DPTR
        MOVX      A,@DPTR
        ADDC      A,?V7
        MOV       R1,A
        MOV       A,R0
        MOV       R4,A
        MOV       A,R1
        MOV       R5,A
        MOV       DPL,R0
        MOV       DPH,A
        CLR       A
        MOVC      A,@A+DPTR
        MOV       R0,A
        MOV       A,#0x1
        MOVC      A,@A+DPTR
        MOV       R1,A
        MOV       A,R6
        XRL       A,R0
        JNZ       ??zclFindNextCmdRec_6
        MOV       A,R7
        XRL       A,R1
??zclFindNextCmdRec_6:
        JNZ       ??zclFindNextCmdRec_5
        MOV       DPL,R2
        MOV       DPH,R3
        MOVX      A,@DPTR
        MOV       R0,A
        MOV       DPL,R4
        MOV       DPH,R5
        INC       DPTR
        INC       DPTR
        CLR       A
        MOVC      A,@A+DPTR
        CLR       C
        SUBB      A,R0
        JC        ??zclFindNextCmdRec_5
        MOV       A,#0x11
        XRL       A,?V1
        JNZ       $+5
        LJMP      ??zclFindNextCmdRec_2 & 0xFFFF
// 2877         else if ( commandID == ZCL_CMD_DISCOVER_CMDS_GEN )
        MOV       A,#0x13
        XRL       A,?V1
        JNZ       ??zclFindNextCmdRec_0
// 2878         {
// 2879           if ( ( direction == ZCL_FRAME_CLIENT_SERVER_DIR ) && ( pRec->pCmdRecs[i].flag & CMD_DIR_SERVER_GENERATED ) )
        MOV       A,?V2
        JNZ       ??zclFindNextCmdRec_7
        MOV       DPL,R4
        MOV       DPH,R5
        INC       DPTR
        INC       DPTR
        INC       DPTR
        CLR       A
        MOVC      A,@A+DPTR
        MOV       C,0xE0 /* A   */.0
        JC        ??zclFindNextCmdRec_4
// 2880           {
// 2881             *pCmd = pRec->pCmdRecs[i];
// 2882 
// 2883             // Update command ID
// 2884             *pCmdID = pCmd->cmdID;
// 2885 
// 2886             return ( TRUE ); // EMBEDDED RETURN
// 2887           }
// 2888           else if ( ( direction == ZCL_FRAME_SERVER_CLIENT_DIR ) && ( pRec->pCmdRecs[i].flag & CMD_DIR_CLIENT_GENERATED ) )
??zclFindNextCmdRec_7:
        MOV       A,#0x1
        XRL       A,?V2
        JZ        $+5
        LJMP      ??zclFindNextCmdRec_5 & 0xFFFF
        MOV       DPL,R4
        MOV       DPH,R5
        INC       DPTR
        INC       DPTR
        INC       DPTR
        CLR       A
        MOVC      A,@A+DPTR
        MOV       C,0xE0 /* A   */.1
        JC        $+5
        LJMP      ??zclFindNextCmdRec_5 & 0xFFFF
??zclFindNextCmdRec_4:
        MOV       A,#0x12
        LCALL     ?XSTACK_DISP0_8
        MOVX      A,@DPTR
        MOV       R0,A
        INC       DPTR
        MOVX      A,@DPTR
        MOV       R1,A
// 2889           {
// 2890             *pCmd = pRec->pCmdRecs[i];
        MOV       DPL,R4
        MOV       DPH,R5
        MOV       A,R0
        MOV       R4,A
        MOV       A,R1
        MOV       R5,A
        MOV       A,#0x4
        LCALL     ?MOVE_LONG8_XDATA_CODE
// 2891 
// 2892             // Update command ID
// 2893             *pCmdID = pCmd->cmdID;
        MOV       DPL,R0
        MOV       DPH,R1
        INC       DPTR
        INC       DPTR
        MOVX      A,@DPTR
        MOV       DPL,R2
        MOV       DPH,R3
        MOVX      @DPTR,A
// 2894 
// 2895             return ( TRUE ); // EMBEDDED RETURN
        MOV       R1,#0x1
        SJMP      ??zclFindNextCmdRec_8
// 2896           }
// 2897         }
// 2898         else
// 2899         {
// 2900           return ( FALSE ); // Incorrect Command ID
// 2901         }
// 2902       }
// 2903     }
// 2904   }
// 2905 
// 2906   return ( FALSE );
??zclFindNextCmdRec_0:
        MOV       R1,#0x0
??zclFindNextCmdRec_8:
        MOV       R7,#0x8
        LJMP      ?BANKED_LEAVE_XDATA
// 2907 }
          CFI EndBlock cfiBlock45
// 2908 
// 2909 /*********************************************************************
// 2910  * @fn      zclFindNextAttrRec
// 2911  *
// 2912  * @brief   Find the attribute (or next) record that matchs the parameters
// 2913  *
// 2914  * @param   endpoint - Application's endpoint
// 2915  * @param   clusterID - cluster ID
// 2916  * @param   attr - attribute looking for
// 2917  *
// 2918  * @return  pointer to attribute record, NULL if not found
// 2919  */

        RSEG BANKED_CODE:HUGECODE:NOROOT(0)
// 2920 static uint8 zclFindNextAttrRec( uint8 endpoint, uint16 clusterID, uint8 direction,
zclFindNextAttrRec:
          CFI Block cfiBlock46 Using cfiCommon0
          CFI Function zclFindNextAttrRec
        CODE
// 2921                                  uint16 *attrId, zclAttrRec_t *pAttr )
// 2922 {
        FUNCALL zclFindNextAttrRec, zclFindAttrRecsList
        LOCFRAME ISTACK, 0, STACK
        LOCFRAME PSTACK, 0, STACK
        LOCFRAME XSTACK, 16, STACK
        LOCFRAME IOVERLAY, 0, STATIC
        LOCFRAME DOVERLAY, 0, STATIC
        ARGFRAME ISTACK, 0, STACK
        ARGFRAME PSTACK, 0, STACK
        ARGFRAME XSTACK, 16, STACK
        ARGFRAME IOVERLAY, 0, STATIC
        ARGFRAME DOVERLAY, 0, STATIC
        REQUIRE ?V0
        REQUIRE ?V1
        REQUIRE ?V2
        REQUIRE ?V3
        REQUIRE ?V4
        REQUIRE ?V5
        REQUIRE ?V6
        REQUIRE ?V7
        MOV       A,#-0x10
        LCALL     ?BANKED_ENTER_XDATA
          CFI DPH0 load(1, XDATA, add(CFA_XSP16, literal(-1)))
          CFI DPL0 load(1, XDATA, add(CFA_XSP16, literal(-2)))
          CFI ?BRET_EXT load(1, XDATA, add(CFA_XSP16, literal(-3)))
          CFI ?RET_HIGH load(1, XDATA, add(CFA_XSP16, literal(-4)))
          CFI ?RET_LOW load(1, XDATA, add(CFA_XSP16, literal(-5)))
          CFI R7 load(1, XDATA, add(CFA_XSP16, literal(-6)))
          CFI V7 load(1, XDATA, add(CFA_XSP16, literal(-7)))
          CFI V6 load(1, XDATA, add(CFA_XSP16, literal(-8)))
          CFI V5 load(1, XDATA, add(CFA_XSP16, literal(-9)))
          CFI V4 load(1, XDATA, add(CFA_XSP16, literal(-10)))
          CFI V3 load(1, XDATA, add(CFA_XSP16, literal(-11)))
          CFI V2 load(1, XDATA, add(CFA_XSP16, literal(-12)))
          CFI V1 load(1, XDATA, add(CFA_XSP16, literal(-13)))
          CFI V0 load(1, XDATA, add(CFA_XSP16, literal(-14)))
          CFI VB load(1, XDATA, add(CFA_XSP16, literal(-15)))
          CFI R6 load(1, XDATA, add(CFA_XSP16, literal(-16)))
          CFI CFA_SP SP+0
          CFI CFA_XSP16 add(XSP16, 16)
        ; Saved register size: 16
        ; Auto size: 0
        MOV       A,R2
        MOV       R6,A
        MOV       A,R3
        MOV       R7,A
        MOV       ?V1,R4
// 2923   zclAttrRecsList *pRec = zclFindAttrRecsList( endpoint );
        ; Setup parameters for call to function zclFindAttrRecsList
        LCALL     `??zclFindAttrRecsList::?relay`; Banked call to: zclFindAttrRecsList
        MOV       ?V6,R2
        MOV       ?V7,R3
// 2924   uint8 attrDir;
// 2925 
// 2926   if ( pRec != NULL )
        MOV       A,R2
        ORL       A,R3
        JNZ       $+5
        LJMP      ??zclFindNextAttrRec_0 & 0xFFFF
// 2927   {
// 2928     uint16 x;
// 2929 
// 2930     for ( x = 0; x < pRec->numAttributes; x++ )
        MOV       R2,#0x0
        MOV       R3,#0x0
        MOV       A,#0x10
        LCALL     ?XSTACK_DISP0_8
        MOVX      A,@DPTR
        MOV       R0,A
        INC       DPTR
        MOVX      A,@DPTR
        MOV       ?V2,R0
        MOV       ?V3,A
        SJMP      ??zclFindNextAttrRec_1
??zclFindNextAttrRec_2:
        INC       R2
        MOV       A,R2
        JNZ       ??zclFindNextAttrRec_1
        INC       R3
??zclFindNextAttrRec_1:
        MOV       DPL,?V6
        MOV       DPH,?V7
        INC       DPTR
        INC       DPTR
        INC       DPTR
        INC       DPTR
        INC       DPTR
        INC       DPTR
        INC       DPTR
        MOVX      A,@DPTR
        MOV       R0,A
        CLR       C
        MOV       A,R2
        SUBB      A,R0
        MOV       A,R3
        SUBB      A,#0x0
        JC        $+5
        LJMP      ??zclFindNextAttrRec_0 & 0xFFFF
// 2931     {
// 2932       if ( ( pRec->attrs[x].clusterID == clusterID ) &&
// 2933            ( pRec->attrs[x].attr.attrId >= *attrId ) )
        MOV       ?V4,R2
        MOV       ?V5,R3
        MOV       A,#0x3
        MOV       R0,#?V4
        LCALL     ?S_SHL
        MOV       DPL,?V6
        MOV       DPH,?V7
        INC       DPTR
        INC       DPTR
        INC       DPTR
        INC       DPTR
        INC       DPTR
        INC       DPTR
        INC       DPTR
        INC       DPTR
        MOVX      A,@DPTR
        ADD       A,?V4
        MOV       R0,A
        INC       DPTR
        MOVX      A,@DPTR
        ADDC      A,?V5
        MOV       R1,A
        MOV       A,R0
        MOV       R4,A
        MOV       A,R1
        MOV       R5,A
        MOV       DPL,R0
        MOV       DPH,A
        CLR       A
        MOVC      A,@A+DPTR
        MOV       R0,A
        MOV       A,#0x1
        MOVC      A,@A+DPTR
        MOV       R1,A
        MOV       A,R6
        XRL       A,R0
        JNZ       ??zclFindNextAttrRec_3
        MOV       A,R7
        XRL       A,R1
??zclFindNextAttrRec_3:
        JNZ       ??zclFindNextAttrRec_2
        INC       DPTR
        INC       DPTR
        CLR       A
        MOVC      A,@A+DPTR
        MOV       ?V4,A
        MOV       A,#0x1
        MOVC      A,@A+DPTR
        MOV       ?V5,A
        MOV       DPL,?V2
        MOV       DPH,?V3
        MOVX      A,@DPTR
        MOV       R0,A
        INC       DPTR
        MOVX      A,@DPTR
        MOV       R1,A
        CLR       C
        MOV       A,?V4
        SUBB      A,R0
        MOV       A,?V5
        SUBB      A,R1
        JC        ??zclFindNextAttrRec_2
// 2934       {
// 2935         // also make sure direction is right
// 2936         attrDir = (pRec->attrs[x].attr.accessControl & ACCESS_CLIENT) ? 1 : 0;
// 2937         if ( (attrDir == direction) || (pRec->attrs[x].attr.accessControl & ACCESS_GLOBAL))
        MOV       A,R4
        ADD       A,#0x5
        MOV       DPL,A
        CLR       A
        ADDC      A,R5
        MOV       DPH,A
        CLR       A
        MOVC      A,@A+DPTR
        MOV       C,0xE0 /* A   */.7
        CLR       A
        RLC       A
        XRL       A,?V1
        JZ        ??zclFindNextAttrRec_4
        CLR       A
        MOVC      A,@A+DPTR
        MOV       C,0xE0 /* A   */.6
        JC        $+5
        LJMP      ??zclFindNextAttrRec_2 & 0xFFFF
??zclFindNextAttrRec_4:
        MOV       A,#0x12
        LCALL     ?XSTACK_DISP0_8
        MOVX      A,@DPTR
        MOV       R0,A
        INC       DPTR
        MOVX      A,@DPTR
        MOV       R1,A
// 2938         {
// 2939           // return attribute and found attribute ID
// 2940           *pAttr = pRec->attrs[x];
        MOV       DPL,R4
        MOV       DPH,R5
        MOV       A,R0
        MOV       R4,A
        MOV       A,R1
        MOV       R5,A
        MOV       A,#0x8
        LCALL     ?MOVE_LONG8_XDATA_CODE
// 2941           *attrId = pAttr->attr.attrId;
        MOV       DPL,R0
        MOV       DPH,R1
        INC       DPTR
        INC       DPTR
        MOVX      A,@DPTR
        MOV       R0,A
        INC       DPTR
        MOVX      A,@DPTR
        MOV       R1,A
        MOV       DPL,?V2
        MOV       DPH,?V3
        MOV       A,R0
        MOVX      @DPTR,A
        INC       DPTR
        MOV       A,R1
        MOVX      @DPTR,A
// 2942 
// 2943           return ( TRUE ); // EMBEDDED RETURN
        MOV       R1,#0x1
        SJMP      ??zclFindNextAttrRec_5
// 2944         }
// 2945       }
// 2946     }
// 2947   }
// 2948 
// 2949   return ( FALSE );
??zclFindNextAttrRec_0:
        MOV       R1,#0x0
??zclFindNextAttrRec_5:
        MOV       R7,#0x8
        LJMP      ?BANKED_LEAVE_XDATA
// 2950 }
          CFI EndBlock cfiBlock46
// 2951 #endif // ZCL_DISCOVER
// 2952 
// 2953 /*********************************************************************
// 2954  * @fn      zclSerializeData
// 2955  *
// 2956  * @brief   Builds a buffer from the attribute data to sent out over
// 2957  *          the air.
// 2958  *          NOTE - Not compatible with application's attributes callbacks.
// 2959  *
// 2960  * @param   dataType - data types defined in zcl.h
// 2961  * @param   attrData - pointer to the attribute data
// 2962  * @param   buf - where to put the serialized data
// 2963  *
// 2964  * @return  pointer to end of destination buffer
// 2965  */

        RSEG BANKED_CODE:HUGECODE:NOROOT(0)
// 2966 uint8 *zclSerializeData( uint8 dataType, void *attrData, uint8 *buf )
zclSerializeData:
          CFI Block cfiBlock47 Using cfiCommon0
          CFI Function zclSerializeData
        CODE
// 2967 {
        FUNCALL zclSerializeData, osal_buffer_uint32
        LOCFRAME ISTACK, 0, STACK
        LOCFRAME PSTACK, 0, STACK
        LOCFRAME XSTACK, 20, STACK
        LOCFRAME IOVERLAY, 0, STATIC
        LOCFRAME DOVERLAY, 0, STATIC
        ARGFRAME ISTACK, 0, STACK
        ARGFRAME PSTACK, 0, STACK
        ARGFRAME XSTACK, 20, STACK
        ARGFRAME IOVERLAY, 0, STATIC
        ARGFRAME DOVERLAY, 0, STATIC
        FUNCALL zclSerializeData, osal_memcpy
        LOCFRAME ISTACK, 0, STACK
        LOCFRAME PSTACK, 0, STACK
        LOCFRAME XSTACK, 19, STACK
        LOCFRAME IOVERLAY, 0, STATIC
        LOCFRAME DOVERLAY, 0, STATIC
        ARGFRAME ISTACK, 0, STACK
        ARGFRAME PSTACK, 0, STACK
        ARGFRAME XSTACK, 19, STACK
        ARGFRAME IOVERLAY, 0, STATIC
        ARGFRAME DOVERLAY, 0, STATIC
        FUNCALL zclSerializeData, osal_memcpy
        LOCFRAME ISTACK, 0, STACK
        LOCFRAME PSTACK, 0, STACK
        LOCFRAME XSTACK, 19, STACK
        LOCFRAME IOVERLAY, 0, STATIC
        LOCFRAME DOVERLAY, 0, STATIC
        ARGFRAME ISTACK, 0, STACK
        ARGFRAME PSTACK, 0, STACK
        ARGFRAME XSTACK, 19, STACK
        ARGFRAME IOVERLAY, 0, STATIC
        ARGFRAME DOVERLAY, 0, STATIC
        FUNCALL zclSerializeData, osal_memcpy
        LOCFRAME ISTACK, 0, STACK
        LOCFRAME PSTACK, 0, STACK
        LOCFRAME XSTACK, 19, STACK
        LOCFRAME IOVERLAY, 0, STATIC
        LOCFRAME DOVERLAY, 0, STATIC
        ARGFRAME ISTACK, 0, STACK
        ARGFRAME PSTACK, 0, STACK
        ARGFRAME XSTACK, 19, STACK
        ARGFRAME IOVERLAY, 0, STATIC
        ARGFRAME DOVERLAY, 0, STATIC
        FUNCALL zclSerializeData, osal_memcpy
        LOCFRAME ISTACK, 0, STACK
        LOCFRAME PSTACK, 0, STACK
        LOCFRAME XSTACK, 19, STACK
        LOCFRAME IOVERLAY, 0, STATIC
        LOCFRAME DOVERLAY, 0, STATIC
        ARGFRAME ISTACK, 0, STACK
        ARGFRAME PSTACK, 0, STACK
        ARGFRAME XSTACK, 19, STACK
        ARGFRAME IOVERLAY, 0, STATIC
        ARGFRAME DOVERLAY, 0, STATIC
        FUNCALL zclSerializeData, osal_memcpy
        LOCFRAME ISTACK, 0, STACK
        LOCFRAME PSTACK, 0, STACK
        LOCFRAME XSTACK, 19, STACK
        LOCFRAME IOVERLAY, 0, STATIC
        LOCFRAME DOVERLAY, 0, STATIC
        ARGFRAME ISTACK, 0, STACK
        ARGFRAME PSTACK, 0, STACK
        ARGFRAME XSTACK, 19, STACK
        ARGFRAME IOVERLAY, 0, STATIC
        ARGFRAME DOVERLAY, 0, STATIC
        FUNCALL zclSerializeData, osal_memcpy
        LOCFRAME ISTACK, 0, STACK
        LOCFRAME PSTACK, 0, STACK
        LOCFRAME XSTACK, 19, STACK
        LOCFRAME IOVERLAY, 0, STATIC
        LOCFRAME DOVERLAY, 0, STATIC
        ARGFRAME ISTACK, 0, STACK
        ARGFRAME PSTACK, 0, STACK
        ARGFRAME XSTACK, 19, STACK
        ARGFRAME IOVERLAY, 0, STATIC
        ARGFRAME DOVERLAY, 0, STATIC
        FUNCALL zclSerializeData, osal_memcpy
        LOCFRAME ISTACK, 0, STACK
        LOCFRAME PSTACK, 0, STACK
        LOCFRAME XSTACK, 19, STACK
        LOCFRAME IOVERLAY, 0, STATIC
        LOCFRAME DOVERLAY, 0, STATIC
        ARGFRAME ISTACK, 0, STACK
        ARGFRAME PSTACK, 0, STACK
        ARGFRAME XSTACK, 19, STACK
        ARGFRAME IOVERLAY, 0, STATIC
        ARGFRAME DOVERLAY, 0, STATIC
        REQUIRE ?V0
        REQUIRE ?V2
        REQUIRE ?V3
        REQUIRE ?V4
        REQUIRE ?V5
        REQUIRE ?V6
        REQUIRE ?V7
        MOV       A,#-0x10
        LCALL     ?BANKED_ENTER_XDATA
          CFI DPH0 load(1, XDATA, add(CFA_XSP16, literal(-1)))
          CFI DPL0 load(1, XDATA, add(CFA_XSP16, literal(-2)))
          CFI ?BRET_EXT load(1, XDATA, add(CFA_XSP16, literal(-3)))
          CFI ?RET_HIGH load(1, XDATA, add(CFA_XSP16, literal(-4)))
          CFI ?RET_LOW load(1, XDATA, add(CFA_XSP16, literal(-5)))
          CFI R7 load(1, XDATA, add(CFA_XSP16, literal(-6)))
          CFI V7 load(1, XDATA, add(CFA_XSP16, literal(-7)))
          CFI V6 load(1, XDATA, add(CFA_XSP16, literal(-8)))
          CFI V5 load(1, XDATA, add(CFA_XSP16, literal(-9)))
          CFI V4 load(1, XDATA, add(CFA_XSP16, literal(-10)))
          CFI V3 load(1, XDATA, add(CFA_XSP16, literal(-11)))
          CFI V2 load(1, XDATA, add(CFA_XSP16, literal(-12)))
          CFI V1 load(1, XDATA, add(CFA_XSP16, literal(-13)))
          CFI V0 load(1, XDATA, add(CFA_XSP16, literal(-14)))
          CFI VB load(1, XDATA, add(CFA_XSP16, literal(-15)))
          CFI R6 load(1, XDATA, add(CFA_XSP16, literal(-16)))
          CFI CFA_SP SP+0
          CFI CFA_XSP16 add(XSP16, 16)
        ; Saved register size: 16
        ; Auto size: 0
        MOV       A,R2
        MOV       R6,A
        MOV       A,R3
        MOV       R7,A
        MOV       A,R4
        MOV       R2,A
        MOV       A,R5
        MOV       R3,A
// 2968   uint8 *pStr;
// 2969   uint16 len;
// 2970 
// 2971   if ( attrData == NULL )
        MOV       A,R6
        ORL       A,R7
        JNZ       $+5
        LJMP      ??zclSerializeData_0 & 0xFFFF
// 2972   {
// 2973     return ( buf );
// 2974   }
// 2975 
// 2976   switch ( dataType )
        MOV       A,R1
        LCALL     ?UC_SWITCH_SPARSE
`?<Jumptable for zclSerializeData>_0`:
        DATA
        DATA8
        DATA
        DATA8
        DATA
        DATA8
        DB        4
        DATA
        DATA8
        DATA
        DATA8
        DATA
        DATA8
        DB        65
        DATA
        DATA8
        DATA
        DATA8
        DB        66
        DATA
        DATA16
        DATA
        DATA16
        DATA
        DATA16
        DW        ??zclSerializeData_1
        DATA
        DATA8
        DATA
        DATA8
        DATA
        DATA8
        DB        67
        DATA
        DATA8
        DATA
        DATA8
        DB        68
        DATA
        DATA16
        DATA
        DATA16
        DATA
        DATA16
        DW        ??zclSerializeData_2
        DATA
        DATA8
        DATA
        DATA8
        DATA
        DATA8
        DB        224
        DATA
        DATA8
        DATA
        DATA8
        DB        226
        DATA
        DATA16
        DATA
        DATA16
        DATA
        DATA16
        DW        ??zclSerializeData_3
        DATA
        DATA8
        DATA
        DATA8
        DATA
        DATA8
        DB        232
        DATA
        DATA8
        DATA
        DATA8
        DB        233
        DATA
        DATA16
        DATA
        DATA16
        DATA
        DATA16
        DW        ??zclSerializeData_4
        DATA
        DATA8
        DATA
        DATA8
        DATA
        DATA8
        DB        37
        DATA
        DATA8
        DATA
        DATA8
        DATA
        DATA8
        DB        8
        DATA
        DATA16
        DATA
        DATA16
        DATA
        DATA16
        DW        ??zclSerializeData_5
        DATA
        DATA8
        DATA
        DATA8
        DATA
        DATA8
        DB        9
        DATA
        DATA16
        DATA
        DATA16
        DATA
        DATA16
        DW        ??zclSerializeData_4
        DATA
        DATA8
        DATA
        DATA8
        DATA
        DATA8
        DB        10
        DATA
        DATA16
        DATA
        DATA16
        DATA
        DATA16
        DW        ??zclSerializeData_6
        DATA
        DATA8
        DATA
        DATA8
        DATA
        DATA8
        DB        11
        DATA
        DATA16
        DATA
        DATA16
        DATA
        DATA16
        DW        ??zclSerializeData_3
        DATA
        DATA8
        DATA
        DATA8
        DATA
        DATA8
        DB        16
        DATA
        DATA16
        DATA
        DATA16
        DATA
        DATA16
        DW        ??zclSerializeData_5
        DATA
        DATA8
        DATA
        DATA8
        DATA
        DATA8
        DB        24
        DATA
        DATA16
        DATA
        DATA16
        DATA
        DATA16
        DW        ??zclSerializeData_5
        DATA
        DATA8
        DATA
        DATA8
        DATA
        DATA8
        DB        25
        DATA
        DATA16
        DATA
        DATA16
        DATA
        DATA16
        DW        ??zclSerializeData_4
        DATA
        DATA8
        DATA
        DATA8
        DATA
        DATA8
        DB        26
        DATA
        DATA16
        DATA
        DATA16
        DATA
        DATA16
        DW        ??zclSerializeData_6
        DATA
        DATA8
        DATA
        DATA8
        DATA
        DATA8
        DB        27
        DATA
        DATA16
        DATA
        DATA16
        DATA
        DATA16
        DW        ??zclSerializeData_3
        DATA
        DATA8
        DATA
        DATA8
        DATA
        DATA8
        DB        28
        DATA
        DATA16
        DATA
        DATA16
        DATA
        DATA16
        DW        ??zclSerializeData_7
        DATA
        DATA8
        DATA
        DATA8
        DATA
        DATA8
        DB        29
        DATA
        DATA16
        DATA
        DATA16
        DATA
        DATA16
        DW        ??zclSerializeData_8
        DATA
        DATA8
        DATA
        DATA8
        DATA
        DATA8
        DB        30
        DATA
        DATA16
        DATA
        DATA16
        DATA
        DATA16
        DW        ??zclSerializeData_9
        DATA
        DATA8
        DATA
        DATA8
        DATA
        DATA8
        DB        31
        DATA
        DATA16
        DATA
        DATA16
        DATA
        DATA16
        DW        ??zclSerializeData_10
        DATA
        DATA8
        DATA
        DATA8
        DATA
        DATA8
        DB        32
        DATA
        DATA16
        DATA
        DATA16
        DATA
        DATA16
        DW        ??zclSerializeData_5
        DATA
        DATA8
        DATA
        DATA8
        DATA
        DATA8
        DB        33
        DATA
        DATA16
        DATA
        DATA16
        DATA
        DATA16
        DW        ??zclSerializeData_4
        DATA
        DATA8
        DATA
        DATA8
        DATA
        DATA8
        DB        34
        DATA
        DATA16
        DATA
        DATA16
        DATA
        DATA16
        DW        ??zclSerializeData_6
        DATA
        DATA8
        DATA
        DATA8
        DATA
        DATA8
        DB        35
        DATA
        DATA16
        DATA
        DATA16
        DATA
        DATA16
        DW        ??zclSerializeData_3
        DATA
        DATA8
        DATA
        DATA8
        DATA
        DATA8
        DB        36
        DATA
        DATA16
        DATA
        DATA16
        DATA
        DATA16
        DW        ??zclSerializeData_7
        DATA
        DATA8
        DATA
        DATA8
        DATA
        DATA8
        DB        37
        DATA
        DATA16
        DATA
        DATA16
        DATA
        DATA16
        DW        ??zclSerializeData_8
        DATA
        DATA8
        DATA
        DATA8
        DATA
        DATA8
        DB        38
        DATA
        DATA16
        DATA
        DATA16
        DATA
        DATA16
        DW        ??zclSerializeData_9
        DATA
        DATA8
        DATA
        DATA8
        DATA
        DATA8
        DB        39
        DATA
        DATA16
        DATA
        DATA16
        DATA
        DATA16
        DW        ??zclSerializeData_10
        DATA
        DATA8
        DATA
        DATA8
        DATA
        DATA8
        DB        40
        DATA
        DATA16
        DATA
        DATA16
        DATA
        DATA16
        DW        ??zclSerializeData_5
        DATA
        DATA8
        DATA
        DATA8
        DATA
        DATA8
        DB        41
        DATA
        DATA16
        DATA
        DATA16
        DATA
        DATA16
        DW        ??zclSerializeData_4
        DATA
        DATA8
        DATA
        DATA8
        DATA
        DATA8
        DB        42
        DATA
        DATA16
        DATA
        DATA16
        DATA
        DATA16
        DW        ??zclSerializeData_6
        DATA
        DATA8
        DATA
        DATA8
        DATA
        DATA8
        DB        43
        DATA
        DATA16
        DATA
        DATA16
        DATA
        DATA16
        DW        ??zclSerializeData_3
        DATA
        DATA8
        DATA
        DATA8
        DATA
        DATA8
        DB        44
        DATA
        DATA16
        DATA
        DATA16
        DATA
        DATA16
        DW        ??zclSerializeData_7
        DATA
        DATA8
        DATA
        DATA8
        DATA
        DATA8
        DB        45
        DATA
        DATA16
        DATA
        DATA16
        DATA
        DATA16
        DW        ??zclSerializeData_8
        DATA
        DATA8
        DATA
        DATA8
        DATA
        DATA8
        DB        46
        DATA
        DATA16
        DATA
        DATA16
        DATA
        DATA16
        DW        ??zclSerializeData_9
        DATA
        DATA8
        DATA
        DATA8
        DATA
        DATA8
        DB        47
        DATA
        DATA16
        DATA
        DATA16
        DATA
        DATA16
        DW        ??zclSerializeData_10
        DATA
        DATA8
        DATA
        DATA8
        DATA
        DATA8
        DB        48
        DATA
        DATA16
        DATA
        DATA16
        DATA
        DATA16
        DW        ??zclSerializeData_5
        DATA
        DATA8
        DATA
        DATA8
        DATA
        DATA8
        DB        49
        DATA
        DATA16
        DATA
        DATA16
        DATA
        DATA16
        DW        ??zclSerializeData_4
        DATA
        DATA8
        DATA
        DATA8
        DATA
        DATA8
        DB        56
        DATA
        DATA16
        DATA
        DATA16
        DATA
        DATA16
        DW        ??zclSerializeData_4
        DATA
        DATA8
        DATA
        DATA8
        DATA
        DATA8
        DB        57
        DATA
        DATA16
        DATA
        DATA16
        DATA
        DATA16
        DW        ??zclSerializeData_3
        DATA
        DATA8
        DATA
        DATA8
        DATA
        DATA8
        DB        58
        DATA
        DATA16
        DATA
        DATA16
        DATA
        DATA16
        DW        ??zclSerializeData_10
        DATA
        DATA8
        DATA
        DATA8
        DATA
        DATA8
        DB        234
        DATA
        DATA16
        DATA
        DATA16
        DATA
        DATA16
        DW        ??zclSerializeData_3
        DATA
        DATA8
        DATA
        DATA8
        DATA
        DATA8
        DB        240
        DATA
        DATA16
        DATA
        DATA16
        DATA
        DATA16
        DW        ??zclSerializeData_10
        DATA
        DATA8
        DATA
        DATA8
        DATA
        DATA8
        DB        241
        DATA
        DATA16
        DATA
        DATA16
        DATA
        DATA16
        DW        ??zclSerializeData_11
        DATA
        DATA16
        DATA
        DATA16
        DW        ??zclSerializeData_0
        CODE
// 2977   {
// 2978     case ZCL_DATATYPE_DATA8:
// 2979     case ZCL_DATATYPE_BOOLEAN:
// 2980     case ZCL_DATATYPE_BITMAP8:
// 2981     case ZCL_DATATYPE_INT8:
// 2982     case ZCL_DATATYPE_UINT8:
// 2983     case ZCL_DATATYPE_ENUM8:
// 2984       *buf++ = *((uint8 *)attrData);
??zclSerializeData_5:
        MOV       DPL,R6
        MOV       DPH,R7
        MOVX      A,@DPTR
        MOV       DPL,R4
        MOV       DPH,R5
        MOVX      @DPTR,A
        INC       DPTR
        MOV       R2,DPL
        MOV       R3,DPH
// 2985        break;
        LJMP      ??zclSerializeData_0 & 0xFFFF
// 2986 
// 2987     case ZCL_DATATYPE_DATA16:
// 2988     case ZCL_DATATYPE_BITMAP16:
// 2989     case ZCL_DATATYPE_UINT16:
// 2990     case ZCL_DATATYPE_INT16:
// 2991     case ZCL_DATATYPE_ENUM16:
// 2992     case ZCL_DATATYPE_SEMI_PREC:
// 2993     case ZCL_DATATYPE_CLUSTER_ID:
// 2994     case ZCL_DATATYPE_ATTR_ID:
// 2995       *buf++ = LO_UINT16( *((uint16*)attrData) );
??zclSerializeData_4:
        MOV       DPL,R6
        MOV       DPH,R7
        MOVX      A,@DPTR
        MOV       DPL,R4
        MOV       DPH,R5
        MOVX      @DPTR,A
// 2996       *buf++ = HI_UINT16( *((uint16*)attrData) );
        MOV       DPL,R6
        MOV       DPH,R7
        INC       DPTR
        MOVX      A,@DPTR
        MOV       DPL,R4
        MOV       DPH,R5
        INC       DPTR
        MOVX      @DPTR,A
        MOV       A,R4
        ADD       A,#0x2
        MOV       R2,A
        JNC       ??zclSerializeData_12
        INC       R3
// 2997       break;
??zclSerializeData_12:
        LJMP      ??zclSerializeData_0 & 0xFFFF
// 2998 
// 2999     case ZCL_DATATYPE_DATA24:
// 3000     case ZCL_DATATYPE_BITMAP24:
// 3001     case ZCL_DATATYPE_UINT24:
// 3002     case ZCL_DATATYPE_INT24:
// 3003       *buf++ = BREAK_UINT32( *((uint32*)attrData), 0 );
??zclSerializeData_6:
        MOV       DPL,R6
        MOV       DPH,R7
        MOV       R0,#?V4
        LCALL     ?L_MOV_X
        MOV       DPL,R4
        MOV       DPH,R5
        MOV       A,?V4
        MOVX      @DPTR,A
// 3004       *buf++ = BREAK_UINT32( *((uint32*)attrData), 1 );
        MOV       DPL,R6
        MOV       DPH,R7
        MOV       R0,#?V4
        LCALL     ?L_MOV_X
        MOV       A,?V5
        MOV       DPL,R4
        MOV       DPH,R5
        INC       DPTR
        MOVX      @DPTR,A
// 3005       *buf++ = BREAK_UINT32( *((uint32*)attrData), 2 );
        MOV       DPL,R6
        MOV       DPH,R7
        MOV       R0,#?V4
        LCALL     ?L_MOV_X
        MOV       A,#0x10
        MOV       R0,#?V4
        LCALL     ?UL_SHR
        MOV       DPL,R4
        MOV       DPH,R5
        INC       DPTR
        INC       DPTR
        MOV       A,?V4
        MOVX      @DPTR,A
        MOV       A,R4
        ADD       A,#0x3
        MOV       R2,A
        JNC       ??zclSerializeData_13
        INC       R3
// 3006       break;
??zclSerializeData_13:
        LJMP      ??zclSerializeData_0 & 0xFFFF
// 3007 
// 3008     case ZCL_DATATYPE_DATA32:
// 3009     case ZCL_DATATYPE_BITMAP32:
// 3010     case ZCL_DATATYPE_UINT32:
// 3011     case ZCL_DATATYPE_INT32:
// 3012     case ZCL_DATATYPE_SINGLE_PREC:
// 3013     case ZCL_DATATYPE_TOD:
// 3014     case ZCL_DATATYPE_DATE:
// 3015     case ZCL_DATATYPE_UTC:
// 3016     case ZCL_DATATYPE_BAC_OID:
// 3017       buf = zcl_buffer_uint32( buf, *((uint32*)attrData) );
??zclSerializeData_3:
        ; Setup parameters for call to function osal_buffer_uint32
        MOV       DPL,R6
        MOV       DPH,R7
        LCALL     ?PUSH_XSTACK8_X_FOUR
          CFI CFA_XSP16 add(XSP16, 20)
        LCALL     `??osal_buffer_uint32::?relay`; Banked call to: osal_buffer_uint32
        MOV       A,#0x4
        LCALL     ?DEALLOC_XSTACK8
          CFI CFA_XSP16 add(XSP16, 16)
// 3018       break;
        LJMP      ??zclSerializeData_0 & 0xFFFF
// 3019 
// 3020     case ZCL_DATATYPE_BITMAP40:
// 3021     case ZCL_DATATYPE_UINT40:
// 3022     case ZCL_DATATYPE_INT40:
// 3023       pStr = (uint8*)attrData;
// 3024       buf = zcl_memcpy( buf, pStr, 5 );
??zclSerializeData_7:
        ; Setup parameters for call to function osal_memcpy
        MOV       ?V4,R6
        MOV       ?V5,R7
        MOV       ?V6,#0x0
        MOV       R0,#?V4
        LCALL     ?PUSH_XSTACK_I_THREE
          CFI CFA_XSP16 add(XSP16, 19)
        MOV       R4,#0x5
        SJMP      ??zclSerializeData_14
          CFI CFA_XSP16 add(XSP16, 16)
// 3025       break;
// 3026 
// 3027     case ZCL_DATATYPE_BITMAP48:
// 3028     case ZCL_DATATYPE_UINT48:
// 3029     case ZCL_DATATYPE_INT48:
// 3030       pStr = (uint8*)attrData;
// 3031       buf = zcl_memcpy( buf, pStr, 6 );
??zclSerializeData_8:
        ; Setup parameters for call to function osal_memcpy
        MOV       ?V4,R6
        MOV       ?V5,R7
        MOV       ?V6,#0x0
        MOV       R0,#?V4
        LCALL     ?PUSH_XSTACK_I_THREE
          CFI CFA_XSP16 add(XSP16, 19)
        MOV       R4,#0x6
        SJMP      ??zclSerializeData_14
          CFI CFA_XSP16 add(XSP16, 16)
// 3032       break;
// 3033 
// 3034     case ZCL_DATATYPE_BITMAP56:
// 3035     case ZCL_DATATYPE_UINT56:
// 3036     case ZCL_DATATYPE_INT56:
// 3037       pStr = (uint8*)attrData;
// 3038       buf = zcl_memcpy( buf, pStr, 7 );
??zclSerializeData_9:
        ; Setup parameters for call to function osal_memcpy
        MOV       ?V4,R6
        MOV       ?V5,R7
        MOV       ?V6,#0x0
        MOV       R0,#?V4
        LCALL     ?PUSH_XSTACK_I_THREE
          CFI CFA_XSP16 add(XSP16, 19)
        MOV       R4,#0x7
        SJMP      ??zclSerializeData_14
          CFI CFA_XSP16 add(XSP16, 16)
// 3039       break;
// 3040 
// 3041     case ZCL_DATATYPE_BITMAP64:
// 3042     case ZCL_DATATYPE_DOUBLE_PREC:
// 3043     case ZCL_DATATYPE_IEEE_ADDR:
// 3044     case ZCL_DATATYPE_UINT64:
// 3045     case ZCL_DATATYPE_INT64:
// 3046       pStr = (uint8*)attrData;
// 3047       buf = zcl_memcpy( buf, pStr, 8 );
??zclSerializeData_10:
        ; Setup parameters for call to function osal_memcpy
        MOV       ?V4,R6
        MOV       ?V5,R7
        MOV       ?V6,#0x0
        MOV       R0,#?V4
        LCALL     ?PUSH_XSTACK_I_THREE
          CFI CFA_XSP16 add(XSP16, 19)
        MOV       R4,#0x8
        SJMP      ??zclSerializeData_14
          CFI CFA_XSP16 add(XSP16, 16)
// 3048       break;
// 3049 
// 3050     case ZCL_DATATYPE_CHAR_STR:
// 3051     case ZCL_DATATYPE_OCTET_STR:
// 3052       pStr = (uint8*)attrData;
// 3053       len = *pStr;
// 3054       buf = zcl_memcpy( buf, pStr, len+1 ); // Including length field
??zclSerializeData_1:
        ; Setup parameters for call to function osal_memcpy
        MOV       ?V4,R6
        MOV       ?V5,R7
        MOV       ?V6,#0x0
        MOV       R0,#?V4
        LCALL     ?PUSH_XSTACK_I_THREE
          CFI CFA_XSP16 add(XSP16, 19)
        MOV       DPL,R6
        MOV       DPH,R7
        MOVX      A,@DPTR
        ADD       A,#0x1
        MOV       R4,A
        CLR       A
        ADDC      A,#0x0
        SJMP      ??zclSerializeData_15
          CFI CFA_XSP16 add(XSP16, 16)
// 3055       break;
// 3056 
// 3057     case ZCL_DATATYPE_LONG_CHAR_STR:
// 3058     case ZCL_DATATYPE_LONG_OCTET_STR:
// 3059       pStr = (uint8*)attrData;
// 3060       len = BUILD_UINT16( pStr[0], pStr[1] );
// 3061       buf = zcl_memcpy( buf, pStr, len+2 ); // Including length field
??zclSerializeData_2:
        ; Setup parameters for call to function osal_memcpy
        MOV       ?V4,R6
        MOV       ?V5,R7
        MOV       ?V6,#0x0
        MOV       R0,#?V4
        LCALL     ?PUSH_XSTACK_I_THREE
          CFI CFA_XSP16 add(XSP16, 19)
        MOV       DPL,R6
        MOV       DPH,R7
        MOVX      A,@DPTR
        MOV       R4,A
        INC       DPTR
        MOVX      A,@DPTR
        MOV       R1,A
        MOV       A,R4
        ADD       A,#0x2
        MOV       R4,A
        CLR       A
        ADDC      A,R1
??zclSerializeData_15:
        MOV       R5,A
        SJMP      ??zclSerializeData_16
          CFI CFA_XSP16 add(XSP16, 16)
// 3062       break;
// 3063 
// 3064     case ZCL_DATATYPE_128_BIT_SEC_KEY:
// 3065       pStr = (uint8*)attrData;
// 3066       buf = zcl_memcpy( buf, pStr, SEC_KEY_LEN );
??zclSerializeData_11:
        ; Setup parameters for call to function osal_memcpy
        MOV       ?V4,R6
        MOV       ?V5,R7
        MOV       ?V6,#0x0
        MOV       R0,#?V4
        LCALL     ?PUSH_XSTACK_I_THREE
          CFI CFA_XSP16 add(XSP16, 19)
        MOV       R4,#0x10
??zclSerializeData_14:
        MOV       R5,#0x0
??zclSerializeData_16:
        LCALL     `??osal_memcpy::?relay`; Banked call to: osal_memcpy
        MOV       A,#0x3
        LCALL     ?DEALLOC_XSTACK8
          CFI CFA_XSP16 add(XSP16, 16)
// 3067       break;
// 3068 
// 3069     case ZCL_DATATYPE_NO_DATA:
// 3070     case ZCL_DATATYPE_UNKNOWN:
// 3071       // Fall through
// 3072 
// 3073     default:
// 3074       break;
// 3075   }
// 3076 
// 3077   return ( buf );
??zclSerializeData_0:
        MOV       R7,#0x8
        LJMP      ?BANKED_LEAVE_XDATA
// 3078 }
          CFI EndBlock cfiBlock47
// 3079 
// 3080 #if defined ZCL_REPORTING_DEVICE || defined ZCL_REPORT_CONFIGURING_DEVICE
// 3081 /*********************************************************************
// 3082  * @fn      zclAnalogDataType
// 3083  *
// 3084  * @brief   Checks to see if Data Type is Analog
// 3085  *
// 3086  * @param   dataType - data type
// 3087  *
// 3088  * @return  TRUE if data type is analog
// 3089  */

        RSEG BANKED_CODE:HUGECODE:NOROOT(0)
// 3090 uint8 zclAnalogDataType( uint8 dataType )
zclAnalogDataType:
          CFI Block cfiBlock48 Using cfiCommon0
          CFI Function zclAnalogDataType
        CODE
// 3091 {
        PUSH      DPL
          CFI DPL0 Frame(CFA_SP, 4)
          CFI CFA_SP SP+-4
        PUSH      DPH
          CFI DPH0 Frame(CFA_SP, 5)
          CFI CFA_SP SP+-5
        ; Saved register size: 2
        ; Auto size: 0
        MOV       A,R1
// 3092   uint8 analog;
// 3093 
// 3094   switch ( dataType )
        LCALL     ?UC_SWITCH_SPARSE
`?<Jumptable for zclAnalogDataType>_0`:
        DATA
        DATA8
        DATA
        DATA8
        DATA
        DATA8
        DB        3
        DATA
        DATA8
        DATA
        DATA8
        DATA
        DATA8
        DB        32
        DATA
        DATA8
        DATA
        DATA8
        DB        47
        DATA
        DATA16
        DATA
        DATA16
        DATA
        DATA16
        DW        ??zclAnalogDataType_0
        DATA
        DATA8
        DATA
        DATA8
        DATA
        DATA8
        DB        56
        DATA
        DATA8
        DATA
        DATA8
        DB        58
        DATA
        DATA16
        DATA
        DATA16
        DATA
        DATA16
        DW        ??zclAnalogDataType_0
        DATA
        DATA8
        DATA
        DATA8
        DATA
        DATA8
        DB        224
        DATA
        DATA8
        DATA
        DATA8
        DB        226
        DATA
        DATA16
        DATA
        DATA16
        DATA
        DATA16
        DW        ??zclAnalogDataType_0
        DATA
        DATA8
        DATA
        DATA8
        DATA
        DATA8
        DB        0
        DATA
        DATA16
        DATA
        DATA16
        DW        ??zclAnalogDataType_1
        CODE
// 3095   {
// 3096     case ZCL_DATATYPE_UINT8:
// 3097     case ZCL_DATATYPE_UINT16:
// 3098     case ZCL_DATATYPE_UINT24:
// 3099     case ZCL_DATATYPE_UINT32:
// 3100     case ZCL_DATATYPE_UINT40:
// 3101     case ZCL_DATATYPE_UINT48:
// 3102     case ZCL_DATATYPE_UINT56:
// 3103     case ZCL_DATATYPE_UINT64:
// 3104     case ZCL_DATATYPE_INT8:
// 3105     case ZCL_DATATYPE_INT16:
// 3106     case ZCL_DATATYPE_INT24:
// 3107     case ZCL_DATATYPE_INT32:
// 3108     case ZCL_DATATYPE_INT40:
// 3109     case ZCL_DATATYPE_INT48:
// 3110     case ZCL_DATATYPE_INT56:
// 3111     case ZCL_DATATYPE_INT64:
// 3112     case ZCL_DATATYPE_SEMI_PREC:
// 3113     case ZCL_DATATYPE_SINGLE_PREC:
// 3114     case ZCL_DATATYPE_DOUBLE_PREC:
// 3115     case ZCL_DATATYPE_TOD:
// 3116     case ZCL_DATATYPE_DATE:
// 3117     case ZCL_DATATYPE_UTC:
// 3118       analog = TRUE;
??zclAnalogDataType_0:
        MOV       R1,#0x1
// 3119       break;
        SJMP      ??zclAnalogDataType_2
// 3120 
// 3121     default:
// 3122       analog = FALSE;
??zclAnalogDataType_1:
        MOV       R1,#0x0
// 3123       break;
// 3124   }
// 3125 
// 3126   return ( analog );
??zclAnalogDataType_2:
        POP       DPH
          CFI DPH0 SameValue
          CFI CFA_SP SP+-4
        POP       DPL
          CFI DPL0 SameValue
          CFI CFA_SP SP+-3
        LJMP      ?BRET
// 3127 }
          CFI EndBlock cfiBlock48
// 3128 
// 3129 /*********************************************************************
// 3130  * @fn      zclIsLittleEndianMachine
// 3131  *
// 3132  * @brief   Verifies endianness in system.
// 3133  *
// 3134  * @param   none
// 3135  *
// 3136  * @return  MSB-00 or LSB-01 depending on endianness in the system
// 3137  */

        RSEG BANKED_CODE:HUGECODE:NOROOT(0)
// 3138 static int zclIsLittleEndianMachine(void)
zclIsLittleEndianMachine:
          CFI Block cfiBlock49 Using cfiCommon0
          CFI Function zclIsLittleEndianMachine
        CODE
// 3139 {
        PUSH      DPL
          CFI DPL0 Frame(CFA_SP, 4)
          CFI CFA_SP SP+-4
        PUSH      DPH
          CFI DPH0 Frame(CFA_SP, 5)
          CFI CFA_SP SP+-5
        ; Saved register size: 2
        ; Auto size: 2
        MOV       A,#-0x2
        LCALL     ?ALLOC_XSTACK8
          CFI CFA_XSP16 add(XSP16, 2)
// 3140   uint16 test = 0x0001;
        MOV       DPL,?XSP + 0
        MOV       DPH,?XSP + 1
        MOV       A,#0x1
        MOVX      @DPTR,A
        INC       DPTR
        CLR       A
        MOVX      @DPTR,A
// 3141 
// 3142   return (*((uint8 *)(&test)));
        MOV       DPL,?XSP + 0
        MOV       DPH,?XSP + 1
        MOVX      A,@DPTR
        MOV       R2,A
        MOV       R3,#0x0
        MOV       A,#0x2
        LCALL     ?DEALLOC_XSTACK8
          CFI CFA_XSP16 XSP16+0
        POP       DPH
          CFI DPH0 SameValue
          CFI CFA_SP SP+-4
        POP       DPL
          CFI DPL0 SameValue
          CFI CFA_SP SP+-3
        LJMP      ?BRET
// 3143 }
          CFI EndBlock cfiBlock49
// 3144 
// 3145 /*********************************************************************
// 3146  * @fn      zcl_BuildAnalogData
// 3147  *
// 3148  * @brief   Build an analog arribute out of sequential bytes.
// 3149  *
// 3150  * @param   dataType - type of data
// 3151  * @param   pData - pointer to data
// 3152  * @param   pBuf - where to put the data
// 3153  *
// 3154  * @return  none
// 3155  */

        RSEG BANKED_CODE:HUGECODE:NOROOT(0)
// 3156 static void zcl_BuildAnalogData( uint8 dataType, uint8 *pData, uint8 *pBuf )
zcl_BuildAnalogData:
          CFI Block cfiBlock50 Using cfiCommon0
          CFI Function zcl_BuildAnalogData
        CODE
// 3157 {
        FUNCALL zcl_BuildAnalogData, zclGetAttrDataLength
        LOCFRAME ISTACK, 0, STACK
        LOCFRAME PSTACK, 0, STACK
        LOCFRAME XSTACK, 16, STACK
        LOCFRAME IOVERLAY, 0, STATIC
        LOCFRAME DOVERLAY, 0, STATIC
        ARGFRAME ISTACK, 0, STACK
        ARGFRAME PSTACK, 0, STACK
        ARGFRAME XSTACK, 16, STACK
        ARGFRAME IOVERLAY, 0, STATIC
        ARGFRAME DOVERLAY, 0, STATIC
        FUNCALL zcl_BuildAnalogData, zclIsLittleEndianMachine
        LOCFRAME ISTACK, 0, STACK
        LOCFRAME PSTACK, 0, STACK
        LOCFRAME XSTACK, 16, STACK
        LOCFRAME IOVERLAY, 0, STATIC
        LOCFRAME DOVERLAY, 0, STATIC
        ARGFRAME ISTACK, 0, STACK
        ARGFRAME PSTACK, 0, STACK
        ARGFRAME XSTACK, 16, STACK
        ARGFRAME IOVERLAY, 0, STATIC
        ARGFRAME DOVERLAY, 0, STATIC
        REQUIRE ?V0
        REQUIRE ?V1
        REQUIRE ?V2
        REQUIRE ?V3
        REQUIRE ?V4
        REQUIRE ?V6
        REQUIRE ?V7
        MOV       A,#-0x10
        LCALL     ?BANKED_ENTER_XDATA
          CFI DPH0 load(1, XDATA, add(CFA_XSP16, literal(-1)))
          CFI DPL0 load(1, XDATA, add(CFA_XSP16, literal(-2)))
          CFI ?BRET_EXT load(1, XDATA, add(CFA_XSP16, literal(-3)))
          CFI ?RET_HIGH load(1, XDATA, add(CFA_XSP16, literal(-4)))
          CFI ?RET_LOW load(1, XDATA, add(CFA_XSP16, literal(-5)))
          CFI R7 load(1, XDATA, add(CFA_XSP16, literal(-6)))
          CFI V7 load(1, XDATA, add(CFA_XSP16, literal(-7)))
          CFI V6 load(1, XDATA, add(CFA_XSP16, literal(-8)))
          CFI V5 load(1, XDATA, add(CFA_XSP16, literal(-9)))
          CFI V4 load(1, XDATA, add(CFA_XSP16, literal(-10)))
          CFI V3 load(1, XDATA, add(CFA_XSP16, literal(-11)))
          CFI V2 load(1, XDATA, add(CFA_XSP16, literal(-12)))
          CFI V1 load(1, XDATA, add(CFA_XSP16, literal(-13)))
          CFI V0 load(1, XDATA, add(CFA_XSP16, literal(-14)))
          CFI VB load(1, XDATA, add(CFA_XSP16, literal(-15)))
          CFI R6 load(1, XDATA, add(CFA_XSP16, literal(-16)))
          CFI CFA_SP SP+0
          CFI CFA_XSP16 add(XSP16, 16)
        ; Saved register size: 16
        ; Auto size: 0
        MOV       A,R2
        MOV       R6,A
        MOV       A,R3
        MOV       R7,A
        MOV       ?V0,R4
        MOV       ?V1,R5
// 3158   int current_byte_index;
// 3159   int remaining_bytes;
// 3160   int step;
// 3161 
// 3162   remaining_bytes = zclGetAttrDataLength(dataType, pData);
        ; Setup parameters for call to function zclGetAttrDataLength
        LCALL     `??zclGetAttrDataLength::?relay`; Banked call to: zclGetAttrDataLength
        MOV       ?V2,R2
        MOV       ?V3,R3
// 3163 
// 3164   // decide if move forward or backwards to copy data
// 3165   if ( zclIsLittleEndianMachine() )
        ; Setup parameters for call to function zclIsLittleEndianMachine
        LCALL     `??zclIsLittleEndianMachine::?relay`; Banked call to: zclIsLittleEndianMachine
        MOV       A,R2
        ORL       A,R3
        JZ        ??zcl_BuildAnalogData_0
// 3166   {
// 3167     step = 1;
        MOV       R4,#0x1
        MOV       R5,#0x0
// 3168     current_byte_index = 0;
        MOV       R0,#0x0
        MOV       R1,#0x0
        SJMP      ??zcl_BuildAnalogData_1
// 3169   }
// 3170   else
// 3171   {
// 3172     step = -1;
??zcl_BuildAnalogData_0:
        MOV       R4,#-0x1
        MOV       R5,#-0x1
// 3173     current_byte_index = remaining_bytes - 1;
        MOV       A,?V2
        ADD       A,R4
        MOV       R0,A
        MOV       A,?V3
        ADDC      A,#-0x1
        SJMP      ??zcl_BuildAnalogData_2
// 3174   }
// 3175 
// 3176   while ( remaining_bytes-- )
// 3177   {
// 3178     pData[current_byte_index] = *(pBuf++);
??zcl_BuildAnalogData_3:
        MOV       DPL,?V0
        MOV       DPH,?V1
        MOVX      A,@DPTR
        PUSH      A
          CFI CFA_SP SP+-1
        MOV       A,R6
        ADD       A,R0
        MOV       DPL,A
        MOV       A,R7
        ADDC      A,R1
        MOV       DPH,A
        POP       A
          CFI CFA_SP SP+0
        MOVX      @DPTR,A
        MOV       DPL,?V0
        MOV       DPH,?V1
        INC       DPTR
        MOV       ?V0,DPL
        MOV       ?V1,DPH
// 3179     current_byte_index += step;
        MOV       A,R0
        ADD       A,R4
        MOV       R0,A
        MOV       A,R1
        ADDC      A,R5
??zcl_BuildAnalogData_2:
        MOV       R1,A
// 3180   }
??zcl_BuildAnalogData_1:
        MOV       R2,?V2
        MOV       R3,?V3
        MOV       A,R2
        ADD       A,#-0x1
        MOV       ?V2,A
        MOV       A,R3
        ADDC      A,#-0x1
        MOV       ?V3,A
        MOV       A,R2
        ORL       A,R3
        JNZ       ??zcl_BuildAnalogData_3
// 3181 }
        MOV       R7,#0x8
        LJMP      ?BANKED_LEAVE_XDATA
          CFI EndBlock cfiBlock50
// 3182 #endif
// 3183 
// 3184 /*********************************************************************
// 3185  * @fn      zclGetDataTypeLength
// 3186  *
// 3187  * @brief   Return the length of the datatype in octet.
// 3188  *
// 3189  *          NOTE: Should not be called for ZCL_DATATYPE_OCTECT_STR or
// 3190  *                ZCL_DATATYPE_CHAR_STR data types.
// 3191  *
// 3192  * @param   dataType - data type
// 3193  *
// 3194  * @return  length of data
// 3195  */

        RSEG BANKED_CODE:HUGECODE:NOROOT(0)
// 3196 uint8 zclGetDataTypeLength( uint8 dataType )
zclGetDataTypeLength:
          CFI Block cfiBlock51 Using cfiCommon0
          CFI Function zclGetDataTypeLength
        CODE
// 3197 {
        ; Saved register size: 0
        ; Auto size: 0
        MOV       A,R1
// 3198   uint8 len;
// 3199 
// 3200   switch ( dataType )
        ADD       A,#-0x8
        JZ        ??zclGetDataTypeLength_0
        DEC       A
        JZ        ??zclGetDataTypeLength_1
        DEC       A
        JZ        ??zclGetDataTypeLength_2
        DEC       A
        JZ        ??zclGetDataTypeLength_3
        ADD       A,#-0x5
        JZ        ??zclGetDataTypeLength_0
        ADD       A,#-0x8
        JZ        ??zclGetDataTypeLength_0
        DEC       A
        JZ        ??zclGetDataTypeLength_1
        DEC       A
        JZ        ??zclGetDataTypeLength_2
        DEC       A
        JZ        ??zclGetDataTypeLength_3
        ADD       A,#-0x5
        JZ        ??zclGetDataTypeLength_0
        DEC       A
        JZ        ??zclGetDataTypeLength_1
        DEC       A
        JZ        ??zclGetDataTypeLength_2
        DEC       A
        JZ        ??zclGetDataTypeLength_3
        DEC       A
        JZ        ??zclGetDataTypeLength_4
        DEC       A
        JZ        ??zclGetDataTypeLength_5
        DEC       A
        JZ        ??zclGetDataTypeLength_6
        DEC       A
        JZ        ??zclGetDataTypeLength_7
        DEC       A
        JZ        ??zclGetDataTypeLength_0
        DEC       A
        JZ        ??zclGetDataTypeLength_1
        DEC       A
        JZ        ??zclGetDataTypeLength_2
        DEC       A
        JZ        ??zclGetDataTypeLength_3
        DEC       A
        JZ        ??zclGetDataTypeLength_4
        DEC       A
        JZ        ??zclGetDataTypeLength_5
        DEC       A
        JZ        ??zclGetDataTypeLength_6
        DEC       A
        JZ        ??zclGetDataTypeLength_7
        DEC       A
        JZ        ??zclGetDataTypeLength_0
        DEC       A
        JZ        ??zclGetDataTypeLength_1
        ADD       A,#-0x7
        JZ        ??zclGetDataTypeLength_1
        DEC       A
        JZ        ??zclGetDataTypeLength_3
        DEC       A
        JZ        ??zclGetDataTypeLength_7
        ADD       A,#0x5a
        JZ        ??zclGetDataTypeLength_3
        DEC       A
        JZ        ??zclGetDataTypeLength_3
        DEC       A
        JZ        ??zclGetDataTypeLength_3
        ADD       A,#-0x6
        JZ        ??zclGetDataTypeLength_1
        DEC       A
        JZ        ??zclGetDataTypeLength_1
        DEC       A
        JZ        ??zclGetDataTypeLength_3
        ADD       A,#-0x6
        JZ        ??zclGetDataTypeLength_7
        DEC       A
        JZ        ??zclGetDataTypeLength_8
        SJMP      ??zclGetDataTypeLength_9
// 3201   {
// 3202     case ZCL_DATATYPE_DATA8:
// 3203     case ZCL_DATATYPE_BOOLEAN:
// 3204     case ZCL_DATATYPE_BITMAP8:
// 3205     case ZCL_DATATYPE_INT8:
// 3206     case ZCL_DATATYPE_UINT8:
// 3207     case ZCL_DATATYPE_ENUM8:
// 3208       len = 1;
??zclGetDataTypeLength_0:
        MOV       R1,#0x1
// 3209       break;
        SJMP      ??zclGetDataTypeLength_10
// 3210 
// 3211     case ZCL_DATATYPE_DATA16:
// 3212     case ZCL_DATATYPE_BITMAP16:
// 3213     case ZCL_DATATYPE_UINT16:
// 3214     case ZCL_DATATYPE_INT16:
// 3215     case ZCL_DATATYPE_ENUM16:
// 3216     case ZCL_DATATYPE_SEMI_PREC:
// 3217     case ZCL_DATATYPE_CLUSTER_ID:
// 3218     case ZCL_DATATYPE_ATTR_ID:
// 3219       len = 2;
??zclGetDataTypeLength_1:
        MOV       R1,#0x2
// 3220       break;
        SJMP      ??zclGetDataTypeLength_10
// 3221 
// 3222     case ZCL_DATATYPE_DATA24:
// 3223     case ZCL_DATATYPE_BITMAP24:
// 3224     case ZCL_DATATYPE_UINT24:
// 3225     case ZCL_DATATYPE_INT24:
// 3226       len = 3;
??zclGetDataTypeLength_2:
        MOV       R1,#0x3
// 3227       break;
        SJMP      ??zclGetDataTypeLength_10
// 3228 
// 3229     case ZCL_DATATYPE_DATA32:
// 3230     case ZCL_DATATYPE_BITMAP32:
// 3231     case ZCL_DATATYPE_UINT32:
// 3232     case ZCL_DATATYPE_INT32:
// 3233     case ZCL_DATATYPE_SINGLE_PREC:
// 3234     case ZCL_DATATYPE_TOD:
// 3235     case ZCL_DATATYPE_DATE:
// 3236     case ZCL_DATATYPE_UTC:
// 3237     case ZCL_DATATYPE_BAC_OID:
// 3238       len = 4;
??zclGetDataTypeLength_3:
        MOV       R1,#0x4
// 3239       break;
        SJMP      ??zclGetDataTypeLength_10
// 3240 
// 3241    case ZCL_DATATYPE_UINT40:
// 3242    case ZCL_DATATYPE_INT40:
// 3243        len = 5;
??zclGetDataTypeLength_4:
        MOV       R1,#0x5
// 3244        break;
        SJMP      ??zclGetDataTypeLength_10
// 3245 
// 3246    case ZCL_DATATYPE_UINT48:
// 3247    case ZCL_DATATYPE_INT48:
// 3248        len = 6;
??zclGetDataTypeLength_5:
        MOV       R1,#0x6
// 3249        break;
        SJMP      ??zclGetDataTypeLength_10
// 3250 
// 3251    case ZCL_DATATYPE_UINT56:
// 3252    case ZCL_DATATYPE_INT56:
// 3253        len = 7;
??zclGetDataTypeLength_6:
        MOV       R1,#0x7
// 3254        break;
        SJMP      ??zclGetDataTypeLength_10
// 3255 
// 3256    case ZCL_DATATYPE_DOUBLE_PREC:
// 3257    case ZCL_DATATYPE_IEEE_ADDR:
// 3258    case ZCL_DATATYPE_UINT64:
// 3259    case ZCL_DATATYPE_INT64:
// 3260      len = 8;
??zclGetDataTypeLength_7:
        MOV       R1,#0x8
// 3261      break;
        SJMP      ??zclGetDataTypeLength_10
// 3262 
// 3263     case ZCL_DATATYPE_128_BIT_SEC_KEY:
// 3264      len = SEC_KEY_LEN;
??zclGetDataTypeLength_8:
        MOV       R1,#0x10
// 3265      break;
        SJMP      ??zclGetDataTypeLength_10
// 3266 
// 3267     case ZCL_DATATYPE_NO_DATA:
// 3268     case ZCL_DATATYPE_UNKNOWN:
// 3269       // Fall through
// 3270 
// 3271     default:
// 3272       len = 0;
??zclGetDataTypeLength_9:
        MOV       R1,#0x0
// 3273       break;
// 3274   }
// 3275 
// 3276   return ( len );
??zclGetDataTypeLength_10:
        LJMP      ?BRET
// 3277 }
          CFI EndBlock cfiBlock51
// 3278 
// 3279 /*********************************************************************
// 3280  * @fn      zclGetAttrDataLength
// 3281  *
// 3282  * @brief   Return the length of the attribute.
// 3283  *
// 3284  * @param   dataType - data type
// 3285  * @param   pData - pointer to data
// 3286  *
// 3287  * @return  returns atrribute length
// 3288  */

        RSEG BANKED_CODE:HUGECODE:NOROOT(0)
// 3289 uint16 zclGetAttrDataLength( uint8 dataType, uint8 *pData )
zclGetAttrDataLength:
          CFI Block cfiBlock52 Using cfiCommon0
          CFI Function zclGetAttrDataLength
        CODE
// 3290 {
        FUNCALL zclGetAttrDataLength, zclGetDataTypeLength
        LOCFRAME ISTACK, 0, STACK
        LOCFRAME PSTACK, 0, STACK
        LOCFRAME XSTACK, 9, STACK
        LOCFRAME IOVERLAY, 0, STATIC
        LOCFRAME DOVERLAY, 0, STATIC
        ARGFRAME ISTACK, 0, STACK
        ARGFRAME PSTACK, 0, STACK
        ARGFRAME XSTACK, 9, STACK
        ARGFRAME IOVERLAY, 0, STATIC
        ARGFRAME DOVERLAY, 0, STATIC
        MOV       A,#-0x9
        LCALL     ?BANKED_ENTER_XDATA
          CFI DPH0 load(1, XDATA, add(CFA_XSP16, literal(-1)))
          CFI DPL0 load(1, XDATA, add(CFA_XSP16, literal(-2)))
          CFI ?BRET_EXT load(1, XDATA, add(CFA_XSP16, literal(-3)))
          CFI ?RET_HIGH load(1, XDATA, add(CFA_XSP16, literal(-4)))
          CFI ?RET_LOW load(1, XDATA, add(CFA_XSP16, literal(-5)))
          CFI R7 load(1, XDATA, add(CFA_XSP16, literal(-6)))
          CFI V0 load(1, XDATA, add(CFA_XSP16, literal(-7)))
          CFI VB load(1, XDATA, add(CFA_XSP16, literal(-8)))
          CFI R6 load(1, XDATA, add(CFA_XSP16, literal(-9)))
          CFI CFA_SP SP+0
          CFI CFA_XSP16 add(XSP16, 9)
        ; Saved register size: 9
        ; Auto size: 0
        MOV       A,R1
        MOV       R6,A
// 3291   uint16 dataLen = 0;
// 3292 
// 3293   if ( dataType == ZCL_DATATYPE_LONG_CHAR_STR || dataType == ZCL_DATATYPE_LONG_OCTET_STR )
        MOV       A,#0x44
        XRL       A,R6
        JZ        ??zclGetAttrDataLength_0
        MOV       A,#0x43
        XRL       A,R6
        JNZ       ??zclGetAttrDataLength_1
// 3294   {
// 3295     dataLen = BUILD_UINT16( pData[0], pData[1] ) + 2; // long string length + 2 for length field
??zclGetAttrDataLength_0:
        MOV       DPL,R2
        MOV       DPH,R3
        MOVX      A,@DPTR
        MOV       R4,A
        INC       DPTR
        MOVX      A,@DPTR
        MOV       R1,A
        MOV       A,R4
        ADD       A,#0x2
        MOV       R2,A
        CLR       A
        ADDC      A,R1
        SJMP      ??zclGetAttrDataLength_2
// 3296   }
// 3297   else if ( dataType == ZCL_DATATYPE_CHAR_STR || dataType == ZCL_DATATYPE_OCTET_STR )
??zclGetAttrDataLength_1:
        MOV       A,#0x42
        XRL       A,R6
        JZ        ??zclGetAttrDataLength_3
        MOV       A,#0x41
        XRL       A,R6
        JNZ       ??zclGetAttrDataLength_4
// 3298   {
// 3299     dataLen = *pData + 1; // string length + 1 for length field
??zclGetAttrDataLength_3:
        MOV       DPL,R2
        MOV       DPH,R3
        MOVX      A,@DPTR
        ADD       A,#0x1
        MOV       R2,A
        CLR       A
        ADDC      A,#0x0
??zclGetAttrDataLength_2:
        MOV       R3,A
        SJMP      ??zclGetAttrDataLength_5
// 3300   }
// 3301   else
// 3302   {
// 3303     dataLen = zclGetDataTypeLength( dataType );
??zclGetAttrDataLength_4:
        ; Setup parameters for call to function zclGetDataTypeLength
        LCALL     `??zclGetDataTypeLength::?relay`; Banked call to: zclGetDataTypeLength
        MOV       A,R1
        MOV       R2,A
        MOV       R3,#0x0
// 3304   }
// 3305 
// 3306   return ( dataLen );
??zclGetAttrDataLength_5:
        MOV       R7,#0x1
        LJMP      ?BANKED_LEAVE_XDATA
// 3307 }
          CFI EndBlock cfiBlock52
// 3308 
// 3309 #ifdef ZCL_READ
// 3310 /*********************************************************************
// 3311  * @fn      zclReadAttrData
// 3312  *
// 3313  * @brief   Read the attribute's current value into pAttrData.
// 3314  *          NOTE - Not compatible with application's attributes callbacks.
// 3315  *
// 3316  * @param   pAttrData - where to put attribute data
// 3317  * @param   pAttr - pointer to attribute
// 3318  * @param   pDataLen - where to put attribute data length
// 3319  *
// 3320  * @return Success
// 3321  */

        RSEG BANKED_CODE:HUGECODE:NOROOT(0)
// 3322 ZStatus_t zclReadAttrData( uint8 *pAttrData, zclAttrRec_t *pAttr, uint16 *pDataLen )
zclReadAttrData:
          CFI Block cfiBlock53 Using cfiCommon0
          CFI Function zclReadAttrData
        CODE
// 3323 {
        FUNCALL zclReadAttrData, zclGetAttrDataLength
        LOCFRAME ISTACK, 0, STACK
        LOCFRAME PSTACK, 0, STACK
        LOCFRAME XSTACK, 15, STACK
        LOCFRAME IOVERLAY, 0, STATIC
        LOCFRAME DOVERLAY, 0, STATIC
        ARGFRAME ISTACK, 0, STACK
        ARGFRAME PSTACK, 0, STACK
        ARGFRAME XSTACK, 15, STACK
        ARGFRAME IOVERLAY, 0, STATIC
        ARGFRAME DOVERLAY, 0, STATIC
        FUNCALL zclReadAttrData, osal_memcpy
        LOCFRAME ISTACK, 0, STACK
        LOCFRAME PSTACK, 0, STACK
        LOCFRAME XSTACK, 18, STACK
        LOCFRAME IOVERLAY, 0, STATIC
        LOCFRAME DOVERLAY, 0, STATIC
        ARGFRAME ISTACK, 0, STACK
        ARGFRAME PSTACK, 0, STACK
        ARGFRAME XSTACK, 18, STACK
        ARGFRAME IOVERLAY, 0, STATIC
        ARGFRAME DOVERLAY, 0, STATIC
        REQUIRE ?V0
        REQUIRE ?V1
        REQUIRE ?V2
        REQUIRE ?V3
        REQUIRE ?V4
        REQUIRE ?V5
        REQUIRE ?V6
        MOV       A,#-0xf
        LCALL     ?BANKED_ENTER_XDATA
          CFI DPH0 load(1, XDATA, add(CFA_XSP16, literal(-1)))
          CFI DPL0 load(1, XDATA, add(CFA_XSP16, literal(-2)))
          CFI ?BRET_EXT load(1, XDATA, add(CFA_XSP16, literal(-3)))
          CFI ?RET_HIGH load(1, XDATA, add(CFA_XSP16, literal(-4)))
          CFI ?RET_LOW load(1, XDATA, add(CFA_XSP16, literal(-5)))
          CFI R7 load(1, XDATA, add(CFA_XSP16, literal(-6)))
          CFI V6 load(1, XDATA, add(CFA_XSP16, literal(-7)))
          CFI V5 load(1, XDATA, add(CFA_XSP16, literal(-8)))
          CFI V4 load(1, XDATA, add(CFA_XSP16, literal(-9)))
          CFI V3 load(1, XDATA, add(CFA_XSP16, literal(-10)))
          CFI V2 load(1, XDATA, add(CFA_XSP16, literal(-11)))
          CFI V1 load(1, XDATA, add(CFA_XSP16, literal(-12)))
          CFI V0 load(1, XDATA, add(CFA_XSP16, literal(-13)))
          CFI VB load(1, XDATA, add(CFA_XSP16, literal(-14)))
          CFI R6 load(1, XDATA, add(CFA_XSP16, literal(-15)))
          CFI CFA_SP SP+0
          CFI CFA_XSP16 add(XSP16, 15)
        ; Saved register size: 15
        ; Auto size: 0
        MOV       A,R2
        MOV       R6,A
        MOV       A,R3
        MOV       R7,A
// 3324   uint16 dataLen;
// 3325 
// 3326   if ( pAttr->attr.dataPtr == NULL )
        MOV       A,R4
        ADD       A,#0x6
        MOV       R0,A
        CLR       A
        ADDC      A,R5
        MOV       ?V0,R0
        MOV       ?V1,A
        MOV       DPL,R0
        MOV       DPH,A
        MOVX      A,@DPTR
        MOV       R2,A
        INC       DPTR
        MOVX      A,@DPTR
        MOV       R3,A
        MOV       A,R2
        ORL       A,R3
        JNZ       ??zclReadAttrData_0
// 3327   {
// 3328     return ( ZCL_STATUS_FAILURE );
        MOV       R1,#0x1
        SJMP      ??zclReadAttrData_1
// 3329   }
// 3330 
// 3331   dataLen = zclGetAttrDataLength( pAttr->attr.dataType, (uint8*)(pAttr->attr.dataPtr) );
??zclReadAttrData_0:
        ; Setup parameters for call to function zclGetAttrDataLength
        MOV       DPL,R4
        MOV       DPH,R5
        INC       DPTR
        INC       DPTR
        INC       DPTR
        INC       DPTR
        MOVX      A,@DPTR
        MOV       R1,A
        LCALL     `??zclGetAttrDataLength::?relay`; Banked call to: zclGetAttrDataLength
        MOV       ?V2,R2
        MOV       ?V3,R3
// 3332   zcl_memcpy( pAttrData, pAttr->attr.dataPtr, dataLen );
        ; Setup parameters for call to function osal_memcpy
        MOV       DPL,?V0
        MOV       DPH,?V1
        MOVX      A,@DPTR
        MOV       ?V0,A
        INC       DPTR
        MOVX      A,@DPTR
        MOV       ?V4,?V0
        MOV       ?V5,A
        MOV       ?V6,#0x0
        MOV       R0,#?V4
        LCALL     ?PUSH_XSTACK_I_THREE
          CFI CFA_XSP16 add(XSP16, 18)
        MOV       R4,?V2
        MOV       R5,?V3
        MOV       A,R6
        MOV       R2,A
        MOV       A,R7
        MOV       R3,A
        LCALL     `??osal_memcpy::?relay`; Banked call to: osal_memcpy
        MOV       A,#0x3
        LCALL     ?DEALLOC_XSTACK8
          CFI CFA_XSP16 add(XSP16, 15)
        MOV       A,#0xf
        LCALL     ?XSTACK_DISP0_8
        MOVX      A,@DPTR
        MOV       R0,A
        INC       DPTR
        MOVX      A,@DPTR
        MOV       DPL,R0
        MOV       DPH,A
// 3333 
// 3334   if ( pDataLen != NULL )
        MOV       A,DPL
        ORL       A,DPH
        JZ        ??zclReadAttrData_2
// 3335   {
// 3336     *pDataLen = dataLen;
        MOV       A,?V2
        MOVX      @DPTR,A
        INC       DPTR
        MOV       A,?V3
        MOVX      @DPTR,A
// 3337   }
// 3338 
// 3339   return ( ZCL_STATUS_SUCCESS );
??zclReadAttrData_2:
        MOV       R1,#0x0
??zclReadAttrData_1:
        MOV       R7,#0x7
        LJMP      ?BANKED_LEAVE_XDATA
// 3340 }
          CFI EndBlock cfiBlock53
// 3341 
// 3342 /*********************************************************************
// 3343  * @fn      zcl_ReadAttrData
// 3344  *
// 3345  * @brief   Read the attribute's current value into pAttrData.
// 3346  *          Use application's callback function if assigned to this attribute.
// 3347  *
// 3348  * @param   endpoint - application's endpoint
// 3349  * @param   clusterId - cluster that attribute belongs to
// 3350  * @param   attrId - attribute id
// 3351  * @param   pAttrData - where to put attribute data
// 3352  * @param   pDataLen - where to put attribute data length
// 3353  *
// 3354  * @return  Successful if data was read
// 3355  */

        RSEG BANKED_CODE:HUGECODE:NOROOT(0)
// 3356 ZStatus_t zcl_ReadAttrData( uint8 endpoint, uint16 clusterId, uint16 attrId,
zcl_ReadAttrData:
          CFI Block cfiBlock54 Using cfiCommon0
          CFI Function zcl_ReadAttrData
        CODE
// 3357                                          uint8 *pAttrData, uint16 *pDataLen )
// 3358 {
        FUNCALL zcl_ReadAttrData, zclFindAttrRec
        LOCFRAME ISTACK, 0, STACK
        LOCFRAME PSTACK, 0, STACK
        LOCFRAME XSTACK, 26, STACK
        LOCFRAME IOVERLAY, 0, STATIC
        LOCFRAME DOVERLAY, 0, STATIC
        ARGFRAME ISTACK, 0, STACK
        ARGFRAME PSTACK, 0, STACK
        ARGFRAME XSTACK, 26, STACK
        ARGFRAME IOVERLAY, 0, STATIC
        ARGFRAME DOVERLAY, 0, STATIC
        FUNCALL zcl_ReadAttrData, zclReadAttrData
        LOCFRAME ISTACK, 0, STACK
        LOCFRAME PSTACK, 0, STACK
        LOCFRAME XSTACK, 26, STACK
        LOCFRAME IOVERLAY, 0, STATIC
        LOCFRAME DOVERLAY, 0, STATIC
        ARGFRAME ISTACK, 0, STACK
        ARGFRAME PSTACK, 0, STACK
        ARGFRAME XSTACK, 26, STACK
        ARGFRAME IOVERLAY, 0, STATIC
        ARGFRAME DOVERLAY, 0, STATIC
        FUNCALL zcl_ReadAttrData, zclReadAttrDataUsingCB
        LOCFRAME ISTACK, 0, STACK
        LOCFRAME PSTACK, 0, STACK
        LOCFRAME XSTACK, 28, STACK
        LOCFRAME IOVERLAY, 0, STATIC
        LOCFRAME DOVERLAY, 0, STATIC
        ARGFRAME ISTACK, 0, STACK
        ARGFRAME PSTACK, 0, STACK
        ARGFRAME XSTACK, 28, STACK
        ARGFRAME IOVERLAY, 0, STATIC
        ARGFRAME DOVERLAY, 0, STATIC
        REQUIRE ?V0
        REQUIRE ?V1
        REQUIRE ?V2
        REQUIRE ?V4
        REQUIRE ?V5
        REQUIRE ?V6
        REQUIRE ?V7
        MOV       A,#-0x10
        LCALL     ?BANKED_ENTER_XDATA
          CFI DPH0 load(1, XDATA, add(CFA_XSP16, literal(-1)))
          CFI DPL0 load(1, XDATA, add(CFA_XSP16, literal(-2)))
          CFI ?BRET_EXT load(1, XDATA, add(CFA_XSP16, literal(-3)))
          CFI ?RET_HIGH load(1, XDATA, add(CFA_XSP16, literal(-4)))
          CFI ?RET_LOW load(1, XDATA, add(CFA_XSP16, literal(-5)))
          CFI R7 load(1, XDATA, add(CFA_XSP16, literal(-6)))
          CFI V7 load(1, XDATA, add(CFA_XSP16, literal(-7)))
          CFI V6 load(1, XDATA, add(CFA_XSP16, literal(-8)))
          CFI V5 load(1, XDATA, add(CFA_XSP16, literal(-9)))
          CFI V4 load(1, XDATA, add(CFA_XSP16, literal(-10)))
          CFI V3 load(1, XDATA, add(CFA_XSP16, literal(-11)))
          CFI V2 load(1, XDATA, add(CFA_XSP16, literal(-12)))
          CFI V1 load(1, XDATA, add(CFA_XSP16, literal(-13)))
          CFI V0 load(1, XDATA, add(CFA_XSP16, literal(-14)))
          CFI VB load(1, XDATA, add(CFA_XSP16, literal(-15)))
          CFI R6 load(1, XDATA, add(CFA_XSP16, literal(-16)))
          CFI CFA_SP SP+0
          CFI CFA_XSP16 add(XSP16, 16)
        ; Saved register size: 16
        ; Auto size: 8
        MOV       A,#-0x8
        LCALL     ?ALLOC_XSTACK8
          CFI CFA_XSP16 add(XSP16, 24)
        MOV       ?V2,R1
        MOV       ?V0,R2
        MOV       ?V1,R3
        MOV       A,R4
        MOV       R6,A
        MOV       A,R5
        MOV       R7,A
// 3359   zclAttrRec_t attrRec;
// 3360 
// 3361   if ( zclFindAttrRec( endpoint, clusterId, attrId, &attrRec ) == FALSE )
        ; Setup parameters for call to function zclFindAttrRec
        MOV       R0,?XSP + 0
        MOV       R1,?XSP + 1
        MOV       ?V4,R0
        MOV       ?V5,R1
        MOV       R0,#?V4
        LCALL     ?PUSH_XSTACK_I_TWO
          CFI CFA_XSP16 add(XSP16, 26)
        MOV       R1,?V2
        LCALL     `??zclFindAttrRec::?relay`; Banked call to: zclFindAttrRec
        MOV       A,#0x2
        LCALL     ?DEALLOC_XSTACK8
          CFI CFA_XSP16 add(XSP16, 24)
        MOV       A,R1
        JNZ       ??zcl_ReadAttrData_0
// 3362   {
// 3363     return ( ZCL_STATUS_FAILURE );
        MOV       R1,#0x1
        SJMP      ??zcl_ReadAttrData_1
// 3364   }
??zcl_ReadAttrData_0:
        MOV       A,#0x18
        LCALL     ?XSTACK_DISP0_8
        MOVX      A,@DPTR
        MOV       ?V6,A
        INC       DPTR
        MOVX      A,@DPTR
        MOV       ?V7,A
        MOV       A,#0x1a
        LCALL     ?XSTACK_DISP0_8
        MOVX      A,@DPTR
        MOV       ?V4,A
        INC       DPTR
        MOVX      A,@DPTR
        MOV       ?V5,A
// 3365 
// 3366   if ( attrRec.attr.dataPtr != NULL )
        MOV       A,#0x6
        LCALL     ?XSTACK_DISP0_8
        MOVX      A,@DPTR
        MOV       R0,A
        INC       DPTR
        MOVX      A,@DPTR
        MOV       R1,A
        MOV       A,R0
        ORL       A,R1
        MOV       R0,#?V4
        JZ        ??zcl_ReadAttrData_2
// 3367   {
// 3368     return zclReadAttrData( pAttrData, &attrRec, pDataLen );
        ; Setup parameters for call to function zclReadAttrData
        LCALL     ?PUSH_XSTACK_I_TWO
          CFI CFA_XSP16 add(XSP16, 26)
        MOV       A,#0x2
        LCALL     ?XSTACK_DISP102_8
        MOV       R2,?V6
        MOV       R3,?V7
        LCALL     `??zclReadAttrData::?relay`; Banked call to: zclReadAttrData
        MOV       A,#0x2
        LCALL     ?DEALLOC_XSTACK8
          CFI CFA_XSP16 add(XSP16, 24)
        SJMP      ??zcl_ReadAttrData_1
// 3369   }
// 3370   else
// 3371   {
// 3372     return zclReadAttrDataUsingCB( endpoint, clusterId, attrId, pAttrData, pDataLen );
??zcl_ReadAttrData_2:
        ; Setup parameters for call to function zclReadAttrDataUsingCB
        LCALL     ?PUSH_XSTACK_I_TWO
          CFI CFA_XSP16 add(XSP16, 26)
        MOV       R0,#?V6
        LCALL     ?PUSH_XSTACK_I_TWO
          CFI CFA_XSP16 add(XSP16, 28)
        MOV       A,R6
        MOV       R4,A
        MOV       A,R7
        MOV       R5,A
        MOV       R2,?V0
        MOV       R3,?V1
        MOV       R1,?V2
        LCALL     `??zclReadAttrDataUsingCB::?relay`; Banked call to: zclReadAttrDataUsingCB
        MOV       A,#0x4
        LCALL     ?DEALLOC_XSTACK8
          CFI CFA_XSP16 add(XSP16, 24)
??zcl_ReadAttrData_1:
        MOV       A,#0x8
        LCALL     ?DEALLOC_XSTACK8
          CFI CFA_XSP16 add(XSP16, 16)
        MOV       R7,#0x8
        LJMP      ?BANKED_LEAVE_XDATA
// 3373   }
// 3374 }
          CFI EndBlock cfiBlock54
// 3375 
// 3376 /*********************************************************************
// 3377  * @fn      zclGetAttrDataLengthUsingCB
// 3378  *
// 3379  * @brief   Use application's callback to get the length of the attribute's
// 3380  *          current value stored in the database.
// 3381  *
// 3382  * @param   endpoint - application's endpoint
// 3383  * @param   clusterId - cluster that attribute belongs to
// 3384  * @param   attrId - attribute id
// 3385  *
// 3386  * @return  returns attribute length
// 3387  */

        RSEG BANKED_CODE:HUGECODE:NOROOT(0)
// 3388 static uint16 zclGetAttrDataLengthUsingCB( uint8 endpoint, uint16 clusterId, uint16 attrId )
zclGetAttrDataLengthUsingCB:
          CFI Block cfiBlock55 Using cfiCommon0
          CFI Function zclGetAttrDataLengthUsingCB
        CODE
// 3389 {
        FUNCALL zclGetAttrDataLengthUsingCB, zclGetReadWriteCB
        LOCFRAME ISTACK, 0, STACK
        LOCFRAME PSTACK, 0, STACK
        LOCFRAME XSTACK, 18, STACK
        LOCFRAME IOVERLAY, 0, STATIC
        LOCFRAME DOVERLAY, 0, STATIC
        ARGFRAME ISTACK, 0, STACK
        ARGFRAME PSTACK, 0, STACK
        ARGFRAME XSTACK, 18, STACK
        ARGFRAME IOVERLAY, 0, STATIC
        ARGFRAME DOVERLAY, 0, STATIC
        REQUIRE ?V0
        REQUIRE ?V1
        REQUIRE ?V2
        REQUIRE ?V4
        REQUIRE ?V5
        REQUIRE ?V6
        REQUIRE ?V7
        MOV       A,#-0x10
        LCALL     ?BANKED_ENTER_XDATA
          CFI DPH0 load(1, XDATA, add(CFA_XSP16, literal(-1)))
          CFI DPL0 load(1, XDATA, add(CFA_XSP16, literal(-2)))
          CFI ?BRET_EXT load(1, XDATA, add(CFA_XSP16, literal(-3)))
          CFI ?RET_HIGH load(1, XDATA, add(CFA_XSP16, literal(-4)))
          CFI ?RET_LOW load(1, XDATA, add(CFA_XSP16, literal(-5)))
          CFI R7 load(1, XDATA, add(CFA_XSP16, literal(-6)))
          CFI V7 load(1, XDATA, add(CFA_XSP16, literal(-7)))
          CFI V6 load(1, XDATA, add(CFA_XSP16, literal(-8)))
          CFI V5 load(1, XDATA, add(CFA_XSP16, literal(-9)))
          CFI V4 load(1, XDATA, add(CFA_XSP16, literal(-10)))
          CFI V3 load(1, XDATA, add(CFA_XSP16, literal(-11)))
          CFI V2 load(1, XDATA, add(CFA_XSP16, literal(-12)))
          CFI V1 load(1, XDATA, add(CFA_XSP16, literal(-13)))
          CFI V0 load(1, XDATA, add(CFA_XSP16, literal(-14)))
          CFI VB load(1, XDATA, add(CFA_XSP16, literal(-15)))
          CFI R6 load(1, XDATA, add(CFA_XSP16, literal(-16)))
          CFI CFA_SP SP+0
          CFI CFA_XSP16 add(XSP16, 16)
        ; Saved register size: 16
        ; Auto size: 2
        MOV       A,#-0x2
        LCALL     ?ALLOC_XSTACK8
          CFI CFA_XSP16 add(XSP16, 18)
        MOV       ?V4,R2
        MOV       ?V5,R3
        MOV       A,R4
        MOV       R6,A
        MOV       A,R5
        MOV       R7,A
// 3390   uint16 dataLen = 0;
        MOV       DPL,?XSP + 0
        MOV       DPH,?XSP + 1
        CLR       A
        MOVX      @DPTR,A
        INC       DPTR
        MOVX      @DPTR,A
// 3391   zclReadWriteCB_t pfnReadWriteCB = zclGetReadWriteCB( endpoint );
        ; Setup parameters for call to function zclGetReadWriteCB
        LCALL     `??zclGetReadWriteCB::?relay`; Banked call to: zclGetReadWriteCB
        MOV       ?V0,R2
        MOV       ?V1,R3
// 3392 
// 3393   if ( pfnReadWriteCB != NULL )
        MOV       A,R2
        ORL       A,R3
        JZ        ??zclGetAttrDataLengthUsingCB_0
// 3394   {
// 3395     // Only get the attribute length
// 3396     (*pfnReadWriteCB)( clusterId, attrId, ZCL_OPER_LEN, NULL, &dataLen );
        ; Setup parameters for indirect call
        MOV       R0,?XSP + 0
        MOV       R1,?XSP + 1
        MOV       ?V6,R0
        MOV       ?V7,R1
        MOV       R0,#?V6
        LCALL     ?PUSH_XSTACK_I_TWO
          CFI CFA_XSP16 add(XSP16, 20)
        CLR       A
        MOV       ?V6,A
        MOV       ?V7,A
        MOV       R0,#?V6
        LCALL     ?PUSH_XSTACK_I_TWO
          CFI CFA_XSP16 add(XSP16, 22)
        MOV       R1,#0x0
        MOV       A,R6
        MOV       R4,A
        MOV       A,R7
        MOV       R5,A
        MOV       R2,?V4
        MOV       R3,?V5
        MOV       DPL,?V0
        MOV       DPH,?V1
        LCALL     ?CALL_IND
        MOV       A,#0x4
        LCALL     ?DEALLOC_XSTACK8
          CFI CFA_XSP16 add(XSP16, 18)
// 3397   }
// 3398 
// 3399   return ( dataLen );
??zclGetAttrDataLengthUsingCB_0:
        MOV       DPL,?XSP + 0
        MOV       DPH,?XSP + 1
        MOVX      A,@DPTR
        MOV       R2,A
        INC       DPTR
        MOVX      A,@DPTR
        MOV       R3,A
        MOV       A,#0x2
        LCALL     ?DEALLOC_XSTACK8
          CFI CFA_XSP16 add(XSP16, 16)
        MOV       R7,#0x8
        LJMP      ?BANKED_LEAVE_XDATA
// 3400 }
          CFI EndBlock cfiBlock55
// 3401 
// 3402 /*********************************************************************
// 3403  * @fn      zclReadAttrDataUsingCB
// 3404  *
// 3405  * @brief   Use application's callback to read the attribute's current
// 3406  *          value stored in the database.
// 3407  *
// 3408  * @param   endpoint - application's endpoint
// 3409  * @param   clusterId - cluster that attribute belongs to
// 3410  * @param   attrId - attribute id
// 3411  * @param   pAttrData - where to put attribute data
// 3412  * @param   pDataLen - where to put attribute data length
// 3413  *
// 3414  * @return  Successful if data was read
// 3415  */

        RSEG BANKED_CODE:HUGECODE:NOROOT(0)
// 3416 static ZStatus_t zclReadAttrDataUsingCB( uint8 endpoint, uint16 clusterId, uint16 attrId,
zclReadAttrDataUsingCB:
          CFI Block cfiBlock56 Using cfiCommon0
          CFI Function zclReadAttrDataUsingCB
        CODE
// 3417                                          uint8 *pAttrData, uint16 *pDataLen )
// 3418 {
        FUNCALL zclReadAttrDataUsingCB, zclGetReadWriteCB
        LOCFRAME ISTACK, 0, STACK
        LOCFRAME PSTACK, 0, STACK
        LOCFRAME XSTACK, 16, STACK
        LOCFRAME IOVERLAY, 0, STATIC
        LOCFRAME DOVERLAY, 0, STATIC
        ARGFRAME ISTACK, 0, STACK
        ARGFRAME PSTACK, 0, STACK
        ARGFRAME XSTACK, 16, STACK
        ARGFRAME IOVERLAY, 0, STATIC
        ARGFRAME DOVERLAY, 0, STATIC
        REQUIRE ?V0
        REQUIRE ?V1
        REQUIRE ?V2
        REQUIRE ?V3
        REQUIRE ?V4
        REQUIRE ?V6
        REQUIRE ?V7
        MOV       A,#-0x10
        LCALL     ?BANKED_ENTER_XDATA
          CFI DPH0 load(1, XDATA, add(CFA_XSP16, literal(-1)))
          CFI DPL0 load(1, XDATA, add(CFA_XSP16, literal(-2)))
          CFI ?BRET_EXT load(1, XDATA, add(CFA_XSP16, literal(-3)))
          CFI ?RET_HIGH load(1, XDATA, add(CFA_XSP16, literal(-4)))
          CFI ?RET_LOW load(1, XDATA, add(CFA_XSP16, literal(-5)))
          CFI R7 load(1, XDATA, add(CFA_XSP16, literal(-6)))
          CFI V7 load(1, XDATA, add(CFA_XSP16, literal(-7)))
          CFI V6 load(1, XDATA, add(CFA_XSP16, literal(-8)))
          CFI V5 load(1, XDATA, add(CFA_XSP16, literal(-9)))
          CFI V4 load(1, XDATA, add(CFA_XSP16, literal(-10)))
          CFI V3 load(1, XDATA, add(CFA_XSP16, literal(-11)))
          CFI V2 load(1, XDATA, add(CFA_XSP16, literal(-12)))
          CFI V1 load(1, XDATA, add(CFA_XSP16, literal(-13)))
          CFI V0 load(1, XDATA, add(CFA_XSP16, literal(-14)))
          CFI VB load(1, XDATA, add(CFA_XSP16, literal(-15)))
          CFI R6 load(1, XDATA, add(CFA_XSP16, literal(-16)))
          CFI CFA_SP SP+0
          CFI CFA_XSP16 add(XSP16, 16)
        ; Saved register size: 16
        ; Auto size: 0
        MOV       ?V0,R2
        MOV       ?V1,R3
        MOV       A,R4
        MOV       R6,A
        MOV       A,R5
        MOV       R7,A
// 3419   zclReadWriteCB_t pfnReadWriteCB = zclGetReadWriteCB( endpoint );
        ; Setup parameters for call to function zclGetReadWriteCB
        LCALL     `??zclGetReadWriteCB::?relay`; Banked call to: zclGetReadWriteCB
        MOV       ?V2,R2
        MOV       ?V3,R3
        MOV       A,#0x12
        LCALL     ?XSTACK_DISP0_8
        MOVX      A,@DPTR
        MOV       ?V6,A
        INC       DPTR
        MOVX      A,@DPTR
        MOV       ?V7,A
// 3420 
// 3421   if ( pDataLen != NULL )
        MOV       A,?V6
        ORL       A,?V7
        JZ        ??zclReadAttrDataUsingCB_0
// 3422   {
// 3423     *pDataLen = 0; // Always initialize it to 0
        MOV       DPL,?V6
        MOV       DPH,?V7
        CLR       A
        MOVX      @DPTR,A
        INC       DPTR
        MOVX      @DPTR,A
// 3424   }
// 3425 
// 3426   if ( pfnReadWriteCB != NULL )
??zclReadAttrDataUsingCB_0:
        MOV       A,R2
        ORL       A,R3
        JZ        ??zclReadAttrDataUsingCB_1
// 3427   {
// 3428     // Read the attribute value and its length
// 3429     return ( (*pfnReadWriteCB)( clusterId, attrId, ZCL_OPER_READ, pAttrData, pDataLen ) );
        ; Setup parameters for indirect call
        MOV       R0,#?V6
        LCALL     ?PUSH_XSTACK_I_TWO
          CFI CFA_XSP16 add(XSP16, 18)
        MOV       A,#0x12
        LCALL     ?XSTACK_DISP0_8
        LCALL     ?PUSH_XSTACK8_X_TWO
          CFI CFA_XSP16 add(XSP16, 20)
        MOV       R1,#0x1
        MOV       A,R6
        MOV       R4,A
        MOV       A,R7
        MOV       R5,A
        MOV       R2,?V0
        MOV       R3,?V1
        MOV       DPL,?V2
        MOV       DPH,?V3
        LCALL     ?CALL_IND
        MOV       A,#0x4
        LCALL     ?DEALLOC_XSTACK8
          CFI CFA_XSP16 add(XSP16, 16)
        SJMP      ??zclReadAttrDataUsingCB_2
// 3430   }
// 3431 
// 3432   return ( ZCL_STATUS_SOFTWARE_FAILURE );
??zclReadAttrDataUsingCB_1:
        MOV       R1,#-0x3f
??zclReadAttrDataUsingCB_2:
        MOV       R7,#0x8
        LJMP      ?BANKED_LEAVE_XDATA
// 3433 }
          CFI EndBlock cfiBlock56
// 3434 
// 3435 /*********************************************************************
// 3436  * @fn      zclAuthorizeRead
// 3437  *
// 3438  * @brief   Use application's callback to authorize a Read operation
// 3439  *          on a given attribute.
// 3440  *
// 3441  * @param   endpoint - application's endpoint
// 3442  * @param   srcAddr - source Address
// 3443  * @param   pAttr - pointer to attribute
// 3444  *
// 3445  * @return  ZCL_STATUS_SUCCESS: Operation authorized
// 3446  *          ZCL_STATUS_NOT_AUTHORIZED: Operation not authorized
// 3447  */

        RSEG BANKED_CODE:HUGECODE:NOROOT(0)
// 3448 static ZStatus_t zclAuthorizeRead( uint8 endpoint, afAddrType_t *srcAddr, zclAttrRec_t *pAttr )
zclAuthorizeRead:
          CFI Block cfiBlock57 Using cfiCommon0
          CFI Function zclAuthorizeRead
        CODE
// 3449 {
        FUNCALL zclAuthorizeRead, zclGetAuthorizeCB
        LOCFRAME ISTACK, 0, STACK
        LOCFRAME PSTACK, 0, STACK
        LOCFRAME XSTACK, 14, STACK
        LOCFRAME IOVERLAY, 0, STATIC
        LOCFRAME DOVERLAY, 0, STATIC
        ARGFRAME ISTACK, 0, STACK
        ARGFRAME PSTACK, 0, STACK
        ARGFRAME XSTACK, 14, STACK
        ARGFRAME IOVERLAY, 0, STATIC
        ARGFRAME DOVERLAY, 0, STATIC
        REQUIRE ?V0
        REQUIRE ?V1
        REQUIRE ?V2
        REQUIRE ?V4
        REQUIRE ?V5
        MOV       A,#-0xe
        LCALL     ?BANKED_ENTER_XDATA
          CFI DPH0 load(1, XDATA, add(CFA_XSP16, literal(-1)))
          CFI DPL0 load(1, XDATA, add(CFA_XSP16, literal(-2)))
          CFI ?BRET_EXT load(1, XDATA, add(CFA_XSP16, literal(-3)))
          CFI ?RET_HIGH load(1, XDATA, add(CFA_XSP16, literal(-4)))
          CFI ?RET_LOW load(1, XDATA, add(CFA_XSP16, literal(-5)))
          CFI R7 load(1, XDATA, add(CFA_XSP16, literal(-6)))
          CFI V5 load(1, XDATA, add(CFA_XSP16, literal(-7)))
          CFI V4 load(1, XDATA, add(CFA_XSP16, literal(-8)))
          CFI V3 load(1, XDATA, add(CFA_XSP16, literal(-9)))
          CFI V2 load(1, XDATA, add(CFA_XSP16, literal(-10)))
          CFI V1 load(1, XDATA, add(CFA_XSP16, literal(-11)))
          CFI V0 load(1, XDATA, add(CFA_XSP16, literal(-12)))
          CFI VB load(1, XDATA, add(CFA_XSP16, literal(-13)))
          CFI R6 load(1, XDATA, add(CFA_XSP16, literal(-14)))
          CFI CFA_SP SP+0
          CFI CFA_XSP16 add(XSP16, 14)
        ; Saved register size: 14
        ; Auto size: 0
        MOV       A,R2
        MOV       R6,A
        MOV       A,R3
        MOV       R7,A
        MOV       ?V0,R4
        MOV       ?V1,R5
// 3450   if ( zcl_AccessCtrlAuthRead( pAttr->attr.accessControl ) )
        MOV       DPL,R4
        MOV       DPH,R5
        INC       DPTR
        INC       DPTR
        INC       DPTR
        INC       DPTR
        INC       DPTR
        MOVX      A,@DPTR
        MOV       C,0xE0 /* A   */.4
        JNC       ??zclAuthorizeRead_0
// 3451   {
// 3452     zclAuthorizeCB_t pfnAuthorizeCB = zclGetAuthorizeCB( endpoint );
        ; Setup parameters for call to function zclGetAuthorizeCB
        LCALL     `??zclGetAuthorizeCB::?relay`; Banked call to: zclGetAuthorizeCB
        MOV       DPL,R2
        MOV       DPH,R3
// 3453 
// 3454     if ( pfnAuthorizeCB != NULL )
        MOV       A,DPL
        ORL       A,DPH
        JZ        ??zclAuthorizeRead_0
// 3455     {
// 3456       return ( (*pfnAuthorizeCB)( srcAddr, pAttr, ZCL_OPER_READ ) );
        ; Setup parameters for indirect call
        MOV       R1,#0x1
        MOV       R4,?V0
        MOV       R5,?V1
        MOV       A,R6
        MOV       R2,A
        MOV       A,R7
        MOV       R3,A
        LCALL     ?CALL_IND
        SJMP      ??zclAuthorizeRead_1
// 3457     }
// 3458   }
// 3459 
// 3460   return ( ZCL_STATUS_SUCCESS );
??zclAuthorizeRead_0:
        MOV       R1,#0x0
??zclAuthorizeRead_1:
        MOV       R7,#0x6
        LJMP      ?BANKED_LEAVE_XDATA
// 3461 }
          CFI EndBlock cfiBlock57
// 3462 #endif // ZCL_READ
// 3463 
// 3464 #ifdef ZCL_WRITE
// 3465 /*********************************************************************
// 3466  * @fn      zclWriteAttrData
// 3467  *
// 3468  * @brief   Write the received data.
// 3469  *
// 3470  * @param   endpoint - application's endpoint
// 3471  * @param   pAttr - where to write data to
// 3472  * @param   pWriteRec - data to be written
// 3473  *
// 3474  * @return  Successful if data was written
// 3475  */

        RSEG BANKED_CODE:HUGECODE:NOROOT(0)
// 3476 static ZStatus_t zclWriteAttrData( uint8 endpoint, afAddrType_t *srcAddr,
zclWriteAttrData:
          CFI Block cfiBlock58 Using cfiCommon0
          CFI Function zclWriteAttrData
        CODE
// 3477                                    zclAttrRec_t *pAttr, zclWriteRec_t *pWriteRec )
// 3478 {
        FUNCALL zclWriteAttrData, zclAuthorizeWrite
        LOCFRAME ISTACK, 0, STACK
        LOCFRAME PSTACK, 0, STACK
        LOCFRAME XSTACK, 15, STACK
        LOCFRAME IOVERLAY, 0, STATIC
        LOCFRAME DOVERLAY, 0, STATIC
        ARGFRAME ISTACK, 0, STACK
        ARGFRAME PSTACK, 0, STACK
        ARGFRAME XSTACK, 15, STACK
        ARGFRAME IOVERLAY, 0, STATIC
        ARGFRAME DOVERLAY, 0, STATIC
        FUNCALL zclWriteAttrData, zclGetAttrDataLength
        LOCFRAME ISTACK, 0, STACK
        LOCFRAME PSTACK, 0, STACK
        LOCFRAME XSTACK, 15, STACK
        LOCFRAME IOVERLAY, 0, STATIC
        LOCFRAME DOVERLAY, 0, STATIC
        ARGFRAME ISTACK, 0, STACK
        ARGFRAME PSTACK, 0, STACK
        ARGFRAME XSTACK, 15, STACK
        ARGFRAME IOVERLAY, 0, STATIC
        ARGFRAME DOVERLAY, 0, STATIC
        FUNCALL zclWriteAttrData, osal_memcpy
        LOCFRAME ISTACK, 0, STACK
        LOCFRAME PSTACK, 0, STACK
        LOCFRAME XSTACK, 18, STACK
        LOCFRAME IOVERLAY, 0, STATIC
        LOCFRAME DOVERLAY, 0, STATIC
        ARGFRAME ISTACK, 0, STACK
        ARGFRAME PSTACK, 0, STACK
        ARGFRAME XSTACK, 18, STACK
        ARGFRAME IOVERLAY, 0, STATIC
        ARGFRAME DOVERLAY, 0, STATIC
        REQUIRE ?V0
        REQUIRE ?V1
        REQUIRE ?V2
        REQUIRE ?V3
        REQUIRE ?V4
        REQUIRE ?V5
        REQUIRE ?V6
        MOV       A,#-0xf
        LCALL     ?BANKED_ENTER_XDATA
          CFI DPH0 load(1, XDATA, add(CFA_XSP16, literal(-1)))
          CFI DPL0 load(1, XDATA, add(CFA_XSP16, literal(-2)))
          CFI ?BRET_EXT load(1, XDATA, add(CFA_XSP16, literal(-3)))
          CFI ?RET_HIGH load(1, XDATA, add(CFA_XSP16, literal(-4)))
          CFI ?RET_LOW load(1, XDATA, add(CFA_XSP16, literal(-5)))
          CFI R7 load(1, XDATA, add(CFA_XSP16, literal(-6)))
          CFI V6 load(1, XDATA, add(CFA_XSP16, literal(-7)))
          CFI V5 load(1, XDATA, add(CFA_XSP16, literal(-8)))
          CFI V4 load(1, XDATA, add(CFA_XSP16, literal(-9)))
          CFI V3 load(1, XDATA, add(CFA_XSP16, literal(-10)))
          CFI V2 load(1, XDATA, add(CFA_XSP16, literal(-11)))
          CFI V1 load(1, XDATA, add(CFA_XSP16, literal(-12)))
          CFI V0 load(1, XDATA, add(CFA_XSP16, literal(-13)))
          CFI VB load(1, XDATA, add(CFA_XSP16, literal(-14)))
          CFI R6 load(1, XDATA, add(CFA_XSP16, literal(-15)))
          CFI CFA_SP SP+0
          CFI CFA_XSP16 add(XSP16, 15)
        ; Saved register size: 15
        ; Auto size: 0
        MOV       A,R4
        MOV       R6,A
        MOV       A,R5
        MOV       R7,A
// 3479   uint8 status;
// 3480 
// 3481   if ( zcl_AccessCtrlWrite( pAttr->attr.accessControl ) )
        MOV       DPL,R4
        MOV       DPH,A
        INC       DPTR
        INC       DPTR
        INC       DPTR
        INC       DPTR
        INC       DPTR
        MOVX      A,@DPTR
        MOV       C,0xE0 /* A   */.1
        JC        $+5
        LJMP      ??zclWriteAttrData_0 & 0xFFFF
// 3482   {
// 3483     status = zclAuthorizeWrite( endpoint, srcAddr, pAttr );
        ; Setup parameters for call to function zclAuthorizeWrite
        LCALL     `??zclAuthorizeWrite::?relay`; Banked call to: zclAuthorizeWrite
        MOV       A,R1
        MOV       ?V2,A
// 3484     if ( status == ZCL_STATUS_SUCCESS )
        JZ        $+5
        LJMP      ??zclWriteAttrData_1 & 0xFFFF
        MOV       A,#0xf
        LCALL     ?XSTACK_DISP0_8
        MOVX      A,@DPTR
        MOV       ?V0,A
        INC       DPTR
        MOVX      A,@DPTR
        MOV       ?V1,A
// 3485     {
// 3486       if ( ( zcl_ValidateAttrDataCB == NULL ) || zcl_ValidateAttrDataCB( pAttr, pWriteRec ) )
        MOV       DPTR,#zcl_ValidateAttrDataCB
        MOVX      A,@DPTR
        MOV       R0,A
        INC       DPTR
        MOVX      A,@DPTR
        MOV       R1,A
        MOV       A,R0
        ORL       A,R1
        JZ        ??zclWriteAttrData_2
        ; Setup parameters for indirect call
        MOV       R4,?V0
        MOV       R5,?V1
        MOV       A,R6
        MOV       R2,A
        MOV       A,R7
        MOV       R3,A
        MOV       DPTR,#zcl_ValidateAttrDataCB
        MOVX      A,@DPTR
        MOV       R0,A
        INC       DPTR
        MOVX      A,@DPTR
        MOV       DPH,A
        MOV       DPL,R0
        LCALL     ?CALL_IND
        MOV       A,R1
        JZ        ??zclWriteAttrData_3
// 3487       {
// 3488         // Write the attribute value
// 3489         uint16 len = zclGetAttrDataLength( pAttr->attr.dataType, pWriteRec->attrData );
??zclWriteAttrData_2:
        MOV       A,?V0
        ADD       A,#0x3
        MOV       R0,A
        CLR       A
        ADDC      A,?V1
        MOV       ?V0,R0
        MOV       ?V1,A
        ; Setup parameters for call to function zclGetAttrDataLength
        MOV       DPL,R0
        MOV       DPH,A
        MOVX      A,@DPTR
        MOV       R2,A
        INC       DPTR
        MOVX      A,@DPTR
        MOV       R3,A
        MOV       DPL,R6
        MOV       DPH,R7
        INC       DPTR
        INC       DPTR
        INC       DPTR
        INC       DPTR
        MOVX      A,@DPTR
        MOV       R1,A
        LCALL     `??zclGetAttrDataLength::?relay`; Banked call to: zclGetAttrDataLength
        MOV       ?V4,R2
        MOV       ?V5,R3
        MOV       R4,?V4
        MOV       R5,?V5
// 3490         zcl_memcpy( pAttr->attr.dataPtr, pWriteRec->attrData, len );
        ; Setup parameters for call to function osal_memcpy
        MOV       DPL,?V0
        MOV       DPH,?V1
        MOVX      A,@DPTR
        MOV       ?V4,A
        INC       DPTR
        MOVX      A,@DPTR
        MOV       ?V5,A
        MOV       ?V6,#0x0
        MOV       R0,#?V4
        LCALL     ?PUSH_XSTACK_I_THREE
          CFI CFA_XSP16 add(XSP16, 18)
        MOV       DPL,R6
        MOV       DPH,R7
        INC       DPTR
        INC       DPTR
        INC       DPTR
        INC       DPTR
        INC       DPTR
        INC       DPTR
        MOVX      A,@DPTR
        MOV       R2,A
        INC       DPTR
        MOVX      A,@DPTR
        MOV       R3,A
        LCALL     `??osal_memcpy::?relay`; Banked call to: osal_memcpy
        MOV       A,#0x3
        LCALL     ?DEALLOC_XSTACK8
          CFI CFA_XSP16 add(XSP16, 15)
// 3491 
// 3492         status = ZCL_STATUS_SUCCESS;
        SJMP      ??zclWriteAttrData_1
// 3493       }
// 3494       else
// 3495       {
// 3496         status = ZCL_STATUS_INVALID_VALUE;
??zclWriteAttrData_3:
        MOV       ?V2,#-0x79
        SJMP      ??zclWriteAttrData_1
// 3497       }
// 3498     }
// 3499   }
// 3500   else
// 3501   {
// 3502     status = ZCL_STATUS_READ_ONLY;
??zclWriteAttrData_0:
        MOV       ?V2,#-0x78
// 3503   }
// 3504 
// 3505   return ( status );
??zclWriteAttrData_1:
        MOV       R1,?V2
        MOV       R7,#0x7
        LJMP      ?BANKED_LEAVE_XDATA
// 3506 }
          CFI EndBlock cfiBlock58
// 3507 
// 3508 /*********************************************************************
// 3509  * @fn      zclWriteAttrDataUsingCB
// 3510  *
// 3511  * @brief   Use application's callback to write the attribute's current
// 3512  *          value stored in the database.
// 3513  *
// 3514  * @param   endpoint - application's endpoint
// 3515  * @param   pAttr - where to write data to
// 3516  * @param   pAttrData - data to be written
// 3517  *
// 3518  * @return  Successful if data was written
// 3519  */

        RSEG BANKED_CODE:HUGECODE:NOROOT(0)
// 3520 static ZStatus_t zclWriteAttrDataUsingCB( uint8 endpoint, afAddrType_t *srcAddr,
zclWriteAttrDataUsingCB:
          CFI Block cfiBlock59 Using cfiCommon0
          CFI Function zclWriteAttrDataUsingCB
        CODE
// 3521                                           zclAttrRec_t *pAttr, uint8 *pAttrData )
// 3522 {
        FUNCALL zclWriteAttrDataUsingCB, zclAuthorizeWrite
        LOCFRAME ISTACK, 0, STACK
        LOCFRAME PSTACK, 0, STACK
        LOCFRAME XSTACK, 14, STACK
        LOCFRAME IOVERLAY, 0, STATIC
        LOCFRAME DOVERLAY, 0, STATIC
        ARGFRAME ISTACK, 0, STACK
        ARGFRAME PSTACK, 0, STACK
        ARGFRAME XSTACK, 14, STACK
        ARGFRAME IOVERLAY, 0, STATIC
        ARGFRAME DOVERLAY, 0, STATIC
        FUNCALL zclWriteAttrDataUsingCB, zclGetReadWriteCB
        LOCFRAME ISTACK, 0, STACK
        LOCFRAME PSTACK, 0, STACK
        LOCFRAME XSTACK, 14, STACK
        LOCFRAME IOVERLAY, 0, STATIC
        LOCFRAME DOVERLAY, 0, STATIC
        ARGFRAME ISTACK, 0, STACK
        ARGFRAME PSTACK, 0, STACK
        ARGFRAME XSTACK, 14, STACK
        ARGFRAME IOVERLAY, 0, STATIC
        ARGFRAME DOVERLAY, 0, STATIC
        REQUIRE ?V0
        REQUIRE ?V2
        REQUIRE ?V3
        REQUIRE ?V4
        REQUIRE ?V5
        MOV       A,#-0xe
        LCALL     ?BANKED_ENTER_XDATA
          CFI DPH0 load(1, XDATA, add(CFA_XSP16, literal(-1)))
          CFI DPL0 load(1, XDATA, add(CFA_XSP16, literal(-2)))
          CFI ?BRET_EXT load(1, XDATA, add(CFA_XSP16, literal(-3)))
          CFI ?RET_HIGH load(1, XDATA, add(CFA_XSP16, literal(-4)))
          CFI ?RET_LOW load(1, XDATA, add(CFA_XSP16, literal(-5)))
          CFI R7 load(1, XDATA, add(CFA_XSP16, literal(-6)))
          CFI V5 load(1, XDATA, add(CFA_XSP16, literal(-7)))
          CFI V4 load(1, XDATA, add(CFA_XSP16, literal(-8)))
          CFI V3 load(1, XDATA, add(CFA_XSP16, literal(-9)))
          CFI V2 load(1, XDATA, add(CFA_XSP16, literal(-10)))
          CFI V1 load(1, XDATA, add(CFA_XSP16, literal(-11)))
          CFI V0 load(1, XDATA, add(CFA_XSP16, literal(-12)))
          CFI VB load(1, XDATA, add(CFA_XSP16, literal(-13)))
          CFI R6 load(1, XDATA, add(CFA_XSP16, literal(-14)))
          CFI CFA_SP SP+0
          CFI CFA_XSP16 add(XSP16, 14)
        ; Saved register size: 14
        ; Auto size: 0
        MOV       ?V0,R1
        MOV       A,R4
        MOV       R6,A
        MOV       A,R5
        MOV       R7,A
// 3523   uint8 status;
// 3524 
// 3525   if ( zcl_AccessCtrlWrite( pAttr->attr.accessControl ) )
        MOV       DPL,R4
        MOV       DPH,A
        INC       DPTR
        INC       DPTR
        INC       DPTR
        INC       DPTR
        INC       DPTR
        MOVX      A,@DPTR
        MOV       C,0xE0 /* A   */.1
        JNC       ??zclWriteAttrDataUsingCB_0
// 3526   {
// 3527     status = zclAuthorizeWrite( endpoint, srcAddr, pAttr );
        ; Setup parameters for call to function zclAuthorizeWrite
        LCALL     `??zclAuthorizeWrite::?relay`; Banked call to: zclAuthorizeWrite
        MOV       A,R1
        MOV       R1,A
// 3528     if ( status == ZCL_STATUS_SUCCESS )
        JNZ       ??zclWriteAttrDataUsingCB_1
// 3529     {
// 3530       zclReadWriteCB_t pfnReadWriteCB = zclGetReadWriteCB( endpoint );
        ; Setup parameters for call to function zclGetReadWriteCB
        MOV       R1,?V0
        LCALL     `??zclGetReadWriteCB::?relay`; Banked call to: zclGetReadWriteCB
        MOV       ?V2,R2
        MOV       ?V3,R3
// 3531       if ( pfnReadWriteCB != NULL )
        MOV       A,R2
        ORL       A,R3
        JZ        ??zclWriteAttrDataUsingCB_2
// 3532       {
// 3533         // Write the attribute value
// 3534         status = (*pfnReadWriteCB)( pAttr->clusterID, pAttr->attr.attrId,
// 3535                                     ZCL_OPER_WRITE, pAttrData, NULL );
        ; Setup parameters for indirect call
        CLR       A
        MOV       ?V4,A
        MOV       ?V5,A
        MOV       R0,#?V4
        LCALL     ?PUSH_XSTACK_I_TWO
          CFI CFA_XSP16 add(XSP16, 16)
        MOV       A,#0x10
        LCALL     ?XSTACK_DISP0_8
        LCALL     ?PUSH_XSTACK8_X_TWO
          CFI CFA_XSP16 add(XSP16, 18)
        MOV       R1,#0x2
        MOV       DPL,R6
        MOV       DPH,R7
        INC       DPTR
        INC       DPTR
        MOVX      A,@DPTR
        MOV       R4,A
        INC       DPTR
        MOVX      A,@DPTR
        MOV       R5,A
        MOV       DPL,R6
        MOV       DPH,R7
        MOVX      A,@DPTR
        MOV       R2,A
        INC       DPTR
        MOVX      A,@DPTR
        MOV       R3,A
        MOV       DPL,?V2
        MOV       DPH,?V3
        LCALL     ?CALL_IND
        MOV       A,#0x4
        LCALL     ?DEALLOC_XSTACK8
          CFI CFA_XSP16 add(XSP16, 14)
        MOV       A,R1
        MOV       R1,A
        SJMP      ??zclWriteAttrDataUsingCB_1
// 3536       }
// 3537       else
// 3538       {
// 3539         status = ZCL_STATUS_SOFTWARE_FAILURE;
??zclWriteAttrDataUsingCB_2:
        MOV       R1,#-0x3f
        SJMP      ??zclWriteAttrDataUsingCB_1
// 3540       }
// 3541     }
// 3542   }
// 3543   else
// 3544   {
// 3545     status = ZCL_STATUS_READ_ONLY;
??zclWriteAttrDataUsingCB_0:
        MOV       R1,#-0x78
// 3546   }
// 3547 
// 3548   return ( status );
??zclWriteAttrDataUsingCB_1:
        MOV       R7,#0x6
        LJMP      ?BANKED_LEAVE_XDATA
// 3549 }
          CFI EndBlock cfiBlock59
// 3550 
// 3551 /*********************************************************************
// 3552  * @fn      zclAuthorizeWrite
// 3553  *
// 3554  * @brief   Use application's callback to authorize a Write operation
// 3555  *          on a given attribute.
// 3556  *
// 3557  * @param   endpoint - application's endpoint
// 3558  * @param   srcAddr - source Address
// 3559  * @param   pAttr - pointer to attribute
// 3560  *
// 3561  * @return  ZCL_STATUS_SUCCESS: Operation authorized
// 3562  *          ZCL_STATUS_NOT_AUTHORIZED: Operation not authorized
// 3563  */

        RSEG BANKED_CODE:HUGECODE:NOROOT(0)
// 3564 static ZStatus_t zclAuthorizeWrite( uint8 endpoint, afAddrType_t *srcAddr, zclAttrRec_t *pAttr )
zclAuthorizeWrite:
          CFI Block cfiBlock60 Using cfiCommon0
          CFI Function zclAuthorizeWrite
        CODE
// 3565 {
        FUNCALL zclAuthorizeWrite, zclGetAuthorizeCB
        LOCFRAME ISTACK, 0, STACK
        LOCFRAME PSTACK, 0, STACK
        LOCFRAME XSTACK, 14, STACK
        LOCFRAME IOVERLAY, 0, STATIC
        LOCFRAME DOVERLAY, 0, STATIC
        ARGFRAME ISTACK, 0, STACK
        ARGFRAME PSTACK, 0, STACK
        ARGFRAME XSTACK, 14, STACK
        ARGFRAME IOVERLAY, 0, STATIC
        ARGFRAME DOVERLAY, 0, STATIC
        REQUIRE ?V0
        REQUIRE ?V1
        REQUIRE ?V2
        REQUIRE ?V4
        REQUIRE ?V5
        MOV       A,#-0xe
        LCALL     ?BANKED_ENTER_XDATA
          CFI DPH0 load(1, XDATA, add(CFA_XSP16, literal(-1)))
          CFI DPL0 load(1, XDATA, add(CFA_XSP16, literal(-2)))
          CFI ?BRET_EXT load(1, XDATA, add(CFA_XSP16, literal(-3)))
          CFI ?RET_HIGH load(1, XDATA, add(CFA_XSP16, literal(-4)))
          CFI ?RET_LOW load(1, XDATA, add(CFA_XSP16, literal(-5)))
          CFI R7 load(1, XDATA, add(CFA_XSP16, literal(-6)))
          CFI V5 load(1, XDATA, add(CFA_XSP16, literal(-7)))
          CFI V4 load(1, XDATA, add(CFA_XSP16, literal(-8)))
          CFI V3 load(1, XDATA, add(CFA_XSP16, literal(-9)))
          CFI V2 load(1, XDATA, add(CFA_XSP16, literal(-10)))
          CFI V1 load(1, XDATA, add(CFA_XSP16, literal(-11)))
          CFI V0 load(1, XDATA, add(CFA_XSP16, literal(-12)))
          CFI VB load(1, XDATA, add(CFA_XSP16, literal(-13)))
          CFI R6 load(1, XDATA, add(CFA_XSP16, literal(-14)))
          CFI CFA_SP SP+0
          CFI CFA_XSP16 add(XSP16, 14)
        ; Saved register size: 14
        ; Auto size: 0
        MOV       A,R2
        MOV       R6,A
        MOV       A,R3
        MOV       R7,A
        MOV       ?V0,R4
        MOV       ?V1,R5
// 3566   if ( zcl_AccessCtrlAuthWrite( pAttr->attr.accessControl ) )
        MOV       DPL,R4
        MOV       DPH,R5
        INC       DPTR
        INC       DPTR
        INC       DPTR
        INC       DPTR
        INC       DPTR
        MOVX      A,@DPTR
        MOV       C,0xE0 /* A   */.5
        JNC       ??zclAuthorizeWrite_0
// 3567   {
// 3568     zclAuthorizeCB_t pfnAuthorizeCB = zclGetAuthorizeCB( endpoint );
        ; Setup parameters for call to function zclGetAuthorizeCB
        LCALL     `??zclGetAuthorizeCB::?relay`; Banked call to: zclGetAuthorizeCB
        MOV       DPL,R2
        MOV       DPH,R3
// 3569 
// 3570     if ( pfnAuthorizeCB != NULL )
        MOV       A,DPL
        ORL       A,DPH
        JZ        ??zclAuthorizeWrite_0
// 3571     {
// 3572       return ( (*pfnAuthorizeCB)( srcAddr, pAttr, ZCL_OPER_WRITE ) );
        ; Setup parameters for indirect call
        MOV       R1,#0x2
        MOV       R4,?V0
        MOV       R5,?V1
        MOV       A,R6
        MOV       R2,A
        MOV       A,R7
        MOV       R3,A
        LCALL     ?CALL_IND
        SJMP      ??zclAuthorizeWrite_1
// 3573     }
// 3574   }
// 3575 
// 3576   return ( ZCL_STATUS_SUCCESS );
??zclAuthorizeWrite_0:
        MOV       R1,#0x0
??zclAuthorizeWrite_1:
        MOV       R7,#0x6
        LJMP      ?BANKED_LEAVE_XDATA
// 3577 }
          CFI EndBlock cfiBlock60
// 3578 #endif // ZCL_WRITE
// 3579 
// 3580 #ifdef ZCL_READ
// 3581 /*********************************************************************
// 3582  * @fn      zclParseInReadCmd
// 3583  *
// 3584  * @brief   Parse the "Profile" Read Commands
// 3585  *
// 3586  *      NOTE: THIS FUNCTION ALLOCATES THE RETURN BUFFER, SO THE CALLING
// 3587  *            FUNCTION IS RESPONSIBLE TO FREE THE MEMORY.
// 3588  *
// 3589  * @param   pCmd - pointer to incoming data to parse
// 3590  *
// 3591  * @return  pointer to the parsed command structure
// 3592  */

        RSEG BANKED_CODE:HUGECODE:NOROOT(0)
// 3593 void *zclParseInReadCmd( zclParseCmd_t *pCmd )
zclParseInReadCmd:
          CFI Block cfiBlock61 Using cfiCommon0
          CFI Function zclParseInReadCmd
        CODE
// 3594 {
        FUNCALL zclParseInReadCmd, osal_mem_alloc
        LOCFRAME ISTACK, 0, STACK
        LOCFRAME PSTACK, 0, STACK
        LOCFRAME XSTACK, 12, STACK
        LOCFRAME IOVERLAY, 0, STATIC
        LOCFRAME DOVERLAY, 0, STATIC
        ARGFRAME ISTACK, 0, STACK
        ARGFRAME PSTACK, 0, STACK
        ARGFRAME XSTACK, 12, STACK
        ARGFRAME IOVERLAY, 0, STATIC
        ARGFRAME DOVERLAY, 0, STATIC
        REQUIRE ?V0
        REQUIRE ?V1
        REQUIRE ?V2
        REQUIRE ?V3
        MOV       A,#-0xc
        LCALL     ?BANKED_ENTER_XDATA
          CFI DPH0 load(1, XDATA, add(CFA_XSP16, literal(-1)))
          CFI DPL0 load(1, XDATA, add(CFA_XSP16, literal(-2)))
          CFI ?BRET_EXT load(1, XDATA, add(CFA_XSP16, literal(-3)))
          CFI ?RET_HIGH load(1, XDATA, add(CFA_XSP16, literal(-4)))
          CFI ?RET_LOW load(1, XDATA, add(CFA_XSP16, literal(-5)))
          CFI R7 load(1, XDATA, add(CFA_XSP16, literal(-6)))
          CFI V3 load(1, XDATA, add(CFA_XSP16, literal(-7)))
          CFI V2 load(1, XDATA, add(CFA_XSP16, literal(-8)))
          CFI V1 load(1, XDATA, add(CFA_XSP16, literal(-9)))
          CFI V0 load(1, XDATA, add(CFA_XSP16, literal(-10)))
          CFI VB load(1, XDATA, add(CFA_XSP16, literal(-11)))
          CFI R6 load(1, XDATA, add(CFA_XSP16, literal(-12)))
          CFI CFA_SP SP+0
          CFI CFA_XSP16 add(XSP16, 12)
        ; Saved register size: 12
        ; Auto size: 0
// 3595   zclReadCmd_t *readCmd;
// 3596   uint8 *pBuf = pCmd->pData;
        MOV       DPL,R2
        MOV       DPH,R3
        INC       DPTR
        INC       DPTR
        INC       DPTR
        MOVX      A,@DPTR
        MOV       R0,A
        INC       DPTR
        MOVX      A,@DPTR
        MOV       R1,A
        MOV       A,R0
        MOV       R6,A
        MOV       A,R1
        MOV       R7,A
// 3597 
// 3598   readCmd = (zclReadCmd_t *)zcl_mem_alloc( sizeof ( zclReadCmd_t ) + pCmd->dataLen );
        MOV       DPL,R2
        MOV       DPH,R3
        INC       DPTR
        MOV       ?V0,DPL
        MOV       ?V1,DPH
        ; Setup parameters for call to function osal_mem_alloc
        MOVX      A,@DPTR
        ADD       A,#0x1
        MOV       R2,A
        INC       DPTR
        MOVX      A,@DPTR
        ADDC      A,#0x0
        MOV       R3,A
        LCALL     `??osal_mem_alloc::?relay`; Banked call to: osal_mem_alloc
// 3599   if ( readCmd != NULL )
        MOV       A,R2
        ORL       A,R3
        JZ        ??zclParseInReadCmd_0
// 3600   {
// 3601     uint8 i;
// 3602     readCmd->numAttr = pCmd->dataLen / 2; // Atrribute ID
        MOV       DPL,?V0
        MOV       DPH,?V1
        MOVX      A,@DPTR
        MOV       R0,A
        INC       DPTR
        MOVX      A,@DPTR
        CLR       C
        RRC       A
        MOV       A,R0
        RRC       A
        MOV       DPL,R2
        MOV       DPH,R3
        MOVX      @DPTR,A
// 3603     for ( i = 0; i < readCmd->numAttr; i++ )
        MOV       R4,#0x0
        SJMP      ??zclParseInReadCmd_1
// 3604     {
// 3605       readCmd->attrID[i] = BUILD_UINT16( pBuf[0], pBuf[1] );
??zclParseInReadCmd_2:
        MOV       DPL,R6
        MOV       DPH,R7
        MOVX      A,@DPTR
        MOV       ?V0,A
        INC       DPTR
        MOVX      A,@DPTR
        MOV       R0,A
        CLR       A
        XCH       A,R0
        MOV       R1,A
        MOV       A,?V0
        ADD       A,R0
        CLR       A
        ADDC      A,R1
        MOV       ?V1,A
        MOV       A,R4
        ADD       A,0xE0 /* A   */
        MOV       R0,A
        CLR       A
        RLC       A
        MOV       R1,A
        MOV       A,R2
        ADD       A,R0
        MOV       DPL,A
        MOV       A,R3
        ADDC      A,R1
        MOV       DPH,A
        INC       DPTR
        MOV       A,?V0
        MOVX      @DPTR,A
        INC       DPTR
        MOV       A,?V1
        MOVX      @DPTR,A
// 3606       pBuf += 2;
        MOV       A,R6
        ADD       A,#0x2
        MOV       R6,A
        JNC       ??zclParseInReadCmd_3
        INC       R7
// 3607     }
??zclParseInReadCmd_3:
        INC       R4
??zclParseInReadCmd_1:
        MOV       DPL,R2
        MOV       DPH,R3
        MOVX      A,@DPTR
        MOV       R0,A
        MOV       A,R4
        CLR       C
        SUBB      A,R0
        JC        ??zclParseInReadCmd_2
// 3608   }
// 3609 
// 3610   return ( (void *)readCmd );
??zclParseInReadCmd_0:
        MOV       R7,#0x4
        LJMP      ?BANKED_LEAVE_XDATA
// 3611 }
          CFI EndBlock cfiBlock61
// 3612 
// 3613 /*********************************************************************
// 3614  * @fn      zclParseInReadRspCmd
// 3615  *
// 3616  * @brief   Parse the "Profile" Read Response Commands
// 3617  *
// 3618  *      NOTE: THIS FUNCTION ALLOCATES THE RETURN BUFFER, SO THE CALLING
// 3619  *            FUNCTION IS RESPONSIBLE TO FREE THE MEMORY.
// 3620  *
// 3621  * @param   pCmd - pointer to incoming data to parse
// 3622  *
// 3623  * @return  pointer to the parsed command structure
// 3624  */

        RSEG BANKED_CODE:HUGECODE:NOROOT(0)
// 3625 static void *zclParseInReadRspCmd( zclParseCmd_t *pCmd )
zclParseInReadRspCmd:
          CFI Block cfiBlock62 Using cfiCommon0
          CFI Function zclParseInReadRspCmd
        CODE
// 3626 {
        FUNCALL zclParseInReadRspCmd, zclGetAttrDataLength
        LOCFRAME ISTACK, 0, STACK
        LOCFRAME PSTACK, 0, STACK
        LOCFRAME XSTACK, 22, STACK
        LOCFRAME IOVERLAY, 0, STATIC
        LOCFRAME DOVERLAY, 0, STATIC
        ARGFRAME ISTACK, 0, STACK
        ARGFRAME PSTACK, 0, STACK
        ARGFRAME XSTACK, 22, STACK
        ARGFRAME IOVERLAY, 0, STATIC
        ARGFRAME DOVERLAY, 0, STATIC
        FUNCALL zclParseInReadRspCmd, osal_mem_alloc
        LOCFRAME ISTACK, 0, STACK
        LOCFRAME PSTACK, 0, STACK
        LOCFRAME XSTACK, 22, STACK
        LOCFRAME IOVERLAY, 0, STATIC
        LOCFRAME DOVERLAY, 0, STATIC
        ARGFRAME ISTACK, 0, STACK
        ARGFRAME PSTACK, 0, STACK
        ARGFRAME XSTACK, 22, STACK
        ARGFRAME IOVERLAY, 0, STATIC
        ARGFRAME DOVERLAY, 0, STATIC
        FUNCALL zclParseInReadRspCmd, zclGetAttrDataLength
        LOCFRAME ISTACK, 0, STACK
        LOCFRAME PSTACK, 0, STACK
        LOCFRAME XSTACK, 22, STACK
        LOCFRAME IOVERLAY, 0, STATIC
        LOCFRAME DOVERLAY, 0, STATIC
        ARGFRAME ISTACK, 0, STACK
        ARGFRAME PSTACK, 0, STACK
        ARGFRAME XSTACK, 22, STACK
        ARGFRAME IOVERLAY, 0, STATIC
        ARGFRAME DOVERLAY, 0, STATIC
        FUNCALL zclParseInReadRspCmd, osal_memcpy
        LOCFRAME ISTACK, 0, STACK
        LOCFRAME PSTACK, 0, STACK
        LOCFRAME XSTACK, 25, STACK
        LOCFRAME IOVERLAY, 0, STATIC
        LOCFRAME DOVERLAY, 0, STATIC
        ARGFRAME ISTACK, 0, STACK
        ARGFRAME PSTACK, 0, STACK
        ARGFRAME XSTACK, 25, STACK
        ARGFRAME IOVERLAY, 0, STATIC
        ARGFRAME DOVERLAY, 0, STATIC
        REQUIRE ?V0
        REQUIRE ?V1
        REQUIRE ?V2
        REQUIRE ?V3
        REQUIRE ?V4
        REQUIRE ?V5
        REQUIRE ?V6
        REQUIRE ?V7
        REQUIRE ?V8
        REQUIRE ?V9
        REQUIRE ?V10
        REQUIRE ?V11
        REQUIRE ?V12
        REQUIRE ?V13
        MOV       A,#-0x16
        LCALL     ?BANKED_ENTER_XDATA
          CFI DPH0 load(1, XDATA, add(CFA_XSP16, literal(-1)))
          CFI DPL0 load(1, XDATA, add(CFA_XSP16, literal(-2)))
          CFI ?BRET_EXT load(1, XDATA, add(CFA_XSP16, literal(-3)))
          CFI ?RET_HIGH load(1, XDATA, add(CFA_XSP16, literal(-4)))
          CFI ?RET_LOW load(1, XDATA, add(CFA_XSP16, literal(-5)))
          CFI R7 load(1, XDATA, add(CFA_XSP16, literal(-6)))
          CFI V13 load(1, XDATA, add(CFA_XSP16, literal(-7)))
          CFI V12 load(1, XDATA, add(CFA_XSP16, literal(-8)))
          CFI V11 load(1, XDATA, add(CFA_XSP16, literal(-9)))
          CFI V10 load(1, XDATA, add(CFA_XSP16, literal(-10)))
          CFI V9 load(1, XDATA, add(CFA_XSP16, literal(-11)))
          CFI V8 load(1, XDATA, add(CFA_XSP16, literal(-12)))
          CFI V7 load(1, XDATA, add(CFA_XSP16, literal(-13)))
          CFI V6 load(1, XDATA, add(CFA_XSP16, literal(-14)))
          CFI V5 load(1, XDATA, add(CFA_XSP16, literal(-15)))
          CFI V4 load(1, XDATA, add(CFA_XSP16, literal(-16)))
          CFI V3 load(1, XDATA, add(CFA_XSP16, literal(-17)))
          CFI V2 load(1, XDATA, add(CFA_XSP16, literal(-18)))
          CFI V1 load(1, XDATA, add(CFA_XSP16, literal(-19)))
          CFI V0 load(1, XDATA, add(CFA_XSP16, literal(-20)))
          CFI VB load(1, XDATA, add(CFA_XSP16, literal(-21)))
          CFI R6 load(1, XDATA, add(CFA_XSP16, literal(-22)))
          CFI CFA_SP SP+0
          CFI CFA_XSP16 add(XSP16, 22)
        ; Saved register size: 22
        ; Auto size: 0
        MOV       ?V8,R2
        MOV       ?V9,R3
// 3627   zclReadRspCmd_t *readRspCmd;
// 3628   uint8 *pBuf = pCmd->pData;
        MOV       A,R2
        ADD       A,#0x3
        MOV       ?V4,A
        CLR       A
        ADDC      A,?V9
        MOV       ?V5,A
        MOV       DPL,?V4
        MOV       DPH,A
        MOVX      A,@DPTR
        MOV       R6,A
        INC       DPTR
        MOVX      A,@DPTR
        MOV       R7,A
// 3629   uint8 *dataPtr;
// 3630   uint8 numAttr = 0;
        MOV       ?V2,#0x0
// 3631   uint8 hdrLen;
// 3632   uint16 dataLen = 0;
        MOV       ?V6,#0x0
        MOV       ?V7,#0x0
        SJMP      ??zclParseInReadRspCmd_0
// 3633   uint16 attrDataLen;
// 3634 
// 3635   // find out the number of attributes and the length of attribute data
// 3636   while ( pBuf < ( pCmd->pData + pCmd->dataLen ) )
// 3637   {
// 3638     uint8 status;
// 3639 
// 3640     numAttr++;
??zclParseInReadRspCmd_1:
        INC       ?V2
// 3641     pBuf += 2; // move pass attribute id
// 3642 
// 3643     status = *pBuf++;
        MOV       DPL,R6
        MOV       DPH,R7
        INC       DPTR
        INC       DPTR
        MOVX      A,@DPTR
        MOV       R0,A
        MOV       A,R6
        ADD       A,#0x3
        MOV       R6,A
        JNC       ??zclParseInReadRspCmd_2
        INC       R7
// 3644     if ( status == ZCL_STATUS_SUCCESS )
??zclParseInReadRspCmd_2:
        MOV       A,R0
        JNZ       ??zclParseInReadRspCmd_0
// 3645     {
// 3646       uint8 dataType = *pBuf++;
        MOV       DPL,R6
        MOV       DPH,R7
        MOVX      A,@DPTR
        MOV       R1,A
        INC       DPTR
        MOV       R6,DPL
        MOV       R7,DPH
// 3647 
// 3648       attrDataLen = zclGetAttrDataLength( dataType, pBuf );
        ; Setup parameters for call to function zclGetAttrDataLength
        MOV       A,R6
        MOV       R2,A
        MOV       A,R7
        MOV       R3,A
        LCALL     `??zclGetAttrDataLength::?relay`; Banked call to: zclGetAttrDataLength
        MOV       ?V0,R2
        MOV       ?V1,R3
// 3649       pBuf += attrDataLen; // move pass attribute data
        MOV       A,R6
        ADD       A,R2
        MOV       R6,A
        MOV       A,R7
        ADDC      A,?V1
        MOV       R7,A
// 3650 
// 3651       // add padding if needed
// 3652       if ( PADDING_NEEDED( attrDataLen ) )
        MOV       A,R2
        MOV       C,0xE0 /* A   */.0
        JNC       ??zclParseInReadRspCmd_3
// 3653       {
// 3654         attrDataLen++;
        INC       ?V0
        INC       A
        JNZ       ??zclParseInReadRspCmd_3
        INC       ?V1
// 3655       }
// 3656 
// 3657       dataLen += attrDataLen;
??zclParseInReadRspCmd_3:
        MOV       A,?V6
        ADD       A,?V0
        MOV       ?V6,A
        MOV       A,?V7
        ADDC      A,?V1
        MOV       ?V7,A
// 3658     }
// 3659   }
??zclParseInReadRspCmd_0:
        MOV       DPL,?V8
        MOV       DPH,?V9
        INC       DPTR
        MOVX      A,@DPTR
        MOV       R0,A
        INC       DPTR
        MOVX      A,@DPTR
        MOV       R1,A
        MOV       DPL,?V4
        MOV       DPH,?V5
        MOVX      A,@DPTR
        ADD       A,R0
        MOV       R0,A
        INC       DPTR
        MOVX      A,@DPTR
        ADDC      A,R1
        MOV       R1,A
        CLR       C
        MOV       A,R6
        SUBB      A,R0
        MOV       A,R7
        SUBB      A,R1
        JC        ??zclParseInReadRspCmd_1
// 3660 
// 3661   // calculate the length of the response header
// 3662   hdrLen = sizeof( zclReadRspCmd_t ) + ( numAttr * sizeof( zclReadRspStatus_t ) );
        MOV       B,#0x6
        MOV       A,?V2
        MUL       AB
        INC       A
        MOV       ?V0,A
// 3663 
// 3664   readRspCmd = (zclReadRspCmd_t *)zcl_mem_alloc( hdrLen + dataLen );
        ; Setup parameters for call to function osal_mem_alloc
        ADD       A,?V6
        MOV       R2,A
        CLR       A
        ADDC      A,?V7
        MOV       R3,A
        LCALL     `??osal_mem_alloc::?relay`; Banked call to: osal_mem_alloc
        MOV       ?V10,R2
        MOV       ?V11,R3
// 3665   if ( readRspCmd != NULL )
        MOV       A,R2
        ORL       A,R3
        JNZ       $+5
        LJMP      ??zclParseInReadRspCmd_4 & 0xFFFF
// 3666   {
// 3667     uint8 i;
// 3668     pBuf = pCmd->pData;
        MOV       DPL,?V4
        MOV       DPH,?V5
        MOVX      A,@DPTR
        MOV       R6,A
        INC       DPTR
        MOVX      A,@DPTR
        MOV       R7,A
// 3669     dataPtr = (uint8 *)( (uint8 *)readRspCmd + hdrLen );
        MOV       R0,?V0
        MOV       A,R2
        ADD       A,R0
        MOV       ?V8,A
        CLR       A
        ADDC      A,R3
        MOV       ?V9,A
// 3670 
// 3671     readRspCmd->numAttr = numAttr;
        MOV       DPL,R2
        MOV       DPH,R3
        MOV       A,?V2
        MOVX      @DPTR,A
// 3672     for ( i = 0; i < numAttr; i++ )
        MOV       ?V3,#0x0
        LJMP      ??zclParseInReadRspCmd_5 & 0xFFFF
// 3673     {
// 3674       zclReadRspStatus_t *statusRec = &(readRspCmd->attrList[i]);
??zclParseInReadRspCmd_6:
        MOV       A,?V3
        MOV       B,#0x6
        MUL       AB
        MOV       R0,A
        MOV       R1,B
        MOV       A,?V10
        ADD       A,R0
        MOV       DPL,A
        MOV       A,?V11
        ADDC      A,R1
        MOV       DPH,A
        INC       DPTR
        MOV       ?V12,DPL
        MOV       ?V13,DPH
// 3675 
// 3676       statusRec->attrID = BUILD_UINT16( pBuf[0], pBuf[1] );
        MOV       DPL,R6
        MOV       DPH,R7
        MOVX      A,@DPTR
        MOV       R2,A
        INC       DPTR
        MOVX      A,@DPTR
        MOV       R1,A
        MOV       A,R2
        MOV       DPL,?V12
        MOV       DPH,?V13
        MOVX      @DPTR,A
        INC       DPTR
        MOV       A,R1
        MOVX      @DPTR,A
// 3677       pBuf += 2;
// 3678 
// 3679       statusRec->status = *pBuf++;
        MOV       DPL,R6
        MOV       DPH,R7
        INC       DPTR
        INC       DPTR
        MOVX      A,@DPTR
        MOV       R0,A
        MOV       DPL,?V12
        MOV       DPH,?V13
        INC       DPTR
        INC       DPTR
        MOVX      @DPTR,A
        MOV       A,R6
        ADD       A,#0x3
        MOV       R6,A
        JNC       ??zclParseInReadRspCmd_7
        INC       R7
// 3680       if ( statusRec->status == ZCL_STATUS_SUCCESS )
??zclParseInReadRspCmd_7:
        MOV       A,R0
        JNZ       ??zclParseInReadRspCmd_8
// 3681       {
// 3682         statusRec->dataType = *pBuf++;
        MOV       DPL,R6
        MOV       DPH,R7
        MOVX      A,@DPTR
        MOV       R1,A
        MOV       DPL,?V12
        MOV       DPH,?V13
        INC       DPTR
        INC       DPTR
        INC       DPTR
        MOVX      @DPTR,A
        MOV       DPL,R6
        MOV       DPH,R7
        INC       DPTR
        MOV       R6,DPL
        MOV       R7,DPH
// 3683 
// 3684         attrDataLen = zclGetAttrDataLength( statusRec->dataType, pBuf );
        ; Setup parameters for call to function zclGetAttrDataLength
        MOV       A,R6
        MOV       R2,A
        MOV       A,R7
        MOV       R3,A
        LCALL     `??zclGetAttrDataLength::?relay`; Banked call to: zclGetAttrDataLength
        MOV       ?V0,R2
        MOV       ?V1,R3
// 3685         zcl_memcpy( dataPtr, pBuf, attrDataLen);
        ; Setup parameters for call to function osal_memcpy
        MOV       ?V4,R6
        MOV       ?V5,R7
        MOV       ?V6,#0x0
        MOV       R0,#?V4
        LCALL     ?PUSH_XSTACK_I_THREE
          CFI CFA_XSP16 add(XSP16, 25)
        MOV       R4,?V0
        MOV       R5,?V1
        MOV       R2,?V8
        MOV       R3,?V9
        LCALL     `??osal_memcpy::?relay`; Banked call to: osal_memcpy
        MOV       A,#0x3
        LCALL     ?DEALLOC_XSTACK8
          CFI CFA_XSP16 add(XSP16, 22)
// 3686         statusRec->data = dataPtr;
        MOV       DPL,?V12
        MOV       DPH,?V13
        INC       DPTR
        INC       DPTR
        INC       DPTR
        INC       DPTR
        MOV       A,?V8
        MOVX      @DPTR,A
        INC       DPTR
        MOV       A,?V9
        MOVX      @DPTR,A
// 3687 
// 3688         pBuf += attrDataLen; // move pass attribute data
        MOV       A,R6
        ADD       A,?V0
        MOV       R6,A
        MOV       A,R7
        ADDC      A,?V1
        MOV       R7,A
// 3689 
// 3690         // advance attribute data pointer
// 3691         if ( PADDING_NEEDED( attrDataLen ) )
        MOV       A,?V0
        MOV       C,0xE0 /* A   */.0
        JNC       ??zclParseInReadRspCmd_9
// 3692         {
// 3693           attrDataLen++;
        INC       ?V0
        INC       A
        JNZ       ??zclParseInReadRspCmd_9
        INC       ?V1
// 3694         }
// 3695 
// 3696         dataPtr += attrDataLen;
??zclParseInReadRspCmd_9:
        MOV       A,?V8
        ADD       A,?V0
        MOV       ?V8,A
        MOV       A,?V9
        ADDC      A,?V1
        MOV       ?V9,A
// 3697       }
// 3698     }
??zclParseInReadRspCmd_8:
        INC       ?V3
??zclParseInReadRspCmd_5:
        MOV       A,?V3
        CLR       C
        SUBB      A,?V2
        JNC       $+5
        LJMP      ??zclParseInReadRspCmd_6 & 0xFFFF
// 3699   }
// 3700 
// 3701   return ( (void *)readRspCmd );
??zclParseInReadRspCmd_4:
        MOV       R2,?V10
        MOV       R3,?V11
        MOV       R7,#0xe
        LJMP      ?BANKED_LEAVE_XDATA
// 3702 }
          CFI EndBlock cfiBlock62
// 3703 #endif // ZCL_READ
// 3704 
// 3705 #ifdef ZCL_WRITE
// 3706 /*********************************************************************
// 3707  * @fn      zclParseInWriteCmd
// 3708  *
// 3709  * @brief   Parse the "Profile" Write, Write Undivided and Write No
// 3710  *          Response Commands
// 3711  *
// 3712  *      NOTE: THIS FUNCTION ALLOCATES THE RETURN BUFFER, SO THE CALLING
// 3713  *            FUNCTION IS RESPONSIBLE TO FREE THE MEMORY.
// 3714  *
// 3715  * @param   pCmd - pointer to incoming data to parse
// 3716  *
// 3717  * @return  pointer to the parsed command structure
// 3718  */

        RSEG BANKED_CODE:HUGECODE:NOROOT(0)
// 3719 void *zclParseInWriteCmd( zclParseCmd_t *pCmd )
zclParseInWriteCmd:
          CFI Block cfiBlock63 Using cfiCommon0
          CFI Function zclParseInWriteCmd
        CODE
// 3720 {
        FUNCALL zclParseInWriteCmd, zclGetAttrDataLength
        LOCFRAME ISTACK, 0, STACK
        LOCFRAME PSTACK, 0, STACK
        LOCFRAME XSTACK, 22, STACK
        LOCFRAME IOVERLAY, 0, STATIC
        LOCFRAME DOVERLAY, 0, STATIC
        ARGFRAME ISTACK, 0, STACK
        ARGFRAME PSTACK, 0, STACK
        ARGFRAME XSTACK, 22, STACK
        ARGFRAME IOVERLAY, 0, STATIC
        ARGFRAME DOVERLAY, 0, STATIC
        FUNCALL zclParseInWriteCmd, osal_mem_alloc
        LOCFRAME ISTACK, 0, STACK
        LOCFRAME PSTACK, 0, STACK
        LOCFRAME XSTACK, 22, STACK
        LOCFRAME IOVERLAY, 0, STATIC
        LOCFRAME DOVERLAY, 0, STATIC
        ARGFRAME ISTACK, 0, STACK
        ARGFRAME PSTACK, 0, STACK
        ARGFRAME XSTACK, 22, STACK
        ARGFRAME IOVERLAY, 0, STATIC
        ARGFRAME DOVERLAY, 0, STATIC
        FUNCALL zclParseInWriteCmd, zclGetAttrDataLength
        LOCFRAME ISTACK, 0, STACK
        LOCFRAME PSTACK, 0, STACK
        LOCFRAME XSTACK, 22, STACK
        LOCFRAME IOVERLAY, 0, STATIC
        LOCFRAME DOVERLAY, 0, STATIC
        ARGFRAME ISTACK, 0, STACK
        ARGFRAME PSTACK, 0, STACK
        ARGFRAME XSTACK, 22, STACK
        ARGFRAME IOVERLAY, 0, STATIC
        ARGFRAME DOVERLAY, 0, STATIC
        FUNCALL zclParseInWriteCmd, osal_memcpy
        LOCFRAME ISTACK, 0, STACK
        LOCFRAME PSTACK, 0, STACK
        LOCFRAME XSTACK, 25, STACK
        LOCFRAME IOVERLAY, 0, STATIC
        LOCFRAME DOVERLAY, 0, STATIC
        ARGFRAME ISTACK, 0, STACK
        ARGFRAME PSTACK, 0, STACK
        ARGFRAME XSTACK, 25, STACK
        ARGFRAME IOVERLAY, 0, STATIC
        ARGFRAME DOVERLAY, 0, STATIC
        REQUIRE ?V0
        REQUIRE ?V1
        REQUIRE ?V2
        REQUIRE ?V3
        REQUIRE ?V4
        REQUIRE ?V5
        REQUIRE ?V6
        REQUIRE ?V7
        REQUIRE ?V8
        REQUIRE ?V9
        REQUIRE ?V10
        REQUIRE ?V11
        REQUIRE ?V12
        REQUIRE ?V13
        MOV       A,#-0x16
        LCALL     ?BANKED_ENTER_XDATA
          CFI DPH0 load(1, XDATA, add(CFA_XSP16, literal(-1)))
          CFI DPL0 load(1, XDATA, add(CFA_XSP16, literal(-2)))
          CFI ?BRET_EXT load(1, XDATA, add(CFA_XSP16, literal(-3)))
          CFI ?RET_HIGH load(1, XDATA, add(CFA_XSP16, literal(-4)))
          CFI ?RET_LOW load(1, XDATA, add(CFA_XSP16, literal(-5)))
          CFI R7 load(1, XDATA, add(CFA_XSP16, literal(-6)))
          CFI V13 load(1, XDATA, add(CFA_XSP16, literal(-7)))
          CFI V12 load(1, XDATA, add(CFA_XSP16, literal(-8)))
          CFI V11 load(1, XDATA, add(CFA_XSP16, literal(-9)))
          CFI V10 load(1, XDATA, add(CFA_XSP16, literal(-10)))
          CFI V9 load(1, XDATA, add(CFA_XSP16, literal(-11)))
          CFI V8 load(1, XDATA, add(CFA_XSP16, literal(-12)))
          CFI V7 load(1, XDATA, add(CFA_XSP16, literal(-13)))
          CFI V6 load(1, XDATA, add(CFA_XSP16, literal(-14)))
          CFI V5 load(1, XDATA, add(CFA_XSP16, literal(-15)))
          CFI V4 load(1, XDATA, add(CFA_XSP16, literal(-16)))
          CFI V3 load(1, XDATA, add(CFA_XSP16, literal(-17)))
          CFI V2 load(1, XDATA, add(CFA_XSP16, literal(-18)))
          CFI V1 load(1, XDATA, add(CFA_XSP16, literal(-19)))
          CFI V0 load(1, XDATA, add(CFA_XSP16, literal(-20)))
          CFI VB load(1, XDATA, add(CFA_XSP16, literal(-21)))
          CFI R6 load(1, XDATA, add(CFA_XSP16, literal(-22)))
          CFI CFA_SP SP+0
          CFI CFA_XSP16 add(XSP16, 22)
        ; Saved register size: 22
        ; Auto size: 0
        MOV       ?V8,R2
        MOV       ?V9,R3
// 3721   zclWriteCmd_t *writeCmd;
// 3722   uint8 *pBuf = pCmd->pData;
        MOV       A,R2
        ADD       A,#0x3
        MOV       ?V2,A
        CLR       A
        ADDC      A,?V9
        MOV       ?V3,A
        MOV       DPL,?V2
        MOV       DPH,A
        MOVX      A,@DPTR
        MOV       ?V0,A
        INC       DPTR
        MOVX      A,@DPTR
        MOV       ?V1,A
// 3723   uint16 attrDataLen;
// 3724   uint8 *dataPtr;
// 3725   uint8 numAttr = 0;
        MOV       ?V7,#0x0
// 3726   uint8 hdrLen;
// 3727   uint16 dataLen = 0;
        MOV       ?V4,#0x0
        MOV       ?V5,#0x0
        SJMP      ??zclParseInWriteCmd_0
// 3728 
// 3729   // find out the number of attributes and the length of attribute data
// 3730   while ( pBuf < ( pCmd->pData + pCmd->dataLen ) )
// 3731   {
// 3732     uint8 dataType;
// 3733 
// 3734     numAttr++;
??zclParseInWriteCmd_1:
        INC       ?V7
// 3735     pBuf += 2; // move pass attribute id
// 3736 
// 3737     dataType = *pBuf++;
        MOV       DPL,?V0
        MOV       DPH,?V1
        INC       DPTR
        INC       DPTR
        MOVX      A,@DPTR
        MOV       R1,A
        MOV       A,?V0
        ADD       A,#0x3
        MOV       ?V0,A
        JNC       ??zclParseInWriteCmd_2
        INC       ?V1
// 3738 
// 3739     attrDataLen = zclGetAttrDataLength( dataType, pBuf );
??zclParseInWriteCmd_2:
        ; Setup parameters for call to function zclGetAttrDataLength
        MOV       R2,A
        MOV       R3,?V1
        LCALL     `??zclGetAttrDataLength::?relay`; Banked call to: zclGetAttrDataLength
        MOV       ?V10,R2
        MOV       ?V11,R3
        MOV       R6,?V10
        MOV       R7,?V11
// 3740     pBuf += attrDataLen; // move pass attribute data
        MOV       A,?V0
        ADD       A,R2
        MOV       ?V0,A
        MOV       A,?V1
        ADDC      A,R7
        MOV       ?V1,A
// 3741 
// 3742     // add padding if needed
// 3743     if ( PADDING_NEEDED( attrDataLen ) )
        MOV       A,R2
        MOV       C,0xE0 /* A   */.0
        JNC       ??zclParseInWriteCmd_3
// 3744     {
// 3745       attrDataLen++;
        INC       R6
        INC       A
        JNZ       ??zclParseInWriteCmd_3
        INC       R7
// 3746     }
// 3747 
// 3748     dataLen += attrDataLen;
??zclParseInWriteCmd_3:
        MOV       A,?V4
        ADD       A,R6
        MOV       ?V4,A
        MOV       A,?V5
        ADDC      A,R7
        MOV       ?V5,A
// 3749   }
??zclParseInWriteCmd_0:
        MOV       DPL,?V8
        MOV       DPH,?V9
        INC       DPTR
        MOVX      A,@DPTR
        MOV       R0,A
        INC       DPTR
        MOVX      A,@DPTR
        MOV       R1,A
        MOV       DPL,?V2
        MOV       DPH,?V3
        MOVX      A,@DPTR
        ADD       A,R0
        MOV       R0,A
        INC       DPTR
        MOVX      A,@DPTR
        ADDC      A,R1
        MOV       R1,A
        CLR       C
        MOV       A,?V0
        SUBB      A,R0
        MOV       A,?V1
        SUBB      A,R1
        JC        ??zclParseInWriteCmd_1
// 3750 
// 3751   // calculate the length of the response header
// 3752   hdrLen = sizeof( zclWriteCmd_t ) + ( numAttr * sizeof( zclWriteRec_t ) );
        MOV       B,#0x5
        MOV       A,?V7
        MUL       AB
        INC       A
        MOV       R6,A
// 3753 
// 3754   writeCmd = (zclWriteCmd_t *)zcl_mem_alloc( hdrLen + dataLen );
        ; Setup parameters for call to function osal_mem_alloc
        ADD       A,?V4
        MOV       R2,A
        CLR       A
        ADDC      A,?V5
        MOV       R3,A
        LCALL     `??osal_mem_alloc::?relay`; Banked call to: osal_mem_alloc
        MOV       ?V10,R2
        MOV       ?V11,R3
// 3755   if ( writeCmd != NULL )
        MOV       A,R2
        ORL       A,R3
        JNZ       $+5
        LJMP      ??zclParseInWriteCmd_4 & 0xFFFF
// 3756   {
// 3757     uint8 i;
// 3758     pBuf = pCmd->pData;
        MOV       DPL,?V2
        MOV       DPH,?V3
        MOVX      A,@DPTR
        MOV       ?V0,A
        INC       DPTR
        MOVX      A,@DPTR
        MOV       ?V1,A
// 3759     dataPtr = (uint8 *)( (uint8 *)writeCmd + hdrLen );
        MOV       A,R2
        ADD       A,R6
        MOV       ?V2,A
        CLR       A
        ADDC      A,R3
        MOV       ?V3,A
// 3760 
// 3761     writeCmd->numAttr = numAttr;
        MOV       DPL,R2
        MOV       DPH,R3
        MOV       A,?V7
        MOVX      @DPTR,A
// 3762     for ( i = 0; i < numAttr; i++ )
        MOV       ?V8,#0x0
        LJMP      ??zclParseInWriteCmd_5 & 0xFFFF
// 3763     {
// 3764       zclWriteRec_t *statusRec = &(writeCmd->attrList[i]);
??zclParseInWriteCmd_6:
        MOV       A,?V8
        MOV       B,#0x5
        MUL       AB
        MOV       R0,A
        MOV       R1,B
        MOV       A,?V10
        ADD       A,R0
        MOV       DPL,A
        MOV       A,?V11
        ADDC      A,R1
        MOV       DPH,A
        INC       DPTR
        MOV       ?V12,DPL
        MOV       ?V13,DPH
// 3765 
// 3766       statusRec->attrID = BUILD_UINT16( pBuf[0], pBuf[1] );
        MOV       DPL,?V0
        MOV       DPH,?V1
        MOVX      A,@DPTR
        MOV       R2,A
        INC       DPTR
        MOVX      A,@DPTR
        MOV       R1,A
        MOV       A,R2
        MOV       DPL,?V12
        MOV       DPH,?V13
        MOVX      @DPTR,A
        INC       DPTR
        MOV       A,R1
        MOVX      @DPTR,A
// 3767       pBuf += 2;
// 3768       statusRec->dataType = *pBuf++;
        MOV       DPL,?V0
        MOV       DPH,?V1
        INC       DPTR
        INC       DPTR
        MOVX      A,@DPTR
        MOV       R1,A
        MOV       DPL,?V12
        MOV       DPH,?V13
        INC       DPTR
        INC       DPTR
        MOVX      @DPTR,A
        MOV       A,?V0
        ADD       A,#0x3
        MOV       ?V0,A
        JNC       ??zclParseInWriteCmd_7
        INC       ?V1
// 3769 
// 3770       attrDataLen = zclGetAttrDataLength( statusRec->dataType, pBuf );
??zclParseInWriteCmd_7:
        ; Setup parameters for call to function zclGetAttrDataLength
        MOV       R2,A
        MOV       R3,?V1
        LCALL     `??zclGetAttrDataLength::?relay`; Banked call to: zclGetAttrDataLength
        MOV       ?V4,R2
        MOV       ?V5,R3
        MOV       R6,?V4
        MOV       R7,?V5
// 3771       zcl_memcpy( dataPtr, pBuf, attrDataLen);
        ; Setup parameters for call to function osal_memcpy
        MOV       ?V4,?V0
        MOV       ?V5,?V1
        MOV       ?V6,#0x0
        MOV       R0,#?V4
        LCALL     ?PUSH_XSTACK_I_THREE
          CFI CFA_XSP16 add(XSP16, 25)
        MOV       A,R2
        MOV       R4,A
        MOV       A,R3
        MOV       R5,A
        MOV       R2,?V2
        MOV       R3,?V3
        LCALL     `??osal_memcpy::?relay`; Banked call to: osal_memcpy
        MOV       A,#0x3
        LCALL     ?DEALLOC_XSTACK8
          CFI CFA_XSP16 add(XSP16, 22)
// 3772       statusRec->attrData = dataPtr;
        MOV       DPL,?V12
        MOV       DPH,?V13
        INC       DPTR
        INC       DPTR
        INC       DPTR
        MOV       A,?V2
        MOVX      @DPTR,A
        INC       DPTR
        MOV       A,?V3
        MOVX      @DPTR,A
// 3773 
// 3774       pBuf += attrDataLen; // move pass attribute data
        MOV       A,?V0
        ADD       A,R6
        MOV       ?V0,A
        MOV       A,?V1
        ADDC      A,R7
        MOV       ?V1,A
// 3775 
// 3776       // advance attribute data pointer
// 3777       if ( PADDING_NEEDED( attrDataLen ) )
        MOV       A,R6
        MOV       C,0xE0 /* A   */.0
        JNC       ??zclParseInWriteCmd_8
// 3778       {
// 3779         attrDataLen++;
        INC       R6
        INC       A
        JNZ       ??zclParseInWriteCmd_8
        INC       R7
// 3780       }
// 3781 
// 3782       dataPtr += attrDataLen;
??zclParseInWriteCmd_8:
        MOV       A,?V2
        ADD       A,R6
        MOV       ?V2,A
        MOV       A,?V3
        ADDC      A,R7
        MOV       ?V3,A
// 3783     }
        INC       ?V8
??zclParseInWriteCmd_5:
        MOV       A,?V8
        CLR       C
        SUBB      A,?V7
        JNC       $+5
        LJMP      ??zclParseInWriteCmd_6 & 0xFFFF
// 3784   }
// 3785 
// 3786   return ( (void *)writeCmd );
??zclParseInWriteCmd_4:
        MOV       R2,?V10
        MOV       R3,?V11
        MOV       R7,#0xe
        LJMP      ?BANKED_LEAVE_XDATA
// 3787 }
          CFI EndBlock cfiBlock63
// 3788 
// 3789 /*********************************************************************
// 3790  * @fn      zclParseInWriteRspCmd
// 3791  *
// 3792  * @brief   Parse the "Profile" Write Response Commands
// 3793  *
// 3794  *      NOTE: THIS FUNCTION ALLOCATES THE RETURN BUFFER, SO THE CALLING
// 3795  *            FUNCTION IS RESPONSIBLE TO FREE THE MEMORY.
// 3796  *
// 3797  * @param   pCmd - pointer to incoming data to parse
// 3798  *
// 3799  * @return  pointer to the parsed command structure
// 3800  */

        RSEG BANKED_CODE:HUGECODE:NOROOT(0)
// 3801 static void *zclParseInWriteRspCmd( zclParseCmd_t *pCmd )
zclParseInWriteRspCmd:
          CFI Block cfiBlock64 Using cfiCommon0
          CFI Function zclParseInWriteRspCmd
        CODE
// 3802 {
        FUNCALL zclParseInWriteRspCmd, osal_mem_alloc
        LOCFRAME ISTACK, 0, STACK
        LOCFRAME PSTACK, 0, STACK
        LOCFRAME XSTACK, 16, STACK
        LOCFRAME IOVERLAY, 0, STATIC
        LOCFRAME DOVERLAY, 0, STATIC
        ARGFRAME ISTACK, 0, STACK
        ARGFRAME PSTACK, 0, STACK
        ARGFRAME XSTACK, 16, STACK
        ARGFRAME IOVERLAY, 0, STATIC
        ARGFRAME DOVERLAY, 0, STATIC
        REQUIRE ?V0
        REQUIRE ?V1
        REQUIRE ?V2
        REQUIRE ?V3
        REQUIRE ?V4
        REQUIRE ?V5
        REQUIRE ?V6
        REQUIRE ?V7
        MOV       A,#-0x10
        LCALL     ?BANKED_ENTER_XDATA
          CFI DPH0 load(1, XDATA, add(CFA_XSP16, literal(-1)))
          CFI DPL0 load(1, XDATA, add(CFA_XSP16, literal(-2)))
          CFI ?BRET_EXT load(1, XDATA, add(CFA_XSP16, literal(-3)))
          CFI ?RET_HIGH load(1, XDATA, add(CFA_XSP16, literal(-4)))
          CFI ?RET_LOW load(1, XDATA, add(CFA_XSP16, literal(-5)))
          CFI R7 load(1, XDATA, add(CFA_XSP16, literal(-6)))
          CFI V7 load(1, XDATA, add(CFA_XSP16, literal(-7)))
          CFI V6 load(1, XDATA, add(CFA_XSP16, literal(-8)))
          CFI V5 load(1, XDATA, add(CFA_XSP16, literal(-9)))
          CFI V4 load(1, XDATA, add(CFA_XSP16, literal(-10)))
          CFI V3 load(1, XDATA, add(CFA_XSP16, literal(-11)))
          CFI V2 load(1, XDATA, add(CFA_XSP16, literal(-12)))
          CFI V1 load(1, XDATA, add(CFA_XSP16, literal(-13)))
          CFI V0 load(1, XDATA, add(CFA_XSP16, literal(-14)))
          CFI VB load(1, XDATA, add(CFA_XSP16, literal(-15)))
          CFI R6 load(1, XDATA, add(CFA_XSP16, literal(-16)))
          CFI CFA_SP SP+0
          CFI CFA_XSP16 add(XSP16, 16)
        ; Saved register size: 16
        ; Auto size: 0
// 3803   zclWriteRspCmd_t *writeRspCmd;
// 3804   uint8 *pBuf = pCmd->pData;
        MOV       A,R2
        ADD       A,#0x3
        MOV       ?V2,A
        CLR       A
        ADDC      A,R3
        MOV       ?V3,A
        MOV       DPL,?V2
        MOV       DPH,A
        MOVX      A,@DPTR
        MOV       R6,A
        INC       DPTR
        MOVX      A,@DPTR
        MOV       R7,A
// 3805   uint8 i = 0;
        MOV       ?V4,#0x0
// 3806 
// 3807   writeRspCmd = (zclWriteRspCmd_t *)zcl_mem_alloc( sizeof ( zclWriteRspCmd_t ) + pCmd->dataLen );
        MOV       DPL,R2
        MOV       DPH,R3
        INC       DPTR
        MOV       ?V0,DPL
        MOV       ?V1,DPH
        ; Setup parameters for call to function osal_mem_alloc
        MOVX      A,@DPTR
        ADD       A,#0x1
        MOV       R2,A
        INC       DPTR
        MOVX      A,@DPTR
        ADDC      A,#0x0
        MOV       R3,A
        LCALL     `??osal_mem_alloc::?relay`; Banked call to: osal_mem_alloc
// 3808   if ( writeRspCmd != NULL )
        MOV       A,R2
        ORL       A,R3
        JNZ       $+5
        LJMP      ??zclParseInWriteRspCmd_0 & 0xFFFF
// 3809   {
// 3810     if ( pCmd->dataLen == 1 )
        MOV       DPL,?V0
        MOV       DPH,?V1
        MOVX      A,@DPTR
        XRL       A,#0x1
        JNZ       ??zclParseInWriteRspCmd_1
        INC       DPTR
        MOVX      A,@DPTR
??zclParseInWriteRspCmd_1:
        JNZ       ??zclParseInWriteRspCmd_2
// 3811     {
// 3812       // special case when all writes were successfull
// 3813       writeRspCmd->attrList[i++].status = *pBuf;
        MOV       DPL,R6
        MOV       DPH,R7
        MOVX      A,@DPTR
        MOV       DPL,R2
        MOV       DPH,R3
        INC       DPTR
        MOVX      @DPTR,A
        MOV       ?V4,#0x1
        SJMP      ??zclParseInWriteRspCmd_3
// 3814     }
// 3815     else
// 3816     {
// 3817       while ( pBuf < ( pCmd->pData + pCmd->dataLen ) )
// 3818       {
// 3819         writeRspCmd->attrList[i].status = *pBuf++;
??zclParseInWriteRspCmd_4:
        MOV       A,?V4
        MOV       B,#0x3
        MUL       AB
        MOV       R0,A
        MOV       R1,B
        MOV       A,R2
        ADD       A,R0
        MOV       R0,A
        MOV       A,R3
        ADDC      A,R1
        MOV       R1,A
        MOV       DPL,R6
        MOV       DPH,R7
        MOVX      A,@DPTR
        MOV       DPL,R0
        MOV       DPH,R1
        INC       DPTR
        MOVX      @DPTR,A
        MOV       DPL,R6
        MOV       DPH,R7
        INC       DPTR
        MOV       R6,DPL
        MOV       R7,DPH
// 3820         writeRspCmd->attrList[i++].attrID = BUILD_UINT16( pBuf[0], pBuf[1] );
        MOVX      A,@DPTR
        MOV       ?V6,A
        INC       DPTR
        MOVX      A,@DPTR
        MOV       R5,A
        MOV       A,?V6
        MOV       DPL,R0
        MOV       DPH,R1
        INC       DPTR
        INC       DPTR
        MOVX      @DPTR,A
        INC       DPTR
        MOV       A,R5
        MOVX      @DPTR,A
        INC       ?V4
// 3821         pBuf += 2;
        MOV       A,R6
        ADD       A,#0x2
        MOV       R6,A
        JNC       ??zclParseInWriteRspCmd_2
        INC       R7
// 3822       }
??zclParseInWriteRspCmd_2:
        MOV       DPL,?V0
        MOV       DPH,?V1
        MOVX      A,@DPTR
        MOV       R0,A
        INC       DPTR
        MOVX      A,@DPTR
        MOV       R1,A
        MOV       DPL,?V2
        MOV       DPH,?V3
        MOVX      A,@DPTR
        ADD       A,R0
        MOV       R0,A
        INC       DPTR
        MOVX      A,@DPTR
        ADDC      A,R1
        MOV       R1,A
        CLR       C
        MOV       A,R6
        SUBB      A,R0
        MOV       A,R7
        SUBB      A,R1
        JC        ??zclParseInWriteRspCmd_4
// 3823     }
// 3824 
// 3825     writeRspCmd->numAttr = i;
??zclParseInWriteRspCmd_3:
        MOV       DPL,R2
        MOV       DPH,R3
        MOV       A,?V4
        MOVX      @DPTR,A
// 3826   }
// 3827 
// 3828   return ( (void *)writeRspCmd );
??zclParseInWriteRspCmd_0:
        MOV       R7,#0x8
        LJMP      ?BANKED_LEAVE_XDATA
// 3829 }
          CFI EndBlock cfiBlock64
// 3830 #endif // ZCL_WRITE
// 3831 
// 3832 #ifdef ZCL_REPORTING_DEVICE
// 3833 /*********************************************************************
// 3834  * @fn      zclParseInConfigReportCmd
// 3835  *
// 3836  * @brief   Parse the "Profile" Configure Reporting Command
// 3837  *
// 3838  *      NOTE: THIS FUNCTION ALLOCATES THE RETURN BUFFER, SO THE CALLING
// 3839  *            FUNCTION IS RESPONSIBLE TO FREE THE MEMORY.
// 3840  *
// 3841  * @param   pCmd - pointer to incoming data to parse
// 3842  *
// 3843  * @return  pointer to the parsed command structure
// 3844  */

        RSEG BANKED_CODE:HUGECODE:NOROOT(0)
// 3845 void *zclParseInConfigReportCmd( zclParseCmd_t *pCmd )
zclParseInConfigReportCmd:
          CFI Block cfiBlock65 Using cfiCommon0
          CFI Function zclParseInConfigReportCmd
        CODE
// 3846 {
        FUNCALL zclParseInConfigReportCmd, zclAnalogDataType
        LOCFRAME ISTACK, 0, STACK
        LOCFRAME PSTACK, 0, STACK
        LOCFRAME XSTACK, 18, STACK
        LOCFRAME IOVERLAY, 0, STATIC
        LOCFRAME DOVERLAY, 0, STATIC
        ARGFRAME ISTACK, 0, STACK
        ARGFRAME PSTACK, 0, STACK
        ARGFRAME XSTACK, 18, STACK
        ARGFRAME IOVERLAY, 0, STATIC
        ARGFRAME DOVERLAY, 0, STATIC
        FUNCALL zclParseInConfigReportCmd, zclGetDataTypeLength
        LOCFRAME ISTACK, 0, STACK
        LOCFRAME PSTACK, 0, STACK
        LOCFRAME XSTACK, 18, STACK
        LOCFRAME IOVERLAY, 0, STATIC
        LOCFRAME DOVERLAY, 0, STATIC
        ARGFRAME ISTACK, 0, STACK
        ARGFRAME PSTACK, 0, STACK
        ARGFRAME XSTACK, 18, STACK
        ARGFRAME IOVERLAY, 0, STATIC
        ARGFRAME DOVERLAY, 0, STATIC
        FUNCALL zclParseInConfigReportCmd, osal_mem_alloc
        LOCFRAME ISTACK, 0, STACK
        LOCFRAME PSTACK, 0, STACK
        LOCFRAME XSTACK, 18, STACK
        LOCFRAME IOVERLAY, 0, STATIC
        LOCFRAME DOVERLAY, 0, STATIC
        ARGFRAME ISTACK, 0, STACK
        ARGFRAME PSTACK, 0, STACK
        ARGFRAME XSTACK, 18, STACK
        ARGFRAME IOVERLAY, 0, STATIC
        ARGFRAME DOVERLAY, 0, STATIC
        FUNCALL zclParseInConfigReportCmd, osal_memset
        LOCFRAME ISTACK, 0, STACK
        LOCFRAME PSTACK, 0, STACK
        LOCFRAME XSTACK, 18, STACK
        LOCFRAME IOVERLAY, 0, STATIC
        LOCFRAME DOVERLAY, 0, STATIC
        ARGFRAME ISTACK, 0, STACK
        ARGFRAME PSTACK, 0, STACK
        ARGFRAME XSTACK, 18, STACK
        ARGFRAME IOVERLAY, 0, STATIC
        ARGFRAME DOVERLAY, 0, STATIC
        FUNCALL zclParseInConfigReportCmd, zclAnalogDataType
        LOCFRAME ISTACK, 0, STACK
        LOCFRAME PSTACK, 0, STACK
        LOCFRAME XSTACK, 18, STACK
        LOCFRAME IOVERLAY, 0, STATIC
        LOCFRAME DOVERLAY, 0, STATIC
        ARGFRAME ISTACK, 0, STACK
        ARGFRAME PSTACK, 0, STACK
        ARGFRAME XSTACK, 18, STACK
        ARGFRAME IOVERLAY, 0, STATIC
        ARGFRAME DOVERLAY, 0, STATIC
        FUNCALL zclParseInConfigReportCmd, zcl_BuildAnalogData
        LOCFRAME ISTACK, 0, STACK
        LOCFRAME PSTACK, 0, STACK
        LOCFRAME XSTACK, 18, STACK
        LOCFRAME IOVERLAY, 0, STATIC
        LOCFRAME DOVERLAY, 0, STATIC
        ARGFRAME ISTACK, 0, STACK
        ARGFRAME PSTACK, 0, STACK
        ARGFRAME XSTACK, 18, STACK
        ARGFRAME IOVERLAY, 0, STATIC
        ARGFRAME DOVERLAY, 0, STATIC
        FUNCALL zclParseInConfigReportCmd, zclGetDataTypeLength
        LOCFRAME ISTACK, 0, STACK
        LOCFRAME PSTACK, 0, STACK
        LOCFRAME XSTACK, 18, STACK
        LOCFRAME IOVERLAY, 0, STATIC
        LOCFRAME DOVERLAY, 0, STATIC
        ARGFRAME ISTACK, 0, STACK
        ARGFRAME PSTACK, 0, STACK
        ARGFRAME XSTACK, 18, STACK
        ARGFRAME IOVERLAY, 0, STATIC
        ARGFRAME DOVERLAY, 0, STATIC
        REQUIRE ?V0
        REQUIRE ?V1
        REQUIRE ?V2
        REQUIRE ?V3
        REQUIRE ?V4
        REQUIRE ?V5
        REQUIRE ?V6
        REQUIRE ?V7
        REQUIRE ?V8
        REQUIRE ?V9
        MOV       A,#-0x12
        LCALL     ?BANKED_ENTER_XDATA
          CFI DPH0 load(1, XDATA, add(CFA_XSP16, literal(-1)))
          CFI DPL0 load(1, XDATA, add(CFA_XSP16, literal(-2)))
          CFI ?BRET_EXT load(1, XDATA, add(CFA_XSP16, literal(-3)))
          CFI ?RET_HIGH load(1, XDATA, add(CFA_XSP16, literal(-4)))
          CFI ?RET_LOW load(1, XDATA, add(CFA_XSP16, literal(-5)))
          CFI R7 load(1, XDATA, add(CFA_XSP16, literal(-6)))
          CFI V9 load(1, XDATA, add(CFA_XSP16, literal(-7)))
          CFI V8 load(1, XDATA, add(CFA_XSP16, literal(-8)))
          CFI V7 load(1, XDATA, add(CFA_XSP16, literal(-9)))
          CFI V6 load(1, XDATA, add(CFA_XSP16, literal(-10)))
          CFI V5 load(1, XDATA, add(CFA_XSP16, literal(-11)))
          CFI V4 load(1, XDATA, add(CFA_XSP16, literal(-12)))
          CFI V3 load(1, XDATA, add(CFA_XSP16, literal(-13)))
          CFI V2 load(1, XDATA, add(CFA_XSP16, literal(-14)))
          CFI V1 load(1, XDATA, add(CFA_XSP16, literal(-15)))
          CFI V0 load(1, XDATA, add(CFA_XSP16, literal(-16)))
          CFI VB load(1, XDATA, add(CFA_XSP16, literal(-17)))
          CFI R6 load(1, XDATA, add(CFA_XSP16, literal(-18)))
          CFI CFA_SP SP+0
          CFI CFA_XSP16 add(XSP16, 18)
        ; Saved register size: 18
        ; Auto size: 0
        MOV       ?V4,R2
        MOV       ?V5,R3
// 3847   zclCfgReportCmd_t *cfgReportCmd;
// 3848   uint8 *pBuf = pCmd->pData;
        MOV       A,R2
        ADD       A,#0x3
        MOV       ?V0,A
        CLR       A
        ADDC      A,?V5
        MOV       ?V1,A
        MOV       DPL,?V0
        MOV       DPH,A
        MOVX      A,@DPTR
        MOV       R6,A
        INC       DPTR
        MOVX      A,@DPTR
        MOV       R7,A
// 3849   uint8 *dataPtr;
// 3850   uint8 numAttr = 0;
        MOV       ?V2,#0x0
// 3851   uint8 dataType;
// 3852   uint8 hdrLen;
// 3853   uint16 dataLen = 0;
        MOV       ?V6,#0x0
        MOV       ?V7,#0x0
        SJMP      ??zclParseInConfigReportCmd_0
// 3854   uint8 reportChangeLen; // length of Reportable Change field
// 3855 
// 3856   // Calculate the length of the Request command
// 3857   while ( pBuf < ( pCmd->pData + pCmd->dataLen ) )
// 3858   {
// 3859     uint8 direction;
// 3860 
// 3861     numAttr++;
// 3862     direction = *pBuf++;
// 3863     pBuf += 2; // move pass the attribute ID
// 3864 
// 3865     // Is there a Reportable Change field?
// 3866     if ( direction == ZCL_SEND_ATTR_REPORTS )
// 3867     {
// 3868       dataType = *pBuf++;
// 3869       pBuf += 4; // move pass the Min and Max Reporting Intervals
// 3870 
// 3871       // For attributes of 'discrete' data types this field is omitted
// 3872       if ( zclAnalogDataType( dataType ) )
// 3873       {
// 3874         reportChangeLen = zclGetDataTypeLength( dataType );
// 3875         pBuf += reportChangeLen;
// 3876 
// 3877         // add padding if needed
// 3878         if ( PADDING_NEEDED( reportChangeLen ) )
// 3879         {
// 3880           reportChangeLen++;
// 3881         }
// 3882 
// 3883         dataLen += reportChangeLen;
// 3884       }
// 3885       else
// 3886       {
// 3887         pBuf++; // move past reportable change field
// 3888       }
// 3889     }
// 3890     else
// 3891     {
// 3892       pBuf += 2; // move pass the Timeout Period
??zclParseInConfigReportCmd_1:
        MOV       A,R6
        ADD       A,#0x5
        MOV       R6,A
        JNC       ??zclParseInConfigReportCmd_0
        INC       R7
// 3893     }
??zclParseInConfigReportCmd_0:
        MOV       DPL,?V4
        MOV       DPH,?V5
        INC       DPTR
        MOVX      A,@DPTR
        MOV       R0,A
        INC       DPTR
        MOVX      A,@DPTR
        MOV       R1,A
        MOV       DPL,?V0
        MOV       DPH,?V1
        MOVX      A,@DPTR
        ADD       A,R0
        MOV       R0,A
        INC       DPTR
        MOVX      A,@DPTR
        ADDC      A,R1
        MOV       R1,A
        CLR       C
        MOV       A,R6
        SUBB      A,R0
        MOV       A,R7
        SUBB      A,R1
        JNC       ??zclParseInConfigReportCmd_2
        INC       ?V2
        MOV       DPL,R6
        MOV       DPH,R7
        MOVX      A,@DPTR
        JNZ       ??zclParseInConfigReportCmd_1
        INC       DPTR
        INC       DPTR
        INC       DPTR
        MOVX      A,@DPTR
        MOV       ?V3,A
        MOV       A,R6
        ADD       A,#0x8
        MOV       R6,A
        JNC       ??zclParseInConfigReportCmd_3
        INC       R7
??zclParseInConfigReportCmd_3:
        ; Setup parameters for call to function zclAnalogDataType
        MOV       R1,?V3
        LCALL     `??zclAnalogDataType::?relay`; Banked call to: zclAnalogDataType
        MOV       A,R1
        JZ        ??zclParseInConfigReportCmd_4
        ; Setup parameters for call to function zclGetDataTypeLength
        MOV       R1,?V3
        LCALL     `??zclGetDataTypeLength::?relay`; Banked call to: zclGetDataTypeLength
        MOV       A,R1
        MOV       R0,A
        MOV       A,R6
        ADD       A,R1
        MOV       R6,A
        CLR       A
        ADDC      A,R7
        MOV       R7,A
        MOV       A,R1
        MOV       C,0xE0 /* A   */.0
        JNC       ??zclParseInConfigReportCmd_5
        INC       R0
??zclParseInConfigReportCmd_5:
        MOV       A,?V6
        ADD       A,R0
        MOV       ?V6,A
        CLR       A
        ADDC      A,?V7
        MOV       ?V7,A
        SJMP      ??zclParseInConfigReportCmd_0
??zclParseInConfigReportCmd_4:
        MOV       DPL,R6
        MOV       DPH,R7
        INC       DPTR
        MOV       R6,DPL
        MOV       R7,DPH
        SJMP      ??zclParseInConfigReportCmd_0
// 3894   } // while loop
// 3895 
// 3896   hdrLen = sizeof( zclCfgReportCmd_t ) + ( numAttr * sizeof( zclCfgReportRec_t ) );
??zclParseInConfigReportCmd_2:
        MOV       B,#0xc
        MOV       A,?V2
        MUL       AB
        INC       A
        MOV       ?V3,A
// 3897 
// 3898   cfgReportCmd = (zclCfgReportCmd_t *)zcl_mem_alloc( hdrLen + dataLen );
        ; Setup parameters for call to function osal_mem_alloc
        ADD       A,?V6
        MOV       R2,A
        CLR       A
        ADDC      A,?V7
        MOV       R3,A
        LCALL     `??osal_mem_alloc::?relay`; Banked call to: osal_mem_alloc
        MOV       ?V8,R2
        MOV       ?V9,R3
// 3899   if ( cfgReportCmd != NULL )
        MOV       A,R2
        ORL       A,R3
        JNZ       $+5
        LJMP      ??zclParseInConfigReportCmd_6 & 0xFFFF
// 3900   {
// 3901     uint8 i;
// 3902     pBuf = pCmd->pData;
        MOV       DPL,?V0
        MOV       DPH,?V1
        MOVX      A,@DPTR
        MOV       R6,A
        INC       DPTR
        MOVX      A,@DPTR
        MOV       R7,A
// 3903     dataPtr = (uint8 *)( (uint8 *)cfgReportCmd + hdrLen );
        MOV       R0,?V3
        MOV       A,R2
        ADD       A,R0
        MOV       ?V4,A
        CLR       A
        ADDC      A,R3
        MOV       ?V5,A
// 3904 
// 3905     cfgReportCmd->numAttr = numAttr;
        MOV       DPL,R2
        MOV       DPH,R3
        MOV       A,?V2
        MOVX      @DPTR,A
// 3906     for ( i = 0; i < numAttr; i++ )
        MOV       ?V3,#0x0
        SJMP      ??zclParseInConfigReportCmd_7
// 3907     {
// 3908       zclCfgReportRec_t *reportRec = &(cfgReportCmd->attrList[i]);
// 3909 
// 3910       zcl_memset( reportRec, 0, sizeof( zclCfgReportRec_t ) );
// 3911 
// 3912       reportRec->direction = *pBuf++;
// 3913       reportRec->attrID = BUILD_UINT16( pBuf[0], pBuf[1] );
// 3914       pBuf += 2;
// 3915       if ( reportRec->direction == ZCL_SEND_ATTR_REPORTS )
// 3916       {
// 3917         // Attribute to be reported
// 3918         reportRec->dataType = *pBuf++;
// 3919         reportRec->minReportInt = BUILD_UINT16( pBuf[0], pBuf[1] );
// 3920         pBuf += 2;
// 3921         reportRec->maxReportInt = BUILD_UINT16( pBuf[0], pBuf[1] );
// 3922         pBuf += 2;
// 3923 
// 3924         // For attributes of 'discrete' data types this field is omitted
// 3925         if ( zclAnalogDataType( reportRec->dataType ) )
// 3926         {
// 3927           zcl_BuildAnalogData( reportRec->dataType, dataPtr, pBuf);
// 3928           reportRec->reportableChange = dataPtr;
// 3929 
// 3930           reportChangeLen = zclGetDataTypeLength( reportRec->dataType );
// 3931           pBuf += reportChangeLen;
// 3932 
// 3933           // advance attribute data pointer
// 3934           if ( PADDING_NEEDED( reportChangeLen ) )
// 3935           {
// 3936             reportChangeLen++;
// 3937           }
// 3938 
// 3939           dataPtr += reportChangeLen;
// 3940         }
// 3941       }
// 3942       else
// 3943       {
// 3944         // Attribute reports to be received
// 3945         reportRec->timeoutPeriod = BUILD_UINT16( pBuf[0], pBuf[1] );
??zclParseInConfigReportCmd_8:
        MOV       DPL,R0
        MOV       DPH,R1
        MOVX      A,@DPTR
        MOV       R1,A
        MOV       A,R4
        MOV       DPL,?V0
        MOV       DPH,?V1
        INC       DPTR
        INC       DPTR
        INC       DPTR
        INC       DPTR
        INC       DPTR
        INC       DPTR
        INC       DPTR
        INC       DPTR
        MOVX      @DPTR,A
        INC       DPTR
        MOV       A,R1
        MOVX      @DPTR,A
// 3946         pBuf += 2;
        INC       R6
        INC       R6
        MOV       A,R3
        MOV       R7,A
// 3947       }
??zclParseInConfigReportCmd_9:
        INC       ?V3
??zclParseInConfigReportCmd_7:
        MOV       A,?V3
        CLR       C
        SUBB      A,?V2
        JC        $+5
        LJMP      ??zclParseInConfigReportCmd_6 & 0xFFFF
        MOV       A,?V3
        MOV       B,#0xc
        MUL       AB
        MOV       R0,A
        MOV       R1,B
        MOV       A,?V8
        ADD       A,R0
        MOV       DPL,A
        MOV       A,?V9
        ADDC      A,R1
        MOV       DPH,A
        INC       DPTR
        MOV       ?V0,DPL
        MOV       ?V1,DPH
        ; Setup parameters for call to function osal_memset
        MOV       R4,#0xc
        MOV       R5,#0x0
        MOV       R1,#0x0
        MOV       R2,?V0
        MOV       R3,?V1
        LCALL     `??osal_memset::?relay`; Banked call to: osal_memset
        MOV       DPL,R6
        MOV       DPH,R7
        MOVX      A,@DPTR
        MOV       DPL,?V0
        MOV       DPH,?V1
        MOVX      @DPTR,A
        MOV       DPL,R6
        MOV       DPH,R7
        INC       DPTR
        MOV       R6,DPL
        MOV       R7,DPH
        MOVX      A,@DPTR
        MOV       R2,A
        INC       DPTR
        MOVX      A,@DPTR
        MOV       R1,A
        MOV       A,R2
        MOV       DPL,?V0
        MOV       DPH,?V1
        INC       DPTR
        MOVX      @DPTR,A
        INC       DPTR
        MOV       A,R1
        MOVX      @DPTR,A
        MOV       A,R6
        ADD       A,#0x2
        MOV       R6,A
        JNC       ??zclParseInConfigReportCmd_10
        INC       R7
??zclParseInConfigReportCmd_10:
        ADD       A,#0x2
        MOV       R2,A
        CLR       A
        ADDC      A,R7
        MOV       R3,A
        MOV       DPL,R6
        MOV       DPH,R7
        INC       DPTR
        MOV       R0,DPL
        MOV       R1,DPH
        MOV       DPL,R6
        MOV       DPH,R7
        MOVX      A,@DPTR
        MOV       R4,A
        MOV       DPL,?V0
        MOV       DPH,?V1
        MOVX      A,@DPTR
        JZ        $+5
        LJMP      ??zclParseInConfigReportCmd_8 & 0xFFFF
        MOV       A,?V0
        ADD       A,#0x3
        MOV       ?V6,A
        CLR       A
        ADDC      A,?V1
        MOV       ?V7,A
        MOV       A,R4
        MOV       DPL,?V6
        MOV       DPH,?V7
        MOVX      @DPTR,A
        MOV       A,R1
        MOV       R7,A
        MOV       DPL,R0
        MOV       DPH,A
        MOVX      A,@DPTR
        MOV       R4,A
        MOV       DPL,R2
        MOV       DPH,R3
        MOVX      A,@DPTR
        MOV       R1,A
        MOV       A,R4
        MOV       DPL,?V0
        MOV       DPH,?V1
        INC       DPTR
        INC       DPTR
        INC       DPTR
        INC       DPTR
        MOVX      @DPTR,A
        INC       DPTR
        MOV       A,R1
        MOVX      @DPTR,A
        MOV       A,R0
        ADD       A,#0x2
        MOV       R6,A
        JNC       ??zclParseInConfigReportCmd_11
        INC       R7
??zclParseInConfigReportCmd_11:
        MOV       DPL,A
        MOV       DPH,R7
        MOVX      A,@DPTR
        MOV       R2,A
        INC       DPTR
        MOVX      A,@DPTR
        MOV       R1,A
        MOV       A,R2
        MOV       DPL,?V0
        MOV       DPH,?V1
        INC       DPTR
        INC       DPTR
        INC       DPTR
        INC       DPTR
        INC       DPTR
        INC       DPTR
        MOVX      @DPTR,A
        INC       DPTR
        MOV       A,R1
        MOVX      @DPTR,A
        MOV       A,R6
        ADD       A,#0x2
        MOV       R6,A
        JNC       ??zclParseInConfigReportCmd_12
        INC       R7
??zclParseInConfigReportCmd_12:
        ; Setup parameters for call to function zclAnalogDataType
        MOV       DPL,?V6
        MOV       DPH,?V7
        MOVX      A,@DPTR
        MOV       R1,A
        LCALL     `??zclAnalogDataType::?relay`; Banked call to: zclAnalogDataType
        MOV       A,R1
        JNZ       $+5
        LJMP      ??zclParseInConfigReportCmd_9 & 0xFFFF
        ; Setup parameters for call to function zcl_BuildAnalogData
        MOV       A,R6
        MOV       R4,A
        MOV       A,R7
        MOV       R5,A
        MOV       R2,?V4
        MOV       R3,?V5
        MOV       DPL,?V6
        MOV       DPH,?V7
        MOVX      A,@DPTR
        MOV       R1,A
        LCALL     `??zcl_BuildAnalogData::?relay`; Banked call to: zcl_BuildAnalogData
        MOV       DPL,?V0
        MOV       DPH,?V1
        INC       DPTR
        INC       DPTR
        INC       DPTR
        INC       DPTR
        INC       DPTR
        INC       DPTR
        INC       DPTR
        INC       DPTR
        INC       DPTR
        INC       DPTR
        MOV       A,?V4
        MOVX      @DPTR,A
        INC       DPTR
        MOV       A,?V5
        MOVX      @DPTR,A
        ; Setup parameters for call to function zclGetDataTypeLength
        MOV       DPL,?V6
        MOV       DPH,?V7
        MOVX      A,@DPTR
        MOV       R1,A
        LCALL     `??zclGetDataTypeLength::?relay`; Banked call to: zclGetDataTypeLength
        MOV       A,R1
        MOV       R0,A
        MOV       A,R6
        ADD       A,R1
        MOV       R6,A
        CLR       A
        ADDC      A,R7
        MOV       R7,A
        MOV       A,R1
        MOV       C,0xE0 /* A   */.0
        JNC       ??zclParseInConfigReportCmd_13
        INC       R0
??zclParseInConfigReportCmd_13:
        MOV       A,?V4
        ADD       A,R0
        MOV       ?V4,A
        CLR       A
        ADDC      A,?V5
        MOV       ?V5,A
        LJMP      ??zclParseInConfigReportCmd_9 & 0xFFFF
// 3948     } // while loop
// 3949   }
// 3950 
// 3951   return ( (void *)cfgReportCmd );
??zclParseInConfigReportCmd_6:
        MOV       R2,?V8
        MOV       R3,?V9
        MOV       R7,#0xa
        LJMP      ?BANKED_LEAVE_XDATA
// 3952 }
          CFI EndBlock cfiBlock65
// 3953 #endif
// 3954 
// 3955 #ifdef ZCL_REPORT_CONFIGURING_DEVICE
// 3956 /*********************************************************************
// 3957  * @fn      zclParseInConfigReportRspCmd
// 3958  *
// 3959  * @brief   Parse the "Profile" Configure Reporting Response Command
// 3960  *
// 3961  *      NOTE: THIS FUNCTION ALLOCATES THE RETURN BUFFER, SO THE CALLING
// 3962  *            FUNCTION IS RESPONSIBLE TO FREE THE MEMORY.
// 3963  *
// 3964  * @param   pCmd - pointer to incoming data to parse
// 3965  *
// 3966  * @return  pointer to the parsed command structure
// 3967  */
// 3968 static void *zclParseInConfigReportRspCmd( zclParseCmd_t *pCmd )
// 3969 {
// 3970   zclCfgReportRspCmd_t *cfgReportRspCmd;
// 3971   uint8 *pBuf = pCmd->pData;
// 3972   uint8 numAttr;
// 3973 
// 3974   numAttr = pCmd->dataLen / ( 1 + 1 + 2 ); // Status + Direction + Attribute ID
// 3975 
// 3976   cfgReportRspCmd = (zclCfgReportRspCmd_t *)zcl_mem_alloc( sizeof( zclCfgReportRspCmd_t )
// 3977                                             + ( numAttr * sizeof( zclCfgReportStatus_t ) ) );
// 3978   if ( cfgReportRspCmd != NULL )
// 3979   {
// 3980     uint8 i;
// 3981     cfgReportRspCmd->numAttr = numAttr;
// 3982     for ( i = 0; i < cfgReportRspCmd->numAttr; i++ )
// 3983     {
// 3984       cfgReportRspCmd->attrList[i].status = *pBuf++;
// 3985       cfgReportRspCmd->attrList[i].direction = *pBuf++;
// 3986       cfgReportRspCmd->attrList[i].attrID = BUILD_UINT16( pBuf[0], pBuf[1] );
// 3987       pBuf += 2;
// 3988     }
// 3989   }
// 3990 
// 3991   return ( (void *)cfgReportRspCmd );
// 3992 }
// 3993 #endif
// 3994 
// 3995 #ifdef ZCL_REPORTING_DEVICE
// 3996 /*********************************************************************
// 3997  * @fn      zclParseInReadReportCfgCmd
// 3998  *
// 3999  * @brief   Parse the "Profile" Read Reporting Configuration Command
// 4000  *
// 4001  *      NOTE: THIS FUNCTION ALLOCATES THE RETURN BUFFER, SO THE CALLING
// 4002  *            FUNCTION IS RESPONSIBLE TO FREE THE MEMORY.
// 4003  *
// 4004  * @param   pCmd - pointer to incoming data to parse
// 4005  *
// 4006  * @return  pointer to the parsed command structure
// 4007  */

        RSEG BANKED_CODE:HUGECODE:NOROOT(0)
// 4008 void *zclParseInReadReportCfgCmd( zclParseCmd_t *pCmd )
zclParseInReadReportCfgCmd:
          CFI Block cfiBlock66 Using cfiCommon0
          CFI Function zclParseInReadReportCfgCmd
        CODE
// 4009 {
        FUNCALL zclParseInReadReportCfgCmd, osal_mem_alloc
        LOCFRAME ISTACK, 0, STACK
        LOCFRAME PSTACK, 0, STACK
        LOCFRAME XSTACK, 12, STACK
        LOCFRAME IOVERLAY, 0, STATIC
        LOCFRAME DOVERLAY, 0, STATIC
        ARGFRAME ISTACK, 0, STACK
        ARGFRAME PSTACK, 0, STACK
        ARGFRAME XSTACK, 12, STACK
        ARGFRAME IOVERLAY, 0, STATIC
        ARGFRAME DOVERLAY, 0, STATIC
        REQUIRE ?V0
        REQUIRE ?V1
        REQUIRE ?V2
        REQUIRE ?V3
        MOV       A,#-0xc
        LCALL     ?BANKED_ENTER_XDATA
          CFI DPH0 load(1, XDATA, add(CFA_XSP16, literal(-1)))
          CFI DPL0 load(1, XDATA, add(CFA_XSP16, literal(-2)))
          CFI ?BRET_EXT load(1, XDATA, add(CFA_XSP16, literal(-3)))
          CFI ?RET_HIGH load(1, XDATA, add(CFA_XSP16, literal(-4)))
          CFI ?RET_LOW load(1, XDATA, add(CFA_XSP16, literal(-5)))
          CFI R7 load(1, XDATA, add(CFA_XSP16, literal(-6)))
          CFI V3 load(1, XDATA, add(CFA_XSP16, literal(-7)))
          CFI V2 load(1, XDATA, add(CFA_XSP16, literal(-8)))
          CFI V1 load(1, XDATA, add(CFA_XSP16, literal(-9)))
          CFI V0 load(1, XDATA, add(CFA_XSP16, literal(-10)))
          CFI VB load(1, XDATA, add(CFA_XSP16, literal(-11)))
          CFI R6 load(1, XDATA, add(CFA_XSP16, literal(-12)))
          CFI CFA_SP SP+0
          CFI CFA_XSP16 add(XSP16, 12)
        ; Saved register size: 12
        ; Auto size: 0
// 4010   zclReadReportCfgCmd_t *readReportCfgCmd;
// 4011   uint8 *pBuf = pCmd->pData;
        MOV       DPL,R2
        MOV       DPH,R3
        INC       DPTR
        INC       DPTR
        INC       DPTR
        MOVX      A,@DPTR
        MOV       R6,A
        INC       DPTR
        MOVX      A,@DPTR
        MOV       R7,A
// 4012   uint8 numAttr;
// 4013 
// 4014   numAttr = pCmd->dataLen / ( 1 + 2 ); // Direction + Attribute ID
        MOV       DPL,R2
        MOV       DPH,R3
        INC       DPTR
        MOVX      A,@DPTR
        MOV       R0,A
        INC       DPTR
        MOVX      A,@DPTR
        MOV       R1,A
        MOV       R2,#0x3
        MOV       R3,#0x0
        LCALL     ?US_DIV_MOD
        MOV       A,R0
        MOV       ?V0,A
// 4015 
// 4016   readReportCfgCmd = (zclReadReportCfgCmd_t *)zcl_mem_alloc( sizeof( zclReadReportCfgCmd_t )
// 4017                                                   + ( numAttr * sizeof( zclReadReportCfgRec_t ) ) );
        ; Setup parameters for call to function osal_mem_alloc
        MOV       B,#0x3
        MUL       AB
        MOV       R1,B
        ADD       A,#0x1
        MOV       R2,A
        CLR       A
        ADDC      A,R1
        MOV       R3,A
        LCALL     `??osal_mem_alloc::?relay`; Banked call to: osal_mem_alloc
// 4018   if ( readReportCfgCmd != NULL )
        MOV       A,R2
        ORL       A,R3
        JZ        ??zclParseInReadReportCfgCmd_0
// 4019   {
// 4020     uint8 i;
// 4021     readReportCfgCmd->numAttr = numAttr;
        MOV       DPL,R2
        MOV       DPH,R3
        MOV       A,?V0
        MOVX      @DPTR,A
// 4022     for ( i = 0; i < readReportCfgCmd->numAttr; i++)
        MOV       ?V0,#0x0
        SJMP      ??zclParseInReadReportCfgCmd_1
// 4023     {
// 4024       readReportCfgCmd->attrList[i].direction = *pBuf++;;
??zclParseInReadReportCfgCmd_2:
        MOV       A,?V0
        MOV       B,#0x3
        MUL       AB
        MOV       R0,A
        MOV       R1,B
        MOV       A,R2
        ADD       A,R0
        MOV       R0,A
        MOV       A,R3
        ADDC      A,R1
        MOV       R1,A
        MOV       DPL,R6
        MOV       DPH,R7
        MOVX      A,@DPTR
        MOV       DPL,R0
        MOV       DPH,R1
        INC       DPTR
        MOVX      @DPTR,A
        MOV       DPL,R6
        MOV       DPH,R7
        INC       DPTR
        MOV       R6,DPL
        MOV       R7,DPH
// 4025       readReportCfgCmd->attrList[i].attrID = BUILD_UINT16( pBuf[0], pBuf[1] );
        MOVX      A,@DPTR
        MOV       ?V2,A
        INC       DPTR
        MOVX      A,@DPTR
        MOV       R5,A
        MOV       A,?V2
        MOV       DPL,R0
        MOV       DPH,R1
        INC       DPTR
        INC       DPTR
        MOVX      @DPTR,A
        INC       DPTR
        MOV       A,R5
        MOVX      @DPTR,A
// 4026       pBuf += 2;
        MOV       A,R6
        ADD       A,#0x2
        MOV       R6,A
        JNC       ??zclParseInReadReportCfgCmd_3
        INC       R7
// 4027     }
??zclParseInReadReportCfgCmd_3:
        INC       ?V0
??zclParseInReadReportCfgCmd_1:
        MOV       DPL,R2
        MOV       DPH,R3
        MOVX      A,@DPTR
        MOV       R0,A
        MOV       A,?V0
        CLR       C
        SUBB      A,R0
        JC        ??zclParseInReadReportCfgCmd_2
// 4028   }
// 4029 
// 4030   return ( (void *)readReportCfgCmd );
??zclParseInReadReportCfgCmd_0:
        MOV       R7,#0x4
        LJMP      ?BANKED_LEAVE_XDATA
// 4031 }
          CFI EndBlock cfiBlock66
// 4032 #endif
// 4033 
// 4034 #ifdef ZCL_REPORT_CONFIGURING_DEVICE
// 4035 /*********************************************************************
// 4036  * @fn      zclParseInReadReportCfgRspCmd
// 4037  *
// 4038  * @brief   Parse the "Profile" Read Reporting Configuration Response Command
// 4039  *
// 4040  *      NOTE: THIS FUNCTION ALLOCATES THE RETURN BUFFER, SO THE CALLING
// 4041  *            FUNCTION IS RESPONSIBLE TO FREE THE MEMORY.
// 4042  *
// 4043  * @param   pCmd - pointer to incoming data to parse
// 4044  *
// 4045  * @return  pointer to the parsed command structure
// 4046  */
// 4047 static void *zclParseInReadReportCfgRspCmd( zclParseCmd_t *pCmd )
// 4048 {
// 4049   zclReadReportCfgRspCmd_t *readReportCfgRspCmd;
// 4050   uint8 reportChangeLen;
// 4051   uint8 *pBuf = pCmd->pData;
// 4052   uint8 *dataPtr;
// 4053   uint8 numAttr = 0;
// 4054   uint8 hdrLen;
// 4055   uint16 dataLen = 0;
// 4056 
// 4057   // Calculate the length of the response command
// 4058   while ( pBuf < ( pCmd->pData + pCmd->dataLen ) )
// 4059   {
// 4060     uint8 status;
// 4061     uint8 direction;
// 4062 
// 4063     numAttr++;
// 4064     status = *pBuf++;
// 4065     direction = *pBuf++;
// 4066     pBuf += 2; // move pass the attribute ID
// 4067 
// 4068     if ( status == ZCL_STATUS_SUCCESS )
// 4069     {
// 4070       if ( direction == ZCL_SEND_ATTR_REPORTS )
// 4071       {
// 4072         uint8 dataType = *pBuf++;
// 4073         pBuf += 4; // move pass the Min and Max Reporting Intervals
// 4074 
// 4075         // For attributes of 'discrete' data types this field is omitted
// 4076         if ( zclAnalogDataType( dataType ) )
// 4077         {
// 4078           reportChangeLen = zclGetDataTypeLength( dataType );
// 4079           pBuf += reportChangeLen;
// 4080 
// 4081           // add padding if needed
// 4082           if ( PADDING_NEEDED( reportChangeLen ) )
// 4083           {
// 4084             reportChangeLen++;
// 4085           }
// 4086 
// 4087           dataLen += reportChangeLen;
// 4088         }
// 4089       }
// 4090       else
// 4091       {
// 4092         pBuf += 2; // move pass the Timeout field
// 4093       }
// 4094     }
// 4095   } // while loop
// 4096 
// 4097   hdrLen = sizeof( zclReadReportCfgRspCmd_t ) + ( numAttr * sizeof( zclReportCfgRspRec_t ) );
// 4098 
// 4099   readReportCfgRspCmd = (zclReadReportCfgRspCmd_t *)zcl_mem_alloc( hdrLen + dataLen );
// 4100   if ( readReportCfgRspCmd != NULL )
// 4101   {
// 4102     uint8 i;
// 4103     pBuf = pCmd->pData;
// 4104     dataPtr = (uint8 *)( (uint8 *)readReportCfgRspCmd + hdrLen );
// 4105 
// 4106     readReportCfgRspCmd->numAttr = numAttr;
// 4107     for ( i = 0; i < numAttr; i++ )
// 4108     {
// 4109       zclReportCfgRspRec_t *reportRspRec = &(readReportCfgRspCmd->attrList[i]);
// 4110 
// 4111       reportRspRec->status = *pBuf++;
// 4112       reportRspRec->direction = *pBuf++;
// 4113       reportRspRec->attrID = BUILD_UINT16( pBuf[0], pBuf[1] );
// 4114       pBuf += 2;
// 4115 
// 4116       if ( reportRspRec->status == ZCL_STATUS_SUCCESS )
// 4117       {
// 4118         if ( reportRspRec->direction == ZCL_SEND_ATTR_REPORTS )
// 4119         {
// 4120           reportRspRec->dataType = *pBuf++;
// 4121           reportRspRec->minReportInt = BUILD_UINT16( pBuf[0], pBuf[1] );
// 4122           pBuf += 2;
// 4123           reportRspRec->maxReportInt = BUILD_UINT16( pBuf[0], pBuf[1] );
// 4124           pBuf += 2;
// 4125 
// 4126           if ( zclAnalogDataType( reportRspRec->dataType ) )
// 4127           {
// 4128             zcl_BuildAnalogData( reportRspRec->dataType, dataPtr, pBuf);
// 4129             reportRspRec->reportableChange = dataPtr;
// 4130 
// 4131             reportChangeLen = zclGetDataTypeLength( reportRspRec->dataType );
// 4132             pBuf += reportChangeLen;
// 4133 
// 4134             // advance attribute data pointer
// 4135             if ( PADDING_NEEDED( reportChangeLen ) )
// 4136             {
// 4137               reportChangeLen++;
// 4138             }
// 4139 
// 4140             dataPtr += reportChangeLen;
// 4141           }
// 4142         }
// 4143         else
// 4144         {
// 4145           reportRspRec->timeoutPeriod = BUILD_UINT16( pBuf[0], pBuf[1] );
// 4146           pBuf += 2;
// 4147         }
// 4148       }
// 4149     }
// 4150   }
// 4151 
// 4152   return ( (void *)readReportCfgRspCmd );
// 4153 }
// 4154 #endif
// 4155 
// 4156 #ifdef ZCL_REPORT_DESTINATION_DEVICE
// 4157 /*********************************************************************
// 4158  * @fn      zclParseInReportCmd
// 4159  *
// 4160  * @brief   Parse the "Profile" Report Command
// 4161  *
// 4162  *      NOTE: THIS FUNCTION ALLOCATES THE RETURN BUFFER, SO THE CALLING
// 4163  *            FUNCTION IS RESPONSIBLE TO FREE THE MEMORY.
// 4164  *
// 4165  * @param   pCmd - pointer to incoming data to parse
// 4166  *
// 4167  * @return  pointer to the parsed command structure
// 4168  */

        RSEG BANKED_CODE:HUGECODE:NOROOT(0)
// 4169 void *zclParseInReportCmd( zclParseCmd_t *pCmd )
zclParseInReportCmd:
          CFI Block cfiBlock67 Using cfiCommon0
          CFI Function zclParseInReportCmd
        CODE
// 4170 {
        FUNCALL zclParseInReportCmd, zclGetAttrDataLength
        LOCFRAME ISTACK, 0, STACK
        LOCFRAME PSTACK, 0, STACK
        LOCFRAME XSTACK, 22, STACK
        LOCFRAME IOVERLAY, 0, STATIC
        LOCFRAME DOVERLAY, 0, STATIC
        ARGFRAME ISTACK, 0, STACK
        ARGFRAME PSTACK, 0, STACK
        ARGFRAME XSTACK, 22, STACK
        ARGFRAME IOVERLAY, 0, STATIC
        ARGFRAME DOVERLAY, 0, STATIC
        FUNCALL zclParseInReportCmd, osal_mem_alloc
        LOCFRAME ISTACK, 0, STACK
        LOCFRAME PSTACK, 0, STACK
        LOCFRAME XSTACK, 22, STACK
        LOCFRAME IOVERLAY, 0, STATIC
        LOCFRAME DOVERLAY, 0, STATIC
        ARGFRAME ISTACK, 0, STACK
        ARGFRAME PSTACK, 0, STACK
        ARGFRAME XSTACK, 22, STACK
        ARGFRAME IOVERLAY, 0, STATIC
        ARGFRAME DOVERLAY, 0, STATIC
        FUNCALL zclParseInReportCmd, zclGetAttrDataLength
        LOCFRAME ISTACK, 0, STACK
        LOCFRAME PSTACK, 0, STACK
        LOCFRAME XSTACK, 22, STACK
        LOCFRAME IOVERLAY, 0, STATIC
        LOCFRAME DOVERLAY, 0, STATIC
        ARGFRAME ISTACK, 0, STACK
        ARGFRAME PSTACK, 0, STACK
        ARGFRAME XSTACK, 22, STACK
        ARGFRAME IOVERLAY, 0, STATIC
        ARGFRAME DOVERLAY, 0, STATIC
        FUNCALL zclParseInReportCmd, osal_memcpy
        LOCFRAME ISTACK, 0, STACK
        LOCFRAME PSTACK, 0, STACK
        LOCFRAME XSTACK, 25, STACK
        LOCFRAME IOVERLAY, 0, STATIC
        LOCFRAME DOVERLAY, 0, STATIC
        ARGFRAME ISTACK, 0, STACK
        ARGFRAME PSTACK, 0, STACK
        ARGFRAME XSTACK, 25, STACK
        ARGFRAME IOVERLAY, 0, STATIC
        ARGFRAME DOVERLAY, 0, STATIC
        REQUIRE ?V0
        REQUIRE ?V1
        REQUIRE ?V2
        REQUIRE ?V3
        REQUIRE ?V4
        REQUIRE ?V5
        REQUIRE ?V6
        REQUIRE ?V7
        REQUIRE ?V8
        REQUIRE ?V9
        REQUIRE ?V10
        REQUIRE ?V11
        REQUIRE ?V12
        REQUIRE ?V13
        MOV       A,#-0x16
        LCALL     ?BANKED_ENTER_XDATA
          CFI DPH0 load(1, XDATA, add(CFA_XSP16, literal(-1)))
          CFI DPL0 load(1, XDATA, add(CFA_XSP16, literal(-2)))
          CFI ?BRET_EXT load(1, XDATA, add(CFA_XSP16, literal(-3)))
          CFI ?RET_HIGH load(1, XDATA, add(CFA_XSP16, literal(-4)))
          CFI ?RET_LOW load(1, XDATA, add(CFA_XSP16, literal(-5)))
          CFI R7 load(1, XDATA, add(CFA_XSP16, literal(-6)))
          CFI V13 load(1, XDATA, add(CFA_XSP16, literal(-7)))
          CFI V12 load(1, XDATA, add(CFA_XSP16, literal(-8)))
          CFI V11 load(1, XDATA, add(CFA_XSP16, literal(-9)))
          CFI V10 load(1, XDATA, add(CFA_XSP16, literal(-10)))
          CFI V9 load(1, XDATA, add(CFA_XSP16, literal(-11)))
          CFI V8 load(1, XDATA, add(CFA_XSP16, literal(-12)))
          CFI V7 load(1, XDATA, add(CFA_XSP16, literal(-13)))
          CFI V6 load(1, XDATA, add(CFA_XSP16, literal(-14)))
          CFI V5 load(1, XDATA, add(CFA_XSP16, literal(-15)))
          CFI V4 load(1, XDATA, add(CFA_XSP16, literal(-16)))
          CFI V3 load(1, XDATA, add(CFA_XSP16, literal(-17)))
          CFI V2 load(1, XDATA, add(CFA_XSP16, literal(-18)))
          CFI V1 load(1, XDATA, add(CFA_XSP16, literal(-19)))
          CFI V0 load(1, XDATA, add(CFA_XSP16, literal(-20)))
          CFI VB load(1, XDATA, add(CFA_XSP16, literal(-21)))
          CFI R6 load(1, XDATA, add(CFA_XSP16, literal(-22)))
          CFI CFA_SP SP+0
          CFI CFA_XSP16 add(XSP16, 22)
        ; Saved register size: 22
        ; Auto size: 0
        MOV       ?V8,R2
        MOV       ?V9,R3
// 4171   zclReportCmd_t *reportCmd;
// 4172   uint8 *pBuf = pCmd->pData;
        MOV       A,R2
        ADD       A,#0x3
        MOV       ?V2,A
        CLR       A
        ADDC      A,?V9
        MOV       ?V3,A
        MOV       DPL,?V2
        MOV       DPH,A
        MOVX      A,@DPTR
        MOV       ?V0,A
        INC       DPTR
        MOVX      A,@DPTR
        MOV       ?V1,A
// 4173   uint16 attrDataLen;
// 4174   uint8 *dataPtr;
// 4175   uint8 numAttr = 0;
        MOV       ?V7,#0x0
// 4176   uint8 hdrLen;
// 4177   uint16 dataLen = 0;
        MOV       ?V4,#0x0
        MOV       ?V5,#0x0
        SJMP      ??zclParseInReportCmd_0
// 4178 
// 4179   // find out the number of attributes and the length of attribute data
// 4180   while ( pBuf < ( pCmd->pData + pCmd->dataLen ) )
// 4181   {
// 4182     uint8 dataType;
// 4183 
// 4184     numAttr++;
??zclParseInReportCmd_1:
        INC       ?V7
// 4185     pBuf += 2; // move pass attribute id
// 4186 
// 4187     dataType = *pBuf++;
        MOV       DPL,?V0
        MOV       DPH,?V1
        INC       DPTR
        INC       DPTR
        MOVX      A,@DPTR
        MOV       R1,A
        MOV       A,?V0
        ADD       A,#0x3
        MOV       ?V0,A
        JNC       ??zclParseInReportCmd_2
        INC       ?V1
// 4188 
// 4189     attrDataLen = zclGetAttrDataLength( dataType, pBuf );
??zclParseInReportCmd_2:
        ; Setup parameters for call to function zclGetAttrDataLength
        MOV       R2,A
        MOV       R3,?V1
        LCALL     `??zclGetAttrDataLength::?relay`; Banked call to: zclGetAttrDataLength
        MOV       ?V10,R2
        MOV       ?V11,R3
        MOV       R6,?V10
        MOV       R7,?V11
// 4190     pBuf += attrDataLen; // move pass attribute data
        MOV       A,?V0
        ADD       A,R2
        MOV       ?V0,A
        MOV       A,?V1
        ADDC      A,R7
        MOV       ?V1,A
// 4191 
// 4192     // add padding if needed
// 4193     if ( PADDING_NEEDED( attrDataLen ) )
        MOV       A,R2
        MOV       C,0xE0 /* A   */.0
        JNC       ??zclParseInReportCmd_3
// 4194     {
// 4195       attrDataLen++;
        INC       R6
        INC       A
        JNZ       ??zclParseInReportCmd_3
        INC       R7
// 4196     }
// 4197 
// 4198     dataLen += attrDataLen;
??zclParseInReportCmd_3:
        MOV       A,?V4
        ADD       A,R6
        MOV       ?V4,A
        MOV       A,?V5
        ADDC      A,R7
        MOV       ?V5,A
// 4199   }
??zclParseInReportCmd_0:
        MOV       DPL,?V8
        MOV       DPH,?V9
        INC       DPTR
        MOVX      A,@DPTR
        MOV       R0,A
        INC       DPTR
        MOVX      A,@DPTR
        MOV       R1,A
        MOV       DPL,?V2
        MOV       DPH,?V3
        MOVX      A,@DPTR
        ADD       A,R0
        MOV       R0,A
        INC       DPTR
        MOVX      A,@DPTR
        ADDC      A,R1
        MOV       R1,A
        CLR       C
        MOV       A,?V0
        SUBB      A,R0
        MOV       A,?V1
        SUBB      A,R1
        JC        ??zclParseInReportCmd_1
// 4200 
// 4201   hdrLen = sizeof( zclReportCmd_t ) + ( numAttr * sizeof( zclReport_t ) );
        MOV       B,#0x5
        MOV       A,?V7
        MUL       AB
        INC       A
        MOV       R6,A
// 4202 
// 4203   reportCmd = (zclReportCmd_t *)zcl_mem_alloc( hdrLen + dataLen );
        ; Setup parameters for call to function osal_mem_alloc
        ADD       A,?V4
        MOV       R2,A
        CLR       A
        ADDC      A,?V5
        MOV       R3,A
        LCALL     `??osal_mem_alloc::?relay`; Banked call to: osal_mem_alloc
        MOV       ?V10,R2
        MOV       ?V11,R3
// 4204   if (reportCmd != NULL )
        MOV       A,R2
        ORL       A,R3
        JNZ       $+5
        LJMP      ??zclParseInReportCmd_4 & 0xFFFF
// 4205   {
// 4206     uint8 i;
// 4207     pBuf = pCmd->pData;
        MOV       DPL,?V2
        MOV       DPH,?V3
        MOVX      A,@DPTR
        MOV       ?V0,A
        INC       DPTR
        MOVX      A,@DPTR
        MOV       ?V1,A
// 4208     dataPtr = (uint8 *)( (uint8 *)reportCmd + hdrLen );
        MOV       A,R2
        ADD       A,R6
        MOV       ?V2,A
        CLR       A
        ADDC      A,R3
        MOV       ?V3,A
// 4209 
// 4210     reportCmd->numAttr = numAttr;
        MOV       DPL,R2
        MOV       DPH,R3
        MOV       A,?V7
        MOVX      @DPTR,A
// 4211     for ( i = 0; i < numAttr; i++ )
        MOV       ?V8,#0x0
        LJMP      ??zclParseInReportCmd_5 & 0xFFFF
// 4212     {
// 4213       zclReport_t *reportRec = &(reportCmd->attrList[i]);
??zclParseInReportCmd_6:
        MOV       A,?V8
        MOV       B,#0x5
        MUL       AB
        MOV       R0,A
        MOV       R1,B
        MOV       A,?V10
        ADD       A,R0
        MOV       DPL,A
        MOV       A,?V11
        ADDC      A,R1
        MOV       DPH,A
        INC       DPTR
        MOV       ?V12,DPL
        MOV       ?V13,DPH
// 4214 
// 4215       reportRec->attrID = BUILD_UINT16( pBuf[0], pBuf[1] );
        MOV       DPL,?V0
        MOV       DPH,?V1
        MOVX      A,@DPTR
        MOV       R2,A
        INC       DPTR
        MOVX      A,@DPTR
        MOV       R1,A
        MOV       A,R2
        MOV       DPL,?V12
        MOV       DPH,?V13
        MOVX      @DPTR,A
        INC       DPTR
        MOV       A,R1
        MOVX      @DPTR,A
// 4216       pBuf += 2;
// 4217       reportRec->dataType = *pBuf++;
        MOV       DPL,?V0
        MOV       DPH,?V1
        INC       DPTR
        INC       DPTR
        MOVX      A,@DPTR
        MOV       R1,A
        MOV       DPL,?V12
        MOV       DPH,?V13
        INC       DPTR
        INC       DPTR
        MOVX      @DPTR,A
        MOV       A,?V0
        ADD       A,#0x3
        MOV       ?V0,A
        JNC       ??zclParseInReportCmd_7
        INC       ?V1
// 4218 
// 4219       attrDataLen = zclGetAttrDataLength( reportRec->dataType, pBuf );
??zclParseInReportCmd_7:
        ; Setup parameters for call to function zclGetAttrDataLength
        MOV       R2,A
        MOV       R3,?V1
        LCALL     `??zclGetAttrDataLength::?relay`; Banked call to: zclGetAttrDataLength
        MOV       ?V4,R2
        MOV       ?V5,R3
        MOV       R6,?V4
        MOV       R7,?V5
// 4220       zcl_memcpy( dataPtr, pBuf, attrDataLen );
        ; Setup parameters for call to function osal_memcpy
        MOV       ?V4,?V0
        MOV       ?V5,?V1
        MOV       ?V6,#0x0
        MOV       R0,#?V4
        LCALL     ?PUSH_XSTACK_I_THREE
          CFI CFA_XSP16 add(XSP16, 25)
        MOV       A,R2
        MOV       R4,A
        MOV       A,R3
        MOV       R5,A
        MOV       R2,?V2
        MOV       R3,?V3
        LCALL     `??osal_memcpy::?relay`; Banked call to: osal_memcpy
        MOV       A,#0x3
        LCALL     ?DEALLOC_XSTACK8
          CFI CFA_XSP16 add(XSP16, 22)
// 4221       reportRec->attrData = dataPtr;
        MOV       DPL,?V12
        MOV       DPH,?V13
        INC       DPTR
        INC       DPTR
        INC       DPTR
        MOV       A,?V2
        MOVX      @DPTR,A
        INC       DPTR
        MOV       A,?V3
        MOVX      @DPTR,A
// 4222 
// 4223       pBuf += attrDataLen; // move pass attribute data
        MOV       A,?V0
        ADD       A,R6
        MOV       ?V0,A
        MOV       A,?V1
        ADDC      A,R7
        MOV       ?V1,A
// 4224 
// 4225       // advance attribute data pointer
// 4226       if ( PADDING_NEEDED( attrDataLen ) )
        MOV       A,R6
        MOV       C,0xE0 /* A   */.0
        JNC       ??zclParseInReportCmd_8
// 4227       {
// 4228         attrDataLen++;
        INC       R6
        INC       A
        JNZ       ??zclParseInReportCmd_8
        INC       R7
// 4229       }
// 4230 
// 4231       dataPtr += attrDataLen;
??zclParseInReportCmd_8:
        MOV       A,?V2
        ADD       A,R6
        MOV       ?V2,A
        MOV       A,?V3
        ADDC      A,R7
        MOV       ?V3,A
// 4232     }
        INC       ?V8
??zclParseInReportCmd_5:
        MOV       A,?V8
        CLR       C
        SUBB      A,?V7
        JNC       $+5
        LJMP      ??zclParseInReportCmd_6 & 0xFFFF
// 4233   }
// 4234 
// 4235   return ( (void *)reportCmd );
??zclParseInReportCmd_4:
        MOV       R2,?V10
        MOV       R3,?V11
        MOV       R7,#0xe
        LJMP      ?BANKED_LEAVE_XDATA
// 4236 }
          CFI EndBlock cfiBlock67
// 4237 #endif
// 4238 
// 4239 /*********************************************************************
// 4240  * @fn      zclParseInDefaultRspCmd
// 4241  *
// 4242  * @brief   Parse the "Profile" Default Response Command
// 4243  *
// 4244  *      NOTE: THIS FUNCTION ALLOCATES THE RETURN BUFFER, SO THE CALLING
// 4245  *            FUNCTION IS RESPONSIBLE TO FREE THE MEMORY.
// 4246  *
// 4247  * @param   pCmd - pointer to incoming data to parse
// 4248  *
// 4249  * @return  pointer to the parsed command structure
// 4250  */

        RSEG BANKED_CODE:HUGECODE:NOROOT(0)
// 4251 static void *zclParseInDefaultRspCmd( zclParseCmd_t *pCmd )
zclParseInDefaultRspCmd:
          CFI Block cfiBlock68 Using cfiCommon0
          CFI Function zclParseInDefaultRspCmd
        CODE
// 4252 {
        FUNCALL zclParseInDefaultRspCmd, osal_mem_alloc
        LOCFRAME ISTACK, 0, STACK
        LOCFRAME PSTACK, 0, STACK
        LOCFRAME XSTACK, 10, STACK
        LOCFRAME IOVERLAY, 0, STATIC
        LOCFRAME DOVERLAY, 0, STATIC
        ARGFRAME ISTACK, 0, STACK
        ARGFRAME PSTACK, 0, STACK
        ARGFRAME XSTACK, 10, STACK
        ARGFRAME IOVERLAY, 0, STATIC
        ARGFRAME DOVERLAY, 0, STATIC
        REQUIRE ?V0
        REQUIRE ?V1
        MOV       A,#-0xa
        LCALL     ?BANKED_ENTER_XDATA
          CFI DPH0 load(1, XDATA, add(CFA_XSP16, literal(-1)))
          CFI DPL0 load(1, XDATA, add(CFA_XSP16, literal(-2)))
          CFI ?BRET_EXT load(1, XDATA, add(CFA_XSP16, literal(-3)))
          CFI ?RET_HIGH load(1, XDATA, add(CFA_XSP16, literal(-4)))
          CFI ?RET_LOW load(1, XDATA, add(CFA_XSP16, literal(-5)))
          CFI R7 load(1, XDATA, add(CFA_XSP16, literal(-6)))
          CFI V1 load(1, XDATA, add(CFA_XSP16, literal(-7)))
          CFI V0 load(1, XDATA, add(CFA_XSP16, literal(-8)))
          CFI VB load(1, XDATA, add(CFA_XSP16, literal(-9)))
          CFI R6 load(1, XDATA, add(CFA_XSP16, literal(-10)))
          CFI CFA_SP SP+0
          CFI CFA_XSP16 add(XSP16, 10)
        ; Saved register size: 10
        ; Auto size: 0
// 4253   zclDefaultRspCmd_t *defaultRspCmd;
// 4254   uint8 *pBuf = pCmd->pData;
        MOV       DPL,R2
        MOV       DPH,R3
        INC       DPTR
        INC       DPTR
        INC       DPTR
        MOVX      A,@DPTR
        MOV       R0,A
        INC       DPTR
        MOVX      A,@DPTR
        MOV       R1,A
        MOV       A,R0
        MOV       R6,A
        MOV       A,R1
        MOV       R7,A
// 4255 
// 4256   defaultRspCmd = (zclDefaultRspCmd_t *)zcl_mem_alloc( sizeof ( zclDefaultRspCmd_t ) );
        ; Setup parameters for call to function osal_mem_alloc
        MOV       R2,#0x2
        MOV       R3,#0x0
        LCALL     `??osal_mem_alloc::?relay`; Banked call to: osal_mem_alloc
// 4257   if ( defaultRspCmd != NULL )
        MOV       A,R2
        ORL       A,R3
        JZ        ??zclParseInDefaultRspCmd_0
// 4258   {
// 4259     defaultRspCmd->commandID = *pBuf++;
        MOV       DPL,R6
        MOV       DPH,R7
        MOVX      A,@DPTR
        MOV       DPL,R2
        MOV       DPH,R3
        MOVX      @DPTR,A
// 4260     defaultRspCmd->statusCode = *pBuf;
        MOV       DPL,R6
        MOV       DPH,R7
        INC       DPTR
        MOVX      A,@DPTR
        MOV       DPL,R2
        MOV       DPH,R3
        INC       DPTR
        MOVX      @DPTR,A
// 4261   }
// 4262 
// 4263   return ( (void *)defaultRspCmd );
??zclParseInDefaultRspCmd_0:
        MOV       R7,#0x2
        LJMP      ?BANKED_LEAVE_XDATA
// 4264 }
          CFI EndBlock cfiBlock68
// 4265 
// 4266 #ifdef ZCL_DISCOVER
// 4267 /*********************************************************************
// 4268  * @fn      zclParseInDiscAttrsCmd
// 4269  *
// 4270  * @brief   Parse the "Profile" Discovery Attributes and Attributes Extended Commands
// 4271  *
// 4272  *      NOTE: THIS FUNCTION ALLOCATES THE RETURN BUFFER, SO THE CALLING
// 4273  *            FUNCTION IS RESPONSIBLE TO FREE THE MEMORY.
// 4274  *
// 4275  * @param   pCmd - pointer to incoming data to parse
// 4276  *
// 4277  * @return  pointer to the parsed command structure
// 4278  */

        RSEG BANKED_CODE:HUGECODE:NOROOT(0)
// 4279 void *zclParseInDiscAttrsCmd( zclParseCmd_t *pCmd )
zclParseInDiscAttrsCmd:
          CFI Block cfiBlock69 Using cfiCommon0
          CFI Function zclParseInDiscAttrsCmd
        CODE
// 4280 {
        FUNCALL zclParseInDiscAttrsCmd, osal_mem_alloc
        LOCFRAME ISTACK, 0, STACK
        LOCFRAME PSTACK, 0, STACK
        LOCFRAME XSTACK, 10, STACK
        LOCFRAME IOVERLAY, 0, STATIC
        LOCFRAME DOVERLAY, 0, STATIC
        ARGFRAME ISTACK, 0, STACK
        ARGFRAME PSTACK, 0, STACK
        ARGFRAME XSTACK, 10, STACK
        ARGFRAME IOVERLAY, 0, STATIC
        ARGFRAME DOVERLAY, 0, STATIC
        REQUIRE ?V0
        REQUIRE ?V1
        MOV       A,#-0xa
        LCALL     ?BANKED_ENTER_XDATA
          CFI DPH0 load(1, XDATA, add(CFA_XSP16, literal(-1)))
          CFI DPL0 load(1, XDATA, add(CFA_XSP16, literal(-2)))
          CFI ?BRET_EXT load(1, XDATA, add(CFA_XSP16, literal(-3)))
          CFI ?RET_HIGH load(1, XDATA, add(CFA_XSP16, literal(-4)))
          CFI ?RET_LOW load(1, XDATA, add(CFA_XSP16, literal(-5)))
          CFI R7 load(1, XDATA, add(CFA_XSP16, literal(-6)))
          CFI V1 load(1, XDATA, add(CFA_XSP16, literal(-7)))
          CFI V0 load(1, XDATA, add(CFA_XSP16, literal(-8)))
          CFI VB load(1, XDATA, add(CFA_XSP16, literal(-9)))
          CFI R6 load(1, XDATA, add(CFA_XSP16, literal(-10)))
          CFI CFA_SP SP+0
          CFI CFA_XSP16 add(XSP16, 10)
        ; Saved register size: 10
        ; Auto size: 0
// 4281   zclDiscoverAttrsCmd_t *pDiscoverCmd;
// 4282   uint8 *pBuf = pCmd->pData;
        MOV       DPL,R2
        MOV       DPH,R3
        INC       DPTR
        INC       DPTR
        INC       DPTR
        MOVX      A,@DPTR
        MOV       R0,A
        INC       DPTR
        MOVX      A,@DPTR
        MOV       R1,A
        MOV       A,R0
        MOV       R6,A
        MOV       A,R1
        MOV       R7,A
// 4283 
// 4284   pDiscoverCmd = (zclDiscoverAttrsCmd_t *)zcl_mem_alloc( sizeof ( zclDiscoverAttrsCmd_t ) );
        ; Setup parameters for call to function osal_mem_alloc
        MOV       R2,#0x3
        MOV       R3,#0x0
        LCALL     `??osal_mem_alloc::?relay`; Banked call to: osal_mem_alloc
// 4285   if ( pDiscoverCmd != NULL )
        MOV       A,R2
        ORL       A,R3
        JZ        ??zclParseInDiscAttrsCmd_0
// 4286   {
// 4287     pDiscoverCmd->startAttr = BUILD_UINT16( pBuf[0], pBuf[1] );
        MOV       DPL,R6
        MOV       DPH,R7
        MOVX      A,@DPTR
        MOV       R4,A
        INC       DPTR
        MOVX      A,@DPTR
        MOV       R1,A
        MOV       A,R4
        MOV       DPL,R2
        MOV       DPH,R3
        MOVX      @DPTR,A
        INC       DPTR
        MOV       A,R1
        MOVX      @DPTR,A
// 4288     pBuf += 2;
// 4289     pDiscoverCmd->maxAttrIDs = *pBuf;
        MOV       DPL,R6
        MOV       DPH,R7
        INC       DPTR
        INC       DPTR
        MOVX      A,@DPTR
        MOV       DPL,R2
        MOV       DPH,R3
        INC       DPTR
        INC       DPTR
        MOVX      @DPTR,A
// 4290   }
// 4291 
// 4292   return ( (void *)pDiscoverCmd );
??zclParseInDiscAttrsCmd_0:
        MOV       R7,#0x2
        LJMP      ?BANKED_LEAVE_XDATA
// 4293 }
          CFI EndBlock cfiBlock69
// 4294 
// 4295 /*********************************************************************
// 4296  * @fn      zclParseInDiscAttrsRspCmd
// 4297  *
// 4298  * @brief   Parse the "Profile" Discovery Response Commands
// 4299  *
// 4300  *      NOTE: THIS FUNCTION ALLOCATES THE RETURN BUFFER, SO THE CALLING
// 4301  *            FUNCTION IS RESPONSIBLE TO FREE THE MEMORY.
// 4302  *
// 4303  * @param   pCmd - pointer to incoming data to parse
// 4304  *
// 4305  * @return  pointer to the parsed command structure
// 4306  */
// 4307 #define ZCLDISCRSPCMD_DATALEN(a)  ((a)-1) // data len - Discovery Complete

        RSEG BANKED_CODE:HUGECODE:NOROOT(0)
// 4308 static void *zclParseInDiscAttrsRspCmd( zclParseCmd_t *pCmd )
zclParseInDiscAttrsRspCmd:
          CFI Block cfiBlock70 Using cfiCommon0
          CFI Function zclParseInDiscAttrsRspCmd
        CODE
// 4309 {
        FUNCALL zclParseInDiscAttrsRspCmd, osal_mem_alloc
        LOCFRAME ISTACK, 0, STACK
        LOCFRAME PSTACK, 0, STACK
        LOCFRAME XSTACK, 12, STACK
        LOCFRAME IOVERLAY, 0, STATIC
        LOCFRAME DOVERLAY, 0, STATIC
        ARGFRAME ISTACK, 0, STACK
        ARGFRAME PSTACK, 0, STACK
        ARGFRAME XSTACK, 12, STACK
        ARGFRAME IOVERLAY, 0, STATIC
        ARGFRAME DOVERLAY, 0, STATIC
        REQUIRE ?V0
        REQUIRE ?V1
        REQUIRE ?V2
        REQUIRE ?V3
        MOV       A,#-0xc
        LCALL     ?BANKED_ENTER_XDATA
          CFI DPH0 load(1, XDATA, add(CFA_XSP16, literal(-1)))
          CFI DPL0 load(1, XDATA, add(CFA_XSP16, literal(-2)))
          CFI ?BRET_EXT load(1, XDATA, add(CFA_XSP16, literal(-3)))
          CFI ?RET_HIGH load(1, XDATA, add(CFA_XSP16, literal(-4)))
          CFI ?RET_LOW load(1, XDATA, add(CFA_XSP16, literal(-5)))
          CFI R7 load(1, XDATA, add(CFA_XSP16, literal(-6)))
          CFI V3 load(1, XDATA, add(CFA_XSP16, literal(-7)))
          CFI V2 load(1, XDATA, add(CFA_XSP16, literal(-8)))
          CFI V1 load(1, XDATA, add(CFA_XSP16, literal(-9)))
          CFI V0 load(1, XDATA, add(CFA_XSP16, literal(-10)))
          CFI VB load(1, XDATA, add(CFA_XSP16, literal(-11)))
          CFI R6 load(1, XDATA, add(CFA_XSP16, literal(-12)))
          CFI CFA_SP SP+0
          CFI CFA_XSP16 add(XSP16, 12)
        ; Saved register size: 12
        ; Auto size: 0
// 4310   zclDiscoverAttrsRspCmd_t *pDiscoverRspCmd;
// 4311   uint8 *pBuf = pCmd->pData;
        MOV       DPL,R2
        MOV       DPH,R3
        INC       DPTR
        INC       DPTR
        INC       DPTR
        MOVX      A,@DPTR
        MOV       R6,A
        INC       DPTR
        MOVX      A,@DPTR
        MOV       R7,A
// 4312   uint8 numAttr = ZCLDISCRSPCMD_DATALEN(pCmd->dataLen) / ( 2 + 1 ); // Attr ID + Data Type
        MOV       DPL,R2
        MOV       DPH,R3
        INC       DPTR
        MOVX      A,@DPTR
        ADD       A,#-0x1
        MOV       R0,A
        INC       DPTR
        MOVX      A,@DPTR
        ADDC      A,#-0x1
        MOV       R1,A
        MOV       R2,#0x3
        MOV       R3,#0x0
        LCALL     ?US_DIV_MOD
        MOV       A,R0
        MOV       ?V1,A
// 4313 
// 4314   pDiscoverRspCmd = (zclDiscoverAttrsRspCmd_t *)zcl_mem_alloc( sizeof ( zclDiscoverAttrsRspCmd_t ) +
// 4315                     ( numAttr * sizeof(zclDiscoverAttrInfo_t) ) );
        ; Setup parameters for call to function osal_mem_alloc
        MOV       B,#0x3
        MUL       AB
        MOV       R1,B
        ADD       A,#0x2
        MOV       R2,A
        CLR       A
        ADDC      A,R1
        MOV       R3,A
        LCALL     `??osal_mem_alloc::?relay`; Banked call to: osal_mem_alloc
// 4316 
// 4317   if ( pDiscoverRspCmd != NULL )
        MOV       A,R2
        ORL       A,R3
        JZ        ??zclParseInDiscAttrsRspCmd_0
// 4318   {
// 4319     uint8 i;
// 4320 
// 4321     pDiscoverRspCmd->discComplete = *pBuf++;
        MOV       DPL,R6
        MOV       DPH,R7
        MOVX      A,@DPTR
        MOV       DPL,R2
        MOV       DPH,R3
        MOVX      @DPTR,A
        MOV       DPL,R6
        MOV       DPH,R7
        INC       DPTR
        MOV       R6,DPL
        MOV       R7,DPH
// 4322     pDiscoverRspCmd->numAttr = numAttr;
        MOV       DPL,R2
        MOV       DPH,R3
        INC       DPTR
        MOV       A,?V1
        MOVX      @DPTR,A
// 4323 
// 4324     for ( i = 0; i < numAttr; i++ )
        MOV       ?V0,#0x0
        SJMP      ??zclParseInDiscAttrsRspCmd_1
// 4325     {
// 4326       pDiscoverRspCmd->attrList[i].attrID = BUILD_UINT16( pBuf[0], pBuf[1] );
??zclParseInDiscAttrsRspCmd_2:
        MOV       A,?V0
        MOV       B,#0x3
        MUL       AB
        MOV       R0,A
        MOV       R1,B
        MOV       A,R2
        ADD       A,R0
        MOV       R0,A
        MOV       A,R3
        ADDC      A,R1
        MOV       R1,A
        MOV       DPL,R6
        MOV       DPH,R7
        MOVX      A,@DPTR
        MOV       ?V2,A
        INC       DPTR
        MOVX      A,@DPTR
        MOV       R5,A
        MOV       A,?V2
        MOV       DPL,R0
        MOV       DPH,R1
        INC       DPTR
        INC       DPTR
        MOVX      @DPTR,A
        INC       DPTR
        MOV       A,R5
        MOVX      @DPTR,A
// 4327       pBuf += 2;
// 4328       pDiscoverRspCmd->attrList[i].dataType = *pBuf++;
        MOV       DPL,R6
        MOV       DPH,R7
        INC       DPTR
        INC       DPTR
        MOVX      A,@DPTR
        MOV       DPL,R0
        MOV       DPH,R1
        INC       DPTR
        INC       DPTR
        INC       DPTR
        INC       DPTR
        MOVX      @DPTR,A
        MOV       A,R6
        ADD       A,#0x3
        MOV       R6,A
        JNC       ??zclParseInDiscAttrsRspCmd_3
        INC       R7
// 4329     }
??zclParseInDiscAttrsRspCmd_3:
        INC       ?V0
??zclParseInDiscAttrsRspCmd_1:
        MOV       A,?V0
        CLR       C
        SUBB      A,?V1
        JC        ??zclParseInDiscAttrsRspCmd_2
// 4330   }
// 4331 
// 4332   return ( (void *)pDiscoverRspCmd );
??zclParseInDiscAttrsRspCmd_0:
        MOV       R7,#0x4
        LJMP      ?BANKED_LEAVE_XDATA
// 4333 }
          CFI EndBlock cfiBlock70
// 4334 
// 4335 /*********************************************************************
// 4336  * @fn      zclParseInDiscCmdsCmd
// 4337  *
// 4338  * @brief   Parse the "Profile" Discovery Commands
// 4339  *
// 4340  *      NOTE: THIS FUNCTION ALLOCATES THE RETURN BUFFER, SO THE CALLING
// 4341  *            FUNCTION IS RESPONSIBLE TO FREE THE MEMORY.
// 4342  *
// 4343  * @param   pCmd - pointer to incoming data to parse
// 4344  *
// 4345  * @return  pointer to the parsed command structure
// 4346  */

        RSEG BANKED_CODE:HUGECODE:NOROOT(0)
// 4347 void *zclParseInDiscCmdsCmd( zclParseCmd_t *pCmd )
zclParseInDiscCmdsCmd:
          CFI Block cfiBlock71 Using cfiCommon0
          CFI Function zclParseInDiscCmdsCmd
        CODE
// 4348 {
        FUNCALL zclParseInDiscCmdsCmd, osal_mem_alloc
        LOCFRAME ISTACK, 0, STACK
        LOCFRAME PSTACK, 0, STACK
        LOCFRAME XSTACK, 10, STACK
        LOCFRAME IOVERLAY, 0, STATIC
        LOCFRAME DOVERLAY, 0, STATIC
        ARGFRAME ISTACK, 0, STACK
        ARGFRAME PSTACK, 0, STACK
        ARGFRAME XSTACK, 10, STACK
        ARGFRAME IOVERLAY, 0, STATIC
        ARGFRAME DOVERLAY, 0, STATIC
        REQUIRE ?V0
        REQUIRE ?V1
        MOV       A,#-0xa
        LCALL     ?BANKED_ENTER_XDATA
          CFI DPH0 load(1, XDATA, add(CFA_XSP16, literal(-1)))
          CFI DPL0 load(1, XDATA, add(CFA_XSP16, literal(-2)))
          CFI ?BRET_EXT load(1, XDATA, add(CFA_XSP16, literal(-3)))
          CFI ?RET_HIGH load(1, XDATA, add(CFA_XSP16, literal(-4)))
          CFI ?RET_LOW load(1, XDATA, add(CFA_XSP16, literal(-5)))
          CFI R7 load(1, XDATA, add(CFA_XSP16, literal(-6)))
          CFI V1 load(1, XDATA, add(CFA_XSP16, literal(-7)))
          CFI V0 load(1, XDATA, add(CFA_XSP16, literal(-8)))
          CFI VB load(1, XDATA, add(CFA_XSP16, literal(-9)))
          CFI R6 load(1, XDATA, add(CFA_XSP16, literal(-10)))
          CFI CFA_SP SP+0
          CFI CFA_XSP16 add(XSP16, 10)
        ; Saved register size: 10
        ; Auto size: 0
// 4349   zclDiscoverCmdsCmd_t *pDiscoverCmd;
// 4350   uint8 *pBuf = pCmd->pData;
        MOV       DPL,R2
        MOV       DPH,R3
        INC       DPTR
        INC       DPTR
        INC       DPTR
        MOVX      A,@DPTR
        MOV       R0,A
        INC       DPTR
        MOVX      A,@DPTR
        MOV       R1,A
        MOV       A,R0
        MOV       R6,A
        MOV       A,R1
        MOV       R7,A
// 4351 
// 4352   pDiscoverCmd = (zclDiscoverCmdsCmd_t *)zcl_mem_alloc( sizeof ( zclDiscoverCmdsCmd_t ) );
        ; Setup parameters for call to function osal_mem_alloc
        MOV       R2,#0x2
        MOV       R3,#0x0
        LCALL     `??osal_mem_alloc::?relay`; Banked call to: osal_mem_alloc
// 4353   if ( pDiscoverCmd != NULL )
        MOV       A,R2
        ORL       A,R3
        JZ        ??zclParseInDiscCmdsCmd_0
// 4354   {
// 4355     pDiscoverCmd->startCmdID = *pBuf++;
        MOV       DPL,R6
        MOV       DPH,R7
        MOVX      A,@DPTR
        MOV       DPL,R2
        MOV       DPH,R3
        MOVX      @DPTR,A
// 4356     pDiscoverCmd->maxCmdID = *pBuf++;
        MOV       DPL,R6
        MOV       DPH,R7
        INC       DPTR
        MOVX      A,@DPTR
        MOV       DPL,R2
        MOV       DPH,R3
        INC       DPTR
        MOVX      @DPTR,A
// 4357   }
// 4358 
// 4359   return ( (void *)pDiscoverCmd );
??zclParseInDiscCmdsCmd_0:
        MOV       R7,#0x2
        LJMP      ?BANKED_LEAVE_XDATA
// 4360 }
          CFI EndBlock cfiBlock71
// 4361 
// 4362 /*********************************************************************
// 4363  * @fn      zclParseInDiscCmdsRspCmd
// 4364  *
// 4365  * @brief   Parse the Discover Commands Response Command
// 4366  *
// 4367  *      NOTE: THIS FUNCTION ALLOCATES THE RETURN BUFFER, SO THE CALLING
// 4368  *            FUNCTION IS RESPONSIBLE TO FREE THE MEMORY.
// 4369  *
// 4370  * @param   pCmd - pointer to incoming data to parse
// 4371  *
// 4372  * @return  pointer to the parsed command structure
// 4373  */
// 4374 #define ZCLDISCRSPCMD_DATALEN(a)  ((a)-1) // data len - Discovery Complete

        RSEG BANKED_CODE:HUGECODE:NOROOT(0)
// 4375 static void *zclParseInDiscCmdsRspCmd( zclParseCmd_t *pCmd )
zclParseInDiscCmdsRspCmd:
          CFI Block cfiBlock72 Using cfiCommon0
          CFI Function zclParseInDiscCmdsRspCmd
        CODE
// 4376 {
        FUNCALL zclParseInDiscCmdsRspCmd, osal_mem_alloc
        LOCFRAME ISTACK, 0, STACK
        LOCFRAME PSTACK, 0, STACK
        LOCFRAME XSTACK, 12, STACK
        LOCFRAME IOVERLAY, 0, STATIC
        LOCFRAME DOVERLAY, 0, STATIC
        ARGFRAME ISTACK, 0, STACK
        ARGFRAME PSTACK, 0, STACK
        ARGFRAME XSTACK, 12, STACK
        ARGFRAME IOVERLAY, 0, STATIC
        ARGFRAME DOVERLAY, 0, STATIC
        REQUIRE ?V0
        REQUIRE ?V2
        REQUIRE ?V3
        MOV       A,#-0xc
        LCALL     ?BANKED_ENTER_XDATA
          CFI DPH0 load(1, XDATA, add(CFA_XSP16, literal(-1)))
          CFI DPL0 load(1, XDATA, add(CFA_XSP16, literal(-2)))
          CFI ?BRET_EXT load(1, XDATA, add(CFA_XSP16, literal(-3)))
          CFI ?RET_HIGH load(1, XDATA, add(CFA_XSP16, literal(-4)))
          CFI ?RET_LOW load(1, XDATA, add(CFA_XSP16, literal(-5)))
          CFI R7 load(1, XDATA, add(CFA_XSP16, literal(-6)))
          CFI V3 load(1, XDATA, add(CFA_XSP16, literal(-7)))
          CFI V2 load(1, XDATA, add(CFA_XSP16, literal(-8)))
          CFI V1 load(1, XDATA, add(CFA_XSP16, literal(-9)))
          CFI V0 load(1, XDATA, add(CFA_XSP16, literal(-10)))
          CFI VB load(1, XDATA, add(CFA_XSP16, literal(-11)))
          CFI R6 load(1, XDATA, add(CFA_XSP16, literal(-12)))
          CFI CFA_SP SP+0
          CFI CFA_XSP16 add(XSP16, 12)
        ; Saved register size: 12
        ; Auto size: 0
// 4377   zclDiscoverCmdsCmdRsp_t *pDiscoverRspCmd;
// 4378   uint8 *pBuf = pCmd->pData;
        MOV       DPL,R2
        MOV       DPH,R3
        INC       DPTR
        INC       DPTR
        INC       DPTR
        MOVX      A,@DPTR
        MOV       R6,A
        INC       DPTR
        MOVX      A,@DPTR
        MOV       R7,A
// 4379   uint8 numCmds = ZCLDISCRSPCMD_DATALEN(pCmd->dataLen);  // length of command ID variable array
        MOV       DPL,R2
        MOV       DPH,R3
        INC       DPTR
        MOVX      A,@DPTR
        DEC       A
        MOV       ?V0,A
// 4380 
// 4381     // allocate memory for size of structure plus variable array
// 4382   pDiscoverRspCmd = (zclDiscoverCmdsCmdRsp_t *)zcl_mem_alloc( sizeof ( zclDiscoverCmdsCmdRsp_t ) +
// 4383                     ( numCmds * sizeof(uint8) ) );
        ; Setup parameters for call to function osal_mem_alloc
        ADD       A,#0x5
        MOV       R2,A
        CLR       A
        ADDC      A,#0x0
        MOV       R3,A
        LCALL     `??osal_mem_alloc::?relay`; Banked call to: osal_mem_alloc
// 4384   if ( pDiscoverRspCmd != NULL )
        MOV       A,R2
        ORL       A,R3
        JZ        ??zclParseInDiscCmdsRspCmd_0
// 4385   {
// 4386     uint8 i;
// 4387     pDiscoverRspCmd->discComplete = *pBuf++;
        MOV       DPL,R6
        MOV       DPH,R7
        MOVX      A,@DPTR
        MOV       DPL,R2
        MOV       DPH,R3
        MOVX      @DPTR,A
        MOV       DPL,R6
        MOV       DPH,R7
        INC       DPTR
        MOV       R6,DPL
        MOV       R7,DPH
// 4388     pDiscoverRspCmd->numCmd = numCmds;
        MOV       DPL,R2
        MOV       DPH,R3
        INC       DPTR
        INC       DPTR
        MOV       A,?V0
        MOVX      @DPTR,A
// 4389 
// 4390     for ( i = 0; i < numCmds; i++ )
        MOV       R0,#0x0
        SJMP      ??zclParseInDiscCmdsRspCmd_1
// 4391     {
// 4392       pDiscoverRspCmd->pCmdID[i] = *pBuf++;
??zclParseInDiscCmdsRspCmd_2:
        MOV       DPL,R6
        MOV       DPH,R7
        MOVX      A,@DPTR
        PUSH      A
          CFI CFA_SP SP+-1
        MOV       A,R0
        MOV       R4,A
        MOV       DPL,R2
        MOV       DPH,R3
        INC       DPTR
        INC       DPTR
        INC       DPTR
        MOVX      A,@DPTR
        ADD       A,R4
        MOV       R1,A
        INC       DPTR
        MOVX      A,@DPTR
        ADDC      A,#0x0
        MOV       DPL,R1
        MOV       DPH,A
        POP       A
          CFI CFA_SP SP+0
        MOVX      @DPTR,A
        MOV       DPL,R6
        MOV       DPH,R7
        INC       DPTR
        MOV       R6,DPL
        MOV       R7,DPH
// 4393     }
        INC       R0
??zclParseInDiscCmdsRspCmd_1:
        MOV       A,R0
        CLR       C
        SUBB      A,?V0
        JC        ??zclParseInDiscCmdsRspCmd_2
// 4394   }
// 4395 
// 4396   return ( (void *)pDiscoverRspCmd );
??zclParseInDiscCmdsRspCmd_0:
        MOV       R7,#0x4
        LJMP      ?BANKED_LEAVE_XDATA
// 4397 }
          CFI EndBlock cfiBlock72
// 4398 
// 4399 /*********************************************************************
// 4400  * @fn      zclParseInDiscAttrsExtRspCmd
// 4401  *
// 4402  * @brief   Parse the "Profile" Discovery Extended Attributes Response Commands
// 4403  *
// 4404  *      NOTE: THIS FUNCTION ALLOCATES THE RETURN BUFFER, SO THE CALLING
// 4405  *            FUNCTION IS RESPONSIBLE TO FREE THE MEMORY.
// 4406  *
// 4407  * @param   pCmd - pointer to incoming data to parse
// 4408  *
// 4409  * @return  pointer to the parsed command structure
// 4410  */
// 4411 #define ZCLDISCRSPCMD_DATALEN(a)  ((a)-1) // data len - Discovery Complete

        RSEG BANKED_CODE:HUGECODE:NOROOT(0)
// 4412 static void *zclParseInDiscAttrsExtRspCmd( zclParseCmd_t *pCmd )
zclParseInDiscAttrsExtRspCmd:
          CFI Block cfiBlock73 Using cfiCommon0
          CFI Function zclParseInDiscAttrsExtRspCmd
        CODE
// 4413 {
        FUNCALL zclParseInDiscAttrsExtRspCmd, osal_mem_alloc
        LOCFRAME ISTACK, 0, STACK
        LOCFRAME PSTACK, 0, STACK
        LOCFRAME XSTACK, 14, STACK
        LOCFRAME IOVERLAY, 0, STATIC
        LOCFRAME DOVERLAY, 0, STATIC
        ARGFRAME ISTACK, 0, STACK
        ARGFRAME PSTACK, 0, STACK
        ARGFRAME XSTACK, 14, STACK
        ARGFRAME IOVERLAY, 0, STATIC
        ARGFRAME DOVERLAY, 0, STATIC
        REQUIRE ?V0
        REQUIRE ?V1
        REQUIRE ?V2
        REQUIRE ?V3
        REQUIRE ?V4
        REQUIRE ?V5
        MOV       A,#-0xe
        LCALL     ?BANKED_ENTER_XDATA
          CFI DPH0 load(1, XDATA, add(CFA_XSP16, literal(-1)))
          CFI DPL0 load(1, XDATA, add(CFA_XSP16, literal(-2)))
          CFI ?BRET_EXT load(1, XDATA, add(CFA_XSP16, literal(-3)))
          CFI ?RET_HIGH load(1, XDATA, add(CFA_XSP16, literal(-4)))
          CFI ?RET_LOW load(1, XDATA, add(CFA_XSP16, literal(-5)))
          CFI R7 load(1, XDATA, add(CFA_XSP16, literal(-6)))
          CFI V5 load(1, XDATA, add(CFA_XSP16, literal(-7)))
          CFI V4 load(1, XDATA, add(CFA_XSP16, literal(-8)))
          CFI V3 load(1, XDATA, add(CFA_XSP16, literal(-9)))
          CFI V2 load(1, XDATA, add(CFA_XSP16, literal(-10)))
          CFI V1 load(1, XDATA, add(CFA_XSP16, literal(-11)))
          CFI V0 load(1, XDATA, add(CFA_XSP16, literal(-12)))
          CFI VB load(1, XDATA, add(CFA_XSP16, literal(-13)))
          CFI R6 load(1, XDATA, add(CFA_XSP16, literal(-14)))
          CFI CFA_SP SP+0
          CFI CFA_XSP16 add(XSP16, 14)
        ; Saved register size: 14
        ; Auto size: 0
// 4414   zclDiscoverAttrsExtRsp_t *pDiscoverRspCmd;
// 4415   uint8 i;
// 4416   uint8 *pBuf = pCmd->pData;
        MOV       DPL,R2
        MOV       DPH,R3
        INC       DPTR
        INC       DPTR
        INC       DPTR
        MOVX      A,@DPTR
        MOV       R6,A
        INC       DPTR
        MOVX      A,@DPTR
        MOV       R7,A
// 4417   uint8 numAttrs = ZCLDISCRSPCMD_DATALEN(pCmd->dataLen) / ( 2 + 1 + 1 ); // Attr ID + Data Type + Access Control
        MOV       DPL,R2
        MOV       DPH,R3
        INC       DPTR
        MOVX      A,@DPTR
        ADD       A,#-0x1
        MOV       ?V0,A
        INC       DPTR
        MOVX      A,@DPTR
        ADDC      A,#-0x1
        MOV       ?V1,A
        MOV       A,#0x2
        MOV       R0,#?V0
        LCALL     ?US_SHR
        MOV       A,?V0
        MOV       ?V0,A
// 4418 
// 4419   pDiscoverRspCmd = (zclDiscoverAttrsExtRsp_t *)zcl_mem_alloc( sizeof ( zclDiscoverAttrsExtRsp_t ) +
// 4420                     ( numAttrs * sizeof(zclExtAttrInfo_t) ) );
        ; Setup parameters for call to function osal_mem_alloc
        MOV       ?V2,A
        MOV       ?V3,#0x0
        MOV       A,#0x2
        MOV       R0,#?V2
        LCALL     ?S_SHL
        MOV       A,?V2
        ADD       A,#0x2
        MOV       R2,A
        CLR       A
        ADDC      A,?V3
        MOV       R3,A
        LCALL     `??osal_mem_alloc::?relay`; Banked call to: osal_mem_alloc
// 4421 
// 4422   if ( pDiscoverRspCmd != NULL )
        MOV       A,R2
        ORL       A,R3
        JZ        ??zclParseInDiscAttrsExtRspCmd_0
// 4423   {
// 4424     pDiscoverRspCmd->discComplete = *pBuf++;
        MOV       DPL,R6
        MOV       DPH,R7
        MOVX      A,@DPTR
        MOV       DPL,R2
        MOV       DPH,R3
        MOVX      @DPTR,A
        MOV       DPL,R6
        MOV       DPH,R7
        INC       DPTR
        MOV       R6,DPL
        MOV       R7,DPH
// 4425     pDiscoverRspCmd->numAttr = numAttrs;
        MOV       DPL,R2
        MOV       DPH,R3
        INC       DPTR
        MOV       A,?V0
        MOVX      @DPTR,A
// 4426 
// 4427     for ( i = 0; i < numAttrs; i++ )
        MOV       R4,#0x0
        SJMP      ??zclParseInDiscAttrsExtRspCmd_1
// 4428     {
// 4429       pDiscoverRspCmd->aExtAttrInfo[i].attrID = BUILD_UINT16( pBuf[0], pBuf[1] );
??zclParseInDiscAttrsExtRspCmd_2:
        MOV       A,R4
        MOV       ?V2,A
        MOV       ?V3,#0x0
        MOV       A,#0x2
        MOV       R0,#?V2
        LCALL     ?S_SHL
        MOV       A,R2
        ADD       A,?V2
        MOV       R0,A
        MOV       A,R3
        ADDC      A,?V3
        MOV       R1,A
        MOV       DPL,R6
        MOV       DPH,R7
        MOVX      A,@DPTR
        MOV       ?V4,A
        INC       DPTR
        MOVX      A,@DPTR
        MOV       ?V3,A
        MOV       A,?V4
        MOV       DPL,R0
        MOV       DPH,R1
        INC       DPTR
        INC       DPTR
        MOVX      @DPTR,A
        INC       DPTR
        MOV       A,?V3
        MOVX      @DPTR,A
// 4430       pBuf += 2;
// 4431       pDiscoverRspCmd->aExtAttrInfo[i].attrDataType = *pBuf++;
        MOV       DPL,R6
        MOV       DPH,R7
        INC       DPTR
        INC       DPTR
        MOVX      A,@DPTR
        MOV       DPL,R0
        MOV       DPH,R1
        INC       DPTR
        INC       DPTR
        INC       DPTR
        INC       DPTR
        MOVX      @DPTR,A
// 4432       pDiscoverRspCmd->aExtAttrInfo[i].attrAccessControl = *pBuf++;
        MOV       DPL,R6
        MOV       DPH,R7
        INC       DPTR
        INC       DPTR
        INC       DPTR
        MOVX      A,@DPTR
        MOV       DPL,R0
        MOV       DPH,R1
        INC       DPTR
        INC       DPTR
        INC       DPTR
        INC       DPTR
        INC       DPTR
        MOVX      @DPTR,A
        MOV       A,R6
        ADD       A,#0x4
        MOV       R6,A
        JNC       ??zclParseInDiscAttrsExtRspCmd_3
        INC       R7
// 4433     }
??zclParseInDiscAttrsExtRspCmd_3:
        INC       R4
??zclParseInDiscAttrsExtRspCmd_1:
        MOV       A,R4
        CLR       C
        SUBB      A,?V0
        JC        ??zclParseInDiscAttrsExtRspCmd_2
// 4434   }
// 4435 
// 4436   return ( (void *)pDiscoverRspCmd );
??zclParseInDiscAttrsExtRspCmd_0:
        MOV       R7,#0x6
        LJMP      ?BANKED_LEAVE_XDATA
// 4437 }
          CFI EndBlock cfiBlock73
// 4438 #endif // ZCL_DISCOVER
// 4439 
// 4440 #ifdef ZCL_READ
// 4441 /*********************************************************************
// 4442  * @fn      zclProcessInReadCmd
// 4443  *
// 4444  * @brief   Process the "Profile" Read Command
// 4445  *
// 4446  * @param   pInMsg - incoming message to process
// 4447  *
// 4448  * @return  TRUE if command processed. FALSE, otherwise.
// 4449  */

        RSEG BANKED_CODE:HUGECODE:NOROOT(0)
// 4450 static uint8 zclProcessInReadCmd( zclIncoming_t *pInMsg )
zclProcessInReadCmd:
          CFI Block cfiBlock74 Using cfiCommon0
          CFI Function zclProcessInReadCmd
        CODE
// 4451 {
        FUNCALL zclProcessInReadCmd, osal_mem_alloc
        LOCFRAME ISTACK, 0, STACK
        LOCFRAME PSTACK, 0, STACK
        LOCFRAME XSTACK, 28, STACK
        LOCFRAME IOVERLAY, 0, STATIC
        LOCFRAME DOVERLAY, 0, STATIC
        ARGFRAME ISTACK, 0, STACK
        ARGFRAME PSTACK, 0, STACK
        ARGFRAME XSTACK, 28, STACK
        ARGFRAME IOVERLAY, 0, STATIC
        ARGFRAME DOVERLAY, 0, STATIC
        FUNCALL zclProcessInReadCmd, zclFindAttrRec
        LOCFRAME ISTACK, 0, STACK
        LOCFRAME PSTACK, 0, STACK
        LOCFRAME XSTACK, 30, STACK
        LOCFRAME IOVERLAY, 0, STATIC
        LOCFRAME DOVERLAY, 0, STATIC
        ARGFRAME ISTACK, 0, STACK
        ARGFRAME PSTACK, 0, STACK
        ARGFRAME XSTACK, 30, STACK
        ARGFRAME IOVERLAY, 0, STATIC
        ARGFRAME DOVERLAY, 0, STATIC
        FUNCALL zclProcessInReadCmd, zclAuthorizeRead
        LOCFRAME ISTACK, 0, STACK
        LOCFRAME PSTACK, 0, STACK
        LOCFRAME XSTACK, 28, STACK
        LOCFRAME IOVERLAY, 0, STATIC
        LOCFRAME DOVERLAY, 0, STATIC
        ARGFRAME ISTACK, 0, STACK
        ARGFRAME PSTACK, 0, STACK
        ARGFRAME XSTACK, 28, STACK
        ARGFRAME IOVERLAY, 0, STATIC
        ARGFRAME DOVERLAY, 0, STATIC
        FUNCALL zclProcessInReadCmd, zcl_SendReadRsp
        LOCFRAME ISTACK, 0, STACK
        LOCFRAME PSTACK, 0, STACK
        LOCFRAME XSTACK, 33, STACK
        LOCFRAME IOVERLAY, 0, STATIC
        LOCFRAME DOVERLAY, 0, STATIC
        ARGFRAME ISTACK, 0, STACK
        ARGFRAME PSTACK, 0, STACK
        ARGFRAME XSTACK, 33, STACK
        ARGFRAME IOVERLAY, 0, STATIC
        ARGFRAME DOVERLAY, 0, STATIC
        FUNCALL zclProcessInReadCmd, osal_mem_free
        LOCFRAME ISTACK, 0, STACK
        LOCFRAME PSTACK, 0, STACK
        LOCFRAME XSTACK, 28, STACK
        LOCFRAME IOVERLAY, 0, STATIC
        LOCFRAME DOVERLAY, 0, STATIC
        ARGFRAME ISTACK, 0, STACK
        ARGFRAME PSTACK, 0, STACK
        ARGFRAME XSTACK, 28, STACK
        ARGFRAME IOVERLAY, 0, STATIC
        ARGFRAME DOVERLAY, 0, STATIC
        REQUIRE ?V0
        REQUIRE ?V1
        REQUIRE ?V2
        REQUIRE ?V3
        REQUIRE ?V4
        REQUIRE ?V5
        REQUIRE ?V6
        REQUIRE ?V7
        REQUIRE ?V8
        REQUIRE ?V9
        REQUIRE ?V10
        REQUIRE ?V11
        MOV       A,#-0x14
        LCALL     ?BANKED_ENTER_XDATA
          CFI DPH0 load(1, XDATA, add(CFA_XSP16, literal(-1)))
          CFI DPL0 load(1, XDATA, add(CFA_XSP16, literal(-2)))
          CFI ?BRET_EXT load(1, XDATA, add(CFA_XSP16, literal(-3)))
          CFI ?RET_HIGH load(1, XDATA, add(CFA_XSP16, literal(-4)))
          CFI ?RET_LOW load(1, XDATA, add(CFA_XSP16, literal(-5)))
          CFI R7 load(1, XDATA, add(CFA_XSP16, literal(-6)))
          CFI V11 load(1, XDATA, add(CFA_XSP16, literal(-7)))
          CFI V10 load(1, XDATA, add(CFA_XSP16, literal(-8)))
          CFI V9 load(1, XDATA, add(CFA_XSP16, literal(-9)))
          CFI V8 load(1, XDATA, add(CFA_XSP16, literal(-10)))
          CFI V7 load(1, XDATA, add(CFA_XSP16, literal(-11)))
          CFI V6 load(1, XDATA, add(CFA_XSP16, literal(-12)))
          CFI V5 load(1, XDATA, add(CFA_XSP16, literal(-13)))
          CFI V4 load(1, XDATA, add(CFA_XSP16, literal(-14)))
          CFI V3 load(1, XDATA, add(CFA_XSP16, literal(-15)))
          CFI V2 load(1, XDATA, add(CFA_XSP16, literal(-16)))
          CFI V1 load(1, XDATA, add(CFA_XSP16, literal(-17)))
          CFI V0 load(1, XDATA, add(CFA_XSP16, literal(-18)))
          CFI VB load(1, XDATA, add(CFA_XSP16, literal(-19)))
          CFI R6 load(1, XDATA, add(CFA_XSP16, literal(-20)))
          CFI CFA_SP SP+0
          CFI CFA_XSP16 add(XSP16, 20)
        ; Saved register size: 20
        ; Auto size: 8
        MOV       A,#-0x8
        LCALL     ?ALLOC_XSTACK8
          CFI CFA_XSP16 add(XSP16, 28)
        MOV       A,R2
        MOV       R6,A
        MOV       A,R3
        MOV       R7,A
// 4452   zclReadCmd_t *readCmd;
// 4453   zclReadRspCmd_t *readRspCmd;
// 4454   zclAttrRec_t attrRec;
// 4455   uint16 len;
// 4456   uint8 i;
// 4457   uint8 attrFound;
// 4458 
// 4459   readCmd = (zclReadCmd_t *)pInMsg->attrCmd;
        MOV       A,R2
        ADD       A,#0xc
        MOV       DPL,A
        CLR       A
        ADDC      A,R7
        MOV       DPH,A
        MOVX      A,@DPTR
        MOV       ?V6,A
        INC       DPTR
        MOVX      A,@DPTR
        MOV       ?V7,A
// 4460 
// 4461   // calculate the length of the response status record
// 4462   len = sizeof( zclReadRspCmd_t ) + (readCmd->numAttr * sizeof( zclReadRspStatus_t ));
// 4463 
// 4464   readRspCmd = zcl_mem_alloc( len );
        ; Setup parameters for call to function osal_mem_alloc
        MOV       DPL,?V6
        MOV       DPH,A
        MOVX      A,@DPTR
        MOV       B,#0x6
        MUL       AB
        MOV       R1,B
        ADD       A,#0x1
        MOV       R2,A
        CLR       A
        ADDC      A,R1
        MOV       R3,A
        LCALL     `??osal_mem_alloc::?relay`; Banked call to: osal_mem_alloc
        MOV       ?V4,R2
        MOV       ?V5,R3
// 4465   if ( readRspCmd == NULL )
        MOV       A,R2
        ORL       A,R3
        JNZ       ??zclProcessInReadCmd_0
// 4466   {
// 4467     return FALSE; // EMBEDDED RETURN
        MOV       R1,#0x0
        LJMP      ??zclProcessInReadCmd_1 & 0xFFFF
// 4468   }
// 4469 
// 4470   readRspCmd->numAttr = readCmd->numAttr;
??zclProcessInReadCmd_0:
        MOV       DPL,?V6
        MOV       DPH,?V7
        MOVX      A,@DPTR
        MOV       DPL,R2
        MOV       DPH,R3
        MOVX      @DPTR,A
// 4471   for ( i = 0; i < readCmd->numAttr; i++ )
        MOV       ?V0,#0x0
        SJMP      ??zclProcessInReadCmd_2
// 4472   {
// 4473     zclReadRspStatus_t *statusRec = &(readRspCmd->attrList[i]);
// 4474 
// 4475     statusRec->attrID = readCmd->attrID[i];
// 4476     
// 4477     attrFound = zclFindAttrRec( pInMsg->msg->endPoint, pInMsg->msg->clusterId, readCmd->attrID[i], &attrRec );
// 4478     
// 4479     //Validate the attribute is found and the access control
// 4480     if ( ( attrFound == TRUE ) && 
// 4481          (  (attrRec.attr.accessControl & ACCESS_GLOBAL) || 
// 4482             (GET_BIT( &attrRec.attr.accessControl, ACCESS_CONTROL_MASK ) == pInMsg->hdr.fc.direction ) ) )
// 4483     {
// 4484       if ( zcl_AccessCtrlRead( attrRec.attr.accessControl ) )
// 4485       {
// 4486         statusRec->status = zclAuthorizeRead( pInMsg->msg->endPoint,
// 4487                                               &(pInMsg->msg->srcAddr), &attrRec );
// 4488         if ( statusRec->status == ZCL_STATUS_SUCCESS )
// 4489         {
// 4490           statusRec->data = attrRec.attr.dataPtr;
// 4491           statusRec->dataType = attrRec.attr.dataType;
// 4492         }
// 4493       }
// 4494       else
// 4495       {
// 4496         statusRec->status = ZCL_STATUS_WRITE_ONLY;
// 4497       }
// 4498     }
// 4499     else
// 4500     {
// 4501       statusRec->status = ZCL_STATUS_UNSUPPORTED_ATTRIBUTE;
??zclProcessInReadCmd_3:
        MOV       DPL,?V2
        MOV       DPH,?V3
        INC       DPTR
        INC       DPTR
        MOV       A,#-0x7a
??zclProcessInReadCmd_4:
        MOVX      @DPTR,A
// 4502     }
??zclProcessInReadCmd_5:
        INC       ?V0
??zclProcessInReadCmd_2:
        MOV       DPL,?V6
        MOV       DPH,?V7
        MOVX      A,@DPTR
        MOV       R0,A
        MOV       A,?V0
        CLR       C
        SUBB      A,R0
        JC        $+5
        LJMP      ??zclProcessInReadCmd_6 & 0xFFFF
        MOV       R0,?V0
        MOV       A,R0
        MOV       B,#0x6
        MUL       AB
        MOV       R2,A
        MOV       R3,B
        MOV       A,?V4
        ADD       A,R2
        MOV       DPL,A
        MOV       A,?V5
        ADDC      A,R3
        MOV       DPH,A
        INC       DPTR
        MOV       ?V2,DPL
        MOV       ?V3,DPH
        MOV       A,R0
        ADD       A,R0
        MOV       R0,A
        CLR       A
        RLC       A
        MOV       R1,A
        MOV       A,?V6
        ADD       A,R0
        MOV       DPL,A
        MOV       A,?V7
        ADDC      A,R1
        MOV       DPH,A
        INC       DPTR
        MOV       R2,DPL
        MOV       R3,DPH
        MOVX      A,@DPTR
        MOV       R0,A
        INC       DPTR
        MOVX      A,@DPTR
        MOV       R1,A
        MOV       DPL,?V2
        MOV       DPH,?V3
        MOV       A,R0
        MOVX      @DPTR,A
        INC       DPTR
        MOV       A,R1
        MOVX      @DPTR,A
        MOV       DPL,R6
        MOV       DPH,R7
        MOVX      A,@DPTR
        MOV       R0,A
        INC       DPTR
        MOVX      A,@DPTR
        MOV       ?V8,R0
        MOV       ?V9,A
        ; Setup parameters for call to function zclFindAttrRec
        MOV       R0,?XSP + 0
        MOV       R1,?XSP + 1
        MOV       ?V10,R0
        MOV       ?V11,R1
        MOV       R0,#?V10
        LCALL     ?PUSH_XSTACK_I_TWO
          CFI CFA_XSP16 add(XSP16, 30)
        MOV       DPL,R2
        MOV       DPH,R3
        MOVX      A,@DPTR
        MOV       R4,A
        INC       DPTR
        MOVX      A,@DPTR
        MOV       R5,A
        MOV       DPL,?V8
        MOV       DPH,?V9
        INC       DPTR
        INC       DPTR
        INC       DPTR
        INC       DPTR
        MOVX      A,@DPTR
        MOV       R2,A
        INC       DPTR
        MOVX      A,@DPTR
        MOV       R3,A
        MOV       A,?V8
        ADD       A,#0x14
        MOV       DPL,A
        CLR       A
        ADDC      A,?V9
        MOV       DPH,A
        MOVX      A,@DPTR
        MOV       R1,A
        LCALL     `??zclFindAttrRec::?relay`; Banked call to: zclFindAttrRec
        MOV       A,#0x2
        LCALL     ?DEALLOC_XSTACK8
          CFI CFA_XSP16 add(XSP16, 28)
        MOV       A,R1
        XRL       A,#0x1
        JZ        $+5
        LJMP      ??zclProcessInReadCmd_3 & 0xFFFF
        MOV       A,#0x5
        LCALL     ?XSTACK_DISP0_8
        MOVX      A,@DPTR
        MOV       C,0xE0 /* A   */.6
        JC        ??zclProcessInReadCmd_7
        MOV       DPL,R6
        MOV       DPH,R7
        INC       DPTR
        INC       DPTR
        MOVX      A,@DPTR
        RRC       A
        RRC       A
        RRC       A
        ANL       A,#0x1f
        MOV       C,0xE0 /* A   */.0
        MOV       B.0,C
        MOV       A,#0x5
        LCALL     ?XSTACK_DISP0_8
        MOVX      A,@DPTR
        MOV       C,0xE0 /* A   */.7
        JB        B.0,??zclProcessInReadCmd_8
        CPL       C
??zclProcessInReadCmd_8:
        JC        $+5
        LJMP      ??zclProcessInReadCmd_3 & 0xFFFF
??zclProcessInReadCmd_7:
        MOV       A,?V2
        ADD       A,#0x2
        MOV       ?V8,A
        CLR       A
        ADDC      A,?V3
        MOV       ?V9,A
        MOVX      A,@DPTR
        MOV       C,0xE0 /* A   */.0
        JNC       ??zclProcessInReadCmd_9
        MOV       DPL,R6
        MOV       DPH,R7
        MOVX      A,@DPTR
        MOV       R0,A
        INC       DPTR
        MOVX      A,@DPTR
        MOV       R1,A
        ; Setup parameters for call to function zclAuthorizeRead
        MOV       R4,?XSP + 0
        MOV       R5,?XSP + 1
        MOV       A,R0
        ADD       A,#0x6
        MOV       R2,A
        CLR       A
        ADDC      A,R1
        MOV       R3,A
        MOV       A,R0
        ADD       A,#0x14
        MOV       DPL,A
        CLR       A
        ADDC      A,R1
        MOV       DPH,A
        MOVX      A,@DPTR
        MOV       R1,A
        LCALL     `??zclAuthorizeRead::?relay`; Banked call to: zclAuthorizeRead
        MOV       A,R1
        MOV       R0,A
        MOV       DPL,?V8
        MOV       DPH,?V9
        MOVX      @DPTR,A
        JZ        $+5
        LJMP      ??zclProcessInReadCmd_5 & 0xFFFF
        MOV       A,#0x6
        LCALL     ?XSTACK_DISP0_8
        MOVX      A,@DPTR
        MOV       R0,A
        INC       DPTR
        MOVX      A,@DPTR
        MOV       R1,A
        MOV       DPL,?V2
        MOV       DPH,?V3
        INC       DPTR
        INC       DPTR
        INC       DPTR
        INC       DPTR
        MOV       A,R0
        MOVX      @DPTR,A
        INC       DPTR
        MOV       A,R1
        MOVX      @DPTR,A
        MOV       A,#0x4
        LCALL     ?XSTACK_DISP0_8
        MOVX      A,@DPTR
        MOV       DPL,?V2
        MOV       DPH,?V3
        INC       DPTR
        INC       DPTR
        INC       DPTR
        LJMP      ??zclProcessInReadCmd_4 & 0xFFFF
??zclProcessInReadCmd_9:
        MOV       DPL,?V8
        MOV       DPH,?V9
        MOV       A,#-0x71
        LJMP      ??zclProcessInReadCmd_4 & 0xFFFF
// 4503   }
// 4504 
// 4505   // Build and send Read Response command
// 4506   zcl_SendReadRsp( pInMsg->msg->endPoint, &(pInMsg->msg->srcAddr), pInMsg->msg->clusterId,
// 4507                    readRspCmd, !pInMsg->hdr.fc.direction,
// 4508                    true, pInMsg->hdr.transSeqNum );
??zclProcessInReadCmd_6:
        MOV       DPL,R6
        MOV       DPH,R7
        MOVX      A,@DPTR
        MOV       ?V0,A
        INC       DPTR
        MOVX      A,@DPTR
        MOV       ?V1,A
        ; Setup parameters for call to function zcl_SendReadRsp
        MOV       DPL,R6
        MOV       DPH,R7
        INC       DPTR
        INC       DPTR
        INC       DPTR
        INC       DPTR
        INC       DPTR
        INC       DPTR
        MOVX      A,@DPTR
        MOV       ?V2,A
        MOV       R0,#?V2
        LCALL     ?PUSH_XSTACK_I_ONE
          CFI CFA_XSP16 add(XSP16, 29)
        MOV       ?V2,#0x1
        MOV       R0,#?V2
        LCALL     ?PUSH_XSTACK_I_ONE
          CFI CFA_XSP16 add(XSP16, 30)
        MOV       DPL,R6
        MOV       DPH,R7
        INC       DPTR
        INC       DPTR
        MOVX      A,@DPTR
        RRC       A
        RRC       A
        RRC       A
        ANL       A,#0x1f
        XRL       A,#0x1
        ANL       A,#0x1
        MOV       ?V2,A
        MOV       R0,#?V2
        LCALL     ?PUSH_XSTACK_I_ONE
          CFI CFA_XSP16 add(XSP16, 31)
        MOV       R0,#?V4
        LCALL     ?PUSH_XSTACK_I_TWO
          CFI CFA_XSP16 add(XSP16, 33)
        MOV       DPL,?V0
        MOV       DPH,?V1
        INC       DPTR
        INC       DPTR
        INC       DPTR
        INC       DPTR
        MOVX      A,@DPTR
        MOV       R4,A
        INC       DPTR
        MOVX      A,@DPTR
        MOV       R5,A
        MOV       A,?V0
        ADD       A,#0x6
        MOV       R2,A
        CLR       A
        ADDC      A,?V1
        MOV       R3,A
        MOV       A,?V0
        ADD       A,#0x14
        MOV       DPL,A
        CLR       A
        ADDC      A,?V1
        MOV       DPH,A
        MOVX      A,@DPTR
        MOV       R1,A
        LCALL     `??zcl_SendReadRsp::?relay`; Banked call to: zcl_SendReadRsp
        MOV       A,#0x5
        LCALL     ?DEALLOC_XSTACK8
          CFI CFA_XSP16 add(XSP16, 28)
// 4509   zcl_mem_free( readRspCmd );
        ; Setup parameters for call to function osal_mem_free
        MOV       R2,?V4
        MOV       R3,?V5
        LCALL     `??osal_mem_free::?relay`; Banked call to: osal_mem_free
// 4510 
// 4511   return TRUE;
        MOV       R1,#0x1
??zclProcessInReadCmd_1:
        MOV       A,#0x8
        LCALL     ?DEALLOC_XSTACK8
          CFI CFA_XSP16 add(XSP16, 20)
        MOV       R7,#0xc
        LJMP      ?BANKED_LEAVE_XDATA
// 4512 }
          CFI EndBlock cfiBlock74
// 4513 #endif // ZCL_READ
// 4514 
// 4515 #ifdef ZCL_WRITE
// 4516 /*********************************************************************
// 4517  * @fn      processInWriteCmd
// 4518  *
// 4519  * @brief   Process the "Profile" Write and Write No Response Commands
// 4520  *
// 4521  * @param   pInMsg - incoming message to process
// 4522  *
// 4523  * @return  TRUE if command processed. FALSE, otherwise.
// 4524  */

        RSEG BANKED_CODE:HUGECODE:NOROOT(0)
// 4525 static uint8 zclProcessInWriteCmd( zclIncoming_t *pInMsg )
zclProcessInWriteCmd:
          CFI Block cfiBlock75 Using cfiCommon0
          CFI Function zclProcessInWriteCmd
        CODE
// 4526 {
        FUNCALL zclProcessInWriteCmd, osal_mem_alloc
        LOCFRAME ISTACK, 0, STACK
        LOCFRAME PSTACK, 0, STACK
        LOCFRAME XSTACK, 32, STACK
        LOCFRAME IOVERLAY, 0, STATIC
        LOCFRAME DOVERLAY, 0, STATIC
        ARGFRAME ISTACK, 0, STACK
        ARGFRAME PSTACK, 0, STACK
        ARGFRAME XSTACK, 32, STACK
        ARGFRAME IOVERLAY, 0, STATIC
        ARGFRAME DOVERLAY, 0, STATIC
        FUNCALL zclProcessInWriteCmd, zclFindAttrRec
        LOCFRAME ISTACK, 0, STACK
        LOCFRAME PSTACK, 0, STACK
        LOCFRAME XSTACK, 34, STACK
        LOCFRAME IOVERLAY, 0, STATIC
        LOCFRAME DOVERLAY, 0, STATIC
        ARGFRAME ISTACK, 0, STACK
        ARGFRAME PSTACK, 0, STACK
        ARGFRAME XSTACK, 34, STACK
        ARGFRAME IOVERLAY, 0, STATIC
        ARGFRAME DOVERLAY, 0, STATIC
        FUNCALL zclProcessInWriteCmd, zcl_SendWriteRsp
        LOCFRAME ISTACK, 0, STACK
        LOCFRAME PSTACK, 0, STACK
        LOCFRAME XSTACK, 37, STACK
        LOCFRAME IOVERLAY, 0, STATIC
        LOCFRAME DOVERLAY, 0, STATIC
        ARGFRAME ISTACK, 0, STACK
        ARGFRAME PSTACK, 0, STACK
        ARGFRAME XSTACK, 37, STACK
        ARGFRAME IOVERLAY, 0, STATIC
        ARGFRAME DOVERLAY, 0, STATIC
        FUNCALL zclProcessInWriteCmd, osal_mem_free
        LOCFRAME ISTACK, 0, STACK
        LOCFRAME PSTACK, 0, STACK
        LOCFRAME XSTACK, 32, STACK
        LOCFRAME IOVERLAY, 0, STATIC
        LOCFRAME DOVERLAY, 0, STATIC
        ARGFRAME ISTACK, 0, STACK
        ARGFRAME PSTACK, 0, STACK
        ARGFRAME XSTACK, 32, STACK
        ARGFRAME IOVERLAY, 0, STATIC
        ARGFRAME DOVERLAY, 0, STATIC
        FUNCALL zclProcessInWriteCmd, osal_memcpy
        LOCFRAME ISTACK, 0, STACK
        LOCFRAME PSTACK, 0, STACK
        LOCFRAME XSTACK, 35, STACK
        LOCFRAME IOVERLAY, 0, STATIC
        LOCFRAME DOVERLAY, 0, STATIC
        ARGFRAME ISTACK, 0, STACK
        ARGFRAME PSTACK, 0, STACK
        ARGFRAME XSTACK, 35, STACK
        ARGFRAME IOVERLAY, 0, STATIC
        ARGFRAME DOVERLAY, 0, STATIC
        FUNCALL zclProcessInWriteCmd, bdb_ZclIdentifyCmdInd
        LOCFRAME ISTACK, 0, STACK
        LOCFRAME PSTACK, 0, STACK
        LOCFRAME XSTACK, 32, STACK
        LOCFRAME IOVERLAY, 0, STATIC
        LOCFRAME DOVERLAY, 0, STATIC
        ARGFRAME ISTACK, 0, STACK
        ARGFRAME PSTACK, 0, STACK
        ARGFRAME XSTACK, 32, STACK
        ARGFRAME IOVERLAY, 0, STATIC
        ARGFRAME DOVERLAY, 0, STATIC
        FUNCALL zclProcessInWriteCmd, zclWriteAttrData
        LOCFRAME ISTACK, 0, STACK
        LOCFRAME PSTACK, 0, STACK
        LOCFRAME XSTACK, 34, STACK
        LOCFRAME IOVERLAY, 0, STATIC
        LOCFRAME DOVERLAY, 0, STATIC
        ARGFRAME ISTACK, 0, STACK
        ARGFRAME PSTACK, 0, STACK
        ARGFRAME XSTACK, 34, STACK
        ARGFRAME IOVERLAY, 0, STATIC
        ARGFRAME DOVERLAY, 0, STATIC
        FUNCALL zclProcessInWriteCmd, zclWriteAttrDataUsingCB
        LOCFRAME ISTACK, 0, STACK
        LOCFRAME PSTACK, 0, STACK
        LOCFRAME XSTACK, 34, STACK
        LOCFRAME IOVERLAY, 0, STATIC
        LOCFRAME DOVERLAY, 0, STATIC
        ARGFRAME ISTACK, 0, STACK
        ARGFRAME PSTACK, 0, STACK
        ARGFRAME XSTACK, 34, STACK
        ARGFRAME IOVERLAY, 0, STATIC
        ARGFRAME DOVERLAY, 0, STATIC
        REQUIRE ?V0
        REQUIRE ?V1
        REQUIRE ?V2
        REQUIRE ?V3
        REQUIRE ?V4
        REQUIRE ?V5
        REQUIRE ?V6
        REQUIRE ?V7
        REQUIRE ?V8
        REQUIRE ?V9
        REQUIRE ?V10
        REQUIRE ?V11
        REQUIRE ?V12
        REQUIRE ?V13
        MOV       A,#-0x16
        LCALL     ?BANKED_ENTER_XDATA
          CFI DPH0 load(1, XDATA, add(CFA_XSP16, literal(-1)))
          CFI DPL0 load(1, XDATA, add(CFA_XSP16, literal(-2)))
          CFI ?BRET_EXT load(1, XDATA, add(CFA_XSP16, literal(-3)))
          CFI ?RET_HIGH load(1, XDATA, add(CFA_XSP16, literal(-4)))
          CFI ?RET_LOW load(1, XDATA, add(CFA_XSP16, literal(-5)))
          CFI R7 load(1, XDATA, add(CFA_XSP16, literal(-6)))
          CFI V13 load(1, XDATA, add(CFA_XSP16, literal(-7)))
          CFI V12 load(1, XDATA, add(CFA_XSP16, literal(-8)))
          CFI V11 load(1, XDATA, add(CFA_XSP16, literal(-9)))
          CFI V10 load(1, XDATA, add(CFA_XSP16, literal(-10)))
          CFI V9 load(1, XDATA, add(CFA_XSP16, literal(-11)))
          CFI V8 load(1, XDATA, add(CFA_XSP16, literal(-12)))
          CFI V7 load(1, XDATA, add(CFA_XSP16, literal(-13)))
          CFI V6 load(1, XDATA, add(CFA_XSP16, literal(-14)))
          CFI V5 load(1, XDATA, add(CFA_XSP16, literal(-15)))
          CFI V4 load(1, XDATA, add(CFA_XSP16, literal(-16)))
          CFI V3 load(1, XDATA, add(CFA_XSP16, literal(-17)))
          CFI V2 load(1, XDATA, add(CFA_XSP16, literal(-18)))
          CFI V1 load(1, XDATA, add(CFA_XSP16, literal(-19)))
          CFI V0 load(1, XDATA, add(CFA_XSP16, literal(-20)))
          CFI VB load(1, XDATA, add(CFA_XSP16, literal(-21)))
          CFI R6 load(1, XDATA, add(CFA_XSP16, literal(-22)))
          CFI CFA_SP SP+0
          CFI CFA_XSP16 add(XSP16, 22)
        ; Saved register size: 22
        ; Auto size: 10
        MOV       A,#-0xa
        LCALL     ?ALLOC_XSTACK8
          CFI CFA_XSP16 add(XSP16, 32)
        MOV       ?V8,R2
        MOV       ?V9,R3
// 4527   zclWriteCmd_t *writeCmd;
// 4528   zclWriteRspCmd_t *writeRspCmd;
// 4529   uint8 sendRsp = FALSE;
        MOV       R7,#0x0
// 4530   uint8 j = 0;
        MOV       R6,#0x0
// 4531   uint8 i;
// 4532 
// 4533   writeCmd = (zclWriteCmd_t *)pInMsg->attrCmd;
        MOV       A,R2
        ADD       A,#0xc
        MOV       DPL,A
        CLR       A
        ADDC      A,?V9
        MOV       DPH,A
        MOVX      A,@DPTR
        MOV       ?V12,A
        INC       DPTR
        MOVX      A,@DPTR
        MOV       ?V13,A
// 4534   if ( pInMsg->hdr.commandID == ZCL_CMD_WRITE )
        MOV       DPL,R2
        MOV       DPH,R3
        INC       DPTR
        INC       DPTR
        INC       DPTR
        INC       DPTR
        INC       DPTR
        INC       DPTR
        INC       DPTR
        MOVX      A,@DPTR
        XRL       A,#0x2
        JNZ       ??zclProcessInWriteCmd_0
// 4535   {
// 4536     // We need to send a response back - allocate space for it
// 4537     writeRspCmd = (zclWriteRspCmd_t *)zcl_mem_alloc( sizeof( zclWriteRspCmd_t )
// 4538             + sizeof( zclWriteRspStatus_t ) * writeCmd->numAttr );
        ; Setup parameters for call to function osal_mem_alloc
        MOV       DPL,?V12
        MOV       DPH,?V13
        MOVX      A,@DPTR
        MOV       B,#0x3
        MUL       AB
        MOV       R1,B
        ADD       A,#0x1
        MOV       R2,A
        CLR       A
        ADDC      A,R1
        MOV       R3,A
        LCALL     `??osal_mem_alloc::?relay`; Banked call to: osal_mem_alloc
        MOV       ?V0,R2
        MOV       ?V1,R3
// 4539     if ( writeRspCmd == NULL )
        MOV       A,R2
        ORL       A,R3
        JNZ       ??zclProcessInWriteCmd_1
// 4540     {
// 4541       return FALSE; // EMBEDDED RETURN
        MOV       R1,#0x0
        LJMP      ??zclProcessInWriteCmd_2 & 0xFFFF
// 4542     }
// 4543 
// 4544     sendRsp = TRUE;
??zclProcessInWriteCmd_1:
        MOV       R7,#0x1
// 4545   }
// 4546 
// 4547   for ( i = 0; i < writeCmd->numAttr; i++ )
??zclProcessInWriteCmd_0:
        MOV       ?V7,#0x0
        SJMP      ??zclProcessInWriteCmd_3
// 4548   {
// 4549     zclAttrRec_t attrRec;
// 4550     zclWriteRec_t *statusRec = &(writeCmd->attrList[i]);
// 4551 
// 4552     if ( zclFindAttrRec( pInMsg->msg->endPoint, pInMsg->msg->clusterId,
// 4553                          statusRec->attrID, &attrRec ) )
// 4554     {
// 4555       if ( GET_BIT( &attrRec.attr.accessControl, ACCESS_CONTROLEXT_MASK ) != pInMsg->hdr.fc.direction )
// 4556       {
// 4557         writeRspCmd->attrList[j].status = ZCL_STATUS_UNSUPPORTED_ATTRIBUTE;
// 4558         writeRspCmd->attrList[j++].attrID = statusRec->attrID;
// 4559         break;
// 4560       }
// 4561       if ( statusRec->dataType == attrRec.attr.dataType )
// 4562       {
// 4563         uint8 status;
// 4564 
// 4565         // Write the new attribute value
// 4566         if ( attrRec.attr.dataPtr != NULL )
// 4567         {
// 4568           //Handle special case for Identify
// 4569           if((pInMsg->msg->clusterId == ZCL_CLUSTER_ID_GEN_IDENTIFY) && (statusRec->attrID == ATTRID_IDENTIFY_TIME))
// 4570           {
// 4571             uint16 identifyTime; 
// 4572                   
// 4573             osal_memcpy((uint8*)&identifyTime,statusRec->attrData,sizeof(uint16));
// 4574                         
// 4575             bdb_ZclIdentifyCmdInd(identifyTime, pInMsg->msg->endPoint);
// 4576             
// 4577             status = ZCL_STATUS_SUCCESS;
// 4578           }          
// 4579           else
// 4580           {                
// 4581             status = zclWriteAttrData( pInMsg->msg->endPoint, &(pInMsg->msg->srcAddr),
// 4582                                        &attrRec, statusRec );
// 4583           }
// 4584         }
// 4585         else // Use CB
// 4586         {
// 4587           status = zclWriteAttrDataUsingCB( pInMsg->msg->endPoint, &(pInMsg->msg->srcAddr),
// 4588                                             &attrRec, statusRec->attrData );
// 4589         }
// 4590 
// 4591         // If successful, a write attribute status record shall NOT be generated
// 4592         if ( sendRsp && status != ZCL_STATUS_SUCCESS )
// 4593         {
// 4594           // Attribute is read only - move on to the next write attribute record
// 4595           writeRspCmd->attrList[j].status = status;
// 4596           writeRspCmd->attrList[j++].attrID = statusRec->attrID;
// 4597         }
// 4598       }
// 4599       else
// 4600       {
// 4601         // Attribute data type is incorrect - move on to the next write attribute record
// 4602         if ( sendRsp )
// 4603         {
// 4604           writeRspCmd->attrList[j].status = ZCL_STATUS_INVALID_DATA_TYPE;
// 4605           writeRspCmd->attrList[j++].attrID = statusRec->attrID;
// 4606         }
// 4607       }
// 4608     }
// 4609     else
// 4610     {
// 4611       // Attribute is not supported - move on to the next write attribute record
// 4612       if ( sendRsp )
??zclProcessInWriteCmd_4:
        MOV       A,R7
        JZ        ??zclProcessInWriteCmd_5
// 4613       {
// 4614         writeRspCmd->attrList[j].status = ZCL_STATUS_UNSUPPORTED_ATTRIBUTE;
        MOV       A,R6
        MOV       B,#0x3
        MUL       AB
        MOV       R0,A
        MOV       R1,B
        MOV       A,?V0
        ADD       A,R0
        MOV       R0,A
        MOV       A,?V1
        ADDC      A,R1
        MOV       R1,A
        MOV       DPL,R0
        MOV       DPH,A
        INC       DPTR
        MOV       A,#-0x7a
??zclProcessInWriteCmd_6:
        MOVX      @DPTR,A
// 4615         writeRspCmd->attrList[j++].attrID = statusRec->attrID;
        MOV       DPL,?V2
        MOV       DPH,?V3
        MOVX      A,@DPTR
        MOV       R2,A
        INC       DPTR
        MOVX      A,@DPTR
        MOV       R3,A
        MOV       DPL,R0
        MOV       DPH,R1
        INC       DPTR
        INC       DPTR
        MOV       A,R2
        MOVX      @DPTR,A
        INC       DPTR
        MOV       A,R3
        MOVX      @DPTR,A
        INC       R6
// 4616       }
// 4617     }
??zclProcessInWriteCmd_5:
        INC       ?V7
??zclProcessInWriteCmd_3:
        MOV       DPL,?V12
        MOV       DPH,?V13
        MOVX      A,@DPTR
        MOV       R0,A
        MOV       A,?V7
        CLR       C
        SUBB      A,R0
        JC        $+5
        LJMP      ??zclProcessInWriteCmd_7 & 0xFFFF
        MOV       A,?V7
        MOV       B,#0x5
        MUL       AB
        MOV       R0,A
        MOV       R1,B
        MOV       A,?V12
        ADD       A,R0
        MOV       DPL,A
        MOV       A,?V13
        ADDC      A,R1
        MOV       DPH,A
        INC       DPTR
        MOV       ?V2,DPL
        MOV       ?V3,DPH
        MOV       DPL,?V8
        MOV       DPH,?V9
        MOVX      A,@DPTR
        MOV       ?V4,A
        INC       DPTR
        MOVX      A,@DPTR
        MOV       ?V5,A
        ; Setup parameters for call to function zclFindAttrRec
        MOV       A,#0x2
        LCALL     ?XSTACK_DISP100_8
        MOV       ?V10,R0
        MOV       ?V11,R1
        MOV       R0,#?V10
        LCALL     ?PUSH_XSTACK_I_TWO
          CFI CFA_XSP16 add(XSP16, 34)
        MOV       DPL,?V2
        MOV       DPH,?V3
        MOVX      A,@DPTR
        MOV       R4,A
        INC       DPTR
        MOVX      A,@DPTR
        MOV       R5,A
        MOV       DPL,?V4
        MOV       DPH,?V5
        INC       DPTR
        INC       DPTR
        INC       DPTR
        INC       DPTR
        MOVX      A,@DPTR
        MOV       R2,A
        INC       DPTR
        MOVX      A,@DPTR
        MOV       R3,A
        MOV       A,?V4
        ADD       A,#0x14
        MOV       DPL,A
        CLR       A
        ADDC      A,?V5
        MOV       DPH,A
        MOVX      A,@DPTR
        MOV       R1,A
        LCALL     `??zclFindAttrRec::?relay`; Banked call to: zclFindAttrRec
        MOV       A,#0x2
        LCALL     ?DEALLOC_XSTACK8
          CFI CFA_XSP16 add(XSP16, 32)
        MOV       A,R1
        JNZ       $+5
        LJMP      ??zclProcessInWriteCmd_4 & 0xFFFF
        MOV       DPL,?V8
        MOV       DPH,?V9
        INC       DPTR
        INC       DPTR
        MOVX      A,@DPTR
        RRC       A
        RRC       A
        RRC       A
        ANL       A,#0x1f
        MOV       C,0xE0 /* A   */.0
        MOV       B.0,C
        MOV       A,#0x7
        LCALL     ?XSTACK_DISP0_8
        MOVX      A,@DPTR
        MOV       C,0xE0 /* A   */.7
        JB        B.0,??zclProcessInWriteCmd_8
        CPL       C
??zclProcessInWriteCmd_8:
        JNC       $+5
        LJMP      ??zclProcessInWriteCmd_9 & 0xFFFF
        MOV       A,R6
        MOV       B,#0x3
        MUL       AB
        MOV       R0,A
        MOV       R1,B
        MOV       A,?V0
        ADD       A,R0
        MOV       R0,A
        MOV       A,?V1
        ADDC      A,R1
        MOV       R1,A
        MOV       DPL,R0
        MOV       DPH,A
        INC       DPTR
        MOV       A,#-0x7a
        MOVX      @DPTR,A
        MOV       DPL,?V2
        MOV       DPH,?V3
        MOVX      A,@DPTR
        MOV       R2,A
        INC       DPTR
        MOVX      A,@DPTR
        MOV       R3,A
        MOV       DPL,R0
        MOV       DPH,R1
        INC       DPTR
        INC       DPTR
        MOV       A,R2
        MOVX      @DPTR,A
        INC       DPTR
        MOV       A,R3
        MOVX      @DPTR,A
        INC       R6
// 4618   } // for loop
// 4619 
// 4620   if ( sendRsp )
??zclProcessInWriteCmd_7:
        MOV       A,R7
        JNZ       $+5
        LJMP      ??zclProcessInWriteCmd_10 & 0xFFFF
// 4621   {
// 4622     writeRspCmd->numAttr = j;
        MOV       A,R6
        MOV       DPL,?V0
        MOV       DPH,?V1
        MOVX      @DPTR,A
// 4623     if ( writeRspCmd->numAttr == 0 )
        MOVX      A,@DPTR
        JNZ       ??zclProcessInWriteCmd_11
// 4624     {
// 4625       // Since all records were written successful, include a single status record
// 4626       // in the resonse command with the status field set to SUCCESS and the
// 4627       // attribute ID field omitted.
// 4628       writeRspCmd->attrList[0].status = ZCL_STATUS_SUCCESS;
        INC       DPTR
        CLR       A
        MOVX      @DPTR,A
// 4629       writeRspCmd->numAttr = 1;
        MOV       DPL,?V0
        MOV       DPH,?V1
        INC       A
        MOVX      @DPTR,A
// 4630     }
// 4631 
// 4632     zcl_SendWriteRsp( pInMsg->msg->endPoint, &(pInMsg->msg->srcAddr),
// 4633                       pInMsg->msg->clusterId, writeRspCmd, !pInMsg->hdr.fc.direction,
// 4634                       true, pInMsg->hdr.transSeqNum );
??zclProcessInWriteCmd_11:
        MOV       DPL,?V8
        MOV       DPH,?V9
        MOVX      A,@DPTR
        MOV       R6,A
        INC       DPTR
        MOVX      A,@DPTR
        MOV       R7,A
        ; Setup parameters for call to function zcl_SendWriteRsp
        MOV       DPL,?V8
        MOV       DPH,?V9
        INC       DPTR
        INC       DPTR
        INC       DPTR
        INC       DPTR
        INC       DPTR
        INC       DPTR
        MOVX      A,@DPTR
        MOV       ?V2,A
        MOV       R0,#?V2
        LCALL     ?PUSH_XSTACK_I_ONE
          CFI CFA_XSP16 add(XSP16, 33)
        MOV       ?V2,#0x1
        MOV       R0,#?V2
        LCALL     ?PUSH_XSTACK_I_ONE
          CFI CFA_XSP16 add(XSP16, 34)
        MOV       DPL,?V8
        MOV       DPH,?V9
        INC       DPTR
        INC       DPTR
        MOVX      A,@DPTR
        RRC       A
        RRC       A
        RRC       A
        ANL       A,#0x1f
        XRL       A,#0x1
        ANL       A,#0x1
        MOV       ?V2,A
        MOV       R0,#?V2
        LCALL     ?PUSH_XSTACK_I_ONE
          CFI CFA_XSP16 add(XSP16, 35)
        MOV       R0,#?V0
        LCALL     ?PUSH_XSTACK_I_TWO
          CFI CFA_XSP16 add(XSP16, 37)
        MOV       DPL,R6
        MOV       DPH,R7
        INC       DPTR
        INC       DPTR
        INC       DPTR
        INC       DPTR
        MOVX      A,@DPTR
        MOV       R4,A
        INC       DPTR
        MOVX      A,@DPTR
        MOV       R5,A
        MOV       A,R6
        ADD       A,#0x6
        MOV       R2,A
        CLR       A
        ADDC      A,R7
        MOV       R3,A
        MOV       A,R6
        ADD       A,#0x14
        MOV       DPL,A
        CLR       A
        ADDC      A,R7
        MOV       DPH,A
        MOVX      A,@DPTR
        MOV       R1,A
        LCALL     `??zcl_SendWriteRsp::?relay`; Banked call to: zcl_SendWriteRsp
        MOV       A,#0x5
        LCALL     ?DEALLOC_XSTACK8
          CFI CFA_XSP16 add(XSP16, 32)
// 4635     zcl_mem_free( writeRspCmd );
        ; Setup parameters for call to function osal_mem_free
        MOV       R2,?V0
        MOV       R3,?V1
        LCALL     `??osal_mem_free::?relay`; Banked call to: osal_mem_free
// 4636   }
// 4637 
// 4638   return TRUE;
??zclProcessInWriteCmd_10:
        MOV       R1,#0x1
??zclProcessInWriteCmd_2:
        MOV       A,#0xa
        LCALL     ?DEALLOC_XSTACK8
          CFI CFA_XSP16 add(XSP16, 22)
        MOV       R7,#0xe
        LJMP      ?BANKED_LEAVE_XDATA
          CFI CFA_XSP16 add(XSP16, 32)
??zclProcessInWriteCmd_9:
        MOV       DPL,?V2
        MOV       DPH,?V3
        INC       DPTR
        INC       DPTR
        MOVX      A,@DPTR
        MOV       R0,A
        MOV       A,#0x6
        LCALL     ?XSTACK_DISP0_8
        MOVX      A,@DPTR
        XRL       A,R0
        JZ        $+5
        LJMP      ??zclProcessInWriteCmd_12 & 0xFFFF
        MOV       A,#0x8
        LCALL     ?XSTACK_DISP0_8
        MOVX      A,@DPTR
        MOV       R0,A
        INC       DPTR
        MOVX      A,@DPTR
        MOV       R1,A
        MOV       A,R0
        ORL       A,R1
        MOV       DPL,?V8
        MOV       DPH,?V9
        JNZ       $+5
        LJMP      ??zclProcessInWriteCmd_13 & 0xFFFF
        MOVX      A,@DPTR
        MOV       ?V4,A
        INC       DPTR
        MOVX      A,@DPTR
        MOV       ?V5,A
        MOV       DPL,?V4
        MOV       DPH,A
        INC       DPTR
        INC       DPTR
        INC       DPTR
        INC       DPTR
        MOVX      A,@DPTR
        XRL       A,#0x3
        JNZ       ??zclProcessInWriteCmd_14
        INC       DPTR
        MOVX      A,@DPTR
??zclProcessInWriteCmd_14:
        JNZ       ??zclProcessInWriteCmd_15
        MOV       DPL,?V2
        MOV       DPH,?V3
        MOVX      A,@DPTR
        MOV       R0,A
        INC       DPTR
        MOVX      A,@DPTR
        MOV       R1,A
        MOV       A,R0
        ORL       A,R1
        JNZ       ??zclProcessInWriteCmd_15
        ; Setup parameters for call to function osal_memcpy
        MOV       DPL,?V2
        MOV       DPH,?V3
        INC       DPTR
        INC       DPTR
        INC       DPTR
        MOVX      A,@DPTR
        MOV       ?V4,A
        INC       DPTR
        MOVX      A,@DPTR
        MOV       ?V5,A
        MOV       ?V6,#0x0
        MOV       R0,#?V4
        LCALL     ?PUSH_XSTACK_I_THREE
          CFI CFA_XSP16 add(XSP16, 35)
        MOV       R4,#0x2
        MOV       R5,#0x0
        MOV       A,#0x3
        LCALL     ?XSTACK_DISP101_8
        LCALL     `??osal_memcpy::?relay`; Banked call to: osal_memcpy
        MOV       A,#0x3
        LCALL     ?DEALLOC_XSTACK8
          CFI CFA_XSP16 add(XSP16, 32)
        ; Setup parameters for call to function bdb_ZclIdentifyCmdInd
        MOV       DPL,?V8
        MOV       DPH,?V9
        MOVX      A,@DPTR
        MOV       R0,A
        INC       DPTR
        MOVX      A,@DPTR
        XCH       A,R0
        ADD       A,#0x14
        MOV       DPL,A
        CLR       A
        ADDC      A,R0
        MOV       DPH,A
        MOVX      A,@DPTR
        MOV       R1,A
        MOV       DPL,?XSP + 0
        MOV       DPH,?XSP + 1
        MOVX      A,@DPTR
        MOV       R2,A
        INC       DPTR
        MOVX      A,@DPTR
        MOV       R3,A
        LCALL     `??bdb_ZclIdentifyCmdInd::?relay`; Banked call to: bdb_ZclIdentifyCmdInd
        MOV       R2,#0x0
        SJMP      ??zclProcessInWriteCmd_16
??zclProcessInWriteCmd_15:
        ; Setup parameters for call to function zclWriteAttrData
        MOV       R0,#?V2
        LCALL     ?PUSH_XSTACK_I_TWO
          CFI CFA_XSP16 add(XSP16, 34)
        MOV       A,#0x4
        LCALL     ?XSTACK_DISP102_8
        MOV       A,?V4
        ADD       A,#0x6
        MOV       R2,A
        CLR       A
        ADDC      A,?V5
        MOV       R3,A
        MOV       A,?V4
        ADD       A,#0x14
        MOV       DPL,A
        CLR       A
        ADDC      A,?V5
        MOV       DPH,A
        MOVX      A,@DPTR
        MOV       R1,A
        LCALL     `??zclWriteAttrData::?relay`; Banked call to: zclWriteAttrData
        SJMP      ??zclProcessInWriteCmd_17
          CFI CFA_XSP16 add(XSP16, 32)
??zclProcessInWriteCmd_13:
        MOVX      A,@DPTR
        MOV       R0,A
        INC       DPTR
        MOVX      A,@DPTR
        MOV       R1,A
        ; Setup parameters for call to function zclWriteAttrDataUsingCB
        MOV       DPL,?V2
        MOV       DPH,?V3
        INC       DPTR
        INC       DPTR
        INC       DPTR
        LCALL     ?PUSH_XSTACK8_X_TWO
          CFI CFA_XSP16 add(XSP16, 34)
        MOV       A,#0x4
        LCALL     ?XSTACK_DISP102_8
        MOV       A,R0
        ADD       A,#0x6
        MOV       R2,A
        CLR       A
        ADDC      A,R1
        MOV       R3,A
        MOV       A,R0
        ADD       A,#0x14
        MOV       DPL,A
        CLR       A
        ADDC      A,R1
        MOV       DPH,A
        MOVX      A,@DPTR
        MOV       R1,A
        LCALL     `??zclWriteAttrDataUsingCB::?relay`; Banked call to: zclWriteAttrDataUsingCB
??zclProcessInWriteCmd_17:
        MOV       A,#0x2
        LCALL     ?DEALLOC_XSTACK8
          CFI CFA_XSP16 add(XSP16, 32)
        MOV       A,R1
        MOV       R2,A
??zclProcessInWriteCmd_16:
        MOV       A,R7
        JNZ       $+5
        LJMP      ??zclProcessInWriteCmd_5 & 0xFFFF
        MOV       A,R2
        JNZ       $+5
        LJMP      ??zclProcessInWriteCmd_5 & 0xFFFF
        MOV       A,R6
        MOV       B,#0x3
        MUL       AB
        MOV       R0,A
        MOV       R1,B
        MOV       A,?V0
        ADD       A,R0
        MOV       R0,A
        MOV       A,?V1
        ADDC      A,R1
        MOV       R1,A
        MOV       A,R2
        MOV       DPL,R0
        MOV       DPH,R1
        INC       DPTR
        LJMP      ??zclProcessInWriteCmd_6 & 0xFFFF
??zclProcessInWriteCmd_12:
        MOV       A,R7
        JNZ       $+5
        LJMP      ??zclProcessInWriteCmd_5 & 0xFFFF
        MOV       A,R6
        MOV       B,#0x3
        MUL       AB
        MOV       R0,A
        MOV       R1,B
        MOV       A,?V0
        ADD       A,R0
        MOV       R0,A
        MOV       A,?V1
        ADDC      A,R1
        MOV       R1,A
        MOV       DPL,R0
        MOV       DPH,A
        INC       DPTR
        MOV       A,#-0x73
        LJMP      ??zclProcessInWriteCmd_6 & 0xFFFF
// 4639 }
          CFI EndBlock cfiBlock75
// 4640 
// 4641 /*********************************************************************
// 4642  * @fn      zclRevertWriteUndividedCmd
// 4643  *
// 4644  * @brief   Revert the "Profile" Write Undevided Command
// 4645  *
// 4646  * @param   pInMsg - incoming message to process
// 4647  * @param   curWriteRec - old data
// 4648  * @param   numAttr - number of attributes to be reverted
// 4649  *
// 4650  * @return  none
// 4651  */

        RSEG BANKED_CODE:HUGECODE:NOROOT(0)
// 4652 static void zclRevertWriteUndividedCmd( zclIncoming_t *pInMsg,
zclRevertWriteUndividedCmd:
          CFI Block cfiBlock76 Using cfiCommon0
          CFI Function zclRevertWriteUndividedCmd
        CODE
// 4653                                     zclWriteRec_t *curWriteRec, uint16 numAttr )
// 4654 {
        FUNCALL zclRevertWriteUndividedCmd, zclWriteAttrDataUsingCB
        LOCFRAME ISTACK, 0, STACK
        LOCFRAME PSTACK, 0, STACK
        LOCFRAME XSTACK, 32, STACK
        LOCFRAME IOVERLAY, 0, STATIC
        LOCFRAME DOVERLAY, 0, STATIC
        ARGFRAME ISTACK, 0, STACK
        ARGFRAME PSTACK, 0, STACK
        ARGFRAME XSTACK, 32, STACK
        ARGFRAME IOVERLAY, 0, STATIC
        ARGFRAME DOVERLAY, 0, STATIC
        FUNCALL zclRevertWriteUndividedCmd, zclFindAttrRec
        LOCFRAME ISTACK, 0, STACK
        LOCFRAME PSTACK, 0, STACK
        LOCFRAME XSTACK, 32, STACK
        LOCFRAME IOVERLAY, 0, STATIC
        LOCFRAME DOVERLAY, 0, STATIC
        ARGFRAME ISTACK, 0, STACK
        ARGFRAME PSTACK, 0, STACK
        ARGFRAME XSTACK, 32, STACK
        ARGFRAME IOVERLAY, 0, STATIC
        ARGFRAME DOVERLAY, 0, STATIC
        FUNCALL zclRevertWriteUndividedCmd, zclGetAttrDataLength
        LOCFRAME ISTACK, 0, STACK
        LOCFRAME PSTACK, 0, STACK
        LOCFRAME XSTACK, 30, STACK
        LOCFRAME IOVERLAY, 0, STATIC
        LOCFRAME DOVERLAY, 0, STATIC
        ARGFRAME ISTACK, 0, STACK
        ARGFRAME PSTACK, 0, STACK
        ARGFRAME XSTACK, 30, STACK
        ARGFRAME IOVERLAY, 0, STATIC
        ARGFRAME DOVERLAY, 0, STATIC
        FUNCALL zclRevertWriteUndividedCmd, osal_memcpy
        LOCFRAME ISTACK, 0, STACK
        LOCFRAME PSTACK, 0, STACK
        LOCFRAME XSTACK, 33, STACK
        LOCFRAME IOVERLAY, 0, STATIC
        LOCFRAME DOVERLAY, 0, STATIC
        ARGFRAME ISTACK, 0, STACK
        ARGFRAME PSTACK, 0, STACK
        ARGFRAME XSTACK, 33, STACK
        ARGFRAME IOVERLAY, 0, STATIC
        ARGFRAME DOVERLAY, 0, STATIC
        REQUIRE ?V0
        REQUIRE ?V1
        REQUIRE ?V2
        REQUIRE ?V4
        REQUIRE ?V5
        REQUIRE ?V6
        REQUIRE ?V7
        REQUIRE ?V8
        REQUIRE ?V9
        REQUIRE ?V10
        REQUIRE ?V12
        REQUIRE ?V13
        MOV       A,#-0x16
        LCALL     ?BANKED_ENTER_XDATA
          CFI DPH0 load(1, XDATA, add(CFA_XSP16, literal(-1)))
          CFI DPL0 load(1, XDATA, add(CFA_XSP16, literal(-2)))
          CFI ?BRET_EXT load(1, XDATA, add(CFA_XSP16, literal(-3)))
          CFI ?RET_HIGH load(1, XDATA, add(CFA_XSP16, literal(-4)))
          CFI ?RET_LOW load(1, XDATA, add(CFA_XSP16, literal(-5)))
          CFI R7 load(1, XDATA, add(CFA_XSP16, literal(-6)))
          CFI V13 load(1, XDATA, add(CFA_XSP16, literal(-7)))
          CFI V12 load(1, XDATA, add(CFA_XSP16, literal(-8)))
          CFI V11 load(1, XDATA, add(CFA_XSP16, literal(-9)))
          CFI V10 load(1, XDATA, add(CFA_XSP16, literal(-10)))
          CFI V9 load(1, XDATA, add(CFA_XSP16, literal(-11)))
          CFI V8 load(1, XDATA, add(CFA_XSP16, literal(-12)))
          CFI V7 load(1, XDATA, add(CFA_XSP16, literal(-13)))
          CFI V6 load(1, XDATA, add(CFA_XSP16, literal(-14)))
          CFI V5 load(1, XDATA, add(CFA_XSP16, literal(-15)))
          CFI V4 load(1, XDATA, add(CFA_XSP16, literal(-16)))
          CFI V3 load(1, XDATA, add(CFA_XSP16, literal(-17)))
          CFI V2 load(1, XDATA, add(CFA_XSP16, literal(-18)))
          CFI V1 load(1, XDATA, add(CFA_XSP16, literal(-19)))
          CFI V0 load(1, XDATA, add(CFA_XSP16, literal(-20)))
          CFI VB load(1, XDATA, add(CFA_XSP16, literal(-21)))
          CFI R6 load(1, XDATA, add(CFA_XSP16, literal(-22)))
          CFI CFA_SP SP+0
          CFI CFA_XSP16 add(XSP16, 22)
        ; Saved register size: 22
        ; Auto size: 8
        MOV       A,#-0x8
        LCALL     ?ALLOC_XSTACK8
          CFI CFA_XSP16 add(XSP16, 30)
        MOV       ?V4,R2
        MOV       ?V5,R3
        MOV       ?V12,R4
        MOV       ?V13,R5
// 4655   uint8 i;
// 4656 
// 4657   for ( i = 0; i < numAttr; i++ )
        MOV       ?V2,#0x0
        MOV       A,#0x1e
        LCALL     ?XSTACK_DISP0_8
        MOVX      A,@DPTR
        MOV       ?V6,A
        INC       DPTR
        MOVX      A,@DPTR
        MOV       ?V7,A
        SJMP      ??zclRevertWriteUndividedCmd_0
// 4658   {
// 4659     zclAttrRec_t attrRec;
// 4660     zclWriteRec_t *statusRec = &(curWriteRec[i]);
// 4661 
// 4662     if ( !zclFindAttrRec( pInMsg->msg->endPoint, pInMsg->msg->clusterId,
// 4663                           statusRec->attrID, &attrRec ) )
// 4664     {
// 4665       break; // should never happen
// 4666     }
// 4667 
// 4668     if ( attrRec.attr.dataPtr != NULL )
// 4669     {
// 4670       // Just copy the old data back - no need to validate the data
// 4671       uint16 dataLen = zclGetAttrDataLength( attrRec.attr.dataType, statusRec->attrData );
// 4672       zcl_memcpy( attrRec.attr.dataPtr, statusRec->attrData, dataLen );
// 4673     }
// 4674     else // Use CB
// 4675     {
// 4676       // Write the old data back
// 4677       zclWriteAttrDataUsingCB( pInMsg->msg->endPoint, &(pInMsg->msg->srcAddr),
// 4678                                &attrRec, statusRec->attrData );
??zclRevertWriteUndividedCmd_1:
        MOV       DPL,?V4
        MOV       DPH,?V5
        MOVX      A,@DPTR
        MOV       R0,A
        INC       DPTR
        MOVX      A,@DPTR
        MOV       R1,A
        ; Setup parameters for call to function zclWriteAttrDataUsingCB
        MOV       DPL,R6
        MOV       DPH,R7
        LCALL     ?PUSH_XSTACK8_X_TWO
          CFI CFA_XSP16 add(XSP16, 32)
        MOV       A,#0x2
        LCALL     ?XSTACK_DISP102_8
        MOV       A,R0
        ADD       A,#0x6
        MOV       R2,A
        CLR       A
        ADDC      A,R1
        MOV       R3,A
        MOV       A,R0
        ADD       A,#0x14
        MOV       DPL,A
        CLR       A
        ADDC      A,R1
        MOV       DPH,A
        MOVX      A,@DPTR
        MOV       R1,A
        LCALL     `??zclWriteAttrDataUsingCB::?relay`; Banked call to: zclWriteAttrDataUsingCB
        MOV       A,#0x2
        LCALL     ?DEALLOC_XSTACK8
          CFI CFA_XSP16 add(XSP16, 30)
// 4679     }
??zclRevertWriteUndividedCmd_2:
        INC       ?V2
??zclRevertWriteUndividedCmd_0:
        CLR       C
        MOV       A,?V2
        SUBB      A,?V6
        CLR       A
        SUBB      A,?V7
        JC        $+5
        LJMP      ??zclRevertWriteUndividedCmd_3 & 0xFFFF
        MOV       A,?V2
        MOV       B,#0x5
        MUL       AB
        MOV       R0,A
        MOV       R1,B
        MOV       A,?V12
        ADD       A,R0
        MOV       R6,A
        MOV       A,?V13
        ADDC      A,R1
        MOV       R7,A
        MOV       DPL,?V4
        MOV       DPH,?V5
        MOVX      A,@DPTR
        MOV       R0,A
        INC       DPTR
        MOVX      A,@DPTR
        MOV       ?V0,R0
        MOV       ?V1,A
        ; Setup parameters for call to function zclFindAttrRec
        MOV       R0,?XSP + 0
        MOV       R1,?XSP + 1
        MOV       ?V8,R0
        MOV       ?V9,R1
        MOV       R0,#?V8
        LCALL     ?PUSH_XSTACK_I_TWO
          CFI CFA_XSP16 add(XSP16, 32)
        MOV       DPL,R6
        MOV       DPH,R7
        MOVX      A,@DPTR
        MOV       R4,A
        INC       DPTR
        MOVX      A,@DPTR
        MOV       R5,A
        MOV       DPL,?V0
        MOV       DPH,?V1
        INC       DPTR
        INC       DPTR
        INC       DPTR
        INC       DPTR
        MOVX      A,@DPTR
        MOV       R2,A
        INC       DPTR
        MOVX      A,@DPTR
        MOV       R3,A
        MOV       A,?V0
        ADD       A,#0x14
        MOV       DPL,A
        CLR       A
        ADDC      A,?V1
        MOV       DPH,A
        MOVX      A,@DPTR
        MOV       R1,A
        LCALL     `??zclFindAttrRec::?relay`; Banked call to: zclFindAttrRec
        MOV       A,#0x2
        LCALL     ?DEALLOC_XSTACK8
          CFI CFA_XSP16 add(XSP16, 30)
        MOV       A,R1
        JZ        ??zclRevertWriteUndividedCmd_3
        MOV       A,#0x6
        LCALL     ?XSTACK_DISP0_8
        MOVX      A,@DPTR
        MOV       ?V0,A
        INC       DPTR
        MOVX      A,@DPTR
        MOV       ?V1,A
        MOV       A,R6
        ADD       A,#0x3
        MOV       R6,A
        JNC       ??zclRevertWriteUndividedCmd_4
        INC       R7
??zclRevertWriteUndividedCmd_4:
        MOV       A,?V0
        ORL       A,?V1
        JNZ       $+5
        LJMP      ??zclRevertWriteUndividedCmd_1 & 0xFFFF
        ; Setup parameters for call to function zclGetAttrDataLength
        MOV       DPL,R6
        MOV       DPH,R7
        MOVX      A,@DPTR
        MOV       R2,A
        INC       DPTR
        MOVX      A,@DPTR
        MOV       R3,A
        MOV       A,#0x4
        LCALL     ?XSTACK_DISP0_8
        MOVX      A,@DPTR
        MOV       R1,A
        LCALL     `??zclGetAttrDataLength::?relay`; Banked call to: zclGetAttrDataLength
        MOV       ?V8,R2
        MOV       ?V9,R3
        MOV       R4,?V8
        MOV       R5,?V9
        ; Setup parameters for call to function osal_memcpy
        MOV       DPL,R6
        MOV       DPH,R7
        MOVX      A,@DPTR
        MOV       ?V8,A
        INC       DPTR
        MOVX      A,@DPTR
        MOV       ?V9,A
        MOV       ?V10,#0x0
        MOV       R0,#?V8
        LCALL     ?PUSH_XSTACK_I_THREE
          CFI CFA_XSP16 add(XSP16, 33)
        MOV       R2,?V0
        MOV       R3,?V1
        LCALL     `??osal_memcpy::?relay`; Banked call to: osal_memcpy
        MOV       A,#0x3
        LCALL     ?DEALLOC_XSTACK8
          CFI CFA_XSP16 add(XSP16, 30)
        LJMP      ??zclRevertWriteUndividedCmd_2 & 0xFFFF
// 4680   } // for loop
// 4681 }
??zclRevertWriteUndividedCmd_3:
        MOV       A,#0x8
        LCALL     ?DEALLOC_XSTACK8
          CFI CFA_XSP16 add(XSP16, 22)
        MOV       R7,#0xe
        LJMP      ?BANKED_LEAVE_XDATA
          CFI EndBlock cfiBlock76
// 4682 
// 4683 /*********************************************************************
// 4684  * @fn      zclProcessInWriteUndividedCmd
// 4685  *
// 4686  * @brief   Process the "Profile" Write Undivided Command
// 4687  *
// 4688  * @param   pInMsg - incoming message to process
// 4689  *
// 4690  * @return  TRUE if command processed. FALSE, otherwise.
// 4691  */

        RSEG BANKED_CODE:HUGECODE:NOROOT(0)
// 4692 static uint8 zclProcessInWriteUndividedCmd( zclIncoming_t *pInMsg )
zclProcessInWriteUndividedCmd:
          CFI Block cfiBlock77 Using cfiCommon0
          CFI Function zclProcessInWriteUndividedCmd
        CODE
// 4693 {
        FUNCALL zclProcessInWriteUndividedCmd, osal_mem_alloc
        LOCFRAME ISTACK, 0, STACK
        LOCFRAME PSTACK, 0, STACK
        LOCFRAME XSTACK, 36, STACK
        LOCFRAME IOVERLAY, 0, STATIC
        LOCFRAME DOVERLAY, 0, STATIC
        ARGFRAME ISTACK, 0, STACK
        ARGFRAME PSTACK, 0, STACK
        ARGFRAME XSTACK, 36, STACK
        ARGFRAME IOVERLAY, 0, STATIC
        ARGFRAME DOVERLAY, 0, STATIC
        FUNCALL zclProcessInWriteUndividedCmd, zclGetAttrDataLengthUsingCB
        LOCFRAME ISTACK, 0, STACK
        LOCFRAME PSTACK, 0, STACK
        LOCFRAME XSTACK, 36, STACK
        LOCFRAME IOVERLAY, 0, STATIC
        LOCFRAME DOVERLAY, 0, STATIC
        ARGFRAME ISTACK, 0, STACK
        ARGFRAME PSTACK, 0, STACK
        ARGFRAME XSTACK, 36, STACK
        ARGFRAME IOVERLAY, 0, STATIC
        ARGFRAME DOVERLAY, 0, STATIC
        FUNCALL zclProcessInWriteUndividedCmd, zclFindAttrRec
        LOCFRAME ISTACK, 0, STACK
        LOCFRAME PSTACK, 0, STACK
        LOCFRAME XSTACK, 38, STACK
        LOCFRAME IOVERLAY, 0, STATIC
        LOCFRAME DOVERLAY, 0, STATIC
        ARGFRAME ISTACK, 0, STACK
        ARGFRAME PSTACK, 0, STACK
        ARGFRAME XSTACK, 38, STACK
        ARGFRAME IOVERLAY, 0, STATIC
        ARGFRAME DOVERLAY, 0, STATIC
        FUNCALL zclProcessInWriteUndividedCmd, osal_mem_alloc
        LOCFRAME ISTACK, 0, STACK
        LOCFRAME PSTACK, 0, STACK
        LOCFRAME XSTACK, 36, STACK
        LOCFRAME IOVERLAY, 0, STATIC
        LOCFRAME DOVERLAY, 0, STATIC
        ARGFRAME ISTACK, 0, STACK
        ARGFRAME PSTACK, 0, STACK
        ARGFRAME XSTACK, 36, STACK
        ARGFRAME IOVERLAY, 0, STATIC
        ARGFRAME DOVERLAY, 0, STATIC
        FUNCALL zclProcessInWriteUndividedCmd, osal_mem_free
        LOCFRAME ISTACK, 0, STACK
        LOCFRAME PSTACK, 0, STACK
        LOCFRAME XSTACK, 36, STACK
        LOCFRAME IOVERLAY, 0, STATIC
        LOCFRAME DOVERLAY, 0, STATIC
        ARGFRAME ISTACK, 0, STACK
        ARGFRAME PSTACK, 0, STACK
        ARGFRAME XSTACK, 36, STACK
        ARGFRAME IOVERLAY, 0, STATIC
        ARGFRAME DOVERLAY, 0, STATIC
        FUNCALL zclProcessInWriteUndividedCmd, zclGetAttrDataLength
        LOCFRAME ISTACK, 0, STACK
        LOCFRAME PSTACK, 0, STACK
        LOCFRAME XSTACK, 36, STACK
        LOCFRAME IOVERLAY, 0, STATIC
        LOCFRAME DOVERLAY, 0, STATIC
        ARGFRAME ISTACK, 0, STACK
        ARGFRAME PSTACK, 0, STACK
        ARGFRAME XSTACK, 36, STACK
        ARGFRAME IOVERLAY, 0, STATIC
        ARGFRAME DOVERLAY, 0, STATIC
        FUNCALL zclProcessInWriteUndividedCmd, zclFindAttrRec
        LOCFRAME ISTACK, 0, STACK
        LOCFRAME PSTACK, 0, STACK
        LOCFRAME XSTACK, 38, STACK
        LOCFRAME IOVERLAY, 0, STATIC
        LOCFRAME DOVERLAY, 0, STATIC
        ARGFRAME ISTACK, 0, STACK
        ARGFRAME PSTACK, 0, STACK
        ARGFRAME XSTACK, 38, STACK
        ARGFRAME IOVERLAY, 0, STATIC
        ARGFRAME DOVERLAY, 0, STATIC
        FUNCALL zclProcessInWriteUndividedCmd, zclReadAttrData
        LOCFRAME ISTACK, 0, STACK
        LOCFRAME PSTACK, 0, STACK
        LOCFRAME XSTACK, 38, STACK
        LOCFRAME IOVERLAY, 0, STATIC
        LOCFRAME DOVERLAY, 0, STATIC
        ARGFRAME ISTACK, 0, STACK
        ARGFRAME PSTACK, 0, STACK
        ARGFRAME XSTACK, 38, STACK
        ARGFRAME IOVERLAY, 0, STATIC
        ARGFRAME DOVERLAY, 0, STATIC
        FUNCALL zclProcessInWriteUndividedCmd, zclWriteAttrData
        LOCFRAME ISTACK, 0, STACK
        LOCFRAME PSTACK, 0, STACK
        LOCFRAME XSTACK, 38, STACK
        LOCFRAME IOVERLAY, 0, STATIC
        LOCFRAME DOVERLAY, 0, STATIC
        ARGFRAME ISTACK, 0, STACK
        ARGFRAME PSTACK, 0, STACK
        ARGFRAME XSTACK, 38, STACK
        ARGFRAME IOVERLAY, 0, STATIC
        ARGFRAME DOVERLAY, 0, STATIC
        FUNCALL zclProcessInWriteUndividedCmd, zclReadAttrDataUsingCB
        LOCFRAME ISTACK, 0, STACK
        LOCFRAME PSTACK, 0, STACK
        LOCFRAME XSTACK, 40, STACK
        LOCFRAME IOVERLAY, 0, STATIC
        LOCFRAME DOVERLAY, 0, STATIC
        ARGFRAME ISTACK, 0, STACK
        ARGFRAME PSTACK, 0, STACK
        ARGFRAME XSTACK, 40, STACK
        ARGFRAME IOVERLAY, 0, STATIC
        ARGFRAME DOVERLAY, 0, STATIC
        FUNCALL zclProcessInWriteUndividedCmd, zclWriteAttrDataUsingCB
        LOCFRAME ISTACK, 0, STACK
        LOCFRAME PSTACK, 0, STACK
        LOCFRAME XSTACK, 38, STACK
        LOCFRAME IOVERLAY, 0, STATIC
        LOCFRAME DOVERLAY, 0, STATIC
        ARGFRAME ISTACK, 0, STACK
        ARGFRAME PSTACK, 0, STACK
        ARGFRAME XSTACK, 38, STACK
        ARGFRAME IOVERLAY, 0, STATIC
        ARGFRAME DOVERLAY, 0, STATIC
        FUNCALL zclProcessInWriteUndividedCmd, zclRevertWriteUndividedCmd
        LOCFRAME ISTACK, 0, STACK
        LOCFRAME PSTACK, 0, STACK
        LOCFRAME XSTACK, 38, STACK
        LOCFRAME IOVERLAY, 0, STATIC
        LOCFRAME DOVERLAY, 0, STATIC
        ARGFRAME ISTACK, 0, STACK
        ARGFRAME PSTACK, 0, STACK
        ARGFRAME XSTACK, 38, STACK
        ARGFRAME IOVERLAY, 0, STATIC
        ARGFRAME DOVERLAY, 0, STATIC
        FUNCALL zclProcessInWriteUndividedCmd, osal_mem_free
        LOCFRAME ISTACK, 0, STACK
        LOCFRAME PSTACK, 0, STACK
        LOCFRAME XSTACK, 36, STACK
        LOCFRAME IOVERLAY, 0, STATIC
        LOCFRAME DOVERLAY, 0, STATIC
        ARGFRAME ISTACK, 0, STACK
        ARGFRAME PSTACK, 0, STACK
        ARGFRAME XSTACK, 36, STACK
        ARGFRAME IOVERLAY, 0, STATIC
        ARGFRAME DOVERLAY, 0, STATIC
        FUNCALL zclProcessInWriteUndividedCmd, zcl_SendWriteRsp
        LOCFRAME ISTACK, 0, STACK
        LOCFRAME PSTACK, 0, STACK
        LOCFRAME XSTACK, 41, STACK
        LOCFRAME IOVERLAY, 0, STATIC
        LOCFRAME DOVERLAY, 0, STATIC
        ARGFRAME ISTACK, 0, STACK
        ARGFRAME PSTACK, 0, STACK
        ARGFRAME XSTACK, 41, STACK
        ARGFRAME IOVERLAY, 0, STATIC
        ARGFRAME DOVERLAY, 0, STATIC
        FUNCALL zclProcessInWriteUndividedCmd, osal_mem_free
        LOCFRAME ISTACK, 0, STACK
        LOCFRAME PSTACK, 0, STACK
        LOCFRAME XSTACK, 36, STACK
        LOCFRAME IOVERLAY, 0, STATIC
        LOCFRAME DOVERLAY, 0, STATIC
        ARGFRAME ISTACK, 0, STACK
        ARGFRAME PSTACK, 0, STACK
        ARGFRAME XSTACK, 36, STACK
        ARGFRAME IOVERLAY, 0, STATIC
        ARGFRAME DOVERLAY, 0, STATIC
        REQUIRE ?V0
        REQUIRE ?V1
        REQUIRE ?V2
        REQUIRE ?V3
        REQUIRE ?V4
        REQUIRE ?V5
        REQUIRE ?V6
        REQUIRE ?V7
        REQUIRE ?V8
        REQUIRE ?V9
        REQUIRE ?V10
        REQUIRE ?V11
        REQUIRE ?V12
        REQUIRE ?V13
        REQUIRE ?V14
        REQUIRE ?V15
        MOV       A,#-0x18
        LCALL     ?BANKED_ENTER_XDATA
          CFI DPH0 load(1, XDATA, add(CFA_XSP16, literal(-1)))
          CFI DPL0 load(1, XDATA, add(CFA_XSP16, literal(-2)))
          CFI ?BRET_EXT load(1, XDATA, add(CFA_XSP16, literal(-3)))
          CFI ?RET_HIGH load(1, XDATA, add(CFA_XSP16, literal(-4)))
          CFI ?RET_LOW load(1, XDATA, add(CFA_XSP16, literal(-5)))
          CFI R7 load(1, XDATA, add(CFA_XSP16, literal(-6)))
          CFI V15 load(1, XDATA, add(CFA_XSP16, literal(-7)))
          CFI V14 load(1, XDATA, add(CFA_XSP16, literal(-8)))
          CFI V13 load(1, XDATA, add(CFA_XSP16, literal(-9)))
          CFI V12 load(1, XDATA, add(CFA_XSP16, literal(-10)))
          CFI V11 load(1, XDATA, add(CFA_XSP16, literal(-11)))
          CFI V10 load(1, XDATA, add(CFA_XSP16, literal(-12)))
          CFI V9 load(1, XDATA, add(CFA_XSP16, literal(-13)))
          CFI V8 load(1, XDATA, add(CFA_XSP16, literal(-14)))
          CFI V7 load(1, XDATA, add(CFA_XSP16, literal(-15)))
          CFI V6 load(1, XDATA, add(CFA_XSP16, literal(-16)))
          CFI V5 load(1, XDATA, add(CFA_XSP16, literal(-17)))
          CFI V4 load(1, XDATA, add(CFA_XSP16, literal(-18)))
          CFI V3 load(1, XDATA, add(CFA_XSP16, literal(-19)))
          CFI V2 load(1, XDATA, add(CFA_XSP16, literal(-20)))
          CFI V1 load(1, XDATA, add(CFA_XSP16, literal(-21)))
          CFI V0 load(1, XDATA, add(CFA_XSP16, literal(-22)))
          CFI VB load(1, XDATA, add(CFA_XSP16, literal(-23)))
          CFI R6 load(1, XDATA, add(CFA_XSP16, literal(-24)))
          CFI CFA_SP SP+0
          CFI CFA_XSP16 add(XSP16, 24)
        ; Saved register size: 24
        ; Auto size: 12
        MOV       A,#-0xc
        LCALL     ?ALLOC_XSTACK8
          CFI CFA_XSP16 add(XSP16, 36)
        MOV       ?V4,R2
        MOV       ?V5,R3
// 4694   zclWriteCmd_t *writeCmd;
// 4695   zclWriteRspCmd_t *writeRspCmd;
// 4696   zclAttrRec_t attrRec;
// 4697   uint16 dataLen;
// 4698   uint16 curLen = 0;
        MOV       ?V8,#0x0
        MOV       ?V9,#0x0
// 4699   uint8 j = 0;
        MOV       R6,#0x0
// 4700   uint8 i;
// 4701 
// 4702   writeCmd = (zclWriteCmd_t *)pInMsg->attrCmd;
        MOV       A,R2
        ADD       A,#0xc
        MOV       DPL,A
        CLR       A
        ADDC      A,?V5
        MOV       DPH,A
        MOVX      A,@DPTR
        MOV       R0,A
        INC       DPTR
        MOVX      A,@DPTR
        MOV       R1,A
        MOV       A,#0x2
        LCALL     ?XSTACK_DISP0_8
        MOV       A,R0
        MOVX      @DPTR,A
        INC       DPTR
        MOV       A,R1
        MOVX      @DPTR,A
// 4703 
// 4704   // Allocate space for Write Response Command
// 4705   writeRspCmd = (zclWriteRspCmd_t *)zcl_mem_alloc( sizeof( zclWriteRspCmd_t )
// 4706                    + sizeof( zclWriteRspStatus_t )* writeCmd->numAttr );
        ; Setup parameters for call to function osal_mem_alloc
        MOV       A,#0x2
        LCALL     ?XSTACK_DISP0_8
        MOVX      A,@DPTR
        MOV       R0,A
        INC       DPTR
        MOVX      A,@DPTR
        MOV       DPH,A
        MOV       DPL,R0
        MOVX      A,@DPTR
        MOV       B,#0x3
        MUL       AB
        MOV       R1,B
        ADD       A,#0x1
        MOV       R2,A
        CLR       A
        ADDC      A,R1
        MOV       R3,A
        LCALL     `??osal_mem_alloc::?relay`; Banked call to: osal_mem_alloc
        MOV       ?V0,R2
        MOV       ?V1,R3
// 4707   if ( writeRspCmd == NULL )
        MOV       A,R2
        ORL       A,R3
        JNZ       $+5
        LJMP      ??zclProcessInWriteUndividedCmd_0 & 0xFFFF
// 4708   {
// 4709     return FALSE; // EMBEDDED RETURN
// 4710   }
// 4711 
// 4712   // If any attribute cannot be written, no attribute values are changed. Hence,
// 4713   // make sure all the attributes are supported and writable
// 4714   for ( i = 0; i < writeCmd->numAttr; i++ )
        MOV       R7,#0x0
        SJMP      ??zclProcessInWriteUndividedCmd_1
// 4715   {
// 4716     zclWriteRec_t *statusRec = &(writeCmd->attrList[i]);
// 4717 
// 4718     if ( !zclFindAttrRec( pInMsg->msg->endPoint, pInMsg->msg->clusterId,
// 4719                           statusRec->attrID, &attrRec ) )
// 4720     {
// 4721       // Attribute is not supported - stop here
// 4722       writeRspCmd->attrList[j].status = ZCL_STATUS_UNSUPPORTED_ATTRIBUTE;
// 4723       writeRspCmd->attrList[j++].attrID = statusRec->attrID;
// 4724       break;
// 4725     }
// 4726 
// 4727     if ( statusRec->dataType != attrRec.attr.dataType )
// 4728     {
// 4729       // Attribute data type is incorrect - stope here
// 4730       writeRspCmd->attrList[j].status = ZCL_STATUS_INVALID_DATA_TYPE;
// 4731       writeRspCmd->attrList[j++].attrID = statusRec->attrID;
// 4732       break;
// 4733     }
// 4734 
// 4735     if ( !zcl_AccessCtrlWrite( attrRec.attr.accessControl ) )
// 4736     {
// 4737       // Attribute is not writable - stop here
// 4738       writeRspCmd->attrList[j].status = ZCL_STATUS_READ_ONLY;
// 4739       writeRspCmd->attrList[j++].attrID = statusRec->attrID;
// 4740       break;
// 4741     }
// 4742 
// 4743     if ( zcl_AccessCtrlAuthWrite( attrRec.attr.accessControl ) )
// 4744     {
// 4745       // Not authorized to write - stop here
// 4746       writeRspCmd->attrList[j].status = ZCL_STATUS_NOT_AUTHORIZED;
// 4747       writeRspCmd->attrList[j++].attrID = statusRec->attrID;
// 4748       break;
// 4749     }
// 4750 
// 4751     // Attribute Data length
// 4752     if ( attrRec.attr.dataPtr != NULL )
// 4753     {
// 4754       dataLen = zclGetAttrDataLength( attrRec.attr.dataType, attrRec.attr.dataPtr );
// 4755     }
// 4756     else // Use CB
// 4757     {
// 4758       dataLen = zclGetAttrDataLengthUsingCB( pInMsg->msg->endPoint, pInMsg->msg->clusterId,
// 4759                                              statusRec->attrID );
??zclProcessInWriteUndividedCmd_2:
        MOV       DPL,?V4
        MOV       DPH,?V5
        MOVX      A,@DPTR
        MOV       R0,A
        INC       DPTR
        MOVX      A,@DPTR
        MOV       R1,A
        ; Setup parameters for call to function zclGetAttrDataLengthUsingCB
        MOV       DPL,?V2
        MOV       DPH,?V3
        MOVX      A,@DPTR
        MOV       R4,A
        INC       DPTR
        MOVX      A,@DPTR
        MOV       R5,A
        MOV       DPL,R0
        MOV       DPH,R1
        INC       DPTR
        INC       DPTR
        INC       DPTR
        INC       DPTR
        MOVX      A,@DPTR
        MOV       R2,A
        INC       DPTR
        MOVX      A,@DPTR
        MOV       R3,A
        MOV       A,R0
        ADD       A,#0x14
        MOV       DPL,A
        CLR       A
        ADDC      A,R1
        MOV       DPH,A
        MOVX      A,@DPTR
        MOV       R1,A
        LCALL     `??zclGetAttrDataLengthUsingCB::?relay`; Banked call to: zclGetAttrDataLengthUsingCB
??zclProcessInWriteUndividedCmd_3:
        MOV       DPL,?XSP + 0
        MOV       DPH,?XSP + 1
        MOV       A,R2
        MOVX      @DPTR,A
        INC       DPTR
        MOV       A,R3
        MOVX      @DPTR,A
// 4760     }
// 4761 
// 4762     // add padding if needed
// 4763     if ( PADDING_NEEDED( dataLen ) )
        MOV       DPL,?XSP + 0
        MOV       DPH,?XSP + 1
        MOVX      A,@DPTR
        MOV       C,0xE0 /* A   */.0
        JNC       ??zclProcessInWriteUndividedCmd_4
// 4764     {
// 4765       dataLen++;
        MOVX      A,@DPTR
        ADD       A,#0x1
        MOVX      @DPTR,A
        INC       DPTR
        MOVX      A,@DPTR
        ADDC      A,#0x0
        MOVX      @DPTR,A
// 4766     }
// 4767 
// 4768     curLen += dataLen;
??zclProcessInWriteUndividedCmd_4:
        MOV       DPL,?XSP + 0
        MOV       DPH,?XSP + 1
        MOVX      A,@DPTR
        ADD       A,?V8
        MOV       ?V8,A
        INC       DPTR
        MOVX      A,@DPTR
        ADDC      A,?V9
        MOV       ?V9,A
        INC       R7
??zclProcessInWriteUndividedCmd_1:
        MOV       A,#0x2
        LCALL     ?XSTACK_DISP0_8
        MOVX      A,@DPTR
        MOV       R0,A
        INC       DPTR
        MOVX      A,@DPTR
        MOV       DPH,A
        MOV       DPL,R0
        MOVX      A,@DPTR
        MOV       R0,A
        MOV       A,R7
        CLR       C
        SUBB      A,R0
        JC        $+5
        LJMP      ??zclProcessInWriteUndividedCmd_5 & 0xFFFF
        MOV       A,R7
        MOV       B,#0x5
        MUL       AB
        MOV       R0,A
        MOV       R1,B
        MOV       A,#0x2
        LCALL     ?XSTACK_DISP0_8
        MOVX      A,@DPTR
        ADD       A,R0
        MOV       R2,A
        INC       DPTR
        MOVX      A,@DPTR
        ADDC      A,R1
        MOV       DPL,R2
        MOV       DPH,A
        INC       DPTR
        MOV       ?V2,DPL
        MOV       ?V3,DPH
        MOV       DPL,?V4
        MOV       DPH,?V5
        MOVX      A,@DPTR
        MOV       ?V6,A
        INC       DPTR
        MOVX      A,@DPTR
        MOV       ?V7,A
        ; Setup parameters for call to function zclFindAttrRec
        MOV       A,#0x4
        LCALL     ?XSTACK_DISP100_8
        MOV       ?V10,R0
        MOV       ?V11,R1
        MOV       R0,#?V10
        LCALL     ?PUSH_XSTACK_I_TWO
          CFI CFA_XSP16 add(XSP16, 38)
        MOV       DPL,?V2
        MOV       DPH,?V3
        MOVX      A,@DPTR
        MOV       R4,A
        INC       DPTR
        MOVX      A,@DPTR
        MOV       R5,A
        MOV       DPL,?V6
        MOV       DPH,?V7
        INC       DPTR
        INC       DPTR
        INC       DPTR
        INC       DPTR
        MOVX      A,@DPTR
        MOV       R2,A
        INC       DPTR
        MOVX      A,@DPTR
        MOV       R3,A
        MOV       A,?V6
        ADD       A,#0x14
        MOV       DPL,A
        CLR       A
        ADDC      A,?V7
        MOV       DPH,A
        MOVX      A,@DPTR
        MOV       R1,A
        LCALL     `??zclFindAttrRec::?relay`; Banked call to: zclFindAttrRec
        MOV       A,#0x2
        LCALL     ?DEALLOC_XSTACK8
          CFI CFA_XSP16 add(XSP16, 36)
        MOV       A,R1
        JNZ       ??zclProcessInWriteUndividedCmd_6
        MOV       DPL,?V0
        MOV       DPH,?V1
        INC       DPTR
        MOV       A,#-0x7a
??zclProcessInWriteUndividedCmd_7:
        MOVX      @DPTR,A
        MOV       DPL,?V2
        MOV       DPH,?V3
        MOVX      A,@DPTR
        MOV       R0,A
        INC       DPTR
        MOVX      A,@DPTR
        MOV       R1,A
        MOV       DPL,?V0
        MOV       DPH,?V1
        INC       DPTR
        INC       DPTR
        MOV       A,R0
        MOVX      @DPTR,A
        INC       DPTR
        MOV       A,R1
        MOVX      @DPTR,A
        MOV       R6,#0x1
// 4769   } // for loop
// 4770 
// 4771   writeRspCmd->numAttr = j;
??zclProcessInWriteUndividedCmd_5:
        MOV       A,R6
        MOV       DPL,?V0
        MOV       DPH,?V1
        MOVX      @DPTR,A
// 4772   if ( writeRspCmd->numAttr == 0 ) // All attributes can be written
        MOVX      A,@DPTR
        JZ        $+5
        LJMP      ??zclProcessInWriteUndividedCmd_8 & 0xFFFF
// 4773   {
// 4774     uint8 *curDataPtr;
// 4775     zclWriteRec_t *curWriteRec;
// 4776 
// 4777     // calculate the length of the current data header
// 4778     uint8 hdrLen = j * sizeof( zclWriteRec_t );
        MOV       B,#0x5
        MOV       A,R6
        MUL       AB
        MOV       R7,A
// 4779 
// 4780     // Allocate space to keep a copy of the current data
// 4781     curWriteRec = (zclWriteRec_t *) zcl_mem_alloc( hdrLen + curLen );
        ; Setup parameters for call to function osal_mem_alloc
        ADD       A,?V8
        MOV       R2,A
        CLR       A
        ADDC      A,?V9
        MOV       R3,A
        LCALL     `??osal_mem_alloc::?relay`; Banked call to: osal_mem_alloc
        MOV       ?V14,R2
        MOV       ?V15,R3
// 4782     if ( curWriteRec == NULL )
        MOV       A,R2
        ORL       A,R3
        JNZ       ??zclProcessInWriteUndividedCmd_9
// 4783     {
// 4784       zcl_mem_free(writeRspCmd );
        ; Setup parameters for call to function osal_mem_free
        MOV       R2,?V0
        MOV       R3,?V1
        LCALL     `??osal_mem_free::?relay`; Banked call to: osal_mem_free
// 4785       return FALSE; // EMBEDDED RETURN
??zclProcessInWriteUndividedCmd_0:
        MOV       R1,#0x0
        LJMP      ??zclProcessInWriteUndividedCmd_10 & 0xFFFF
// 4786     }
??zclProcessInWriteUndividedCmd_6:
        MOV       A,#0x8
        LCALL     ?XSTACK_DISP0_8
        MOVX      A,@DPTR
        MOV       R1,A
        MOV       DPL,?V2
        MOV       DPH,?V3
        INC       DPTR
        INC       DPTR
        MOVX      A,@DPTR
        XRL       A,R1
        JZ        ??zclProcessInWriteUndividedCmd_11
        MOV       DPL,?V0
        MOV       DPH,?V1
        INC       DPTR
        MOV       A,#-0x73
        SJMP      ??zclProcessInWriteUndividedCmd_7
??zclProcessInWriteUndividedCmd_11:
        MOV       A,#0x9
        LCALL     ?XSTACK_DISP0_8
        MOVX      A,@DPTR
        MOV       C,0xE0 /* A   */.1
        JC        ??zclProcessInWriteUndividedCmd_12
        MOV       DPL,?V0
        MOV       DPH,?V1
        INC       DPTR
        MOV       A,#-0x78
        SJMP      ??zclProcessInWriteUndividedCmd_7
??zclProcessInWriteUndividedCmd_12:
        MOVX      A,@DPTR
        MOV       C,0xE0 /* A   */.5
        JNC       ??zclProcessInWriteUndividedCmd_13
        MOV       DPL,?V0
        MOV       DPH,?V1
        INC       DPTR
        MOV       A,#0x7e
        LJMP      ??zclProcessInWriteUndividedCmd_7 & 0xFFFF
??zclProcessInWriteUndividedCmd_13:
        MOV       A,#0xa
        LCALL     ?XSTACK_DISP0_8
        MOVX      A,@DPTR
        MOV       R2,A
        INC       DPTR
        MOVX      A,@DPTR
        MOV       R3,A
        MOV       A,R2
        ORL       A,R3
        JNZ       $+5
        LJMP      ??zclProcessInWriteUndividedCmd_2 & 0xFFFF
        ; Setup parameters for call to function zclGetAttrDataLength
        LCALL     `??zclGetAttrDataLength::?relay`; Banked call to: zclGetAttrDataLength
        LJMP      ??zclProcessInWriteUndividedCmd_3 & 0xFFFF
// 4787 
// 4788     curDataPtr = (uint8 *)((uint8 *)curWriteRec + hdrLen);
??zclProcessInWriteUndividedCmd_9:
        MOV       A,R2
        ADD       A,R7
        MOV       ?V8,A
        CLR       A
        ADDC      A,R3
        MOV       ?V9,A
// 4789 
// 4790     // Write the new data over
// 4791     for ( i = 0; i < writeCmd->numAttr; i++ )
        MOV       R7,#0x0
        SJMP      ??zclProcessInWriteUndividedCmd_14
// 4792     {
// 4793       uint8 status;
// 4794       zclWriteRec_t *statusRec = &(writeCmd->attrList[i]);
// 4795       zclWriteRec_t *curStatusRec = &(curWriteRec[i]);
// 4796 
// 4797       if ( !zclFindAttrRec( pInMsg->msg->endPoint, pInMsg->msg->clusterId,
// 4798                             statusRec->attrID, &attrRec ) )
// 4799       {
// 4800         break; // should never happen
// 4801       }
// 4802 
// 4803       // Keep a copy of the current data before before writing the new data over
// 4804       curStatusRec->attrID = statusRec->attrID;
// 4805       curStatusRec->attrData = curDataPtr;
// 4806 
// 4807       if ( attrRec.attr.dataPtr != NULL )
// 4808       {
// 4809         // Read the current value
// 4810         zclReadAttrData( curDataPtr, &attrRec, &dataLen );
// 4811 
// 4812         // Write the new attribute value
// 4813         status = zclWriteAttrData( pInMsg->msg->endPoint, &(pInMsg->msg->srcAddr),
// 4814                                    &attrRec, statusRec );
// 4815       }
// 4816       else // Use CBs
// 4817       {
// 4818         // Read the current value
// 4819         zclReadAttrDataUsingCB( pInMsg->msg->endPoint, pInMsg->msg->clusterId,
// 4820                                 statusRec->attrID, curDataPtr, &dataLen );
// 4821         // Write the new attribute value
// 4822         status = zclWriteAttrDataUsingCB( pInMsg->msg->endPoint, &(pInMsg->msg->srcAddr),
// 4823                                           &attrRec, statusRec->attrData );
// 4824       }
// 4825 
// 4826       // If successful, a write attribute status record shall NOT be generated
// 4827       if ( status != ZCL_STATUS_SUCCESS )
// 4828       {
// 4829         writeRspCmd->attrList[j].status = status;
// 4830         writeRspCmd->attrList[j++].attrID = statusRec->attrID;
// 4831 
// 4832         // Since this write failed, we need to revert all the pervious writes
// 4833         zclRevertWriteUndividedCmd( pInMsg, curWriteRec, i);
// 4834         break;
// 4835       }
// 4836 
// 4837       // add padding if needed
// 4838       if ( PADDING_NEEDED( dataLen ) )
??zclProcessInWriteUndividedCmd_15:
        MOV       DPL,?XSP + 0
        MOV       DPH,?XSP + 1
        MOVX      A,@DPTR
        MOV       C,0xE0 /* A   */.0
        JNC       ??zclProcessInWriteUndividedCmd_16
// 4839       {
// 4840         dataLen++;
        MOVX      A,@DPTR
        ADD       A,#0x1
        MOVX      @DPTR,A
        INC       DPTR
        MOVX      A,@DPTR
        ADDC      A,#0x0
        MOVX      @DPTR,A
// 4841       }
// 4842 
// 4843       curDataPtr += dataLen;
??zclProcessInWriteUndividedCmd_16:
        MOV       DPL,?XSP + 0
        MOV       DPH,?XSP + 1
        MOVX      A,@DPTR
        MOV       R0,A
        INC       DPTR
        MOVX      A,@DPTR
        MOV       R1,A
        MOV       A,?V8
        ADD       A,R0
        MOV       ?V8,A
        MOV       A,?V9
        ADDC      A,R1
        MOV       ?V9,A
        INC       R7
??zclProcessInWriteUndividedCmd_14:
        MOV       A,#0x2
        LCALL     ?XSTACK_DISP0_8
        MOVX      A,@DPTR
        MOV       R0,A
        INC       DPTR
        MOVX      A,@DPTR
        MOV       DPH,A
        MOV       DPL,R0
        MOVX      A,@DPTR
        MOV       R0,A
        MOV       A,R7
        CLR       C
        SUBB      A,R0
        JC        $+5
        LJMP      ??zclProcessInWriteUndividedCmd_17 & 0xFFFF
        MOV       A,R7
        MOV       B,#0x5
        MUL       AB
        MOV       R0,A
        MOV       R1,B
        MOV       A,#0x2
        LCALL     ?XSTACK_DISP0_8
        MOVX      A,@DPTR
        ADD       A,R0
        MOV       R2,A
        INC       DPTR
        MOVX      A,@DPTR
        ADDC      A,R1
        MOV       DPL,R2
        MOV       DPH,A
        INC       DPTR
        MOV       ?V2,DPL
        MOV       ?V3,DPH
        MOV       A,?V14
        ADD       A,R0
        MOV       ?V12,A
        MOV       A,?V15
        ADDC      A,R1
        MOV       ?V13,A
        MOV       DPL,?V4
        MOV       DPH,?V5
        MOVX      A,@DPTR
        MOV       ?V6,A
        INC       DPTR
        MOVX      A,@DPTR
        MOV       ?V7,A
        ; Setup parameters for call to function zclFindAttrRec
        MOV       A,#0x4
        LCALL     ?XSTACK_DISP100_8
        MOV       ?V10,R0
        MOV       ?V11,R1
        MOV       R0,#?V10
        LCALL     ?PUSH_XSTACK_I_TWO
          CFI CFA_XSP16 add(XSP16, 38)
        MOV       DPL,?V2
        MOV       DPH,?V3
        MOVX      A,@DPTR
        MOV       R4,A
        INC       DPTR
        MOVX      A,@DPTR
        MOV       R5,A
        MOV       DPL,?V6
        MOV       DPH,?V7
        INC       DPTR
        INC       DPTR
        INC       DPTR
        INC       DPTR
        MOVX      A,@DPTR
        MOV       R2,A
        INC       DPTR
        MOVX      A,@DPTR
        MOV       R3,A
        MOV       A,?V6
        ADD       A,#0x14
        MOV       DPL,A
        CLR       A
        ADDC      A,?V7
        MOV       DPH,A
        MOVX      A,@DPTR
        MOV       R1,A
        LCALL     `??zclFindAttrRec::?relay`; Banked call to: zclFindAttrRec
        MOV       A,#0x2
        LCALL     ?DEALLOC_XSTACK8
          CFI CFA_XSP16 add(XSP16, 36)
        MOV       A,R1
        JNZ       $+5
        LJMP      ??zclProcessInWriteUndividedCmd_17 & 0xFFFF
        MOV       DPL,?V2
        MOV       DPH,?V3
        MOVX      A,@DPTR
        MOV       R0,A
        INC       DPTR
        MOVX      A,@DPTR
        MOV       R1,A
        MOV       DPL,?V12
        MOV       DPH,?V13
        MOV       A,R0
        MOVX      @DPTR,A
        INC       DPTR
        MOV       A,R1
        MOVX      @DPTR,A
        MOV       DPL,?V12
        MOV       DPH,?V13
        INC       DPTR
        INC       DPTR
        INC       DPTR
        MOV       A,?V8
        MOVX      @DPTR,A
        INC       DPTR
        MOV       A,?V9
        MOVX      @DPTR,A
        MOV       A,#0xa
        LCALL     ?XSTACK_DISP0_8
        MOVX      A,@DPTR
        MOV       R0,A
        INC       DPTR
        MOVX      A,@DPTR
        MOV       R1,A
        MOV       A,R0
        ORL       A,R1
        JZ        ??zclProcessInWriteUndividedCmd_18
        ; Setup parameters for call to function zclReadAttrData
        MOV       R0,?XSP + 0
        MOV       R1,?XSP + 1
        MOV       ?V6,R0
        MOV       ?V7,R1
        MOV       R0,#?V6
        LCALL     ?PUSH_XSTACK_I_TWO
          CFI CFA_XSP16 add(XSP16, 38)
        MOV       A,#0x6
        LCALL     ?XSTACK_DISP102_8
        MOV       R2,?V8
        MOV       R3,?V9
        LCALL     `??zclReadAttrData::?relay`; Banked call to: zclReadAttrData
        MOV       A,#0x2
        LCALL     ?DEALLOC_XSTACK8
          CFI CFA_XSP16 add(XSP16, 36)
        MOV       DPL,?V4
        MOV       DPH,?V5
        MOVX      A,@DPTR
        MOV       ?V6,A
        INC       DPTR
        MOVX      A,@DPTR
        MOV       ?V7,A
        ; Setup parameters for call to function zclWriteAttrData
        MOV       R0,#?V2
        LCALL     ?PUSH_XSTACK_I_TWO
          CFI CFA_XSP16 add(XSP16, 38)
        MOV       A,#0x6
        LCALL     ?XSTACK_DISP102_8
        MOV       A,?V6
        ADD       A,#0x6
        MOV       R2,A
        CLR       A
        ADDC      A,?V7
        MOV       R3,A
        MOV       A,?V6
        ADD       A,#0x14
        MOV       DPL,A
        CLR       A
        ADDC      A,?V7
        MOV       DPH,A
        MOVX      A,@DPTR
        MOV       R1,A
        LCALL     `??zclWriteAttrData::?relay`; Banked call to: zclWriteAttrData
        SJMP      ??zclProcessInWriteUndividedCmd_19
          CFI CFA_XSP16 add(XSP16, 36)
??zclProcessInWriteUndividedCmd_18:
        MOV       DPL,?V4
        MOV       DPH,?V5
        MOVX      A,@DPTR
        MOV       ?V6,A
        INC       DPTR
        MOVX      A,@DPTR
        MOV       ?V7,A
        ; Setup parameters for call to function zclReadAttrDataUsingCB
        MOV       R0,?XSP + 0
        MOV       R1,?XSP + 1
        MOV       ?V10,R0
        MOV       ?V11,R1
        MOV       R0,#?V10
        LCALL     ?PUSH_XSTACK_I_TWO
          CFI CFA_XSP16 add(XSP16, 38)
        MOV       R0,#?V8
        LCALL     ?PUSH_XSTACK_I_TWO
          CFI CFA_XSP16 add(XSP16, 40)
        MOV       DPL,?V2
        MOV       DPH,?V3
        MOVX      A,@DPTR
        MOV       R4,A
        INC       DPTR
        MOVX      A,@DPTR
        MOV       R5,A
        MOV       DPL,?V6
        MOV       DPH,?V7
        INC       DPTR
        INC       DPTR
        INC       DPTR
        INC       DPTR
        MOVX      A,@DPTR
        MOV       R2,A
        INC       DPTR
        MOVX      A,@DPTR
        MOV       R3,A
        MOV       A,?V6
        ADD       A,#0x14
        MOV       DPL,A
        CLR       A
        ADDC      A,?V7
        MOV       DPH,A
        MOVX      A,@DPTR
        MOV       R1,A
        LCALL     `??zclReadAttrDataUsingCB::?relay`; Banked call to: zclReadAttrDataUsingCB
        MOV       A,#0x4
        LCALL     ?DEALLOC_XSTACK8
          CFI CFA_XSP16 add(XSP16, 36)
        MOV       DPL,?V4
        MOV       DPH,?V5
        MOVX      A,@DPTR
        MOV       R0,A
        INC       DPTR
        MOVX      A,@DPTR
        MOV       R1,A
        ; Setup parameters for call to function zclWriteAttrDataUsingCB
        MOV       DPL,?V2
        MOV       DPH,?V3
        INC       DPTR
        INC       DPTR
        INC       DPTR
        LCALL     ?PUSH_XSTACK8_X_TWO
          CFI CFA_XSP16 add(XSP16, 38)
        MOV       A,#0x6
        LCALL     ?XSTACK_DISP102_8
        MOV       A,R0
        ADD       A,#0x6
        MOV       R2,A
        CLR       A
        ADDC      A,R1
        MOV       R3,A
        MOV       A,R0
        ADD       A,#0x14
        MOV       DPL,A
        CLR       A
        ADDC      A,R1
        MOV       DPH,A
        MOVX      A,@DPTR
        MOV       R1,A
        LCALL     `??zclWriteAttrDataUsingCB::?relay`; Banked call to: zclWriteAttrDataUsingCB
??zclProcessInWriteUndividedCmd_19:
        MOV       A,#0x2
        LCALL     ?DEALLOC_XSTACK8
          CFI CFA_XSP16 add(XSP16, 36)
        MOV       A,R1
        MOV       R2,A
        MOV       A,R2
        JNZ       $+5
        LJMP      ??zclProcessInWriteUndividedCmd_15 & 0xFFFF
        MOV       A,R6
        MOV       B,#0x3
        MUL       AB
        MOV       R0,A
        MOV       R1,B
        MOV       A,?V0
        ADD       A,R0
        MOV       R0,A
        MOV       A,?V1
        ADDC      A,R1
        MOV       R1,A
        MOV       A,R2
        MOV       DPL,R0
        MOV       DPH,R1
        INC       DPTR
        MOVX      @DPTR,A
        MOV       DPL,?V2
        MOV       DPH,?V3
        MOVX      A,@DPTR
        MOV       R2,A
        INC       DPTR
        MOVX      A,@DPTR
        MOV       R3,A
        MOV       DPL,R0
        MOV       DPH,R1
        INC       DPTR
        INC       DPTR
        MOV       A,R2
        MOVX      @DPTR,A
        INC       DPTR
        MOV       A,R3
        MOVX      @DPTR,A
        INC       R6
        ; Setup parameters for call to function zclRevertWriteUndividedCmd
        MOV       A,R7
        MOV       ?V2,A
        MOV       ?V3,#0x0
        MOV       R0,#?V2
        LCALL     ?PUSH_XSTACK_I_TWO
          CFI CFA_XSP16 add(XSP16, 38)
        MOV       R4,?V14
        MOV       R5,?V15
        MOV       R2,?V4
        MOV       R3,?V5
        LCALL     `??zclRevertWriteUndividedCmd::?relay`; Banked call to: zclRevertWriteUndividedCmd
        MOV       A,#0x2
        LCALL     ?DEALLOC_XSTACK8
          CFI CFA_XSP16 add(XSP16, 36)
// 4844     } // for loop
// 4845 
// 4846     writeRspCmd->numAttr = j;
??zclProcessInWriteUndividedCmd_17:
        MOV       A,R6
        MOV       DPL,?V0
        MOV       DPH,?V1
        MOVX      @DPTR,A
// 4847     if ( writeRspCmd->numAttr  == 0 )
        MOVX      A,@DPTR
        JNZ       ??zclProcessInWriteUndividedCmd_20
// 4848     {
// 4849       // Since all records were written successful, include a single status record
// 4850       // in the resonse command with the status field set to SUCCESS and the
// 4851       // attribute ID field omitted.
// 4852       writeRspCmd->attrList[0].status = ZCL_STATUS_SUCCESS;
        INC       DPTR
        CLR       A
        MOVX      @DPTR,A
// 4853       writeRspCmd->numAttr = 1;
        MOV       DPL,?V0
        MOV       DPH,?V1
        INC       A
        MOVX      @DPTR,A
// 4854     }
// 4855 
// 4856     zcl_mem_free( curWriteRec );
??zclProcessInWriteUndividedCmd_20:
        ; Setup parameters for call to function osal_mem_free
        MOV       R2,?V14
        MOV       R3,?V15
        LCALL     `??osal_mem_free::?relay`; Banked call to: osal_mem_free
// 4857   }
// 4858 
// 4859   zcl_SendWriteRsp( pInMsg->msg->endPoint, &(pInMsg->msg->srcAddr),
// 4860                     pInMsg->msg->clusterId, writeRspCmd, !pInMsg->hdr.fc.direction,
// 4861                     true, pInMsg->hdr.transSeqNum );
??zclProcessInWriteUndividedCmd_8:
        MOV       DPL,?V4
        MOV       DPH,?V5
        MOVX      A,@DPTR
        MOV       R6,A
        INC       DPTR
        MOVX      A,@DPTR
        MOV       R7,A
        ; Setup parameters for call to function zcl_SendWriteRsp
        MOV       DPL,?V4
        MOV       DPH,?V5
        INC       DPTR
        INC       DPTR
        INC       DPTR
        INC       DPTR
        INC       DPTR
        INC       DPTR
        MOVX      A,@DPTR
        MOV       ?V2,A
        MOV       R0,#?V2
        LCALL     ?PUSH_XSTACK_I_ONE
          CFI CFA_XSP16 add(XSP16, 37)
        MOV       ?V2,#0x1
        MOV       R0,#?V2
        LCALL     ?PUSH_XSTACK_I_ONE
          CFI CFA_XSP16 add(XSP16, 38)
        MOV       DPL,?V4
        MOV       DPH,?V5
        INC       DPTR
        INC       DPTR
        MOVX      A,@DPTR
        RRC       A
        RRC       A
        RRC       A
        ANL       A,#0x1f
        XRL       A,#0x1
        ANL       A,#0x1
        MOV       ?V2,A
        MOV       R0,#?V2
        LCALL     ?PUSH_XSTACK_I_ONE
          CFI CFA_XSP16 add(XSP16, 39)
        MOV       R0,#?V0
        LCALL     ?PUSH_XSTACK_I_TWO
          CFI CFA_XSP16 add(XSP16, 41)
        MOV       DPL,R6
        MOV       DPH,R7
        INC       DPTR
        INC       DPTR
        INC       DPTR
        INC       DPTR
        MOVX      A,@DPTR
        MOV       R4,A
        INC       DPTR
        MOVX      A,@DPTR
        MOV       R5,A
        MOV       A,R6
        ADD       A,#0x6
        MOV       R2,A
        CLR       A
        ADDC      A,R7
        MOV       R3,A
        MOV       A,R6
        ADD       A,#0x14
        MOV       DPL,A
        CLR       A
        ADDC      A,R7
        MOV       DPH,A
        MOVX      A,@DPTR
        MOV       R1,A
        LCALL     `??zcl_SendWriteRsp::?relay`; Banked call to: zcl_SendWriteRsp
        MOV       A,#0x5
        LCALL     ?DEALLOC_XSTACK8
          CFI CFA_XSP16 add(XSP16, 36)
// 4862   zcl_mem_free( writeRspCmd );
        ; Setup parameters for call to function osal_mem_free
        MOV       R2,?V0
        MOV       R3,?V1
        LCALL     `??osal_mem_free::?relay`; Banked call to: osal_mem_free
// 4863 
// 4864   return TRUE;
        MOV       R1,#0x1
??zclProcessInWriteUndividedCmd_10:
        MOV       A,#0xc
        LCALL     ?DEALLOC_XSTACK8
          CFI CFA_XSP16 add(XSP16, 24)
        MOV       R7,#0x10
        LJMP      ?BANKED_LEAVE_XDATA
// 4865 }
          CFI EndBlock cfiBlock77
// 4866 #endif // ZCL_WRITE
// 4867 
// 4868 #ifdef ZCL_DISCOVER
// 4869 /*********************************************************************
// 4870  * @fn      zclProcessInDiscAttrs
// 4871  *
// 4872  * @brief   Process the "Profile" Discover Attributes Commands
// 4873  *
// 4874  * @param   pInMsg - incoming message to process
// 4875  *
// 4876  * @return  TRUE if command processed. FALSE, otherwise.
// 4877  */

        RSEG BANKED_CODE:HUGECODE:NOROOT(0)
// 4878 static uint8 zclProcessInDiscAttrs( zclIncoming_t *pInMsg )
zclProcessInDiscAttrs:
          CFI Block cfiBlock78 Using cfiCommon0
          CFI Function zclProcessInDiscAttrs
        CODE
// 4879 {
        FUNCALL zclProcessInDiscAttrs, zclFindNextAttrRec
        LOCFRAME ISTACK, 0, STACK
        LOCFRAME PSTACK, 0, STACK
        LOCFRAME XSTACK, 30, STACK
        LOCFRAME IOVERLAY, 0, STATIC
        LOCFRAME DOVERLAY, 0, STATIC
        ARGFRAME ISTACK, 0, STACK
        ARGFRAME PSTACK, 0, STACK
        ARGFRAME XSTACK, 30, STACK
        ARGFRAME IOVERLAY, 0, STATIC
        ARGFRAME DOVERLAY, 0, STATIC
        FUNCALL zclProcessInDiscAttrs, zclProcessInDiscAttrsCmd
        LOCFRAME ISTACK, 0, STACK
        LOCFRAME PSTACK, 0, STACK
        LOCFRAME XSTACK, 26, STACK
        LOCFRAME IOVERLAY, 0, STATIC
        LOCFRAME DOVERLAY, 0, STATIC
        ARGFRAME ISTACK, 0, STACK
        ARGFRAME PSTACK, 0, STACK
        ARGFRAME XSTACK, 26, STACK
        ARGFRAME IOVERLAY, 0, STATIC
        ARGFRAME DOVERLAY, 0, STATIC
        FUNCALL zclProcessInDiscAttrs, zclProcessInDiscAttrsExtCmd
        LOCFRAME ISTACK, 0, STACK
        LOCFRAME PSTACK, 0, STACK
        LOCFRAME XSTACK, 26, STACK
        LOCFRAME IOVERLAY, 0, STATIC
        LOCFRAME DOVERLAY, 0, STATIC
        ARGFRAME ISTACK, 0, STACK
        ARGFRAME PSTACK, 0, STACK
        ARGFRAME XSTACK, 26, STACK
        ARGFRAME IOVERLAY, 0, STATIC
        ARGFRAME DOVERLAY, 0, STATIC
        REQUIRE ?V0
        REQUIRE ?V1
        REQUIRE ?V2
        REQUIRE ?V4
        REQUIRE ?V5
        REQUIRE ?V6
        REQUIRE ?V7
        MOV       A,#-0x10
        LCALL     ?BANKED_ENTER_XDATA
          CFI DPH0 load(1, XDATA, add(CFA_XSP16, literal(-1)))
          CFI DPL0 load(1, XDATA, add(CFA_XSP16, literal(-2)))
          CFI ?BRET_EXT load(1, XDATA, add(CFA_XSP16, literal(-3)))
          CFI ?RET_HIGH load(1, XDATA, add(CFA_XSP16, literal(-4)))
          CFI ?RET_LOW load(1, XDATA, add(CFA_XSP16, literal(-5)))
          CFI R7 load(1, XDATA, add(CFA_XSP16, literal(-6)))
          CFI V7 load(1, XDATA, add(CFA_XSP16, literal(-7)))
          CFI V6 load(1, XDATA, add(CFA_XSP16, literal(-8)))
          CFI V5 load(1, XDATA, add(CFA_XSP16, literal(-9)))
          CFI V4 load(1, XDATA, add(CFA_XSP16, literal(-10)))
          CFI V3 load(1, XDATA, add(CFA_XSP16, literal(-11)))
          CFI V2 load(1, XDATA, add(CFA_XSP16, literal(-12)))
          CFI V1 load(1, XDATA, add(CFA_XSP16, literal(-13)))
          CFI V0 load(1, XDATA, add(CFA_XSP16, literal(-14)))
          CFI VB load(1, XDATA, add(CFA_XSP16, literal(-15)))
          CFI R6 load(1, XDATA, add(CFA_XSP16, literal(-16)))
          CFI CFA_SP SP+0
          CFI CFA_XSP16 add(XSP16, 16)
        ; Saved register size: 16
        ; Auto size: 10
        MOV       A,#-0xa
        LCALL     ?ALLOC_XSTACK8
          CFI CFA_XSP16 add(XSP16, 26)
        MOV       A,R2
        MOV       R6,A
        MOV       A,R3
        MOV       R7,A
// 4880   zclDiscoverAttrsCmd_t *pDiscoverCmd;
// 4881   zclAttrRec_t attrRec;
// 4882   uint16 attrID;
// 4883   uint8 numAttrs;
// 4884   uint8 i;
// 4885 
// 4886   pDiscoverCmd = (zclDiscoverAttrsCmd_t *)pInMsg->attrCmd;
        MOV       A,R2
        ADD       A,#0xc
        MOV       DPL,A
        CLR       A
        ADDC      A,R7
        MOV       DPH,A
        MOVX      A,@DPTR
        MOV       ?V0,A
        INC       DPTR
        MOVX      A,@DPTR
        MOV       ?V1,A
// 4887 
// 4888   // Find out the number of attributes supported within the specified range
// 4889   for ( i = 0, attrID = pDiscoverCmd->startAttr; i < pDiscoverCmd->maxAttrIDs; i++, attrID++ )
        MOV       ?V2,#0x0
        MOV       DPL,?V0
        MOV       DPH,A
        MOVX      A,@DPTR
        MOV       R0,A
        INC       DPTR
        MOVX      A,@DPTR
        MOV       R1,A
        MOV       DPL,?XSP + 0
        MOV       DPH,?XSP + 1
        MOV       A,R0
        MOVX      @DPTR,A
        INC       DPTR
        MOV       A,R1
        SJMP      ??zclProcessInDiscAttrs_0
??zclProcessInDiscAttrs_1:
        INC       ?V2
        MOV       DPL,?XSP + 0
        MOV       DPH,?XSP + 1
        MOVX      A,@DPTR
        ADD       A,#0x1
        MOVX      @DPTR,A
        INC       DPTR
        MOVX      A,@DPTR
        ADDC      A,#0x0
??zclProcessInDiscAttrs_0:
        MOVX      @DPTR,A
        MOV       DPL,?V0
        MOV       DPH,?V1
        INC       DPTR
        INC       DPTR
        MOVX      A,@DPTR
        MOV       R0,A
        MOV       A,?V2
        CLR       C
        SUBB      A,R0
        JNC       ??zclProcessInDiscAttrs_2
// 4890   {
// 4891     // finds the next attribute on this endpoint/cluster after the range.
// 4892     // attributes must be in numerical order in the list.
// 4893     if ( !zclFindNextAttrRec( pInMsg->msg->endPoint, pInMsg->msg->clusterId, pInMsg->hdr.fc.direction, &attrID, &attrRec ) )
        MOV       DPL,R6
        MOV       DPH,R7
        MOVX      A,@DPTR
        MOV       R0,A
        INC       DPTR
        MOVX      A,@DPTR
        MOV       ?V4,R0
        MOV       ?V5,A
        ; Setup parameters for call to function zclFindNextAttrRec
        MOV       A,#0x2
        LCALL     ?XSTACK_DISP100_8
        MOV       ?V6,R0
        MOV       ?V7,R1
        MOV       R0,#?V6
        LCALL     ?PUSH_XSTACK_I_TWO
          CFI CFA_XSP16 add(XSP16, 28)
        MOV       A,#0x2
        LCALL     ?XSTACK_DISP100_8
        MOV       ?V6,R0
        MOV       ?V7,R1
        MOV       R0,#?V6
        LCALL     ?PUSH_XSTACK_I_TWO
          CFI CFA_XSP16 add(XSP16, 30)
        MOV       DPL,R6
        MOV       DPH,R7
        INC       DPTR
        INC       DPTR
        MOVX      A,@DPTR
        RRC       A
        RRC       A
        RRC       A
        ANL       A,#0x1f
        ANL       A,#0x1
        MOV       R4,A
        MOV       DPL,?V4
        MOV       DPH,?V5
        INC       DPTR
        INC       DPTR
        INC       DPTR
        INC       DPTR
        MOVX      A,@DPTR
        MOV       R2,A
        INC       DPTR
        MOVX      A,@DPTR
        MOV       R3,A
        MOV       A,?V4
        ADD       A,#0x14
        MOV       DPL,A
        CLR       A
        ADDC      A,?V5
        MOV       DPH,A
        MOVX      A,@DPTR
        MOV       R1,A
        LCALL     `??zclFindNextAttrRec::?relay`; Banked call to: zclFindNextAttrRec
        MOV       A,#0x4
        LCALL     ?DEALLOC_XSTACK8
          CFI CFA_XSP16 add(XSP16, 26)
        MOV       A,R1
        JNZ       ??zclProcessInDiscAttrs_1
// 4894     {
// 4895       break;
// 4896     }
// 4897   }
// 4898 
// 4899   numAttrs = i;  // store range of attributes in buffer
// 4900 
// 4901     // Process message for either attributes or extended attributes
// 4902   if( pInMsg->hdr.commandID == ZCL_CMD_DISCOVER_ATTRS )
??zclProcessInDiscAttrs_2:
        MOV       DPL,R6
        MOV       DPH,R7
        INC       DPTR
        INC       DPTR
        INC       DPTR
        INC       DPTR
        INC       DPTR
        INC       DPTR
        INC       DPTR
        MOVX      A,@DPTR
        MOV       R0,A
        MOV       A,#0xc
        XRL       A,R0
        JNZ       ??zclProcessInDiscAttrs_3
// 4903   {
// 4904     zclProcessInDiscAttrsCmd( pInMsg, pDiscoverCmd, numAttrs );
        ; Setup parameters for call to function zclProcessInDiscAttrsCmd
        MOV       R1,?V2
        MOV       R4,?V0
        MOV       R5,?V1
        MOV       A,R6
        MOV       R2,A
        MOV       A,R7
        MOV       R3,A
        LCALL     `??zclProcessInDiscAttrsCmd::?relay`; Banked call to: zclProcessInDiscAttrsCmd
        SJMP      ??zclProcessInDiscAttrs_4
// 4905   }
// 4906   else if ( pInMsg->hdr.commandID == ZCL_CMD_DISCOVER_ATTRS_EXT )
??zclProcessInDiscAttrs_3:
        MOV       A,#0x15
        XRL       A,R0
        JNZ       ??zclProcessInDiscAttrs_4
// 4907   {
// 4908     zclProcessInDiscAttrsExtCmd( pInMsg, pDiscoverCmd, numAttrs );
        ; Setup parameters for call to function zclProcessInDiscAttrsExtCmd
        MOV       R1,?V2
        MOV       R4,?V0
        MOV       R5,?V1
        MOV       A,R6
        MOV       R2,A
        MOV       A,R7
        MOV       R3,A
        LCALL     `??zclProcessInDiscAttrsExtCmd::?relay`; Banked call to: zclProcessInDiscAttrsExtCmd
// 4909   }
// 4910 
// 4911   return TRUE;
??zclProcessInDiscAttrs_4:
        MOV       R1,#0x1
        MOV       A,#0xa
        LCALL     ?DEALLOC_XSTACK8
          CFI CFA_XSP16 add(XSP16, 16)
        MOV       R7,#0x8
        LJMP      ?BANKED_LEAVE_XDATA
// 4912 }
          CFI EndBlock cfiBlock78
// 4913 
// 4914 /*********************************************************************
// 4915  * @fn      zclProcessInDiscAttrsCmd
// 4916  *
// 4917  * @brief   Process the Discover Attributes Command
// 4918  *
// 4919  * @param   pInMsg - incoming message to process
// 4920  *
// 4921  * @param   pDiscoverCmd - structure from requesting command
// 4922  *
// 4923  * @param   attrLenBuf - describes the amount of attributes to be processed
// 4924  *
// 4925  * @return  none
// 4926  */

        RSEG BANKED_CODE:HUGECODE:NOROOT(0)
// 4927 static void zclProcessInDiscAttrsCmd( zclIncoming_t *pInMsg, zclDiscoverAttrsCmd_t *pDiscoverCmd, uint8 numAttrs )
zclProcessInDiscAttrsCmd:
          CFI Block cfiBlock79 Using cfiCommon0
          CFI Function zclProcessInDiscAttrsCmd
        CODE
// 4928 {
        FUNCALL zclProcessInDiscAttrsCmd, osal_mem_alloc
        LOCFRAME ISTACK, 0, STACK
        LOCFRAME PSTACK, 0, STACK
        LOCFRAME XSTACK, 30, STACK
        LOCFRAME IOVERLAY, 0, STATIC
        LOCFRAME DOVERLAY, 0, STATIC
        ARGFRAME ISTACK, 0, STACK
        ARGFRAME PSTACK, 0, STACK
        ARGFRAME XSTACK, 30, STACK
        ARGFRAME IOVERLAY, 0, STATIC
        ARGFRAME DOVERLAY, 0, STATIC
        FUNCALL zclProcessInDiscAttrsCmd, zclFindNextAttrRec
        LOCFRAME ISTACK, 0, STACK
        LOCFRAME PSTACK, 0, STACK
        LOCFRAME XSTACK, 34, STACK
        LOCFRAME IOVERLAY, 0, STATIC
        LOCFRAME DOVERLAY, 0, STATIC
        ARGFRAME ISTACK, 0, STACK
        ARGFRAME PSTACK, 0, STACK
        ARGFRAME XSTACK, 34, STACK
        ARGFRAME IOVERLAY, 0, STATIC
        ARGFRAME DOVERLAY, 0, STATIC
        FUNCALL zclProcessInDiscAttrsCmd, zclFindNextAttrRec
        LOCFRAME ISTACK, 0, STACK
        LOCFRAME PSTACK, 0, STACK
        LOCFRAME XSTACK, 34, STACK
        LOCFRAME IOVERLAY, 0, STATIC
        LOCFRAME DOVERLAY, 0, STATIC
        ARGFRAME ISTACK, 0, STACK
        ARGFRAME PSTACK, 0, STACK
        ARGFRAME XSTACK, 34, STACK
        ARGFRAME IOVERLAY, 0, STATIC
        ARGFRAME DOVERLAY, 0, STATIC
        FUNCALL zclProcessInDiscAttrsCmd, zcl_SendDiscoverAttrsRspCmd
        LOCFRAME ISTACK, 0, STACK
        LOCFRAME PSTACK, 0, STACK
        LOCFRAME XSTACK, 35, STACK
        LOCFRAME IOVERLAY, 0, STATIC
        LOCFRAME DOVERLAY, 0, STATIC
        ARGFRAME ISTACK, 0, STACK
        ARGFRAME PSTACK, 0, STACK
        ARGFRAME XSTACK, 35, STACK
        ARGFRAME IOVERLAY, 0, STATIC
        ARGFRAME DOVERLAY, 0, STATIC
        FUNCALL zclProcessInDiscAttrsCmd, osal_mem_free
        LOCFRAME ISTACK, 0, STACK
        LOCFRAME PSTACK, 0, STACK
        LOCFRAME XSTACK, 30, STACK
        LOCFRAME IOVERLAY, 0, STATIC
        LOCFRAME DOVERLAY, 0, STATIC
        ARGFRAME ISTACK, 0, STACK
        ARGFRAME PSTACK, 0, STACK
        ARGFRAME XSTACK, 30, STACK
        ARGFRAME IOVERLAY, 0, STATIC
        ARGFRAME DOVERLAY, 0, STATIC
        REQUIRE ?V0
        REQUIRE ?V1
        REQUIRE ?V2
        REQUIRE ?V3
        REQUIRE ?V4
        REQUIRE ?V5
        REQUIRE ?V6
        REQUIRE ?V7
        REQUIRE ?V8
        REQUIRE ?V9
        REQUIRE ?V10
        REQUIRE ?V11
        MOV       A,#-0x14
        LCALL     ?BANKED_ENTER_XDATA
          CFI DPH0 load(1, XDATA, add(CFA_XSP16, literal(-1)))
          CFI DPL0 load(1, XDATA, add(CFA_XSP16, literal(-2)))
          CFI ?BRET_EXT load(1, XDATA, add(CFA_XSP16, literal(-3)))
          CFI ?RET_HIGH load(1, XDATA, add(CFA_XSP16, literal(-4)))
          CFI ?RET_LOW load(1, XDATA, add(CFA_XSP16, literal(-5)))
          CFI R7 load(1, XDATA, add(CFA_XSP16, literal(-6)))
          CFI V11 load(1, XDATA, add(CFA_XSP16, literal(-7)))
          CFI V10 load(1, XDATA, add(CFA_XSP16, literal(-8)))
          CFI V9 load(1, XDATA, add(CFA_XSP16, literal(-9)))
          CFI V8 load(1, XDATA, add(CFA_XSP16, literal(-10)))
          CFI V7 load(1, XDATA, add(CFA_XSP16, literal(-11)))
          CFI V6 load(1, XDATA, add(CFA_XSP16, literal(-12)))
          CFI V5 load(1, XDATA, add(CFA_XSP16, literal(-13)))
          CFI V4 load(1, XDATA, add(CFA_XSP16, literal(-14)))
          CFI V3 load(1, XDATA, add(CFA_XSP16, literal(-15)))
          CFI V2 load(1, XDATA, add(CFA_XSP16, literal(-16)))
          CFI V1 load(1, XDATA, add(CFA_XSP16, literal(-17)))
          CFI V0 load(1, XDATA, add(CFA_XSP16, literal(-18)))
          CFI VB load(1, XDATA, add(CFA_XSP16, literal(-19)))
          CFI R6 load(1, XDATA, add(CFA_XSP16, literal(-20)))
          CFI CFA_SP SP+0
          CFI CFA_XSP16 add(XSP16, 20)
        ; Saved register size: 20
        ; Auto size: 10
        MOV       A,#-0xa
        LCALL     ?ALLOC_XSTACK8
          CFI CFA_XSP16 add(XSP16, 30)
        MOV       ?V6,R2
        MOV       ?V7,R3
        MOV       ?V4,R4
        MOV       ?V5,R5
        MOV       A,R1
        MOV       R6,A
// 4929   zclDiscoverAttrsRspCmd_t *pDiscoverRsp;
// 4930   uint8 discComplete = TRUE;
        MOV       R7,#0x1
// 4931   zclAttrRec_t attrRec;
// 4932   uint16 attrID;
// 4933   uint8 i;
// 4934 
// 4935   // Allocate space for the response command
// 4936   pDiscoverRsp = (zclDiscoverAttrsRspCmd_t *)zcl_mem_alloc( sizeof (zclDiscoverAttrsRspCmd_t)
// 4937                                                           + sizeof ( zclDiscoverAttrInfo_t ) * numAttrs );
        ; Setup parameters for call to function osal_mem_alloc
        MOV       B,#0x3
        MUL       AB
        MOV       R1,B
        ADD       A,#0x2
        MOV       R2,A
        CLR       A
        ADDC      A,R1
        MOV       R3,A
        LCALL     `??osal_mem_alloc::?relay`; Banked call to: osal_mem_alloc
        MOV       ?V0,R2
        MOV       ?V1,R3
// 4938   if ( pDiscoverRsp == NULL )
        MOV       A,R2
        ORL       A,R3
        JNZ       $+5
        LJMP      ??zclProcessInDiscAttrsCmd_0 & 0xFFFF
// 4939   {
// 4940     return; // EMBEDDED RETURN
// 4941   }
// 4942 
// 4943   if ( numAttrs != 0 )
        MOV       A,?V6
        ADD       A,#0x2
        MOV       ?V8,A
        CLR       A
        ADDC      A,?V7
        MOV       ?V9,A
        MOV       A,R6
        JNZ       $+5
        LJMP      ??zclProcessInDiscAttrsCmd_1 & 0xFFFF
// 4944   {
// 4945     for ( i = 0, attrID = pDiscoverCmd->startAttr; i < numAttrs; i++, attrID++ )
        MOV       ?V2,#0x0
        MOV       DPL,?V4
        MOV       DPH,?V5
        MOVX      A,@DPTR
        MOV       R0,A
        INC       DPTR
        MOVX      A,@DPTR
        MOV       R1,A
        MOV       DPL,?XSP + 0
        MOV       DPH,?XSP + 1
        MOV       A,R0
        MOVX      @DPTR,A
        INC       DPTR
        MOV       A,R1
        SJMP      ??zclProcessInDiscAttrsCmd_2
// 4946     {
// 4947       if ( !zclFindNextAttrRec( pInMsg->msg->endPoint, pInMsg->msg->clusterId, pInMsg->hdr.fc.direction, &attrID, &attrRec ) )
// 4948       {
// 4949         break; // should not happen, as numAttrs already calculated
// 4950       }
// 4951 
// 4952       pDiscoverRsp->attrList[i].attrID = attrRec.attr.attrId;
??zclProcessInDiscAttrsCmd_3:
        MOV       A,?V2
        MOV       B,#0x3
        MUL       AB
        MOV       R0,A
        MOV       R1,B
        MOV       A,?V0
        ADD       A,R0
        MOV       R0,A
        MOV       A,?V1
        ADDC      A,R1
        MOV       R1,A
        MOV       A,#0x4
        LCALL     ?XSTACK_DISP0_8
        MOVX      A,@DPTR
        MOV       R2,A
        INC       DPTR
        MOVX      A,@DPTR
        MOV       R3,A
        MOV       DPL,R0
        MOV       DPH,R1
        INC       DPTR
        INC       DPTR
        MOV       A,R2
        MOVX      @DPTR,A
        INC       DPTR
        MOV       A,R3
        MOVX      @DPTR,A
// 4953       pDiscoverRsp->attrList[i].dataType = attrRec.attr.dataType;
        MOV       A,#0x6
        LCALL     ?XSTACK_DISP0_8
        MOVX      A,@DPTR
        MOV       DPL,R0
        MOV       DPH,R1
        INC       DPTR
        INC       DPTR
        INC       DPTR
        INC       DPTR
        MOVX      @DPTR,A
        INC       ?V2
        MOV       DPL,?XSP + 0
        MOV       DPH,?XSP + 1
        MOVX      A,@DPTR
        ADD       A,R7
        MOVX      @DPTR,A
        INC       DPTR
        MOVX      A,@DPTR
        ADDC      A,#0x0
??zclProcessInDiscAttrsCmd_2:
        MOVX      @DPTR,A
        MOV       A,?V2
        CLR       C
        SUBB      A,R6
        JNC       ??zclProcessInDiscAttrsCmd_4
        MOV       DPL,?V6
        MOV       DPH,?V7
        MOVX      A,@DPTR
        MOV       ?V4,A
        INC       DPTR
        MOVX      A,@DPTR
        MOV       ?V5,A
        ; Setup parameters for call to function zclFindNextAttrRec
        MOV       A,#0x2
        LCALL     ?XSTACK_DISP100_8
        MOV       ?V10,R0
        MOV       ?V11,R1
        MOV       R0,#?V10
        LCALL     ?PUSH_XSTACK_I_TWO
          CFI CFA_XSP16 add(XSP16, 32)
        MOV       A,#0x2
        LCALL     ?XSTACK_DISP100_8
        MOV       ?V10,R0
        MOV       ?V11,R1
        MOV       R0,#?V10
        LCALL     ?PUSH_XSTACK_I_TWO
          CFI CFA_XSP16 add(XSP16, 34)
        MOV       DPL,?V8
        MOV       DPH,?V9
        MOVX      A,@DPTR
        RRC       A
        RRC       A
        RRC       A
        ANL       A,#0x1f
        ANL       A,#0x1
        MOV       R4,A
        MOV       DPL,?V4
        MOV       DPH,?V5
        INC       DPTR
        INC       DPTR
        INC       DPTR
        INC       DPTR
        MOVX      A,@DPTR
        MOV       R2,A
        INC       DPTR
        MOVX      A,@DPTR
        MOV       R3,A
        MOV       A,?V4
        ADD       A,#0x14
        MOV       DPL,A
        CLR       A
        ADDC      A,?V5
        MOV       DPH,A
        MOVX      A,@DPTR
        MOV       R1,A
        LCALL     `??zclFindNextAttrRec::?relay`; Banked call to: zclFindNextAttrRec
        MOV       A,#0x4
        LCALL     ?DEALLOC_XSTACK8
          CFI CFA_XSP16 add(XSP16, 30)
        MOV       A,R1
        JZ        $+5
        LJMP      ??zclProcessInDiscAttrsCmd_3 & 0xFFFF
// 4954     }
// 4955 
// 4956     // Are there more attributes to be discovered?
// 4957     if ( zclFindNextAttrRec( pInMsg->msg->endPoint, pInMsg->msg->clusterId, pInMsg->hdr.fc.direction, &attrID, &attrRec ) )
??zclProcessInDiscAttrsCmd_4:
        MOV       DPL,?V6
        MOV       DPH,?V7
        MOVX      A,@DPTR
        MOV       ?V2,A
        INC       DPTR
        MOVX      A,@DPTR
        MOV       ?V3,A
        ; Setup parameters for call to function zclFindNextAttrRec
        MOV       A,#0x2
        LCALL     ?XSTACK_DISP100_8
        MOV       ?V4,R0
        MOV       ?V5,R1
        MOV       R0,#?V4
        LCALL     ?PUSH_XSTACK_I_TWO
          CFI CFA_XSP16 add(XSP16, 32)
        MOV       A,#0x2
        LCALL     ?XSTACK_DISP100_8
        MOV       ?V4,R0
        MOV       ?V5,R1
        MOV       R0,#?V4
        LCALL     ?PUSH_XSTACK_I_TWO
          CFI CFA_XSP16 add(XSP16, 34)
        MOV       DPL,?V8
        MOV       DPH,?V9
        MOVX      A,@DPTR
        RRC       A
        RRC       A
        RRC       A
        ANL       A,#0x1f
        ANL       A,#0x1
        MOV       R4,A
        MOV       DPL,?V2
        MOV       DPH,?V3
        INC       DPTR
        INC       DPTR
        INC       DPTR
        INC       DPTR
        MOVX      A,@DPTR
        MOV       R2,A
        INC       DPTR
        MOVX      A,@DPTR
        MOV       R3,A
        MOV       A,?V2
        ADD       A,#0x14
        MOV       DPL,A
        CLR       A
        ADDC      A,?V3
        MOV       DPH,A
        MOVX      A,@DPTR
        MOV       R1,A
        LCALL     `??zclFindNextAttrRec::?relay`; Banked call to: zclFindNextAttrRec
        MOV       A,#0x4
        LCALL     ?DEALLOC_XSTACK8
          CFI CFA_XSP16 add(XSP16, 30)
        MOV       A,R1
        JZ        ??zclProcessInDiscAttrsCmd_1
// 4958     {
// 4959       discComplete = FALSE;
        MOV       R7,#0x0
// 4960     }
// 4961   }
// 4962 
// 4963   pDiscoverRsp->discComplete = discComplete;
??zclProcessInDiscAttrsCmd_1:
        MOV       A,R7
        MOV       DPL,?V0
        MOV       DPH,?V1
        MOVX      @DPTR,A
// 4964   pDiscoverRsp->numAttr = numAttrs;
        MOV       A,R6
        INC       DPTR
        MOVX      @DPTR,A
// 4965 
// 4966   zcl_SendDiscoverAttrsRspCmd( pInMsg->msg->endPoint, &pInMsg->msg->srcAddr,
// 4967                                pInMsg->msg->clusterId, pDiscoverRsp, !(pInMsg->hdr.fc.direction),
// 4968                                true, pInMsg->hdr.transSeqNum );
        MOV       DPL,?V6
        MOV       DPH,?V7
        MOVX      A,@DPTR
        MOV       ?V2,A
        INC       DPTR
        MOVX      A,@DPTR
        MOV       ?V3,A
        ; Setup parameters for call to function zcl_SendDiscoverAttrsRspCmd
        MOV       DPL,?V6
        MOV       DPH,?V7
        INC       DPTR
        INC       DPTR
        INC       DPTR
        INC       DPTR
        INC       DPTR
        INC       DPTR
        MOVX      A,@DPTR
        MOV       ?V4,A
        MOV       R0,#?V4
        LCALL     ?PUSH_XSTACK_I_ONE
          CFI CFA_XSP16 add(XSP16, 31)
        MOV       ?V4,#0x1
        MOV       R0,#?V4
        LCALL     ?PUSH_XSTACK_I_ONE
          CFI CFA_XSP16 add(XSP16, 32)
        MOV       DPL,?V8
        MOV       DPH,?V9
        MOVX      A,@DPTR
        RRC       A
        RRC       A
        RRC       A
        ANL       A,#0x1f
        XRL       A,#0x1
        ANL       A,#0x1
        MOV       ?V4,A
        MOV       R0,#?V4
        LCALL     ?PUSH_XSTACK_I_ONE
          CFI CFA_XSP16 add(XSP16, 33)
        MOV       R0,#?V0
        LCALL     ?PUSH_XSTACK_I_TWO
          CFI CFA_XSP16 add(XSP16, 35)
        MOV       DPL,?V2
        MOV       DPH,?V3
        INC       DPTR
        INC       DPTR
        INC       DPTR
        INC       DPTR
        MOVX      A,@DPTR
        MOV       R4,A
        INC       DPTR
        MOVX      A,@DPTR
        MOV       R5,A
        MOV       A,?V2
        ADD       A,#0x6
        MOV       R2,A
        CLR       A
        ADDC      A,?V3
        MOV       R3,A
        MOV       A,?V2
        ADD       A,#0x14
        MOV       DPL,A
        CLR       A
        ADDC      A,?V3
        MOV       DPH,A
        MOVX      A,@DPTR
        MOV       R1,A
        LCALL     `??zcl_SendDiscoverAttrsRspCmd::?relay`; Banked call to: zcl_SendDiscoverAttrsRspCmd
        MOV       A,#0x5
        LCALL     ?DEALLOC_XSTACK8
          CFI CFA_XSP16 add(XSP16, 30)
// 4969   zcl_mem_free( pDiscoverRsp );
        ; Setup parameters for call to function osal_mem_free
        MOV       R2,?V0
        MOV       R3,?V1
        LCALL     `??osal_mem_free::?relay`; Banked call to: osal_mem_free
// 4970 
// 4971   return;
??zclProcessInDiscAttrsCmd_0:
        MOV       A,#0xa
        LCALL     ?DEALLOC_XSTACK8
          CFI CFA_XSP16 add(XSP16, 20)
        MOV       R7,#0xc
        LJMP      ?BANKED_LEAVE_XDATA
// 4972 }
          CFI EndBlock cfiBlock79
// 4973 
// 4974 /*********************************************************************
// 4975  * @fn      zclProcessInDiscAttrsExtCmd
// 4976  *
// 4977  * @brief   Process the Discover Attributes Extended Command
// 4978  *
// 4979  * @param   pInMsg - incoming message to process
// 4980  *
// 4981  * @param   pDiscoverCmd - structure from requesting command
// 4982  *
// 4983  * @param   attrLenBuf - describes the amount of attributes to be processed
// 4984  *
// 4985  * @return  none
// 4986  */

        RSEG BANKED_CODE:HUGECODE:NOROOT(0)
// 4987 static void zclProcessInDiscAttrsExtCmd( zclIncoming_t *pInMsg, zclDiscoverAttrsCmd_t *pDiscoverCmd, uint8 numAttrs )
zclProcessInDiscAttrsExtCmd:
          CFI Block cfiBlock80 Using cfiCommon0
          CFI Function zclProcessInDiscAttrsExtCmd
        CODE
// 4988 {
        FUNCALL zclProcessInDiscAttrsExtCmd, osal_mem_alloc
        LOCFRAME ISTACK, 0, STACK
        LOCFRAME PSTACK, 0, STACK
        LOCFRAME XSTACK, 30, STACK
        LOCFRAME IOVERLAY, 0, STATIC
        LOCFRAME DOVERLAY, 0, STATIC
        ARGFRAME ISTACK, 0, STACK
        ARGFRAME PSTACK, 0, STACK
        ARGFRAME XSTACK, 30, STACK
        ARGFRAME IOVERLAY, 0, STATIC
        ARGFRAME DOVERLAY, 0, STATIC
        FUNCALL zclProcessInDiscAttrsExtCmd, zclFindNextAttrRec
        LOCFRAME ISTACK, 0, STACK
        LOCFRAME PSTACK, 0, STACK
        LOCFRAME XSTACK, 34, STACK
        LOCFRAME IOVERLAY, 0, STATIC
        LOCFRAME DOVERLAY, 0, STATIC
        ARGFRAME ISTACK, 0, STACK
        ARGFRAME PSTACK, 0, STACK
        ARGFRAME XSTACK, 34, STACK
        ARGFRAME IOVERLAY, 0, STATIC
        ARGFRAME DOVERLAY, 0, STATIC
        FUNCALL zclProcessInDiscAttrsExtCmd, zclFindNextAttrRec
        LOCFRAME ISTACK, 0, STACK
        LOCFRAME PSTACK, 0, STACK
        LOCFRAME XSTACK, 34, STACK
        LOCFRAME IOVERLAY, 0, STATIC
        LOCFRAME DOVERLAY, 0, STATIC
        ARGFRAME ISTACK, 0, STACK
        ARGFRAME PSTACK, 0, STACK
        ARGFRAME XSTACK, 34, STACK
        ARGFRAME IOVERLAY, 0, STATIC
        ARGFRAME DOVERLAY, 0, STATIC
        FUNCALL zclProcessInDiscAttrsExtCmd, zcl_SendDiscoverAttrsExtRsp
        LOCFRAME ISTACK, 0, STACK
        LOCFRAME PSTACK, 0, STACK
        LOCFRAME XSTACK, 35, STACK
        LOCFRAME IOVERLAY, 0, STATIC
        LOCFRAME DOVERLAY, 0, STATIC
        ARGFRAME ISTACK, 0, STACK
        ARGFRAME PSTACK, 0, STACK
        ARGFRAME XSTACK, 35, STACK
        ARGFRAME IOVERLAY, 0, STATIC
        ARGFRAME DOVERLAY, 0, STATIC
        FUNCALL zclProcessInDiscAttrsExtCmd, osal_mem_free
        LOCFRAME ISTACK, 0, STACK
        LOCFRAME PSTACK, 0, STACK
        LOCFRAME XSTACK, 30, STACK
        LOCFRAME IOVERLAY, 0, STATIC
        LOCFRAME DOVERLAY, 0, STATIC
        ARGFRAME ISTACK, 0, STACK
        ARGFRAME PSTACK, 0, STACK
        ARGFRAME XSTACK, 30, STACK
        ARGFRAME IOVERLAY, 0, STATIC
        ARGFRAME DOVERLAY, 0, STATIC
        REQUIRE ?V0
        REQUIRE ?V1
        REQUIRE ?V2
        REQUIRE ?V3
        REQUIRE ?V4
        REQUIRE ?V5
        REQUIRE ?V6
        REQUIRE ?V7
        REQUIRE ?V8
        REQUIRE ?V9
        REQUIRE ?V10
        REQUIRE ?V11
        MOV       A,#-0x14
        LCALL     ?BANKED_ENTER_XDATA
          CFI DPH0 load(1, XDATA, add(CFA_XSP16, literal(-1)))
          CFI DPL0 load(1, XDATA, add(CFA_XSP16, literal(-2)))
          CFI ?BRET_EXT load(1, XDATA, add(CFA_XSP16, literal(-3)))
          CFI ?RET_HIGH load(1, XDATA, add(CFA_XSP16, literal(-4)))
          CFI ?RET_LOW load(1, XDATA, add(CFA_XSP16, literal(-5)))
          CFI R7 load(1, XDATA, add(CFA_XSP16, literal(-6)))
          CFI V11 load(1, XDATA, add(CFA_XSP16, literal(-7)))
          CFI V10 load(1, XDATA, add(CFA_XSP16, literal(-8)))
          CFI V9 load(1, XDATA, add(CFA_XSP16, literal(-9)))
          CFI V8 load(1, XDATA, add(CFA_XSP16, literal(-10)))
          CFI V7 load(1, XDATA, add(CFA_XSP16, literal(-11)))
          CFI V6 load(1, XDATA, add(CFA_XSP16, literal(-12)))
          CFI V5 load(1, XDATA, add(CFA_XSP16, literal(-13)))
          CFI V4 load(1, XDATA, add(CFA_XSP16, literal(-14)))
          CFI V3 load(1, XDATA, add(CFA_XSP16, literal(-15)))
          CFI V2 load(1, XDATA, add(CFA_XSP16, literal(-16)))
          CFI V1 load(1, XDATA, add(CFA_XSP16, literal(-17)))
          CFI V0 load(1, XDATA, add(CFA_XSP16, literal(-18)))
          CFI VB load(1, XDATA, add(CFA_XSP16, literal(-19)))
          CFI R6 load(1, XDATA, add(CFA_XSP16, literal(-20)))
          CFI CFA_SP SP+0
          CFI CFA_XSP16 add(XSP16, 20)
        ; Saved register size: 20
        ; Auto size: 10
        MOV       A,#-0xa
        LCALL     ?ALLOC_XSTACK8
          CFI CFA_XSP16 add(XSP16, 30)
        MOV       ?V6,R2
        MOV       ?V7,R3
        MOV       ?V4,R4
        MOV       ?V5,R5
        MOV       A,R1
        MOV       R6,A
// 4989   zclDiscoverAttrsExtRsp_t *pDiscoverExtRsp;
// 4990   uint8 discComplete = TRUE;
        MOV       R7,#0x1
// 4991   zclAttrRec_t attrRec;
// 4992   uint16 attrID;
// 4993   uint8 i;
// 4994 
// 4995     // Allocate space for the response command
// 4996   pDiscoverExtRsp = (zclDiscoverAttrsExtRsp_t *)zcl_mem_alloc( sizeof (zclDiscoverAttrsExtRsp_t)
// 4997                                                          + sizeof ( zclExtAttrInfo_t ) * numAttrs );
        ; Setup parameters for call to function osal_mem_alloc
        MOV       ?V0,A
        MOV       ?V1,#0x0
        MOV       A,#0x2
        MOV       R0,#?V0
        LCALL     ?S_SHL
        MOV       A,?V0
        ADD       A,#0x2
        MOV       R2,A
        CLR       A
        ADDC      A,?V1
        MOV       R3,A
        LCALL     `??osal_mem_alloc::?relay`; Banked call to: osal_mem_alloc
        MOV       ?V0,R2
        MOV       ?V1,R3
// 4998   if ( pDiscoverExtRsp == NULL )
        MOV       A,R2
        ORL       A,R3
        JNZ       $+5
        LJMP      ??zclProcessInDiscAttrsExtCmd_0 & 0xFFFF
// 4999   {
// 5000     return; // EMBEDDED RETURN
// 5001   }
// 5002 
// 5003 
// 5004   if ( numAttrs != 0 )
        MOV       A,?V6
        ADD       A,#0x2
        MOV       ?V8,A
        CLR       A
        ADDC      A,?V7
        MOV       ?V9,A
        MOV       A,R6
        JNZ       $+5
        LJMP      ??zclProcessInDiscAttrsExtCmd_1 & 0xFFFF
// 5005   {
// 5006     for ( i = 0, attrID = pDiscoverCmd->startAttr; i < numAttrs; i++, attrID++ )
        MOV       ?V2,#0x0
        MOV       DPL,?V4
        MOV       DPH,?V5
        MOVX      A,@DPTR
        MOV       R0,A
        INC       DPTR
        MOVX      A,@DPTR
        MOV       R1,A
        MOV       DPL,?XSP + 0
        MOV       DPH,?XSP + 1
        MOV       A,R0
        MOVX      @DPTR,A
        INC       DPTR
        MOV       A,R1
        SJMP      ??zclProcessInDiscAttrsExtCmd_2
// 5007     {
// 5008       if ( !zclFindNextAttrRec( pInMsg->msg->endPoint, pInMsg->msg->clusterId, pInMsg->hdr.fc.direction, &attrID, &attrRec ) )
// 5009       {
// 5010         break; // Should not happen, as numAttrs already calculated
// 5011       }
// 5012 
// 5013       pDiscoverExtRsp->aExtAttrInfo[i].attrID = attrRec.attr.attrId;
??zclProcessInDiscAttrsExtCmd_3:
        MOV       A,?V2
        MOV       ?V4,A
        MOV       ?V5,#0x0
        MOV       A,#0x2
        MOV       R0,#?V4
        LCALL     ?S_SHL
        MOV       A,?V0
        ADD       A,?V4
        MOV       R0,A
        MOV       A,?V1
        ADDC      A,?V5
        MOV       R1,A
        MOV       A,#0x4
        LCALL     ?XSTACK_DISP0_8
        MOVX      A,@DPTR
        MOV       R2,A
        INC       DPTR
        MOVX      A,@DPTR
        MOV       R3,A
        MOV       DPL,R0
        MOV       DPH,R1
        INC       DPTR
        INC       DPTR
        MOV       A,R2
        MOVX      @DPTR,A
        INC       DPTR
        MOV       A,R3
        MOVX      @DPTR,A
// 5014       pDiscoverExtRsp->aExtAttrInfo[i].attrDataType = attrRec.attr.dataType;
        MOV       A,#0x6
        LCALL     ?XSTACK_DISP0_8
        MOVX      A,@DPTR
        MOV       DPL,R0
        MOV       DPH,R1
        INC       DPTR
        INC       DPTR
        INC       DPTR
        INC       DPTR
        MOVX      @DPTR,A
// 5015       pDiscoverExtRsp->aExtAttrInfo[i].attrAccessControl = attrRec.attr.accessControl & ACCESS_CONTROLEXT_MASK;
        MOV       A,#0x7
        LCALL     ?XSTACK_DISP0_8
        MOVX      A,@DPTR
        ANL       A,#0x7
        MOV       DPL,R0
        MOV       DPH,R1
        INC       DPTR
        INC       DPTR
        INC       DPTR
        INC       DPTR
        INC       DPTR
        MOVX      @DPTR,A
        INC       ?V2
        MOV       DPL,?XSP + 0
        MOV       DPH,?XSP + 1
        MOVX      A,@DPTR
        ADD       A,R7
        MOVX      @DPTR,A
        INC       DPTR
        MOVX      A,@DPTR
        ADDC      A,#0x0
??zclProcessInDiscAttrsExtCmd_2:
        MOVX      @DPTR,A
        MOV       A,?V2
        CLR       C
        SUBB      A,R6
        JNC       ??zclProcessInDiscAttrsExtCmd_4
        MOV       DPL,?V6
        MOV       DPH,?V7
        MOVX      A,@DPTR
        MOV       ?V4,A
        INC       DPTR
        MOVX      A,@DPTR
        MOV       ?V5,A
        ; Setup parameters for call to function zclFindNextAttrRec
        MOV       A,#0x2
        LCALL     ?XSTACK_DISP100_8
        MOV       ?V10,R0
        MOV       ?V11,R1
        MOV       R0,#?V10
        LCALL     ?PUSH_XSTACK_I_TWO
          CFI CFA_XSP16 add(XSP16, 32)
        MOV       A,#0x2
        LCALL     ?XSTACK_DISP100_8
        MOV       ?V10,R0
        MOV       ?V11,R1
        MOV       R0,#?V10
        LCALL     ?PUSH_XSTACK_I_TWO
          CFI CFA_XSP16 add(XSP16, 34)
        MOV       DPL,?V8
        MOV       DPH,?V9
        MOVX      A,@DPTR
        RRC       A
        RRC       A
        RRC       A
        ANL       A,#0x1f
        ANL       A,#0x1
        MOV       R4,A
        MOV       DPL,?V4
        MOV       DPH,?V5
        INC       DPTR
        INC       DPTR
        INC       DPTR
        INC       DPTR
        MOVX      A,@DPTR
        MOV       R2,A
        INC       DPTR
        MOVX      A,@DPTR
        MOV       R3,A
        MOV       A,?V4
        ADD       A,#0x14
        MOV       DPL,A
        CLR       A
        ADDC      A,?V5
        MOV       DPH,A
        MOVX      A,@DPTR
        MOV       R1,A
        LCALL     `??zclFindNextAttrRec::?relay`; Banked call to: zclFindNextAttrRec
        MOV       A,#0x4
        LCALL     ?DEALLOC_XSTACK8
          CFI CFA_XSP16 add(XSP16, 30)
        MOV       A,R1
        JZ        $+5
        LJMP      ??zclProcessInDiscAttrsExtCmd_3 & 0xFFFF
// 5016     }
// 5017 
// 5018     // Are there more attributes to be discovered?
// 5019     if ( zclFindNextAttrRec( pInMsg->msg->endPoint, pInMsg->msg->clusterId, pInMsg->hdr.fc.direction, &attrID, &attrRec ) )
??zclProcessInDiscAttrsExtCmd_4:
        MOV       DPL,?V6
        MOV       DPH,?V7
        MOVX      A,@DPTR
        MOV       ?V2,A
        INC       DPTR
        MOVX      A,@DPTR
        MOV       ?V3,A
        ; Setup parameters for call to function zclFindNextAttrRec
        MOV       A,#0x2
        LCALL     ?XSTACK_DISP100_8
        MOV       ?V4,R0
        MOV       ?V5,R1
        MOV       R0,#?V4
        LCALL     ?PUSH_XSTACK_I_TWO
          CFI CFA_XSP16 add(XSP16, 32)
        MOV       A,#0x2
        LCALL     ?XSTACK_DISP100_8
        MOV       ?V4,R0
        MOV       ?V5,R1
        MOV       R0,#?V4
        LCALL     ?PUSH_XSTACK_I_TWO
          CFI CFA_XSP16 add(XSP16, 34)
        MOV       DPL,?V8
        MOV       DPH,?V9
        MOVX      A,@DPTR
        RRC       A
        RRC       A
        RRC       A
        ANL       A,#0x1f
        ANL       A,#0x1
        MOV       R4,A
        MOV       DPL,?V2
        MOV       DPH,?V3
        INC       DPTR
        INC       DPTR
        INC       DPTR
        INC       DPTR
        MOVX      A,@DPTR
        MOV       R2,A
        INC       DPTR
        MOVX      A,@DPTR
        MOV       R3,A
        MOV       A,?V2
        ADD       A,#0x14
        MOV       DPL,A
        CLR       A
        ADDC      A,?V3
        MOV       DPH,A
        MOVX      A,@DPTR
        MOV       R1,A
        LCALL     `??zclFindNextAttrRec::?relay`; Banked call to: zclFindNextAttrRec
        MOV       A,#0x4
        LCALL     ?DEALLOC_XSTACK8
          CFI CFA_XSP16 add(XSP16, 30)
        MOV       A,R1
        JZ        ??zclProcessInDiscAttrsExtCmd_1
// 5020     {
// 5021       discComplete = FALSE;
        MOV       R7,#0x0
// 5022     }
// 5023   }
// 5024 
// 5025   pDiscoverExtRsp->discComplete = discComplete;
??zclProcessInDiscAttrsExtCmd_1:
        MOV       A,R7
        MOV       DPL,?V0
        MOV       DPH,?V1
        MOVX      @DPTR,A
// 5026   pDiscoverExtRsp->numAttr = numAttrs;
        MOV       A,R6
        INC       DPTR
        MOVX      @DPTR,A
// 5027 
// 5028   zcl_SendDiscoverAttrsExtRsp( pInMsg->msg->endPoint, &pInMsg->msg->srcAddr,
// 5029                                pInMsg->msg->clusterId, pDiscoverExtRsp, !(pInMsg->hdr.fc.direction),
// 5030                                true, pInMsg->hdr.transSeqNum );
        MOV       DPL,?V6
        MOV       DPH,?V7
        MOVX      A,@DPTR
        MOV       ?V2,A
        INC       DPTR
        MOVX      A,@DPTR
        MOV       ?V3,A
        ; Setup parameters for call to function zcl_SendDiscoverAttrsExtRsp
        MOV       DPL,?V6
        MOV       DPH,?V7
        INC       DPTR
        INC       DPTR
        INC       DPTR
        INC       DPTR
        INC       DPTR
        INC       DPTR
        MOVX      A,@DPTR
        MOV       ?V4,A
        MOV       R0,#?V4
        LCALL     ?PUSH_XSTACK_I_ONE
          CFI CFA_XSP16 add(XSP16, 31)
        MOV       ?V4,#0x1
        MOV       R0,#?V4
        LCALL     ?PUSH_XSTACK_I_ONE
          CFI CFA_XSP16 add(XSP16, 32)
        MOV       DPL,?V8
        MOV       DPH,?V9
        MOVX      A,@DPTR
        RRC       A
        RRC       A
        RRC       A
        ANL       A,#0x1f
        XRL       A,#0x1
        ANL       A,#0x1
        MOV       ?V4,A
        MOV       R0,#?V4
        LCALL     ?PUSH_XSTACK_I_ONE
          CFI CFA_XSP16 add(XSP16, 33)
        MOV       R0,#?V0
        LCALL     ?PUSH_XSTACK_I_TWO
          CFI CFA_XSP16 add(XSP16, 35)
        MOV       DPL,?V2
        MOV       DPH,?V3
        INC       DPTR
        INC       DPTR
        INC       DPTR
        INC       DPTR
        MOVX      A,@DPTR
        MOV       R4,A
        INC       DPTR
        MOVX      A,@DPTR
        MOV       R5,A
        MOV       A,?V2
        ADD       A,#0x6
        MOV       R2,A
        CLR       A
        ADDC      A,?V3
        MOV       R3,A
        MOV       A,?V2
        ADD       A,#0x14
        MOV       DPL,A
        CLR       A
        ADDC      A,?V3
        MOV       DPH,A
        MOVX      A,@DPTR
        MOV       R1,A
        LCALL     `??zcl_SendDiscoverAttrsExtRsp::?relay`; Banked call to: zcl_SendDiscoverAttrsExtRsp
        MOV       A,#0x5
        LCALL     ?DEALLOC_XSTACK8
          CFI CFA_XSP16 add(XSP16, 30)
// 5031 
// 5032   zcl_mem_free( pDiscoverExtRsp );
        ; Setup parameters for call to function osal_mem_free
        MOV       R2,?V0
        MOV       R3,?V1
        LCALL     `??osal_mem_free::?relay`; Banked call to: osal_mem_free
// 5033 
// 5034   return;
??zclProcessInDiscAttrsExtCmd_0:
        MOV       A,#0xa
        LCALL     ?DEALLOC_XSTACK8
          CFI CFA_XSP16 add(XSP16, 20)
        MOV       R7,#0xc
        LJMP      ?BANKED_LEAVE_XDATA
// 5035 }
          CFI EndBlock cfiBlock80
// 5036 
// 5037 /*********************************************************************
// 5038  * @fn      zclProcessInDiscCmd
// 5039  *
// 5040  * @brief   Process the "Profile" Discover Command
// 5041  *
// 5042  * @param   pInMsg - incoming message to process
// 5043  *
// 5044  * @return  TRUE if command processed. FALSE, otherwise.
// 5045  */

        RSEG BANKED_CODE:HUGECODE:NOROOT(0)
// 5046 static uint8 zclProcessInDiscCmd( zclIncoming_t *pInMsg )
zclProcessInDiscCmd:
          CFI Block cfiBlock81 Using cfiCommon0
          CFI Function zclProcessInDiscCmd
        CODE
// 5047 {
        FUNCALL zclProcessInDiscCmd, zclFindNextCmdRec
        LOCFRAME ISTACK, 0, STACK
        LOCFRAME PSTACK, 0, STACK
        LOCFRAME XSTACK, 32, STACK
        LOCFRAME IOVERLAY, 0, STATIC
        LOCFRAME DOVERLAY, 0, STATIC
        ARGFRAME ISTACK, 0, STACK
        ARGFRAME PSTACK, 0, STACK
        ARGFRAME XSTACK, 32, STACK
        ARGFRAME IOVERLAY, 0, STATIC
        ARGFRAME DOVERLAY, 0, STATIC
        FUNCALL zclProcessInDiscCmd, osal_mem_alloc
        LOCFRAME ISTACK, 0, STACK
        LOCFRAME PSTACK, 0, STACK
        LOCFRAME XSTACK, 28, STACK
        LOCFRAME IOVERLAY, 0, STATIC
        LOCFRAME DOVERLAY, 0, STATIC
        ARGFRAME ISTACK, 0, STACK
        ARGFRAME PSTACK, 0, STACK
        ARGFRAME XSTACK, 28, STACK
        ARGFRAME IOVERLAY, 0, STATIC
        ARGFRAME DOVERLAY, 0, STATIC
        FUNCALL zclProcessInDiscCmd, zclFindNextCmdRec
        LOCFRAME ISTACK, 0, STACK
        LOCFRAME PSTACK, 0, STACK
        LOCFRAME XSTACK, 32, STACK
        LOCFRAME IOVERLAY, 0, STATIC
        LOCFRAME DOVERLAY, 0, STATIC
        ARGFRAME ISTACK, 0, STACK
        ARGFRAME PSTACK, 0, STACK
        ARGFRAME XSTACK, 32, STACK
        ARGFRAME IOVERLAY, 0, STATIC
        ARGFRAME DOVERLAY, 0, STATIC
        FUNCALL zclProcessInDiscCmd, zclFindNextCmdRec
        LOCFRAME ISTACK, 0, STACK
        LOCFRAME PSTACK, 0, STACK
        LOCFRAME XSTACK, 32, STACK
        LOCFRAME IOVERLAY, 0, STATIC
        LOCFRAME DOVERLAY, 0, STATIC
        ARGFRAME ISTACK, 0, STACK
        ARGFRAME PSTACK, 0, STACK
        ARGFRAME XSTACK, 32, STACK
        ARGFRAME IOVERLAY, 0, STATIC
        ARGFRAME DOVERLAY, 0, STATIC
        FUNCALL zclProcessInDiscCmd, zcl_SendDiscoverCmdsRspCmd
        LOCFRAME ISTACK, 0, STACK
        LOCFRAME PSTACK, 0, STACK
        LOCFRAME XSTACK, 33, STACK
        LOCFRAME IOVERLAY, 0, STATIC
        LOCFRAME DOVERLAY, 0, STATIC
        ARGFRAME ISTACK, 0, STACK
        ARGFRAME PSTACK, 0, STACK
        ARGFRAME XSTACK, 33, STACK
        ARGFRAME IOVERLAY, 0, STATIC
        ARGFRAME DOVERLAY, 0, STATIC
        FUNCALL zclProcessInDiscCmd, osal_mem_free
        LOCFRAME ISTACK, 0, STACK
        LOCFRAME PSTACK, 0, STACK
        LOCFRAME XSTACK, 28, STACK
        LOCFRAME IOVERLAY, 0, STATIC
        LOCFRAME DOVERLAY, 0, STATIC
        ARGFRAME ISTACK, 0, STACK
        ARGFRAME PSTACK, 0, STACK
        ARGFRAME XSTACK, 28, STACK
        ARGFRAME IOVERLAY, 0, STATIC
        ARGFRAME DOVERLAY, 0, STATIC
        REQUIRE ?V0
        REQUIRE ?V1
        REQUIRE ?V2
        REQUIRE ?V3
        REQUIRE ?V4
        REQUIRE ?V5
        REQUIRE ?V6
        REQUIRE ?V7
        REQUIRE ?V8
        REQUIRE ?V9
        MOV       A,#-0x12
        LCALL     ?BANKED_ENTER_XDATA
          CFI DPH0 load(1, XDATA, add(CFA_XSP16, literal(-1)))
          CFI DPL0 load(1, XDATA, add(CFA_XSP16, literal(-2)))
          CFI ?BRET_EXT load(1, XDATA, add(CFA_XSP16, literal(-3)))
          CFI ?RET_HIGH load(1, XDATA, add(CFA_XSP16, literal(-4)))
          CFI ?RET_LOW load(1, XDATA, add(CFA_XSP16, literal(-5)))
          CFI R7 load(1, XDATA, add(CFA_XSP16, literal(-6)))
          CFI V9 load(1, XDATA, add(CFA_XSP16, literal(-7)))
          CFI V8 load(1, XDATA, add(CFA_XSP16, literal(-8)))
          CFI V7 load(1, XDATA, add(CFA_XSP16, literal(-9)))
          CFI V6 load(1, XDATA, add(CFA_XSP16, literal(-10)))
          CFI V5 load(1, XDATA, add(CFA_XSP16, literal(-11)))
          CFI V4 load(1, XDATA, add(CFA_XSP16, literal(-12)))
          CFI V3 load(1, XDATA, add(CFA_XSP16, literal(-13)))
          CFI V2 load(1, XDATA, add(CFA_XSP16, literal(-14)))
          CFI V1 load(1, XDATA, add(CFA_XSP16, literal(-15)))
          CFI V0 load(1, XDATA, add(CFA_XSP16, literal(-16)))
          CFI VB load(1, XDATA, add(CFA_XSP16, literal(-17)))
          CFI R6 load(1, XDATA, add(CFA_XSP16, literal(-18)))
          CFI CFA_SP SP+0
          CFI CFA_XSP16 add(XSP16, 18)
        ; Saved register size: 18
        ; Auto size: 10
        MOV       A,#-0xa
        LCALL     ?ALLOC_XSTACK8
          CFI CFA_XSP16 add(XSP16, 28)
        MOV       A,R2
        MOV       R6,A
        MOV       A,R3
        MOV       R7,A
// 5048   zclDiscoverCmdsCmd_t *pDiscoverCmd;
// 5049   zclDiscoverCmdsCmdRsp_t cmdRsp;
// 5050   ZStatus_t status;
// 5051   zclCommandRec_t cmdRec;
// 5052   uint8 cmdID;
// 5053   uint8 i;
// 5054   uint8 j;
// 5055 
// 5056   pDiscoverCmd = (zclDiscoverCmdsCmd_t *)pInMsg->attrCmd;
        MOV       A,R2
        ADD       A,#0xc
        MOV       DPL,A
        CLR       A
        ADDC      A,R7
        MOV       DPH,A
        MOVX      A,@DPTR
        MOV       ?V4,A
        INC       DPTR
        MOVX      A,@DPTR
        MOV       ?V5,A
// 5057 
// 5058   // Find out the number of commands supported within the specified range
// 5059   for ( i = 0, cmdID = pDiscoverCmd->startCmdID; i < pDiscoverCmd->maxCmdID; i++, cmdID++ )
        MOV       ?V0,#0x0
        MOV       DPL,?V4
        MOV       DPH,A
        MOVX      A,@DPTR
        MOV       DPL,?XSP + 0
        MOV       DPH,?XSP + 1
        SJMP      ??zclProcessInDiscCmd_0
??zclProcessInDiscCmd_1:
        INC       ?V0
        MOV       DPL,?XSP + 0
        MOV       DPH,?XSP + 1
        MOVX      A,@DPTR
        INC       A
??zclProcessInDiscCmd_0:
        MOVX      @DPTR,A
        MOV       DPL,?V4
        MOV       DPH,?V5
        INC       DPTR
        MOVX      A,@DPTR
        MOV       R0,A
        MOV       A,?V0
        CLR       C
        SUBB      A,R0
        JNC       ??zclProcessInDiscCmd_2
// 5060   {
// 5061     if ( !zclFindNextCmdRec( pInMsg->msg->endPoint, pInMsg->msg->clusterId, pInMsg->hdr.commandID, pInMsg->hdr.fc.direction, &cmdID, &cmdRec ) )
        MOV       DPL,R6
        MOV       DPH,R7
        MOVX      A,@DPTR
        MOV       ?V2,A
        INC       DPTR
        MOVX      A,@DPTR
        MOV       ?V3,A
        ; Setup parameters for call to function zclFindNextCmdRec
        MOV       A,#0x6
        LCALL     ?XSTACK_DISP100_8
        MOV       ?V6,R0
        MOV       ?V7,R1
        MOV       R0,#?V6
        LCALL     ?PUSH_XSTACK_I_TWO
          CFI CFA_XSP16 add(XSP16, 30)
        MOV       A,#0x2
        LCALL     ?XSTACK_DISP100_8
        MOV       ?V6,R0
        MOV       ?V7,R1
        MOV       R0,#?V6
        LCALL     ?PUSH_XSTACK_I_TWO
          CFI CFA_XSP16 add(XSP16, 32)
        MOV       DPL,R6
        MOV       DPH,R7
        INC       DPTR
        INC       DPTR
        MOVX      A,@DPTR
        RRC       A
        RRC       A
        RRC       A
        ANL       A,#0x1f
        ANL       A,#0x1
        MOV       R5,A
        MOV       DPL,R6
        MOV       DPH,R7
        INC       DPTR
        INC       DPTR
        INC       DPTR
        INC       DPTR
        INC       DPTR
        INC       DPTR
        INC       DPTR
        MOVX      A,@DPTR
        MOV       R4,A
        MOV       DPL,?V2
        MOV       DPH,?V3
        INC       DPTR
        INC       DPTR
        INC       DPTR
        INC       DPTR
        MOVX      A,@DPTR
        MOV       R2,A
        INC       DPTR
        MOVX      A,@DPTR
        MOV       R3,A
        MOV       A,?V2
        ADD       A,#0x14
        MOV       DPL,A
        CLR       A
        ADDC      A,?V3
        MOV       DPH,A
        MOVX      A,@DPTR
        MOV       R1,A
        LCALL     `??zclFindNextCmdRec::?relay`; Banked call to: zclFindNextCmdRec
        MOV       A,#0x4
        LCALL     ?DEALLOC_XSTACK8
          CFI CFA_XSP16 add(XSP16, 28)
        MOV       A,R1
        JZ        $+5
        LJMP      ??zclProcessInDiscCmd_1 & 0xFFFF
// 5062     {
// 5063       break;  // Command not supported
// 5064     }
// 5065   }
// 5066 
// 5067   // Allocate space for the response command
// 5068   cmdRsp.pCmdID = zcl_mem_alloc( i ); // size of number of commands returned
??zclProcessInDiscCmd_2:
        ; Setup parameters for call to function osal_mem_alloc
        MOV       R2,?V0
        MOV       R3,#0x0
        LCALL     `??osal_mem_alloc::?relay`; Banked call to: osal_mem_alloc
        MOV       ?V3,R3
        MOV       R1,?V3
        MOV       A,#0x4
        LCALL     ?XSTACK_DISP0_8
        MOV       A,R2
        MOVX      @DPTR,A
        INC       DPTR
        MOV       A,R3
        MOVX      @DPTR,A
// 5069 
// 5070   if ( cmdRsp.pCmdID == NULL )
        MOV       A,R2
        ORL       A,R1
        JNZ       $+5
        LJMP      ??zclProcessInDiscCmd_3 & 0xFFFF
// 5071   {
// 5072     return FALSE; // EMBEDDED RETURN
// 5073   }
// 5074 
// 5075   if ( i != 0 )
        MOV       A,?V0
        JNZ       $+5
        LJMP      ??zclProcessInDiscCmd_4 & 0xFFFF
// 5076   {
// 5077     for ( j = 0, cmdID = pDiscoverCmd->startCmdID; j < i; j++, cmdID++ )
        MOV       ?V1,#0x0
        MOV       DPL,?V4
        MOV       DPH,?V5
        MOVX      A,@DPTR
        MOV       DPL,?XSP + 0
        MOV       DPH,?XSP + 1
        SJMP      ??zclProcessInDiscCmd_5
// 5078     {
// 5079       if ( !zclFindNextCmdRec( pInMsg->msg->endPoint, pInMsg->msg->clusterId, pInMsg->hdr.commandID, pInMsg->hdr.fc.direction, &cmdID, &cmdRec ) )
// 5080       {
// 5081         break; // Attribute not supported
// 5082       }
// 5083 
// 5084       cmdRsp.pCmdID[j] = cmdRec.cmdID;
??zclProcessInDiscCmd_6:
        MOV       A,#0x8
        LCALL     ?XSTACK_DISP0_8
        MOVX      A,@DPTR
        PUSH      A
          CFI CFA_SP SP+-1
        MOV       R0,?V1
        MOV       A,#0x4
        LCALL     ?XSTACK_DISP0_8
        MOVX      A,@DPTR
        ADD       A,R0
        MOV       R2,A
        INC       DPTR
        MOVX      A,@DPTR
        ADDC      A,#0x0
        MOV       DPL,R2
        MOV       DPH,A
        POP       A
          CFI CFA_SP SP+0
        MOVX      @DPTR,A
        INC       ?V1
        MOV       DPL,?XSP + 0
        MOV       DPH,?XSP + 1
        MOVX      A,@DPTR
        INC       A
??zclProcessInDiscCmd_5:
        MOVX      @DPTR,A
        MOV       A,?V1
        CLR       C
        SUBB      A,?V0
        JNC       ??zclProcessInDiscCmd_4
        MOV       DPL,R6
        MOV       DPH,R7
        MOVX      A,@DPTR
        MOV       R0,A
        INC       DPTR
        MOVX      A,@DPTR
        MOV       ?V2,R0
        MOV       ?V3,A
        ; Setup parameters for call to function zclFindNextCmdRec
        MOV       A,#0x6
        LCALL     ?XSTACK_DISP100_8
        MOV       ?V4,R0
        MOV       ?V5,R1
        MOV       R0,#?V4
        LCALL     ?PUSH_XSTACK_I_TWO
          CFI CFA_XSP16 add(XSP16, 30)
        MOV       A,#0x2
        LCALL     ?XSTACK_DISP100_8
        MOV       ?V4,R0
        MOV       ?V5,R1
        MOV       R0,#?V4
        LCALL     ?PUSH_XSTACK_I_TWO
          CFI CFA_XSP16 add(XSP16, 32)
        MOV       DPL,R6
        MOV       DPH,R7
        INC       DPTR
        INC       DPTR
        MOVX      A,@DPTR
        RRC       A
        RRC       A
        RRC       A
        ANL       A,#0x1f
        ANL       A,#0x1
        MOV       R5,A
        MOV       DPL,R6
        MOV       DPH,R7
        INC       DPTR
        INC       DPTR
        INC       DPTR
        INC       DPTR
        INC       DPTR
        INC       DPTR
        INC       DPTR
        MOVX      A,@DPTR
        MOV       R4,A
        MOV       DPL,?V2
        MOV       DPH,?V3
        INC       DPTR
        INC       DPTR
        INC       DPTR
        INC       DPTR
        MOVX      A,@DPTR
        MOV       R2,A
        INC       DPTR
        MOVX      A,@DPTR
        MOV       R3,A
        MOV       A,?V2
        ADD       A,#0x14
        MOV       DPL,A
        CLR       A
        ADDC      A,?V3
        MOV       DPH,A
        MOVX      A,@DPTR
        MOV       R1,A
        LCALL     `??zclFindNextCmdRec::?relay`; Banked call to: zclFindNextCmdRec
        MOV       A,#0x4
        LCALL     ?DEALLOC_XSTACK8
          CFI CFA_XSP16 add(XSP16, 28)
        MOV       A,R1
        JZ        $+5
        LJMP      ??zclProcessInDiscCmd_6 & 0xFFFF
// 5085     }
// 5086   }
// 5087 
// 5088   // Are there more commands to be discovered?
// 5089   if ( zclFindNextCmdRec( pInMsg->msg->endPoint, pInMsg->msg->clusterId, pInMsg->hdr.commandID, pInMsg->hdr.fc.direction, &cmdID, &cmdRec ) )
??zclProcessInDiscCmd_4:
        MOV       DPL,R6
        MOV       DPH,R7
        MOVX      A,@DPTR
        MOV       ?V4,A
        INC       DPTR
        MOVX      A,@DPTR
        MOV       ?V5,A
        MOV       A,R6
        ADD       A,#0x7
        MOV       ?V6,A
        CLR       A
        ADDC      A,R7
        MOV       ?V7,A
        MOV       A,R6
        ADD       A,#0x2
        MOV       ?V2,A
        CLR       A
        ADDC      A,R7
        MOV       ?V3,A
        ; Setup parameters for call to function zclFindNextCmdRec
        MOV       A,#0x6
        LCALL     ?XSTACK_DISP100_8
        MOV       ?V8,R0
        MOV       ?V9,R1
        MOV       R0,#?V8
        LCALL     ?PUSH_XSTACK_I_TWO
          CFI CFA_XSP16 add(XSP16, 30)
        MOV       A,#0x2
        LCALL     ?XSTACK_DISP100_8
        MOV       ?V8,R0
        MOV       ?V9,R1
        MOV       R0,#?V8
        LCALL     ?PUSH_XSTACK_I_TWO
          CFI CFA_XSP16 add(XSP16, 32)
        MOV       DPL,?V2
        MOV       DPH,?V3
        MOVX      A,@DPTR
        RRC       A
        RRC       A
        RRC       A
        ANL       A,#0x1f
        ANL       A,#0x1
        MOV       R5,A
        MOV       DPL,?V6
        MOV       DPH,?V7
        MOVX      A,@DPTR
        MOV       R4,A
        MOV       DPL,?V4
        MOV       DPH,?V5
        INC       DPTR
        INC       DPTR
        INC       DPTR
        INC       DPTR
        MOVX      A,@DPTR
        MOV       R2,A
        INC       DPTR
        MOVX      A,@DPTR
        MOV       R3,A
        MOV       A,?V4
        ADD       A,#0x14
        MOV       DPL,A
        CLR       A
        ADDC      A,?V5
        MOV       DPH,A
        MOVX      A,@DPTR
        MOV       R1,A
        LCALL     `??zclFindNextCmdRec::?relay`; Banked call to: zclFindNextCmdRec
        MOV       A,#0x4
        LCALL     ?DEALLOC_XSTACK8
          CFI CFA_XSP16 add(XSP16, 28)
        MOV       A,R1
        JZ        ??zclProcessInDiscCmd_7
// 5090   {
// 5091     cmdRsp.discComplete = FALSE;
        MOV       A,#0x1
        LCALL     ?XSTACK_DISP0_8
        CLR       A
        SJMP      ??zclProcessInDiscCmd_8
// 5092   }
// 5093   else
// 5094   {
// 5095     cmdRsp.discComplete = TRUE;
??zclProcessInDiscCmd_7:
        MOV       A,#0x1
        LCALL     ?XSTACK_DISP0_8
        MOV       A,#0x1
??zclProcessInDiscCmd_8:
        MOVX      @DPTR,A
// 5096   }
// 5097 
// 5098   // pass the command requested
// 5099   cmdRsp.cmdType = pInMsg->hdr.commandID;
        MOV       DPL,?V6
        MOV       DPH,?V7
        MOVX      A,@DPTR
        PUSH      A
          CFI CFA_SP SP+-1
        MOV       A,#0x2
        LCALL     ?XSTACK_DISP0_8
        POP       A
          CFI CFA_SP SP+0
        MOVX      @DPTR,A
// 5100 
// 5101   // store number of commands returned
// 5102   cmdRsp.numCmd = j;
        MOV       A,#0x3
        LCALL     ?XSTACK_DISP0_8
        MOV       A,?V1
        MOVX      @DPTR,A
// 5103 
// 5104   status = zcl_SendDiscoverCmdsRspCmd( pInMsg->msg->endPoint, &pInMsg->msg->srcAddr,
// 5105                                       pInMsg->msg->clusterId, &cmdRsp, !(pInMsg->hdr.fc.direction),
// 5106                                       true, pInMsg->hdr.transSeqNum );
        MOV       DPL,R6
        MOV       DPH,R7
        MOVX      A,@DPTR
        MOV       ?V0,A
        INC       DPTR
        MOVX      A,@DPTR
        MOV       ?V1,A
        ; Setup parameters for call to function zcl_SendDiscoverCmdsRspCmd
        MOV       DPL,R6
        MOV       DPH,R7
        INC       DPTR
        INC       DPTR
        INC       DPTR
        INC       DPTR
        INC       DPTR
        INC       DPTR
        MOVX      A,@DPTR
        MOV       ?V4,A
        MOV       R0,#?V4
        LCALL     ?PUSH_XSTACK_I_ONE
          CFI CFA_XSP16 add(XSP16, 29)
        MOV       ?V4,#0x1
        MOV       R0,#?V4
        LCALL     ?PUSH_XSTACK_I_ONE
          CFI CFA_XSP16 add(XSP16, 30)
        MOV       DPL,?V2
        MOV       DPH,?V3
        MOVX      A,@DPTR
        RRC       A
        RRC       A
        RRC       A
        ANL       A,#0x1f
        XRL       A,#0x1
        ANL       A,#0x1
        MOV       ?V2,A
        MOV       R0,#?V2
        LCALL     ?PUSH_XSTACK_I_ONE
          CFI CFA_XSP16 add(XSP16, 31)
        MOV       A,#0x4
        LCALL     ?XSTACK_DISP100_8
        MOV       ?V2,R0
        MOV       ?V3,R1
        MOV       R0,#?V2
        LCALL     ?PUSH_XSTACK_I_TWO
          CFI CFA_XSP16 add(XSP16, 33)
        MOV       DPL,?V0
        MOV       DPH,?V1
        INC       DPTR
        INC       DPTR
        INC       DPTR
        INC       DPTR
        MOVX      A,@DPTR
        MOV       R4,A
        INC       DPTR
        MOVX      A,@DPTR
        MOV       R5,A
        MOV       A,?V0
        ADD       A,#0x6
        MOV       R2,A
        CLR       A
        ADDC      A,?V1
        MOV       R3,A
        MOV       A,?V0
        ADD       A,#0x14
        MOV       DPL,A
        CLR       A
        ADDC      A,?V1
        MOV       DPH,A
        MOVX      A,@DPTR
        MOV       R1,A
        LCALL     `??zcl_SendDiscoverCmdsRspCmd::?relay`; Banked call to: zcl_SendDiscoverCmdsRspCmd
        MOV       A,#0x5
        LCALL     ?DEALLOC_XSTACK8
          CFI CFA_XSP16 add(XSP16, 28)
        MOV       A,R1
        MOV       R6,A
// 5107 
// 5108   zcl_mem_free( cmdRsp.pCmdID );
        ; Setup parameters for call to function osal_mem_free
        MOV       A,#0x4
        LCALL     ?XSTACK_DISP0_8
        MOVX      A,@DPTR
        MOV       R2,A
        INC       DPTR
        MOVX      A,@DPTR
        MOV       R3,A
        LCALL     `??osal_mem_free::?relay`; Banked call to: osal_mem_free
// 5109 
// 5110   if ( status == ZSuccess )
        MOV       A,R6
        JNZ       ??zclProcessInDiscCmd_3
// 5111   {
// 5112     return TRUE;
        MOV       R1,#0x1
        SJMP      ??zclProcessInDiscCmd_9
// 5113   }
// 5114   else
// 5115   {
// 5116     return FALSE;
??zclProcessInDiscCmd_3:
        MOV       R1,#0x0
??zclProcessInDiscCmd_9:
        MOV       A,#0xa
        LCALL     ?DEALLOC_XSTACK8
          CFI CFA_XSP16 add(XSP16, 18)
        MOV       R7,#0xa
        LJMP      ?BANKED_LEAVE_XDATA
// 5117   }
// 5118 }
          CFI EndBlock cfiBlock81

        RSEG XDATA_ID:CODE:NOROOT(0)
`?<Initializer for zcl_radius>`:
        DATA8
        DB 30

        RSEG BANK_RELAYS:CODE:REORDER:NOROOT(0)
`??zcl_Init::?relay`:
        CODE
        LCALL   ?BDISPATCH
        DATA24
        DC24    zcl_Init

        RSEG BANK_RELAYS:CODE:REORDER:NOROOT(0)
`??zcl_event_loop::?relay`:
        CODE
        LCALL   ?BDISPATCH
        DATA24
        DC24    zcl_event_loop

        RSEG BANK_RELAYS:CODE:REORDER:NOROOT(0)
`??zcl_registerForMsg::?relay`:
        CODE
        LCALL   ?BDISPATCH
        DATA24
        DC24    zcl_registerForMsg

        RSEG BANK_RELAYS:CODE:REORDER:NOROOT(0)
`??zcl_registerForMsgExt::?relay`:
        CODE
        LCALL   ?BDISPATCH
        DATA24
        DC24    zcl_registerForMsgExt

        RSEG BANK_RELAYS:CODE:REORDER:NOROOT(0)
`??zcl_addExternalFoundationHandler::?relay`:
        CODE
        LCALL   ?BDISPATCH
        DATA24
        DC24    zcl_addExternalFoundationHandler

        RSEG BANK_RELAYS:CODE:REORDER:NOROOT(0)
`??zcl_getExternalFoundationHandler::?relay`:
        CODE
        LCALL   ?BDISPATCH
        DATA24
        DC24    zcl_getExternalFoundationHandler

        RSEG BANK_RELAYS:CODE:REORDER:NOROOT(0)
`??zcl_HandleExternal::?relay`:
        CODE
        LCALL   ?BDISPATCH
        DATA24
        DC24    zcl_HandleExternal

        RSEG BANK_RELAYS:CODE:REORDER:NOROOT(0)
`??zcl_getRawAFMsg::?relay`:
        CODE
        LCALL   ?BDISPATCH
        DATA24
        DC24    zcl_getRawAFMsg

        RSEG BANK_RELAYS:CODE:REORDER:NOROOT(0)
`??zcl_getParsedTransSeqNum::?relay`:
        CODE
        LCALL   ?BDISPATCH
        DATA24
        DC24    zcl_getParsedTransSeqNum

        RSEG BANK_RELAYS:CODE:REORDER:NOROOT(0)
`??zcl_registerPlugin::?relay`:
        CODE
        LCALL   ?BDISPATCH
        DATA24
        DC24    zcl_registerPlugin

        RSEG BANK_RELAYS:CODE:REORDER:NOROOT(0)
`??zcl_registerCmdList::?relay`:
        CODE
        LCALL   ?BDISPATCH
        DATA24
        DC24    zcl_registerCmdList

        RSEG BANK_RELAYS:CODE:REORDER:NOROOT(0)
`??zcl_registerAttrList::?relay`:
        CODE
        LCALL   ?BDISPATCH
        DATA24
        DC24    zcl_registerAttrList

        RSEG BANK_RELAYS:CODE:REORDER:NOROOT(0)
`??zcl_registerClusterOptionList::?relay`:
        CODE
        LCALL   ?BDISPATCH
        DATA24
        DC24    zcl_registerClusterOptionList

        RSEG BANK_RELAYS:CODE:REORDER:NOROOT(0)
`??zcl_registerValidateAttrData::?relay`:
        CODE
        LCALL   ?BDISPATCH
        DATA24
        DC24    zcl_registerValidateAttrData

        RSEG BANK_RELAYS:CODE:REORDER:NOROOT(0)
`??zcl_registerReadWriteCB::?relay`:
        CODE
        LCALL   ?BDISPATCH
        DATA24
        DC24    zcl_registerReadWriteCB

        RSEG BANK_RELAYS:CODE:REORDER:NOROOT(0)
`??zcl_DeviceOperational::?relay`:
        CODE
        LCALL   ?BDISPATCH
        DATA24
        DC24    zcl_DeviceOperational

        RSEG BANK_RELAYS:CODE:REORDER:NOROOT(0)
`??zcl_SendCommand::?relay`:
        CODE
        LCALL   ?BDISPATCH
        DATA24
        DC24    zcl_SendCommand

        RSEG BANK_RELAYS:CODE:REORDER:NOROOT(0)
`??zcl_SendRead::?relay`:
        CODE
        LCALL   ?BDISPATCH
        DATA24
        DC24    zcl_SendRead

        RSEG BANK_RELAYS:CODE:REORDER:NOROOT(0)
`??zcl_SendReadRsp::?relay`:
        CODE
        LCALL   ?BDISPATCH
        DATA24
        DC24    zcl_SendReadRsp

        RSEG BANK_RELAYS:CODE:REORDER:NOROOT(0)
`??zcl_SendWriteRequest::?relay`:
        CODE
        LCALL   ?BDISPATCH
        DATA24
        DC24    zcl_SendWriteRequest

        RSEG BANK_RELAYS:CODE:REORDER:NOROOT(0)
`??zcl_SendWriteRsp::?relay`:
        CODE
        LCALL   ?BDISPATCH
        DATA24
        DC24    zcl_SendWriteRsp

        RSEG BANK_RELAYS:CODE:REORDER:NOROOT(0)
`??zcl_SendConfigReportRspCmd::?relay`:
        CODE
        LCALL   ?BDISPATCH
        DATA24
        DC24    zcl_SendConfigReportRspCmd

        RSEG BANK_RELAYS:CODE:REORDER:NOROOT(0)
`??zcl_SendReadReportCfgRspCmd::?relay`:
        CODE
        LCALL   ?BDISPATCH
        DATA24
        DC24    zcl_SendReadReportCfgRspCmd

        RSEG BANK_RELAYS:CODE:REORDER:NOROOT(0)
`??zcl_SendReportCmd::?relay`:
        CODE
        LCALL   ?BDISPATCH
        DATA24
        DC24    zcl_SendReportCmd

        RSEG BANK_RELAYS:CODE:REORDER:NOROOT(0)
`??zcl_SendDefaultRspCmd::?relay`:
        CODE
        LCALL   ?BDISPATCH
        DATA24
        DC24    zcl_SendDefaultRspCmd

        RSEG BANK_RELAYS:CODE:REORDER:NOROOT(0)
`??zcl_SendDiscoverCmdsCmd::?relay`:
        CODE
        LCALL   ?BDISPATCH
        DATA24
        DC24    zcl_SendDiscoverCmdsCmd

        RSEG BANK_RELAYS:CODE:REORDER:NOROOT(0)
`??zcl_SendDiscoverCmdsRspCmd::?relay`:
        CODE
        LCALL   ?BDISPATCH
        DATA24
        DC24    zcl_SendDiscoverCmdsRspCmd

        RSEG BANK_RELAYS:CODE:REORDER:NOROOT(0)
`??zcl_SendDiscoverAttrsCmd::?relay`:
        CODE
        LCALL   ?BDISPATCH
        DATA24
        DC24    zcl_SendDiscoverAttrsCmd

        RSEG BANK_RELAYS:CODE:REORDER:NOROOT(0)
`??zcl_SendDiscoverAttrsRspCmd::?relay`:
        CODE
        LCALL   ?BDISPATCH
        DATA24
        DC24    zcl_SendDiscoverAttrsRspCmd

        RSEG BANK_RELAYS:CODE:REORDER:NOROOT(0)
`??zcl_SendDiscoverAttrsExt::?relay`:
        CODE
        LCALL   ?BDISPATCH
        DATA24
        DC24    zcl_SendDiscoverAttrsExt

        RSEG BANK_RELAYS:CODE:REORDER:NOROOT(0)
`??zcl_SendDiscoverAttrsExtRsp::?relay`:
        CODE
        LCALL   ?BDISPATCH
        DATA24
        DC24    zcl_SendDiscoverAttrsExtRsp

        RSEG BANK_RELAYS:CODE:REORDER:NOROOT(0)
`??zcl_ProcessMessageMSG::?relay`:
        CODE
        LCALL   ?BDISPATCH
        DATA24
        DC24    zcl_ProcessMessageMSG

        RSEG BANK_RELAYS:CODE:REORDER:NOROOT(0)
`??zclParseHdr::?relay`:
        CODE
        LCALL   ?BDISPATCH
        DATA24
        DC24    zclParseHdr

        RSEG BANK_RELAYS:CODE:REORDER:NOROOT(0)
`??zclBuildHdr::?relay`:
        CODE
        LCALL   ?BDISPATCH
        DATA24
        DC24    zclBuildHdr

        RSEG BANK_RELAYS:CODE:REORDER:NOROOT(0)
`??zclCalcHdrSize::?relay`:
        CODE
        LCALL   ?BDISPATCH
        DATA24
        DC24    zclCalcHdrSize

        RSEG BANK_RELAYS:CODE:REORDER:NOROOT(0)
`??zclFindPlugin::?relay`:
        CODE
        LCALL   ?BDISPATCH
        DATA24
        DC24    zclFindPlugin

        RSEG BANK_RELAYS:CODE:REORDER:NOROOT(0)
`??zclFindCmdRecsList::?relay`:
        CODE
        LCALL   ?BDISPATCH
        DATA24
        DC24    zclFindCmdRecsList

        RSEG BANK_RELAYS:CODE:REORDER:NOROOT(0)
`??zclFindCmdRec::?relay`:
        CODE
        LCALL   ?BDISPATCH
        DATA24
        DC24    zclFindCmdRec

        RSEG BANK_RELAYS:CODE:REORDER:NOROOT(0)
`??zclFindAttrRecsList::?relay`:
        CODE
        LCALL   ?BDISPATCH
        DATA24
        DC24    zclFindAttrRecsList

        RSEG BANK_RELAYS:CODE:REORDER:NOROOT(0)
`??zclFindAttrRec::?relay`:
        CODE
        LCALL   ?BDISPATCH
        DATA24
        DC24    zclFindAttrRec

        RSEG BANK_RELAYS:CODE:REORDER:NOROOT(0)
`??zclGetReadWriteCB::?relay`:
        CODE
        LCALL   ?BDISPATCH
        DATA24
        DC24    zclGetReadWriteCB

        RSEG BANK_RELAYS:CODE:REORDER:NOROOT(0)
`??zclGetAuthorizeCB::?relay`:
        CODE
        LCALL   ?BDISPATCH
        DATA24
        DC24    zclGetAuthorizeCB

        RSEG BANK_RELAYS:CODE:REORDER:NOROOT(0)
`??zclFindClusterOption::?relay`:
        CODE
        LCALL   ?BDISPATCH
        DATA24
        DC24    zclFindClusterOption

        RSEG BANK_RELAYS:CODE:REORDER:NOROOT(0)
`??zclGetClusterOption::?relay`:
        CODE
        LCALL   ?BDISPATCH
        DATA24
        DC24    zclGetClusterOption

        RSEG BANK_RELAYS:CODE:REORDER:NOROOT(0)
`??zclSetSecurityOption::?relay`:
        CODE
        LCALL   ?BDISPATCH
        DATA24
        DC24    zclSetSecurityOption

        RSEG BANK_RELAYS:CODE:REORDER:NOROOT(0)
`??zclFindNextCmdRec::?relay`:
        CODE
        LCALL   ?BDISPATCH
        DATA24
        DC24    zclFindNextCmdRec

        RSEG BANK_RELAYS:CODE:REORDER:NOROOT(0)
`??zclFindNextAttrRec::?relay`:
        CODE
        LCALL   ?BDISPATCH
        DATA24
        DC24    zclFindNextAttrRec

        RSEG BANK_RELAYS:CODE:REORDER:NOROOT(0)
`??zclSerializeData::?relay`:
        CODE
        LCALL   ?BDISPATCH
        DATA24
        DC24    zclSerializeData

        RSEG BANK_RELAYS:CODE:REORDER:NOROOT(0)
`??zclAnalogDataType::?relay`:
        CODE
        LCALL   ?BDISPATCH
        DATA24
        DC24    zclAnalogDataType

        RSEG BANK_RELAYS:CODE:REORDER:NOROOT(0)
`??zclIsLittleEndianMachine::?relay`:
        CODE
        LCALL   ?BDISPATCH
        DATA24
        DC24    zclIsLittleEndianMachine

        RSEG BANK_RELAYS:CODE:REORDER:NOROOT(0)
`??zcl_BuildAnalogData::?relay`:
        CODE
        LCALL   ?BDISPATCH
        DATA24
        DC24    zcl_BuildAnalogData

        RSEG BANK_RELAYS:CODE:REORDER:NOROOT(0)
`??zclGetDataTypeLength::?relay`:
        CODE
        LCALL   ?BDISPATCH
        DATA24
        DC24    zclGetDataTypeLength

        RSEG BANK_RELAYS:CODE:REORDER:NOROOT(0)
`??zclGetAttrDataLength::?relay`:
        CODE
        LCALL   ?BDISPATCH
        DATA24
        DC24    zclGetAttrDataLength

        RSEG BANK_RELAYS:CODE:REORDER:NOROOT(0)
`??zclReadAttrData::?relay`:
        CODE
        LCALL   ?BDISPATCH
        DATA24
        DC24    zclReadAttrData

        RSEG BANK_RELAYS:CODE:REORDER:NOROOT(0)
`??zcl_ReadAttrData::?relay`:
        CODE
        LCALL   ?BDISPATCH
        DATA24
        DC24    zcl_ReadAttrData

        RSEG BANK_RELAYS:CODE:REORDER:NOROOT(0)
`??zclGetAttrDataLengthUsingCB::?relay`:
        CODE
        LCALL   ?BDISPATCH
        DATA24
        DC24    zclGetAttrDataLengthUsingCB

        RSEG BANK_RELAYS:CODE:REORDER:NOROOT(0)
`??zclReadAttrDataUsingCB::?relay`:
        CODE
        LCALL   ?BDISPATCH
        DATA24
        DC24    zclReadAttrDataUsingCB

        RSEG BANK_RELAYS:CODE:REORDER:NOROOT(0)
`??zclAuthorizeRead::?relay`:
        CODE
        LCALL   ?BDISPATCH
        DATA24
        DC24    zclAuthorizeRead

        RSEG BANK_RELAYS:CODE:REORDER:NOROOT(0)
`??zclWriteAttrData::?relay`:
        CODE
        LCALL   ?BDISPATCH
        DATA24
        DC24    zclWriteAttrData

        RSEG BANK_RELAYS:CODE:REORDER:NOROOT(0)
`??zclWriteAttrDataUsingCB::?relay`:
        CODE
        LCALL   ?BDISPATCH
        DATA24
        DC24    zclWriteAttrDataUsingCB

        RSEG BANK_RELAYS:CODE:REORDER:NOROOT(0)
`??zclAuthorizeWrite::?relay`:
        CODE
        LCALL   ?BDISPATCH
        DATA24
        DC24    zclAuthorizeWrite

        RSEG BANK_RELAYS:CODE:REORDER:NOROOT(0)
`??zclParseInReadCmd::?relay`:
        CODE
        LCALL   ?BDISPATCH
        DATA24
        DC24    zclParseInReadCmd

        RSEG BANK_RELAYS:CODE:REORDER:NOROOT(0)
`??zclParseInReadRspCmd::?relay`:
        CODE
        LCALL   ?BDISPATCH
        DATA24
        DC24    zclParseInReadRspCmd

        RSEG BANK_RELAYS:CODE:REORDER:NOROOT(0)
`??zclParseInWriteCmd::?relay`:
        CODE
        LCALL   ?BDISPATCH
        DATA24
        DC24    zclParseInWriteCmd

        RSEG BANK_RELAYS:CODE:REORDER:NOROOT(0)
`??zclParseInWriteRspCmd::?relay`:
        CODE
        LCALL   ?BDISPATCH
        DATA24
        DC24    zclParseInWriteRspCmd

        RSEG BANK_RELAYS:CODE:REORDER:NOROOT(0)
`??zclParseInConfigReportCmd::?relay`:
        CODE
        LCALL   ?BDISPATCH
        DATA24
        DC24    zclParseInConfigReportCmd

        RSEG BANK_RELAYS:CODE:REORDER:NOROOT(0)
`??zclParseInReadReportCfgCmd::?relay`:
        CODE
        LCALL   ?BDISPATCH
        DATA24
        DC24    zclParseInReadReportCfgCmd

        RSEG BANK_RELAYS:CODE:REORDER:NOROOT(0)
`??zclParseInReportCmd::?relay`:
        CODE
        LCALL   ?BDISPATCH
        DATA24
        DC24    zclParseInReportCmd

        RSEG BANK_RELAYS:CODE:REORDER:NOROOT(0)
`??zclParseInDefaultRspCmd::?relay`:
        CODE
        LCALL   ?BDISPATCH
        DATA24
        DC24    zclParseInDefaultRspCmd

        RSEG BANK_RELAYS:CODE:REORDER:NOROOT(0)
`??zclParseInDiscAttrsCmd::?relay`:
        CODE
        LCALL   ?BDISPATCH
        DATA24
        DC24    zclParseInDiscAttrsCmd

        RSEG BANK_RELAYS:CODE:REORDER:NOROOT(0)
`??zclParseInDiscAttrsRspCmd::?relay`:
        CODE
        LCALL   ?BDISPATCH
        DATA24
        DC24    zclParseInDiscAttrsRspCmd

        RSEG BANK_RELAYS:CODE:REORDER:NOROOT(0)
`??zclParseInDiscCmdsCmd::?relay`:
        CODE
        LCALL   ?BDISPATCH
        DATA24
        DC24    zclParseInDiscCmdsCmd

        RSEG BANK_RELAYS:CODE:REORDER:NOROOT(0)
`??zclParseInDiscCmdsRspCmd::?relay`:
        CODE
        LCALL   ?BDISPATCH
        DATA24
        DC24    zclParseInDiscCmdsRspCmd

        RSEG BANK_RELAYS:CODE:REORDER:NOROOT(0)
`??zclParseInDiscAttrsExtRspCmd::?relay`:
        CODE
        LCALL   ?BDISPATCH
        DATA24
        DC24    zclParseInDiscAttrsExtRspCmd

        RSEG BANK_RELAYS:CODE:REORDER:NOROOT(0)
`??zclProcessInReadCmd::?relay`:
        CODE
        LCALL   ?BDISPATCH
        DATA24
        DC24    zclProcessInReadCmd

        RSEG BANK_RELAYS:CODE:REORDER:NOROOT(0)
`??zclProcessInWriteCmd::?relay`:
        CODE
        LCALL   ?BDISPATCH
        DATA24
        DC24    zclProcessInWriteCmd

        RSEG BANK_RELAYS:CODE:REORDER:NOROOT(0)
`??zclRevertWriteUndividedCmd::?relay`:
        CODE
        LCALL   ?BDISPATCH
        DATA24
        DC24    zclRevertWriteUndividedCmd

        RSEG BANK_RELAYS:CODE:REORDER:NOROOT(0)
`??zclProcessInWriteUndividedCmd::?relay`:
        CODE
        LCALL   ?BDISPATCH
        DATA24
        DC24    zclProcessInWriteUndividedCmd

        RSEG BANK_RELAYS:CODE:REORDER:NOROOT(0)
`??zclProcessInDiscAttrs::?relay`:
        CODE
        LCALL   ?BDISPATCH
        DATA24
        DC24    zclProcessInDiscAttrs

        RSEG BANK_RELAYS:CODE:REORDER:NOROOT(0)
`??zclProcessInDiscAttrsCmd::?relay`:
        CODE
        LCALL   ?BDISPATCH
        DATA24
        DC24    zclProcessInDiscAttrsCmd

        RSEG BANK_RELAYS:CODE:REORDER:NOROOT(0)
`??zclProcessInDiscAttrsExtCmd::?relay`:
        CODE
        LCALL   ?BDISPATCH
        DATA24
        DC24    zclProcessInDiscAttrsExtCmd

        RSEG BANK_RELAYS:CODE:REORDER:NOROOT(0)
`??zclProcessInDiscCmd::?relay`:
        CODE
        LCALL   ?BDISPATCH
        DATA24
        DC24    zclProcessInDiscCmd

        END
// 5119 
// 5120 #endif // ZCL_DISCOVER
// 5121 
// 5122 
// 5123 /*********************************************************************
// 5124 *********************************************************************/
// 
// 19 033 bytes in segment BANKED_CODE
//    492 bytes in segment BANK_RELAYS
//     92 bytes in segment CODE_C
//      1 byte  in segment XDATA_I
//      1 byte  in segment XDATA_ID
//     17 bytes in segment XDATA_Z
// 
//    585 bytes of CODE     memory
// 19 033 bytes of HUGECODE memory
//     18 bytes of XDATA    memory
//
//Errors: none
//Warnings: none
