///////////////////////////////////////////////////////////////////////////////
//
// IAR C/C++ Compiler V10.30.1.6000 for 8051              21/Jul/2020  00:36:38
// Copyright 2004-2018 IAR Systems AB.
// PC-locked license - IAR Embedded Workbench for 8051
//
//    Core               =  plain
//    Code model         =  banked
//    Data model         =  large
//    Calling convention =  xdata reentrant
//    Constant location  =  data_rom
//    Dptr setup         =  1,16
//                          
//    Source file        =  
//        D:\AA\Z-Stack
//        3.0.2\Projects\zstack\HomeAutomation\SampleTemperatureSensor\Source\zcl_sampletemperaturesensor_data.c
//    Command line       =  
//        -f C:\Users\sunli\AppData\Local\Temp\EW2C05.tmp ("D:\AA\Z-Stack
//        3.0.2\Projects\zstack\HomeAutomation\SampleTemperatureSensor\Source\zcl_sampletemperaturesensor_data.c"
//        -D BDB_REPORTING -D SECURE=1 -D TC_LINKKEY_JOIN -D NV_INIT -D
//        xNV_RESTORE -D xPOWER_SAVING -D NWK_AUTO_POLL -D xZTOOL_P1 -D
//        xMT_TASK -D xMT_APP_FUNC -D xMT_SYS_FUNC -D xMT_ZDO_FUNC -D
//        xMT_APP_CNF_FUNC -D LCD_SUPPORTED=DEBUG -D MULTICAST_ENABLED=FALSE -D
//        ZCL_READ -D ZCL_DISCOVER -D ZCL_WRITE -D ZCL_BASIC -D ZCL_IDENTIFY -D
//        ZCL_TEMPERATURE_MEASUREMENT -D ZCL_GROUPS -D ZCL_ON_OFF -D ZCL_REPORT
//        -D ZCL_REPORT_DESTINATION_DEVICE -lC "D:\AA\Z-Stack
//        3.0.2\Projects\zstack\HomeAutomation\SampleTemperatureSensor\CC2530DB\EndDeviceEB\List"
//        -lA "D:\AA\Z-Stack
//        3.0.2\Projects\zstack\HomeAutomation\SampleTemperatureSensor\CC2530DB\EndDeviceEB\List"
//        --diag_suppress Pe001,Pa010 -o "D:\AA\Z-Stack
//        3.0.2\Projects\zstack\HomeAutomation\SampleTemperatureSensor\CC2530DB\EndDeviceEB\Obj"
//        -e --debug --core=plain --dptr=16,1 --data_model=large
//        --code_model=banked --calling_convention=xdata_reentrant
//        --place_constants=data_rom --nr_virtual_regs 16 -f "D:\AA\Z-Stack
//        3.0.2\Projects\zstack\HomeAutomation\SampleTemperatureSensor\CC2530DB\..\..\..\Tools\CC2530DB\f8wEndev.cfg"
//        (-DCPU32MHZ -DROOT=__near_func -DMAC_CFG_TX_DATA_MAX=3
//        -DMAC_CFG_TX_MAX=6 -DMAC_CFG_RX_MAX=3) -f "D:\AA\Z-Stack
//        3.0.2\Projects\zstack\HomeAutomation\SampleTemperatureSensor\CC2530DB\..\..\..\Tools\CC2530DB\f8wConfig.cfg"
//        (-DZIGBEEPRO -DSECURE=1 -DZG_SECURE_DYNAMIC=0 -DREFLECTOR
//        -DDEFAULT_CHANLIST=0x00000800 -DZDAPP_CONFIG_PAN_ID=0xFFFF
//        -DNWK_START_DELAY=100 -DEXTENDED_JOINING_RANDOM_MASK=0x007F
//        -DBEACON_REQUEST_DELAY=100 -DBEACON_REQ_DELAY_MASK=0x00FF
//        -DLINK_STATUS_JITTER_MASK=0x007F -DROUTE_EXPIRY_TIME=30
//        -DAPSC_ACK_WAIT_DURATION_POLLED=3000 -DNWK_INDIRECT_MSG_TIMEOUT=7
//        -DMAX_RREQ_ENTRIES=8 -DAPSC_MAX_FRAME_RETRIES=3
//        -DNWK_MAX_DATA_RETRIES=2 -DMAX_POLL_FAILURE_RETRIES=2 -DMAX_BCAST=9
//        -DAPS_MAX_GROUPS=16 -DMAX_RTG_ENTRIES=40 -DNWK_MAX_BINDING_ENTRIES=4
//        -DMAX_BINDING_CLUSTER_IDS=4 -DDEFAULT_KEY={0}
//        -DMAC_MAX_FRAME_SIZE=116 -DZDNWKMGR_MIN_TRANSMISSIONS=20
//        "-DCONST=const __code" -DGENERIC=__generic -DRFD_RCVC_ALWAYS_ON=FALSE
//        -DPOLL_RATE=1000 -DQUEUED_POLL_RATE=100 -DRESPONSE_POLL_RATE=100
//        -DREJOIN_POLL_RATE=440 -DREJOIN_BACKOFF=900000 -DREJOIN_SCAN=900000
//        -DENABLE_LED4_DISABLE_S1) -f "D:\AA\Z-Stack
//        3.0.2\Projects\zstack\HomeAutomation\SampleTemperatureSensor\CC2530DB\..\..\..\Tools\CC2530DB\f8wZCL.cfg"
//        -I "D:\AA\Z-Stack
//        3.0.2\Projects\zstack\HomeAutomation\SampleTemperatureSensor\CC2530DB\"
//        -I "D:\AA\Z-Stack
//        3.0.2\Projects\zstack\HomeAutomation\SampleTemperatureSensor\CC2530DB\..\Source\"
//        -I "D:\AA\Z-Stack
//        3.0.2\Projects\zstack\HomeAutomation\SampleTemperatureSensor\CC2530DB\..\..\Source\"
//        -I "D:\AA\Z-Stack
//        3.0.2\Projects\zstack\HomeAutomation\SampleTemperatureSensor\CC2530DB\..\..\..\ZMain\TI2530DB\"
//        -I "D:\AA\Z-Stack
//        3.0.2\Projects\zstack\HomeAutomation\SampleTemperatureSensor\CC2530DB\..\..\..\..\..\Components\hal\include\"
//        -I "D:\AA\Z-Stack
//        3.0.2\Projects\zstack\HomeAutomation\SampleTemperatureSensor\CC2530DB\..\..\..\..\..\Components\hal\target\CC2530EB\"
//        -I "D:\AA\Z-Stack
//        3.0.2\Projects\zstack\HomeAutomation\SampleTemperatureSensor\CC2530DB\..\..\..\..\..\Components\mac\include\"
//        -I "D:\AA\Z-Stack
//        3.0.2\Projects\zstack\HomeAutomation\SampleTemperatureSensor\CC2530DB\..\..\..\..\..\Components\mac\high_level\"
//        -I "D:\AA\Z-Stack
//        3.0.2\Projects\zstack\HomeAutomation\SampleTemperatureSensor\CC2530DB\..\..\..\..\..\Components\mac\low_level\srf04\"
//        -I "D:\AA\Z-Stack
//        3.0.2\Projects\zstack\HomeAutomation\SampleTemperatureSensor\CC2530DB\..\..\..\..\..\Components\mac\low_level\srf04\single_chip\"
//        -I "D:\AA\Z-Stack
//        3.0.2\Projects\zstack\HomeAutomation\SampleTemperatureSensor\CC2530DB\..\..\..\..\..\Components\mt\"
//        -I "D:\AA\Z-Stack
//        3.0.2\Projects\zstack\HomeAutomation\SampleTemperatureSensor\CC2530DB\..\..\..\..\..\Components\osal\include\"
//        -I "D:\AA\Z-Stack
//        3.0.2\Projects\zstack\HomeAutomation\SampleTemperatureSensor\CC2530DB\..\..\..\..\..\Components\services\saddr\"
//        -I "D:\AA\Z-Stack
//        3.0.2\Projects\zstack\HomeAutomation\SampleTemperatureSensor\CC2530DB\..\..\..\..\..\Components\services\sdata\"
//        -I "D:\AA\Z-Stack
//        3.0.2\Projects\zstack\HomeAutomation\SampleTemperatureSensor\CC2530DB\..\..\..\..\..\Components\stack\af\"
//        -I "D:\AA\Z-Stack
//        3.0.2\Projects\zstack\HomeAutomation\SampleTemperatureSensor\CC2530DB\..\..\..\..\..\Components\stack\bdb\"
//        -I "D:\AA\Z-Stack
//        3.0.2\Projects\zstack\HomeAutomation\SampleTemperatureSensor\CC2530DB\..\..\..\..\..\Components\stack\gp\"
//        -I "D:\AA\Z-Stack
//        3.0.2\Projects\zstack\HomeAutomation\SampleTemperatureSensor\CC2530DB\..\..\..\..\..\Components\stack\nwk\"
//        -I "D:\AA\Z-Stack
//        3.0.2\Projects\zstack\HomeAutomation\SampleTemperatureSensor\CC2530DB\..\..\..\..\..\Components\stack\sapi\"
//        -I "D:\AA\Z-Stack
//        3.0.2\Projects\zstack\HomeAutomation\SampleTemperatureSensor\CC2530DB\..\..\..\..\..\Components\stack\sec\"
//        -I "D:\AA\Z-Stack
//        3.0.2\Projects\zstack\HomeAutomation\SampleTemperatureSensor\CC2530DB\..\..\..\..\..\Components\stack\sys\"
//        -I "D:\AA\Z-Stack
//        3.0.2\Projects\zstack\HomeAutomation\SampleTemperatureSensor\CC2530DB\..\..\..\..\..\Components\stack\zcl\"
//        -I "D:\AA\Z-Stack
//        3.0.2\Projects\zstack\HomeAutomation\SampleTemperatureSensor\CC2530DB\..\..\..\..\..\Components\stack\zdo\"
//        -I "D:\AA\Z-Stack
//        3.0.2\Projects\zstack\HomeAutomation\SampleTemperatureSensor\CC2530DB\..\..\..\..\..\Components\zmac\"
//        -I "D:\AA\Z-Stack
//        3.0.2\Projects\zstack\HomeAutomation\SampleTemperatureSensor\CC2530DB\..\..\..\..\..\Components\zmac\f8w\"
//        -Om --require_prototypes --no_unroll --no_inline --no_tbaa
//        --no_cross_call)
//    Locale             =  Chinese (Simplified)_CHN.936
//    List file          =  
//        D:\AA\Z-Stack
//        3.0.2\Projects\zstack\HomeAutomation\SampleTemperatureSensor\CC2530DB\EndDeviceEB\List\zcl_sampletemperaturesensor_data.s51
//
///////////////////////////////////////////////////////////////////////////////

        NAME zcl_sampletemperaturesensor_data

        RTMODEL "__SystemLibrary", "CLib"
        RTMODEL "__calling_convention", "xdata_reentrant"
        RTMODEL "__code_model", "banked"
        RTMODEL "__core", "plain"
        RTMODEL "__data_model", "large"
        RTMODEL "__dptr_size", "16"
        RTMODEL "__extended_stack", "disabled"
        RTMODEL "__location_for_constants", "data"
        RTMODEL "__number_of_dptrs", "1"
        RTMODEL "__register_banks", "*"
        RTMODEL "__rt_version", "1"

        RSEG DOVERLAY:DATA:NOROOT(0)
        RSEG IOVERLAY:IDATA:NOROOT(0)
        RSEG ISTACK:IDATA:NOROOT(0)
        RSEG PSTACK:XDATA:NOROOT(0)
        RSEG XSTACK:XDATA:NOROOT(0)

        EXTERN ?BDISPATCH
        EXTERN ?BRET
        EXTERN __INIT_XDATA_I
        EXTERN __INIT_XDATA_Z

        PUBLIC ??zclSampleTemperatureSensor_ResetAttributesToD
        FUNCTION ??zclSampleTemperatureSensor_ResetAttributesToD,0203H
        PUBLIC Sw_Test
        PUBLIC zclSampleLight_OnOff
        PUBLIC zclSampleTemperatureSensor_Attrs
        PUBLIC zclSampleTemperatureSensor_DateCode
        PUBLIC zclSampleTemperatureSensor_DeviceEnable
        PUBLIC zclSampleTemperatureSensor_HWRevision
        PUBLIC zclSampleTemperatureSensor_IdentifyTime
        PUBLIC zclSampleTemperatureSensor_InClusterList
        PUBLIC zclSampleTemperatureSensor_LocationDescription
        PUBLIC zclSampleTemperatureSensor_ManufacturerName
        PUBLIC zclSampleTemperatureSensor_MaxMeasuredValue
        PUBLIC zclSampleTemperatureSensor_MeasuredValue
        PUBLIC zclSampleTemperatureSensor_MinMeasuredValue
        PUBLIC zclSampleTemperatureSensor_ModelId
        PUBLIC zclSampleTemperatureSensor_NumAttributes
        PUBLIC zclSampleTemperatureSensor_OutClusterList
        PUBLIC zclSampleTemperatureSensor_PhysicalEnvironment
        PUBLIC zclSampleTemperatureSensor_PowerSource
        PUBLIC zclSampleTemperatureSensor_ResetAttributesToDefaultValues
        FUNCTION zclSampleTemperatureSensor_ResetAttributesToDefaultValues,0203H
        ARGFRAME XSTACK, 0, STACK
        LOCFRAME ISTACK, 2, STACK
        PUBLIC zclSampleTemperatureSensor_SimpleDesc
        PUBLIC zclSampleTemperatureSensor_ZCLVersion
        PUBLIC zclSampleTemperatureSensor_clusterRevision_all
        
          CFI Names cfiNames0
          CFI StackFrame CFA_SP SP IDATA
          CFI StackFrame CFA_PSP16 PSP16 XDATA
          CFI StackFrame CFA_XSP16 XSP16 XDATA
          CFI StaticOverlayFrame CFA_IOVERLAY IOVERLAY
          CFI StaticOverlayFrame CFA_DOVERLAY DOVERLAY
          CFI Resource `PSW.CY`:1, `B.BR0`:1, `B.BR1`:1, `B.BR2`:1, `B.BR3`:1
          CFI Resource `B.BR4`:1, `B.BR5`:1, `B.BR6`:1, `B.BR7`:1, `VB.BR8`:1
          CFI Resource `VB.BR9`:1, `VB.BR10`:1, `VB.BR11`:1, `VB.BR12`:1
          CFI Resource `VB.BR13`:1, `VB.BR14`:1, `VB.BR15`:1, VB:8, B:8, A:8
          CFI Resource PSW:8, DPL0:8, DPH0:8, R0:8, R1:8, R2:8, R3:8, R4:8, R5:8
          CFI Resource R6:8, R7:8, V0:8, V1:8, V2:8, V3:8, V4:8, V5:8, V6:8, V7:8
          CFI Resource V8:8, V9:8, V10:8, V11:8, V12:8, V13:8, V14:8, V15:8, SP:8
          CFI Resource PSPH:8, PSPL:8, PSP16:16, XSPH:8, XSPL:8, XSP16:16
          CFI VirtualResource ?RET:24
          CFI Resource ?BRET_EXT:8
          CFI VirtualResource ?RET_HIGH:8, ?RET_LOW:8
          CFI ResourceParts PSP16 PSPH, PSPL
          CFI ResourceParts XSP16 XSPH, XSPL
          CFI ResourceParts ?RET ?BRET_EXT, ?RET_HIGH, ?RET_LOW
          CFI EndNames cfiNames0
        
          CFI Common cfiCommon0 Using cfiNames0
          CFI CodeAlign 1
          CFI DataAlign -1
          CFI ReturnAddress ?RET CODE
          CFI CFA_DOVERLAY Used
          CFI CFA_IOVERLAY Used
          CFI CFA_SP SP+-3
          CFI CFA_PSP16 PSP16+0
          CFI CFA_XSP16 XSP16+0
          CFI `PSW.CY` SameValue
          CFI `B.BR0` SameValue
          CFI `B.BR1` SameValue
          CFI `B.BR2` SameValue
          CFI `B.BR3` SameValue
          CFI `B.BR4` SameValue
          CFI `B.BR5` SameValue
          CFI `B.BR6` SameValue
          CFI `B.BR7` SameValue
          CFI `VB.BR8` SameValue
          CFI `VB.BR9` SameValue
          CFI `VB.BR10` SameValue
          CFI `VB.BR11` SameValue
          CFI `VB.BR12` SameValue
          CFI `VB.BR13` SameValue
          CFI `VB.BR14` SameValue
          CFI `VB.BR15` SameValue
          CFI VB SameValue
          CFI B Undefined
          CFI A Undefined
          CFI PSW SameValue
          CFI DPL0 SameValue
          CFI DPH0 SameValue
          CFI R0 Undefined
          CFI R1 Undefined
          CFI R2 Undefined
          CFI R3 Undefined
          CFI R4 Undefined
          CFI R5 Undefined
          CFI R6 SameValue
          CFI R7 SameValue
          CFI V0 SameValue
          CFI V1 SameValue
          CFI V2 SameValue
          CFI V3 SameValue
          CFI V4 SameValue
          CFI V5 SameValue
          CFI V6 SameValue
          CFI V7 SameValue
          CFI V8 SameValue
          CFI V9 SameValue
          CFI V10 SameValue
          CFI V11 SameValue
          CFI V12 SameValue
          CFI V13 SameValue
          CFI V14 SameValue
          CFI V15 SameValue
          CFI PSPH Undefined
          CFI PSPL Undefined
          CFI XSPH Undefined
          CFI XSPL Undefined
          CFI ?RET Concat
          CFI ?BRET_EXT Frame(CFA_SP, 3)
          CFI ?RET_HIGH Frame(CFA_SP, 2)
          CFI ?RET_LOW Frame(CFA_SP, 1)
          CFI EndCommon cfiCommon0
        
zclSampleTemperatureSensor_ResetAttributesToDefaultValues SYMBOL "zclSampleTemperatureSensor_ResetAttributesToDefaultValues"
??zclSampleTemperatureSensor_ResetAttributesToD SYMBOL "?relay", zclSampleTemperatureSensor_ResetAttributesToDefaultValues

// D:\AA\Z-Stack 3.0.2\Projects\zstack\HomeAutomation\SampleTemperatureSensor\Source\zcl_sampletemperaturesensor_data.c
//    1 /**************************************************************************************************
//    2   Filename:       zcl_sampletemperaturesensor_data.c
//    3   Revised:        $Date: 2014-09-25 13:20:41 -0700 (Thu, 25 Sep 2014) $
//    4   Revision:       $Revision: 40295 $
//    5 
//    6 
//    7   Description:    Zigbee Cluster Library - sample device application.
//    8 
//    9 
//   10   Copyright 2013-2014 Texas Instruments Incorporated. All rights reserved.
//   11 
//   12   IMPORTANT: Your use of this Software is limited to those specific rights
//   13   granted under the terms of a software license agreement between the user
//   14   who downloaded the software, his/her employer (which must be your employer)
//   15   and Texas Instruments Incorporated (the "License").  You may not use this
//   16   Software unless you agree to abide by the terms of the License. The License
//   17   limits your use, and you acknowledge, that the Software may not be modified,
//   18   copied or distributed unless embedded on a Texas Instruments microcontroller
//   19   or used solely and exclusively in conjunction with a Texas Instruments radio
//   20   frequency transceiver, which is integrated into your product.  Other than for
//   21   the foregoing purpose, you may not use, reproduce, copy, prepare derivative
//   22   works of, modify, distribute, perform, display or sell this Software and/or
//   23   its documentation for any purpose.
//   24 
//   25   YOU FURTHER ACKNOWLEDGE AND AGREE THAT THE SOFTWARE AND DOCUMENTATION ARE
//   26   PROVIDED "AS IS" WITHOUT WARRANTY OF ANY KIND, EITHER EXPRESS OR IMPLIED,
//   27   INCLUDING WITHOUT LIMITATION, ANY WARRANTY OF MERCHANTABILITY, TITLE,
//   28   NON-INFRINGEMENT AND FITNESS FOR A PARTICULAR PURPOSE. IN NO EVENT SHALL
//   29   TEXAS INSTRUMENTS OR ITS LICENSORS BE LIABLE OR OBLIGATED UNDER CONTRACT,
//   30   NEGLIGENCE, STRICT LIABILITY, CONTRIBUTION, BREACH OF WARRANTY, OR OTHER
//   31   LEGAL EQUITABLE THEORY ANY DIRECT OR INDIRECT DAMAGES OR EXPENSES
//   32   INCLUDING BUT NOT LIMITED TO ANY INCIDENTAL, SPECIAL, INDIRECT, PUNITIVE
//   33   OR CONSEQUENTIAL DAMAGES, LOST PROFITS OR LOST DATA, COST OF PROCUREMENT
//   34   OF SUBSTITUTE GOODS, TECHNOLOGY, SERVICES, OR ANY CLAIMS BY THIRD PARTIES
//   35   (INCLUDING BUT NOT LIMITED TO ANY DEFENSE THEREOF), OR OTHER SIMILAR COSTS.
//   36 
//   37   Should you have any questions regarding your right to use this Software,
//   38   contact Texas Instruments Incorporated at www.TI.com.
//   39 **************************************************************************************************/
//   40 
//   41 /*********************************************************************
//   42  * INCLUDES
//   43  */
//   44 #include "ZComDef.h"
//   45 #include "OSAL.h"
//   46 #include "AF.h"
//   47 #include "ZDConfig.h"
//   48 
//   49 #include "zcl.h"
//   50 #include "zcl_general.h"
//   51 #include "zcl_ha.h"
//   52 #include "zcl_ms.h"
//   53 
//   54 #include "zcl_sampletemperaturesensor.h"
//   55 
//   56 /*********************************************************************
//   57  * CONSTANTS
//   58  */
//   59 
//   60 #define SAMPLETEMPERATURESENSOR_DEVICE_VERSION     0
//   61 #define SAMPLETEMPERATURESENSOR_FLAGS              0
//   62 
//   63 #define SAMPLETEMPERATURESENSOR_HWVERSION          1
//   64 #define SAMPLETEMPERATURESENSOR_ZCLVERSION         1
//   65 
//   66 #define SAMPLETEMPERATURESENSOR_MAX_MEASURED_VALUE  2700  // 27.00C
//   67 #define SAMPLETEMPERATURESENSOR_MIN_MEASURED_VALUE  1700  // 17.00C
//   68 
//   69 #define SAMPLETEMPERATURESENSOR_MEASURED_VALUE      2000  // 20.00C
//   70 
//   71 /*********************************************************************
//   72  * TYPEDEFS
//   73  */
//   74 
//   75 /*********************************************************************
//   76  * MACROS
//   77  */
//   78 
//   79 /*********************************************************************
//   80  * GLOBAL VARIABLES
//   81  */
//   82 
//   83 // Global attributes

        RSEG XDATA_ROM_C:CONST:REORDER:NOROOT(0)
        DATA16
//   84 const uint16 zclSampleTemperatureSensor_clusterRevision_all = 0x0001; 
zclSampleTemperatureSensor_clusterRevision_all:
        DW 1
//   85 
//   86 // Basic Cluster

        RSEG XDATA_ROM_C:CONST:REORDER:NOROOT(0)
        DATA8
//   87 const uint8 zclSampleTemperatureSensor_HWRevision = SAMPLETEMPERATURESENSOR_HWVERSION;
zclSampleTemperatureSensor_HWRevision:
        DB 1

        RSEG XDATA_ROM_C:CONST:REORDER:NOROOT(0)
        DATA8
//   88 const uint8 zclSampleTemperatureSensor_ZCLVersion = SAMPLETEMPERATURESENSOR_ZCLVERSION;
zclSampleTemperatureSensor_ZCLVersion:
        DB 1

        RSEG XDATA_ROM_C:CONST:REORDER:NOROOT(0)
        DATA8
//   89 const uint8 zclSampleTemperatureSensor_ManufacturerName[] = { 16, 'T','e','x','a','s','I','n','s','t','r','u','m','e','n','t','s' };
zclSampleTemperatureSensor_ManufacturerName:
        DB 16
        DB 84
        DB 101
        DB 120
        DB 97
        DB 115
        DB 73
        DB 110
        DB 115
        DB 116
        DB 114
        DB 117
        DB 109
        DB 101
        DB 110
        DB 116
        DB 115

        RSEG XDATA_ROM_C:CONST:REORDER:NOROOT(0)
        DATA8
//   90 const uint8 zclSampleTemperatureSensor_ModelId[] = { 16, 'T','I','0','0','0','1',' ',' ',' ',' ',' ',' ',' ',' ',' ',' ' };
zclSampleTemperatureSensor_ModelId:
        DB 16
        DB 84
        DB 73
        DB 48
        DB 48
        DB 48
        DB 49
        DB 32
        DB 32
        DB 32
        DB 32
        DB 32
        DB 32
        DB 32
        DB 32
        DB 32
        DB 32

        RSEG XDATA_ROM_C:CONST:REORDER:NOROOT(0)
        DATA8
//   91 const uint8 zclSampleTemperatureSensor_DateCode[] = { 16, '2','0','0','6','0','8','3','1',' ',' ',' ',' ',' ',' ',' ',' ' };
zclSampleTemperatureSensor_DateCode:
        DB 16
        DB 50
        DB 48
        DB 48
        DB 54
        DB 48
        DB 56
        DB 51
        DB 49
        DB 32
        DB 32
        DB 32
        DB 32
        DB 32
        DB 32
        DB 32
        DB 32

        RSEG XDATA_ROM_C:CONST:REORDER:NOROOT(0)
        DATA8
//   92 const uint8 zclSampleTemperatureSensor_PowerSource = POWER_SOURCE_MAINS_1_PHASE;
zclSampleTemperatureSensor_PowerSource:
        DB 1
//   93 

        RSEG XDATA_Z:XDATA:NOROOT(0)
        DATA8
//   94 uint8 zclSampleTemperatureSensor_LocationDescription[17];
zclSampleTemperatureSensor_LocationDescription:
        DS 17
        REQUIRE __INIT_XDATA_Z

        RSEG XDATA_Z:XDATA:NOROOT(0)
        DATA8
//   95 uint8 zclSampleTemperatureSensor_PhysicalEnvironment;
zclSampleTemperatureSensor_PhysicalEnvironment:
        DS 1
        REQUIRE __INIT_XDATA_Z

        RSEG XDATA_Z:XDATA:NOROOT(0)
        DATA8
//   96 uint8 zclSampleTemperatureSensor_DeviceEnable;
zclSampleTemperatureSensor_DeviceEnable:
        DS 1
        REQUIRE __INIT_XDATA_Z
//   97 

        RSEG XDATA_Z:XDATA:NOROOT(0)
        DATA8
//   98 uint8  zclSampleLight_OnOff;
zclSampleLight_OnOff:
        DS 1
        REQUIRE __INIT_XDATA_Z
//   99 
//  100 // Identify Cluster

        RSEG XDATA_Z:XDATA:NOROOT(0)
        DATA16
//  101 uint16 zclSampleTemperatureSensor_IdentifyTime;
zclSampleTemperatureSensor_IdentifyTime:
        DS 2
        REQUIRE __INIT_XDATA_Z
//  102 
//  103 // Temperature Sensor Cluster

        RSEG XDATA_Z:XDATA:NOROOT(0)
        DATA16
//  104 int16 zclSampleTemperatureSensor_MeasuredValue;
zclSampleTemperatureSensor_MeasuredValue:
        DS 2
        REQUIRE __INIT_XDATA_Z

        RSEG XDATA_ROM_C:CONST:REORDER:NOROOT(0)
        DATA16
//  105 const int16 zclSampleTemperatureSensor_MinMeasuredValue = SAMPLETEMPERATURESENSOR_MIN_MEASURED_VALUE; 
zclSampleTemperatureSensor_MinMeasuredValue:
        DW 1700

        RSEG XDATA_ROM_C:CONST:REORDER:NOROOT(0)
        DATA16
//  106 const uint16 zclSampleTemperatureSensor_MaxMeasuredValue = SAMPLETEMPERATURESENSOR_MAX_MEASURED_VALUE;
zclSampleTemperatureSensor_MaxMeasuredValue:
        DW 2700
//  107 
//  108 //TEST

        RSEG XDATA_Z:XDATA:NOROOT(0)
        DATA32
//  109 uint8 Sw_Test[4];
Sw_Test:
        DS 4
        REQUIRE __INIT_XDATA_Z
//  110 /*********************************************************************
//  111  * ATTRIBUTE DEFINITIONS - Uses REAL cluster IDs
//  112  */
//  113 
//  114 // NOTE: The attributes listed in the AttrRec must be in ascending order 
//  115 // per cluster to allow right function of the Foundation discovery commands
//  116 

        RSEG CODE_C:CODE:REORDER:NOROOT(0)
        DATA8
//  117 CONST zclAttrRec_t zclSampleTemperatureSensor_Attrs[] =
zclSampleTemperatureSensor_Attrs:
        DATA16
        DW 0
        DW 0
        DATA8
        DB 32
        DB 1
        DATA16
        DW zclSampleTemperatureSensor_ZCLVersion
        DW 0
        DW 3
        DATA8
        DB 32
        DB 1
        DATA16
        DW zclSampleTemperatureSensor_HWRevision
        DW 0
        DW 4
        DATA8
        DB 66
        DB 1
        DATA16
        DW zclSampleTemperatureSensor_ManufacturerName
        DW 0
        DW 5
        DATA8
        DB 66
        DB 1
        DATA16
        DW zclSampleTemperatureSensor_ModelId
        DW 0
        DW 6
        DATA8
        DB 66
        DB 1
        DATA16
        DW zclSampleTemperatureSensor_DateCode
        DW 0
        DW 7
        DATA8
        DB 48
        DB 1
        DATA16
        DW zclSampleTemperatureSensor_PowerSource
        DW 0
        DW 16
        DATA8
        DB 66
        DB 3
        DATA16
        DW zclSampleTemperatureSensor_LocationDescription
        DW 0
        DW 17
        DATA8
        DB 48
        DB 3
        DATA16
        DW zclSampleTemperatureSensor_PhysicalEnvironment
        DW 0
        DW 18
        DATA8
        DB 16
        DB 3
        DATA16
        DW zclSampleTemperatureSensor_DeviceEnable
        DW 0
        DW 65533
        DATA8
        DB 33
        DB 1
        DATA16
        DW zclSampleTemperatureSensor_clusterRevision_all
        DW 3
        DW 0
        DATA8
        DB 33
        DB 3
        DATA16
        DW zclSampleTemperatureSensor_IdentifyTime
        DW 3
        DW 65533
        DATA8
        DB 33
        DB 65
        DATA16
        DW zclSampleTemperatureSensor_clusterRevision_all
        DW 1026
        DW 0
        DATA8
        DB 41
        DB 5
        DATA16
        DW zclSampleTemperatureSensor_MeasuredValue
        DW 1026
        DW 1
        DATA8
        DB 41
        DB 1
        DATA16
        DW zclSampleTemperatureSensor_MinMeasuredValue
        DW 1026
        DW 2
        DATA8
        DB 41
        DB 1
        DATA16
        DW zclSampleTemperatureSensor_MaxMeasuredValue
        DW 1026
        DW 65533
        DATA8
        DB 33
        DB 1
        DATA16
        DW zclSampleTemperatureSensor_clusterRevision_all
        DW 7
        DW 4
        DATA8
        DB 35
        DB 5
        DATA16
        DW Sw_Test
        DW 6
        DW 0
        DATA8
        DB 16
        DB 5
        DATA16
        DW zclSampleLight_OnOff
//  118 {
//  119   // *** General Basic Cluster Attributes ***
//  120   {
//  121     ZCL_CLUSTER_ID_GEN_BASIC,
//  122     { // Attribute record
//  123       ATTRID_BASIC_ZCL_VERSION,
//  124       ZCL_DATATYPE_UINT8,
//  125       ACCESS_CONTROL_READ,
//  126       (void *)&zclSampleTemperatureSensor_ZCLVersion
//  127     }
//  128   },
//  129   {
//  130     ZCL_CLUSTER_ID_GEN_BASIC,             // Cluster IDs - defined in the foundation (ie. zcl.h)
//  131     {  // Attribute record
//  132       ATTRID_BASIC_HW_VERSION,            // Attribute ID - Found in Cluster Library header (ie. zcl_general.h)
//  133       ZCL_DATATYPE_UINT8,                 // Data Type - found in zcl.h
//  134       ACCESS_CONTROL_READ,                // Variable access control - found in zcl.h
//  135       (void *)&zclSampleTemperatureSensor_HWRevision  // Pointer to attribute variable
//  136     }
//  137   },
//  138   {
//  139     ZCL_CLUSTER_ID_GEN_BASIC,
//  140     { // Attribute record
//  141       ATTRID_BASIC_MANUFACTURER_NAME,
//  142       ZCL_DATATYPE_CHAR_STR,
//  143       ACCESS_CONTROL_READ,
//  144       (void *)zclSampleTemperatureSensor_ManufacturerName
//  145     }
//  146   },
//  147   {
//  148     ZCL_CLUSTER_ID_GEN_BASIC,
//  149     { // Attribute record
//  150       ATTRID_BASIC_MODEL_ID,
//  151       ZCL_DATATYPE_CHAR_STR,
//  152       ACCESS_CONTROL_READ,
//  153       (void *)zclSampleTemperatureSensor_ModelId
//  154     }
//  155   },
//  156   {
//  157     ZCL_CLUSTER_ID_GEN_BASIC,
//  158     { // Attribute record
//  159       ATTRID_BASIC_DATE_CODE,
//  160       ZCL_DATATYPE_CHAR_STR,
//  161       ACCESS_CONTROL_READ,
//  162       (void *)zclSampleTemperatureSensor_DateCode
//  163     }
//  164   },
//  165   {
//  166     ZCL_CLUSTER_ID_GEN_BASIC,
//  167     { // Attribute record
//  168       ATTRID_BASIC_POWER_SOURCE,
//  169       ZCL_DATATYPE_ENUM8,
//  170       ACCESS_CONTROL_READ,
//  171       (void *)&zclSampleTemperatureSensor_PowerSource
//  172     }
//  173   },
//  174   {
//  175     ZCL_CLUSTER_ID_GEN_BASIC,
//  176     { // Attribute record
//  177       ATTRID_BASIC_LOCATION_DESC,
//  178       ZCL_DATATYPE_CHAR_STR,
//  179       (ACCESS_CONTROL_READ | ACCESS_CONTROL_WRITE),
//  180       (void *)zclSampleTemperatureSensor_LocationDescription
//  181     }
//  182   },
//  183   {
//  184     ZCL_CLUSTER_ID_GEN_BASIC,
//  185     { // Attribute record
//  186       ATTRID_BASIC_PHYSICAL_ENV,
//  187       ZCL_DATATYPE_ENUM8,
//  188       (ACCESS_CONTROL_READ | ACCESS_CONTROL_WRITE),
//  189       (void *)&zclSampleTemperatureSensor_PhysicalEnvironment
//  190     }
//  191   },
//  192   {
//  193     ZCL_CLUSTER_ID_GEN_BASIC,
//  194     { // Attribute record
//  195       ATTRID_BASIC_DEVICE_ENABLED,
//  196       ZCL_DATATYPE_BOOLEAN,
//  197       (ACCESS_CONTROL_READ | ACCESS_CONTROL_WRITE),
//  198       (void *)&zclSampleTemperatureSensor_DeviceEnable
//  199     }
//  200   },
//  201   {
//  202     ZCL_CLUSTER_ID_GEN_BASIC,
//  203     {  // Attribute record
//  204       ATTRID_CLUSTER_REVISION,
//  205       ZCL_DATATYPE_UINT16,
//  206       ACCESS_CONTROL_READ,
//  207       (void *)&zclSampleTemperatureSensor_clusterRevision_all
//  208     }
//  209   },
//  210   // *** Identify Cluster Attribute ***
//  211   {
//  212     ZCL_CLUSTER_ID_GEN_IDENTIFY,
//  213     { // Attribute record
//  214       ATTRID_IDENTIFY_TIME,
//  215       ZCL_DATATYPE_UINT16,
//  216       (ACCESS_CONTROL_READ | ACCESS_CONTROL_WRITE),
//  217       (void *)&zclSampleTemperatureSensor_IdentifyTime
//  218     }
//  219   },
//  220   {
//  221     ZCL_CLUSTER_ID_GEN_IDENTIFY,
//  222     {  // Attribute record
//  223       ATTRID_CLUSTER_REVISION,
//  224       ZCL_DATATYPE_UINT16,
//  225       ACCESS_CONTROL_READ | ACCESS_GLOBAL,
//  226       (void *)&zclSampleTemperatureSensor_clusterRevision_all
//  227     }
//  228   },
//  229 
//  230   // *** Temperature Measurement Attriubtes ***
//  231   {
//  232     ZCL_CLUSTER_ID_MS_TEMPERATURE_MEASUREMENT,
//  233     { // Attribute record
//  234       ATTRID_MS_TEMPERATURE_MEASURED_VALUE,
//  235       ZCL_DATATYPE_INT16,
//  236       ACCESS_CONTROL_READ | ACCESS_REPORTABLE,
//  237       (void *)&zclSampleTemperatureSensor_MeasuredValue
//  238     }
//  239   },
//  240   {
//  241     ZCL_CLUSTER_ID_MS_TEMPERATURE_MEASUREMENT,
//  242     { // Attribute record
//  243       ATTRID_MS_TEMPERATURE_MIN_MEASURED_VALUE,
//  244       ZCL_DATATYPE_INT16,
//  245       ACCESS_CONTROL_READ,
//  246       (void *)&zclSampleTemperatureSensor_MinMeasuredValue
//  247     }
//  248   },
//  249   {
//  250     ZCL_CLUSTER_ID_MS_TEMPERATURE_MEASUREMENT,
//  251     { // Attribute record
//  252       ATTRID_MS_TEMPERATURE_MAX_MEASURED_VALUE,
//  253       ZCL_DATATYPE_INT16,
//  254       ACCESS_CONTROL_READ,
//  255       (void *)&zclSampleTemperatureSensor_MaxMeasuredValue
//  256     }
//  257   },
//  258 
//  259   {
//  260     ZCL_CLUSTER_ID_MS_TEMPERATURE_MEASUREMENT,
//  261     {  // Attribute record
//  262       ATTRID_CLUSTER_REVISION,
//  263       ZCL_DATATYPE_UINT16,
//  264       ACCESS_CONTROL_READ,
//  265       (void *)&zclSampleTemperatureSensor_clusterRevision_all
//  266     }
//  267   },
//  268   //test
//  269   {
//  270     //ZCL_CLUSTER_ID_MS_TEMPERATURE_MEASUREMENT,
//  271     ZCL_CLUSTER_ID_GEN_ON_OFF_SWITCH_CONFIG,
//  272     {  // 
//  273       TEST,
//  274       ZCL_DATATYPE_UINT32,
//  275       ACCESS_CONTROL_READ | ACCESS_REPORTABLE,
//  276       (void *)&Sw_Test
//  277     }
//  278   },
//  279   {
//  280     ZCL_CLUSTER_ID_GEN_ON_OFF,
//  281     { // Attribute record
//  282       ATTRID_ON_OFF,
//  283       ZCL_DATATYPE_BOOLEAN,
//  284       ACCESS_CONTROL_READ | ACCESS_REPORTABLE,
//  285       (void *)&zclSampleLight_OnOff
//  286     }
//  287   },
//  288 };
//  289 

        RSEG CODE_C:CODE:REORDER:NOROOT(0)
        DATA8
//  290 uint8 CONST zclSampleTemperatureSensor_NumAttributes = ( sizeof(zclSampleTemperatureSensor_Attrs) / sizeof(zclSampleTemperatureSensor_Attrs[0]) );
zclSampleTemperatureSensor_NumAttributes:
        DB 18
//  291 
//  292 /*********************************************************************
//  293  * SIMPLE DESCRIPTOR
//  294  */
//  295 // This is the Cluster ID List and should be filled with Application
//  296 // specific cluster IDs.
//  297 #define ZCLSAMPLETEMPERATURESENSOR_MAX_INCLUSTERS       5

        RSEG XDATA_ROM_C:CONST:REORDER:NOROOT(0)
        DATA8
//  298 const cId_t zclSampleTemperatureSensor_InClusterList[ZCLSAMPLETEMPERATURESENSOR_MAX_INCLUSTERS] =
zclSampleTemperatureSensor_InClusterList:
        DATA16
        DW 0
        DW 3
        DW 1026
        DW 7
        DW 6
//  299 {
//  300   ZCL_CLUSTER_ID_GEN_BASIC,
//  301   ZCL_CLUSTER_ID_GEN_IDENTIFY,
//  302   ZCL_CLUSTER_ID_MS_TEMPERATURE_MEASUREMENT,
//  303   ZCL_CLUSTER_ID_GEN_ON_OFF_SWITCH_CONFIG,
//  304   ZCL_CLUSTER_ID_GEN_ON_OFF
//  305 };
//  306 
//  307 #define ZCLSAMPLETEMPERATURESENSOR_MAX_OUTCLUSTERS       4

        RSEG XDATA_ROM_C:CONST:REORDER:NOROOT(0)
        DATA8
//  308 const cId_t zclSampleTemperatureSensor_OutClusterList[ZCLSAMPLETEMPERATURESENSOR_MAX_OUTCLUSTERS] =
zclSampleTemperatureSensor_OutClusterList:
        DATA16
        DW 3
        DW 1026
        DW 7
        DW 6
//  309 {
//  310   ZCL_CLUSTER_ID_GEN_IDENTIFY,
//  311   ZCL_CLUSTER_ID_MS_TEMPERATURE_MEASUREMENT,
//  312   ZCL_CLUSTER_ID_GEN_ON_OFF_SWITCH_CONFIG,
//  313   ZCL_CLUSTER_ID_GEN_ON_OFF
//  314 };
//  315 

        RSEG XDATA_I:XDATA:NOROOT(0)
//  316 SimpleDescriptionFormat_t zclSampleTemperatureSensor_SimpleDesc =
zclSampleTemperatureSensor_SimpleDesc:
        DATA8
        DS 12
        REQUIRE `?<Initializer for zclSampleTemperatureSensor_S`
        REQUIRE __INIT_XDATA_I
//  317 {
//  318   SAMPLETEMPERATURESENSOR_ENDPOINT,                  //  int Endpoint;
//  319   ZCL_HA_PROFILE_ID,                                 //  uint16 AppProfId[2];
//  320   ZCL_HA_DEVICEID_TEMPERATURE_SENSOR,                //  uint16 AppDeviceId[2];
//  321   SAMPLETEMPERATURESENSOR_DEVICE_VERSION,            //  int   AppDevVer:4;
//  322   SAMPLETEMPERATURESENSOR_FLAGS,                     //  int   AppFlags:4;
//  323   ZCLSAMPLETEMPERATURESENSOR_MAX_INCLUSTERS,         //  byte  AppNumInClusters;
//  324   (cId_t *)zclSampleTemperatureSensor_InClusterList, //  byte *pAppInClusterList;
//  325   ZCLSAMPLETEMPERATURESENSOR_MAX_OUTCLUSTERS,        //  byte  AppNumInClusters;
//  326   (cId_t *)zclSampleTemperatureSensor_OutClusterList //  byte *pAppInClusterList;
//  327 };
//  328  
//  329 /*********************************************************************
//  330  * GLOBAL FUNCTIONS
//  331  */
//  332 
//  333 /*********************************************************************
//  334  * LOCAL FUNCTIONS
//  335  */
//  336 
//  337 /*********************************************************************
//  338  * @fn      zclSampleLight_ResetAttributesToDefaultValues
//  339  *
//  340  * @brief   Reset all writable attributes to their default values.
//  341  *
//  342  * @param   none
//  343  *
//  344  * @return  none
//  345  */

        RSEG BANKED_CODE:HUGECODE:NOROOT(0)
//  346 void zclSampleTemperatureSensor_ResetAttributesToDefaultValues(void)
zclSampleTemperatureSensor_ResetAttributesToDefaultValues:
          CFI Block cfiBlock0 Using cfiCommon0
          CFI Function zclSampleTemperatureSensor_ResetAttributesToDefaultValues
        CODE
//  347 {
        PUSH      DPL
          CFI DPL0 Frame(CFA_SP, 4)
          CFI CFA_SP SP+-4
        PUSH      DPH
          CFI DPH0 Frame(CFA_SP, 5)
          CFI CFA_SP SP+-5
        ; Saved register size: 2
        ; Auto size: 0
//  348   int i;
//  349   
//  350   zclSampleTemperatureSensor_LocationDescription[0] = 16;
        MOV       DPTR,#zclSampleTemperatureSensor_LocationDescription
        MOV       A,#0x10
        MOVX      @DPTR,A
//  351   for (i = 1; i <= 16; i++)
        MOV       R0,#0x1
        MOV       R1,#0x0
        SJMP      ??zclSampleTemperatureSensor_ResetAttributesToD_1
//  352   {
//  353     zclSampleTemperatureSensor_LocationDescription[i] = ' ';
??zclSampleTemperatureSensor_ResetAttributesToD_2:
        MOV       A,#zclSampleTemperatureSensor_LocationDescription & 0xff
        ADD       A,R0
        MOV       DPL,A
        MOV       A,#(zclSampleTemperatureSensor_LocationDescription >> 8) & 0xff
        ADDC      A,R1
        MOV       DPH,A
        MOV       A,#0x20
        MOVX      @DPTR,A
//  354   }
        INC       R0
        MOV       A,R0
        JNZ       ??zclSampleTemperatureSensor_ResetAttributesToD_1
        INC       R1
??zclSampleTemperatureSensor_ResetAttributesToD_1:
        CLR       C
        MOV       A,R0
        SUBB      A,#0x11
        MOV       A,R1
        SUBB      A,#0x0
        MOV       C,0xD0 /* PSW */.2
        XRL       A,PSW
        RLC       A
        JC        ??zclSampleTemperatureSensor_ResetAttributesToD_2
//  355   
//  356   zclSampleTemperatureSensor_PhysicalEnvironment = PHY_UNSPECIFIED_ENV;
        MOV       DPTR,#zclSampleTemperatureSensor_PhysicalEnvironment
        CLR       A
        MOVX      @DPTR,A
//  357   zclSampleTemperatureSensor_DeviceEnable = DEVICE_ENABLED;
        MOV       DPTR,#zclSampleTemperatureSensor_DeviceEnable
        INC       A
        MOVX      @DPTR,A
//  358   
//  359 #ifdef ZCL_IDENTIFY
//  360   zclSampleTemperatureSensor_IdentifyTime = 0;
        MOV       DPTR,#zclSampleTemperatureSensor_IdentifyTime
        CLR       A
        MOVX      @DPTR,A
        INC       DPTR
        MOVX      @DPTR,A
//  361 #endif
//  362   
//  363   zclSampleTemperatureSensor_MeasuredValue = SAMPLETEMPERATURESENSOR_MEASURED_VALUE;
        MOV       DPTR,#zclSampleTemperatureSensor_MeasuredValue
        MOV       A,#-0x30
        MOVX      @DPTR,A
        INC       DPTR
        MOV       A,#0x7
        MOVX      @DPTR,A
//  364   Sw_Test[0] = 10;
        MOV       DPTR,#Sw_Test
        MOV       A,#0xa
        MOVX      @DPTR,A
//  365   Sw_Test[1] = 0;
        INC       DPTR
        CLR       A
        MOVX      @DPTR,A
//  366   Sw_Test[2] = 15;
        INC       DPTR
        MOV       A,#0xf
        MOVX      @DPTR,A
//  367   Sw_Test[3] = 20;
        INC       DPTR
        MOV       A,#0x14
        MOVX      @DPTR,A
//  368  // Sw_Test[2] = 0;
//  369   zclSampleLight_OnOff = 0;
        MOV       DPTR,#zclSampleLight_OnOff
        CLR       A
        MOVX      @DPTR,A
//  370 }
        POP       DPH
          CFI DPH0 SameValue
          CFI CFA_SP SP+-4
        POP       DPL
          CFI DPL0 SameValue
          CFI CFA_SP SP+-3
        LJMP      ?BRET
          CFI EndBlock cfiBlock0

        RSEG XDATA_ID:CODE:NOROOT(0)
`?<Initializer for zclSampleTemperatureSensor_S`:
        DATA8
        DB 8
        DATA16
        DW 260
        DW 770
        DATA8
        DB 0
        DB 5
        DATA16
        DW zclSampleTemperatureSensor_InClusterList
        DATA8
        DB 4
        DATA16
        DW zclSampleTemperatureSensor_OutClusterList

        RSEG BANK_RELAYS:CODE:REORDER:NOROOT(0)
??zclSampleTemperatureSensor_ResetAttributesToD:
        CODE
        LCALL   ?BDISPATCH
        DATA24
        DC24    zclSampleTemperatureSensor_ResetAttributesToDefaultValues

        END
//  371 
//  372 /****************************************************************************
//  373 ****************************************************************************/
//  374 
//  375 
// 
// 104 bytes in segment BANKED_CODE
//   6 bytes in segment BANK_RELAYS
// 145 bytes in segment CODE_C
//  12 bytes in segment XDATA_I
//  12 bytes in segment XDATA_ID
//  78 bytes in segment XDATA_ROM_C
//  28 bytes in segment XDATA_Z
// 
// 163 bytes of CODE     memory
//  78 bytes of CONST    memory
// 104 bytes of HUGECODE memory
//  40 bytes of XDATA    memory
//
//Errors: none
//Warnings: none
