###############################################################################
#
# IAR C/C++ Compiler V10.30.1.6000 for 8051               21/Jul/2020  00:36:40
# Copyright 2004-2018 IAR Systems AB.
# PC-locked license - IAR Embedded Workbench for 8051
#
#    Core               =  plain
#    Code model         =  banked
#    Data model         =  large
#    Calling convention =  xdata reentrant
#    Constant location  =  data_rom
#    Dptr setup         =  1,16
#                          
#    Source file        =  D:\AA\Z-Stack 3.0.2\Components\stack\zdo\ZDObject.c
#    Command line       =  
#        -f C:\Users\sunli\AppData\Local\Temp\EW2E49.tmp ("D:\AA\Z-Stack
#        3.0.2\Components\stack\zdo\ZDObject.c" -D BDB_REPORTING -D SECURE=1 -D
#        TC_LINKKEY_JOIN -D NV_INIT -D xNV_RESTORE -D xPOWER_SAVING -D
#        NWK_AUTO_POLL -D xZTOOL_P1 -D xMT_TASK -D xMT_APP_FUNC -D xMT_SYS_FUNC
#        -D xMT_ZDO_FUNC -D xMT_APP_CNF_FUNC -D LCD_SUPPORTED=DEBUG -D
#        MULTICAST_ENABLED=FALSE -D ZCL_READ -D ZCL_DISCOVER -D ZCL_WRITE -D
#        ZCL_BASIC -D ZCL_IDENTIFY -D ZCL_TEMPERATURE_MEASUREMENT -D ZCL_GROUPS
#        -D ZCL_ON_OFF -D ZCL_REPORT -D ZCL_REPORT_DESTINATION_DEVICE -lC
#        "D:\AA\Z-Stack
#        3.0.2\Projects\zstack\HomeAutomation\SampleTemperatureSensor\CC2530DB\EndDeviceEB\List"
#        -lA "D:\AA\Z-Stack
#        3.0.2\Projects\zstack\HomeAutomation\SampleTemperatureSensor\CC2530DB\EndDeviceEB\List"
#        --diag_suppress Pe001,Pa010 -o "D:\AA\Z-Stack
#        3.0.2\Projects\zstack\HomeAutomation\SampleTemperatureSensor\CC2530DB\EndDeviceEB\Obj"
#        -e --debug --core=plain --dptr=16,1 --data_model=large
#        --code_model=banked --calling_convention=xdata_reentrant
#        --place_constants=data_rom --nr_virtual_regs 16 -f "D:\AA\Z-Stack
#        3.0.2\Projects\zstack\HomeAutomation\SampleTemperatureSensor\CC2530DB\..\..\..\Tools\CC2530DB\f8wEndev.cfg"
#        (-DCPU32MHZ -DROOT=__near_func -DMAC_CFG_TX_DATA_MAX=3
#        -DMAC_CFG_TX_MAX=6 -DMAC_CFG_RX_MAX=3) -f "D:\AA\Z-Stack
#        3.0.2\Projects\zstack\HomeAutomation\SampleTemperatureSensor\CC2530DB\..\..\..\Tools\CC2530DB\f8wConfig.cfg"
#        (-DZIGBEEPRO -DSECURE=1 -DZG_SECURE_DYNAMIC=0 -DREFLECTOR
#        -DDEFAULT_CHANLIST=0x00000800 -DZDAPP_CONFIG_PAN_ID=0xFFFF
#        -DNWK_START_DELAY=100 -DEXTENDED_JOINING_RANDOM_MASK=0x007F
#        -DBEACON_REQUEST_DELAY=100 -DBEACON_REQ_DELAY_MASK=0x00FF
#        -DLINK_STATUS_JITTER_MASK=0x007F -DROUTE_EXPIRY_TIME=30
#        -DAPSC_ACK_WAIT_DURATION_POLLED=3000 -DNWK_INDIRECT_MSG_TIMEOUT=7
#        -DMAX_RREQ_ENTRIES=8 -DAPSC_MAX_FRAME_RETRIES=3
#        -DNWK_MAX_DATA_RETRIES=2 -DMAX_POLL_FAILURE_RETRIES=2 -DMAX_BCAST=9
#        -DAPS_MAX_GROUPS=16 -DMAX_RTG_ENTRIES=40 -DNWK_MAX_BINDING_ENTRIES=4
#        -DMAX_BINDING_CLUSTER_IDS=4 -DDEFAULT_KEY={0} -DMAC_MAX_FRAME_SIZE=116
#        -DZDNWKMGR_MIN_TRANSMISSIONS=20 "-DCONST=const __code"
#        -DGENERIC=__generic -DRFD_RCVC_ALWAYS_ON=FALSE -DPOLL_RATE=1000
#        -DQUEUED_POLL_RATE=100 -DRESPONSE_POLL_RATE=100 -DREJOIN_POLL_RATE=440
#        -DREJOIN_BACKOFF=900000 -DREJOIN_SCAN=900000 -DENABLE_LED4_DISABLE_S1)
#        -f "D:\AA\Z-Stack
#        3.0.2\Projects\zstack\HomeAutomation\SampleTemperatureSensor\CC2530DB\..\..\..\Tools\CC2530DB\f8wZCL.cfg"
#        -I "D:\AA\Z-Stack
#        3.0.2\Projects\zstack\HomeAutomation\SampleTemperatureSensor\CC2530DB\"
#        -I "D:\AA\Z-Stack
#        3.0.2\Projects\zstack\HomeAutomation\SampleTemperatureSensor\CC2530DB\..\Source\"
#        -I "D:\AA\Z-Stack
#        3.0.2\Projects\zstack\HomeAutomation\SampleTemperatureSensor\CC2530DB\..\..\Source\"
#        -I "D:\AA\Z-Stack
#        3.0.2\Projects\zstack\HomeAutomation\SampleTemperatureSensor\CC2530DB\..\..\..\ZMain\TI2530DB\"
#        -I "D:\AA\Z-Stack
#        3.0.2\Projects\zstack\HomeAutomation\SampleTemperatureSensor\CC2530DB\..\..\..\..\..\Components\hal\include\"
#        -I "D:\AA\Z-Stack
#        3.0.2\Projects\zstack\HomeAutomation\SampleTemperatureSensor\CC2530DB\..\..\..\..\..\Components\hal\target\CC2530EB\"
#        -I "D:\AA\Z-Stack
#        3.0.2\Projects\zstack\HomeAutomation\SampleTemperatureSensor\CC2530DB\..\..\..\..\..\Components\mac\include\"
#        -I "D:\AA\Z-Stack
#        3.0.2\Projects\zstack\HomeAutomation\SampleTemperatureSensor\CC2530DB\..\..\..\..\..\Components\mac\high_level\"
#        -I "D:\AA\Z-Stack
#        3.0.2\Projects\zstack\HomeAutomation\SampleTemperatureSensor\CC2530DB\..\..\..\..\..\Components\mac\low_level\srf04\"
#        -I "D:\AA\Z-Stack
#        3.0.2\Projects\zstack\HomeAutomation\SampleTemperatureSensor\CC2530DB\..\..\..\..\..\Components\mac\low_level\srf04\single_chip\"
#        -I "D:\AA\Z-Stack
#        3.0.2\Projects\zstack\HomeAutomation\SampleTemperatureSensor\CC2530DB\..\..\..\..\..\Components\mt\"
#        -I "D:\AA\Z-Stack
#        3.0.2\Projects\zstack\HomeAutomation\SampleTemperatureSensor\CC2530DB\..\..\..\..\..\Components\osal\include\"
#        -I "D:\AA\Z-Stack
#        3.0.2\Projects\zstack\HomeAutomation\SampleTemperatureSensor\CC2530DB\..\..\..\..\..\Components\services\saddr\"
#        -I "D:\AA\Z-Stack
#        3.0.2\Projects\zstack\HomeAutomation\SampleTemperatureSensor\CC2530DB\..\..\..\..\..\Components\services\sdata\"
#        -I "D:\AA\Z-Stack
#        3.0.2\Projects\zstack\HomeAutomation\SampleTemperatureSensor\CC2530DB\..\..\..\..\..\Components\stack\af\"
#        -I "D:\AA\Z-Stack
#        3.0.2\Projects\zstack\HomeAutomation\SampleTemperatureSensor\CC2530DB\..\..\..\..\..\Components\stack\bdb\"
#        -I "D:\AA\Z-Stack
#        3.0.2\Projects\zstack\HomeAutomation\SampleTemperatureSensor\CC2530DB\..\..\..\..\..\Components\stack\gp\"
#        -I "D:\AA\Z-Stack
#        3.0.2\Projects\zstack\HomeAutomation\SampleTemperatureSensor\CC2530DB\..\..\..\..\..\Components\stack\nwk\"
#        -I "D:\AA\Z-Stack
#        3.0.2\Projects\zstack\HomeAutomation\SampleTemperatureSensor\CC2530DB\..\..\..\..\..\Components\stack\sapi\"
#        -I "D:\AA\Z-Stack
#        3.0.2\Projects\zstack\HomeAutomation\SampleTemperatureSensor\CC2530DB\..\..\..\..\..\Components\stack\sec\"
#        -I "D:\AA\Z-Stack
#        3.0.2\Projects\zstack\HomeAutomation\SampleTemperatureSensor\CC2530DB\..\..\..\..\..\Components\stack\sys\"
#        -I "D:\AA\Z-Stack
#        3.0.2\Projects\zstack\HomeAutomation\SampleTemperatureSensor\CC2530DB\..\..\..\..\..\Components\stack\zcl\"
#        -I "D:\AA\Z-Stack
#        3.0.2\Projects\zstack\HomeAutomation\SampleTemperatureSensor\CC2530DB\..\..\..\..\..\Components\stack\zdo\"
#        -I "D:\AA\Z-Stack
#        3.0.2\Projects\zstack\HomeAutomation\SampleTemperatureSensor\CC2530DB\..\..\..\..\..\Components\zmac\"
#        -I "D:\AA\Z-Stack
#        3.0.2\Projects\zstack\HomeAutomation\SampleTemperatureSensor\CC2530DB\..\..\..\..\..\Components\zmac\f8w\"
#        -Om --require_prototypes --no_unroll --no_inline --no_tbaa
#        --no_cross_call)
#    Locale             =  Chinese (Simplified)_CHN.936
#    List file          =  
#        D:\AA\Z-Stack
#        3.0.2\Projects\zstack\HomeAutomation\SampleTemperatureSensor\CC2530DB\EndDeviceEB\List\ZDObject.lst
#    Object file        =  
#        D:\AA\Z-Stack
#        3.0.2\Projects\zstack\HomeAutomation\SampleTemperatureSensor\CC2530DB\EndDeviceEB\Obj\ZDObject.r51
#
###############################################################################

D:\AA\Z-Stack 3.0.2\Components\stack\zdo\ZDObject.c
      1          /**************************************************************************************************
      2            Filename:       ZDObject.c
      3            Revised:        $Date: 2015-10-01 15:01:50 -0700 (Thu, 01 Oct 2015) $
      4            Revision:       $Revision: 44513 $
      5          
      6            Description:    This is the Zigbee Device Object.
      7          
      8          
      9            Copyright 2004-2015 Texas Instruments Incorporated. All rights reserved.
     10          
     11            IMPORTANT: Your use of this Software is limited to those specific rights
     12            granted under the terms of a software license agreement between the user
     13            who downloaded the software, his/her employer (which must be your employer)
     14            and Texas Instruments Incorporated (the "License"). You may not use this
     15            Software unless you agree to abide by the terms of the License. The License
     16            limits your use, and you acknowledge, that the Software may not be modified,
     17            copied or distributed unless embedded on a Texas Instruments microcontroller
     18            or used solely and exclusively in conjunction with a Texas Instruments radio
     19            frequency transceiver, which is integrated into your product. Other than for
     20            the foregoing purpose, you may not use, reproduce, copy, prepare derivative
     21            works of, modify, distribute, perform, display or sell this Software and/or
     22            its documentation for any purpose.
     23          
     24            YOU FURTHER ACKNOWLEDGE AND AGREE THAT THE SOFTWARE AND DOCUMENTATION ARE
     25            PROVIDED "AS IS" WITHOUT WARRANTY OF ANY KIND, EITHER EXPRESS OR IMPLIED,
     26            INCLUDING WITHOUT LIMITATION, ANY WARRANTY OF MERCHANTABILITY, TITLE,
     27            NON-INFRINGEMENT AND FITNESS FOR A PARTICULAR PURPOSE. IN NO EVENT SHALL
     28            TEXAS INSTRUMENTS OR ITS LICENSORS BE LIABLE OR OBLIGATED UNDER CONTRACT,
     29            NEGLIGENCE, STRICT LIABILITY, CONTRIBUTION, BREACH OF WARRANTY, OR OTHER
     30            LEGAL EQUITABLE THEORY ANY DIRECT OR INDIRECT DAMAGES OR EXPENSES
     31            INCLUDING BUT NOT LIMITED TO ANY INCIDENTAL, SPECIAL, INDIRECT, PUNITIVE
     32            OR CONSEQUENTIAL DAMAGES, LOST PROFITS OR LOST DATA, COST OF PROCUREMENT
     33            OF SUBSTITUTE GOODS, TECHNOLOGY, SERVICES, OR ANY CLAIMS BY THIRD PARTIES
     34            (INCLUDING BUT NOT LIMITED TO ANY DEFENSE THEREOF), OR OTHER SIMILAR COSTS.
     35          
     36            Should you have any questions regarding your right to use this Software,
     37            contact Texas Instruments Incorporated at www.TI.com.
     38          **************************************************************************************************/
     39          
     40          /*********************************************************************
     41           * INCLUDES
     42           */
     43          #include "ZComDef.h"
     44          #include "OSAL.h"
     45          #include "OSAL_Nv.h"
     46          #include "rtg.h"
     47          #include "NLMEDE.h"
     48          #include "nwk_globals.h"
     49          #include "APS.h"
     50          #include "APSMEDE.h"
     51          #include "AssocList.h"
     52          #include "BindingTable.h"
     53          #include "AddrMgr.h"
     54          #include "AF.h"
     55          #include "ZDObject.h"
     56          #include "ZDProfile.h"
     57          #include "ZDConfig.h"
     58          #include "ZDSecMgr.h"
     59          #include "ZDApp.h"
     60          #include "nwk_util.h"   // NLME_IsAddressBroadcast()
     61          #include "ZGlobals.h"
     62          #if defined MT_ZDO_CB_FUNC
     63          #include "MT.h"
     64          #endif
     65          
     66          #include "bdb.h"
     67          
     68          #if !defined (DISABLE_GREENPOWER_BASIC_PROXY) && (ZG_BUILD_RTR_TYPE)
     69          #include "gp_common.h"
     70          #endif
     71           
     72          #if defined( LCD_SUPPORTED )
     73            #include "OnBoard.h"
     74          #endif
     75          
     76          /* HAL */
     77          #include "hal_lcd.h"
     78          
     79          /*********************************************************************
     80           * MACROS
     81           */
     82          
     83          /*********************************************************************
     84           * CONSTANTS
     85           */
     86          // NLME Stub Implementations
     87          #define ZDO_ProcessMgmtPermitJoinTimeout NLME_PermitJoiningTimeout
     88          
     89          /*********************************************************************
     90           * TYPEDEFS
     91           */
     92          #if defined ( REFLECTOR )
     93          typedef struct
     94          {
     95            byte SrcTransSeq;
     96            zAddrType_t SrcAddr;
     97            uint16 LocalCoordinator;
     98            byte epIntf;
     99            uint16 ProfileID;
    100            byte numInClusters;
    101            uint16 *inClusters;
    102            byte numOutClusters;
    103            uint16 *outClusters;
    104            byte SecurityUse;
    105            byte status;
    106          } ZDO_EDBind_t;
    107          #endif // defined ( REFLECTOR )
    108          
    109          enum
    110          {
    111            ZDMATCH_INIT,           // Initialized
    112            ZDMATCH_WAIT_REQ,       // Received first request, waiting for second
    113            ZDMATCH_SENDING_BINDS   // Received both requests, sending unbind/binds
    114          };
    115          
    116          enum
    117          {
    118            ZDMATCH_SENDING_NOT,
    119            ZDMATCH_SENDING_UNBIND,
    120            ZDMATCH_SENDING_BIND
    121          };
    122          
    123          /*********************************************************************
    124           * GLOBAL VARIABLES
    125           */
    126          
    127          /*********************************************************************
    128           * EXTERNAL VARIABLES
    129           */
    130          
    131          extern bool  requestNewTrustCenterLinkKey;   
    132             
    133          /*********************************************************************
    134           * EXTERNAL FUNCTIONS
    135           */
    136          
    137          /*********************************************************************
    138           * LOCAL VARIABLES
    139           */

   \                                 In  segment XDATA_Z, align 1, keep-with-next
    140          static uint16 ZDOBuildBuf[26];  // temp area to build data without allocation
   \                     ZDOBuildBuf:
   \   000000                DS 52
   \   000034                REQUIRE __INIT_XDATA_Z
    141          
    142          #if defined ( REFLECTOR )

   \                                 In  segment XDATA_Z, align 1, keep-with-next
    143          static ZDO_EDBind_t *ZDO_EDBind;     // Null when not used
   \                     ZDO_EDBind:
   \   000000                DS 2
   \   000002                REQUIRE __INIT_XDATA_Z
    144          #endif
    145          
    146          #if defined ( MANAGED_SCAN )
    147            uint32 managedScanNextChannel = 0;
    148            uint32 managedScanChannelMask = 0;
    149            uint8  managedScanTimesPerChannel = 0;
    150          #endif
    151          

   \                                 In  segment XDATA_Z, align 1, keep-with-next
    152          ZDMatchEndDeviceBind_t *matchED = (ZDMatchEndDeviceBind_t *)NULL;
   \                     matchED:
   \   000000                DS 2
   \   000002                REQUIRE __INIT_XDATA_Z
    153          

   \                                 In  segment XDATA_Z, align 1, keep-with-next
    154          uint32 apsChannelMask = 0;
   \                     apsChannelMask:
   \   000000                DS 4
   \   000004                REQUIRE __INIT_XDATA_Z
    155          

   \                                 In  segment XDATA_I, align 1, keep-with-next
    156          int16 zdpExternalStateTaskID = -1;
   \                     zdpExternalStateTaskID:
   \   000000                DS 2
   \   000002                REQUIRE `?<Initializer for zdpExternalStateTaskID>`
   \   000002                REQUIRE __INIT_XDATA_I
    157          
    158          /*********************************************************************
    159           * LOCAL FUNCTIONS
    160           */
    161          static void ZDODeviceSetup( void );
    162          #if defined ( MANAGED_SCAN )
    163            static void ZDOManagedScan_Next( void );
    164          #endif
    165          #if defined ( REFLECTOR )
    166            static void ZDO_RemoveEndDeviceBind( void );
    167            static void ZDO_SendEDBindRsp( byte TransSeq, zAddrType_t *dstAddr, byte Status, byte secUse );
    168          #endif
    169          #if ( ZG_BUILD_COORDINATOR_TYPE )
    170            static byte ZDO_CompareClusterLists( byte numList1, uint16 *list1,
    171                                                 byte numList2, uint16 *list2, uint16 *pMatches );
    172            static void ZDO_RemoveMatchMemory( void );
    173            static uint8 ZDO_CopyMatchInfo( ZDEndDeviceBind_t *destReq, ZDEndDeviceBind_t *srcReq );
    174            static void ZDO_EndDeviceBindMatchTimeoutCB( void );
    175          #endif
    176          uint8 *ZDO_ConvertOTAClusters( uint8 cnt, uint8 *inBuf, uint16 *outList );
    177          static void zdoSendStateChangeMsg(uint8 state, uint8 taskId);
    178          
    179          /*********************************************************************
    180           * @fn          ZDO_Init
    181           *
    182           * @brief       ZDObject and ZDProfile initialization.
    183           *
    184           * @param       none
    185           *
    186           * @return      none
    187           */

   \                                 In  segment BANKED_CODE, align 1, keep-with-next
    188          void ZDO_Init( void )
   \                     ZDO_Init:
    189          {
   \   000000   C082         PUSH      DPL
   \   000002   C083         PUSH      DPH
   \   000004                ; Saved register size: 2
   \   000004                ; Auto size: 0
    190            // Initialize ZD items
    191            #if defined ( REFLECTOR )
    192            ZDO_EDBind = NULL;
   \   000004   90....       MOV       DPTR,#ZDO_EDBind
   \   000007   E4           CLR       A
   \   000008   F0           MOVX      @DPTR,A
   \   000009   A3           INC       DPTR
   \   00000A   F0           MOVX      @DPTR,A
    193            #endif
    194          
    195            // Initialize default ZDO_UseExtendedPANID to the APS one.
    196            osal_cpyExtAddr( ZDO_UseExtendedPANID, AIB_apsUseExtendedPANID );
   \   00000B                ; Setup parameters for call to function sAddrExtCpy
   \   00000B   7C..         MOV       R4,#AIB_apsUseExtendedPANID & 0xff
   \   00000D   7D..         MOV       R5,#(AIB_apsUseExtendedPANID >> 8) & 0xff
   \   00000F   7A..         MOV       R2,#ZDO_UseExtendedPANID & 0xff
   \   000011   7B..         MOV       R3,#(ZDO_UseExtendedPANID >> 8) & 0xff
   \   000013   12....       LCALL     `??sAddrExtCpy::?relay`; Banked call to: sAddrExtCpy
    197          
    198            // Setup the device - type of device to create.
    199            ZDODeviceSetup();
   \   000016                ; Setup parameters for call to function ZDODeviceSetup
   \   000016   12....       LCALL     `??ZDODeviceSetup::?relay`; Banked call to: ZDODeviceSetup
    200          }
   \   000019   D083         POP       DPH
   \   00001B   D082         POP       DPL
   \   00001D   02....       LJMP      ?BRET
    201          
    202          #if defined ( MANAGED_SCAN )
    203          /*********************************************************************
    204           * @fn      ZDOManagedScan_Next()
    205           *
    206           * @brief   Setup a managed scan.
    207           *
    208           * @param   none
    209           *
    210           * @return  none
    211           */
    212          static void ZDOManagedScan_Next( void )
    213          {
    214            // Is it the first time
    215            if ( managedScanNextChannel == 0 && managedScanTimesPerChannel == 0 )
    216            {
    217              // Setup the defaults
    218              managedScanNextChannel  = 1;
    219          
    220              while( managedScanNextChannel && (runtimeChannel & managedScanNextChannel) == 0 )
    221                managedScanNextChannel <<= 1;
    222          
    223              managedScanChannelMask = managedScanNextChannel;
    224              managedScanTimesPerChannel = MANAGEDSCAN_TIMES_PRE_CHANNEL;
    225            }
    226            else
    227            {
    228              // Do we need to go to the next channel
    229              if ( managedScanTimesPerChannel == 0 )
    230              {
    231                // Find next active channel
    232                managedScanChannelMask  = managedScanNextChannel;
    233                managedScanTimesPerChannel = MANAGEDSCAN_TIMES_PRE_CHANNEL;
    234              }
    235              else
    236              {
    237                managedScanTimesPerChannel--;
    238          
    239                if ( managedScanTimesPerChannel == 0 )
    240                {
    241                  managedScanNextChannel  <<= 1;
    242                  while( managedScanNextChannel && (runtimeChannel & managedScanNextChannel) == 0 )
    243                    managedScanNextChannel <<= 1;
    244          
    245                  if ( managedScanNextChannel == 0 )
    246                    zdoDiscCounter  = NUM_DISC_ATTEMPTS + 1; // Stop
    247                }
    248              }
    249            }
    250          }
    251          #endif // MANAGED_SCAN
    252          
    253          /*********************************************************************
    254           * @fn      ZDODeviceSetup()
    255           *
    256           * @brief   Call set functions depending on the type of device compiled.
    257           *
    258           * @param   none
    259           *
    260           * @return  none
    261           */

   \                                 In  segment BANKED_CODE, align 1, keep-with-next
    262          static void ZDODeviceSetup( void )
   \                     ZDODeviceSetup:
    263          {
   \   000000   C082         PUSH      DPL
   \   000002   C083         PUSH      DPH
   \   000004                ; Saved register size: 2
   \   000004                ; Auto size: 0
    264            if ( ZG_BUILD_COORDINATOR_TYPE )
    265            {
    266              NLME_CoordinatorInit();
    267            }
    268          
    269          #if defined ( REFLECTOR )
    270            APS_ReflectorInit();
   \   000004                ; Setup parameters for call to function APS_ReflectorInit
   \   000004   12....       LCALL     `??APS_ReflectorInit::?relay`; Banked call to: APS_ReflectorInit
    271          #endif
    272          
    273            if ( ZG_BUILD_JOINING_TYPE )
    274            {
    275              NLME_DeviceJoiningInit();
   \   000007                ; Setup parameters for call to function NLME_DeviceJoiningInit
   \   000007   12....       LCALL     `??NLME_DeviceJoiningInit::?relay`; Banked call to: NLME_DeviceJoiningInit
    276            }
    277          }
   \   00000A   D083         POP       DPH
   \   00000C   D082         POP       DPL
   \   00000E   02....       LJMP      ?BRET
    278          
    279          
    280          
    281          
    282          /*********************************************************************
    283           * @fn          ZDO_StartDevice
    284           *
    285           * @brief       This function starts a device in a network. Added distributed network for router devices
    286           *
    287           * @param       logicalType     - Device type to start
    288           *              startMode       - indicates mode of device startup
    289           *              beaconOrder     - indicates time betwen beacons
    290           *              superframeOrder - indicates length of active superframe
    291           *              distributed     - indicates if the network will be formed
    292           *
    293           * @return      none
    294           */

   \                                 In  segment BANKED_CODE, align 1, keep-with-next
    295          void ZDO_StartDevice( byte logicalType, devStartModes_t startMode, byte beaconOrder, byte superframeOrder )
   \                     ZDO_StartDevice:
    296          {
   \   000000                REQUIRE ?V0
   \   000000                REQUIRE ?V1
   \   000000                REQUIRE ?V2
   \   000000                REQUIRE ?V3
   \   000000                REQUIRE ?V4
   \   000000                REQUIRE ?V5
   \   000000   74F2         MOV       A,#-0xe
   \   000002   12....       LCALL     ?BANKED_ENTER_XDATA
   \   000005                ; Saved register size: 14
   \   000005                ; Auto size: 2
   \   000005   74FE         MOV       A,#-0x2
   \   000007   12....       LCALL     ?ALLOC_XSTACK8
   \   00000A   E9           MOV       A,R1
   \   00000B   FE           MOV       R6,A
   \   00000C   EA           MOV       A,R2
   \   00000D   FF           MOV       R7,A
   \   00000E   8B..         MOV       ?V1,R3
   \   000010   8C..         MOV       ?V0,R4
    297            ZStatus_t ret;
    298          #if defined ( ZIGBEE_FREQ_AGILITY )
    299            static uint8 discRetries = 0;
    300          #endif
    301          #if defined ( ZIGBEE_COMMISSIONING )
    302            static uint8 scanCnt = 0;
    303          #endif
    304          
    305            ret = ZUnsupportedMode;
   \   000012   75..12       MOV       ?V2,#0x12
    306          
    307            if ( ZG_BUILD_COORDINATOR_TYPE && logicalType == NODETYPE_COORDINATOR )
    308            {
    309              if ( startMode == MODE_HARD )
    310              {
    311                ZDApp_ChangeState( DEV_COORD_STARTING );
    312                ret = NLME_NetworkFormationRequest( zgConfigPANID, zgApsUseExtendedPANID, runtimeChannel,
    313                                                    zgDefaultStartingScanDuration, beaconOrder,
    314                                                    superframeOrder, false, false, 0 );
    315              }
    316              else if ( startMode == MODE_RESUME )
    317              {
    318                // Just start the coordinator
    319                ZDApp_ChangeState( DEV_COORD_STARTING );
    320                ret = NLME_StartRouterRequest( beaconOrder, beaconOrder, false );
    321              }
    322              else
    323              {
    324          #if defined( LCD_SUPPORTED )
    325                HalLcdWriteScreen( "StartDevice ERR", "MODE unknown" );
    326          #endif
    327              }
    328            }
    329          
    330            if ( ZG_BUILD_JOINING_TYPE && (logicalType == NODETYPE_ROUTER || logicalType == NODETYPE_DEVICE) )
   \   000015   7401         MOV       A,#0x1
   \   000017   6E           XRL       A,R6
   \   000018   6008         JZ        ??ZDO_StartDevice_0
   \   00001A   7402         MOV       A,#0x2
   \   00001C   6E           XRL       A,R6
   \   00001D   6003         JZ        $+5
   \   00001F   02....       LJMP      ??ZDO_StartDevice_1 & 0xFFFF
    331            {
    332              if ( (startMode == MODE_JOIN) || (startMode == MODE_REJOIN) )
   \                     ??ZDO_StartDevice_0:
   \   000022   EA           MOV       A,R2
   \   000023   6008         JZ        ??ZDO_StartDevice_2
   \   000025   7403         MOV       A,#0x3
   \   000027   6F           XRL       A,R7
   \   000028   6003         JZ        $+5
   \   00002A   02....       LJMP      ??ZDO_StartDevice_3 & 0xFFFF
    333              {
    334                if(APSME_IsDistributedSecurity() && (startMode != MODE_REJOIN))
   \                     ??ZDO_StartDevice_2:
   \   00002D                ; Setup parameters for call to function APSME_IsDistributedSecurity
   \   00002D   12....       LCALL     `??APSME_IsDistributedSecurity::?relay`; Banked call to: APSME_IsDistributedSecurity
   \   000030   E9           MOV       A,R1
   \   000031   6055         JZ        ??ZDO_StartDevice_4
   \   000033   7403         MOV       A,#0x3
   \   000035   6F           XRL       A,R7
   \   000036   6050         JZ        ??ZDO_StartDevice_4
    335                {
    336                        ret = NLME_NetworkFormationRequest( zgConfigPANID, zgApsUseExtendedPANID, runtimeChannel,
    337                                                    zgDefaultStartingScanDuration, beaconOrder,
    338                                                    superframeOrder, false, true, osal_rand() );
   \   000038                ; Setup parameters for call to function osal_rand
   \   000038   12....       LCALL     `??osal_rand::?relay`; Banked call to: osal_rand
   \   00003B   8A..         MOV       ?V2,R2
   \   00003D   8B..         MOV       ?V3,R3
   \   00003F                ; Setup parameters for call to function NLME_NetworkFormationRequest
   \   00003F   78..         MOV       R0,#?V2
   \   000041   12....       LCALL     ?PUSH_XSTACK_I_TWO
   \   000044   75..01       MOV       ?V2,#0x1
   \   000047   78..         MOV       R0,#?V2
   \   000049   12....       LCALL     ?PUSH_XSTACK_I_ONE
   \   00004C   75..00       MOV       ?V2,#0x0
   \   00004F   78..         MOV       R0,#?V2
   \   000051   12....       LCALL     ?PUSH_XSTACK_I_ONE
   \   000054   E5..         MOV       A,?V0
   \   000056   F5..         MOV       ?V2,A
   \   000058   78..         MOV       R0,#?V2
   \   00005A   12....       LCALL     ?PUSH_XSTACK_I_ONE
   \   00005D   E5..         MOV       A,?V1
   \   00005F   F5..         MOV       ?V2,A
   \   000061   78..         MOV       R0,#?V2
   \   000063   12....       LCALL     ?PUSH_XSTACK_I_ONE
   \   000066   90....       MOV       DPTR,#runtimeChannel
   \   000069   12....       LCALL     ?PUSH_XSTACK8_X_FOUR
   \   00006C   90....       MOV       DPTR,#bdbAttributes + 13
   \   00006F   E0           MOVX      A,@DPTR
   \   000070   F9           MOV       R1,A
   \   000071   7C..         MOV       R4,#zgApsUseExtendedPANID & 0xff
   \   000073   7D..         MOV       R5,#(zgApsUseExtendedPANID >> 8) & 0xff
   \   000075   90....       MOV       DPTR,#zgConfigPANID
   \   000078   E0           MOVX      A,@DPTR
   \   000079   FA           MOV       R2,A
   \   00007A   A3           INC       DPTR
   \   00007B   E0           MOVX      A,@DPTR
   \   00007C   FB           MOV       R3,A
   \   00007D   12....       LCALL     `??NLME_NetworkFormationRequest::?relay`; Banked call to: NLME_NetworkFormationRequest
   \   000080   740A         MOV       A,#0xa
   \   000082   12....       LCALL     ?DEALLOC_XSTACK8
   \   000085   02....       LJMP      ??ZDO_StartDevice_5 & 0xFFFF
    339                  
    340                }
    341                else
    342                {
    343                  ZDApp_ChangeState( DEV_NWK_DISC );
   \                     ??ZDO_StartDevice_4:
   \   000088                ; Setup parameters for call to function ZDApp_ChangeState
   \   000088   7902         MOV       R1,#0x2
   \   00008A   12....       LCALL     `??ZDApp_ChangeState::?relay`; Banked call to: ZDApp_ChangeState
    344          
    345                #if defined( MANAGED_SCAN )
    346                  ZDOManagedScan_Next();
    347                  ret = NLME_NetworkDiscoveryRequest( managedScanChannelMask, BEACON_ORDER_15_MSEC );
    348                #else
    349                  ret = NLME_NetworkDiscoveryRequest( runtimeChannel, zgDefaultStartingScanDuration );
   \   00008D                ; Setup parameters for call to function NLME_NetworkDiscoveryRequest
   \   00008D   90....       MOV       DPTR,#bdbAttributes + 13
   \   000090   E0           MOVX      A,@DPTR
   \   000091   F9           MOV       R1,A
   \   000092   90....       MOV       DPTR,#runtimeChannel
   \   000095   12....       LCALL     ?XLOAD_R2345
   \   000098   12....       LCALL     `??NLME_NetworkDiscoveryRequest::?relay`; Banked call to: NLME_NetworkDiscoveryRequest
   \   00009B   E9           MOV       A,R1
   \   00009C   F5..         MOV       ?V2,A
    350                  #if defined ( ZIGBEE_FREQ_AGILITY )
    351                  if ( !( ZDO_Config_Node_Descriptor.CapabilityFlags & CAPINFO_RCVR_ON_IDLE ) &&
    352                      ( ret == ZSuccess ) && ( ++discRetries == 4 ) )
    353                  {
    354                    // For devices with RxOnWhenIdle equals to FALSE, any network channel
    355                    // change will not be recieved. On these devices or routers that have
    356                    // lost the network, an active scan shall be conducted on the Default
    357                    // Channel list using the extended PANID to find the network. If the
    358                    // extended PANID isn't found using the Default Channel list, an scan
    359                    // should be completed using all channels.
    360                    runtimeChannel = MAX_CHANNELS_24GHZ;
    361                  }
    362                  #endif // ZIGBEE_FREQ_AGILITY
    363                  #if defined ( ZIGBEE_COMMISSIONING )
    364                  if (startMode == MODE_REJOIN && scanCnt++ >= 5 )
   \   00009E   7403         MOV       A,#0x3
   \   0000A0   6F           XRL       A,R7
   \   0000A1   6003         JZ        $+5
   \   0000A3   02....       LJMP      ??ZDO_StartDevice_1 & 0xFFFF
   \   0000A6   90....       MOV       DPTR,#??scanCnt
   \   0000A9   E0           MOVX      A,@DPTR
   \   0000AA   F8           MOV       R0,A
   \   0000AB   7401         MOV       A,#0x1
   \   0000AD   28           ADD       A,R0
   \   0000AE   F0           MOVX      @DPTR,A
   \   0000AF   E8           MOV       A,R0
   \   0000B0   C3           CLR       C
   \   0000B1   9405         SUBB      A,#0x5
   \   0000B3   5003         JNC       $+5
   \   0000B5   02....       LJMP      ??ZDO_StartDevice_1 & 0xFFFF
    365                  {
    366                    // When ApsUseExtendedPanID is commissioned to a non zero value via
    367                    // application specific means, the device shall conduct an active scan
    368                    // on the Default Channel list and join the PAN with the same
    369                    // ExtendedPanID. If the PAN is not found, an scan should be completed
    370                    // on all channels.
    371                    // When devices rejoin the network and the PAN is not found from
    372                    runtimeChannel = MAX_CHANNELS_24GHZ;
   \   0000B8   90....       MOV       DPTR,#runtimeChannel
   \   0000BB   E4           CLR       A
   \   0000BC   F0           MOVX      @DPTR,A
   \   0000BD   A3           INC       DPTR
   \   0000BE   74F8         MOV       A,#-0x8
   \   0000C0   F0           MOVX      @DPTR,A
   \   0000C1   A3           INC       DPTR
   \   0000C2   74FF         MOV       A,#-0x1
   \   0000C4   F0           MOVX      @DPTR,A
   \   0000C5   A3           INC       DPTR
   \   0000C6   7407         MOV       A,#0x7
   \   0000C8   F0           MOVX      @DPTR,A
   \   0000C9   02....       LJMP      ??ZDO_StartDevice_1 & 0xFFFF
    373                  }
    374                  #endif // ZIGBEE_COMMISSIONING
    375                #endif
    376                }
    377              }
    378              else if ( startMode == MODE_RESUME )
   \                     ??ZDO_StartDevice_3:
   \   0000CC   7401         MOV       A,#0x1
   \   0000CE   6F           XRL       A,R7
   \   0000CF   7071         JNZ       ??ZDO_StartDevice_6
    379              {
    380                if ( logicalType == NODETYPE_ROUTER )
   \   0000D1   7401         MOV       A,#0x1
   \   0000D3   6E           XRL       A,R6
   \   0000D4   790A         MOV       R1,#0xa
   \   0000D6   703D         JNZ       ??ZDO_StartDevice_7
    381                {
    382                  uint16 panID;
    383                  
    384                  ZDApp_ChangeState( DEV_NWK_ORPHAN );
   \   0000D8                ; Setup parameters for call to function ZDApp_ChangeState
   \   0000D8   12....       LCALL     `??ZDApp_ChangeState::?relay`; Banked call to: ZDApp_ChangeState
    385                  
    386                  // Stop the rejoin timeout
    387                  osal_stop_timerEx( NWK_TaskID, NWK_REJOIN_TIMEOUT_EVT );
   \   0000DB                ; Setup parameters for call to function osal_stop_timerEx
   \   0000DB   7A00         MOV       R2,#0x0
   \   0000DD   7B04         MOV       R3,#0x4
   \   0000DF   90....       MOV       DPTR,#NWK_TaskID
   \   0000E2   E0           MOVX      A,@DPTR
   \   0000E3   F9           MOV       R1,A
   \   0000E4   12....       LCALL     `??osal_stop_timerEx::?relay`; Banked call to: osal_stop_timerEx
    388                  ZMacGetReq( ZMacPanId, (uint8 *)&( panID ) );
   \   0000E7                ; Setup parameters for call to function ZMacGetReq
   \   0000E7   AA..         MOV       R2,?XSP + 0
   \   0000E9   AB..         MOV       R3,?XSP + 1
   \   0000EB   7950         MOV       R1,#0x50
   \   0000ED   12....       LCALL     `??ZMacGetReq::?relay`; Banked call to: ZMacGetReq
    389                  
    390                  _NIB.nwkPanId = panID;
   \   0000F0   85..82       MOV       DPL,?XSP + 0
   \   0000F3   85..83       MOV       DPH,?XSP + 1
   \   0000F6   E0           MOVX      A,@DPTR
   \   0000F7   F8           MOV       R0,A
   \   0000F8   A3           INC       DPTR
   \   0000F9   E0           MOVX      A,@DPTR
   \   0000FA   F9           MOV       R1,A
   \   0000FB   90....       MOV       DPTR,#_NIB + 33
   \   0000FE   E8           MOV       A,R0
   \   0000FF   F0           MOVX      @DPTR,A
   \   000100   A3           INC       DPTR
   \   000101   E9           MOV       A,R1
   \   000102   F0           MOVX      @DPTR,A
    391                  NLME_JoinConfirm(  _NIB.nwkPanId, ZSuccess );
   \   000103                ; Setup parameters for call to function NLME_JoinConfirm
   \   000103   7900         MOV       R1,#0x0
   \   000105   90....       MOV       DPTR,#_NIB + 33
   \   000108   E0           MOVX      A,@DPTR
   \   000109   FA           MOV       R2,A
   \   00010A   A3           INC       DPTR
   \   00010B   E0           MOVX      A,@DPTR
   \   00010C   FB           MOV       R3,A
   \   00010D   12....       LCALL     `??NLME_JoinConfirm::?relay`; Banked call to: NLME_JoinConfirm
    392          
    393                  ret = ZSuccess;
   \   000110   75..00       MOV       ?V2,#0x0
   \   000113   8038         SJMP      ??ZDO_StartDevice_1
    394                }
    395                else
    396                {
    397                  ZDApp_ChangeState( DEV_NWK_ORPHAN );
   \                     ??ZDO_StartDevice_7:
   \   000115                ; Setup parameters for call to function ZDApp_ChangeState
   \   000115   12....       LCALL     `??ZDApp_ChangeState::?relay`; Banked call to: ZDApp_ChangeState
    398                  //set timer for scan and rejoin
    399                  osal_start_timerEx( ZDAppTaskID, ZDO_REJOIN_BACKOFF, zgDefaultRejoinScan );
   \   000118                ; Setup parameters for call to function osal_start_timerEx
   \   000118   90....       MOV       DPTR,#zgDefaultRejoinScan
   \   00011B   12....       LCALL     ?PUSH_XSTACK8_X_FOUR
   \   00011E   7A00         MOV       R2,#0x0
   \   000120   7B20         MOV       R3,#0x20
   \   000122   90....       MOV       DPTR,#ZDAppTaskID
   \   000125   E0           MOVX      A,@DPTR
   \   000126   F9           MOV       R1,A
   \   000127   12....       LCALL     `??osal_start_timerEx::?relay`; Banked call to: osal_start_timerEx
   \   00012A   7404         MOV       A,#0x4
   \   00012C   12....       LCALL     ?DEALLOC_XSTACK8
    400                  ret = NLME_OrphanJoinRequest( runtimeChannel,
    401                                                zgDefaultStartingScanDuration );
   \   00012F                ; Setup parameters for call to function NLME_OrphanJoinRequest
   \   00012F   90....       MOV       DPTR,#bdbAttributes + 13
   \   000132   E0           MOVX      A,@DPTR
   \   000133   F9           MOV       R1,A
   \   000134   90....       MOV       DPTR,#runtimeChannel
   \   000137   12....       LCALL     ?XLOAD_R2345
   \   00013A   12....       LCALL     `??NLME_OrphanJoinRequest::?relay`; Banked call to: NLME_OrphanJoinRequest
   \                     ??ZDO_StartDevice_5:
   \   00013D   E9           MOV       A,R1
   \   00013E   F5..         MOV       ?V2,A
   \   000140   800B         SJMP      ??ZDO_StartDevice_1
    402                }
    403              }
    404              else
    405              {
    406          #if defined( LCD_SUPPORTED )
    407                HalLcdWriteScreen( "StartDevice ERR", "MODE unknown" );
   \                     ??ZDO_StartDevice_6:
   \   000142                ; Setup parameters for call to function HalLcdWriteScreen
   \   000142   7C..         MOV       R4,#`?<Constant "MODE unknown">` & 0xff
   \   000144   7D..         MOV       R5,#(`?<Constant "MODE unknown">` >> 8) & 0xff
   \   000146   7A..         MOV       R2,#`?<Constant "StartDevice ERR">` & 0xff
   \   000148   7B..         MOV       R3,#(`?<Constant "StartDevice ERR">` >> 8) & 0xff
   \   00014A   12....       LCALL     `??HalLcdWriteScreen::?relay`; Banked call to: HalLcdWriteScreen
    408          #endif
    409              }
    410            }
    411          
    412            if ( ret != ZSuccess )
   \                     ??ZDO_StartDevice_1:
   \   00014D   E5..         MOV       A,?V2
   \   00014F   6017         JZ        ??ZDO_StartDevice_8
    413            {
    414              osal_start_timerEx(ZDAppTaskID, ZDO_NETWORK_INIT, NWK_RETRY_DELAY );
   \   000151                ; Setup parameters for call to function osal_start_timerEx
   \   000151   90....       MOV       DPTR,#__Constant_3e8
   \   000154   12....       LCALL     ?PUSH_XSTACK8_X_FOUR
   \   000157   7A01         MOV       R2,#0x1
   \   000159   7B00         MOV       R3,#0x0
   \   00015B   90....       MOV       DPTR,#ZDAppTaskID
   \   00015E   E0           MOVX      A,@DPTR
   \   00015F   F9           MOV       R1,A
   \   000160   12....       LCALL     `??osal_start_timerEx::?relay`; Banked call to: osal_start_timerEx
   \   000163   7404         MOV       A,#0x4
   \   000165   12....       LCALL     ?DEALLOC_XSTACK8
    415            }
    416          }
   \                     ??ZDO_StartDevice_8:
   \   000168   7402         MOV       A,#0x2
   \   00016A   12....       LCALL     ?DEALLOC_XSTACK8
   \   00016D   7F06         MOV       R7,#0x6
   \   00016F   02....       LJMP      ?BANKED_LEAVE_XDATA

   \                                 In  segment XDATA_Z, align 1, keep-with-next
   \                     ??scanCnt:
   \   000000                DS 1
   \   000001                REQUIRE __INIT_XDATA_Z
    417          
    418          /**************************************************************************************************
    419           * @fn          zdoSendStateChangeMsg
    420           *
    421           * @brief       Helper function for ZDO_UpdateNwkStatus.
    422           *
    423           * input parameters
    424           *
    425           * @param       taskId - The OSAL task identifier to which to send the ZDO_STATE_CHANGE_EVT.
    426           * @param       state - The current device state.
    427           *
    428           * output parameters
    429           *
    430           * None.
    431           *
    432           * @return      None.
    433           **************************************************************************************************
    434           */

   \                                 In  segment BANKED_CODE, align 1, keep-with-next
    435          static void zdoSendStateChangeMsg(uint8 state, uint8 taskId)
   \                     zdoSendStateChangeMsg:
    436          {
   \   000000                REQUIRE ?V0
   \   000000                REQUIRE ?V1
   \   000000   74F6         MOV       A,#-0xa
   \   000002   12....       LCALL     ?BANKED_ENTER_XDATA
   \   000005                ; Saved register size: 10
   \   000005                ; Auto size: 0
   \   000005   E9           MOV       A,R1
   \   000006   FF           MOV       R7,A
   \   000007   EA           MOV       A,R2
   \   000008   FE           MOV       R6,A
    437            osal_event_hdr_t *pMsg = (osal_event_hdr_t *)osal_msg_find(taskId, ZDO_STATE_CHANGE);
   \   000009                ; Setup parameters for call to function osal_msg_find
   \   000009   7AD1         MOV       R2,#-0x2f
   \   00000B   F9           MOV       R1,A
   \   00000C   12....       LCALL     `??osal_msg_find::?relay`; Banked call to: osal_msg_find
    438          
    439            if (NULL == pMsg)
   \   00000F   EA           MOV       A,R2
   \   000010   4B           ORL       A,R3
   \   000011   702A         JNZ       ??zdoSendStateChangeMsg_0
    440            {
    441              if (NULL == (pMsg = (osal_event_hdr_t *)osal_msg_allocate(sizeof(osal_event_hdr_t))))
   \   000013                ; Setup parameters for call to function osal_msg_allocate
   \   000013   7A02         MOV       R2,#0x2
   \   000015   7B00         MOV       R3,#0x0
   \   000017   12....       LCALL     `??osal_msg_allocate::?relay`; Banked call to: osal_msg_allocate
   \   00001A   EA           MOV       A,R2
   \   00001B   4B           ORL       A,R3
   \   00001C   700E         JNZ       ??zdoSendStateChangeMsg_1
    442              {
    443                // Upon failure to notify any EndPoint of the state change, re-set the ZDO event to
    444                // try again later when more Heap may be available.
    445                osal_set_event(ZDAppTaskID, ZDO_STATE_CHANGE_EVT);
   \   00001E                ; Setup parameters for call to function osal_set_event
   \   00001E   7A10         MOV       R2,#0x10
   \   000020   7B00         MOV       R3,#0x0
   \   000022   90....       MOV       DPTR,#ZDAppTaskID
   \   000025   E0           MOVX      A,@DPTR
   \   000026   F9           MOV       R1,A
   \   000027   12....       LCALL     `??osal_set_event::?relay`; Banked call to: osal_set_event
   \   00002A   8018         SJMP      ??zdoSendStateChangeMsg_2
    446              }
    447              else
    448              {
    449                pMsg->event = ZDO_STATE_CHANGE;
   \                     ??zdoSendStateChangeMsg_1:
   \   00002C   8A82         MOV       DPL,R2
   \   00002E   8B83         MOV       DPH,R3
   \   000030   74D1         MOV       A,#-0x2f
   \   000032   F0           MOVX      @DPTR,A
    450                pMsg->status = state;
   \   000033   EF           MOV       A,R7
   \   000034   A3           INC       DPTR
   \   000035   F0           MOVX      @DPTR,A
    451          
    452                (void)osal_msg_send(taskId, (uint8 *)pMsg);
   \   000036                ; Setup parameters for call to function osal_msg_send
   \   000036   EE           MOV       A,R6
   \   000037   F9           MOV       R1,A
   \   000038   12....       LCALL     `??osal_msg_send::?relay`; Banked call to: osal_msg_send
   \   00003B   8007         SJMP      ??zdoSendStateChangeMsg_2
    453              }
    454            }
    455            else
    456            {
    457              // Modify in place the status of an existing ZDO_STATE_CHANGE message to the EndPoint.
    458              pMsg->status = state;
   \                     ??zdoSendStateChangeMsg_0:
   \   00003D   EF           MOV       A,R7
   \   00003E   8A82         MOV       DPL,R2
   \   000040   8B83         MOV       DPH,R3
   \   000042   A3           INC       DPTR
   \   000043   F0           MOVX      @DPTR,A
    459            }
    460          }
   \                     ??zdoSendStateChangeMsg_2:
   \   000044   7F02         MOV       R7,#0x2
   \   000046   02....       LJMP      ?BANKED_LEAVE_XDATA
    461          
    462          /**************************************************************************************************
    463           * @fn          ZDO_UpdateNwkStatus
    464           *
    465           * @brief       This function sends a ZDO_STATE_CHANGE message to the task of every EndPoint
    466           *              registered with AF (except, of course, the ZDO_EP). Even if a single task has more
    467           *              than one registered EndPoint, it will only receive one notification per state
    468           *              change. Although the device may go through a sequence of state changes, the
    469           *              Application task may only receive notification of the final, steady-state state
    470           *              because it has the lowest priority and never even runs to receive the intermediate
    471           *              state change notifications.
    472           *
    473           * input parameters
    474           *
    475           * @param       state - The current device state.
    476           *
    477           * output parameters
    478           *
    479           * None.
    480           *
    481           * @return      None.
    482           **************************************************************************************************
    483           */

   \                                 In  segment BANKED_CODE, align 1, keep-with-next
    484          void ZDO_UpdateNwkStatus(devStates_t state)
   \                     ZDO_UpdateNwkStatus:
    485          {
   \   000000                REQUIRE ?V0
   \   000000   74F7         MOV       A,#-0x9
   \   000002   12....       LCALL     ?BANKED_ENTER_XDATA
   \   000005                ; Saved register size: 9
   \   000005                ; Auto size: 0
   \   000005   89..         MOV       ?V0,R1
    486            epList_t *pItem = epList;
   \   000007   90....       MOV       DPTR,#epList
   \   00000A   E0           MOVX      A,@DPTR
   \   00000B   FE           MOV       R6,A
   \   00000C   A3           INC       DPTR
   \   00000D   E0           MOVX      A,@DPTR
   \   00000E   802E         SJMP      ??ZDO_UpdateNwkStatus_0
    487          
    488          #if defined MT_ZDO_CB_FUNC
    489            if ( zdpExternalStateTaskID == -1 )
    490            {
    491              zdpExternalStateTaskID = MT_TaskID;
    492            }
    493          #endif
    494          
    495            while (pItem != NULL)
    496            {
    497              if (pItem->epDesc->endPoint != ZDO_EP)
   \                     ??ZDO_UpdateNwkStatus_1:
   \   000010   8E82         MOV       DPL,R6
   \   000012   8F83         MOV       DPH,R7
   \   000014   A3           INC       DPTR
   \   000015   A3           INC       DPTR
   \   000016   E0           MOVX      A,@DPTR
   \   000017   F8           MOV       R0,A
   \   000018   A3           INC       DPTR
   \   000019   E0           MOVX      A,@DPTR
   \   00001A   8882         MOV       DPL,R0
   \   00001C   F583         MOV       DPH,A
   \   00001E   E0           MOVX      A,@DPTR
   \   00001F   6011         JZ        ??ZDO_UpdateNwkStatus_2
    498              {
    499                zdoSendStateChangeMsg(state, *(pItem->epDesc->task_id));
   \   000021                ; Setup parameters for call to function zdoSendStateChangeMsg
   \   000021   A3           INC       DPTR
   \   000022   A3           INC       DPTR
   \   000023   E0           MOVX      A,@DPTR
   \   000024   F8           MOV       R0,A
   \   000025   A3           INC       DPTR
   \   000026   E0           MOVX      A,@DPTR
   \   000027   F583         MOV       DPH,A
   \   000029   8882         MOV       DPL,R0
   \   00002B   E0           MOVX      A,@DPTR
   \   00002C   FA           MOV       R2,A
   \   00002D   A9..         MOV       R1,?V0
   \   00002F   12....       LCALL     `??zdoSendStateChangeMsg::?relay`; Banked call to: zdoSendStateChangeMsg
    500              }
    501          
    502              pItem = pItem->nextDesc;
   \                     ??ZDO_UpdateNwkStatus_2:
   \   000032   8E82         MOV       DPL,R6
   \   000034   8F83         MOV       DPH,R7
   \   000036   E0           MOVX      A,@DPTR
   \   000037   F8           MOV       R0,A
   \   000038   A3           INC       DPTR
   \   000039   E0           MOVX      A,@DPTR
   \   00003A   F9           MOV       R1,A
   \   00003B   E8           MOV       A,R0
   \   00003C   FE           MOV       R6,A
   \   00003D   E9           MOV       A,R1
   \                     ??ZDO_UpdateNwkStatus_0:
   \   00003E   FF           MOV       R7,A
    503            }
   \   00003F   EE           MOV       A,R6
   \   000040   4F           ORL       A,R7
   \   000041   70CD         JNZ       ??ZDO_UpdateNwkStatus_1
    504          
    505            if ( zdpExternalStateTaskID != -1 )
   \   000043   90....       MOV       DPTR,#zdpExternalStateTaskID
   \   000046   E0           MOVX      A,@DPTR
   \   000047   F4           CPL       A
   \   000048   7003         JNZ       ??ZDO_UpdateNwkStatus_3
   \   00004A   A3           INC       DPTR
   \   00004B   E0           MOVX      A,@DPTR
   \   00004C   F4           CPL       A
   \                     ??ZDO_UpdateNwkStatus_3:
   \   00004D   600A         JZ        ??ZDO_UpdateNwkStatus_4
    506            {
    507              zdoSendStateChangeMsg( state, zdpExternalStateTaskID );
   \   00004F                ; Setup parameters for call to function zdoSendStateChangeMsg
   \   00004F   90....       MOV       DPTR,#zdpExternalStateTaskID
   \   000052   E0           MOVX      A,@DPTR
   \   000053   FA           MOV       R2,A
   \   000054   A9..         MOV       R1,?V0
   \   000056   12....       LCALL     `??zdoSendStateChangeMsg::?relay`; Banked call to: zdoSendStateChangeMsg
    508            }
    509          
    510            ZDAppNwkAddr.addr.shortAddr = NLME_GetShortAddr();
   \                     ??ZDO_UpdateNwkStatus_4:
   \   000059                ; Setup parameters for call to function NLME_GetShortAddr
   \   000059   12....       LCALL     `??NLME_GetShortAddr::?relay`; Banked call to: NLME_GetShortAddr
   \   00005C   90....       MOV       DPTR,#ZDAppNwkAddr
   \   00005F   EA           MOV       A,R2
   \   000060   F0           MOVX      @DPTR,A
   \   000061   A3           INC       DPTR
   \   000062   EB           MOV       A,R3
   \   000063   F0           MOVX      @DPTR,A
    511            (void)NLME_GetExtAddr();  // Load the saveExtAddr pointer.
   \   000064                ; Setup parameters for call to function NLME_GetExtAddr
   \   000064   12....       LCALL     `??NLME_GetExtAddr::?relay`; Banked call to: NLME_GetExtAddr
    512          }
   \   000067   7F01         MOV       R7,#0x1
   \   000069   02....       LJMP      ?BANKED_LEAVE_XDATA
    513          
    514          #if defined ( REFLECTOR )
    515          /*********************************************************************
    516           * @fn          ZDO_RemoveEndDeviceBind
    517           *
    518           * @brief       Remove the end device bind
    519           *
    520           * @param  none
    521           *
    522           * @return      none
    523           */

   \                                 In  segment BANKED_CODE, align 1, keep-with-next
    524          static void ZDO_RemoveEndDeviceBind( void )
   \                     ZDO_RemoveEndDeviceBind:
    525          {
   \   000000   C082         PUSH      DPL
   \   000002   C083         PUSH      DPH
   \   000004                ; Saved register size: 2
   \   000004                ; Auto size: 0
    526            if ( ZDO_EDBind != NULL )
   \   000004   90....       MOV       DPTR,#ZDO_EDBind
   \   000007   E0           MOVX      A,@DPTR
   \   000008   F8           MOV       R0,A
   \   000009   A3           INC       DPTR
   \   00000A   E0           MOVX      A,@DPTR
   \   00000B   F9           MOV       R1,A
   \   00000C   E8           MOV       A,R0
   \   00000D   49           ORL       A,R1
   \   00000E   604A         JZ        ??ZDO_RemoveEndDeviceBind_0
    527            {
    528              // Free the RAM
    529              if ( ZDO_EDBind->inClusters != NULL )
   \   000010   90....       MOV       DPTR,#ZDO_EDBind
   \   000013   E0           MOVX      A,@DPTR
   \   000014   F8           MOV       R0,A
   \   000015   A3           INC       DPTR
   \   000016   E0           MOVX      A,@DPTR
   \   000017   C8           XCH       A,R0
   \   000018   2410         ADD       A,#0x10
   \   00001A   F582         MOV       DPL,A
   \   00001C   E4           CLR       A
   \   00001D   38           ADDC      A,R0
   \   00001E   F583         MOV       DPH,A
   \   000020   E0           MOVX      A,@DPTR
   \   000021   FA           MOV       R2,A
   \   000022   A3           INC       DPTR
   \   000023   E0           MOVX      A,@DPTR
   \   000024   FB           MOV       R3,A
   \   000025   EA           MOV       A,R2
   \   000026   4B           ORL       A,R3
   \   000027   6003         JZ        ??ZDO_RemoveEndDeviceBind_1
    530              {
    531                osal_mem_free( ZDO_EDBind->inClusters );
   \   000029                ; Setup parameters for call to function osal_mem_free
   \   000029   12....       LCALL     `??osal_mem_free::?relay`; Banked call to: osal_mem_free
    532              }
    533              if ( ZDO_EDBind->outClusters != NULL )
   \                     ??ZDO_RemoveEndDeviceBind_1:
   \   00002C   90....       MOV       DPTR,#ZDO_EDBind
   \   00002F   E0           MOVX      A,@DPTR
   \   000030   F8           MOV       R0,A
   \   000031   A3           INC       DPTR
   \   000032   E0           MOVX      A,@DPTR
   \   000033   C8           XCH       A,R0
   \   000034   2413         ADD       A,#0x13
   \   000036   F582         MOV       DPL,A
   \   000038   E4           CLR       A
   \   000039   38           ADDC      A,R0
   \   00003A   F583         MOV       DPH,A
   \   00003C   E0           MOVX      A,@DPTR
   \   00003D   FA           MOV       R2,A
   \   00003E   A3           INC       DPTR
   \   00003F   E0           MOVX      A,@DPTR
   \   000040   FB           MOV       R3,A
   \   000041   EA           MOV       A,R2
   \   000042   4B           ORL       A,R3
   \   000043   6003         JZ        ??ZDO_RemoveEndDeviceBind_2
    534              {
    535                osal_mem_free( ZDO_EDBind->outClusters );
   \   000045                ; Setup parameters for call to function osal_mem_free
   \   000045   12....       LCALL     `??osal_mem_free::?relay`; Banked call to: osal_mem_free
    536              }
    537              osal_mem_free( ZDO_EDBind );
   \                     ??ZDO_RemoveEndDeviceBind_2:
   \   000048                ; Setup parameters for call to function osal_mem_free
   \   000048   90....       MOV       DPTR,#ZDO_EDBind
   \   00004B   E0           MOVX      A,@DPTR
   \   00004C   FA           MOV       R2,A
   \   00004D   A3           INC       DPTR
   \   00004E   E0           MOVX      A,@DPTR
   \   00004F   FB           MOV       R3,A
   \   000050   12....       LCALL     `??osal_mem_free::?relay`; Banked call to: osal_mem_free
    538              ZDO_EDBind = NULL;
   \   000053   90....       MOV       DPTR,#ZDO_EDBind
   \   000056   E4           CLR       A
   \   000057   F0           MOVX      @DPTR,A
   \   000058   A3           INC       DPTR
   \   000059   F0           MOVX      @DPTR,A
    539            }
    540          }
   \                     ??ZDO_RemoveEndDeviceBind_0:
   \   00005A   D083         POP       DPH
   \   00005C   D082         POP       DPL
   \   00005E   02....       LJMP      ?BRET
    541          #endif // REFLECTOR
    542          
    543          #if defined ( REFLECTOR )
    544          /*********************************************************************
    545           * @fn          ZDO_SendEDBindRsp
    546           *
    547           * @brief       Send the end device bind response
    548           *
    549           * @param  none
    550           *
    551           * @return      none
    552           */

   \                                 In  segment BANKED_CODE, align 1, keep-with-next
    553          static void ZDO_SendEDBindRsp( byte TransSeq, zAddrType_t *dstAddr, byte Status, byte secUse )
   \                     ZDO_SendEDBindRsp:
    554          {
   \   000000                REQUIRE ?V0
   \   000000                REQUIRE ?V1
   \   000000   74F6         MOV       A,#-0xa
   \   000002   12....       LCALL     ?BANKED_ENTER_XDATA
   \   000005                ; Saved register size: 10
   \   000005                ; Auto size: 2
   \   000005   74FE         MOV       A,#-0x2
   \   000007   12....       LCALL     ?ALLOC_XSTACK8
   \   00000A   E9           MOV       A,R1
   \   00000B   C0E0         PUSH      A
   \   00000D   7401         MOV       A,#0x1
   \   00000F   12....       LCALL     ?XSTACK_DISP0_8
   \   000012   D0E0         POP       A
   \   000014   F0           MOVX      @DPTR,A
   \   000015   EC           MOV       A,R4
   \   000016   85..82       MOV       DPL,?XSP + 0
   \   000019   85..83       MOV       DPH,?XSP + 1
   \   00001C   F0           MOVX      @DPTR,A
   \   00001D   ED           MOV       A,R5
    555            ZDP_EndDeviceBindRsp( TransSeq, dstAddr, Status, secUse );
   \   00001E                ; Setup parameters for call to function ZDP_SendData
   \   00001E   F5..         MOV       ?V0,A
   \   000020   78..         MOV       R0,#?V0
   \   000022   12....       LCALL     ?PUSH_XSTACK_I_ONE
   \   000025   7401         MOV       A,#0x1
   \   000027   12....       LCALL     ?XSTACK_DISP100_8
   \   00002A   88..         MOV       ?V0,R0
   \   00002C   89..         MOV       ?V1,R1
   \   00002E   78..         MOV       R0,#?V0
   \   000030   12....       LCALL     ?PUSH_XSTACK_I_TWO
   \   000033   75..20       MOV       ?V0,#0x20
   \   000036   75..80       MOV       ?V1,#-0x80
   \   000039   78..         MOV       R0,#?V0
   \   00003B   12....       LCALL     ?PUSH_XSTACK_I_TWO
   \   00003E   7901         MOV       R1,#0x1
   \   000040   EA           MOV       A,R2
   \   000041   FC           MOV       R4,A
   \   000042   EB           MOV       A,R3
   \   000043   FD           MOV       R5,A
   \   000044   7406         MOV       A,#0x6
   \   000046   12....       LCALL     ?XSTACK_DISP101_8
   \   000049   12....       LCALL     `??ZDP_SendData::?relay`; Banked call to: ZDP_SendData
   \   00004C   7405         MOV       A,#0x5
   \   00004E   12....       LCALL     ?DEALLOC_XSTACK8
    556          
    557          #if defined( LCD_SUPPORTED )
    558            HalLcdWriteString( "End Device Bind", HAL_LCD_LINE_1 );
   \   000051                ; Setup parameters for call to function HalLcdWriteString
   \   000051   7901         MOV       R1,#0x1
   \   000053   7A..         MOV       R2,#`?<Constant "End Device Bind">` & 0xff
   \   000055   7B..         MOV       R3,#(`?<Constant "End Device Bind">` >> 8) & 0xff
   \   000057   12....       LCALL     `??HalLcdWriteString::?relay`; Banked call to: HalLcdWriteString
    559            if ( Status == ZDP_SUCCESS )
   \   00005A   85..82       MOV       DPL,?XSP + 0
   \   00005D   85..83       MOV       DPH,?XSP + 1
   \   000060   E0           MOVX      A,@DPTR
   \   000061   7902         MOV       R1,#0x2
   \   000063   7006         JNZ       ??ZDO_SendEDBindRsp_0
    560            {
    561              HalLcdWriteString( "Success Sent", HAL_LCD_LINE_2 );
   \   000065                ; Setup parameters for call to function HalLcdWriteString
   \   000065   7A..         MOV       R2,#`?<Constant "Success Sent">` & 0xff
   \   000067   7B..         MOV       R3,#(`?<Constant "Success Sent">` >> 8) & 0xff
   \   000069   8004         SJMP      ??ZDO_SendEDBindRsp_1
    562            }
    563            else
    564            {
    565              HalLcdWriteString( "Timeout", HAL_LCD_LINE_2 );
   \                     ??ZDO_SendEDBindRsp_0:
   \   00006B                ; Setup parameters for call to function HalLcdWriteString
   \   00006B   7A..         MOV       R2,#`?<Constant "Timeout">` & 0xff
   \   00006D   7B..         MOV       R3,#(`?<Constant "Timeout">` >> 8) & 0xff
   \                     ??ZDO_SendEDBindRsp_1:
   \   00006F   12....       LCALL     `??HalLcdWriteString::?relay`; Banked call to: HalLcdWriteString
    566            }
    567          #endif
    568          
    569          }
   \   000072   7402         MOV       A,#0x2
   \   000074   12....       LCALL     ?DEALLOC_XSTACK8
   \   000077   7F02         MOV       R7,#0x2
   \   000079   02....       LJMP      ?BANKED_LEAVE_XDATA
    570          #endif // REFLECTOR
    571          
    572          #if ( ZG_BUILD_COORDINATOR_TYPE )
    573          /*********************************************************************
    574           * @fn          ZDO_CompareClusterLists
    575           *
    576           * @brief       Compare one list to another list
    577           *
    578           * @param       numList1 - number of items in list 1
    579           * @param       list1 - first list of cluster IDs
    580           * @param       numList2 - number of items in list 2
    581           * @param       list2 - second list of cluster IDs
    582           * @param       pMatches - buffer to put matches
    583           *
    584           * @return      number of matches
    585           */
    586          static byte ZDO_CompareClusterLists( byte numList1, uint16 *list1,
    587                                    byte numList2, uint16 *list2, uint16 *pMatches )
    588          {
    589            byte x, y;
    590            uint16 z;
    591            byte numMatches = 0;
    592          
    593            // Check the first in against the seconds out
    594            for ( x = 0; x < numList1; x++ )
    595            {
    596              for ( y = 0; y < numList2; y++ )
    597              {
    598                z = list2[y];
    599                if ( list1[x] == z )
    600                {
    601                  pMatches[numMatches++] = z;
    602                }
    603              }
    604            }
    605          
    606            return ( numMatches );
    607          }
    608          #endif // ZG_BUILD_COORDINATOR_TYPE
    609          
    610          /*********************************************************************
    611           * Utility functions
    612           */
    613          
    614          /*********************************************************************
    615           * @fn          ZDO_CompareByteLists
    616           *
    617           * @brief       Compares two lists for matches.
    618           *
    619           * @param       ACnt  - number of entries in list A
    620           * @param       AList  - List A
    621           * @param       BCnt  - number of entries in list B
    622           * @param       BList  - List B
    623           *
    624           * @return      true if a match is found
    625           */

   \                                 In  segment BANKED_CODE, align 1, keep-with-next
    626          byte ZDO_AnyClusterMatches( byte ACnt, uint16 *AList, byte BCnt, uint16 *BList )
   \                     ZDO_AnyClusterMatches:
    627          {
   \   000000                REQUIRE ?V0
   \   000000                REQUIRE ?V1
   \   000000                REQUIRE ?V2
   \   000000                REQUIRE ?V3
   \   000000   74F4         MOV       A,#-0xc
   \   000002   12....       LCALL     ?BANKED_ENTER_XDATA
   \   000005                ; Saved register size: 12
   \   000005                ; Auto size: 0
   \   000005   89..         MOV       ?V3,R1
    628            byte x, y;
    629          
    630            for ( x = 0; x < ACnt; x++ )
   \   000007   7D00         MOV       R5,#0x0
   \   000009   740C         MOV       A,#0xc
   \   00000B   12....       LCALL     ?XSTACK_DISP0_8
   \   00000E   E0           MOVX      A,@DPTR
   \   00000F   F8           MOV       R0,A
   \   000010   A3           INC       DPTR
   \   000011   E0           MOVX      A,@DPTR
   \   000012   F9           MOV       R1,A
   \   000013   8001         SJMP      ??ZDO_AnyClusterMatches_0
   \                     ??ZDO_AnyClusterMatches_1:
   \   000015   0D           INC       R5
   \                     ??ZDO_AnyClusterMatches_0:
   \   000016   ED           MOV       A,R5
   \   000017   C3           CLR       C
   \   000018   95..         SUBB      A,?V3
   \   00001A   5042         JNC       ??ZDO_AnyClusterMatches_2
    631            {
    632              for ( y = 0; y < BCnt; y++ )
   \   00001C   75..00       MOV       ?V2,#0x0
   \   00001F   8002         SJMP      ??ZDO_AnyClusterMatches_3
   \                     ??ZDO_AnyClusterMatches_4:
   \   000021   05..         INC       ?V2
   \                     ??ZDO_AnyClusterMatches_3:
   \   000023   E5..         MOV       A,?V2
   \   000025   C3           CLR       C
   \   000026   9C           SUBB      A,R4
   \   000027   50EC         JNC       ??ZDO_AnyClusterMatches_1
    633              {
    634                if ( AList[x] == BList[y] )
   \   000029   ED           MOV       A,R5
   \   00002A   25E0         ADD       A,0xE0 /* A   */
   \   00002C   FE           MOV       R6,A
   \   00002D   E4           CLR       A
   \   00002E   33           RLC       A
   \   00002F   FF           MOV       R7,A
   \   000030   EA           MOV       A,R2
   \   000031   2E           ADD       A,R6
   \   000032   F582         MOV       DPL,A
   \   000034   EB           MOV       A,R3
   \   000035   3F           ADDC      A,R7
   \   000036   F583         MOV       DPH,A
   \   000038   E0           MOVX      A,@DPTR
   \   000039   F5..         MOV       ?V0,A
   \   00003B   A3           INC       DPTR
   \   00003C   E0           MOVX      A,@DPTR
   \   00003D   F5..         MOV       ?V1,A
   \   00003F   AE..         MOV       R6,?V2
   \   000041   EE           MOV       A,R6
   \   000042   2E           ADD       A,R6
   \   000043   FE           MOV       R6,A
   \   000044   E4           CLR       A
   \   000045   33           RLC       A
   \   000046   FF           MOV       R7,A
   \   000047   E8           MOV       A,R0
   \   000048   2E           ADD       A,R6
   \   000049   F582         MOV       DPL,A
   \   00004B   E9           MOV       A,R1
   \   00004C   3F           ADDC      A,R7
   \   00004D   F583         MOV       DPH,A
   \   00004F   E0           MOVX      A,@DPTR
   \   000050   65..         XRL       A,?V0
   \   000052   7004         JNZ       ??ZDO_AnyClusterMatches_5
   \   000054   A3           INC       DPTR
   \   000055   E0           MOVX      A,@DPTR
   \   000056   65..         XRL       A,?V1
   \                     ??ZDO_AnyClusterMatches_5:
   \   000058   70C7         JNZ       ??ZDO_AnyClusterMatches_4
    635                {
    636                  return true;
   \   00005A   7901         MOV       R1,#0x1
   \   00005C   8002         SJMP      ??ZDO_AnyClusterMatches_6
    637                }
    638              }
    639            }
    640          
    641            return false;
   \                     ??ZDO_AnyClusterMatches_2:
   \   00005E   7900         MOV       R1,#0x0
   \                     ??ZDO_AnyClusterMatches_6:
   \   000060   7F04         MOV       R7,#0x4
   \   000062   02....       LJMP      ?BANKED_LEAVE_XDATA
    642          }
    643          
    644          /*********************************************************************
    645           * Callback functions from ZDProfile
    646           */
    647          
    648          
    649          /*********************************************************************
    650           * @fn          ZDO_ProcessNodeDescRsp
    651           *
    652           * @brief       This function processes the Node_Desc_rsp and request
    653           *              Update the TC Link key if the TC supports it.
    654           *
    655           * @param       inMsg - incoming message
    656           *
    657           * @return      none
    658           */

   \                                 In  segment BANKED_CODE, align 1, keep-with-next
    659          void ZDO_ProcessNodeDescRsp ( zdoIncomingMsg_t *inMsg )
   \                     ZDO_ProcessNodeDescRsp:
    660          {
   \   000000                ; Saved register size: 0
   \   000000                ; Auto size: 0
    661          }
   \   000000   02....       LJMP      ?BRET
    662          
    663          
    664          
    665          /*********************************************************************
    666           * @fn          ZDO_ProcessNodeDescReq
    667           *
    668           * @brief       This function processes and responds to the
    669           *              Node_Desc_req message.
    670           *
    671           * @param       inMsg - incoming message
    672           *
    673           * @return      none
    674           */

   \                                 In  segment BANKED_CODE, align 1, keep-with-next
    675          void ZDO_ProcessNodeDescReq( zdoIncomingMsg_t *inMsg )
   \                     ZDO_ProcessNodeDescReq:
    676          {
   \   000000                REQUIRE ?V0
   \   000000                REQUIRE ?V1
   \   000000   74F6         MOV       A,#-0xa
   \   000002   12....       LCALL     ?BANKED_ENTER_XDATA
   \   000005                ; Saved register size: 10
   \   000005                ; Auto size: 0
   \   000005   EA           MOV       A,R2
   \   000006   FE           MOV       R6,A
   \   000007   EB           MOV       A,R3
   \   000008   FF           MOV       R7,A
    677            uint16 aoi = BUILD_UINT16( inMsg->asdu[0], inMsg->asdu[1] );
   \   000009   EA           MOV       A,R2
   \   00000A   2413         ADD       A,#0x13
   \   00000C   F582         MOV       DPL,A
   \   00000E   E4           CLR       A
   \   00000F   3F           ADDC      A,R7
   \   000010   F583         MOV       DPH,A
   \   000012   E0           MOVX      A,@DPTR
   \   000013   F8           MOV       R0,A
   \   000014   A3           INC       DPTR
   \   000015   E0           MOVX      A,@DPTR
   \   000016   8882         MOV       DPL,R0
   \   000018   F583         MOV       DPH,A
   \   00001A   E0           MOVX      A,@DPTR
   \   00001B   FA           MOV       R2,A
   \   00001C   A3           INC       DPTR
   \   00001D   E0           MOVX      A,@DPTR
   \   00001E   F8           MOV       R0,A
   \   00001F   E4           CLR       A
   \   000020   C8           XCH       A,R0
   \   000021   F9           MOV       R1,A
   \   000022   EA           MOV       A,R2
   \   000023   28           ADD       A,R0
   \   000024   FC           MOV       R4,A
   \   000025   E4           CLR       A
   \   000026   39           ADDC      A,R1
   \   000027   FD           MOV       R5,A
    678            NodeDescriptorFormat_t *desc = NULL;
   \   000028   88..         MOV       ?V0,R0
   \   00002A   88..         MOV       ?V1,R0
    679          
    680            if ( aoi == ZDAppNwkAddr.addr.shortAddr )
   \   00002C   90....       MOV       DPTR,#ZDAppNwkAddr
   \   00002F   E0           MOVX      A,@DPTR
   \   000030   6C           XRL       A,R4
   \   000031   7003         JNZ       ??ZDO_ProcessNodeDescReq_0
   \   000033   A3           INC       DPTR
   \   000034   E0           MOVX      A,@DPTR
   \   000035   6D           XRL       A,R5
   \                     ??ZDO_ProcessNodeDescReq_0:
   \   000036   7006         JNZ       ??ZDO_ProcessNodeDescReq_1
    681            {
    682              desc = &ZDO_Config_Node_Descriptor;
   \   000038   75....       MOV       ?V0,#ZDO_Config_Node_Descriptor & 0xff
   \   00003B   75....       MOV       ?V1,#(ZDO_Config_Node_Descriptor >> 8) & 0xff
    683            }
    684          
    685            if ( desc != NULL )
   \                     ??ZDO_ProcessNodeDescReq_1:
   \   00003E   E5..         MOV       A,?V0
   \   000040   45..         ORL       A,?V1
   \   000042   6011         JZ        ??ZDO_ProcessNodeDescReq_2
    686            {
    687              ZDP_NodeDescMsg( inMsg, aoi, desc );
   \   000044                ; Setup parameters for call to function ZDP_NodeDescMsg
   \   000044   78..         MOV       R0,#?V0
   \   000046   12....       LCALL     ?PUSH_XSTACK_I_TWO
   \   000049   EE           MOV       A,R6
   \   00004A   FA           MOV       R2,A
   \   00004B   12....       LCALL     `??ZDP_NodeDescMsg::?relay`; Banked call to: ZDP_NodeDescMsg
   \   00004E   7402         MOV       A,#0x2
   \   000050   12....       LCALL     ?DEALLOC_XSTACK8
   \   000053   803B         SJMP      ??ZDO_ProcessNodeDescReq_3
    688            }
    689            else
    690            {
    691              ZDP_GenericRsp( inMsg->TransSeq, &(inMsg->srcAddr),
    692                        ZDP_INVALID_REQTYPE, aoi, Node_Desc_rsp, inMsg->SecurityUse );
   \                     ??ZDO_ProcessNodeDescReq_2:
   \   000055                ; Setup parameters for call to function ZDP_GenericRsp
   \   000055   75..02       MOV       ?V0,#0x2
   \   000058   75..80       MOV       ?V1,#-0x80
   \   00005B   78..         MOV       R0,#?V0
   \   00005D   12....       LCALL     ?PUSH_XSTACK_I_TWO
   \   000060   8A..         MOV       ?V0,R2
   \   000062   89..         MOV       ?V1,R1
   \   000064   78..         MOV       R0,#?V0
   \   000066   12....       LCALL     ?PUSH_XSTACK_I_TWO
   \   000069   EE           MOV       A,R6
   \   00006A   240E         ADD       A,#0xe
   \   00006C   F582         MOV       DPL,A
   \   00006E   E4           CLR       A
   \   00006F   3F           ADDC      A,R7
   \   000070   F583         MOV       DPH,A
   \   000072   E0           MOVX      A,@DPTR
   \   000073   FD           MOV       R5,A
   \   000074   7C80         MOV       R4,#-0x80
   \   000076   EE           MOV       A,R6
   \   000077   2402         ADD       A,#0x2
   \   000079   FA           MOV       R2,A
   \   00007A   E4           CLR       A
   \   00007B   3F           ADDC      A,R7
   \   00007C   FB           MOV       R3,A
   \   00007D   EE           MOV       A,R6
   \   00007E   240F         ADD       A,#0xf
   \   000080   F582         MOV       DPL,A
   \   000082   E4           CLR       A
   \   000083   3F           ADDC      A,R7
   \   000084   F583         MOV       DPH,A
   \   000086   E0           MOVX      A,@DPTR
   \   000087   F9           MOV       R1,A
   \   000088   12....       LCALL     `??ZDP_GenericRsp::?relay`; Banked call to: ZDP_GenericRsp
   \   00008B   7404         MOV       A,#0x4
   \   00008D   12....       LCALL     ?DEALLOC_XSTACK8
    693            }
    694          }
   \                     ??ZDO_ProcessNodeDescReq_3:
   \   000090   7F02         MOV       R7,#0x2
   \   000092   02....       LJMP      ?BANKED_LEAVE_XDATA
    695          
    696          /*********************************************************************
    697           * @fn          ZDO_ProcessPowerDescReq
    698           *
    699           * @brief       This function processes and responds to the
    700           *              Node_Power_req message.
    701           *
    702           * @param       inMsg  - incoming request
    703           *
    704           * @return      none
    705           */

   \                                 In  segment BANKED_CODE, align 1, keep-with-next
    706          void ZDO_ProcessPowerDescReq( zdoIncomingMsg_t *inMsg )
   \                     ZDO_ProcessPowerDescReq:
    707          {
   \   000000                REQUIRE ?V0
   \   000000                REQUIRE ?V1
   \   000000   74F6         MOV       A,#-0xa
   \   000002   12....       LCALL     ?BANKED_ENTER_XDATA
   \   000005                ; Saved register size: 10
   \   000005                ; Auto size: 0
   \   000005   EA           MOV       A,R2
   \   000006   FE           MOV       R6,A
   \   000007   EB           MOV       A,R3
   \   000008   FF           MOV       R7,A
    708            uint16 aoi = BUILD_UINT16( inMsg->asdu[0], inMsg->asdu[1] );
   \   000009   EA           MOV       A,R2
   \   00000A   2413         ADD       A,#0x13
   \   00000C   F582         MOV       DPL,A
   \   00000E   E4           CLR       A
   \   00000F   3F           ADDC      A,R7
   \   000010   F583         MOV       DPH,A
   \   000012   E0           MOVX      A,@DPTR
   \   000013   F8           MOV       R0,A
   \   000014   A3           INC       DPTR
   \   000015   E0           MOVX      A,@DPTR
   \   000016   8882         MOV       DPL,R0
   \   000018   F583         MOV       DPH,A
   \   00001A   E0           MOVX      A,@DPTR
   \   00001B   FA           MOV       R2,A
   \   00001C   A3           INC       DPTR
   \   00001D   E0           MOVX      A,@DPTR
   \   00001E   F8           MOV       R0,A
   \   00001F   E4           CLR       A
   \   000020   C8           XCH       A,R0
   \   000021   F9           MOV       R1,A
   \   000022   EA           MOV       A,R2
   \   000023   28           ADD       A,R0
   \   000024   FC           MOV       R4,A
   \   000025   E4           CLR       A
   \   000026   39           ADDC      A,R1
   \   000027   FD           MOV       R5,A
    709            NodePowerDescriptorFormat_t *desc = NULL;
   \   000028   88..         MOV       ?V0,R0
   \   00002A   88..         MOV       ?V1,R0
    710          
    711            if ( aoi == ZDAppNwkAddr.addr.shortAddr )
   \   00002C   90....       MOV       DPTR,#ZDAppNwkAddr
   \   00002F   E0           MOVX      A,@DPTR
   \   000030   6C           XRL       A,R4
   \   000031   7003         JNZ       ??ZDO_ProcessPowerDescReq_0
   \   000033   A3           INC       DPTR
   \   000034   E0           MOVX      A,@DPTR
   \   000035   6D           XRL       A,R5
   \                     ??ZDO_ProcessPowerDescReq_0:
   \   000036   7006         JNZ       ??ZDO_ProcessPowerDescReq_1
    712            {
    713              desc = &ZDO_Config_Power_Descriptor;
   \   000038   75....       MOV       ?V0,#ZDO_Config_Power_Descriptor & 0xff
   \   00003B   75....       MOV       ?V1,#(ZDO_Config_Power_Descriptor >> 8) & 0xff
    714            }
    715          
    716            if ( desc != NULL )
   \                     ??ZDO_ProcessPowerDescReq_1:
   \   00003E   E5..         MOV       A,?V0
   \   000040   45..         ORL       A,?V1
   \   000042   6011         JZ        ??ZDO_ProcessPowerDescReq_2
    717            {
    718              ZDP_PowerDescMsg( inMsg, aoi, desc );
   \   000044                ; Setup parameters for call to function ZDP_PowerDescMsg
   \   000044   78..         MOV       R0,#?V0
   \   000046   12....       LCALL     ?PUSH_XSTACK_I_TWO
   \   000049   EE           MOV       A,R6
   \   00004A   FA           MOV       R2,A
   \   00004B   12....       LCALL     `??ZDP_PowerDescMsg::?relay`; Banked call to: ZDP_PowerDescMsg
   \   00004E   7402         MOV       A,#0x2
   \   000050   12....       LCALL     ?DEALLOC_XSTACK8
   \   000053   803B         SJMP      ??ZDO_ProcessPowerDescReq_3
    719            }
    720            else
    721            {
    722              ZDP_GenericRsp( inMsg->TransSeq, &(inMsg->srcAddr),
    723                        ZDP_INVALID_REQTYPE, aoi, Power_Desc_rsp, inMsg->SecurityUse );
   \                     ??ZDO_ProcessPowerDescReq_2:
   \   000055                ; Setup parameters for call to function ZDP_GenericRsp
   \   000055   75..03       MOV       ?V0,#0x3
   \   000058   75..80       MOV       ?V1,#-0x80
   \   00005B   78..         MOV       R0,#?V0
   \   00005D   12....       LCALL     ?PUSH_XSTACK_I_TWO
   \   000060   8A..         MOV       ?V0,R2
   \   000062   89..         MOV       ?V1,R1
   \   000064   78..         MOV       R0,#?V0
   \   000066   12....       LCALL     ?PUSH_XSTACK_I_TWO
   \   000069   EE           MOV       A,R6
   \   00006A   240E         ADD       A,#0xe
   \   00006C   F582         MOV       DPL,A
   \   00006E   E4           CLR       A
   \   00006F   3F           ADDC      A,R7
   \   000070   F583         MOV       DPH,A
   \   000072   E0           MOVX      A,@DPTR
   \   000073   FD           MOV       R5,A
   \   000074   7C80         MOV       R4,#-0x80
   \   000076   EE           MOV       A,R6
   \   000077   2402         ADD       A,#0x2
   \   000079   FA           MOV       R2,A
   \   00007A   E4           CLR       A
   \   00007B   3F           ADDC      A,R7
   \   00007C   FB           MOV       R3,A
   \   00007D   EE           MOV       A,R6
   \   00007E   240F         ADD       A,#0xf
   \   000080   F582         MOV       DPL,A
   \   000082   E4           CLR       A
   \   000083   3F           ADDC      A,R7
   \   000084   F583         MOV       DPH,A
   \   000086   E0           MOVX      A,@DPTR
   \   000087   F9           MOV       R1,A
   \   000088   12....       LCALL     `??ZDP_GenericRsp::?relay`; Banked call to: ZDP_GenericRsp
   \   00008B   7404         MOV       A,#0x4
   \   00008D   12....       LCALL     ?DEALLOC_XSTACK8
    724            }
    725          }
   \                     ??ZDO_ProcessPowerDescReq_3:
   \   000090   7F02         MOV       R7,#0x2
   \   000092   02....       LJMP      ?BANKED_LEAVE_XDATA
    726          
    727          /*********************************************************************
    728           * @fn          ZDO_ProcessSimpleDescReq
    729           *
    730           * @brief       This function processes and responds to the
    731           *              Simple_Desc_req message.
    732           *
    733           * @param       inMsg - incoming message (request)
    734           *
    735           * @return      none
    736           */

   \                                 In  segment BANKED_CODE, align 1, keep-with-next
    737          void ZDO_ProcessSimpleDescReq( zdoIncomingMsg_t *inMsg )
   \                     ZDO_ProcessSimpleDescReq:
    738          {
   \   000000                REQUIRE ?V0
   \   000000                REQUIRE ?V1
   \   000000   74F6         MOV       A,#-0xa
   \   000002   12....       LCALL     ?BANKED_ENTER_XDATA
   \   000005                ; Saved register size: 10
   \   000005                ; Auto size: 2
   \   000005   74FE         MOV       A,#-0x2
   \   000007   12....       LCALL     ?ALLOC_XSTACK8
   \   00000A   EA           MOV       A,R2
   \   00000B   FE           MOV       R6,A
   \   00000C   EB           MOV       A,R3
   \   00000D   FF           MOV       R7,A
    739            SimpleDescriptionFormat_t *sDesc = NULL;
   \   00000E   85..82       MOV       DPL,?XSP + 0
   \   000011   85..83       MOV       DPH,?XSP + 1
   \   000014   E4           CLR       A
   \   000015   F0           MOVX      @DPTR,A
   \   000016   A3           INC       DPTR
   \   000017   F0           MOVX      @DPTR,A
    740            uint16 aoi = BUILD_UINT16( inMsg->asdu[0], inMsg->asdu[1] );
   \   000018   EA           MOV       A,R2
   \   000019   2413         ADD       A,#0x13
   \   00001B   F582         MOV       DPL,A
   \   00001D   E4           CLR       A
   \   00001E   3F           ADDC      A,R7
   \   00001F   F583         MOV       DPH,A
   \   000021   E0           MOVX      A,@DPTR
   \   000022   F8           MOV       R0,A
   \   000023   A3           INC       DPTR
   \   000024   E0           MOVX      A,@DPTR
   \   000025   F9           MOV       R1,A
   \   000026   8882         MOV       DPL,R0
   \   000028   F583         MOV       DPH,A
   \   00002A   E0           MOVX      A,@DPTR
   \   00002B   FC           MOV       R4,A
   \   00002C   A3           INC       DPTR
   \   00002D   E0           MOVX      A,@DPTR
   \   00002E   FB           MOV       R3,A
   \   00002F   EC           MOV       A,R4
   \   000030   FA           MOV       R2,A
    741            byte endPoint = inMsg->asdu[2];
   \   000031   8882         MOV       DPL,R0
   \   000033   8983         MOV       DPH,R1
   \   000035   A3           INC       DPTR
   \   000036   A3           INC       DPTR
   \   000037   E0           MOVX      A,@DPTR
   \   000038   F9           MOV       R1,A
    742            byte free = false;
   \   000039   75..00       MOV       ?V1,#0x0
    743            byte stat = ZDP_SUCCESS;
   \   00003C   75..00       MOV       ?V0,#0x0
    744          
    745            if ( (endPoint == ZDO_EP) || (endPoint > MAX_ENDPOINTS) )
   \   00003F   6005         JZ        ??ZDO_ProcessSimpleDescReq_0
   \   000041   74FF         MOV       A,#-0x1
   \   000043   69           XRL       A,R1
   \   000044   7005         JNZ       ??ZDO_ProcessSimpleDescReq_1
    746            {
    747              stat = ZDP_INVALID_EP;
   \                     ??ZDO_ProcessSimpleDescReq_0:
   \   000046   75..82       MOV       ?V0,#-0x7e
   \   000049   802D         SJMP      ??ZDO_ProcessSimpleDescReq_2
    748            }
    749            else if ( aoi == ZDAppNwkAddr.addr.shortAddr )
   \                     ??ZDO_ProcessSimpleDescReq_1:
   \   00004B   90....       MOV       DPTR,#ZDAppNwkAddr
   \   00004E   E0           MOVX      A,@DPTR
   \   00004F   6A           XRL       A,R2
   \   000050   7003         JNZ       ??ZDO_ProcessSimpleDescReq_3
   \   000052   A3           INC       DPTR
   \   000053   E0           MOVX      A,@DPTR
   \   000054   6B           XRL       A,R3
   \                     ??ZDO_ProcessSimpleDescReq_3:
   \   000055   701E         JNZ       ??ZDO_ProcessSimpleDescReq_4
    750            {
    751              free = afFindSimpleDesc( &sDesc, endPoint );
   \   000057                ; Setup parameters for call to function afFindSimpleDesc
   \   000057   AA..         MOV       R2,?XSP + 0
   \   000059   AB..         MOV       R3,?XSP + 1
   \   00005B   12....       LCALL     `??afFindSimpleDesc::?relay`; Banked call to: afFindSimpleDesc
   \   00005E   E9           MOV       A,R1
   \   00005F   F5..         MOV       ?V1,A
    752              if ( sDesc == NULL )
   \   000061   85..82       MOV       DPL,?XSP + 0
   \   000064   85..83       MOV       DPH,?XSP + 1
   \   000067   E0           MOVX      A,@DPTR
   \   000068   F8           MOV       R0,A
   \   000069   A3           INC       DPTR
   \   00006A   E0           MOVX      A,@DPTR
   \   00006B   F9           MOV       R1,A
   \   00006C   E8           MOV       A,R0
   \   00006D   49           ORL       A,R1
   \   00006E   7008         JNZ       ??ZDO_ProcessSimpleDescReq_2
    753              {
    754                stat = ZDP_NOT_ACTIVE;
   \   000070   75..83       MOV       ?V0,#-0x7d
   \   000073   8003         SJMP      ??ZDO_ProcessSimpleDescReq_2
    755              }
    756            }
    757            else
    758            {
    759              if ( ZSTACK_ROUTER_BUILD )
    760              {
    761                //If child found, then no descriptor
    762                if(AssocIsChild(aoi))
    763                {
    764                  stat = ZDP_NO_DESCRIPTOR;
    765                }
    766                //Otherwise no device found
    767                else
    768                {
    769                  stat = ZDP_DEVICE_NOT_FOUND;
    770                }
    771              }
    772              else if ( ZSTACK_END_DEVICE_BUILD )
    773              {
    774                stat = ZDP_INVALID_REQTYPE;
   \                     ??ZDO_ProcessSimpleDescReq_4:
   \   000075   75..80       MOV       ?V0,#-0x80
    775              }
    776            }
    777          
    778            ZDP_SimpleDescMsg( inMsg, stat, sDesc );
   \                     ??ZDO_ProcessSimpleDescReq_2:
   \   000078                ; Setup parameters for call to function ZDP_SimpleDescMsg
   \   000078   85..82       MOV       DPL,?XSP + 0
   \   00007B   85..83       MOV       DPH,?XSP + 1
   \   00007E   E0           MOVX      A,@DPTR
   \   00007F   FC           MOV       R4,A
   \   000080   A3           INC       DPTR
   \   000081   E0           MOVX      A,@DPTR
   \   000082   FD           MOV       R5,A
   \   000083   A9..         MOV       R1,?V0
   \   000085   EE           MOV       A,R6
   \   000086   FA           MOV       R2,A
   \   000087   EF           MOV       A,R7
   \   000088   FB           MOV       R3,A
   \   000089   12....       LCALL     `??ZDP_SimpleDescMsg::?relay`; Banked call to: ZDP_SimpleDescMsg
    779          
    780            if ( free && sDesc )
   \   00008C   E5..         MOV       A,?V1
   \   00008E   601D         JZ        ??ZDO_ProcessSimpleDescReq_5
   \   000090   85..82       MOV       DPL,?XSP + 0
   \   000093   85..83       MOV       DPH,?XSP + 1
   \   000096   E0           MOVX      A,@DPTR
   \   000097   F8           MOV       R0,A
   \   000098   A3           INC       DPTR
   \   000099   E0           MOVX      A,@DPTR
   \   00009A   F9           MOV       R1,A
   \   00009B   E8           MOV       A,R0
   \   00009C   49           ORL       A,R1
   \   00009D   600E         JZ        ??ZDO_ProcessSimpleDescReq_5
    781            {
    782              osal_mem_free( sDesc );
   \   00009F                ; Setup parameters for call to function osal_mem_free
   \   00009F   85..82       MOV       DPL,?XSP + 0
   \   0000A2   85..83       MOV       DPH,?XSP + 1
   \   0000A5   E0           MOVX      A,@DPTR
   \   0000A6   FA           MOV       R2,A
   \   0000A7   A3           INC       DPTR
   \   0000A8   E0           MOVX      A,@DPTR
   \   0000A9   FB           MOV       R3,A
   \   0000AA   12....       LCALL     `??osal_mem_free::?relay`; Banked call to: osal_mem_free
    783            }
    784          }
   \                     ??ZDO_ProcessSimpleDescReq_5:
   \   0000AD   7402         MOV       A,#0x2
   \   0000AF   12....       LCALL     ?DEALLOC_XSTACK8
   \   0000B2   7F02         MOV       R7,#0x2
   \   0000B4   02....       LJMP      ?BANKED_LEAVE_XDATA
    785          
    786          /*********************************************************************
    787           * @fn          ZDO_ProcessSimpleDescRsp
    788           *
    789           * @brief       This function processes and responds to the
    790           *              Simple_Desc_rsp message.
    791           *
    792           * @param       inMsg - incoming message (request)
    793           *
    794           * @return      none
    795           */

   \                                 In  segment BANKED_CODE, align 1, keep-with-next
    796          void ZDO_ProcessSimpleDescRsp( zdoIncomingMsg_t *inMsg )
   \                     ZDO_ProcessSimpleDescRsp:
    797          {
   \   000000                ; Saved register size: 0
   \   000000                ; Auto size: 0
    798          
    799          }
   \   000000   02....       LJMP      ?BRET
    800          
    801          /*********************************************************************
    802           * @fn          ZDO_ProcessActiveEPReq
    803           *
    804           * @brief       This function processes and responds to the
    805           *              Active_EP_req message.
    806           *
    807           * @param       inMsg  - incoming message (request)
    808           *
    809           * @return      none
    810           */

   \                                 In  segment BANKED_CODE, align 1, keep-with-next
    811          void ZDO_ProcessActiveEPReq( zdoIncomingMsg_t *inMsg )
   \                     ZDO_ProcessActiveEPReq:
    812          {
   \   000000                REQUIRE ?V0
   \   000000                REQUIRE ?V1
   \   000000                REQUIRE ?V2
   \   000000                REQUIRE ?V3
   \   000000                REQUIRE ?V4
   \   000000                REQUIRE ?V5
   \   000000   74F2         MOV       A,#-0xe
   \   000002   12....       LCALL     ?BANKED_ENTER_XDATA
   \   000005                ; Saved register size: 14
   \   000005                ; Auto size: 0
   \   000005   EA           MOV       A,R2
   \   000006   FE           MOV       R6,A
   \   000007   EB           MOV       A,R3
   \   000008   FF           MOV       R7,A
    813            byte cnt = 0;
   \   000009   75..00       MOV       ?V0,#0x0
    814            uint16 aoi;
    815            byte stat = ZDP_SUCCESS;
   \   00000C   75..00       MOV       ?V1,#0x0
    816          
    817            aoi = BUILD_UINT16( inMsg->asdu[0], inMsg->asdu[1] );
   \   00000F   EA           MOV       A,R2
   \   000010   2413         ADD       A,#0x13
   \   000012   F582         MOV       DPL,A
   \   000014   E4           CLR       A
   \   000015   3F           ADDC      A,R7
   \   000016   F583         MOV       DPH,A
   \   000018   E0           MOVX      A,@DPTR
   \   000019   F8           MOV       R0,A
   \   00001A   A3           INC       DPTR
   \   00001B   E0           MOVX      A,@DPTR
   \   00001C   8882         MOV       DPL,R0
   \   00001E   F583         MOV       DPH,A
   \   000020   E0           MOVX      A,@DPTR
   \   000021   FA           MOV       R2,A
   \   000022   A3           INC       DPTR
   \   000023   E0           MOVX      A,@DPTR
   \   000024   F8           MOV       R0,A
   \   000025   E4           CLR       A
   \   000026   C8           XCH       A,R0
   \   000027   F9           MOV       R1,A
   \   000028   EA           MOV       A,R2
   \   000029   28           ADD       A,R0
   \   00002A   F5..         MOV       ?V2,A
   \   00002C   E4           CLR       A
   \   00002D   39           ADDC      A,R1
   \   00002E   F5..         MOV       ?V3,A
    818          
    819            if ( aoi == NLME_GetShortAddr() )
   \   000030                ; Setup parameters for call to function NLME_GetShortAddr
   \   000030   12....       LCALL     `??NLME_GetShortAddr::?relay`; Banked call to: NLME_GetShortAddr
   \   000033   EA           MOV       A,R2
   \   000034   65..         XRL       A,?V2
   \   000036   7003         JNZ       ??ZDO_ProcessActiveEPReq_0
   \   000038   EB           MOV       A,R3
   \   000039   65..         XRL       A,?V3
   \                     ??ZDO_ProcessActiveEPReq_0:
   \   00003B   7012         JNZ       ??ZDO_ProcessActiveEPReq_1
    820            {
    821              cnt = afNumEndPoints() - 1;  // -1 for ZDO endpoint descriptor
   \   00003D                ; Setup parameters for call to function afNumEndPoints
   \   00003D   12....       LCALL     `??afNumEndPoints::?relay`; Banked call to: afNumEndPoints
   \   000040   E9           MOV       A,R1
   \   000041   14           DEC       A
   \   000042   F5..         MOV       ?V0,A
    822              afEndPoints( (uint8 *)ZDOBuildBuf, true );
   \   000044                ; Setup parameters for call to function afEndPoints
   \   000044   7901         MOV       R1,#0x1
   \   000046   7A..         MOV       R2,#ZDOBuildBuf & 0xff
   \   000048   7B..         MOV       R3,#(ZDOBuildBuf >> 8) & 0xff
   \   00004A   12....       LCALL     `??afEndPoints::?relay`; Banked call to: afEndPoints
   \   00004D   8003         SJMP      ??ZDO_ProcessActiveEPReq_2
    823            }
    824            else
    825            {
    826              if(ZG_BUILD_ENDDEVICE_TYPE)
    827              {
    828                stat = ZDP_INVALID_REQTYPE;
   \                     ??ZDO_ProcessActiveEPReq_1:
   \   00004F   75..80       MOV       ?V1,#-0x80
    829              }
    830              else
    831              {
    832                stat = ZDP_DEVICE_NOT_FOUND;
    833              }
    834            }
    835          
    836            ZDP_ActiveEPRsp( inMsg->TransSeq, &(inMsg->srcAddr), stat,
    837                            aoi, cnt, (uint8 *)ZDOBuildBuf, inMsg->SecurityUse );
   \                     ??ZDO_ProcessActiveEPReq_2:
   \   000052                ; Setup parameters for call to function ZDP_EPRsp
   \   000052   EE           MOV       A,R6
   \   000053   240E         ADD       A,#0xe
   \   000055   F582         MOV       DPL,A
   \   000057   E4           CLR       A
   \   000058   3F           ADDC      A,R7
   \   000059   F583         MOV       DPH,A
   \   00005B   E0           MOVX      A,@DPTR
   \   00005C   F5..         MOV       ?V4,A
   \   00005E   78..         MOV       R0,#?V4
   \   000060   12....       LCALL     ?PUSH_XSTACK_I_ONE
   \   000063   75....       MOV       ?V4,#ZDOBuildBuf & 0xff
   \   000066   75....       MOV       ?V5,#(ZDOBuildBuf >> 8) & 0xff
   \   000069   78..         MOV       R0,#?V4
   \   00006B   12....       LCALL     ?PUSH_XSTACK_I_TWO
   \   00006E   78..         MOV       R0,#?V0
   \   000070   12....       LCALL     ?PUSH_XSTACK_I_ONE
   \   000073   78..         MOV       R0,#?V2
   \   000075   12....       LCALL     ?PUSH_XSTACK_I_TWO
   \   000078   E5..         MOV       A,?V1
   \   00007A   F5..         MOV       ?V0,A
   \   00007C   78..         MOV       R0,#?V0
   \   00007E   12....       LCALL     ?PUSH_XSTACK_I_ONE
   \   000081   EE           MOV       A,R6
   \   000082   2402         ADD       A,#0x2
   \   000084   FC           MOV       R4,A
   \   000085   E4           CLR       A
   \   000086   3F           ADDC      A,R7
   \   000087   FD           MOV       R5,A
   \   000088   EE           MOV       A,R6
   \   000089   240F         ADD       A,#0xf
   \   00008B   F582         MOV       DPL,A
   \   00008D   E4           CLR       A
   \   00008E   3F           ADDC      A,R7
   \   00008F   F583         MOV       DPH,A
   \   000091   E0           MOVX      A,@DPTR
   \   000092   F9           MOV       R1,A
   \   000093   7A05         MOV       R2,#0x5
   \   000095   7B80         MOV       R3,#-0x80
   \   000097   12....       LCALL     `??ZDP_EPRsp::?relay`; Banked call to: ZDP_EPRsp
   \   00009A   7407         MOV       A,#0x7
   \   00009C   12....       LCALL     ?DEALLOC_XSTACK8
    838          }
   \   00009F   7F06         MOV       R7,#0x6
   \   0000A1   02....       LJMP      ?BANKED_LEAVE_XDATA
    839          
    840          /*********************************************************************
    841           * @fn          ZDO_ConvertOTAClusters
    842           *
    843           * @brief       This function will convert the over-the-air cluster list
    844           *              format to an internal format.
    845           *
    846           * @param       inMsg  - incoming message (request)
    847           *
    848           * @return      pointer to incremented inBuf
    849           */

   \                                 In  segment BANKED_CODE, align 1, keep-with-next
    850          uint8 *ZDO_ConvertOTAClusters( uint8 cnt, uint8 *inBuf, uint16 *outList )
   \                     ZDO_ConvertOTAClusters:
    851          {
   \   000000                REQUIRE ?V0
   \   000000                REQUIRE ?V1
   \   000000   74F6         MOV       A,#-0xa
   \   000002   12....       LCALL     ?BANKED_ENTER_XDATA
   \   000005                ; Saved register size: 10
   \   000005                ; Auto size: 0
   \   000005   E9           MOV       A,R1
   \   000006   FF           MOV       R7,A
    852            uint8 x;
    853          
    854            for ( x = 0; x < cnt; x++ )
   \   000007   7E00         MOV       R6,#0x0
   \   000009   8032         SJMP      ??ZDO_ConvertOTAClusters_0
    855            {
    856              // convert ota format to internal
    857              outList[x] = BUILD_UINT16( inBuf[0], inBuf[1] );
   \                     ??ZDO_ConvertOTAClusters_1:
   \   00000B   8A82         MOV       DPL,R2
   \   00000D   8B83         MOV       DPH,R3
   \   00000F   E0           MOVX      A,@DPTR
   \   000010   F5..         MOV       ?V0,A
   \   000012   A3           INC       DPTR
   \   000013   E0           MOVX      A,@DPTR
   \   000014   F8           MOV       R0,A
   \   000015   E4           CLR       A
   \   000016   C8           XCH       A,R0
   \   000017   F9           MOV       R1,A
   \   000018   E5..         MOV       A,?V0
   \   00001A   28           ADD       A,R0
   \   00001B   E4           CLR       A
   \   00001C   39           ADDC      A,R1
   \   00001D   F5..         MOV       ?V1,A
   \   00001F   EE           MOV       A,R6
   \   000020   25E0         ADD       A,0xE0 /* A   */
   \   000022   F8           MOV       R0,A
   \   000023   E4           CLR       A
   \   000024   33           RLC       A
   \   000025   F9           MOV       R1,A
   \   000026   EC           MOV       A,R4
   \   000027   28           ADD       A,R0
   \   000028   F582         MOV       DPL,A
   \   00002A   ED           MOV       A,R5
   \   00002B   39           ADDC      A,R1
   \   00002C   F583         MOV       DPH,A
   \   00002E   E5..         MOV       A,?V0
   \   000030   F0           MOVX      @DPTR,A
   \   000031   A3           INC       DPTR
   \   000032   E5..         MOV       A,?V1
   \   000034   F0           MOVX      @DPTR,A
    858              inBuf += sizeof( uint16 );
   \   000035   EA           MOV       A,R2
   \   000036   2402         ADD       A,#0x2
   \   000038   FA           MOV       R2,A
   \   000039   5001         JNC       ??ZDO_ConvertOTAClusters_2
   \   00003B   0B           INC       R3
    859            }
   \                     ??ZDO_ConvertOTAClusters_2:
   \   00003C   0E           INC       R6
   \                     ??ZDO_ConvertOTAClusters_0:
   \   00003D   EE           MOV       A,R6
   \   00003E   C3           CLR       C
   \   00003F   9F           SUBB      A,R7
   \   000040   40C9         JC        ??ZDO_ConvertOTAClusters_1
    860            return ( inBuf );
   \   000042   7F02         MOV       R7,#0x2
   \   000044   02....       LJMP      ?BANKED_LEAVE_XDATA
    861          }
    862          
    863          /*********************************************************************
    864           * @fn          ZDO_ProcessMatchDescReq
    865           *
    866           * @brief       This function processes and responds to the
    867           *              Match_Desc_req message.
    868           *
    869           * @param       inMsg  - incoming message (request)
    870           *
    871           * @return      none
    872           */

   \                                 In  segment BANKED_CODE, align 1, keep-with-next
    873          void ZDO_ProcessMatchDescReq( zdoIncomingMsg_t *inMsg )
   \                     ZDO_ProcessMatchDescReq:
    874          {
   \   000000                REQUIRE ?V0
   \   000000                REQUIRE ?V1
   \   000000                REQUIRE ?V2
   \   000000                REQUIRE ?V3
   \   000000                REQUIRE ?V4
   \   000000                REQUIRE ?V5
   \   000000                REQUIRE ?V6
   \   000000                REQUIRE ?V7
   \   000000                REQUIRE ?V8
   \   000000                REQUIRE ?V9
   \   000000                REQUIRE ?V10
   \   000000                REQUIRE ?V11
   \   000000                REQUIRE ?V12
   \   000000                REQUIRE ?V13
   \   000000                REQUIRE ?V14
   \   000000   74E9         MOV       A,#-0x17
   \   000002   12....       LCALL     ?BANKED_ENTER_XDATA
   \   000005                ; Saved register size: 23
   \   000005                ; Auto size: 4
   \   000005   74FC         MOV       A,#-0x4
   \   000007   12....       LCALL     ?ALLOC_XSTACK8
   \   00000A   8A..         MOV       ?V10,R2
   \   00000C   8B..         MOV       ?V11,R3
    875            uint8 epCnt = 0;
   \   00000E   75..00       MOV       ?V14,#0x0
    876            uint8 numInClusters;
    877            uint16 *inClusters = NULL;
   \   000011   7402         MOV       A,#0x2
   \   000013   12....       LCALL     ?XSTACK_DISP0_8
   \   000016   E4           CLR       A
   \   000017   F0           MOVX      @DPTR,A
   \   000018   A3           INC       DPTR
   \   000019   F0           MOVX      @DPTR,A
    878            uint8 numOutClusters;
    879            uint16 *outClusters = NULL;
   \   00001A   85..82       MOV       DPL,?XSP + 0
   \   00001D   85..83       MOV       DPH,?XSP + 1
   \   000020   F0           MOVX      @DPTR,A
   \   000021   A3           INC       DPTR
   \   000022   F0           MOVX      @DPTR,A
    880            epList_t *epDesc;
    881            SimpleDescriptionFormat_t *sDesc = NULL;
    882            uint8 allocated;
    883            uint8 *msg;
    884            uint16 aoi;
    885            uint16 profileID;
    886          
    887            // Parse the incoming message
    888            msg = inMsg->asdu;
   \   000023   EA           MOV       A,R2
   \   000024   2413         ADD       A,#0x13
   \   000026   F582         MOV       DPL,A
   \   000028   E4           CLR       A
   \   000029   35..         ADDC      A,?V11
   \   00002B   F583         MOV       DPH,A
   \   00002D   E0           MOVX      A,@DPTR
   \   00002E   FE           MOV       R6,A
   \   00002F   A3           INC       DPTR
   \   000030   E0           MOVX      A,@DPTR
   \   000031   FF           MOV       R7,A
    889            aoi = BUILD_UINT16( msg[0], msg[1] );
   \   000032   8E82         MOV       DPL,R6
   \   000034   F583         MOV       DPH,A
   \   000036   E0           MOVX      A,@DPTR
   \   000037   FA           MOV       R2,A
   \   000038   A3           INC       DPTR
   \   000039   E0           MOVX      A,@DPTR
   \   00003A   F8           MOV       R0,A
   \   00003B   E4           CLR       A
   \   00003C   C8           XCH       A,R0
   \   00003D   F9           MOV       R1,A
   \   00003E   EA           MOV       A,R2
   \   00003F   28           ADD       A,R0
   \   000040   F5..         MOV       ?V2,A
   \   000042   E4           CLR       A
   \   000043   39           ADDC      A,R1
   \   000044   F5..         MOV       ?V3,A
    890            profileID = BUILD_UINT16( msg[2], msg[3] );
   \   000046   8E82         MOV       DPL,R6
   \   000048   8F83         MOV       DPH,R7
   \   00004A   A3           INC       DPTR
   \   00004B   A3           INC       DPTR
   \   00004C   E0           MOVX      A,@DPTR
   \   00004D   FA           MOV       R2,A
   \   00004E   8E82         MOV       DPL,R6
   \   000050   8F83         MOV       DPH,R7
   \   000052   A3           INC       DPTR
   \   000053   A3           INC       DPTR
   \   000054   A3           INC       DPTR
   \   000055   E0           MOVX      A,@DPTR
   \   000056   F9           MOV       R1,A
   \   000057   EA           MOV       A,R2
   \   000058   F5..         MOV       ?V0,A
   \   00005A   E4           CLR       A
   \   00005B   39           ADDC      A,R1
   \   00005C   F5..         MOV       ?V1,A
    891            msg += 4;
    892          
    893            if ( ADDR_BCAST_NOT_ME == NLME_IsAddressBroadcast(aoi) )
   \   00005E                ; Setup parameters for call to function NLME_IsAddressBroadcast
   \   00005E   AA..         MOV       R2,?V2
   \   000060   AB..         MOV       R3,?V3
   \   000062   12....       LCALL     `??NLME_IsAddressBroadcast::?relay`; Banked call to: NLME_IsAddressBroadcast
   \   000065   E9           MOV       A,R1
   \   000066   6401         XRL       A,#0x1
   \   000068   6018         JZ        ??ZDO_ProcessMatchDescReq_0
    894            {
    895              ZDP_MatchDescRsp( inMsg->TransSeq, &(inMsg->srcAddr), ZDP_INVALID_REQTYPE,
    896                                    aoi, 0, NULL, inMsg->SecurityUse );
    897              return;
    898            }
    899            else if ( (ADDR_NOT_BCAST == NLME_IsAddressBroadcast(aoi)) && (aoi != ZDAppNwkAddr.addr.shortAddr) )
   \   00006A                ; Setup parameters for call to function NLME_IsAddressBroadcast
   \   00006A   AA..         MOV       R2,?V2
   \   00006C   AB..         MOV       R3,?V3
   \   00006E   12....       LCALL     `??NLME_IsAddressBroadcast::?relay`; Banked call to: NLME_IsAddressBroadcast
   \   000071   E9           MOV       A,R1
   \   000072   7062         JNZ       ??ZDO_ProcessMatchDescReq_1
   \   000074   90....       MOV       DPTR,#ZDAppNwkAddr
   \   000077   E0           MOVX      A,@DPTR
   \   000078   65..         XRL       A,?V2
   \   00007A   7004         JNZ       ??ZDO_ProcessMatchDescReq_2
   \   00007C   A3           INC       DPTR
   \   00007D   E0           MOVX      A,@DPTR
   \   00007E   65..         XRL       A,?V3
   \                     ??ZDO_ProcessMatchDescReq_2:
   \   000080   6054         JZ        ??ZDO_ProcessMatchDescReq_1
    900            {
    901          #if (ZG_BUILD_ENDDEVICE_TYPE)
    902              if(ZG_DEVICE_ENDDEVICE_TYPE)
    903              {    
    904              ZDP_MatchDescRsp( inMsg->TransSeq, &(inMsg->srcAddr), ZDP_INVALID_REQTYPE,
    905                                       aoi, 0, NULL, inMsg->SecurityUse );
   \                     ??ZDO_ProcessMatchDescReq_0:
   \   000082                ; Setup parameters for call to function ZDP_EPRsp
   \   000082   E5..         MOV       A,?V10
   \   000084   240E         ADD       A,#0xe
   \   000086   F582         MOV       DPL,A
   \   000088   E4           CLR       A
   \   000089   35..         ADDC      A,?V11
   \   00008B   F583         MOV       DPH,A
   \   00008D   E0           MOVX      A,@DPTR
   \   00008E   F5..         MOV       ?V0,A
   \   000090   78..         MOV       R0,#?V0
   \   000092   12....       LCALL     ?PUSH_XSTACK_I_ONE
   \   000095   E4           CLR       A
   \   000096   F5..         MOV       ?V0,A
   \   000098   F5..         MOV       ?V1,A
   \   00009A   78..         MOV       R0,#?V0
   \   00009C   12....       LCALL     ?PUSH_XSTACK_I_TWO
   \   00009F   78..         MOV       R0,#?V0
   \   0000A1   12....       LCALL     ?PUSH_XSTACK_I_ONE
   \   0000A4   78..         MOV       R0,#?V2
   \   0000A6   12....       LCALL     ?PUSH_XSTACK_I_TWO
   \   0000A9   75..80       MOV       ?V0,#-0x80
   \   0000AC   78..         MOV       R0,#?V0
   \   0000AE   12....       LCALL     ?PUSH_XSTACK_I_ONE
   \   0000B1   E5..         MOV       A,?V10
   \   0000B3   2402         ADD       A,#0x2
   \   0000B5   FC           MOV       R4,A
   \   0000B6   E4           CLR       A
   \   0000B7   35..         ADDC      A,?V11
   \   0000B9   FD           MOV       R5,A
   \   0000BA   E5..         MOV       A,?V10
   \   0000BC   240F         ADD       A,#0xf
   \   0000BE   F582         MOV       DPL,A
   \   0000C0   E4           CLR       A
   \   0000C1   35..         ADDC      A,?V11
   \   0000C3   F583         MOV       DPH,A
   \   0000C5   E0           MOVX      A,@DPTR
   \   0000C6   F9           MOV       R1,A
   \   0000C7   7A06         MOV       R2,#0x6
   \   0000C9   7B80         MOV       R3,#-0x80
   \   0000CB   12....       LCALL     `??ZDP_EPRsp::?relay`; Banked call to: ZDP_EPRsp
   \   0000CE   7407         MOV       A,#0x7
   \   0000D0   12....       LCALL     ?DEALLOC_XSTACK8
    906              }
    907          #else 
    908              if (ZG_DEVICE_RTR_TYPE)
    909              {
    910              ZDP_MatchDescRsp( inMsg->TransSeq, &(inMsg->srcAddr), ZDP_DEVICE_NOT_FOUND,
    911                                       aoi, 0, NULL, inMsg->SecurityUse );
    912              }
    913          #endif
    914              return;
   \   0000D3   02....       LJMP      ??ZDO_ProcessMatchDescReq_3 & 0xFFFF
    915            }
    916          
    917            if ((numInClusters = *msg++) &&
    918                (inClusters = (uint16*)osal_mem_alloc( numInClusters * sizeof( uint16 ) )))
   \                     ??ZDO_ProcessMatchDescReq_1:
   \   0000D6   8E82         MOV       DPL,R6
   \   0000D8   8F83         MOV       DPH,R7
   \   0000DA   A3           INC       DPTR
   \   0000DB   A3           INC       DPTR
   \   0000DC   A3           INC       DPTR
   \   0000DD   A3           INC       DPTR
   \   0000DE   E0           MOVX      A,@DPTR
   \   0000DF   F5..         MOV       ?V3,A
   \   0000E1   EE           MOV       A,R6
   \   0000E2   2405         ADD       A,#0x5
   \   0000E4   FE           MOV       R6,A
   \   0000E5   5001         JNC       ??ZDO_ProcessMatchDescReq_4
   \   0000E7   0F           INC       R7
   \                     ??ZDO_ProcessMatchDescReq_4:
   \   0000E8   E5..         MOV       A,?V3
   \   0000EA   603E         JZ        ??ZDO_ProcessMatchDescReq_5
   \   0000EC                ; Setup parameters for call to function osal_mem_alloc
   \   0000EC   25E0         ADD       A,0xE0 /* A   */
   \   0000EE   FA           MOV       R2,A
   \   0000EF   E4           CLR       A
   \   0000F0   33           RLC       A
   \   0000F1   FB           MOV       R3,A
   \   0000F2   12....       LCALL     `??osal_mem_alloc::?relay`; Banked call to: osal_mem_alloc
   \   0000F5   7402         MOV       A,#0x2
   \   0000F7   12....       LCALL     ?XSTACK_DISP0_8
   \   0000FA   EA           MOV       A,R2
   \   0000FB   F0           MOVX      @DPTR,A
   \   0000FC   A3           INC       DPTR
   \   0000FD   EB           MOV       A,R3
   \   0000FE   F0           MOVX      @DPTR,A
   \   0000FF   7402         MOV       A,#0x2
   \   000101   12....       LCALL     ?XSTACK_DISP0_8
   \   000104   E0           MOVX      A,@DPTR
   \   000105   F8           MOV       R0,A
   \   000106   A3           INC       DPTR
   \   000107   E0           MOVX      A,@DPTR
   \   000108   F9           MOV       R1,A
   \   000109   E8           MOV       A,R0
   \   00010A   49           ORL       A,R1
   \   00010B   601D         JZ        ??ZDO_ProcessMatchDescReq_5
    919            {
    920              msg = ZDO_ConvertOTAClusters( numInClusters, msg, inClusters );
   \   00010D                ; Setup parameters for call to function ZDO_ConvertOTAClusters
   \   00010D   7402         MOV       A,#0x2
   \   00010F   12....       LCALL     ?XSTACK_DISP0_8
   \   000112   E0           MOVX      A,@DPTR
   \   000113   FC           MOV       R4,A
   \   000114   A3           INC       DPTR
   \   000115   E0           MOVX      A,@DPTR
   \   000116   FD           MOV       R5,A
   \   000117   EE           MOV       A,R6
   \   000118   FA           MOV       R2,A
   \   000119   EF           MOV       A,R7
   \   00011A   FB           MOV       R3,A
   \   00011B   A9..         MOV       R1,?V3
   \   00011D   12....       LCALL     `??ZDO_ConvertOTAClusters::?relay`; Banked call to: ZDO_ConvertOTAClusters
   \   000120   8A..         MOV       ?V4,R2
   \   000122   8B..         MOV       ?V5,R3
   \   000124   AE..         MOV       R6,?V4
   \   000126   AF..         MOV       R7,?V5
   \   000128   8003         SJMP      ??ZDO_ProcessMatchDescReq_6
    921            }
    922            else
    923            {
    924              numInClusters = 0;
   \                     ??ZDO_ProcessMatchDescReq_5:
   \   00012A   75..00       MOV       ?V3,#0x0
    925            }
    926          
    927            if ((numOutClusters = *msg++) &&
    928                (outClusters = (uint16 *)osal_mem_alloc( numOutClusters * sizeof( uint16 ) )))
   \                     ??ZDO_ProcessMatchDescReq_6:
   \   00012D   8E82         MOV       DPL,R6
   \   00012F   8F83         MOV       DPH,R7
   \   000131   E0           MOVX      A,@DPTR
   \   000132   F5..         MOV       ?V2,A
   \   000134   A3           INC       DPTR
   \   000135   AE82         MOV       R6,DPL
   \   000137   AF83         MOV       R7,DPH
   \   000139   6039         JZ        ??ZDO_ProcessMatchDescReq_7
   \   00013B                ; Setup parameters for call to function osal_mem_alloc
   \   00013B   25E0         ADD       A,0xE0 /* A   */
   \   00013D   FA           MOV       R2,A
   \   00013E   E4           CLR       A
   \   00013F   33           RLC       A
   \   000140   FB           MOV       R3,A
   \   000141   12....       LCALL     `??osal_mem_alloc::?relay`; Banked call to: osal_mem_alloc
   \   000144   85..82       MOV       DPL,?XSP + 0
   \   000147   85..83       MOV       DPH,?XSP + 1
   \   00014A   EA           MOV       A,R2
   \   00014B   F0           MOVX      @DPTR,A
   \   00014C   A3           INC       DPTR
   \   00014D   EB           MOV       A,R3
   \   00014E   F0           MOVX      @DPTR,A
   \   00014F   85..82       MOV       DPL,?XSP + 0
   \   000152   85..83       MOV       DPH,?XSP + 1
   \   000155   E0           MOVX      A,@DPTR
   \   000156   F8           MOV       R0,A
   \   000157   A3           INC       DPTR
   \   000158   E0           MOVX      A,@DPTR
   \   000159   F9           MOV       R1,A
   \   00015A   E8           MOV       A,R0
   \   00015B   49           ORL       A,R1
   \   00015C   6016         JZ        ??ZDO_ProcessMatchDescReq_7
    929            {
    930              msg = ZDO_ConvertOTAClusters( numOutClusters, msg, outClusters );
   \   00015E                ; Setup parameters for call to function ZDO_ConvertOTAClusters
   \   00015E   85..82       MOV       DPL,?XSP + 0
   \   000161   85..83       MOV       DPH,?XSP + 1
   \   000164   E0           MOVX      A,@DPTR
   \   000165   FC           MOV       R4,A
   \   000166   A3           INC       DPTR
   \   000167   E0           MOVX      A,@DPTR
   \   000168   FD           MOV       R5,A
   \   000169   EE           MOV       A,R6
   \   00016A   FA           MOV       R2,A
   \   00016B   EF           MOV       A,R7
   \   00016C   FB           MOV       R3,A
   \   00016D   A9..         MOV       R1,?V2
   \   00016F   12....       LCALL     `??ZDO_ConvertOTAClusters::?relay`; Banked call to: ZDO_ConvertOTAClusters
   \   000172   8003         SJMP      ??ZDO_ProcessMatchDescReq_8
    931            }
    932            else
    933            {
    934              numOutClusters = 0;
   \                     ??ZDO_ProcessMatchDescReq_7:
   \   000174   75..00       MOV       ?V2,#0x0
    935            }
    936          
    937            // First count the number of endpoints that match.
    938            epDesc = epList;
   \                     ??ZDO_ProcessMatchDescReq_8:
   \   000177   90....       MOV       DPTR,#epList
   \   00017A   8052         SJMP      ??ZDO_ProcessMatchDescReq_9
    939            while ( epDesc )
    940            {
    941              // Don't search endpoint 0 and check if response is allowed
    942              if ( epDesc->epDesc->endPoint != ZDO_EP && (epDesc->flags&eEP_AllowMatch) )
    943              {
    944                if ( epDesc->pfnDescCB )
    945                {
    946                  sDesc = (SimpleDescriptionFormat_t *)epDesc->pfnDescCB( AF_DESCRIPTOR_SIMPLE, epDesc->epDesc->endPoint );
    947                  allocated = TRUE;
    948                }
    949                else
    950                {
    951                  sDesc = epDesc->epDesc->simpleDesc;
    952                  allocated = FALSE;
    953                }
    954          
    955                // Allow specific ProfileId or Wildcard ProfileID
    956                if ( sDesc && ( ( sDesc->AppProfId == profileID ) || ( profileID == ZDO_WILDCARD_PROFILE_ID ) ) )
    957                {
    958                  uint8 *uint8Buf = (uint8 *)ZDOBuildBuf;
    959          
    960                  // Are there matching input clusters?
    961                  if ((ZDO_AnyClusterMatches( numInClusters, inClusters,
    962                             sDesc->AppNumInClusters, sDesc->pAppInClusterList )) ||
    963                      // Are there matching output clusters?
    964                      (ZDO_AnyClusterMatches( numOutClusters, outClusters,
    965                             sDesc->AppNumOutClusters, sDesc->pAppOutClusterList )))
    966                  {
    967                    // Notify the endpoint of the match.
    968                    uint8 bufLen = sizeof( ZDO_MatchDescRspSent_t ) + (numOutClusters + numInClusters) * sizeof(uint16);
    969                    ZDO_MatchDescRspSent_t *pRspSent = (ZDO_MatchDescRspSent_t *) osal_msg_allocate( bufLen );
    970          
    971                    if (pRspSent)
    972                    {
    973                      pRspSent->hdr.event = ZDO_MATCH_DESC_RSP_SENT;
    974                      pRspSent->nwkAddr = inMsg->srcAddr.addr.shortAddr;
    975                      pRspSent->numInClusters = numInClusters;
    976                      pRspSent->numOutClusters = numOutClusters;
    977          
    978                      if (numInClusters)
    979                      {
    980                        pRspSent->pInClusters = (uint16*) (pRspSent + 1);
    981                        osal_memcpy(pRspSent->pInClusters, inClusters, numInClusters * sizeof(uint16));
    982                      }
    983                      else
    984                      {
    985                        pRspSent->pInClusters = NULL;
    986                      }
    987          
    988                      if (numOutClusters)
    989                      {
    990                        pRspSent->pOutClusters = (uint16*)(pRspSent + 1) + numInClusters;
    991                        osal_memcpy(pRspSent->pOutClusters, outClusters, numOutClusters * sizeof(uint16));
    992                      }
    993                      else
    994                      {
    995                        pRspSent->pOutClusters = NULL;
   \                     ??ZDO_ProcessMatchDescReq_10:
   \   00017C   E4           CLR       A
   \   00017D   F0           MOVX      @DPTR,A
   \   00017E   A3           INC       DPTR
   \   00017F   F0           MOVX      @DPTR,A
    996                      }
    997          
    998                      osal_msg_send( *epDesc->epDesc->task_id, (uint8 *)pRspSent );
   \                     ??ZDO_ProcessMatchDescReq_11:
   \   000180                ; Setup parameters for call to function osal_msg_send
   \   000180   EE           MOV       A,R6
   \   000181   FA           MOV       R2,A
   \   000182   EF           MOV       A,R7
   \   000183   FB           MOV       R3,A
   \   000184   85..82       MOV       DPL,?V12
   \   000187   85..83       MOV       DPH,?V13
   \   00018A   A3           INC       DPTR
   \   00018B   A3           INC       DPTR
   \   00018C   E0           MOVX      A,@DPTR
   \   00018D   F8           MOV       R0,A
   \   00018E   A3           INC       DPTR
   \   00018F   E0           MOVX      A,@DPTR
   \   000190   F583         MOV       DPH,A
   \   000192   8882         MOV       DPL,R0
   \   000194   A3           INC       DPTR
   \   000195   A3           INC       DPTR
   \   000196   E0           MOVX      A,@DPTR
   \   000197   F8           MOV       R0,A
   \   000198   A3           INC       DPTR
   \   000199   E0           MOVX      A,@DPTR
   \   00019A   F583         MOV       DPH,A
   \   00019C   8882         MOV       DPL,R0
   \   00019E   E0           MOVX      A,@DPTR
   \   00019F   F9           MOV       R1,A
   \   0001A0   12....       LCALL     `??osal_msg_send::?relay`; Banked call to: osal_msg_send
    999                    }
   1000          
   1001                    uint8Buf[epCnt++] = sDesc->EndPoint;
   \                     ??ZDO_ProcessMatchDescReq_12:
   \   0001A3   85..82       MOV       DPL,?V8
   \   0001A6   85..83       MOV       DPH,?V9
   \   0001A9   E0           MOVX      A,@DPTR
   \   0001AA   C0E0         PUSH      A
   \   0001AC   A8..         MOV       R0,?V14
   \   0001AE   74..         MOV       A,#ZDOBuildBuf & 0xff
   \   0001B0   28           ADD       A,R0
   \   0001B1   F582         MOV       DPL,A
   \   0001B3   E4           CLR       A
   \   0001B4   34..         ADDC      A,#(ZDOBuildBuf >> 8) & 0xff
   \   0001B6   F583         MOV       DPH,A
   \   0001B8   D0E0         POP       A
   \   0001BA   F0           MOVX      @DPTR,A
   \   0001BB   05..         INC       ?V14
   1002                  }
   1003                }
   1004          
   1005                if ( allocated )
   \                     ??ZDO_ProcessMatchDescReq_13:
   \   0001BD   E5..         MOV       A,?V7
   \   0001BF   6007         JZ        ??ZDO_ProcessMatchDescReq_14
   1006                {
   1007                  osal_mem_free( sDesc );
   \   0001C1                ; Setup parameters for call to function osal_mem_free
   \   0001C1   AA..         MOV       R2,?V8
   \   0001C3   AB..         MOV       R3,?V9
   \   0001C5   12....       LCALL     `??osal_mem_free::?relay`; Banked call to: osal_mem_free
   1008                }
   1009              }
   1010              epDesc = epDesc->nextDesc;
   \                     ??ZDO_ProcessMatchDescReq_14:
   \   0001C8   85..82       MOV       DPL,?V12
   \   0001CB   85..83       MOV       DPH,?V13
   \                     ??ZDO_ProcessMatchDescReq_9:
   \   0001CE   E0           MOVX      A,@DPTR
   \   0001CF   F5..         MOV       ?V12,A
   \   0001D1   A3           INC       DPTR
   \   0001D2   E0           MOVX      A,@DPTR
   \   0001D3   F5..         MOV       ?V13,A
   \   0001D5   E5..         MOV       A,?V12
   \   0001D7   45..         ORL       A,?V13
   \   0001D9   7003         JNZ       $+5
   \   0001DB   02....       LJMP      ??ZDO_ProcessMatchDescReq_15 & 0xFFFF
   \   0001DE   85..82       MOV       DPL,?V12
   \   0001E1   85..83       MOV       DPH,?V13
   \   0001E4   A3           INC       DPTR
   \   0001E5   A3           INC       DPTR
   \   0001E6   E0           MOVX      A,@DPTR
   \   0001E7   F8           MOV       R0,A
   \   0001E8   A3           INC       DPTR
   \   0001E9   E0           MOVX      A,@DPTR
   \   0001EA   F9           MOV       R1,A
   \   0001EB   E8           MOV       A,R0
   \   0001EC   FA           MOV       R2,A
   \   0001ED   E9           MOV       A,R1
   \   0001EE   8882         MOV       DPL,R0
   \   0001F0   F583         MOV       DPH,A
   \   0001F2   E0           MOVX      A,@DPTR
   \   0001F3   FC           MOV       R4,A
   \   0001F4   60D2         JZ        ??ZDO_ProcessMatchDescReq_14
   \   0001F6   85..82       MOV       DPL,?V12
   \   0001F9   85..83       MOV       DPH,?V13
   \   0001FC   A3           INC       DPTR
   \   0001FD   A3           INC       DPTR
   \   0001FE   A3           INC       DPTR
   \   0001FF   A3           INC       DPTR
   \   000200   A3           INC       DPTR
   \   000201   A3           INC       DPTR
   \   000202   A3           INC       DPTR
   \   000203   A3           INC       DPTR
   \   000204   E0           MOVX      A,@DPTR
   \   000205   A2E0         MOV       C,0xE0 /* A   */.0
   \   000207   50BF         JNC       ??ZDO_ProcessMatchDescReq_14
   \   000209   85..82       MOV       DPL,?V12
   \   00020C   85..83       MOV       DPH,?V13
   \   00020F   A3           INC       DPTR
   \   000210   A3           INC       DPTR
   \   000211   A3           INC       DPTR
   \   000212   A3           INC       DPTR
   \   000213   E0           MOVX      A,@DPTR
   \   000214   F8           MOV       R0,A
   \   000215   A3           INC       DPTR
   \   000216   E0           MOVX      A,@DPTR
   \   000217   8882         MOV       DPL,R0
   \   000219   F583         MOV       DPH,A
   \   00021B   E582         MOV       A,DPL
   \   00021D   4583         ORL       A,DPH
   \   00021F   6010         JZ        ??ZDO_ProcessMatchDescReq_16
   \   000221                ; Setup parameters for indirect call
   \   000221   EC           MOV       A,R4
   \   000222   FA           MOV       R2,A
   \   000223   7901         MOV       R1,#0x1
   \   000225   12....       LCALL     ?CALL_IND
   \   000228   8A..         MOV       ?V8,R2
   \   00022A   8B..         MOV       ?V9,R3
   \   00022C   75..01       MOV       ?V7,#0x1
   \   00022F   8012         SJMP      ??ZDO_ProcessMatchDescReq_17
   \                     ??ZDO_ProcessMatchDescReq_16:
   \   000231   8A82         MOV       DPL,R2
   \   000233   8983         MOV       DPH,R1
   \   000235   A3           INC       DPTR
   \   000236   A3           INC       DPTR
   \   000237   A3           INC       DPTR
   \   000238   A3           INC       DPTR
   \   000239   E0           MOVX      A,@DPTR
   \   00023A   F5..         MOV       ?V8,A
   \   00023C   A3           INC       DPTR
   \   00023D   E0           MOVX      A,@DPTR
   \   00023E   F5..         MOV       ?V9,A
   \   000240   75..00       MOV       ?V7,#0x0
   \                     ??ZDO_ProcessMatchDescReq_17:
   \   000243   E5..         MOV       A,?V8
   \   000245   45..         ORL       A,?V9
   \   000247   7003         JNZ       $+5
   \   000249   02....       LJMP      ??ZDO_ProcessMatchDescReq_13 & 0xFFFF
   \   00024C   85..82       MOV       DPL,?V8
   \   00024F   85..83       MOV       DPH,?V9
   \   000252   A3           INC       DPTR
   \   000253   E0           MOVX      A,@DPTR
   \   000254   65..         XRL       A,?V0
   \   000256   7004         JNZ       ??ZDO_ProcessMatchDescReq_18
   \   000258   A3           INC       DPTR
   \   000259   E0           MOVX      A,@DPTR
   \   00025A   65..         XRL       A,?V1
   \                     ??ZDO_ProcessMatchDescReq_18:
   \   00025C   600F         JZ        ??ZDO_ProcessMatchDescReq_19
   \   00025E   74FF         MOV       A,#-0x1
   \   000260   65..         XRL       A,?V0
   \   000262   7004         JNZ       ??ZDO_ProcessMatchDescReq_20
   \   000264   74FF         MOV       A,#-0x1
   \   000266   65..         XRL       A,?V1
   \                     ??ZDO_ProcessMatchDescReq_20:
   \   000268   6003         JZ        $+5
   \   00026A   02....       LJMP      ??ZDO_ProcessMatchDescReq_13 & 0xFFFF
   \                     ??ZDO_ProcessMatchDescReq_19:
   \   00026D                ; Setup parameters for call to function ZDO_AnyClusterMatches
   \   00026D   85..82       MOV       DPL,?V8
   \   000270   85..83       MOV       DPH,?V9
   \   000273   A3           INC       DPTR
   \   000274   A3           INC       DPTR
   \   000275   A3           INC       DPTR
   \   000276   A3           INC       DPTR
   \   000277   A3           INC       DPTR
   \   000278   A3           INC       DPTR
   \   000279   A3           INC       DPTR
   \   00027A   12....       LCALL     ?PUSH_XSTACK8_X_TWO
   \   00027D   85..82       MOV       DPL,?V8
   \   000280   85..83       MOV       DPH,?V9
   \   000283   A3           INC       DPTR
   \   000284   A3           INC       DPTR
   \   000285   A3           INC       DPTR
   \   000286   A3           INC       DPTR
   \   000287   A3           INC       DPTR
   \   000288   A3           INC       DPTR
   \   000289   E0           MOVX      A,@DPTR
   \   00028A   FC           MOV       R4,A
   \   00028B   7404         MOV       A,#0x4
   \   00028D   12....       LCALL     ?XSTACK_DISP0_8
   \   000290   E0           MOVX      A,@DPTR
   \   000291   FA           MOV       R2,A
   \   000292   A3           INC       DPTR
   \   000293   E0           MOVX      A,@DPTR
   \   000294   FB           MOV       R3,A
   \   000295   A9..         MOV       R1,?V3
   \   000297   12....       LCALL     `??ZDO_AnyClusterMatches::?relay`; Banked call to: ZDO_AnyClusterMatches
   \   00029A   7402         MOV       A,#0x2
   \   00029C   12....       LCALL     ?DEALLOC_XSTACK8
   \   00029F   E9           MOV       A,R1
   \   0002A0   703E         JNZ       ??ZDO_ProcessMatchDescReq_21
   \   0002A2                ; Setup parameters for call to function ZDO_AnyClusterMatches
   \   0002A2   85..82       MOV       DPL,?V8
   \   0002A5   85..83       MOV       DPH,?V9
   \   0002A8   A3           INC       DPTR
   \   0002A9   A3           INC       DPTR
   \   0002AA   A3           INC       DPTR
   \   0002AB   A3           INC       DPTR
   \   0002AC   A3           INC       DPTR
   \   0002AD   A3           INC       DPTR
   \   0002AE   A3           INC       DPTR
   \   0002AF   A3           INC       DPTR
   \   0002B0   A3           INC       DPTR
   \   0002B1   A3           INC       DPTR
   \   0002B2   12....       LCALL     ?PUSH_XSTACK8_X_TWO
   \   0002B5   85..82       MOV       DPL,?V8
   \   0002B8   85..83       MOV       DPH,?V9
   \   0002BB   A3           INC       DPTR
   \   0002BC   A3           INC       DPTR
   \   0002BD   A3           INC       DPTR
   \   0002BE   A3           INC       DPTR
   \   0002BF   A3           INC       DPTR
   \   0002C0   A3           INC       DPTR
   \   0002C1   A3           INC       DPTR
   \   0002C2   A3           INC       DPTR
   \   0002C3   A3           INC       DPTR
   \   0002C4   E0           MOVX      A,@DPTR
   \   0002C5   FC           MOV       R4,A
   \   0002C6   7402         MOV       A,#0x2
   \   0002C8   12....       LCALL     ?XSTACK_DISP0_8
   \   0002CB   E0           MOVX      A,@DPTR
   \   0002CC   FA           MOV       R2,A
   \   0002CD   A3           INC       DPTR
   \   0002CE   E0           MOVX      A,@DPTR
   \   0002CF   FB           MOV       R3,A
   \   0002D0   A9..         MOV       R1,?V2
   \   0002D2   12....       LCALL     `??ZDO_AnyClusterMatches::?relay`; Banked call to: ZDO_AnyClusterMatches
   \   0002D5   7402         MOV       A,#0x2
   \   0002D7   12....       LCALL     ?DEALLOC_XSTACK8
   \   0002DA   E9           MOV       A,R1
   \   0002DB   7003         JNZ       $+5
   \   0002DD   02....       LJMP      ??ZDO_ProcessMatchDescReq_13 & 0xFFFF
   \                     ??ZDO_ProcessMatchDescReq_21:
   \   0002E0                ; Setup parameters for call to function osal_msg_allocate
   \   0002E0   E5..         MOV       A,?V2
   \   0002E2   25..         ADD       A,?V3
   \   0002E4   C3           CLR       C
   \   0002E5   33           RLC       A
   \   0002E6   240A         ADD       A,#0xa
   \   0002E8   FA           MOV       R2,A
   \   0002E9   7B00         MOV       R3,#0x0
   \   0002EB   12....       LCALL     `??osal_msg_allocate::?relay`; Banked call to: osal_msg_allocate
   \   0002EE   8A..         MOV       ?V4,R2
   \   0002F0   8B..         MOV       ?V5,R3
   \   0002F2   AE..         MOV       R6,?V4
   \   0002F4   AF..         MOV       R7,?V5
   \   0002F6   EA           MOV       A,R2
   \   0002F7   4F           ORL       A,R7
   \   0002F8   7003         JNZ       $+5
   \   0002FA   02....       LJMP      ??ZDO_ProcessMatchDescReq_12 & 0xFFFF
   \   0002FD   8A82         MOV       DPL,R2
   \   0002FF   8B83         MOV       DPH,R3
   \   000301   74D2         MOV       A,#-0x2e
   \   000303   F0           MOVX      @DPTR,A
   \   000304   85..82       MOV       DPL,?V10
   \   000307   85..83       MOV       DPH,?V11
   \   00030A   A3           INC       DPTR
   \   00030B   A3           INC       DPTR
   \   00030C   E0           MOVX      A,@DPTR
   \   00030D   F8           MOV       R0,A
   \   00030E   A3           INC       DPTR
   \   00030F   E0           MOVX      A,@DPTR
   \   000310   F9           MOV       R1,A
   \   000311   8A82         MOV       DPL,R2
   \   000313   8B83         MOV       DPH,R3
   \   000315   A3           INC       DPTR
   \   000316   A3           INC       DPTR
   \   000317   E8           MOV       A,R0
   \   000318   F0           MOVX      @DPTR,A
   \   000319   A3           INC       DPTR
   \   00031A   E9           MOV       A,R1
   \   00031B   F0           MOVX      @DPTR,A
   \   00031C   8A82         MOV       DPL,R2
   \   00031E   8B83         MOV       DPH,R3
   \   000320   A3           INC       DPTR
   \   000321   A3           INC       DPTR
   \   000322   A3           INC       DPTR
   \   000323   A3           INC       DPTR
   \   000324   E5..         MOV       A,?V3
   \   000326   F0           MOVX      @DPTR,A
   \   000327   8A82         MOV       DPL,R2
   \   000329   8B83         MOV       DPH,R3
   \   00032B   A3           INC       DPTR
   \   00032C   A3           INC       DPTR
   \   00032D   A3           INC       DPTR
   \   00032E   A3           INC       DPTR
   \   00032F   A3           INC       DPTR
   \   000330   A3           INC       DPTR
   \   000331   A3           INC       DPTR
   \   000332   E5..         MOV       A,?V2
   \   000334   F0           MOVX      @DPTR,A
   \   000335   EA           MOV       A,R2
   \   000336   2405         ADD       A,#0x5
   \   000338   F582         MOV       DPL,A
   \   00033A   E4           CLR       A
   \   00033B   3F           ADDC      A,R7
   \   00033C   F583         MOV       DPH,A
   \   00033E   E5..         MOV       A,?V3
   \   000340   6032         JZ        ??ZDO_ProcessMatchDescReq_22
   \   000342   EA           MOV       A,R2
   \   000343   240A         ADD       A,#0xa
   \   000345   FA           MOV       R2,A
   \   000346   E4           CLR       A
   \   000347   3F           ADDC      A,R7
   \   000348   FB           MOV       R3,A
   \   000349   EA           MOV       A,R2
   \   00034A   F0           MOVX      @DPTR,A
   \   00034B   A3           INC       DPTR
   \   00034C   EB           MOV       A,R3
   \   00034D   F0           MOVX      @DPTR,A
   \   00034E                ; Setup parameters for call to function osal_memcpy
   \   00034E   7402         MOV       A,#0x2
   \   000350   12....       LCALL     ?XSTACK_DISP0_8
   \   000353   E0           MOVX      A,@DPTR
   \   000354   F5..         MOV       ?V4,A
   \   000356   A3           INC       DPTR
   \   000357   E0           MOVX      A,@DPTR
   \   000358   F5..         MOV       ?V5,A
   \   00035A   75..00       MOV       ?V6,#0x0
   \   00035D   78..         MOV       R0,#?V4
   \   00035F   12....       LCALL     ?PUSH_XSTACK_I_THREE
   \   000362   AC..         MOV       R4,?V3
   \   000364   EC           MOV       A,R4
   \   000365   2C           ADD       A,R4
   \   000366   FC           MOV       R4,A
   \   000367   E4           CLR       A
   \   000368   33           RLC       A
   \   000369   FD           MOV       R5,A
   \   00036A   12....       LCALL     `??osal_memcpy::?relay`; Banked call to: osal_memcpy
   \   00036D   7403         MOV       A,#0x3
   \   00036F   12....       LCALL     ?DEALLOC_XSTACK8
   \   000372   8004         SJMP      ??ZDO_ProcessMatchDescReq_23
   \                     ??ZDO_ProcessMatchDescReq_22:
   \   000374   E4           CLR       A
   \   000375   F0           MOVX      @DPTR,A
   \   000376   A3           INC       DPTR
   \   000377   F0           MOVX      @DPTR,A
   \                     ??ZDO_ProcessMatchDescReq_23:
   \   000378   EE           MOV       A,R6
   \   000379   2408         ADD       A,#0x8
   \   00037B   F582         MOV       DPL,A
   \   00037D   E4           CLR       A
   \   00037E   3F           ADDC      A,R7
   \   00037F   F583         MOV       DPH,A
   \   000381   E5..         MOV       A,?V2
   \   000383   7003         JNZ       $+5
   \   000385   02....       LJMP      ??ZDO_ProcessMatchDescReq_10 & 0xFFFF
   \   000388   A8..         MOV       R0,?V3
   \   00038A   E8           MOV       A,R0
   \   00038B   28           ADD       A,R0
   \   00038C   F8           MOV       R0,A
   \   00038D   E4           CLR       A
   \   00038E   33           RLC       A
   \   00038F   F9           MOV       R1,A
   \   000390   EE           MOV       A,R6
   \   000391   28           ADD       A,R0
   \   000392   F8           MOV       R0,A
   \   000393   EF           MOV       A,R7
   \   000394   39           ADDC      A,R1
   \   000395   F9           MOV       R1,A
   \   000396   E8           MOV       A,R0
   \   000397   240A         ADD       A,#0xa
   \   000399   FA           MOV       R2,A
   \   00039A   E4           CLR       A
   \   00039B   39           ADDC      A,R1
   \   00039C   FB           MOV       R3,A
   \   00039D   EA           MOV       A,R2
   \   00039E   F0           MOVX      @DPTR,A
   \   00039F   A3           INC       DPTR
   \   0003A0   EB           MOV       A,R3
   \   0003A1   F0           MOVX      @DPTR,A
   \   0003A2                ; Setup parameters for call to function osal_memcpy
   \   0003A2   85..82       MOV       DPL,?XSP + 0
   \   0003A5   85..83       MOV       DPH,?XSP + 1
   \   0003A8   E0           MOVX      A,@DPTR
   \   0003A9   F5..         MOV       ?V4,A
   \   0003AB   A3           INC       DPTR
   \   0003AC   E0           MOVX      A,@DPTR
   \   0003AD   F5..         MOV       ?V5,A
   \   0003AF   75..00       MOV       ?V6,#0x0
   \   0003B2   78..         MOV       R0,#?V4
   \   0003B4   12....       LCALL     ?PUSH_XSTACK_I_THREE
   \   0003B7   AC..         MOV       R4,?V2
   \   0003B9   EC           MOV       A,R4
   \   0003BA   2C           ADD       A,R4
   \   0003BB   FC           MOV       R4,A
   \   0003BC   E4           CLR       A
   \   0003BD   33           RLC       A
   \   0003BE   FD           MOV       R5,A
   \   0003BF   12....       LCALL     `??osal_memcpy::?relay`; Banked call to: osal_memcpy
   \   0003C2   7403         MOV       A,#0x3
   \   0003C4   12....       LCALL     ?DEALLOC_XSTACK8
   \   0003C7   02....       LJMP      ??ZDO_ProcessMatchDescReq_11 & 0xFFFF
   1011            }
   1012          
   1013            if ( epCnt )
   \                     ??ZDO_ProcessMatchDescReq_15:
   \   0003CA   E5..         MOV       A,?V14
   \   0003CC   6060         JZ        ??ZDO_ProcessMatchDescReq_24
   1014            {
   1015              // Send the message if at least one match found.
   1016              if ( ZSuccess == ZDP_MatchDescRsp( inMsg->TransSeq, &(inMsg->srcAddr), ZDP_SUCCESS,
   1017                        ZDAppNwkAddr.addr.shortAddr, epCnt, (uint8 *)ZDOBuildBuf, inMsg->SecurityUse ) )
   \   0003CE                ; Setup parameters for call to function ZDP_EPRsp
   \   0003CE   E5..         MOV       A,?V10
   \   0003D0   240E         ADD       A,#0xe
   \   0003D2   F582         MOV       DPL,A
   \   0003D4   E4           CLR       A
   \   0003D5   35..         ADDC      A,?V11
   \   0003D7   F583         MOV       DPH,A
   \   0003D9   E0           MOVX      A,@DPTR
   \   0003DA   F5..         MOV       ?V0,A
   \   0003DC   78..         MOV       R0,#?V0
   \   0003DE   12....       LCALL     ?PUSH_XSTACK_I_ONE
   \   0003E1   75....       MOV       ?V0,#ZDOBuildBuf & 0xff
   \   0003E4   75....       MOV       ?V1,#(ZDOBuildBuf >> 8) & 0xff
   \   0003E7   78..         MOV       R0,#?V0
   \   0003E9   12....       LCALL     ?PUSH_XSTACK_I_TWO
   \   0003EC   E5..         MOV       A,?V14
   \   0003EE   F5..         MOV       ?V0,A
   \   0003F0   78..         MOV       R0,#?V0
   \   0003F2   12....       LCALL     ?PUSH_XSTACK_I_ONE
   \   0003F5   90....       MOV       DPTR,#ZDAppNwkAddr
   \   0003F8   12....       LCALL     ?PUSH_XSTACK8_X_TWO
   \   0003FB   75..00       MOV       ?V0,#0x0
   \   0003FE   78..         MOV       R0,#?V0
   \   000400   12....       LCALL     ?PUSH_XSTACK_I_ONE
   \   000403   E5..         MOV       A,?V10
   \   000405   2402         ADD       A,#0x2
   \   000407   FC           MOV       R4,A
   \   000408   E4           CLR       A
   \   000409   35..         ADDC      A,?V11
   \   00040B   FD           MOV       R5,A
   \   00040C   E5..         MOV       A,?V10
   \   00040E   240F         ADD       A,#0xf
   \   000410   F582         MOV       DPL,A
   \   000412   E4           CLR       A
   \   000413   35..         ADDC      A,?V11
   \   000415   F583         MOV       DPH,A
   \   000417   E0           MOVX      A,@DPTR
   \   000418   F9           MOV       R1,A
   \   000419   7A06         MOV       R2,#0x6
   \   00041B   7B80         MOV       R3,#-0x80
   \   00041D   12....       LCALL     `??ZDP_EPRsp::?relay`; Banked call to: ZDP_EPRsp
   \   000420   7407         MOV       A,#0x7
   \   000422   12....       LCALL     ?DEALLOC_XSTACK8
   \   000425   E9           MOV       A,R1
   \   000426   7078         JNZ       ??ZDO_ProcessMatchDescReq_25
   1018              {
   1019          #if defined( LCD_SUPPORTED )
   1020                HalLcdWriteScreen( "Match Desc Req", "Rsp Sent" );
   \   000428                ; Setup parameters for call to function HalLcdWriteScreen
   \   000428   7C..         MOV       R4,#`?<Constant "Rsp Sent">` & 0xff
   \   00042A   7D..         MOV       R5,#(`?<Constant "Rsp Sent">` >> 8) & 0xff
   \   00042C   806B         SJMP      ??ZDO_ProcessMatchDescReq_26
   1021          #endif
   1022              }
   1023            }
   1024            else
   1025            {
   1026              if (!inMsg->wasBroadcast)
   \                     ??ZDO_ProcessMatchDescReq_24:
   \   00042E   E5..         MOV       A,?V10
   \   000430   240B         ADD       A,#0xb
   \   000432   F582         MOV       DPL,A
   \   000434   E4           CLR       A
   \   000435   35..         ADDC      A,?V11
   \   000437   F583         MOV       DPH,A
   \   000439   E0           MOVX      A,@DPTR
   \   00043A   7059         JNZ       ??ZDO_ProcessMatchDescReq_27
   1027              {
   1028                // send response message with match length = 0
   1029                ZDP_MatchDescRsp( inMsg->TransSeq, &(inMsg->srcAddr), ZDP_SUCCESS,
   1030                                  ZDAppNwkAddr.addr.shortAddr, 0, (uint8 *)ZDOBuildBuf, inMsg->SecurityUse );
   \   00043C                ; Setup parameters for call to function ZDP_EPRsp
   \   00043C   E5..         MOV       A,?V10
   \   00043E   240E         ADD       A,#0xe
   \   000440   F582         MOV       DPL,A
   \   000442   E4           CLR       A
   \   000443   35..         ADDC      A,?V11
   \   000445   F583         MOV       DPH,A
   \   000447   E0           MOVX      A,@DPTR
   \   000448   F5..         MOV       ?V0,A
   \   00044A   78..         MOV       R0,#?V0
   \   00044C   12....       LCALL     ?PUSH_XSTACK_I_ONE
   \   00044F   75....       MOV       ?V0,#ZDOBuildBuf & 0xff
   \   000452   75....       MOV       ?V1,#(ZDOBuildBuf >> 8) & 0xff
   \   000455   78..         MOV       R0,#?V0
   \   000457   12....       LCALL     ?PUSH_XSTACK_I_TWO
   \   00045A   75..00       MOV       ?V0,#0x0
   \   00045D   78..         MOV       R0,#?V0
   \   00045F   12....       LCALL     ?PUSH_XSTACK_I_ONE
   \   000462   90....       MOV       DPTR,#ZDAppNwkAddr
   \   000465   12....       LCALL     ?PUSH_XSTACK8_X_TWO
   \   000468   78..         MOV       R0,#?V0
   \   00046A   12....       LCALL     ?PUSH_XSTACK_I_ONE
   \   00046D   E5..         MOV       A,?V10
   \   00046F   2402         ADD       A,#0x2
   \   000471   FC           MOV       R4,A
   \   000472   E4           CLR       A
   \   000473   35..         ADDC      A,?V11
   \   000475   FD           MOV       R5,A
   \   000476   E5..         MOV       A,?V10
   \   000478   240F         ADD       A,#0xf
   \   00047A   F582         MOV       DPL,A
   \   00047C   E4           CLR       A
   \   00047D   35..         ADDC      A,?V11
   \   00047F   F583         MOV       DPH,A
   \   000481   E0           MOVX      A,@DPTR
   \   000482   F9           MOV       R1,A
   \   000483   7A06         MOV       R2,#0x6
   \   000485   7B80         MOV       R3,#-0x80
   \   000487   12....       LCALL     `??ZDP_EPRsp::?relay`; Banked call to: ZDP_EPRsp
   \   00048A   7407         MOV       A,#0x7
   \   00048C   12....       LCALL     ?DEALLOC_XSTACK8
   1031          #if defined( LCD_SUPPORTED )
   1032                HalLcdWriteScreen( "Match Desc Req", "Rsp Non Matched" );
   \   00048F                ; Setup parameters for call to function HalLcdWriteScreen
   \   00048F   7C..         MOV       R4,#`?<Constant "Rsp Non Matched">` & 0xff
   \   000491   7D..         MOV       R5,#(`?<Constant "Rsp Non Matched">` >> 8) & 0xff
   \   000493   8004         SJMP      ??ZDO_ProcessMatchDescReq_26
   1033          #endif
   1034              }
   1035              else
   1036              {
   1037                // no response mesage for broadcast message
   1038          #if defined( LCD_SUPPORTED )
   1039                HalLcdWriteScreen( "Match Desc Req", "Non Matched" );
   \                     ??ZDO_ProcessMatchDescReq_27:
   \   000495                ; Setup parameters for call to function HalLcdWriteScreen
   \   000495   7C..         MOV       R4,#`?<Constant "Non Matched">` & 0xff
   \   000497   7D..         MOV       R5,#(`?<Constant "Non Matched">` >> 8) & 0xff
   \                     ??ZDO_ProcessMatchDescReq_26:
   \   000499   7A..         MOV       R2,#`?<Constant "Match Desc Req">` & 0xff
   \   00049B   7B..         MOV       R3,#(`?<Constant "Match Desc Req">` >> 8) & 0xff
   \   00049D   12....       LCALL     `??HalLcdWriteScreen::?relay`; Banked call to: HalLcdWriteScreen
   1040          #endif
   1041              }
   1042            }
   1043          
   1044            if ( inClusters != NULL )
   \                     ??ZDO_ProcessMatchDescReq_25:
   \   0004A0   7402         MOV       A,#0x2
   \   0004A2   12....       LCALL     ?XSTACK_DISP0_8
   \   0004A5   E0           MOVX      A,@DPTR
   \   0004A6   F8           MOV       R0,A
   \   0004A7   A3           INC       DPTR
   \   0004A8   E0           MOVX      A,@DPTR
   \   0004A9   F9           MOV       R1,A
   \   0004AA   E8           MOV       A,R0
   \   0004AB   49           ORL       A,R1
   \   0004AC   600D         JZ        ??ZDO_ProcessMatchDescReq_28
   1045            {
   1046              osal_mem_free( inClusters );
   \   0004AE                ; Setup parameters for call to function osal_mem_free
   \   0004AE   7402         MOV       A,#0x2
   \   0004B0   12....       LCALL     ?XSTACK_DISP0_8
   \   0004B3   E0           MOVX      A,@DPTR
   \   0004B4   FA           MOV       R2,A
   \   0004B5   A3           INC       DPTR
   \   0004B6   E0           MOVX      A,@DPTR
   \   0004B7   FB           MOV       R3,A
   \   0004B8   12....       LCALL     `??osal_mem_free::?relay`; Banked call to: osal_mem_free
   1047            }
   1048          
   1049            if ( outClusters != NULL )
   \                     ??ZDO_ProcessMatchDescReq_28:
   \   0004BB   85..82       MOV       DPL,?XSP + 0
   \   0004BE   85..83       MOV       DPH,?XSP + 1
   \   0004C1   E0           MOVX      A,@DPTR
   \   0004C2   F8           MOV       R0,A
   \   0004C3   A3           INC       DPTR
   \   0004C4   E0           MOVX      A,@DPTR
   \   0004C5   F9           MOV       R1,A
   \   0004C6   E8           MOV       A,R0
   \   0004C7   49           ORL       A,R1
   \   0004C8   600E         JZ        ??ZDO_ProcessMatchDescReq_3
   1050            {
   1051              osal_mem_free( outClusters );
   \   0004CA                ; Setup parameters for call to function osal_mem_free
   \   0004CA   85..82       MOV       DPL,?XSP + 0
   \   0004CD   85..83       MOV       DPH,?XSP + 1
   \   0004D0   E0           MOVX      A,@DPTR
   \   0004D1   FA           MOV       R2,A
   \   0004D2   A3           INC       DPTR
   \   0004D3   E0           MOVX      A,@DPTR
   \   0004D4   FB           MOV       R3,A
   \   0004D5   12....       LCALL     `??osal_mem_free::?relay`; Banked call to: osal_mem_free
   1052            }
   1053          }
   \                     ??ZDO_ProcessMatchDescReq_3:
   \   0004D8   7404         MOV       A,#0x4
   \   0004DA   12....       LCALL     ?DEALLOC_XSTACK8
   \   0004DD   7F0F         MOV       R7,#0xf
   \   0004DF   02....       LJMP      ?BANKED_LEAVE_XDATA
   1054          
   1055          #if defined ( REFLECTOR )
   1056          /*********************************************************************
   1057           * @fn      ZDO_ProcessBindUnbindReq()
   1058           *
   1059           * @brief   Called to process a Bind or Unbind Request message.
   1060           *
   1061           * @param   inMsg  - incoming message (request)
   1062           * @param   pReq - place to put parsed information
   1063           *
   1064           * @return  none
   1065           */

   \                                 In  segment BANKED_CODE, align 1, keep-with-next
   1066          void ZDO_ProcessBindUnbindReq( zdoIncomingMsg_t *inMsg, ZDO_BindUnbindReq_t *pReq )
   \                     ZDO_ProcessBindUnbindReq:
   1067          {
   \   000000                REQUIRE ?V0
   \   000000                REQUIRE ?V1
   \   000000                REQUIRE ?V2
   \   000000                REQUIRE ?V3
   \   000000                REQUIRE ?V4
   \   000000                REQUIRE ?V5
   \   000000                REQUIRE ?V6
   \   000000   74F1         MOV       A,#-0xf
   \   000002   12....       LCALL     ?BANKED_ENTER_XDATA
   \   000005                ; Saved register size: 15
   \   000005                ; Auto size: 12
   \   000005   74F4         MOV       A,#-0xc
   \   000007   12....       LCALL     ?ALLOC_XSTACK8
   \   00000A   EA           MOV       A,R2
   \   00000B   FE           MOV       R6,A
   \   00000C   EB           MOV       A,R3
   \   00000D   FF           MOV       R7,A
   \   00000E   8C..         MOV       ?V0,R4
   \   000010   8D..         MOV       ?V1,R5
   1068            zAddrType_t SourceAddr;       // Binding Source addres
   1069            byte bindStat;
   1070          
   1071            SourceAddr.addrMode = Addr64Bit;
   \   000012   740B         MOV       A,#0xb
   \   000014   12....       LCALL     ?XSTACK_DISP0_8
   \   000017   7403         MOV       A,#0x3
   \   000019   F0           MOVX      @DPTR,A
   1072            osal_cpyExtAddr( SourceAddr.addr.extAddr, pReq->srcAddress );
   \   00001A                ; Setup parameters for call to function sAddrExtCpy
   \   00001A   12....       LCALL     ?XSTACK_DISP101_8
   \   00001D   12....       LCALL     `??sAddrExtCpy::?relay`; Banked call to: sAddrExtCpy
   1073          
   1074            // If the local device is not the primary binding cache
   1075            // check the src address of the bind request.
   1076            // If it is not the local device's extended address
   1077            // discard the request.
   1078            if ( !osal_ExtAddrEqual( SourceAddr.addr.extAddr, NLME_GetExtAddr()) ||
   1079                  (pReq->dstAddress.addrMode != Addr64Bit &&
   1080                   pReq->dstAddress.addrMode != AddrGroup) )
   \   000020                ; Setup parameters for call to function NLME_GetExtAddr
   \   000020   12....       LCALL     `??NLME_GetExtAddr::?relay`; Banked call to: NLME_GetExtAddr
   \   000023   8A..         MOV       ?V2,R2
   \   000025   8B..         MOV       ?V3,R3
   \   000027   AC..         MOV       R4,?V2
   \   000029   AD..         MOV       R5,?V3
   \   00002B                ; Setup parameters for call to function sAddrExtCmp
   \   00002B   7403         MOV       A,#0x3
   \   00002D   12....       LCALL     ?XSTACK_DISP101_8
   \   000030   12....       LCALL     `??sAddrExtCmp::?relay`; Banked call to: sAddrExtCmp
   \   000033   E9           MOV       A,R1
   \   000034   601C         JZ        ??ZDO_ProcessBindUnbindReq_0
   \   000036   E5..         MOV       A,?V0
   \   000038   2413         ADD       A,#0x13
   \   00003A   F5..         MOV       ?V2,A
   \   00003C   E4           CLR       A
   \   00003D   35..         ADDC      A,?V1
   \   00003F   F5..         MOV       ?V3,A
   \   000041   85..82       MOV       DPL,?V2
   \   000044   F583         MOV       DPH,A
   \   000046   E0           MOVX      A,@DPTR
   \   000047   FA           MOV       R2,A
   \   000048   7403         MOV       A,#0x3
   \   00004A   6A           XRL       A,R2
   \   00004B   6010         JZ        ??ZDO_ProcessBindUnbindReq_1
   \   00004D   7401         MOV       A,#0x1
   \   00004F   6A           XRL       A,R2
   \   000050   600B         JZ        ??ZDO_ProcessBindUnbindReq_1
   1081            {
   1082              bindStat = ZDP_NOT_SUPPORTED;
   \                     ??ZDO_ProcessBindUnbindReq_0:
   \   000052   85..82       MOV       DPL,?XSP + 0
   \   000055   85..83       MOV       DPH,?XSP + 1
   \   000058   7484         MOV       A,#-0x7c
   \   00005A   02....       LJMP      ??ZDO_ProcessBindUnbindReq_2 & 0xFFFF
   1083            }
   1084            else
   1085            {
   1086              // Check source & destination endpoints
   1087              if ( (pReq->srcEndpoint == 0 || pReq->srcEndpoint > MAX_ENDPOINTS)
   1088                  || (( pReq->dstAddress.addrMode == Addr64Bit ) &&
   1089                      (pReq->dstEndpoint == 0 || pReq->dstEndpoint > MAX_ENDPOINTS)) )
   \                     ??ZDO_ProcessBindUnbindReq_1:
   \   00005D   E5..         MOV       A,?V0
   \   00005F   2408         ADD       A,#0x8
   \   000061   F8           MOV       R0,A
   \   000062   E4           CLR       A
   \   000063   35..         ADDC      A,?V1
   \   000065   88..         MOV       ?V4,R0
   \   000067   F5..         MOV       ?V5,A
   \   000069   8882         MOV       DPL,R0
   \   00006B   F583         MOV       DPH,A
   \   00006D   E0           MOVX      A,@DPTR
   \   00006E   F5..         MOV       ?V6,A
   \   000070   6025         JZ        ??ZDO_ProcessBindUnbindReq_3
   \   000072   74FF         MOV       A,#-0x1
   \   000074   65..         XRL       A,?V6
   \   000076   601F         JZ        ??ZDO_ProcessBindUnbindReq_3
   \   000078   E5..         MOV       A,?V0
   \   00007A   2414         ADD       A,#0x14
   \   00007C   F8           MOV       R0,A
   \   00007D   E4           CLR       A
   \   00007E   35..         ADDC      A,?V1
   \   000080   F9           MOV       R1,A
   \   000081   E8           MOV       A,R0
   \   000082   FC           MOV       R4,A
   \   000083   E9           MOV       A,R1
   \   000084   FD           MOV       R5,A
   \   000085   7403         MOV       A,#0x3
   \   000087   6A           XRL       A,R2
   \   000088   7018         JNZ       ??ZDO_ProcessBindUnbindReq_4
   \   00008A   8882         MOV       DPL,R0
   \   00008C   8983         MOV       DPH,R1
   \   00008E   E0           MOVX      A,@DPTR
   \   00008F   F8           MOV       R0,A
   \   000090   6005         JZ        ??ZDO_ProcessBindUnbindReq_3
   \   000092   74FF         MOV       A,#-0x1
   \   000094   68           XRL       A,R0
   \   000095   700B         JNZ       ??ZDO_ProcessBindUnbindReq_4
   1090              {
   1091                bindStat = ZDP_INVALID_EP;
   \                     ??ZDO_ProcessBindUnbindReq_3:
   \   000097   85..82       MOV       DPL,?XSP + 0
   \   00009A   85..83       MOV       DPH,?XSP + 1
   \   00009D   7482         MOV       A,#-0x7e
   \   00009F   02....       LJMP      ??ZDO_ProcessBindUnbindReq_2 & 0xFFFF
   1092              }
   1093              else
   1094              {
   1095                if ( inMsg->clusterID == Bind_req )
   \                     ??ZDO_ProcessBindUnbindReq_4:
   \   0000A2   E5..         MOV       A,?V0
   \   0000A4   2409         ADD       A,#0x9
   \   0000A6   F8           MOV       R0,A
   \   0000A7   E4           CLR       A
   \   0000A8   35..         ADDC      A,?V1
   \   0000AA   F9           MOV       R1,A
   \   0000AB   E8           MOV       A,R0
   \   0000AC   FA           MOV       R2,A
   \   0000AD   E5..         MOV       A,?V0
   \   0000AF   240B         ADD       A,#0xb
   \   0000B1   F5..         MOV       ?V0,A
   \   0000B3   5002         JNC       ??ZDO_ProcessBindUnbindReq_5
   \   0000B5   05..         INC       ?V1
   \                     ??ZDO_ProcessBindUnbindReq_5:
   \   0000B7   EE           MOV       A,R6
   \   0000B8   240C         ADD       A,#0xc
   \   0000BA   F582         MOV       DPL,A
   \   0000BC   E4           CLR       A
   \   0000BD   3F           ADDC      A,R7
   \   0000BE   F583         MOV       DPH,A
   \   0000C0   E0           MOVX      A,@DPTR
   \   0000C1   6421         XRL       A,#0x21
   \   0000C3   7002         JNZ       ??ZDO_ProcessBindUnbindReq_6
   \   0000C5   A3           INC       DPTR
   \   0000C6   E0           MOVX      A,@DPTR
   \                     ??ZDO_ProcessBindUnbindReq_6:
   \   0000C7   7069         JNZ       ??ZDO_ProcessBindUnbindReq_7
   1096                {
   1097                  // Assume the table is full
   1098                  bindStat = ZDP_TABLE_FULL;
   \   0000C9   85..82       MOV       DPL,?XSP + 0
   \   0000CC   85..83       MOV       DPH,?XSP + 1
   \   0000CF   748C         MOV       A,#-0x74
   \   0000D1   F0           MOVX      @DPTR,A
   1099          
   1100          #if defined( APP_TP ) || defined( APP_TP2 )
   1101                  // For ZigBee Conformance Testing
   1102                  if ( bindNumOfEntries() < gNWK_MAX_BINDING_ENTRIES )
   1103          #endif
   1104                  {
   1105          #if defined ( ZDP_BIND_VALIDATION )
   1106                    uint16 nwkAddr;
   1107          
   1108                    // Verifies that a valid NWK address exists for the device
   1109                    // before creating a Binding entry. If NWK address does not
   1110                    // exist the request is sent out and the BindReq is saved, to
   1111                    // create the Bind Entry once the NwkAddrRsp is received
   1112                    if ( ( pReq->dstAddress.addrMode == Addr64Bit ) &&
   1113                         ( APSME_LookupNwkAddr( pReq->dstAddress.addr.extAddr, &nwkAddr ) == FALSE ) )
   1114                    {
   1115                      // find an empty bind slot in the pending Bind Req list
   1116                      ZDO_PendingBindReq_t *pPendingBind;
   1117          
   1118                      if ( ( pPendingBind = ZDApp_GetEmptyPendingBindReq() ) != NULL )
   1119                      {
   1120                        // copy the received request into the empty slot and all required info
   1121                        osal_memcpy( &(pPendingBind->bindReq), pReq, sizeof( ZDO_BindUnbindReq_t ) );
   1122          
   1123                        pPendingBind->srcAddr = inMsg->srcAddr;
   1124                        pPendingBind->securityUse = inMsg->SecurityUse;
   1125                        pPendingBind->transSeq = inMsg->TransSeq;
   1126                        pPendingBind->age = MAX_TIME_ADDR_REQ;
   1127          
   1128                        // create an entry in Address Manager
   1129                        ( void )bindAddrIndexGet( &(pReq->dstAddress) );
   1130          
   1131                        ZDP_NwkAddrReq( pReq->dstAddress.addr.extAddr, ZDP_ADDR_REQTYPE_SINGLE, 0, 0 );
   1132          
   1133                        osal_start_timerEx( ZDAppTaskID, ZDO_PENDING_BIND_REQ_EVT,
   1134                                            AGE_OUT_PEND_BIND_REQ_DELAY );
   1135                        return;
   1136                      }
   1137                    }
   1138                    // Add Bind entry
   1139                    else if ( APSME_BindRequest( pReq->srcEndpoint, pReq->clusterID,
   1140                                                 &(pReq->dstAddress), pReq->dstEndpoint ) == ZSuccess )
   1141                    {
   1142                      // valid entry
   1143                      bindStat = ZDP_SUCCESS;
   1144          
   1145                      // Notify to save info into NV
   1146                      ZDApp_NVUpdate();
   1147                    }
   1148          #else // ZDP_BIND_VALIDATION  is not Defined
   1149                    // Create binding entry first independently of existance of  valid NWK addres
   1150                    // if NWK address does not exist a request is sent out
   1151                    if ( APSME_BindRequest( pReq->srcEndpoint, pReq->clusterID,
   1152                                   &(pReq->dstAddress), pReq->dstEndpoint ) == ZSuccess )
   \   0000D2                ; Setup parameters for call to function APSME_BindRequest
   \   0000D2   8C82         MOV       DPL,R4
   \   0000D4   8D83         MOV       DPH,R5
   \   0000D6   E0           MOVX      A,@DPTR
   \   0000D7   F5..         MOV       ?V6,A
   \   0000D9   78..         MOV       R0,#?V6
   \   0000DB   12....       LCALL     ?PUSH_XSTACK_I_ONE
   \   0000DE   AC..         MOV       R4,?V0
   \   0000E0   AD..         MOV       R5,?V1
   \   0000E2   8A82         MOV       DPL,R2
   \   0000E4   8983         MOV       DPH,R1
   \   0000E6   E0           MOVX      A,@DPTR
   \   0000E7   FA           MOV       R2,A
   \   0000E8   A3           INC       DPTR
   \   0000E9   E0           MOVX      A,@DPTR
   \   0000EA   FB           MOV       R3,A
   \   0000EB   85..82       MOV       DPL,?V4
   \   0000EE   85..83       MOV       DPH,?V5
   \   0000F1   E0           MOVX      A,@DPTR
   \   0000F2   F9           MOV       R1,A
   \   0000F3   12....       LCALL     `??APSME_BindRequest::?relay`; Banked call to: APSME_BindRequest
   \   0000F6   7401         MOV       A,#0x1
   \   0000F8   12....       LCALL     ?DEALLOC_XSTACK8
   \   0000FB   E9           MOV       A,R1
   \   0000FC   706A         JNZ       ??ZDO_ProcessBindUnbindReq_8
   1153                    {
   1154                      uint16 nwkAddr;
   1155          
   1156                      // valid entry
   1157                      bindStat = ZDP_SUCCESS;
   \   0000FE   85..82       MOV       DPL,?XSP + 0
   \   000101   85..83       MOV       DPH,?XSP + 1
   \   000104   E4           CLR       A
   \   000105   F0           MOVX      @DPTR,A
   1158          
   1159                      // Notify to save info into NV
   1160                      ZDApp_NVUpdate();
   \   000106                ; Setup parameters for call to function ZDApp_NVUpdate
   \   000106   12....       LCALL     `??ZDApp_NVUpdate::?relay`; Banked call to: ZDApp_NVUpdate
   1161          
   1162                      // Check for the destination address
   1163                      if ( pReq->dstAddress.addrMode == Addr64Bit )
   \   000109   85..82       MOV       DPL,?V2
   \   00010C   85..83       MOV       DPH,?V3
   \   00010F   E0           MOVX      A,@DPTR
   \   000110   6403         XRL       A,#0x3
   \   000112   7054         JNZ       ??ZDO_ProcessBindUnbindReq_8
   1164                      {
   1165                        if ( APSME_LookupNwkAddr( pReq->dstAddress.addr.extAddr, &nwkAddr ) == FALSE )
   \   000114                ; Setup parameters for call to function APSME_LookupNwkAddr
   \   000114   7401         MOV       A,#0x1
   \   000116   12....       LCALL     ?XSTACK_DISP102_8
   \   000119   AA..         MOV       R2,?V0
   \   00011B   AB..         MOV       R3,?V1
   \   00011D   12....       LCALL     `??APSME_LookupNwkAddr::?relay`; Banked call to: APSME_LookupNwkAddr
   \   000120   E9           MOV       A,R1
   \   000121   7045         JNZ       ??ZDO_ProcessBindUnbindReq_8
   1166                        {
   1167                          ZDP_NwkAddrReq( pReq->dstAddress.addr.extAddr, ZDP_ADDR_REQTYPE_SINGLE, 0, 0 );
   \   000123                ; Setup parameters for call to function ZDP_NwkAddrReq
   \   000123   7D00         MOV       R5,#0x0
   \   000125   7C00         MOV       R4,#0x0
   \   000127   7900         MOV       R1,#0x0
   \   000129   AA..         MOV       R2,?V0
   \   00012B   AB..         MOV       R3,?V1
   \   00012D   12....       LCALL     `??ZDP_NwkAddrReq::?relay`; Banked call to: ZDP_NwkAddrReq
   \   000130   8036         SJMP      ??ZDO_ProcessBindUnbindReq_8
   1168                        }
   1169                      }
   1170                    }
   1171          #endif
   1172                  }
   1173                }
   1174                else // Unbind_req
   1175                {
   1176                  if ( APSME_UnBindRequest( pReq->srcEndpoint, pReq->clusterID,
   1177                                 &(pReq->dstAddress), pReq->dstEndpoint ) == ZSuccess )
   \                     ??ZDO_ProcessBindUnbindReq_7:
   \   000132                ; Setup parameters for call to function APSME_UnBindRequest
   \   000132   8C82         MOV       DPL,R4
   \   000134   8D83         MOV       DPH,R5
   \   000136   E0           MOVX      A,@DPTR
   \   000137   F5..         MOV       ?V2,A
   \   000139   78..         MOV       R0,#?V2
   \   00013B   12....       LCALL     ?PUSH_XSTACK_I_ONE
   \   00013E   AC..         MOV       R4,?V0
   \   000140   AD..         MOV       R5,?V1
   \   000142   8A82         MOV       DPL,R2
   \   000144   8983         MOV       DPH,R1
   \   000146   E0           MOVX      A,@DPTR
   \   000147   FA           MOV       R2,A
   \   000148   A3           INC       DPTR
   \   000149   E0           MOVX      A,@DPTR
   \   00014A   FB           MOV       R3,A
   \   00014B   A9..         MOV       R1,?V6
   \   00014D   12....       LCALL     `??APSME_UnBindRequest::?relay`; Banked call to: APSME_UnBindRequest
   \   000150   7401         MOV       A,#0x1
   \   000152   12....       LCALL     ?DEALLOC_XSTACK8
   \   000155   E9           MOV       A,R1
   \   000156   85..82       MOV       DPL,?XSP + 0
   \   000159   85..83       MOV       DPH,?XSP + 1
   \   00015C   7007         JNZ       ??ZDO_ProcessBindUnbindReq_9
   1178                  {
   1179                    bindStat = ZDP_SUCCESS;
   \   00015E   E4           CLR       A
   \   00015F   F0           MOVX      @DPTR,A
   1180          
   1181                    // Notify to save info into NV
   1182                    ZDApp_NVUpdate();
   \   000160                ; Setup parameters for call to function ZDApp_NVUpdate
   \   000160   12....       LCALL     `??ZDApp_NVUpdate::?relay`; Banked call to: ZDApp_NVUpdate
   \   000163   8003         SJMP      ??ZDO_ProcessBindUnbindReq_8
   1183                  }
   1184                  else
   1185                    bindStat = ZDP_NO_ENTRY;
   \                     ??ZDO_ProcessBindUnbindReq_9:
   \   000165   7488         MOV       A,#-0x78
   \                     ??ZDO_ProcessBindUnbindReq_2:
   \   000167   F0           MOVX      @DPTR,A
   1186                }
   1187              }
   1188            }
   1189          
   1190            // Send back a response message
   1191            ZDP_SendData( &(inMsg->TransSeq), &(inMsg->srcAddr),
   1192                         (inMsg->clusterID | ZDO_RESPONSE_BIT), 1, &bindStat,
   1193                         inMsg->SecurityUse );
   \                     ??ZDO_ProcessBindUnbindReq_8:
   \   000168                ; Setup parameters for call to function ZDP_SendData
   \   000168   EE           MOV       A,R6
   \   000169   240E         ADD       A,#0xe
   \   00016B   F582         MOV       DPL,A
   \   00016D   E4           CLR       A
   \   00016E   3F           ADDC      A,R7
   \   00016F   F583         MOV       DPH,A
   \   000171   E0           MOVX      A,@DPTR
   \   000172   F5..         MOV       ?V0,A
   \   000174   78..         MOV       R0,#?V0
   \   000176   12....       LCALL     ?PUSH_XSTACK_I_ONE
   \   000179   7401         MOV       A,#0x1
   \   00017B   12....       LCALL     ?XSTACK_DISP100_8
   \   00017E   88..         MOV       ?V0,R0
   \   000180   89..         MOV       ?V1,R1
   \   000182   78..         MOV       R0,#?V0
   \   000184   12....       LCALL     ?PUSH_XSTACK_I_TWO
   \   000187   EE           MOV       A,R6
   \   000188   240C         ADD       A,#0xc
   \   00018A   F582         MOV       DPL,A
   \   00018C   E4           CLR       A
   \   00018D   3F           ADDC      A,R7
   \   00018E   F583         MOV       DPH,A
   \   000190   E0           MOVX      A,@DPTR
   \   000191   F5..         MOV       ?V0,A
   \   000193   A3           INC       DPTR
   \   000194   E0           MOVX      A,@DPTR
   \   000195   4480         ORL       A,#0x80
   \   000197   F5..         MOV       ?V1,A
   \   000199   78..         MOV       R0,#?V0
   \   00019B   12....       LCALL     ?PUSH_XSTACK_I_TWO
   \   00019E   7901         MOV       R1,#0x1
   \   0001A0   EE           MOV       A,R6
   \   0001A1   2402         ADD       A,#0x2
   \   0001A3   FC           MOV       R4,A
   \   0001A4   E4           CLR       A
   \   0001A5   3F           ADDC      A,R7
   \   0001A6   FD           MOV       R5,A
   \   0001A7   EE           MOV       A,R6
   \   0001A8   240F         ADD       A,#0xf
   \   0001AA   FA           MOV       R2,A
   \   0001AB   E4           CLR       A
   \   0001AC   3F           ADDC      A,R7
   \   0001AD   FB           MOV       R3,A
   \   0001AE   12....       LCALL     `??ZDP_SendData::?relay`; Banked call to: ZDP_SendData
   \   0001B1   7405         MOV       A,#0x5
   \   0001B3   12....       LCALL     ?DEALLOC_XSTACK8
   1194          }
   \   0001B6   740C         MOV       A,#0xc
   \   0001B8   12....       LCALL     ?DEALLOC_XSTACK8
   \   0001BB   7F07         MOV       R7,#0x7
   \   0001BD   02....       LJMP      ?BANKED_LEAVE_XDATA
   1195          #endif // REFLECTOR
   1196          
   1197          /*********************************************************************
   1198           * @fn      ZDO_UpdateAddrManager
   1199           *
   1200           * @brief   Update the Address Manager.
   1201           *
   1202           * @param   nwkAddr - network address
   1203           * @param   extAddr - extended address
   1204           *
   1205           * @return  none
   1206           */

   \                                 In  segment BANKED_CODE, align 1, keep-with-next
   1207          void ZDO_UpdateAddrManager( uint16 nwkAddr, uint8 *extAddr )
   \                     ZDO_UpdateAddrManager:
   1208          {
   \   000000   C082         PUSH      DPL
   \   000002   C083         PUSH      DPH
   \   000004                ; Saved register size: 2
   \   000004                ; Auto size: 13
   \   000004   74F3         MOV       A,#-0xd
   \   000006   12....       LCALL     ?ALLOC_XSTACK8
   1209            AddrMgrEntry_t addrEntry;
   1210          
   1211            // Update the address manager
   1212            addrEntry.user = ADDRMGR_USER_DEFAULT;
   \   000009   85..82       MOV       DPL,?XSP + 0
   \   00000C   85..83       MOV       DPH,?XSP + 1
   \   00000F   E4           CLR       A
   \   000010   F0           MOVX      @DPTR,A
   1213            addrEntry.nwkAddr = nwkAddr;
   \   000011   04           INC       A
   \   000012   12....       LCALL     ?XSTACK_DISP0_8
   \   000015   EA           MOV       A,R2
   \   000016   F0           MOVX      @DPTR,A
   \   000017   A3           INC       DPTR
   \   000018   EB           MOV       A,R3
   \   000019   F0           MOVX      @DPTR,A
   1214            AddrMgrExtAddrSet( addrEntry.extAddr, extAddr );
   \   00001A                ; Setup parameters for call to function AddrMgrExtAddrSet
   \   00001A   7403         MOV       A,#0x3
   \   00001C   12....       LCALL     ?XSTACK_DISP0_8
   \   00001F   AA82         MOV       R2,DPL
   \   000021   AB83         MOV       R3,DPH
   \   000023   12....       LCALL     `??AddrMgrExtAddrSet::?relay`; Banked call to: AddrMgrExtAddrSet
   1215            AddrMgrEntryUpdate( &addrEntry );
   \   000026                ; Setup parameters for call to function AddrMgrEntryUpdate
   \   000026   AA..         MOV       R2,?XSP + 0
   \   000028   AB..         MOV       R3,?XSP + 1
   \   00002A   12....       LCALL     `??AddrMgrEntryUpdate::?relay`; Banked call to: AddrMgrEntryUpdate
   1216          }
   \   00002D   740D         MOV       A,#0xd
   \   00002F   12....       LCALL     ?DEALLOC_XSTACK8
   \   000032   D083         POP       DPH
   \   000034   D082         POP       DPL
   \   000036   02....       LJMP      ?BRET
   1217          
   1218          /*********************************************************************
   1219           * @fn      ZDO_ProcessServerDiscReq
   1220           *
   1221           * @brief   Process the Server_Discovery_req message.
   1222           *
   1223           * @param   inMsg  - incoming message (request)
   1224           *
   1225           * @return  none
   1226           */

   \                                 In  segment BANKED_CODE, align 1, keep-with-next
   1227          void ZDO_ProcessServerDiscReq( zdoIncomingMsg_t *inMsg )
   \                     ZDO_ProcessServerDiscReq:
   1228          {
   \   000000                REQUIRE ?V0
   \   000000                REQUIRE ?V1
   \   000000   74F6         MOV       A,#-0xa
   \   000002   12....       LCALL     ?BANKED_ENTER_XDATA
   \   000005                ; Saved register size: 10
   \   000005                ; Auto size: 0
   \   000005   EA           MOV       A,R2
   \   000006   FE           MOV       R6,A
   \   000007   EB           MOV       A,R3
   \   000008   FF           MOV       R7,A
   1229            uint16 serverMask = BUILD_UINT16( inMsg->asdu[0], inMsg->asdu[1] );
   1230            uint16 matchMask = serverMask & ZDO_Config_Node_Descriptor.ServerMask;
   \   000009   EA           MOV       A,R2
   \   00000A   2413         ADD       A,#0x13
   \   00000C   F582         MOV       DPL,A
   \   00000E   E4           CLR       A
   \   00000F   3F           ADDC      A,R7
   \   000010   F583         MOV       DPH,A
   \   000012   E0           MOVX      A,@DPTR
   \   000013   F8           MOV       R0,A
   \   000014   A3           INC       DPTR
   \   000015   E0           MOVX      A,@DPTR
   \   000016   8882         MOV       DPL,R0
   \   000018   F583         MOV       DPH,A
   \   00001A   E0           MOVX      A,@DPTR
   \   00001B   FA           MOV       R2,A
   \   00001C   A3           INC       DPTR
   \   00001D   E0           MOVX      A,@DPTR
   \   00001E   F9           MOV       R1,A
   \   00001F   EA           MOV       A,R2
   \   000020   F8           MOV       R0,A
   \   000021   90....       MOV       DPTR,#ZDO_Config_Node_Descriptor + 8
   \   000024   E0           MOVX      A,@DPTR
   \   000025   58           ANL       A,R0
   \   000026   F5..         MOV       ?V0,A
   \   000028   A3           INC       DPTR
   \   000029   E0           MOVX      A,@DPTR
   \   00002A   59           ANL       A,R1
   \   00002B   F5..         MOV       ?V1,A
   1231          
   1232            if ( matchMask )
   \   00002D   E5..         MOV       A,?V0
   \   00002F   45..         ORL       A,?V1
   \   000031   6032         JZ        ??ZDO_ProcessServerDiscReq_0
   1233            {
   1234              ZDP_ServerDiscRsp( inMsg->TransSeq, &(inMsg->srcAddr), ZSUCCESS,
   1235                          ZDAppNwkAddr.addr.shortAddr, matchMask, inMsg->SecurityUse );
   \   000033                ; Setup parameters for call to function ZDP_ServerDiscRsp
   \   000033   78..         MOV       R0,#?V0
   \   000035   12....       LCALL     ?PUSH_XSTACK_I_TWO
   \   000038   90....       MOV       DPTR,#ZDAppNwkAddr
   \   00003B   12....       LCALL     ?PUSH_XSTACK8_X_TWO
   \   00003E   EE           MOV       A,R6
   \   00003F   240E         ADD       A,#0xe
   \   000041   F582         MOV       DPL,A
   \   000043   E4           CLR       A
   \   000044   3F           ADDC      A,R7
   \   000045   F583         MOV       DPH,A
   \   000047   E0           MOVX      A,@DPTR
   \   000048   FD           MOV       R5,A
   \   000049   7C00         MOV       R4,#0x0
   \   00004B   EE           MOV       A,R6
   \   00004C   2402         ADD       A,#0x2
   \   00004E   FA           MOV       R2,A
   \   00004F   E4           CLR       A
   \   000050   3F           ADDC      A,R7
   \   000051   FB           MOV       R3,A
   \   000052   EE           MOV       A,R6
   \   000053   240F         ADD       A,#0xf
   \   000055   F582         MOV       DPL,A
   \   000057   E4           CLR       A
   \   000058   3F           ADDC      A,R7
   \   000059   F583         MOV       DPH,A
   \   00005B   E0           MOVX      A,@DPTR
   \   00005C   F9           MOV       R1,A
   \   00005D   12....       LCALL     `??ZDP_ServerDiscRsp::?relay`; Banked call to: ZDP_ServerDiscRsp
   \   000060   7404         MOV       A,#0x4
   \   000062   12....       LCALL     ?DEALLOC_XSTACK8
   1236            }
   1237          }
   \                     ??ZDO_ProcessServerDiscReq_0:
   \   000065   7F02         MOV       R7,#0x2
   \   000067   02....       LJMP      ?BANKED_LEAVE_XDATA
   1238          
   1239          /*********************************************************************
   1240           * Call Back Functions from APS  - API
   1241           */
   1242          
   1243          /*********************************************************************
   1244           * @fn          ZDO_EndDeviceTimeoutCB
   1245           *
   1246           * @brief       This function handles the binding timer for the End
   1247           *              Device Bind command.
   1248           *
   1249           * @param       none
   1250           *
   1251           * @return      none
   1252           */

   \                                 In  segment BANKED_CODE, align 1, keep-with-next
   1253          void ZDO_EndDeviceTimeoutCB( void )
   \                     ZDO_EndDeviceTimeoutCB:
   1254          {
   \   000000   C082         PUSH      DPL
   \   000002   C083         PUSH      DPH
   \   000004                ; Saved register size: 2
   \   000004                ; Auto size: 0
   1255          #if defined ( REFLECTOR )
   1256            byte stat;
   1257            if ( ZDO_EDBind )
   \   000004   90....       MOV       DPTR,#ZDO_EDBind
   \   000007   E0           MOVX      A,@DPTR
   \   000008   F8           MOV       R0,A
   \   000009   A3           INC       DPTR
   \   00000A   E0           MOVX      A,@DPTR
   \   00000B   F9           MOV       R1,A
   \   00000C   E8           MOV       A,R0
   \   00000D   49           ORL       A,R1
   \   00000E   6043         JZ        ??ZDO_EndDeviceTimeoutCB_0
   1258            {
   1259              stat = ZDO_EDBind->status;
   1260          
   1261              // Send the response message to the first sent
   1262              ZDO_SendEDBindRsp( ZDO_EDBind->SrcTransSeq, &(ZDO_EDBind->SrcAddr),
   1263                                  stat, ZDO_EDBind->SecurityUse );
   \   000010                ; Setup parameters for call to function ZDO_SendEDBindRsp
   \   000010   90....       MOV       DPTR,#ZDO_EDBind
   \   000013   E0           MOVX      A,@DPTR
   \   000014   F8           MOV       R0,A
   \   000015   A3           INC       DPTR
   \   000016   E0           MOVX      A,@DPTR
   \   000017   C8           XCH       A,R0
   \   000018   2415         ADD       A,#0x15
   \   00001A   F582         MOV       DPL,A
   \   00001C   E4           CLR       A
   \   00001D   38           ADDC      A,R0
   \   00001E   F583         MOV       DPH,A
   \   000020   E0           MOVX      A,@DPTR
   \   000021   FD           MOV       R5,A
   \   000022   90....       MOV       DPTR,#ZDO_EDBind
   \   000025   E0           MOVX      A,@DPTR
   \   000026   F8           MOV       R0,A
   \   000027   A3           INC       DPTR
   \   000028   E0           MOVX      A,@DPTR
   \   000029   C8           XCH       A,R0
   \   00002A   2416         ADD       A,#0x16
   \   00002C   F582         MOV       DPL,A
   \   00002E   E4           CLR       A
   \   00002F   38           ADDC      A,R0
   \   000030   F583         MOV       DPH,A
   \   000032   E0           MOVX      A,@DPTR
   \   000033   FC           MOV       R4,A
   \   000034   90....       MOV       DPTR,#ZDO_EDBind
   \   000037   E0           MOVX      A,@DPTR
   \   000038   2401         ADD       A,#0x1
   \   00003A   FA           MOV       R2,A
   \   00003B   A3           INC       DPTR
   \   00003C   E0           MOVX      A,@DPTR
   \   00003D   3400         ADDC      A,#0x0
   \   00003F   FB           MOV       R3,A
   \   000040   90....       MOV       DPTR,#ZDO_EDBind
   \   000043   E0           MOVX      A,@DPTR
   \   000044   F8           MOV       R0,A
   \   000045   A3           INC       DPTR
   \   000046   E0           MOVX      A,@DPTR
   \   000047   F583         MOV       DPH,A
   \   000049   8882         MOV       DPL,R0
   \   00004B   E0           MOVX      A,@DPTR
   \   00004C   F9           MOV       R1,A
   \   00004D   12....       LCALL     `??ZDO_SendEDBindRsp::?relay`; Banked call to: ZDO_SendEDBindRsp
   1264          
   1265              ZDO_RemoveEndDeviceBind();
   \   000050                ; Setup parameters for call to function ZDO_RemoveEndDeviceBind
   \   000050   12....       LCALL     `??ZDO_RemoveEndDeviceBind::?relay`; Banked call to: ZDO_RemoveEndDeviceBind
   1266            }
   1267          #endif  // REFLECTOR
   1268          }
   \                     ??ZDO_EndDeviceTimeoutCB_0:
   \   000053   D083         POP       DPH
   \   000055   D082         POP       DPL
   \   000057   02....       LJMP      ?BRET
   1269          
   1270          /*********************************************************************
   1271           * Optional Management Messages
   1272           */
   1273          
   1274          /*********************************************************************
   1275           * @fn          ZDO_ProcessMgmtLqiReq
   1276           *
   1277           * @brief       This function handles parsing the incoming Management
   1278           *              LQI request and generate the response.
   1279           *
   1280           *   Note:      This function will limit the number of items returned
   1281           *              to ZDO_MAX_LQI_ITEMS items.
   1282           *
   1283           * @param       inMsg - incoming message (request)
   1284           *
   1285           * @return      none
   1286           */

   \                                 In  segment BANKED_CODE, align 1, keep-with-next
   1287          void ZDO_ProcessMgmtLqiReq( zdoIncomingMsg_t *inMsg )
   \                     ZDO_ProcessMgmtLqiReq:
   1288          {
   \   000000                REQUIRE ?V0
   \   000000                REQUIRE ?V1
   \   000000                REQUIRE ?V2
   \   000000                REQUIRE ?V3
   \   000000                REQUIRE ?V4
   \   000000                REQUIRE ?V5
   \   000000                REQUIRE ?V6
   \   000000                REQUIRE ?V8
   \   000000                REQUIRE ?V9
   \   000000                REQUIRE ?V10
   \   000000                REQUIRE ?V11
   \   000000                REQUIRE ?V12
   \   000000                REQUIRE ?V13
   \   000000                REQUIRE ?V14
   \   000000                REQUIRE ?V15
   \   000000   74E8         MOV       A,#-0x18
   \   000002   12....       LCALL     ?BANKED_ENTER_XDATA
   \   000005                ; Saved register size: 24
   \   000005                ; Auto size: 37
   \   000005   74DB         MOV       A,#-0x25
   \   000007   12....       LCALL     ?ALLOC_XSTACK8
   \   00000A   8A..         MOV       ?V14,R2
   \   00000C   8B..         MOV       ?V15,R3
   1289            byte x;
   1290            byte index;
   1291            byte numItems;
   1292            byte maxItems;
   1293            ZDP_MgmtLqiItem_t* table = NULL;
   \   00000E   75..00       MOV       ?V10,#0x0
   \   000011   75..00       MOV       ?V11,#0x0
   1294            ZDP_MgmtLqiItem_t* item;
   1295            neighborEntry_t    entry;
   1296            byte aItems = 0;
   \   000014   75..00       MOV       ?V2,#0x0
   1297            associated_devices_t *aDevice;
   1298            AddrMgrEntry_t  nwkEntry;
   1299            uint8 StartIndex = inMsg->asdu[0];
   \   000017   EA           MOV       A,R2
   \   000018   2413         ADD       A,#0x13
   \   00001A   F582         MOV       DPL,A
   \   00001C   E4           CLR       A
   \   00001D   35..         ADDC      A,?V15
   \   00001F   F583         MOV       DPH,A
   \   000021   E0           MOVX      A,@DPTR
   \   000022   F8           MOV       R0,A
   \   000023   A3           INC       DPTR
   \   000024   E0           MOVX      A,@DPTR
   \   000025   F583         MOV       DPH,A
   \   000027   8882         MOV       DPL,R0
   \   000029   E0           MOVX      A,@DPTR
   \   00002A   F5..         MOV       ?V6,A
   1300          
   1301            // Get the number of neighbor items
   1302            NLME_GetRequest( nwkNumNeighborTableEntries, 0, &maxItems );
   \   00002C                ; Setup parameters for call to function NLME_GetRequest
   \   00002C   AC..         MOV       R4,?XSP + 0
   \   00002E   AD..         MOV       R5,?XSP + 1
   \   000030   7A00         MOV       R2,#0x0
   \   000032   7B00         MOV       R3,#0x0
   \   000034   799C         MOV       R1,#-0x64
   \   000036   12....       LCALL     `??NLME_GetRequest::?relay`; Banked call to: NLME_GetRequest
   1303          
   1304            //Routing devices uses assoc table, end devices don't
   1305            if ( ZG_DEVICE_RTR_TYPE )
   \   000039   90....       MOV       DPTR,#zgDeviceLogicalType
   \   00003C   E0           MOVX      A,@DPTR
   \   00003D   6005         JZ        ??ZDO_ProcessMgmtLqiReq_0
   \   00003F   E0           MOVX      A,@DPTR
   \   000040   6401         XRL       A,#0x1
   \   000042   7014         JNZ       ??ZDO_ProcessMgmtLqiReq_1
   1306            {
   1307              // Get the number of associated items
   1308              aItems = (uint8)AssocCount( PARENT, CHILD_FFD_RX_IDLE );
   \                     ??ZDO_ProcessMgmtLqiReq_0:
   \   000044                ; Setup parameters for call to function AssocCount
   \   000044   7A04         MOV       R2,#0x4
   \   000046   7900         MOV       R1,#0x0
   \   000048   12....       LCALL     `??AssocCount::?relay`; Banked call to: AssocCount
   \   00004B   EA           MOV       A,R2
   \   00004C   F5..         MOV       ?V2,A
   1309              // Total number of items
   1310              maxItems += aItems;
   \   00004E   85..82       MOV       DPL,?XSP + 0
   \   000051   85..83       MOV       DPH,?XSP + 1
   \   000054   E0           MOVX      A,@DPTR
   \   000055   2A           ADD       A,R2
   \   000056   8008         SJMP      ??ZDO_ProcessMgmtLqiReq_2
   1311            }
   1312            else
   1313            {
   1314              maxItems = 1;
   \                     ??ZDO_ProcessMgmtLqiReq_1:
   \   000058   85..82       MOV       DPL,?XSP + 0
   \   00005B   85..83       MOV       DPH,?XSP + 1
   \   00005E   7401         MOV       A,#0x1
   \                     ??ZDO_ProcessMgmtLqiReq_2:
   \   000060   F0           MOVX      @DPTR,A
   1315            }
   1316          
   1317            // Start with the supplied index
   1318            if ( maxItems > StartIndex )
   \   000061   E0           MOVX      A,@DPTR
   \   000062   F8           MOV       R0,A
   \   000063   E5..         MOV       A,?V6
   \   000065   C3           CLR       C
   \   000066   98           SUBB      A,R0
   \   000067   4003         JC        $+5
   \   000069   02....       LJMP      ??ZDO_ProcessMgmtLqiReq_3 & 0xFFFF
   1319            {
   1320              numItems = maxItems - StartIndex;
   \   00006C   E0           MOVX      A,@DPTR
   \   00006D   C3           CLR       C
   \   00006E   95..         SUBB      A,?V6
   \   000070   F5..         MOV       ?V1,A
   1321          
   1322              // limit the size of the list
   1323              if ( numItems > ZDO_MAX_LQI_ITEMS )
   \   000072   C3           CLR       C
   \   000073   9404         SUBB      A,#0x4
   \   000075   4003         JC        ??ZDO_ProcessMgmtLqiReq_4
   1324              {
   1325                numItems = ZDO_MAX_LQI_ITEMS;
   \   000077   75..03       MOV       ?V1,#0x3
   1326              }
   1327              
   1328              // Allocate the memory to build the table
   1329              table = (ZDP_MgmtLqiItem_t*)osal_mem_alloc( (short)
   1330                        ( numItems * sizeof( ZDP_MgmtLqiItem_t ) ) );
   \                     ??ZDO_ProcessMgmtLqiReq_4:
   \   00007A                ; Setup parameters for call to function osal_mem_alloc
   \   00007A   E5..         MOV       A,?V1
   \   00007C   75F01A       MOV       B,#0x1a
   \   00007F   A4           MUL       AB
   \   000080   FA           MOV       R2,A
   \   000081   ABF0         MOV       R3,B
   \   000083   12....       LCALL     `??osal_mem_alloc::?relay`; Banked call to: osal_mem_alloc
   \   000086   8A..         MOV       ?V10,R2
   \   000088   8B..         MOV       ?V11,R3
   1331          
   1332              if ( table != NULL )
   \   00008A   EA           MOV       A,R2
   \   00008B   4B           ORL       A,R3
   \   00008C   7003         JNZ       $+5
   \   00008E   02....       LJMP      ??ZDO_ProcessMgmtLqiReq_5 & 0xFFFF
   1333              {
   1334                x = 0;
   \   000091   75..00       MOV       ?V3,#0x0
   1335                item = table;
   \   000094   AE..         MOV       R6,?V10
   \   000096   AF..         MOV       R7,?V11
   1336                index = StartIndex;
   \   000098   85....       MOV       ?V0,?V6
   \   00009B   02....       LJMP      ??ZDO_ProcessMgmtLqiReq_6 & 0xFFFF
   1337          
   1338                // Loop through associated items and build list
   1339                for ( ; x < numItems; x++ )
   1340                {
   1341                  if ( index < aItems )
   1342                  {
   1343                    // get next associated device
   1344                    aDevice = AssocFindDevice( index++ );
   1345          
   1346                    // set basic fields
   1347                    item->panID   = _NIB.nwkPanId;
   1348                    osal_cpyExtAddr( item->extPanID, _NIB.extendedPANID );
   1349                    item->nwkAddr = aDevice->shortAddr;
   1350                    item->permit  = ZDP_MGMT_BOOL_UNKNOWN;
   1351                    item->depth   = 0xFF;
   1352                    item->lqi     = aDevice->linkInfo.rxLqi;
   1353          
   1354                    // set extented address
   1355                    nwkEntry.user    = ADDRMGR_USER_DEFAULT;
   1356                    nwkEntry.nwkAddr = aDevice->shortAddr;
   1357          
   1358                    if ( AddrMgrEntryLookupNwk( &nwkEntry ) == TRUE )
   1359                    {
   1360                      osal_cpyExtAddr( item->extAddr, nwkEntry.extAddr );
   1361                    }
   1362                    else
   1363                    {
   1364                      osal_memset( item->extAddr, 0xFF, Z_EXTADDR_LEN );
   \                     ??ZDO_ProcessMgmtLqiReq_7:
   \   00009E                ; Setup parameters for call to function osal_memset
   \   00009E   7C08         MOV       R4,#0x8
   \   0000A0   7D00         MOV       R5,#0x0
   \   0000A2   79FF         MOV       R1,#-0x1
   \   0000A4   AA..         MOV       R2,?V12
   \   0000A6   AB..         MOV       R3,?V13
   \   0000A8   12....       LCALL     `??osal_memset::?relay`; Banked call to: osal_memset
   1365                    }
   1366          
   1367                    // use association info to set other fields
   1368                    if ( aDevice->nodeRelation == PARENT )
   \                     ??ZDO_ProcessMgmtLqiReq_8:
   \   0000AB   EE           MOV       A,R6
   \   0000AC   2414         ADD       A,#0x14
   \   0000AE   F8           MOV       R0,A
   \   0000AF   E4           CLR       A
   \   0000B0   3F           ADDC      A,R7
   \   0000B1   F9           MOV       R1,A
   \   0000B2   E5..         MOV       A,?V4
   \   0000B4   2404         ADD       A,#0x4
   \   0000B6   FA           MOV       R2,A
   \   0000B7   E4           CLR       A
   \   0000B8   35..         ADDC      A,?V5
   \   0000BA   FB           MOV       R3,A
   \   0000BB   8A82         MOV       DPL,R2
   \   0000BD   F583         MOV       DPH,A
   \   0000BF   E0           MOVX      A,@DPTR
   \   0000C0   703E         JNZ       ??ZDO_ProcessMgmtLqiReq_9
   1369                    {
   1370                      if (  aDevice->shortAddr == 0 )
   \   0000C2   85..82       MOV       DPL,?V4
   \   0000C5   85..83       MOV       DPH,?V5
   \   0000C8   E0           MOVX      A,@DPTR
   \   0000C9   FA           MOV       R2,A
   \   0000CA   A3           INC       DPTR
   \   0000CB   E0           MOVX      A,@DPTR
   \   0000CC   FB           MOV       R3,A
   \   0000CD   EA           MOV       A,R2
   \   0000CE   4B           ORL       A,R3
   \   0000CF   8882         MOV       DPL,R0
   \   0000D1   8983         MOV       DPH,R1
   \   0000D3   7004         JNZ       ??ZDO_ProcessMgmtLqiReq_10
   1371                      {
   1372                        item->devType = ZDP_MGMT_DT_COORD;
   \   0000D5   E4           CLR       A
   \   0000D6   F0           MOVX      @DPTR,A
   1373                        item->depth = 0;
   \   0000D7   8008         SJMP      ??ZDO_ProcessMgmtLqiReq_11
   1374                      }
   1375                      else
   1376                      {
   1377                        item->devType = ZDP_MGMT_DT_ROUTER;
   \                     ??ZDO_ProcessMgmtLqiReq_10:
   \   0000D9   7401         MOV       A,#0x1
   \   0000DB   F0           MOVX      @DPTR,A
   1378                        item->depth = _NIB.nodeDepth - 1;
   \   0000DC   90....       MOV       DPTR,#_NIB + 52
   \   0000DF   E0           MOVX      A,@DPTR
   \   0000E0   14           DEC       A
   \                     ??ZDO_ProcessMgmtLqiReq_11:
   \   0000E1   85..82       MOV       DPL,?V8
   \   0000E4   85..83       MOV       DPH,?V9
   \   0000E7   F0           MOVX      @DPTR,A
   1379                      }
   1380          
   1381                      item->rxOnIdle = ZDP_MGMT_BOOL_UNKNOWN;
   \   0000E8   EE           MOV       A,R6
   \   0000E9   2415         ADD       A,#0x15
   \   0000EB   F582         MOV       DPL,A
   \   0000ED   E4           CLR       A
   \   0000EE   3F           ADDC      A,R7
   \   0000EF   F583         MOV       DPH,A
   \   0000F1   7402         MOV       A,#0x2
   \   0000F3   F0           MOVX      @DPTR,A
   1382                      item->relation = ZDP_MGMT_REL_PARENT;
   \   0000F4   EE           MOV       A,R6
   \   0000F5   2416         ADD       A,#0x16
   \   0000F7   F582         MOV       DPL,A
   \   0000F9   E4           CLR       A
   \   0000FA   3F           ADDC      A,R7
   \   0000FB   F583         MOV       DPH,A
   \   0000FD   E4           CLR       A
   \   0000FE   8043         SJMP      ??ZDO_ProcessMgmtLqiReq_12
   1383                    }
   1384                    else
   1385                    {
   1386                      // If not parent, then it's a child
   1387                      item->depth = _NIB.nodeDepth + 1;
   \                     ??ZDO_ProcessMgmtLqiReq_9:
   \   000100   90....       MOV       DPTR,#_NIB + 52
   \   000103   E0           MOVX      A,@DPTR
   \   000104   04           INC       A
   \   000105   85..82       MOV       DPL,?V8
   \   000108   85..83       MOV       DPH,?V9
   \   00010B   F0           MOVX      @DPTR,A
   1388          
   1389                      if ( aDevice->nodeRelation < CHILD_FFD )
   \   00010C   8A82         MOV       DPL,R2
   \   00010E   8B83         MOV       DPH,R3
   \   000110   E0           MOVX      A,@DPTR
   \   000111   C3           CLR       C
   \   000112   9403         SUBB      A,#0x3
   \   000114   8882         MOV       DPL,R0
   \   000116   8983         MOV       DPH,R1
   \   000118   4003         JC        $+5
   \   00011A   02....       LJMP      ??ZDO_ProcessMgmtLqiReq_13 & 0xFFFF
   1390                      {
   1391                        item->devType = ZDP_MGMT_DT_ENDDEV;
   \   00011D   7402         MOV       A,#0x2
   \   00011F   F0           MOVX      @DPTR,A
   1392          
   1393                        if ( aDevice->nodeRelation == CHILD_RFD )
   \   000120   8A82         MOV       DPL,R2
   \   000122   8B83         MOV       DPH,R3
   \   000124   E0           MOVX      A,@DPTR
   \   000125   6401         XRL       A,#0x1
   \   000127   7003         JNZ       $+5
   \   000129   02....       LJMP      ??ZDO_ProcessMgmtLqiReq_14 & 0xFFFF
   1394                        {
   1395                          item->rxOnIdle = FALSE;
   1396                        }
   1397                        else
   1398                        {
   1399                          item->rxOnIdle = TRUE;
   1400                        }
   1401                      }
   1402                      else
   1403                      {
   1404                        item->devType = ZDP_MGMT_DT_ROUTER;
   1405          
   1406                        if ( aDevice->nodeRelation == CHILD_FFD )
   1407                        {
   1408                          item->rxOnIdle = FALSE;
   1409                        }
   1410                        else
   1411                        {
   1412                          item->rxOnIdle = TRUE;
   \                     ??ZDO_ProcessMgmtLqiReq_15:
   \   00012C   EE           MOV       A,R6
   \   00012D   2415         ADD       A,#0x15
   \   00012F   F582         MOV       DPL,A
   \   000131   E4           CLR       A
   \   000132   3F           ADDC      A,R7
   \   000133   F583         MOV       DPH,A
   \   000135   7401         MOV       A,#0x1
   \                     ??ZDO_ProcessMgmtLqiReq_16:
   \   000137   F0           MOVX      @DPTR,A
   1413                        }
   1414                      }
   1415          
   1416                      item->relation = ZDP_MGMT_REL_CHILD;
   \   000138   EE           MOV       A,R6
   \   000139   2416         ADD       A,#0x16
   \   00013B   F582         MOV       DPL,A
   \   00013D   E4           CLR       A
   \   00013E   3F           ADDC      A,R7
   \   00013F   F583         MOV       DPH,A
   \   000141   7401         MOV       A,#0x1
   \                     ??ZDO_ProcessMgmtLqiReq_12:
   \   000143   F0           MOVX      @DPTR,A
   1417                    }
   1418          
   1419                    item++;
   \   000144   EE           MOV       A,R6
   \   000145   241A         ADD       A,#0x1a
   \   000147   FE           MOV       R6,A
   \   000148   5001         JNC       ??ZDO_ProcessMgmtLqiReq_17
   \   00014A   0F           INC       R7
   \                     ??ZDO_ProcessMgmtLqiReq_17:
   \   00014B   05..         INC       ?V3
   \                     ??ZDO_ProcessMgmtLqiReq_6:
   \   00014D   E5..         MOV       A,?V3
   \   00014F   C3           CLR       C
   \   000150   95..         SUBB      A,?V1
   \   000152   4003         JC        $+5
   \   000154   02....       LJMP      ??ZDO_ProcessMgmtLqiReq_18 & 0xFFFF
   \   000157   E5..         MOV       A,?V0
   \   000159   C3           CLR       C
   \   00015A   95..         SUBB      A,?V2
   \   00015C   4003         JC        $+5
   \   00015E   02....       LJMP      ??ZDO_ProcessMgmtLqiReq_19 & 0xFFFF
   \   000161                ; Setup parameters for call to function AssocFindDevice
   \   000161   AA..         MOV       R2,?V0
   \   000163   7B00         MOV       R3,#0x0
   \   000165   12....       LCALL     `??AssocFindDevice::?relay`; Banked call to: AssocFindDevice
   \   000168   8A..         MOV       ?V4,R2
   \   00016A   8B..         MOV       ?V5,R3
   \   00016C   05..         INC       ?V0
   \   00016E   90....       MOV       DPTR,#_NIB + 33
   \   000171   E0           MOVX      A,@DPTR
   \   000172   F8           MOV       R0,A
   \   000173   A3           INC       DPTR
   \   000174   E0           MOVX      A,@DPTR
   \   000175   F9           MOV       R1,A
   \   000176   8E82         MOV       DPL,R6
   \   000178   8F83         MOV       DPH,R7
   \   00017A   E8           MOV       A,R0
   \   00017B   F0           MOVX      @DPTR,A
   \   00017C   A3           INC       DPTR
   \   00017D   E9           MOV       A,R1
   \   00017E   F0           MOVX      @DPTR,A
   \   00017F                ; Setup parameters for call to function sAddrExtCpy
   \   00017F   7C..         MOV       R4,#(_NIB + 53) & 0xff
   \   000181   7D..         MOV       R5,#((_NIB + 53) >> 8) & 0xff
   \   000183   EE           MOV       A,R6
   \   000184   2402         ADD       A,#0x2
   \   000186   FA           MOV       R2,A
   \   000187   E4           CLR       A
   \   000188   3F           ADDC      A,R7
   \   000189   FB           MOV       R3,A
   \   00018A   12....       LCALL     `??sAddrExtCpy::?relay`; Banked call to: sAddrExtCpy
   \   00018D   85..82       MOV       DPL,?V4
   \   000190   85..83       MOV       DPH,?V5
   \   000193   E0           MOVX      A,@DPTR
   \   000194   F8           MOV       R0,A
   \   000195   A3           INC       DPTR
   \   000196   E0           MOVX      A,@DPTR
   \   000197   F9           MOV       R1,A
   \   000198   EE           MOV       A,R6
   \   000199   2412         ADD       A,#0x12
   \   00019B   F582         MOV       DPL,A
   \   00019D   E4           CLR       A
   \   00019E   3F           ADDC      A,R7
   \   00019F   F583         MOV       DPH,A
   \   0001A1   E8           MOV       A,R0
   \   0001A2   F0           MOVX      @DPTR,A
   \   0001A3   A3           INC       DPTR
   \   0001A4   E9           MOV       A,R1
   \   0001A5   F0           MOVX      @DPTR,A
   \   0001A6   EE           MOV       A,R6
   \   0001A7   2417         ADD       A,#0x17
   \   0001A9   F582         MOV       DPL,A
   \   0001AB   E4           CLR       A
   \   0001AC   3F           ADDC      A,R7
   \   0001AD   F583         MOV       DPH,A
   \   0001AF   7402         MOV       A,#0x2
   \   0001B1   F0           MOVX      @DPTR,A
   \   0001B2   EE           MOV       A,R6
   \   0001B3   2418         ADD       A,#0x18
   \   0001B5   F5..         MOV       ?V8,A
   \   0001B7   E4           CLR       A
   \   0001B8   3F           ADDC      A,R7
   \   0001B9   F5..         MOV       ?V9,A
   \   0001BB   85..82       MOV       DPL,?V8
   \   0001BE   F583         MOV       DPH,A
   \   0001C0   74FF         MOV       A,#-0x1
   \   0001C2   F0           MOVX      @DPTR,A
   \   0001C3   85..82       MOV       DPL,?V4
   \   0001C6   85..83       MOV       DPH,?V5
   \   0001C9   A3           INC       DPTR
   \   0001CA   A3           INC       DPTR
   \   0001CB   A3           INC       DPTR
   \   0001CC   A3           INC       DPTR
   \   0001CD   A3           INC       DPTR
   \   0001CE   A3           INC       DPTR
   \   0001CF   A3           INC       DPTR
   \   0001D0   A3           INC       DPTR
   \   0001D1   A3           INC       DPTR
   \   0001D2   A3           INC       DPTR
   \   0001D3   E0           MOVX      A,@DPTR
   \   0001D4   C0E0         PUSH      A
   \   0001D6   EE           MOV       A,R6
   \   0001D7   2419         ADD       A,#0x19
   \   0001D9   F582         MOV       DPL,A
   \   0001DB   E4           CLR       A
   \   0001DC   3F           ADDC      A,R7
   \   0001DD   F583         MOV       DPH,A
   \   0001DF   D0E0         POP       A
   \   0001E1   F0           MOVX      @DPTR,A
   \   0001E2   7401         MOV       A,#0x1
   \   0001E4   12....       LCALL     ?XSTACK_DISP0_8
   \   0001E7   E4           CLR       A
   \   0001E8   F0           MOVX      @DPTR,A
   \   0001E9   85..82       MOV       DPL,?V4
   \   0001EC   85..83       MOV       DPH,?V5
   \   0001EF   E0           MOVX      A,@DPTR
   \   0001F0   F8           MOV       R0,A
   \   0001F1   A3           INC       DPTR
   \   0001F2   E0           MOVX      A,@DPTR
   \   0001F3   F9           MOV       R1,A
   \   0001F4   7402         MOV       A,#0x2
   \   0001F6   12....       LCALL     ?XSTACK_DISP0_8
   \   0001F9   E8           MOV       A,R0
   \   0001FA   F0           MOVX      @DPTR,A
   \   0001FB   A3           INC       DPTR
   \   0001FC   E9           MOV       A,R1
   \   0001FD   F0           MOVX      @DPTR,A
   \   0001FE   EE           MOV       A,R6
   \   0001FF   240A         ADD       A,#0xa
   \   000201   F5..         MOV       ?V12,A
   \   000203   E4           CLR       A
   \   000204   3F           ADDC      A,R7
   \   000205   F5..         MOV       ?V13,A
   \   000207                ; Setup parameters for call to function AddrMgrEntryLookupNwk
   \   000207   7401         MOV       A,#0x1
   \   000209   12....       LCALL     ?XSTACK_DISP101_8
   \   00020C   12....       LCALL     `??AddrMgrEntryLookupNwk::?relay`; Banked call to: AddrMgrEntryLookupNwk
   \   00020F   E9           MOV       A,R1
   \   000210   6401         XRL       A,#0x1
   \   000212   6003         JZ        $+5
   \   000214   02....       LJMP      ??ZDO_ProcessMgmtLqiReq_7 & 0xFFFF
   \   000217                ; Setup parameters for call to function sAddrExtCpy
   \   000217   7404         MOV       A,#0x4
   \   000219   12....       LCALL     ?XSTACK_DISP0_8
   \   00021C   AC82         MOV       R4,DPL
   \   00021E   AD83         MOV       R5,DPH
   \   000220   AA..         MOV       R2,?V12
   \   000222   AB..         MOV       R3,?V13
   \   000224   12....       LCALL     `??sAddrExtCpy::?relay`; Banked call to: sAddrExtCpy
   \   000227   02....       LJMP      ??ZDO_ProcessMgmtLqiReq_8 & 0xFFFF
   \                     ??ZDO_ProcessMgmtLqiReq_13:
   \   00022A   7401         MOV       A,#0x1
   \   00022C   F0           MOVX      @DPTR,A
   \   00022D   8A82         MOV       DPL,R2
   \   00022F   8B83         MOV       DPH,R3
   \   000231   E0           MOVX      A,@DPTR
   \   000232   6403         XRL       A,#0x3
   \   000234   6003         JZ        $+5
   \   000236   02....       LJMP      ??ZDO_ProcessMgmtLqiReq_15 & 0xFFFF
   \                     ??ZDO_ProcessMgmtLqiReq_14:
   \   000239   EE           MOV       A,R6
   \   00023A   2415         ADD       A,#0x15
   \   00023C   F582         MOV       DPL,A
   \   00023E   E4           CLR       A
   \   00023F   3F           ADDC      A,R7
   \   000240   F583         MOV       DPH,A
   \   000242   E4           CLR       A
   \   000243   02....       LJMP      ??ZDO_ProcessMgmtLqiReq_16 & 0xFFFF
   1420                  }
   1421                  else
   1422                  {
   1423                    if ( StartIndex <= aItems )
   \                     ??ZDO_ProcessMgmtLqiReq_19:
   \   000246   E5..         MOV       A,?V2
   \   000248   C3           CLR       C
   \   000249   95..         SUBB      A,?V6
   \   00024B   4005         JC        ??ZDO_ProcessMgmtLqiReq_20
   1424                      // Start with 1st neighbor
   1425                      index = 0;
   \   00024D   75..00       MOV       ?V0,#0x0
   \   000250   8015         SJMP      ??ZDO_ProcessMgmtLqiReq_18
   1426                    else
   1427                      // Start with >1st neighbor
   1428                      index = StartIndex - aItems;
   \                     ??ZDO_ProcessMgmtLqiReq_20:
   \   000252   E5..         MOV       A,?V6
   \   000254   C3           CLR       C
   \   000255   95..         SUBB      A,?V2
   \   000257   F5..         MOV       ?V0,A
   \   000259   800C         SJMP      ??ZDO_ProcessMgmtLqiReq_18
   1429                    break;
   1430                  }
   1431                }
   1432          
   1433                // Loop through neighbor items and finish list
   1434                for ( ; x < numItems; x++ )
   1435                {
   1436                  // Add next neighbor table item
   1437                  NLME_GetRequest( nwkNeighborTable, index++, &entry );
   1438          
   1439                  // set ZDP_MgmtLqiItem_t fields
   1440                  item->panID    = entry.panId;
   1441                  osal_cpyExtAddr( item->extPanID, _NIB.extendedPANID );
   1442                  osal_cpyExtAddr( item->extAddr, entry.neighborExtAddr);
   1443                  item->nwkAddr  = entry.neighborAddress;
   1444          
   1445                  if ( ZG_DEVICE_RTR_TYPE )
   1446                  {
   1447                    item->rxOnIdle = ZDP_MGMT_BOOL_UNKNOWN;
   1448                    item->relation = ZDP_MGMT_REL_UNKNOWN;
   1449                    item->depth    = 0xFF;
   1450                  }
   1451                  else
   1452                  {
   1453                    //end devices knows this for sure
   1454                    item->rxOnIdle = ZDP_MGMT_BOOL_RECEIVER_ON;
   1455                    item->relation = ZDP_MGMT_REL_PARENT;
   1456                    item->depth = _NIB.nodeDepth - 1;
   1457                  }
   1458                  item->permit   = ZDP_MGMT_BOOL_UNKNOWN;
   1459                  item->lqi      = entry.linkInfo.rxLqi;
   1460          
   1461                  if ( item->nwkAddr == 0 )
   1462                  {
   1463                    item->devType = ZDP_MGMT_DT_COORD;
   1464                  }
   1465                  else
   1466                  {
   1467                    item->devType = ZDP_MGMT_DT_ROUTER;
   \                     ??ZDO_ProcessMgmtLqiReq_21:
   \   00025B   7401         MOV       A,#0x1
   \                     ??ZDO_ProcessMgmtLqiReq_22:
   \   00025D   F0           MOVX      @DPTR,A
   1468                  }
   1469          
   1470                  item++;
   \   00025E   EE           MOV       A,R6
   \   00025F   241A         ADD       A,#0x1a
   \   000261   FE           MOV       R6,A
   \   000262   5001         JNC       ??ZDO_ProcessMgmtLqiReq_23
   \   000264   0F           INC       R7
   \                     ??ZDO_ProcessMgmtLqiReq_23:
   \   000265   05..         INC       ?V3
   \                     ??ZDO_ProcessMgmtLqiReq_18:
   \   000267   E5..         MOV       A,?V3
   \   000269   C3           CLR       C
   \   00026A   95..         SUBB      A,?V1
   \   00026C   4003         JC        $+5
   \   00026E   02....       LJMP      ??ZDO_ProcessMgmtLqiReq_5 & 0xFFFF
   \   000271                ; Setup parameters for call to function NLME_GetRequest
   \   000271   740E         MOV       A,#0xe
   \   000273   12....       LCALL     ?XSTACK_DISP102_8
   \   000276   AA..         MOV       R2,?V0
   \   000278   7B00         MOV       R3,#0x0
   \   00027A   7987         MOV       R1,#-0x79
   \   00027C   12....       LCALL     `??NLME_GetRequest::?relay`; Banked call to: NLME_GetRequest
   \   00027F   05..         INC       ?V0
   \   000281   7418         MOV       A,#0x18
   \   000283   12....       LCALL     ?XSTACK_DISP0_8
   \   000286   E0           MOVX      A,@DPTR
   \   000287   F8           MOV       R0,A
   \   000288   A3           INC       DPTR
   \   000289   E0           MOVX      A,@DPTR
   \   00028A   F9           MOV       R1,A
   \   00028B   8E82         MOV       DPL,R6
   \   00028D   8F83         MOV       DPH,R7
   \   00028F   E8           MOV       A,R0
   \   000290   F0           MOVX      @DPTR,A
   \   000291   A3           INC       DPTR
   \   000292   E9           MOV       A,R1
   \   000293   F0           MOVX      @DPTR,A
   \   000294                ; Setup parameters for call to function sAddrExtCpy
   \   000294   7C..         MOV       R4,#(_NIB + 53) & 0xff
   \   000296   7D..         MOV       R5,#((_NIB + 53) >> 8) & 0xff
   \   000298   EE           MOV       A,R6
   \   000299   2402         ADD       A,#0x2
   \   00029B   FA           MOV       R2,A
   \   00029C   E4           CLR       A
   \   00029D   3F           ADDC      A,R7
   \   00029E   FB           MOV       R3,A
   \   00029F   12....       LCALL     `??sAddrExtCpy::?relay`; Banked call to: sAddrExtCpy
   \   0002A2                ; Setup parameters for call to function sAddrExtCpy
   \   0002A2   7410         MOV       A,#0x10
   \   0002A4   12....       LCALL     ?XSTACK_DISP0_8
   \   0002A7   AC82         MOV       R4,DPL
   \   0002A9   AD83         MOV       R5,DPH
   \   0002AB   EE           MOV       A,R6
   \   0002AC   240A         ADD       A,#0xa
   \   0002AE   FA           MOV       R2,A
   \   0002AF   E4           CLR       A
   \   0002B0   3F           ADDC      A,R7
   \   0002B1   FB           MOV       R3,A
   \   0002B2   12....       LCALL     `??sAddrExtCpy::?relay`; Banked call to: sAddrExtCpy
   \   0002B5   EE           MOV       A,R6
   \   0002B6   2412         ADD       A,#0x12
   \   0002B8   F8           MOV       R0,A
   \   0002B9   E4           CLR       A
   \   0002BA   3F           ADDC      A,R7
   \   0002BB   F9           MOV       R1,A
   \   0002BC   740E         MOV       A,#0xe
   \   0002BE   12....       LCALL     ?XSTACK_DISP0_8
   \   0002C1   E0           MOVX      A,@DPTR
   \   0002C2   FA           MOV       R2,A
   \   0002C3   A3           INC       DPTR
   \   0002C4   E0           MOVX      A,@DPTR
   \   0002C5   FB           MOV       R3,A
   \   0002C6   8882         MOV       DPL,R0
   \   0002C8   8983         MOV       DPH,R1
   \   0002CA   EA           MOV       A,R2
   \   0002CB   F0           MOVX      @DPTR,A
   \   0002CC   A3           INC       DPTR
   \   0002CD   EB           MOV       A,R3
   \   0002CE   F0           MOVX      @DPTR,A
   \   0002CF   90....       MOV       DPTR,#zgDeviceLogicalType
   \   0002D2   E0           MOVX      A,@DPTR
   \   0002D3   6005         JZ        ??ZDO_ProcessMgmtLqiReq_24
   \   0002D5   E0           MOVX      A,@DPTR
   \   0002D6   6401         XRL       A,#0x1
   \   0002D8   7025         JNZ       ??ZDO_ProcessMgmtLqiReq_25
   \                     ??ZDO_ProcessMgmtLqiReq_24:
   \   0002DA   EE           MOV       A,R6
   \   0002DB   2415         ADD       A,#0x15
   \   0002DD   F582         MOV       DPL,A
   \   0002DF   E4           CLR       A
   \   0002E0   3F           ADDC      A,R7
   \   0002E1   F583         MOV       DPH,A
   \   0002E3   7402         MOV       A,#0x2
   \   0002E5   F0           MOVX      @DPTR,A
   \   0002E6   EE           MOV       A,R6
   \   0002E7   2416         ADD       A,#0x16
   \   0002E9   F582         MOV       DPL,A
   \   0002EB   E4           CLR       A
   \   0002EC   3F           ADDC      A,R7
   \   0002ED   F583         MOV       DPH,A
   \   0002EF   7403         MOV       A,#0x3
   \   0002F1   F0           MOVX      @DPTR,A
   \   0002F2   EE           MOV       A,R6
   \   0002F3   2418         ADD       A,#0x18
   \   0002F5   F582         MOV       DPL,A
   \   0002F7   E4           CLR       A
   \   0002F8   3F           ADDC      A,R7
   \   0002F9   F583         MOV       DPH,A
   \   0002FB   74FF         MOV       A,#-0x1
   \   0002FD   8028         SJMP      ??ZDO_ProcessMgmtLqiReq_26
   \                     ??ZDO_ProcessMgmtLqiReq_25:
   \   0002FF   EE           MOV       A,R6
   \   000300   2415         ADD       A,#0x15
   \   000302   F582         MOV       DPL,A
   \   000304   E4           CLR       A
   \   000305   3F           ADDC      A,R7
   \   000306   F583         MOV       DPH,A
   \   000308   E4           CLR       A
   \   000309   F0           MOVX      @DPTR,A
   \   00030A   EE           MOV       A,R6
   \   00030B   2416         ADD       A,#0x16
   \   00030D   F582         MOV       DPL,A
   \   00030F   E4           CLR       A
   \   000310   3F           ADDC      A,R7
   \   000311   F583         MOV       DPH,A
   \   000313   E4           CLR       A
   \   000314   F0           MOVX      @DPTR,A
   \   000315   90....       MOV       DPTR,#_NIB + 52
   \   000318   E0           MOVX      A,@DPTR
   \   000319   14           DEC       A
   \   00031A   C0E0         PUSH      A
   \   00031C   EE           MOV       A,R6
   \   00031D   2418         ADD       A,#0x18
   \   00031F   F582         MOV       DPL,A
   \   000321   E4           CLR       A
   \   000322   3F           ADDC      A,R7
   \   000323   F583         MOV       DPH,A
   \   000325   D0E0         POP       A
   \                     ??ZDO_ProcessMgmtLqiReq_26:
   \   000327   F0           MOVX      @DPTR,A
   \   000328   EE           MOV       A,R6
   \   000329   2417         ADD       A,#0x17
   \   00032B   F582         MOV       DPL,A
   \   00032D   E4           CLR       A
   \   00032E   3F           ADDC      A,R7
   \   00032F   F583         MOV       DPH,A
   \   000331   7402         MOV       A,#0x2
   \   000333   F0           MOVX      @DPTR,A
   \   000334   741D         MOV       A,#0x1d
   \   000336   12....       LCALL     ?XSTACK_DISP0_8
   \   000339   E0           MOVX      A,@DPTR
   \   00033A   C0E0         PUSH      A
   \   00033C   EE           MOV       A,R6
   \   00033D   2419         ADD       A,#0x19
   \   00033F   F582         MOV       DPL,A
   \   000341   E4           CLR       A
   \   000342   3F           ADDC      A,R7
   \   000343   F583         MOV       DPH,A
   \   000345   D0E0         POP       A
   \   000347   F0           MOVX      @DPTR,A
   \   000348   EE           MOV       A,R6
   \   000349   2414         ADD       A,#0x14
   \   00034B   FA           MOV       R2,A
   \   00034C   E4           CLR       A
   \   00034D   3F           ADDC      A,R7
   \   00034E   FB           MOV       R3,A
   \   00034F   8882         MOV       DPL,R0
   \   000351   8983         MOV       DPH,R1
   \   000353   E0           MOVX      A,@DPTR
   \   000354   F8           MOV       R0,A
   \   000355   A3           INC       DPTR
   \   000356   E0           MOVX      A,@DPTR
   \   000357   F9           MOV       R1,A
   \   000358   E8           MOV       A,R0
   \   000359   49           ORL       A,R1
   \   00035A   8A82         MOV       DPL,R2
   \   00035C   8B83         MOV       DPH,R3
   \   00035E   6003         JZ        $+5
   \   000360   02....       LJMP      ??ZDO_ProcessMgmtLqiReq_21 & 0xFFFF
   \   000363   E4           CLR       A
   \   000364   02....       LJMP      ??ZDO_ProcessMgmtLqiReq_22 & 0xFFFF
   1471                }
   1472              }
   1473            }
   1474            else
   1475            {
   1476              numItems = 0;
   \                     ??ZDO_ProcessMgmtLqiReq_3:
   \   000367   75..00       MOV       ?V1,#0x0
   1477            }
   1478          
   1479            // Send response
   1480            ZDP_MgmtLqiRsp( inMsg->TransSeq, &(inMsg->srcAddr), ZSuccess, maxItems,
   1481                            StartIndex, numItems, table, false );
   \                     ??ZDO_ProcessMgmtLqiReq_5:
   \   00036A                ; Setup parameters for call to function ZDP_MgmtLqiRsp
   \   00036A   75..00       MOV       ?V2,#0x0
   \   00036D   78..         MOV       R0,#?V2
   \   00036F   12....       LCALL     ?PUSH_XSTACK_I_ONE
   \   000372   78..         MOV       R0,#?V10
   \   000374   12....       LCALL     ?PUSH_XSTACK_I_TWO
   \   000377   78..         MOV       R0,#?V1
   \   000379   12....       LCALL     ?PUSH_XSTACK_I_ONE
   \   00037C   E5..         MOV       A,?V6
   \   00037E   F5..         MOV       ?V1,A
   \   000380   78..         MOV       R0,#?V1
   \   000382   12....       LCALL     ?PUSH_XSTACK_I_ONE
   \   000385   7405         MOV       A,#0x5
   \   000387   12....       LCALL     ?XSTACK_DISP0_8
   \   00038A   E0           MOVX      A,@DPTR
   \   00038B   FD           MOV       R5,A
   \   00038C   7C00         MOV       R4,#0x0
   \   00038E   E5..         MOV       A,?V14
   \   000390   2402         ADD       A,#0x2
   \   000392   FA           MOV       R2,A
   \   000393   E4           CLR       A
   \   000394   35..         ADDC      A,?V15
   \   000396   FB           MOV       R3,A
   \   000397   E5..         MOV       A,?V14
   \   000399   240F         ADD       A,#0xf
   \   00039B   F582         MOV       DPL,A
   \   00039D   E4           CLR       A
   \   00039E   35..         ADDC      A,?V15
   \   0003A0   F583         MOV       DPH,A
   \   0003A2   E0           MOVX      A,@DPTR
   \   0003A3   F9           MOV       R1,A
   \   0003A4   12....       LCALL     `??ZDP_MgmtLqiRsp::?relay`; Banked call to: ZDP_MgmtLqiRsp
   \   0003A7   7405         MOV       A,#0x5
   \   0003A9   12....       LCALL     ?DEALLOC_XSTACK8
   1482          
   1483            if ( table )
   \   0003AC   E5..         MOV       A,?V10
   \   0003AE   45..         ORL       A,?V11
   \   0003B0   6007         JZ        ??ZDO_ProcessMgmtLqiReq_27
   1484            {
   1485              osal_mem_free( table );
   \   0003B2                ; Setup parameters for call to function osal_mem_free
   \   0003B2   AA..         MOV       R2,?V10
   \   0003B4   AB..         MOV       R3,?V11
   \   0003B6   12....       LCALL     `??osal_mem_free::?relay`; Banked call to: osal_mem_free
   1486            }
   1487          }
   \                     ??ZDO_ProcessMgmtLqiReq_27:
   \   0003B9   7425         MOV       A,#0x25
   \   0003BB   12....       LCALL     ?DEALLOC_XSTACK8
   \   0003BE   7F10         MOV       R7,#0x10
   \   0003C0   02....       LJMP      ?BANKED_LEAVE_XDATA
   1488          
   1489          /*********************************************************************
   1490           * @fn          ZDO_ProcessMgmtNwkDiscReq
   1491           *
   1492           * @brief       This function handles parsing the incoming Management
   1493           *              Network Discover request and starts the request.
   1494           *
   1495           * @param       inMsg - incoming message (request)
   1496           *
   1497           * @return      none
   1498           */

   \                                 In  segment BANKED_CODE, align 1, keep-with-next
   1499          void ZDO_ProcessMgmtNwkDiscReq( zdoIncomingMsg_t *inMsg )
   \                     ZDO_ProcessMgmtNwkDiscReq:
   1500          {
   \   000000                REQUIRE ?V0
   \   000000                REQUIRE ?V1
   \   000000   74F6         MOV       A,#-0xa
   \   000002   12....       LCALL     ?BANKED_ENTER_XDATA
   \   000005                ; Saved register size: 10
   \   000005                ; Auto size: 7
   \   000005   74F9         MOV       A,#-0x7
   \   000007   12....       LCALL     ?ALLOC_XSTACK8
   \   00000A   8A..         MOV       ?V0,R2
   \   00000C   8B..         MOV       ?V1,R3
   1501            NLME_ScanFields_t scan;
   1502            uint8             index;
   1503            uint8             *msg;
   1504          
   1505            msg = inMsg->asdu;
   \   00000E   EA           MOV       A,R2
   \   00000F   2413         ADD       A,#0x13
   \   000011   F582         MOV       DPL,A
   \   000013   E4           CLR       A
   \   000014   35..         ADDC      A,?V1
   \   000016   F583         MOV       DPH,A
   \   000018   E0           MOVX      A,@DPTR
   \   000019   FE           MOV       R6,A
   \   00001A   A3           INC       DPTR
   \   00001B   E0           MOVX      A,@DPTR
   \   00001C   FF           MOV       R7,A
   1506            scan.channels = osal_build_uint32( msg, 4 );
   \   00001D                ; Setup parameters for call to function osal_build_uint32
   \   00001D   7904         MOV       R1,#0x4
   \   00001F   EE           MOV       A,R6
   \   000020   FA           MOV       R2,A
   \   000021   EF           MOV       A,R7
   \   000022   FB           MOV       R3,A
   \   000023   12....       LCALL     `??osal_build_uint32::?relay`; Banked call to: osal_build_uint32
   \   000026   EA           MOV       A,R2
   \   000027   F8           MOV       R0,A
   \   000028   EB           MOV       A,R3
   \   000029   F9           MOV       R1,A
   \   00002A   EC           MOV       A,R4
   \   00002B   FA           MOV       R2,A
   \   00002C   ED           MOV       A,R5
   \   00002D   FB           MOV       R3,A
   \   00002E   85..82       MOV       DPL,?XSP + 0
   \   000031   85..83       MOV       DPH,?XSP + 1
   \   000034   12....       LCALL     ?XSTORE_R0123
   1507            msg += 4;
   1508            scan.duration = *msg++;
   \   000037   8E82         MOV       DPL,R6
   \   000039   8F83         MOV       DPH,R7
   \   00003B   A3           INC       DPTR
   \   00003C   A3           INC       DPTR
   \   00003D   A3           INC       DPTR
   \   00003E   A3           INC       DPTR
   \   00003F   E0           MOVX      A,@DPTR
   \   000040   C0E0         PUSH      A
   \   000042   7404         MOV       A,#0x4
   \   000044   12....       LCALL     ?XSTACK_DISP0_8
   \   000047   D0E0         POP       A
   \   000049   F0           MOVX      @DPTR,A
   1509            index         = *msg;
   \   00004A   8E82         MOV       DPL,R6
   \   00004C   8F83         MOV       DPH,R7
   \   00004E   A3           INC       DPTR
   \   00004F   A3           INC       DPTR
   \   000050   A3           INC       DPTR
   \   000051   A3           INC       DPTR
   \   000052   A3           INC       DPTR
   \   000053   E0           MOVX      A,@DPTR
   \   000054   F8           MOV       R0,A
   1510            scan.scanType = ZMAC_ACTIVE_SCAN;
   \   000055   7405         MOV       A,#0x5
   \   000057   12....       LCALL     ?XSTACK_DISP0_8
   \   00005A   7401         MOV       A,#0x1
   \   00005C   F0           MOVX      @DPTR,A
   1511            scan.scanApp  = NLME_DISC_SCAN;
   \   00005D   7406         MOV       A,#0x6
   \   00005F   12....       LCALL     ?XSTACK_DISP0_8
   \   000062   7401         MOV       A,#0x1
   \   000064   F0           MOVX      @DPTR,A
   1512          
   1513            // Save off the information to be used for the response
   1514            zdappMgmtNwkDiscReqInProgress          = true;
   \   000065   90....       MOV       DPTR,#zdappMgmtNwkDiscReqInProgress
   \   000068   F0           MOVX      @DPTR,A
   1515            zdappMgmtNwkDiscRspAddr.addrMode       = Addr16Bit;
   \   000069   90....       MOV       DPTR,#zdappMgmtNwkDiscRspAddr + 8
   \   00006C   04           INC       A
   \   00006D   F0           MOVX      @DPTR,A
   1516            zdappMgmtNwkDiscRspAddr.addr.shortAddr = inMsg->srcAddr.addr.shortAddr;
   \   00006E   85..82       MOV       DPL,?V0
   \   000071   85..83       MOV       DPH,?V1
   \   000074   A3           INC       DPTR
   \   000075   A3           INC       DPTR
   \   000076   E0           MOVX      A,@DPTR
   \   000077   FA           MOV       R2,A
   \   000078   A3           INC       DPTR
   \   000079   E0           MOVX      A,@DPTR
   \   00007A   FB           MOV       R3,A
   \   00007B   90....       MOV       DPTR,#zdappMgmtNwkDiscRspAddr
   \   00007E   EA           MOV       A,R2
   \   00007F   F0           MOVX      @DPTR,A
   \   000080   A3           INC       DPTR
   \   000081   EB           MOV       A,R3
   \   000082   F0           MOVX      @DPTR,A
   1517            zdappMgmtNwkDiscStartIndex             = index;
   \   000083   E8           MOV       A,R0
   \   000084   90....       MOV       DPTR,#zdappMgmtNwkDiscStartIndex
   \   000087   F0           MOVX      @DPTR,A
   1518            zdappMgmtNwkDiscRspTransSeq            = inMsg->TransSeq;
   \   000088   E5..         MOV       A,?V0
   \   00008A   240F         ADD       A,#0xf
   \   00008C   F582         MOV       DPL,A
   \   00008E   E4           CLR       A
   \   00008F   35..         ADDC      A,?V1
   \   000091   F583         MOV       DPH,A
   \   000093   E0           MOVX      A,@DPTR
   \   000094   90....       MOV       DPTR,#zdappMgmtNwkDiscRspTransSeq
   \   000097   F0           MOVX      @DPTR,A
   1519          
   1520            if ( NLME_NwkDiscReq2( &scan ) != ZSuccess )
   \   000098                ; Setup parameters for call to function NLME_NwkDiscReq2
   \   000098   AA..         MOV       R2,?XSP + 0
   \   00009A   AB..         MOV       R3,?XSP + 1
   \   00009C   12....       LCALL     `??NLME_NwkDiscReq2::?relay`; Banked call to: NLME_NwkDiscReq2
   \   00009F   E9           MOV       A,R1
   \   0000A0   6003         JZ        ??ZDO_ProcessMgmtNwkDiscReq_0
   1521            {
   1522              NLME_NwkDiscTerm();
   \   0000A2                ; Setup parameters for call to function NLME_NwkDiscTerm
   \   0000A2   12....       LCALL     `??NLME_NwkDiscTerm::?relay`; Banked call to: NLME_NwkDiscTerm
   1523          
   1524              // zdappMgmtNwkDiscReqInProgress will be reset in the confirm callback
   1525            }
   1526          }
   \                     ??ZDO_ProcessMgmtNwkDiscReq_0:
   \   0000A5   7407         MOV       A,#0x7
   \   0000A7   12....       LCALL     ?DEALLOC_XSTACK8
   \   0000AA   7F02         MOV       R7,#0x2
   \   0000AC   02....       LJMP      ?BANKED_LEAVE_XDATA
   1527          
   1528          #if defined ( ZDO_MGMT_NWKDISC_RESPONSE )
   1529          /*********************************************************************
   1530           * @fn          ZDO_FinishProcessingMgmtNwkDiscReq
   1531           *
   1532           * @brief       This function finishes the processing of the Management
   1533           *              Network Discover Request and generates the response.
   1534           *
   1535           *   Note:      This function will limit the number of items returned
   1536           *              to ZDO_MAX_NWKDISC_ITEMS items.
   1537           *
   1538           * @param       ResultCountSrcAddr - source of the request
   1539           * @param       msg - pointer to incoming message
   1540           * @param       SecurityUse -
   1541           *
   1542           * @return      none
   1543           */
   1544          void ZDO_FinishProcessingMgmtNwkDiscReq( void )
   1545          {
   1546            byte count, i, ResultCount = 0;
   1547            networkDesc_t *newDesc = NULL, *pList, *NetworkList;
   1548          
   1549            NetworkList = nwk_getNwkDescList();
   1550          
   1551            // Count the number of nwk descriptors in the list
   1552            pList = nwk_getNwkDescList();
   1553            while (pList)
   1554            {
   1555              ResultCount++;
   1556              pList = pList->nextDesc;
   1557            }
   1558          
   1559            if ( ZSTACK_ROUTER_BUILD )
   1560            {
   1561              // Look for my PanID.
   1562              pList = nwk_getNwkDescList();
   1563              while ( pList )
   1564              {
   1565                if ( pList->panId == _NIB.nwkPanId )
   1566                {
   1567                  break;
   1568                }
   1569          
   1570          
   1571                if ( !pList->nextDesc )
   1572                {
   1573                  break;
   1574                }
   1575                pList = pList->nextDesc;
   1576              }
   1577          
   1578          
   1579              // If my Pan not present (query to a star network ZC or an isolated ZR?),
   1580              // prepend it.
   1581              if ( !pList || (pList->panId != _NIB.nwkPanId) )
   1582              {
   1583                newDesc = (networkDesc_t *)osal_mem_alloc( sizeof( networkDesc_t ) );
   1584                if ( newDesc )
   1585                {
   1586                  byte pJoin;
   1587          
   1588                  newDesc->panId = _NIB.nwkPanId;
   1589                  newDesc->logicalChannel = _NIB.nwkLogicalChannel;
   1590                  newDesc->version = NLME_GetProtocolVersion();
   1591                  newDesc->stackProfile = zgStackProfile;
   1592          
   1593                  //Extended PanID
   1594                  osal_cpyExtAddr( newDesc->extendedPANID, _NIB.extendedPANID);
   1595          
   1596                  ZMacGetReq( ZMacAssociationPermit, &pJoin );
   1597                  newDesc->chosenRouter = ((pJoin) ? ZDAppNwkAddr.addr.shortAddr :
   1598                                                     INVALID_NODE_ADDR);
   1599          
   1600                  newDesc->nextDesc = NetworkList;
   1601                  NetworkList = newDesc;
   1602                  ResultCount++;
   1603                }
   1604              }
   1605            }
   1606          
   1607            // Calc the count and apply a max count.
   1608            if ( zdappMgmtNwkDiscStartIndex > ResultCount )
   1609            {
   1610              count = 0;
   1611            }
   1612            else
   1613            {
   1614              count = ResultCount - zdappMgmtNwkDiscStartIndex;
   1615              if ( count > ZDO_MAX_NWKDISC_ITEMS )
   1616              {
   1617                count = ZDO_MAX_NWKDISC_ITEMS;
   1618              }
   1619          
   1620              // Move the list pointer up to the start index.
   1621              for ( i = 0; i < zdappMgmtNwkDiscStartIndex; i++ )
   1622              {
   1623                NetworkList = NetworkList->nextDesc;
   1624              }
   1625            }
   1626          
   1627            ZDP_MgmtNwkDiscRsp( zdappMgmtNwkDiscRspTransSeq,
   1628                               &zdappMgmtNwkDiscRspAddr, ZSuccess, ResultCount,
   1629                                zdappMgmtNwkDiscStartIndex,
   1630                                count,
   1631                                NetworkList,
   1632                                false );
   1633          
   1634            if ( ZSTACK_ROUTER_BUILD )
   1635            {
   1636              if ( newDesc != NULL )
   1637              {
   1638                osal_mem_free( newDesc );
   1639              }
   1640            }
   1641          
   1642            NLME_NwkDiscTerm();
   1643          }
   1644          #endif
   1645          
   1646          /*********************************************************************
   1647           * @fn          ZDO_ProcessMgmtRtgReq
   1648           *
   1649           * @brief       This function finishes the processing of the Management
   1650           *              Routing Request and generates the response.
   1651           *
   1652           *   Note:      This function will limit the number of items returned
   1653           *              to ZDO_MAX_RTG_ITEMS items.
   1654           *
   1655           * @param       inMsg - incoming message (request)
   1656           *
   1657           * @return      none
   1658           */

   \                                 In  segment BANKED_CODE, align 1, keep-with-next
   1659          void ZDO_ProcessMgmtRtgReq( zdoIncomingMsg_t *inMsg )
   \                     ZDO_ProcessMgmtRtgReq:
   1660          {
   \   000000                REQUIRE ?V0
   \   000000                REQUIRE ?V1
   \   000000                REQUIRE ?V2
   \   000000                REQUIRE ?V3
   \   000000                REQUIRE ?V4
   \   000000                REQUIRE ?V6
   \   000000                REQUIRE ?V7
   \   000000   74F0         MOV       A,#-0x10
   \   000002   12....       LCALL     ?BANKED_ENTER_XDATA
   \   000005                ; Saved register size: 16
   \   000005                ; Auto size: 1
   \   000005   74FF         MOV       A,#-0x1
   \   000007   12....       LCALL     ?ALLOC_XSTACK8
   \   00000A   8A..         MOV       ?V2,R2
   \   00000C   8B..         MOV       ?V3,R3
   1661            byte x;
   1662            byte maxNumItems;
   1663            byte numItems = 0;
   \   00000E   7E00         MOV       R6,#0x0
   1664            uint8 *pBuf = NULL;
   \   000010   8E..         MOV       ?V6,R6
   \   000012   8E..         MOV       ?V7,R6
   1665            rtgItem_t *pList;
   1666            uint8 StartIndex = inMsg->asdu[0];
   \   000014   EA           MOV       A,R2
   \   000015   2413         ADD       A,#0x13
   \   000017   F582         MOV       DPL,A
   \   000019   E4           CLR       A
   \   00001A   35..         ADDC      A,?V3
   \   00001C   F583         MOV       DPH,A
   \   00001E   E0           MOVX      A,@DPTR
   \   00001F   F8           MOV       R0,A
   \   000020   A3           INC       DPTR
   \   000021   E0           MOVX      A,@DPTR
   \   000022   F583         MOV       DPH,A
   \   000024   8882         MOV       DPL,R0
   \   000026   E0           MOVX      A,@DPTR
   \   000027   FF           MOV       R7,A
   1667          
   1668            // Get the number of table items
   1669            NLME_GetRequest( nwkNumRoutingTableEntries, 0, &maxNumItems );
   \   000028                ; Setup parameters for call to function NLME_GetRequest
   \   000028   AC..         MOV       R4,?XSP + 0
   \   00002A   AD..         MOV       R5,?XSP + 1
   \   00002C   7A00         MOV       R2,#0x0
   \   00002E   7B00         MOV       R3,#0x0
   \   000030   799D         MOV       R1,#-0x63
   \   000032   12....       LCALL     `??NLME_GetRequest::?relay`; Banked call to: NLME_GetRequest
   1670          
   1671            if ( maxNumItems > StartIndex )
   \   000035   85..82       MOV       DPL,?XSP + 0
   \   000038   85..83       MOV       DPH,?XSP + 1
   \   00003B   E0           MOVX      A,@DPTR
   \   00003C   F8           MOV       R0,A
   \   00003D   EF           MOV       A,R7
   \   00003E   C3           CLR       C
   \   00003F   98           SUBB      A,R0
   \   000040   5071         JNC       ??ZDO_ProcessMgmtRtgReq_0
   1672            {
   1673              numItems = maxNumItems - StartIndex;    // Start at the passed in index
   \   000042   E0           MOVX      A,@DPTR
   \   000043   C3           CLR       C
   \   000044   9F           SUBB      A,R7
   \   000045   FE           MOV       R6,A
   1674          
   1675              // limit the size of the list
   1676              if ( numItems > ZDO_MAX_RTG_ITEMS )
   \   000046   C3           CLR       C
   \   000047   940B         SUBB      A,#0xb
   \   000049   4002         JC        ??ZDO_ProcessMgmtRtgReq_1
   1677              {
   1678                numItems = ZDO_MAX_RTG_ITEMS;
   \   00004B   7E0A         MOV       R6,#0xa
   1679              }
   1680          
   1681              // Allocate the memory to build the table
   1682              pBuf = osal_mem_alloc( (short)(sizeof( rtgItem_t ) * numItems) );
   \                     ??ZDO_ProcessMgmtRtgReq_1:
   \   00004D                ; Setup parameters for call to function osal_mem_alloc
   \   00004D   EE           MOV       A,R6
   \   00004E   75F007       MOV       B,#0x7
   \   000051   A4           MUL       AB
   \   000052   FA           MOV       R2,A
   \   000053   ABF0         MOV       R3,B
   \   000055   12....       LCALL     `??osal_mem_alloc::?relay`; Banked call to: osal_mem_alloc
   \   000058   8A..         MOV       ?V0,R2
   \   00005A   8B..         MOV       ?V1,R3
   \   00005C   8A..         MOV       ?V6,R2
   \   00005E   8B..         MOV       ?V7,R3
   1683          
   1684              if ( pBuf != NULL )
   \   000060   EA           MOV       A,R2
   \   000061   4B           ORL       A,R3
   \   000062   604D         JZ        ??ZDO_ProcessMgmtRtgReq_2
   1685              {
   1686                // Convert buffer to list
   1687                pList = (rtgItem_t *)pBuf;
   1688          
   1689                // Loop through items and build list
   1690                for ( x = 0; x < numItems; x++ )
   \   000064   75..00       MOV       ?V4,#0x0
   \   000067   800F         SJMP      ??ZDO_ProcessMgmtRtgReq_3
   1691                {
   1692                  NLME_GetRequest( nwkRoutingTable, (uint16)(x + StartIndex), (void*)pList );
   1693          
   1694                  // Remap the status to the RoutingTableList Record Format defined in the ZigBee spec
   1695                  switch( pList->status )
   1696                  {
   1697                    case RT_ACTIVE:
   1698                      pList->status = ZDO_MGMT_RTG_ENTRY_ACTIVE;
   1699                      break;
   1700          
   1701                    case RT_DISC:
   1702                      pList->status = ZDO_MGMT_RTG_ENTRY_DISCOVERY_UNDERWAY;
   1703                      break;
   1704          
   1705                    case RT_LINK_FAIL:
   1706                      pList->status = ZDO_MGMT_RTG_ENTRY_DISCOVERY_FAILED;
   1707                      break;
   1708          
   1709                    case RT_INIT:
   1710                    case RT_REPAIR:
   1711                    default:
   1712                      pList->status = ZDO_MGMT_RTG_ENTRY_INACTIVE;
   \                     ??ZDO_ProcessMgmtRtgReq_4:
   \   000069   7403         MOV       A,#0x3
   \                     ??ZDO_ProcessMgmtRtgReq_5:
   \   00006B   F0           MOVX      @DPTR,A
   1713                      break;
   1714                  }
   1715          
   1716                  // Increment pointer to next record
   1717                  pList++;
   \   00006C   E5..         MOV       A,?V0
   \   00006E   2407         ADD       A,#0x7
   \   000070   F5..         MOV       ?V0,A
   \   000072   5002         JNC       ??ZDO_ProcessMgmtRtgReq_6
   \   000074   05..         INC       ?V1
   \                     ??ZDO_ProcessMgmtRtgReq_6:
   \   000076   05..         INC       ?V4
   \                     ??ZDO_ProcessMgmtRtgReq_3:
   \   000078   E5..         MOV       A,?V4
   \   00007A   C3           CLR       C
   \   00007B   9E           SUBB      A,R6
   \   00007C   5035         JNC       ??ZDO_ProcessMgmtRtgReq_0
   \   00007E                ; Setup parameters for call to function NLME_GetRequest
   \   00007E   AC..         MOV       R4,?V0
   \   000080   AD..         MOV       R5,?V1
   \   000082   E5..         MOV       A,?V4
   \   000084   2F           ADD       A,R7
   \   000085   FA           MOV       R2,A
   \   000086   E4           CLR       A
   \   000087   3400         ADDC      A,#0x0
   \   000089   FB           MOV       R3,A
   \   00008A   798B         MOV       R1,#-0x75
   \   00008C   12....       LCALL     `??NLME_GetRequest::?relay`; Banked call to: NLME_GetRequest
   \   00008F   E5..         MOV       A,?V0
   \   000091   2405         ADD       A,#0x5
   \   000093   F582         MOV       DPL,A
   \   000095   E4           CLR       A
   \   000096   35..         ADDC      A,?V1
   \   000098   F583         MOV       DPH,A
   \   00009A   E0           MOVX      A,@DPTR
   \   00009B   14           DEC       A
   \   00009C   6008         JZ        ??ZDO_ProcessMgmtRtgReq_7
   \   00009E   14           DEC       A
   \   00009F   6008         JZ        ??ZDO_ProcessMgmtRtgReq_8
   \   0000A1   14           DEC       A
   \   0000A2   6009         JZ        ??ZDO_ProcessMgmtRtgReq_9
   \   0000A4   80C3         SJMP      ??ZDO_ProcessMgmtRtgReq_4
   \                     ??ZDO_ProcessMgmtRtgReq_7:
   \   0000A6   E4           CLR       A
   \   0000A7   80C2         SJMP      ??ZDO_ProcessMgmtRtgReq_5
   \                     ??ZDO_ProcessMgmtRtgReq_8:
   \   0000A9   7401         MOV       A,#0x1
   \   0000AB   80BE         SJMP      ??ZDO_ProcessMgmtRtgReq_5
   \                     ??ZDO_ProcessMgmtRtgReq_9:
   \   0000AD   7402         MOV       A,#0x2
   \   0000AF   80BA         SJMP      ??ZDO_ProcessMgmtRtgReq_5
   1718                }
   1719              }
   1720              else
   1721              {
   1722                numItems = 0;
   \                     ??ZDO_ProcessMgmtRtgReq_2:
   \   0000B1   7E00         MOV       R6,#0x0
   1723              }
   1724            }
   1725          
   1726            // Send response
   1727            ZDP_MgmtRtgRsp( inMsg->TransSeq, &(inMsg->srcAddr), ZSuccess, maxNumItems, StartIndex, numItems,
   1728                                  (rtgItem_t *)pBuf, false );
   \                     ??ZDO_ProcessMgmtRtgReq_0:
   \   0000B3                ; Setup parameters for call to function ZDP_MgmtRtgRsp
   \   0000B3   75..00       MOV       ?V0,#0x0
   \   0000B6   78..         MOV       R0,#?V0
   \   0000B8   12....       LCALL     ?PUSH_XSTACK_I_ONE
   \   0000BB   78..         MOV       R0,#?V6
   \   0000BD   12....       LCALL     ?PUSH_XSTACK_I_TWO
   \   0000C0   EE           MOV       A,R6
   \   0000C1   F5..         MOV       ?V0,A
   \   0000C3   78..         MOV       R0,#?V0
   \   0000C5   12....       LCALL     ?PUSH_XSTACK_I_ONE
   \   0000C8   EF           MOV       A,R7
   \   0000C9   F5..         MOV       ?V0,A
   \   0000CB   78..         MOV       R0,#?V0
   \   0000CD   12....       LCALL     ?PUSH_XSTACK_I_ONE
   \   0000D0   7405         MOV       A,#0x5
   \   0000D2   12....       LCALL     ?XSTACK_DISP0_8
   \   0000D5   E0           MOVX      A,@DPTR
   \   0000D6   FD           MOV       R5,A
   \   0000D7   7C00         MOV       R4,#0x0
   \   0000D9   E5..         MOV       A,?V2
   \   0000DB   2402         ADD       A,#0x2
   \   0000DD   FA           MOV       R2,A
   \   0000DE   E4           CLR       A
   \   0000DF   35..         ADDC      A,?V3
   \   0000E1   FB           MOV       R3,A
   \   0000E2   E5..         MOV       A,?V2
   \   0000E4   240F         ADD       A,#0xf
   \   0000E6   F582         MOV       DPL,A
   \   0000E8   E4           CLR       A
   \   0000E9   35..         ADDC      A,?V3
   \   0000EB   F583         MOV       DPH,A
   \   0000ED   E0           MOVX      A,@DPTR
   \   0000EE   F9           MOV       R1,A
   \   0000EF   12....       LCALL     `??ZDP_MgmtRtgRsp::?relay`; Banked call to: ZDP_MgmtRtgRsp
   \   0000F2   7405         MOV       A,#0x5
   \   0000F4   12....       LCALL     ?DEALLOC_XSTACK8
   1729          
   1730            if ( pBuf != NULL )
   \   0000F7   E5..         MOV       A,?V6
   \   0000F9   45..         ORL       A,?V7
   \   0000FB   6007         JZ        ??ZDO_ProcessMgmtRtgReq_10
   1731            {
   1732              osal_mem_free( pBuf );
   \   0000FD                ; Setup parameters for call to function osal_mem_free
   \   0000FD   AA..         MOV       R2,?V6
   \   0000FF   AB..         MOV       R3,?V7
   \   000101   12....       LCALL     `??osal_mem_free::?relay`; Banked call to: osal_mem_free
   1733            }
   1734          }
   \                     ??ZDO_ProcessMgmtRtgReq_10:
   \   000104   7401         MOV       A,#0x1
   \   000106   12....       LCALL     ?DEALLOC_XSTACK8
   \   000109   7F08         MOV       R7,#0x8
   \   00010B   02....       LJMP      ?BANKED_LEAVE_XDATA
   1735          
   1736          /*********************************************************************
   1737           * @fn          ZDO_ProcessMgmtBindReq
   1738           *
   1739           * @brief       This function finishes the processing of the Management
   1740           *              Bind Request and generates the response.
   1741           *
   1742           *   Note:      This function will limit the number of items returned
   1743           *              to ZDO_MAX_BIND_ITEMS items.
   1744           *
   1745           * @param       inMsg - incoming message (request)
   1746           *
   1747           * @return      none
   1748           */

   \                                 In  segment BANKED_CODE, align 1, keep-with-next
   1749          void ZDO_ProcessMgmtBindReq( zdoIncomingMsg_t *inMsg )
   \                     ZDO_ProcessMgmtBindReq:
   1750          {
   \   000000                REQUIRE ?V0
   \   000000                REQUIRE ?V1
   \   000000                REQUIRE ?V2
   \   000000                REQUIRE ?V3
   \   000000                REQUIRE ?V4
   \   000000                REQUIRE ?V5
   \   000000                REQUIRE ?V6
   \   000000                REQUIRE ?V8
   \   000000                REQUIRE ?V9
   \   000000   74EE         MOV       A,#-0x12
   \   000002   12....       LCALL     ?BANKED_ENTER_XDATA
   \   000005                ; Saved register size: 18
   \   000005                ; Auto size: 2
   \   000005   74FE         MOV       A,#-0x2
   \   000007   12....       LCALL     ?ALLOC_XSTACK8
   \   00000A   8A..         MOV       ?V4,R2
   \   00000C   8B..         MOV       ?V5,R3
   1751          #if defined ( REFLECTOR )
   1752            byte x;
   1753            uint16 maxNumItems;
   1754            uint16 numItems;
   1755            uint8 *pBuf = NULL;
   \   00000E   75..00       MOV       ?V8,#0x0
   \   000011   75..00       MOV       ?V9,#0x0
   1756            apsBindingItem_t *pList;
   1757            uint8 StartIndex = inMsg->asdu[0];
   \   000014   EA           MOV       A,R2
   \   000015   2413         ADD       A,#0x13
   \   000017   F582         MOV       DPL,A
   \   000019   E4           CLR       A
   \   00001A   35..         ADDC      A,?V5
   \   00001C   F583         MOV       DPH,A
   \   00001E   E0           MOVX      A,@DPTR
   \   00001F   F8           MOV       R0,A
   \   000020   A3           INC       DPTR
   \   000021   E0           MOVX      A,@DPTR
   \   000022   F583         MOV       DPH,A
   \   000024   8882         MOV       DPL,R0
   \   000026   E0           MOVX      A,@DPTR
   \   000027   F5..         MOV       ?V2,A
   1758            uint8 status;
   1759          
   1760            // Get the number of table items
   1761            APSME_GetRequest( apsNumBindingTableEntries, 0, (byte*)(&maxNumItems) );
   \   000029                ; Setup parameters for call to function APSME_GetRequest
   \   000029   AC..         MOV       R4,?XSP + 0
   \   00002B   AD..         MOV       R5,?XSP + 1
   \   00002D   7A00         MOV       R2,#0x0
   \   00002F   7B00         MOV       R3,#0x0
   \   000031   79A3         MOV       R1,#-0x5d
   \   000033   12....       LCALL     `??APSME_GetRequest::?relay`; Banked call to: APSME_GetRequest
   1762          
   1763            if ( maxNumItems > StartIndex )
   \   000036   AA..         MOV       R2,?V2
   \   000038   85..82       MOV       DPL,?XSP + 0
   \   00003B   85..83       MOV       DPH,?XSP + 1
   \   00003E   E0           MOVX      A,@DPTR
   \   00003F   F8           MOV       R0,A
   \   000040   A3           INC       DPTR
   \   000041   E0           MOVX      A,@DPTR
   \   000042   F9           MOV       R1,A
   \   000043   C3           CLR       C
   \   000044   EA           MOV       A,R2
   \   000045   98           SUBB      A,R0
   \   000046   E4           CLR       A
   \   000047   99           SUBB      A,R1
   \   000048   5011         JNC       ??ZDO_ProcessMgmtBindReq_0
   1764            {
   1765              numItems = maxNumItems - StartIndex;    // Start at the passed in index
   \   00004A   85..82       MOV       DPL,?XSP + 0
   \   00004D   85..83       MOV       DPH,?XSP + 1
   \   000050   E0           MOVX      A,@DPTR
   \   000051   C3           CLR       C
   \   000052   9A           SUBB      A,R2
   \   000053   FE           MOV       R6,A
   \   000054   A3           INC       DPTR
   \   000055   E0           MOVX      A,@DPTR
   \   000056   9400         SUBB      A,#0x0
   \   000058   FF           MOV       R7,A
   \   000059   8004         SJMP      ??ZDO_ProcessMgmtBindReq_1
   1766            }
   1767            else
   1768            {
   1769              numItems = 0;
   \                     ??ZDO_ProcessMgmtBindReq_0:
   \   00005B   7E00         MOV       R6,#0x0
   \   00005D   7F00         MOV       R7,#0x0
   1770            }
   1771          
   1772            // limit the size of the list
   1773            if ( numItems > ZDO_MAX_BIND_ITEMS )
   \                     ??ZDO_ProcessMgmtBindReq_1:
   \   00005F   C3           CLR       C
   \   000060   EE           MOV       A,R6
   \   000061   9404         SUBB      A,#0x4
   \   000063   EF           MOV       A,R7
   \   000064   9400         SUBB      A,#0x0
   \   000066   4004         JC        ??ZDO_ProcessMgmtBindReq_2
   1774            {
   1775              numItems = ZDO_MAX_BIND_ITEMS;
   \   000068   7E03         MOV       R6,#0x3
   \   00006A   7F00         MOV       R7,#0x0
   1776            }
   1777          
   1778            // Allocate the memory to build the table
   1779            if ( numItems )
   \                     ??ZDO_ProcessMgmtBindReq_2:
   \   00006C   EE           MOV       A,R6
   \   00006D   4F           ORL       A,R7
   \   00006E   6058         JZ        ??ZDO_ProcessMgmtBindReq_3
   1780            {
   1781              pBuf = osal_mem_alloc( sizeof( apsBindingItem_t ) * numItems );
   \   000070                ; Setup parameters for call to function osal_mem_alloc
   \   000070   EE           MOV       A,R6
   \   000071   FA           MOV       R2,A
   \   000072   EF           MOV       A,R7
   \   000073   FB           MOV       R3,A
   \   000074   EA           MOV       A,R2
   \   000075   75F015       MOV       B,#0x15
   \   000078   A4           MUL       AB
   \   000079   FA           MOV       R2,A
   \   00007A   A8F0         MOV       R0,B
   \   00007C   75F015       MOV       B,#0x15
   \   00007F   EB           MOV       A,R3
   \   000080   A4           MUL       AB
   \   000081   28           ADD       A,R0
   \   000082   FB           MOV       R3,A
   \   000083   12....       LCALL     `??osal_mem_alloc::?relay`; Banked call to: osal_mem_alloc
   \   000086   8A..         MOV       ?V0,R2
   \   000088   8B..         MOV       ?V1,R3
   \   00008A   8A..         MOV       ?V8,R2
   \   00008C   8B..         MOV       ?V9,R3
   1782              
   1783              if(pBuf != NULL)
   \   00008E   EA           MOV       A,R2
   \   00008F   4B           ORL       A,R3
   \   000090   602F         JZ        ??ZDO_ProcessMgmtBindReq_4
   1784              {
   1785              
   1786                status = ZSuccess;
   \   000092   75..00       MOV       ?V3,#0x0
   1787          
   1788                // Convert buffer to list
   1789                pList = (apsBindingItem_t *)pBuf;
   1790          
   1791                // Loop through items and build list
   1792                for ( x = 0; x < numItems; x++ )
   \   000095   75..00       MOV       ?V6,#0x0
   \                     ??ZDO_ProcessMgmtBindReq_5:
   \   000098   C3           CLR       C
   \   000099   E5..         MOV       A,?V6
   \   00009B   9E           SUBB      A,R6
   \   00009C   E4           CLR       A
   \   00009D   9F           SUBB      A,R7
   \   00009E   502B         JNC       ??ZDO_ProcessMgmtBindReq_6
   1793                {
   1794                  APSME_GetRequest( apsBindingTable, (x + StartIndex), (void*)pList );
   \   0000A0                ; Setup parameters for call to function APSME_GetRequest
   \   0000A0   AC..         MOV       R4,?V0
   \   0000A2   AD..         MOV       R5,?V1
   \   0000A4   A8..         MOV       R0,?V2
   \   0000A6   E5..         MOV       A,?V6
   \   0000A8   28           ADD       A,R0
   \   0000A9   FA           MOV       R2,A
   \   0000AA   E4           CLR       A
   \   0000AB   3400         ADDC      A,#0x0
   \   0000AD   FB           MOV       R3,A
   \   0000AE   79A2         MOV       R1,#-0x5e
   \   0000B0   12....       LCALL     `??APSME_GetRequest::?relay`; Banked call to: APSME_GetRequest
   1795                  pList++;
   \   0000B3   E5..         MOV       A,?V0
   \   0000B5   2415         ADD       A,#0x15
   \   0000B7   F5..         MOV       ?V0,A
   \   0000B9   5002         JNC       ??ZDO_ProcessMgmtBindReq_7
   \   0000BB   05..         INC       ?V1
   1796                }
   \                     ??ZDO_ProcessMgmtBindReq_7:
   \   0000BD   05..         INC       ?V6
   \   0000BF   80D7         SJMP      ??ZDO_ProcessMgmtBindReq_5
   1797              }
   1798              else
   1799              {
   1800                //No memory to allocate response, respond unsupported attribute
   1801                status = ZApsUnsupportedAttrib;
   \                     ??ZDO_ProcessMgmtBindReq_4:
   \   0000C1   75..B5       MOV       ?V3,#-0x4b
   1802                numItems = 0;
   \   0000C4   7E00         MOV       R6,#0x0
   \   0000C6   8003         SJMP      ??ZDO_ProcessMgmtBindReq_6
   1803              }
   1804            }
   1805            else
   1806            {
   1807              status = ZSuccess;
   \                     ??ZDO_ProcessMgmtBindReq_3:
   \   0000C8   75..00       MOV       ?V3,#0x0
   1808            }
   1809          
   1810            // Send response
   1811            ZDP_MgmtBindRsp( inMsg->TransSeq, &(inMsg->srcAddr), status, (byte)maxNumItems, StartIndex,
   1812                             (byte)numItems, (apsBindingItem_t *)pBuf, false );
   \                     ??ZDO_ProcessMgmtBindReq_6:
   \   0000CB                ; Setup parameters for call to function ZDP_MgmtBindRsp
   \   0000CB   75..00       MOV       ?V0,#0x0
   \   0000CE   78..         MOV       R0,#?V0
   \   0000D0   12....       LCALL     ?PUSH_XSTACK_I_ONE
   \   0000D3   78..         MOV       R0,#?V8
   \   0000D5   12....       LCALL     ?PUSH_XSTACK_I_TWO
   \   0000D8   EE           MOV       A,R6
   \   0000D9   F5..         MOV       ?V0,A
   \   0000DB   78..         MOV       R0,#?V0
   \   0000DD   12....       LCALL     ?PUSH_XSTACK_I_ONE
   \   0000E0   E5..         MOV       A,?V2
   \   0000E2   F5..         MOV       ?V0,A
   \   0000E4   78..         MOV       R0,#?V0
   \   0000E6   12....       LCALL     ?PUSH_XSTACK_I_ONE
   \   0000E9   7405         MOV       A,#0x5
   \   0000EB   12....       LCALL     ?XSTACK_DISP0_8
   \   0000EE   E0           MOVX      A,@DPTR
   \   0000EF   FD           MOV       R5,A
   \   0000F0   AC..         MOV       R4,?V3
   \   0000F2   E5..         MOV       A,?V4
   \   0000F4   2402         ADD       A,#0x2
   \   0000F6   FA           MOV       R2,A
   \   0000F7   E4           CLR       A
   \   0000F8   35..         ADDC      A,?V5
   \   0000FA   FB           MOV       R3,A
   \   0000FB   E5..         MOV       A,?V4
   \   0000FD   240F         ADD       A,#0xf
   \   0000FF   F582         MOV       DPL,A
   \   000101   E4           CLR       A
   \   000102   35..         ADDC      A,?V5
   \   000104   F583         MOV       DPH,A
   \   000106   E0           MOVX      A,@DPTR
   \   000107   F9           MOV       R1,A
   \   000108   12....       LCALL     `??ZDP_MgmtBindRsp::?relay`; Banked call to: ZDP_MgmtBindRsp
   \   00010B   7405         MOV       A,#0x5
   \   00010D   12....       LCALL     ?DEALLOC_XSTACK8
   1813          
   1814            if ( pBuf )
   \   000110   E5..         MOV       A,?V8
   \   000112   45..         ORL       A,?V9
   \   000114   6007         JZ        ??ZDO_ProcessMgmtBindReq_8
   1815            {
   1816              osal_mem_free( pBuf );
   \   000116                ; Setup parameters for call to function osal_mem_free
   \   000116   AA..         MOV       R2,?V8
   \   000118   AB..         MOV       R3,?V9
   \   00011A   12....       LCALL     `??osal_mem_free::?relay`; Banked call to: osal_mem_free
   1817            }
   1818          #else
   1819            (void)inMsg;
   1820          #endif
   1821          }
   \                     ??ZDO_ProcessMgmtBindReq_8:
   \   00011D   7402         MOV       A,#0x2
   \   00011F   12....       LCALL     ?DEALLOC_XSTACK8
   \   000122   7F0A         MOV       R7,#0xa
   \   000124   02....       LJMP      ?BANKED_LEAVE_XDATA
   1822          
   1823          /*********************************************************************
   1824           * @fn          ZDO_ProcessMgmtDirectJoinReq
   1825           *
   1826           * @brief       This function finishes the processing of the Management
   1827           *              Direct Join Request and generates the response.
   1828           *
   1829           * @param       inMsg - incoming message (request)
   1830           *
   1831           * @return      none
   1832           */

   \                                 In  segment BANKED_CODE, align 1, keep-with-next
   1833          void ZDO_ProcessMgmtDirectJoinReq( zdoIncomingMsg_t *inMsg )
   \                     ZDO_ProcessMgmtDirectJoinReq:
   1834          {
   \   000000                REQUIRE ?V0
   \   000000                REQUIRE ?V1
   \   000000   74F6         MOV       A,#-0xa
   \   000002   12....       LCALL     ?BANKED_ENTER_XDATA
   \   000005                ; Saved register size: 10
   \   000005                ; Auto size: 1
   \   000005   74FF         MOV       A,#-0x1
   \   000007   12....       LCALL     ?ALLOC_XSTACK8
   \   00000A   EA           MOV       A,R2
   \   00000B   FE           MOV       R6,A
   \   00000C   EB           MOV       A,R3
   \   00000D   FF           MOV       R7,A
   1835            uint8 *deviceAddr;
   1836            uint8 capInfo;
   1837            uint8 stat;
   1838          
   1839            // Parse the message
   1840            deviceAddr = inMsg->asdu;
   1841            capInfo = inMsg->asdu[Z_EXTADDR_LEN];
   1842          
   1843            stat = (byte) NLME_DirectJoinRequest( deviceAddr, capInfo );
   \   00000E   EA           MOV       A,R2
   \   00000F   2413         ADD       A,#0x13
   \   000011   F582         MOV       DPL,A
   \   000013   E4           CLR       A
   \   000014   3F           ADDC      A,R7
   \   000015   F583         MOV       DPH,A
   \   000017   E0           MOVX      A,@DPTR
   \   000018   FA           MOV       R2,A
   \   000019   A3           INC       DPTR
   \   00001A   E0           MOVX      A,@DPTR
   \   00001B   FB           MOV       R3,A
   \   00001C                ; Setup parameters for call to function NLME_DirectJoinRequest
   \   00001C   8A82         MOV       DPL,R2
   \   00001E   F583         MOV       DPH,A
   \   000020   A3           INC       DPTR
   \   000021   A3           INC       DPTR
   \   000022   A3           INC       DPTR
   \   000023   A3           INC       DPTR
   \   000024   A3           INC       DPTR
   \   000025   A3           INC       DPTR
   \   000026   A3           INC       DPTR
   \   000027   A3           INC       DPTR
   \   000028   E0           MOVX      A,@DPTR
   \   000029   F9           MOV       R1,A
   \   00002A   12....       LCALL     `??NLME_DirectJoinRequest::?relay`; Banked call to: NLME_DirectJoinRequest
   \   00002D   E9           MOV       A,R1
   \   00002E   85..82       MOV       DPL,?XSP + 0
   \   000031   85..83       MOV       DPH,?XSP + 1
   \   000034   F0           MOVX      @DPTR,A
   1844          
   1845            ZDP_MgmtDirectJoinRsp( inMsg->TransSeq, &(inMsg->srcAddr), stat, false );
   \   000035                ; Setup parameters for call to function ZDP_SendData
   \   000035   75..00       MOV       ?V0,#0x0
   \   000038   78..         MOV       R0,#?V0
   \   00003A   12....       LCALL     ?PUSH_XSTACK_I_ONE
   \   00003D   7401         MOV       A,#0x1
   \   00003F   12....       LCALL     ?XSTACK_DISP100_8
   \   000042   88..         MOV       ?V0,R0
   \   000044   89..         MOV       ?V1,R1
   \   000046   78..         MOV       R0,#?V0
   \   000048   12....       LCALL     ?PUSH_XSTACK_I_TWO
   \   00004B   75..35       MOV       ?V0,#0x35
   \   00004E   75..80       MOV       ?V1,#-0x80
   \   000051   78..         MOV       R0,#?V0
   \   000053   12....       LCALL     ?PUSH_XSTACK_I_TWO
   \   000056   7901         MOV       R1,#0x1
   \   000058   EE           MOV       A,R6
   \   000059   2402         ADD       A,#0x2
   \   00005B   FC           MOV       R4,A
   \   00005C   E4           CLR       A
   \   00005D   3F           ADDC      A,R7
   \   00005E   FD           MOV       R5,A
   \   00005F   EE           MOV       A,R6
   \   000060   240F         ADD       A,#0xf
   \   000062   FA           MOV       R2,A
   \   000063   E4           CLR       A
   \   000064   3F           ADDC      A,R7
   \   000065   FB           MOV       R3,A
   \   000066   12....       LCALL     `??ZDP_SendData::?relay`; Banked call to: ZDP_SendData
   \   000069   7405         MOV       A,#0x5
   \   00006B   12....       LCALL     ?DEALLOC_XSTACK8
   1846          }
   \   00006E   7401         MOV       A,#0x1
   \   000070   12....       LCALL     ?DEALLOC_XSTACK8
   \   000073   7F02         MOV       R7,#0x2
   \   000075   02....       LJMP      ?BANKED_LEAVE_XDATA
   1847          
   1848          /*********************************************************************
   1849           * @fn          ZDO_ProcessMgmtLeaveReq
   1850           *
   1851           * @brief       This function processes a Management Leave Request
   1852           *              and generates the response.
   1853           *
   1854           * @param       inMsg - incoming message (request)
   1855           *
   1856           * @return      none
   1857           */

   \                                 In  segment BANKED_CODE, align 1, keep-with-next
   1858          void ZDO_ProcessMgmtLeaveReq( zdoIncomingMsg_t *inMsg )
   \                     ZDO_ProcessMgmtLeaveReq:
   1859          {
   \   000000                REQUIRE ?V0
   \   000000                REQUIRE ?V1
   \   000000                REQUIRE ?V2
   \   000000                REQUIRE ?V3
   \   000000   74F4         MOV       A,#-0xc
   \   000002   12....       LCALL     ?BANKED_ENTER_XDATA
   \   000005                ; Saved register size: 12
   \   000005                ; Auto size: 6
   \   000005   74FA         MOV       A,#-0x6
   \   000007   12....       LCALL     ?ALLOC_XSTACK8
   \   00000A   8A..         MOV       ?V0,R2
   \   00000C   8B..         MOV       ?V1,R3
   1860            NLME_LeaveReq_t req;
   1861            ZStatus_t       status;
   1862            uint8           option;
   1863            uint8 *msg = inMsg->asdu;
   \   00000E   EA           MOV       A,R2
   \   00000F   2413         ADD       A,#0x13
   \   000011   F582         MOV       DPL,A
   \   000013   E4           CLR       A
   \   000014   35..         ADDC      A,?V1
   \   000016   F583         MOV       DPH,A
   \   000018   E0           MOVX      A,@DPTR
   \   000019   FE           MOV       R6,A
   \   00001A   A3           INC       DPTR
   \   00001B   E0           MOVX      A,@DPTR
   \   00001C   FF           MOV       R7,A
   1864            
   1865            if ( ( AddrMgrExtAddrValid( msg ) == FALSE                 ) ||
   1866                 ( osal_ExtAddrEqual( msg, NLME_GetExtAddr() ) == TRUE )    )
   \   00001D                ; Setup parameters for call to function AddrMgrExtAddrValid
   \   00001D   EE           MOV       A,R6
   \   00001E   FA           MOV       R2,A
   \   00001F   EF           MOV       A,R7
   \   000020   FB           MOV       R3,A
   \   000021   12....       LCALL     `??AddrMgrExtAddrValid::?relay`; Banked call to: AddrMgrExtAddrValid
   \   000024   E9           MOV       A,R1
   \   000025   6017         JZ        ??ZDO_ProcessMgmtLeaveReq_0
   \   000027                ; Setup parameters for call to function NLME_GetExtAddr
   \   000027   12....       LCALL     `??NLME_GetExtAddr::?relay`; Banked call to: NLME_GetExtAddr
   \   00002A   8A..         MOV       ?V2,R2
   \   00002C   8B..         MOV       ?V3,R3
   \   00002E   AC..         MOV       R4,?V2
   \   000030   AD..         MOV       R5,?V3
   \   000032                ; Setup parameters for call to function sAddrExtCmp
   \   000032   EE           MOV       A,R6
   \   000033   FA           MOV       R2,A
   \   000034   EF           MOV       A,R7
   \   000035   FB           MOV       R3,A
   \   000036   12....       LCALL     `??sAddrExtCmp::?relay`; Banked call to: sAddrExtCmp
   \   000039   E9           MOV       A,R1
   \   00003A   6401         XRL       A,#0x1
   \   00003C   700A         JNZ       ??ZDO_ProcessMgmtLeaveReq_1
   1867            {
   1868              if ( ( ZG_BUILD_COORDINATOR_TYPE ) && ( ZG_DEVICE_COORDINATOR_TYPE ) )
   1869              {
   1870                // Coordinator shall drop the leave request for itself
   1871                // section 3.6.1.10.3.1 R21
   1872                return;
   1873              }
   1874              else
   1875              {
   1876                // Remove this device
   1877                req.extAddr = NULL;
   \                     ??ZDO_ProcessMgmtLeaveReq_0:
   \   00003E   7401         MOV       A,#0x1
   \   000040   12....       LCALL     ?XSTACK_DISP0_8
   \   000043   E4           CLR       A
   \   000044   F0           MOVX      @DPTR,A
   \   000045   A3           INC       DPTR
   \   000046   8009         SJMP      ??ZDO_ProcessMgmtLeaveReq_2
   1878              }
   1879            }
   1880            else
   1881            {
   1882              // Remove child device
   1883              req.extAddr = msg;
   \                     ??ZDO_ProcessMgmtLeaveReq_1:
   \   000048   7401         MOV       A,#0x1
   \   00004A   12....       LCALL     ?XSTACK_DISP0_8
   \   00004D   EE           MOV       A,R6
   \   00004E   F0           MOVX      @DPTR,A
   \   00004F   A3           INC       DPTR
   \   000050   EF           MOV       A,R7
   \                     ??ZDO_ProcessMgmtLeaveReq_2:
   \   000051   F0           MOVX      @DPTR,A
   1884            }
   1885            if ( ( ZG_BUILD_ENDDEVICE_TYPE ) && ( ZG_DEVICE_ENDDEVICE_TYPE ) )
   1886            {
   1887              //Only the parent device can request to leave, otherwise silently discard the frame
   1888              if(inMsg->srcAddr.addr.shortAddr != _NIB.nwkCoordAddress)
   \   000052   E5..         MOV       A,?V0
   \   000054   2402         ADD       A,#0x2
   \   000056   FC           MOV       R4,A
   \   000057   E4           CLR       A
   \   000058   35..         ADDC      A,?V1
   \   00005A   FD           MOV       R5,A
   \   00005B   8C82         MOV       DPL,R4
   \   00005D   F583         MOV       DPH,A
   \   00005F   E0           MOVX      A,@DPTR
   \   000060   F8           MOV       R0,A
   \   000061   A3           INC       DPTR
   \   000062   E0           MOVX      A,@DPTR
   \   000063   F9           MOV       R1,A
   \   000064   90....       MOV       DPTR,#_NIB + 23
   \   000067   E0           MOVX      A,@DPTR
   \   000068   68           XRL       A,R0
   \   000069   7003         JNZ       ??ZDO_ProcessMgmtLeaveReq_3
   \   00006B   A3           INC       DPTR
   \   00006C   E0           MOVX      A,@DPTR
   \   00006D   69           XRL       A,R1
   \                     ??ZDO_ProcessMgmtLeaveReq_3:
   \   00006E   6003         JZ        $+5
   \   000070   02....       LJMP      ??ZDO_ProcessMgmtLeaveReq_4 & 0xFFFF
   1889              {
   1890                return;
   1891              }
   1892            }
   1893          
   1894            option = msg[Z_EXTADDR_LEN];
   \   000073   8E82         MOV       DPL,R6
   \   000075   8F83         MOV       DPH,R7
   \   000077   A3           INC       DPTR
   \   000078   A3           INC       DPTR
   \   000079   A3           INC       DPTR
   \   00007A   A3           INC       DPTR
   \   00007B   A3           INC       DPTR
   \   00007C   A3           INC       DPTR
   \   00007D   A3           INC       DPTR
   \   00007E   A3           INC       DPTR
   \   00007F   E0           MOVX      A,@DPTR
   \   000080   FE           MOV       R6,A
   1895            if ( option & ZDP_MGMT_LEAVE_REQ_RC )
   \   000081   A2E6         MOV       C,0xE0 /* A   */.6
   \   000083   5008         JNC       ??ZDO_ProcessMgmtLeaveReq_5
   1896            {
   1897              req.removeChildren = TRUE;
   \   000085   7403         MOV       A,#0x3
   \   000087   12....       LCALL     ?XSTACK_DISP0_8
   \   00008A   7401         MOV       A,#0x1
   \   00008C   F0           MOVX      @DPTR,A
   1898            }
   1899          
   1900            if ( option & ZDP_MGMT_LEAVE_REQ_REJOIN )
   \                     ??ZDO_ProcessMgmtLeaveReq_5:
   \   00008D   EE           MOV       A,R6
   \   00008E   A2E7         MOV       C,0xE0 /* A   */.7
   \   000090   5008         JNC       ??ZDO_ProcessMgmtLeaveReq_6
   1901            {
   1902               req.rejoin = TRUE;
   \   000092   7404         MOV       A,#0x4
   \   000094   12....       LCALL     ?XSTACK_DISP0_8
   \   000097   7401         MOV       A,#0x1
   \   000099   F0           MOVX      @DPTR,A
   1903            }
   1904          
   1905            req.silent = FALSE;
   \                     ??ZDO_ProcessMgmtLeaveReq_6:
   \   00009A   7405         MOV       A,#0x5
   \   00009C   12....       LCALL     ?XSTACK_DISP0_8
   \   00009F   E4           CLR       A
   \   0000A0   F0           MOVX      @DPTR,A
   1906            
   1907            //According to R21 spec sec2.4.3.3.5.2 Mgmt leave rsp must contain the status response from the nwk leave processing. 
   1908            //Latest discussion in Zigbee indicates that mgmt leave rsp due to an OTA command must have status=success (9/12/16)
   1909            status = ZSuccess;
   \   0000A1   85..82       MOV       DPL,?XSP + 0
   \   0000A4   85..83       MOV       DPH,?XSP + 1
   \   0000A7   F0           MOVX      @DPTR,A
   1910            
   1911            ZDP_MgmtLeaveRsp( inMsg->TransSeq, &(inMsg->srcAddr), status, FALSE );
   \   0000A8                ; Setup parameters for call to function ZDP_SendData
   \   0000A8   F5..         MOV       ?V2,A
   \   0000AA   78..         MOV       R0,#?V2
   \   0000AC   12....       LCALL     ?PUSH_XSTACK_I_ONE
   \   0000AF   7401         MOV       A,#0x1
   \   0000B1   12....       LCALL     ?XSTACK_DISP100_8
   \   0000B4   88..         MOV       ?V2,R0
   \   0000B6   89..         MOV       ?V3,R1
   \   0000B8   78..         MOV       R0,#?V2
   \   0000BA   12....       LCALL     ?PUSH_XSTACK_I_TWO
   \   0000BD   75..34       MOV       ?V2,#0x34
   \   0000C0   75..80       MOV       ?V3,#-0x80
   \   0000C3   78..         MOV       R0,#?V2
   \   0000C5   12....       LCALL     ?PUSH_XSTACK_I_TWO
   \   0000C8   7901         MOV       R1,#0x1
   \   0000CA   E5..         MOV       A,?V0
   \   0000CC   240F         ADD       A,#0xf
   \   0000CE   FA           MOV       R2,A
   \   0000CF   E4           CLR       A
   \   0000D0   35..         ADDC      A,?V1
   \   0000D2   FB           MOV       R3,A
   \   0000D3   12....       LCALL     `??ZDP_SendData::?relay`; Banked call to: ZDP_SendData
   \   0000D6   7405         MOV       A,#0x5
   \   0000D8   12....       LCALL     ?DEALLOC_XSTACK8
   1912            
   1913            if ( ZG_BUILD_ENDDEVICE_TYPE )
   1914            {
   1915              // Stop polling and get ready to reset
   1916              NLME_SetPollRate( 0 );
   \   0000DB                ; Setup parameters for call to function NLME_SetPollRate
   \   0000DB   90....       MOV       DPTR,#__Constant_0
   \   0000DE   12....       LCALL     ?XLOAD_R2345
   \   0000E1   12....       LCALL     `??NLME_SetPollRate::?relay`; Banked call to: NLME_SetPollRate
   1917              NLME_SetResponseRate(0);
   \   0000E4                ; Setup parameters for call to function NLME_SetResponseRate
   \   0000E4   7A00         MOV       R2,#0x0
   \   0000E6   7B00         MOV       R3,#0x0
   \   0000E8   12....       LCALL     `??NLME_SetResponseRate::?relay`; Banked call to: NLME_SetResponseRate
   1918              NLME_SetQueuedPollRate(0);
   \   0000EB                ; Setup parameters for call to function NLME_SetQueuedPollRate
   \   0000EB   7A00         MOV       R2,#0x0
   \   0000ED   7B00         MOV       R3,#0x0
   \   0000EF   12....       LCALL     `??NLME_SetQueuedPollRate::?relay`; Banked call to: NLME_SetQueuedPollRate
   1919            }
   1920            
   1921            NLME_LeaveReq(&req);
   \   0000F2                ; Setup parameters for call to function NLME_LeaveReq
   \   0000F2   7401         MOV       A,#0x1
   \   0000F4   12....       LCALL     ?XSTACK_DISP101_8
   \   0000F7   12....       LCALL     `??NLME_LeaveReq::?relay`; Banked call to: NLME_LeaveReq
   1922            
   1923            if (! (option & ZDP_MGMT_LEAVE_REQ_REJOIN) )
   \   0000FA   EE           MOV       A,R6
   \   0000FB   A2E7         MOV       C,0xE0 /* A   */.7
   \   0000FD   4011         JC        ??ZDO_ProcessMgmtLeaveReq_4
   1924            {
   1925              if(req.extAddr == NULL)
   \   0000FF   7401         MOV       A,#0x1
   \   000101   12....       LCALL     ?XSTACK_DISP0_8
   \   000104   E0           MOVX      A,@DPTR
   \   000105   F8           MOV       R0,A
   \   000106   A3           INC       DPTR
   \   000107   E0           MOVX      A,@DPTR
   \   000108   F9           MOV       R1,A
   \   000109   E8           MOV       A,R0
   \   00010A   49           ORL       A,R1
   \   00010B   7003         JNZ       ??ZDO_ProcessMgmtLeaveReq_4
   1926              {
   1927                bdb_setFN();
   \   00010D                ; Setup parameters for call to function bdb_setFN
   \   00010D   12....       LCALL     `??bdb_setFN::?relay`; Banked call to: bdb_setFN
   1928              }
   1929            }
   1930          }
   \                     ??ZDO_ProcessMgmtLeaveReq_4:
   \   000110   7406         MOV       A,#0x6
   \   000112   12....       LCALL     ?DEALLOC_XSTACK8
   \   000115   7F04         MOV       R7,#0x4
   \   000117   02....       LJMP      ?BANKED_LEAVE_XDATA
   1931          
   1932          
   1933          /*********************************************************************
   1934           * @fn          ZDO_ProcessMgmtPermitJoinReq
   1935           *
   1936           * @brief       This function processes a Management Permit Join Request
   1937           *              and generates the response.
   1938           *
   1939           * @param       inMsg - incoming message (request)
   1940           *
   1941           * @return      none
   1942           */

   \                                 In  segment BANKED_CODE, align 1, keep-with-next
   1943          void ZDO_ProcessMgmtPermitJoinReq( zdoIncomingMsg_t *inMsg )
   \                     ZDO_ProcessMgmtPermitJoinReq:
   1944          {
   \   000000                REQUIRE ?V0
   \   000000                REQUIRE ?V1
   \   000000   74F6         MOV       A,#-0xa
   \   000002   12....       LCALL     ?BANKED_ENTER_XDATA
   \   000005                ; Saved register size: 10
   \   000005                ; Auto size: 1
   \   000005   74FF         MOV       A,#-0x1
   \   000007   12....       LCALL     ?ALLOC_XSTACK8
   \   00000A   EA           MOV       A,R2
   \   00000B   FE           MOV       R6,A
   \   00000C   EB           MOV       A,R3
   \   00000D   FF           MOV       R7,A
   1945            uint8 stat;
   1946            uint8 duration;
   1947          #if (ZG_BUILD_COORDINATOR_TYPE)
   1948            if(ZG_DEVICE_COORDINATOR_TYPE)
   1949            {
   1950              //If zgAllowRemoteTCPolicyChange is set to FALSE, the request from other 
   1951              //devices cannot affect the  Trust Center policies
   1952              if((zgAllowRemoteTCPolicyChange == 0) && (inMsg->srcAddr.addr.shortAddr!= 0x0000))
   1953              {
   1954                return;
   1955              }
   1956            }
   1957          #endif
   1958            
   1959            duration = inMsg->asdu[ZDP_MGMT_PERMIT_JOIN_REQ_DURATION];
   \   00000E   EA           MOV       A,R2
   \   00000F   2413         ADD       A,#0x13
   \   000011   F582         MOV       DPL,A
   \   000013   E4           CLR       A
   \   000014   3F           ADDC      A,R7
   \   000015   F583         MOV       DPH,A
   \   000017   E0           MOVX      A,@DPTR
   \   000018   F8           MOV       R0,A
   \   000019   A3           INC       DPTR
   \   00001A   E0           MOVX      A,@DPTR
   \   00001B   F583         MOV       DPH,A
   \   00001D   8882         MOV       DPL,R0
   \   00001F   E0           MOVX      A,@DPTR
   \   000020   F5..         MOV       ?V0,A
   1960            // Per R21 Spec this field is not longer relevant 2.4.3.3.7.2 (Mgmt_Permit_Joining_req Effect on Receipt)
   1961            //tcsig    = inMsg->asdu[ZDP_MGMT_PERMIT_JOIN_REQ_TC_SIG];
   1962          
   1963            // Per R21 Spec this duration cannot last forever 2.4.3.3.7.2 (Mgmt_Permit_Joining_req Effect on Receipt)
   1964            if(duration == 0xFF)
   \   000022   74FF         MOV       A,#-0x1
   \   000024   65..         XRL       A,?V0
   \   000026   7003         JNZ       ??ZDO_ProcessMgmtPermitJoinReq_0
   1965            {
   1966              duration = 0xFE;
   \   000028   75..FE       MOV       ?V0,#-0x2
   1967            }
   1968            
   1969            // Set the network layer permit join duration
   1970            stat = (byte) NLME_PermitJoiningRequest( duration );
   \                     ??ZDO_ProcessMgmtPermitJoinReq_0:
   \   00002B                ; Setup parameters for call to function NLME_PermitJoiningRequest
   \   00002B   A9..         MOV       R1,?V0
   \   00002D   12....       LCALL     `??NLME_PermitJoiningRequest::?relay`; Banked call to: NLME_PermitJoiningRequest
   \   000030   E9           MOV       A,R1
   \   000031   85..82       MOV       DPL,?XSP + 0
   \   000034   85..83       MOV       DPH,?XSP + 1
   \   000037   F0           MOVX      @DPTR,A
   1971          
   1972            //Handle the permit joining if running a distributed network
   1973            if(APSME_IsDistributedSecurity())
   \   000038                ; Setup parameters for call to function APSME_IsDistributedSecurity
   \   000038   12....       LCALL     `??APSME_IsDistributedSecurity::?relay`; Banked call to: APSME_IsDistributedSecurity
   \   00003B   E9           MOV       A,R1
   \   00003C   6005         JZ        ??ZDO_ProcessMgmtPermitJoinReq_1
   1974            {
   1975              ZDSecMgrPermitJoining( duration );
   \   00003E                ; Setup parameters for call to function ZDSecMgrPermitJoining
   \   00003E   A9..         MOV       R1,?V0
   \   000040   12....       LCALL     `??ZDSecMgrPermitJoining::?relay`; Banked call to: ZDSecMgrPermitJoining
   1976            }
   1977            
   1978            // Handle the Trust Center Significance
   1979            if ( ZG_SECURE_ENABLED && ZG_BUILD_COORDINATOR_TYPE && ZG_DEVICE_COORDINATOR_TYPE )
   1980            {
   1981              ZDSecMgrPermitJoining( duration );
   1982            }
   1983          
   1984            // Send a response if unicast
   1985            if ( !inMsg->wasBroadcast )
   \                     ??ZDO_ProcessMgmtPermitJoinReq_1:
   \   000043   EE           MOV       A,R6
   \   000044   240B         ADD       A,#0xb
   \   000046   F582         MOV       DPL,A
   \   000048   E4           CLR       A
   \   000049   3F           ADDC      A,R7
   \   00004A   F583         MOV       DPH,A
   \   00004C   E0           MOVX      A,@DPTR
   \   00004D   7039         JNZ       ??ZDO_ProcessMgmtPermitJoinReq_2
   1986            {
   1987              ZDP_MgmtPermitJoinRsp( inMsg->TransSeq, &(inMsg->srcAddr), stat, false );
   \   00004F                ; Setup parameters for call to function ZDP_SendData
   \   00004F   75..00       MOV       ?V0,#0x0
   \   000052   78..         MOV       R0,#?V0
   \   000054   12....       LCALL     ?PUSH_XSTACK_I_ONE
   \   000057   7401         MOV       A,#0x1
   \   000059   12....       LCALL     ?XSTACK_DISP100_8
   \   00005C   88..         MOV       ?V0,R0
   \   00005E   89..         MOV       ?V1,R1
   \   000060   78..         MOV       R0,#?V0
   \   000062   12....       LCALL     ?PUSH_XSTACK_I_TWO
   \   000065   75..36       MOV       ?V0,#0x36
   \   000068   75..80       MOV       ?V1,#-0x80
   \   00006B   78..         MOV       R0,#?V0
   \   00006D   12....       LCALL     ?PUSH_XSTACK_I_TWO
   \   000070   7901         MOV       R1,#0x1
   \   000072   EE           MOV       A,R6
   \   000073   2402         ADD       A,#0x2
   \   000075   FC           MOV       R4,A
   \   000076   E4           CLR       A
   \   000077   3F           ADDC      A,R7
   \   000078   FD           MOV       R5,A
   \   000079   EE           MOV       A,R6
   \   00007A   240F         ADD       A,#0xf
   \   00007C   FA           MOV       R2,A
   \   00007D   E4           CLR       A
   \   00007E   3F           ADDC      A,R7
   \   00007F   FB           MOV       R3,A
   \   000080   12....       LCALL     `??ZDP_SendData::?relay`; Banked call to: ZDP_SendData
   \   000083   7405         MOV       A,#0x5
   \   000085   12....       LCALL     ?DEALLOC_XSTACK8
   1988            }
   1989          }
   \                     ??ZDO_ProcessMgmtPermitJoinReq_2:
   \   000088   7401         MOV       A,#0x1
   \   00008A   12....       LCALL     ?DEALLOC_XSTACK8
   \   00008D   7F02         MOV       R7,#0x2
   \   00008F   02....       LJMP      ?BANKED_LEAVE_XDATA
   1990          
   1991          /*
   1992           * This function stub allows the next higher layer to be notified of
   1993           * a permit joining timeout.
   1994           */
   1995          /*********************************************************************
   1996           * @fn          ZDO_ProcessMgmtPermitJoinTimeout
   1997           *
   1998           * @brief       This function stub allows the next higher layer to be
   1999           *              notified of a permit joining timeout. Currently, this
   2000           *              directly bypasses the APS layer.
   2001           *
   2002           * @param       none
   2003           *
   2004           * @return      none
   2005           */

   \                                 In  segment BANKED_CODE, align 1, keep-with-next
   2006          void ZDO_ProcessMgmtPermitJoinTimeout( void )
   \                     NLME_PermitJoiningTimeout:
   2007          {
   \   000000                ; Saved register size: 0
   \   000000                ; Auto size: 0
   2008            #if defined( ZDO_MGMT_PERMIT_JOIN_RESPONSE )
   2009            // Currently, only the ZDSecMgr needs to be notified
   2010            if ( ZG_SECURE_ENABLED && ZG_BUILD_COORDINATOR_TYPE && ZG_DEVICE_COORDINATOR_TYPE )
   2011            {
   2012              ZDSecMgrPermitJoiningTimeout();
   2013            }
   2014            #endif
   2015          }
   \   000000   02....       LJMP      ?BRET
   2016          
   2017          /*********************************************************************
   2018           * @fn          ZDO_ProcessUserDescReq
   2019           *
   2020           * @brief       This function finishes the processing of the User
   2021           *              Descriptor Request and generates the response.
   2022           *
   2023           * @param       inMsg - incoming message (request)
   2024           *
   2025           * @return      none
   2026           */

   \                                 In  segment BANKED_CODE, align 1, keep-with-next
   2027          void ZDO_ProcessUserDescReq( zdoIncomingMsg_t *inMsg )
   \                     ZDO_ProcessUserDescReq:
   2028          {
   \   000000                REQUIRE ?V0
   \   000000                REQUIRE ?V1
   \   000000                REQUIRE ?V2
   \   000000                REQUIRE ?V3
   \   000000   74F4         MOV       A,#-0xc
   \   000002   12....       LCALL     ?BANKED_ENTER_XDATA
   \   000005                ; Saved register size: 12
   \   000005                ; Auto size: 17
   \   000005   74EF         MOV       A,#-0x11
   \   000007   12....       LCALL     ?ALLOC_XSTACK8
   \   00000A   EA           MOV       A,R2
   \   00000B   FE           MOV       R6,A
   \   00000C   EB           MOV       A,R3
   \   00000D   FF           MOV       R7,A
   2029            uint16 aoi = BUILD_UINT16( inMsg->asdu[0], inMsg->asdu[1] );
   \   00000E   EA           MOV       A,R2
   \   00000F   2413         ADD       A,#0x13
   \   000011   F582         MOV       DPL,A
   \   000013   E4           CLR       A
   \   000014   3F           ADDC      A,R7
   \   000015   F583         MOV       DPH,A
   \   000017   E0           MOVX      A,@DPTR
   \   000018   F8           MOV       R0,A
   \   000019   A3           INC       DPTR
   \   00001A   E0           MOVX      A,@DPTR
   \   00001B   8882         MOV       DPL,R0
   \   00001D   F583         MOV       DPH,A
   \   00001F   E0           MOVX      A,@DPTR
   \   000020   FA           MOV       R2,A
   \   000021   A3           INC       DPTR
   \   000022   E0           MOVX      A,@DPTR
   \   000023   F8           MOV       R0,A
   \   000024   E4           CLR       A
   \   000025   C8           XCH       A,R0
   \   000026   F9           MOV       R1,A
   \   000027   EA           MOV       A,R2
   \   000028   28           ADD       A,R0
   \   000029   F5..         MOV       ?V0,A
   \   00002B   E4           CLR       A
   \   00002C   39           ADDC      A,R1
   \   00002D   F5..         MOV       ?V1,A
   2030            UserDescriptorFormat_t userDesc;
   2031          
   2032            if ( (aoi == ZDAppNwkAddr.addr.shortAddr) && (ZSUCCESS == osal_nv_read(
   2033                       ZCD_NV_USERDESC, 0, sizeof(UserDescriptorFormat_t), &userDesc )) )
   \   00002F   90....       MOV       DPTR,#ZDAppNwkAddr
   \   000032   E0           MOVX      A,@DPTR
   \   000033   6A           XRL       A,R2
   \   000034   7003         JNZ       ??ZDO_ProcessUserDescReq_0
   \   000036   A3           INC       DPTR
   \   000037   E0           MOVX      A,@DPTR
   \   000038   69           XRL       A,R1
   \                     ??ZDO_ProcessUserDescReq_0:
   \   000039   7061         JNZ       ??ZDO_ProcessUserDescReq_1
   \   00003B                ; Setup parameters for call to function osal_nv_read
   \   00003B   A8..         MOV       R0,?XSP + 0
   \   00003D   A9..         MOV       R1,?XSP + 1
   \   00003F   88..         MOV       ?V2,R0
   \   000041   89..         MOV       ?V3,R1
   \   000043   78..         MOV       R0,#?V2
   \   000045   12....       LCALL     ?PUSH_XSTACK_I_TWO
   \   000048   75..11       MOV       ?V2,#0x11
   \   00004B   75..00       MOV       ?V3,#0x0
   \   00004E   78..         MOV       R0,#?V2
   \   000050   12....       LCALL     ?PUSH_XSTACK_I_TWO
   \   000053   7C00         MOV       R4,#0x0
   \   000055   7D00         MOV       R5,#0x0
   \   000057   7A81         MOV       R2,#-0x7f
   \   000059   7B00         MOV       R3,#0x0
   \   00005B   12....       LCALL     `??osal_nv_read::?relay`; Banked call to: osal_nv_read
   \   00005E   7404         MOV       A,#0x4
   \   000060   12....       LCALL     ?DEALLOC_XSTACK8
   \   000063   E9           MOV       A,R1
   \   000064   7036         JNZ       ??ZDO_ProcessUserDescReq_1
   2034            {
   2035              ZDP_UserDescRsp( inMsg->TransSeq, &(inMsg->srcAddr), aoi, &userDesc, false );
   \   000066                ; Setup parameters for call to function ZDP_UserDescRsp
   \   000066   75..00       MOV       ?V2,#0x0
   \   000069   78..         MOV       R0,#?V2
   \   00006B   12....       LCALL     ?PUSH_XSTACK_I_ONE
   \   00006E   7401         MOV       A,#0x1
   \   000070   12....       LCALL     ?XSTACK_DISP100_8
   \   000073   88..         MOV       ?V2,R0
   \   000075   89..         MOV       ?V3,R1
   \   000077   78..         MOV       R0,#?V2
   \   000079   12....       LCALL     ?PUSH_XSTACK_I_TWO
   \   00007C   AC..         MOV       R4,?V0
   \   00007E   AD..         MOV       R5,?V1
   \   000080   EE           MOV       A,R6
   \   000081   2402         ADD       A,#0x2
   \   000083   FA           MOV       R2,A
   \   000084   E4           CLR       A
   \   000085   3F           ADDC      A,R7
   \   000086   FB           MOV       R3,A
   \   000087   EE           MOV       A,R6
   \   000088   240F         ADD       A,#0xf
   \   00008A   F582         MOV       DPL,A
   \   00008C   E4           CLR       A
   \   00008D   3F           ADDC      A,R7
   \   00008E   F583         MOV       DPH,A
   \   000090   E0           MOVX      A,@DPTR
   \   000091   F9           MOV       R1,A
   \   000092   12....       LCALL     `??ZDP_UserDescRsp::?relay`; Banked call to: ZDP_UserDescRsp
   \   000095   7403         MOV       A,#0x3
   \   000097   12....       LCALL     ?DEALLOC_XSTACK8
   \   00009A   8037         SJMP      ??ZDO_ProcessUserDescReq_2
   2036            }
   2037            else
   2038            {
   2039              ZDP_GenericRsp(inMsg->TransSeq, &(inMsg->srcAddr),
   2040                     ZDP_NOT_SUPPORTED, aoi, User_Desc_rsp, inMsg->SecurityUse );
   \                     ??ZDO_ProcessUserDescReq_1:
   \   00009C                ; Setup parameters for call to function ZDP_GenericRsp
   \   00009C   75..11       MOV       ?V2,#0x11
   \   00009F   75..80       MOV       ?V3,#-0x80
   \   0000A2   78..         MOV       R0,#?V2
   \   0000A4   12....       LCALL     ?PUSH_XSTACK_I_TWO
   \   0000A7   78..         MOV       R0,#?V0
   \   0000A9   12....       LCALL     ?PUSH_XSTACK_I_TWO
   \   0000AC   EE           MOV       A,R6
   \   0000AD   240E         ADD       A,#0xe
   \   0000AF   F582         MOV       DPL,A
   \   0000B1   E4           CLR       A
   \   0000B2   3F           ADDC      A,R7
   \   0000B3   F583         MOV       DPH,A
   \   0000B5   E0           MOVX      A,@DPTR
   \   0000B6   FD           MOV       R5,A
   \   0000B7   7C84         MOV       R4,#-0x7c
   \   0000B9   EE           MOV       A,R6
   \   0000BA   2402         ADD       A,#0x2
   \   0000BC   FA           MOV       R2,A
   \   0000BD   E4           CLR       A
   \   0000BE   3F           ADDC      A,R7
   \   0000BF   FB           MOV       R3,A
   \   0000C0   EE           MOV       A,R6
   \   0000C1   240F         ADD       A,#0xf
   \   0000C3   F582         MOV       DPL,A
   \   0000C5   E4           CLR       A
   \   0000C6   3F           ADDC      A,R7
   \   0000C7   F583         MOV       DPH,A
   \   0000C9   E0           MOVX      A,@DPTR
   \   0000CA   F9           MOV       R1,A
   \   0000CB   12....       LCALL     `??ZDP_GenericRsp::?relay`; Banked call to: ZDP_GenericRsp
   \   0000CE   7404         MOV       A,#0x4
   \   0000D0   12....       LCALL     ?DEALLOC_XSTACK8
   2041            }
   2042          }
   \                     ??ZDO_ProcessUserDescReq_2:
   \   0000D3   7411         MOV       A,#0x11
   \   0000D5   12....       LCALL     ?DEALLOC_XSTACK8
   \   0000D8   7F04         MOV       R7,#0x4
   \   0000DA   02....       LJMP      ?BANKED_LEAVE_XDATA
   2043          
   2044          /*********************************************************************
   2045           * @fn          ZDO_ProcessUserDescSet
   2046           *
   2047           * @brief       This function finishes the processing of the User
   2048           *              Descriptor Set and generates the response.
   2049           *
   2050           * @param       inMsg - incoming message (request)
   2051           *
   2052           * @return      none
   2053           */

   \                                 In  segment BANKED_CODE, align 1, keep-with-next
   2054          void ZDO_ProcessUserDescSet( zdoIncomingMsg_t *inMsg )
   \                     ZDO_ProcessUserDescSet:
   2055          {
   \   000000                REQUIRE ?V0
   \   000000                REQUIRE ?V1
   \   000000                REQUIRE ?V2
   \   000000                REQUIRE ?V3
   \   000000                REQUIRE ?V4
   \   000000                REQUIRE ?V5
   \   000000                REQUIRE ?V6
   \   000000   74F1         MOV       A,#-0xf
   \   000002   12....       LCALL     ?BANKED_ENTER_XDATA
   \   000005                ; Saved register size: 15
   \   000005                ; Auto size: 21
   \   000005   74EB         MOV       A,#-0x15
   \   000007   12....       LCALL     ?ALLOC_XSTACK8
   \   00000A   8A..         MOV       ?V2,R2
   \   00000C   8B..         MOV       ?V3,R3
   2056            uint8 *msg;
   2057            uint16 aoi;
   2058            UserDescriptorFormat_t userDesc;
   2059            uint8 outMsg[3];
   2060            uint8 status;
   2061          
   2062            msg = inMsg->asdu;
   \   00000E   EA           MOV       A,R2
   \   00000F   2413         ADD       A,#0x13
   \   000011   F582         MOV       DPL,A
   \   000013   E4           CLR       A
   \   000014   35..         ADDC      A,?V3
   \   000016   F583         MOV       DPH,A
   \   000018   E0           MOVX      A,@DPTR
   \   000019   F8           MOV       R0,A
   \   00001A   A3           INC       DPTR
   \   00001B   E0           MOVX      A,@DPTR
   \   00001C   F9           MOV       R1,A
   2063            aoi = BUILD_UINT16( msg[0], msg[1] );
   \   00001D   8882         MOV       DPL,R0
   \   00001F   F583         MOV       DPH,A
   \   000021   E0           MOVX      A,@DPTR
   \   000022   FC           MOV       R4,A
   \   000023   A3           INC       DPTR
   \   000024   E0           MOVX      A,@DPTR
   \   000025   FA           MOV       R2,A
   \   000026   E4           CLR       A
   \   000027   CA           XCH       A,R2
   \   000028   FB           MOV       R3,A
   \   000029   EC           MOV       A,R4
   \   00002A   2A           ADD       A,R2
   \   00002B   FE           MOV       R6,A
   \   00002C   E4           CLR       A
   \   00002D   3B           ADDC      A,R3
   \   00002E   FF           MOV       R7,A
   2064          
   2065            if ( aoi == ZDAppNwkAddr.addr.shortAddr )
   \   00002F   90....       MOV       DPTR,#ZDAppNwkAddr
   \   000032   E0           MOVX      A,@DPTR
   \   000033   6E           XRL       A,R6
   \   000034   7003         JNZ       ??ZDO_ProcessUserDescSet_0
   \   000036   A3           INC       DPTR
   \   000037   E0           MOVX      A,@DPTR
   \   000038   6F           XRL       A,R7
   \                     ??ZDO_ProcessUserDescSet_0:
   \   000039   6003         JZ        $+5
   \   00003B   02....       LJMP      ??ZDO_ProcessUserDescSet_1 & 0xFFFF
   2066            {
   2067              userDesc.len = (msg[2] < AF_MAX_USER_DESCRIPTOR_LEN) ? msg[2] : AF_MAX_USER_DESCRIPTOR_LEN;
   \   00003E   8882         MOV       DPL,R0
   \   000040   8983         MOV       DPH,R1
   \   000042   A3           INC       DPTR
   \   000043   A3           INC       DPTR
   \   000044   E0           MOVX      A,@DPTR
   \   000045   FA           MOV       R2,A
   \   000046   9410         SUBB      A,#0x10
   \   000048   5004         JNC       ??ZDO_ProcessUserDescSet_2
   \   00004A   8A..         MOV       ?V0,R2
   \   00004C   8003         SJMP      ??ZDO_ProcessUserDescSet_3
   \                     ??ZDO_ProcessUserDescSet_2:
   \   00004E   75..10       MOV       ?V0,#0x10
   \                     ??ZDO_ProcessUserDescSet_3:
   \   000051   7404         MOV       A,#0x4
   \   000053   12....       LCALL     ?XSTACK_DISP0_8
   \   000056   E5..         MOV       A,?V0
   \   000058   F0           MOVX      @DPTR,A
   2068              msg ++;  // increment one for the length field
   2069          
   2070              osal_memcpy( userDesc.desc, &msg[2], userDesc.len );
   \   000059                ; Setup parameters for call to function osal_memcpy
   \   000059   8882         MOV       DPL,R0
   \   00005B   8983         MOV       DPH,R1
   \   00005D   A3           INC       DPTR
   \   00005E   A3           INC       DPTR
   \   00005F   A3           INC       DPTR
   \   000060   A982         MOV       R1,DPL
   \   000062   AA83         MOV       R2,DPH
   \   000064   89..         MOV       ?V4,R1
   \   000066   8A..         MOV       ?V5,R2
   \   000068   75..00       MOV       ?V6,#0x0
   \   00006B   78..         MOV       R0,#?V4
   \   00006D   12....       LCALL     ?PUSH_XSTACK_I_THREE
   \   000070   7407         MOV       A,#0x7
   \   000072   12....       LCALL     ?XSTACK_DISP0_8
   \   000075   E0           MOVX      A,@DPTR
   \   000076   FC           MOV       R4,A
   \   000077   7D00         MOV       R5,#0x0
   \   000079   7408         MOV       A,#0x8
   \   00007B   12....       LCALL     ?XSTACK_DISP0_8
   \   00007E   AA82         MOV       R2,DPL
   \   000080   AB83         MOV       R3,DPH
   \   000082   12....       LCALL     `??osal_memcpy::?relay`; Banked call to: osal_memcpy
   \   000085   7403         MOV       A,#0x3
   \   000087   12....       LCALL     ?DEALLOC_XSTACK8
   2071              osal_nv_write( ZCD_NV_USERDESC, 0, sizeof(UserDescriptorFormat_t), &userDesc );
   \   00008A                ; Setup parameters for call to function osal_nv_write
   \   00008A   7404         MOV       A,#0x4
   \   00008C   12....       LCALL     ?XSTACK_DISP100_8
   \   00008F   88..         MOV       ?V4,R0
   \   000091   89..         MOV       ?V5,R1
   \   000093   78..         MOV       R0,#?V4
   \   000095   12....       LCALL     ?PUSH_XSTACK_I_TWO
   \   000098   75..11       MOV       ?V4,#0x11
   \   00009B   75..00       MOV       ?V5,#0x0
   \   00009E   78..         MOV       R0,#?V4
   \   0000A0   12....       LCALL     ?PUSH_XSTACK_I_TWO
   \   0000A3   7C00         MOV       R4,#0x0
   \   0000A5   7D00         MOV       R5,#0x0
   \   0000A7   7A81         MOV       R2,#-0x7f
   \   0000A9   7B00         MOV       R3,#0x0
   \   0000AB   12....       LCALL     `??osal_nv_write::?relay`; Banked call to: osal_nv_write
   \   0000AE   7404         MOV       A,#0x4
   \   0000B0   12....       LCALL     ?DEALLOC_XSTACK8
   2072              if ( userDesc.len != 0 )
   \   0000B3   7404         MOV       A,#0x4
   \   0000B5   12....       LCALL     ?XSTACK_DISP0_8
   \   0000B8   E0           MOVX      A,@DPTR
   \   0000B9   90....       MOV       DPTR,#ZDO_Config_Node_Descriptor
   \   0000BC   6005         JZ        ??ZDO_ProcessUserDescSet_4
   2073              {
   2074                ZDO_Config_Node_Descriptor.UserDescAvail = TRUE;
   \   0000BE   E0           MOVX      A,@DPTR
   \   0000BF   D2E4         SETB      0xE0 /* A   */.4
   \   0000C1   8003         SJMP      ??ZDO_ProcessUserDescSet_5
   2075              }
   2076              else
   2077              {
   2078                ZDO_Config_Node_Descriptor.UserDescAvail = FALSE;
   \                     ??ZDO_ProcessUserDescSet_4:
   \   0000C3   E0           MOVX      A,@DPTR
   \   0000C4   C2E4         CLR       0xE0 /* A   */.4
   \                     ??ZDO_ProcessUserDescSet_5:
   \   0000C6   F0           MOVX      @DPTR,A
   2079              }
   2080          
   2081              status = ZDP_SUCCESS;
   \   0000C7   85..82       MOV       DPL,?XSP + 0
   \   0000CA   85..83       MOV       DPH,?XSP + 1
   \   0000CD   E4           CLR       A
   \   0000CE   8008         SJMP      ??ZDO_ProcessUserDescSet_6
   2082            }
   2083            else
   2084            {
   2085              status =  ZDP_NOT_SUPPORTED;
   \                     ??ZDO_ProcessUserDescSet_1:
   \   0000D0   85..82       MOV       DPL,?XSP + 0
   \   0000D3   85..83       MOV       DPH,?XSP + 1
   \   0000D6   7484         MOV       A,#-0x7c
   \                     ??ZDO_ProcessUserDescSet_6:
   \   0000D8   F0           MOVX      @DPTR,A
   2086            }
   2087          
   2088            outMsg[0] = status;
   \   0000D9   E0           MOVX      A,@DPTR
   \   0000DA   C0E0         PUSH      A
   \   0000DC   7401         MOV       A,#0x1
   \   0000DE   12....       LCALL     ?XSTACK_DISP0_8
   \   0000E1   D0E0         POP       A
   \   0000E3   F0           MOVX      @DPTR,A
   2089            outMsg[1] = LO_UINT16( aoi );
   \   0000E4   EE           MOV       A,R6
   \   0000E5   C0E0         PUSH      A
   \   0000E7   7402         MOV       A,#0x2
   \   0000E9   12....       LCALL     ?XSTACK_DISP0_8
   \   0000EC   D0E0         POP       A
   \   0000EE   F0           MOVX      @DPTR,A
   2090            outMsg[2] = LO_UINT16( aoi );
   \   0000EF   EE           MOV       A,R6
   \   0000F0   C0E0         PUSH      A
   \   0000F2   7403         MOV       A,#0x3
   \   0000F4   12....       LCALL     ?XSTACK_DISP0_8
   \   0000F7   D0E0         POP       A
   \   0000F9   F0           MOVX      @DPTR,A
   2091          
   2092            ZDP_SendData( &(inMsg->TransSeq), &(inMsg->srcAddr), User_Desc_conf, 3, outMsg,
   2093                         inMsg->SecurityUse );
   \   0000FA                ; Setup parameters for call to function ZDP_SendData
   \   0000FA   E5..         MOV       A,?V2
   \   0000FC   240E         ADD       A,#0xe
   \   0000FE   F582         MOV       DPL,A
   \   000100   E4           CLR       A
   \   000101   35..         ADDC      A,?V3
   \   000103   F583         MOV       DPH,A
   \   000105   E0           MOVX      A,@DPTR
   \   000106   F5..         MOV       ?V1,A
   \   000108   78..         MOV       R0,#?V1
   \   00010A   12....       LCALL     ?PUSH_XSTACK_I_ONE
   \   00010D   7402         MOV       A,#0x2
   \   00010F   12....       LCALL     ?XSTACK_DISP100_8
   \   000112   88..         MOV       ?V4,R0
   \   000114   89..         MOV       ?V5,R1
   \   000116   78..         MOV       R0,#?V4
   \   000118   12....       LCALL     ?PUSH_XSTACK_I_TWO
   \   00011B   75..14       MOV       ?V4,#0x14
   \   00011E   75..80       MOV       ?V5,#-0x80
   \   000121   78..         MOV       R0,#?V4
   \   000123   12....       LCALL     ?PUSH_XSTACK_I_TWO
   \   000126   7903         MOV       R1,#0x3
   \   000128   E5..         MOV       A,?V2
   \   00012A   2402         ADD       A,#0x2
   \   00012C   FC           MOV       R4,A
   \   00012D   E4           CLR       A
   \   00012E   35..         ADDC      A,?V3
   \   000130   FD           MOV       R5,A
   \   000131   E5..         MOV       A,?V2
   \   000133   240F         ADD       A,#0xf
   \   000135   FA           MOV       R2,A
   \   000136   E4           CLR       A
   \   000137   35..         ADDC      A,?V3
   \   000139   FB           MOV       R3,A
   \   00013A   12....       LCALL     `??ZDP_SendData::?relay`; Banked call to: ZDP_SendData
   \   00013D   7405         MOV       A,#0x5
   \   00013F   12....       LCALL     ?DEALLOC_XSTACK8
   2094          }
   \   000142   7415         MOV       A,#0x15
   \   000144   12....       LCALL     ?DEALLOC_XSTACK8
   \   000147   7F07         MOV       R7,#0x7
   \   000149   02....       LJMP      ?BANKED_LEAVE_XDATA
   2095          
   2096          /*********************************************************************
   2097           * @fn          ZDO_ProcessDeviceAnnce
   2098           *
   2099           * @brief       This function processes a device annouce message.
   2100           *
   2101           * @param       inMsg - incoming message
   2102           *
   2103           * @return      none
   2104           */

   \                                 In  segment BANKED_CODE, align 1, keep-with-next
   2105          void ZDO_ProcessDeviceAnnce( zdoIncomingMsg_t *inMsg )
   \                     ZDO_ProcessDeviceAnnce:
   2106          {
   \   000000                REQUIRE ?V0
   \   000000                REQUIRE ?V1
   \   000000   74F6         MOV       A,#-0xa
   \   000002   12....       LCALL     ?BANKED_ENTER_XDATA
   \   000005                ; Saved register size: 10
   \   000005                ; Auto size: 32
   \   000005   74E0         MOV       A,#-0x20
   \   000007   12....       LCALL     ?ALLOC_XSTACK8
   2107            ZDO_DeviceAnnce_t Annce;
   2108            AddrMgrEntry_t addrEntry;
   2109            uint8 parentExt[Z_EXTADDR_LEN];
   2110          #if !defined (DISABLE_GREENPOWER_BASIC_PROXY) && (ZG_BUILD_RTR_TYPE)
   2111            uint8 invalidIEEE[Z_EXTADDR_LEN] = {0xFF, 0xFF, 0xFF, 0xFF, 0xFF, 0xFF, 0xFF, 0xFF};
   2112          #endif
   2113          
   2114            if ( (_NIB.nwkState != NWK_ROUTER) && (_NIB.nwkState != NWK_ENDDEVICE) )
   \   00000A   90....       MOV       DPTR,#_NIB + 35
   \   00000D   E0           MOVX      A,@DPTR
   \   00000E   F8           MOV       R0,A
   \   00000F   7408         MOV       A,#0x8
   \   000011   68           XRL       A,R0
   \   000012   6008         JZ        ??ZDO_ProcessDeviceAnnce_0
   \   000014   7404         MOV       A,#0x4
   \   000016   68           XRL       A,R0
   \   000017   6003         JZ        $+5
   \   000019   02....       LJMP      ??ZDO_ProcessDeviceAnnce_1 & 0xFFFF
   2115            {
   2116              // we arent stable, ignore the message
   2117              return;
   2118            }
   2119            
   2120            // Parse incoming message
   2121            ZDO_ParseDeviceAnnce( inMsg, &Annce );
   \                     ??ZDO_ProcessDeviceAnnce_0:
   \   00001C                ; Setup parameters for call to function ZDO_ParseDeviceAnnce
   \   00001C   AC..         MOV       R4,?XSP + 0
   \   00001E   AD..         MOV       R5,?XSP + 1
   \   000020   12....       LCALL     `??ZDO_ParseDeviceAnnce::?relay`; Banked call to: ZDO_ParseDeviceAnnce
   2122          
   2123            if ( ZSTACK_END_DEVICE_BUILD )
   2124            {
   2125              // Make sure the message didn't come from myself - end device only
   2126              if ( osal_ExtAddrEqual( NLME_GetExtAddr(), Annce.extAddr ) && Annce.nwkAddr == NLME_GetShortAddr() )
   \   000023                ; Setup parameters for call to function NLME_GetExtAddr
   \   000023   12....       LCALL     `??NLME_GetExtAddr::?relay`; Banked call to: NLME_GetExtAddr
   \   000026                ; Setup parameters for call to function sAddrExtCmp
   \   000026   7402         MOV       A,#0x2
   \   000028   12....       LCALL     ?XSTACK_DISP0_8
   \   00002B   AC82         MOV       R4,DPL
   \   00002D   AD83         MOV       R5,DPH
   \   00002F   12....       LCALL     `??sAddrExtCmp::?relay`; Banked call to: sAddrExtCmp
   \   000032   E9           MOV       A,R1
   \   000033   601D         JZ        ??ZDO_ProcessDeviceAnnce_2
   \   000035                ; Setup parameters for call to function NLME_GetShortAddr
   \   000035   12....       LCALL     `??NLME_GetShortAddr::?relay`; Banked call to: NLME_GetShortAddr
   \   000038   8A..         MOV       ?V0,R2
   \   00003A   8B..         MOV       ?V1,R3
   \   00003C   A8..         MOV       R0,?V0
   \   00003E   A9..         MOV       R1,?V1
   \   000040   85..82       MOV       DPL,?XSP + 0
   \   000043   85..83       MOV       DPH,?XSP + 1
   \   000046   E0           MOVX      A,@DPTR
   \   000047   68           XRL       A,R0
   \   000048   7003         JNZ       ??ZDO_ProcessDeviceAnnce_3
   \   00004A   A3           INC       DPTR
   \   00004B   E0           MOVX      A,@DPTR
   \   00004C   69           XRL       A,R1
   \                     ??ZDO_ProcessDeviceAnnce_3:
   \   00004D   7003         JNZ       $+5
   \   00004F   02....       LJMP      ??ZDO_ProcessDeviceAnnce_1 & 0xFFFF
   2127              {
   2128                return;
   2129              }
   2130            }
   2131          
   2132          #if defined ( ZIGBEEPRO )
   2133            // Clean up the neighbor table
   2134            nwkNeighborRemoveAllStranded();
   \                     ??ZDO_ProcessDeviceAnnce_2:
   \   000052                ; Setup parameters for call to function nwkNeighborRemoveAllStranded
   \   000052   12....       LCALL     `??nwkNeighborRemoveAllStranded::?relay`; Banked call to: nwkNeighborRemoveAllStranded
   2135          
   2136            // If address conflict is detected, no need to update the address manager
   2137            if ( NLME_CheckNewAddrSet( Annce.nwkAddr, Annce.extAddr )== ZFailure )
   \   000055                ; Setup parameters for call to function NLME_CheckNewAddrSet
   \   000055   7402         MOV       A,#0x2
   \   000057   12....       LCALL     ?XSTACK_DISP0_8
   \   00005A   AC82         MOV       R4,DPL
   \   00005C   AD83         MOV       R5,DPH
   \   00005E   85..82       MOV       DPL,?XSP + 0
   \   000061   85..83       MOV       DPH,?XSP + 1
   \   000064   E0           MOVX      A,@DPTR
   \   000065   FA           MOV       R2,A
   \   000066   A3           INC       DPTR
   \   000067   E0           MOVX      A,@DPTR
   \   000068   FB           MOV       R3,A
   \   000069   12....       LCALL     `??NLME_CheckNewAddrSet::?relay`; Banked call to: NLME_CheckNewAddrSet
   \   00006C   E9           MOV       A,R1
   \   00006D   6401         XRL       A,#0x1
   \   00006F   7003         JNZ       $+5
   \   000071   02....       LJMP      ??ZDO_ProcessDeviceAnnce_1 & 0xFFFF
   2138            {
   2139              return;
   2140            }
   2141          
   2142            // Check for parent's address
   2143            NLME_GetCoordExtAddr( parentExt );
   \   000074                ; Setup parameters for call to function NLME_GetCoordExtAddr
   \   000074   7418         MOV       A,#0x18
   \   000076   12....       LCALL     ?XSTACK_DISP101_8
   \   000079   12....       LCALL     `??NLME_GetCoordExtAddr::?relay`; Banked call to: NLME_GetCoordExtAddr
   2144            if ( osal_ExtAddrEqual( parentExt, Annce.extAddr ) )
   \   00007C                ; Setup parameters for call to function sAddrExtCmp
   \   00007C   7402         MOV       A,#0x2
   \   00007E   12....       LCALL     ?XSTACK_DISP0_8
   \   000081   AC82         MOV       R4,DPL
   \   000083   AD83         MOV       R5,DPH
   \   000085   7418         MOV       A,#0x18
   \   000087   12....       LCALL     ?XSTACK_DISP101_8
   \   00008A   12....       LCALL     `??sAddrExtCmp::?relay`; Banked call to: sAddrExtCmp
   \   00008D   E9           MOV       A,R1
   \   00008E   6036         JZ        ??ZDO_ProcessDeviceAnnce_4
   2145            {
   2146              if ( Annce.nwkAddr != NLME_GetCoordShortAddr() )
   \   000090                ; Setup parameters for call to function NLME_GetCoordShortAddr
   \   000090   12....       LCALL     `??NLME_GetCoordShortAddr::?relay`; Banked call to: NLME_GetCoordShortAddr
   \   000093   8A..         MOV       ?V0,R2
   \   000095   8B..         MOV       ?V1,R3
   \   000097   A8..         MOV       R0,?V0
   \   000099   A9..         MOV       R1,?V1
   \   00009B   85..82       MOV       DPL,?XSP + 0
   \   00009E   85..83       MOV       DPH,?XSP + 1
   \   0000A1   E0           MOVX      A,@DPTR
   \   0000A2   68           XRL       A,R0
   \   0000A3   7003         JNZ       ??ZDO_ProcessDeviceAnnce_5
   \   0000A5   A3           INC       DPTR
   \   0000A6   E0           MOVX      A,@DPTR
   \   0000A7   69           XRL       A,R1
   \                     ??ZDO_ProcessDeviceAnnce_5:
   \   0000A8   601C         JZ        ??ZDO_ProcessDeviceAnnce_4
   2147              {
   2148                // Set the Parent's MAC's new short address
   2149                _NIB.nwkCoordAddress = Annce.nwkAddr;
   \   0000AA   85..82       MOV       DPL,?XSP + 0
   \   0000AD   85..83       MOV       DPH,?XSP + 1
   \   0000B0   E0           MOVX      A,@DPTR
   \   0000B1   F8           MOV       R0,A
   \   0000B2   A3           INC       DPTR
   \   0000B3   E0           MOVX      A,@DPTR
   \   0000B4   F9           MOV       R1,A
   \   0000B5   90....       MOV       DPTR,#_NIB + 23
   \   0000B8   E8           MOV       A,R0
   \   0000B9   F0           MOVX      @DPTR,A
   \   0000BA   A3           INC       DPTR
   \   0000BB   E9           MOV       A,R1
   \   0000BC   F0           MOVX      @DPTR,A
   2150                ZMacSetReq( ZMacCoordShortAddress, (byte*)&(_NIB.nwkCoordAddress) );
   \   0000BD                ; Setup parameters for call to function ZMacSetReq
   \   0000BD   7A..         MOV       R2,#(_NIB + 23) & 0xff
   \   0000BF   7B..         MOV       R3,#((_NIB + 23) >> 8) & 0xff
   \   0000C1   794B         MOV       R1,#0x4b
   \   0000C3   12....       LCALL     `??ZMacSetReq::?relay`; Banked call to: ZMacSetReq
   2151              }
   2152            }
   2153          
   2154            if ( ZSTACK_ROUTER_BUILD )
   2155            {
   2156              // If the device annce comes from a end device child that has moved
   2157              // to another parent, remove it from associated device list
   2158          
   2159              // If the dev annce is coming from other device's children,
   2160              // (The dev annce from its own children shall be unicast to itself,
   2161              // So check the mac destination address)
   2162              // Remove it from the associated device list. If it is not
   2163              // a child, no action will be taken in AssocRemove() anyway.
   2164              if ( inMsg->macDestAddr != NLME_GetShortAddr() )
   2165              {
   2166                associated_devices_t *dev_ptr;
   2167          
   2168                // If it's an end device child
   2169                dev_ptr = AssocGetWithExt( Annce.extAddr );
   2170                if ( dev_ptr )
   2171                {
   2172                  if ( dev_ptr->nodeRelation == CHILD_RFD ||
   2173                       dev_ptr->nodeRelation == CHILD_RFD_RX_IDLE )
   2174                  {
   2175                    AssocRemove( Annce.extAddr );
   2176                  }
   2177                }
   2178          
   2179                // Remove the address from the SrcMatch table,
   2180                // just in case the device was aged out by Child Management Table process
   2181                if ( ( pNwkNotMyChildListDelete != NULL ) &&
   2182                     ( zgChildAgingEnable == TRUE ) )
   2183                {
   2184                  pNwkNotMyChildListDelete( Annce.nwkAddr );
   2185                }
   2186              }
   2187            }
   2188          
   2189            // Assume that the device has moved, remove existing routing entries
   2190            RTG_RemoveRtgEntry( Annce.nwkAddr, 0 );
   \                     ??ZDO_ProcessDeviceAnnce_4:
   \   0000C6                ; Setup parameters for call to function RTG_RemoveRtgEntry
   \   0000C6   7900         MOV       R1,#0x0
   \   0000C8   85..82       MOV       DPL,?XSP + 0
   \   0000CB   85..83       MOV       DPH,?XSP + 1
   \   0000CE   E0           MOVX      A,@DPTR
   \   0000CF   FA           MOV       R2,A
   \   0000D0   A3           INC       DPTR
   \   0000D1   E0           MOVX      A,@DPTR
   \   0000D2   FB           MOV       R3,A
   \   0000D3   12....       LCALL     `??RTG_RemoveRtgEntry::?relay`; Banked call to: RTG_RemoveRtgEntry
   2191          
   2192            // Remove entry from neighborTable
   2193            nwkNeighborRemove( Annce.nwkAddr, _NIB.nwkPanId );
   \   0000D6                ; Setup parameters for call to function nwkNeighborRemove
   \   0000D6   90....       MOV       DPTR,#_NIB + 33
   \   0000D9   E0           MOVX      A,@DPTR
   \   0000DA   FC           MOV       R4,A
   \   0000DB   A3           INC       DPTR
   \   0000DC   E0           MOVX      A,@DPTR
   \   0000DD   FD           MOV       R5,A
   \   0000DE   85..82       MOV       DPL,?XSP + 0
   \   0000E1   85..83       MOV       DPH,?XSP + 1
   \   0000E4   E0           MOVX      A,@DPTR
   \   0000E5   FA           MOV       R2,A
   \   0000E6   A3           INC       DPTR
   \   0000E7   E0           MOVX      A,@DPTR
   \   0000E8   FB           MOV       R3,A
   \   0000E9   12....       LCALL     `??nwkNeighborRemove::?relay`; Banked call to: nwkNeighborRemove
   2194          
   2195          #endif // ZIGBEEPRO
   2196          
   2197            // Fill in the extended address in address manager if we don't have it already.
   2198            addrEntry.user = ADDRMGR_USER_DEFAULT;
   \   0000EC   740B         MOV       A,#0xb
   \   0000EE   12....       LCALL     ?XSTACK_DISP0_8
   \   0000F1   E4           CLR       A
   \   0000F2   F0           MOVX      @DPTR,A
   2199            addrEntry.nwkAddr = Annce.nwkAddr;
   \   0000F3   85..82       MOV       DPL,?XSP + 0
   \   0000F6   85..83       MOV       DPH,?XSP + 1
   \   0000F9   E0           MOVX      A,@DPTR
   \   0000FA   F8           MOV       R0,A
   \   0000FB   A3           INC       DPTR
   \   0000FC   E0           MOVX      A,@DPTR
   \   0000FD   F9           MOV       R1,A
   \   0000FE   740C         MOV       A,#0xc
   \   000100   12....       LCALL     ?XSTACK_DISP0_8
   \   000103   E8           MOV       A,R0
   \   000104   F0           MOVX      @DPTR,A
   \   000105   A3           INC       DPTR
   \   000106   E9           MOV       A,R1
   \   000107   F0           MOVX      @DPTR,A
   2200            if ( AddrMgrEntryLookupNwk( &addrEntry ) )
   \   000108                ; Setup parameters for call to function AddrMgrEntryLookupNwk
   \   000108   740B         MOV       A,#0xb
   \   00010A   12....       LCALL     ?XSTACK_DISP101_8
   \   00010D   12....       LCALL     `??AddrMgrEntryLookupNwk::?relay`; Banked call to: AddrMgrEntryLookupNwk
   \   000110   E9           MOV       A,R1
   \   000111   603F         JZ        ??ZDO_ProcessDeviceAnnce_6
   2201            {
   2202              osal_memset( parentExt, 0, Z_EXTADDR_LEN );
   \   000113                ; Setup parameters for call to function osal_memset
   \   000113   7C08         MOV       R4,#0x8
   \   000115   7D00         MOV       R5,#0x0
   \   000117   7900         MOV       R1,#0x0
   \   000119   7418         MOV       A,#0x18
   \   00011B   12....       LCALL     ?XSTACK_DISP101_8
   \   00011E   12....       LCALL     `??osal_memset::?relay`; Banked call to: osal_memset
   2203              if ( osal_ExtAddrEqual( parentExt, addrEntry.extAddr ) )
   \   000121                ; Setup parameters for call to function sAddrExtCmp
   \   000121   740E         MOV       A,#0xe
   \   000123   12....       LCALL     ?XSTACK_DISP0_8
   \   000126   AC82         MOV       R4,DPL
   \   000128   AD83         MOV       R5,DPH
   \   00012A   7418         MOV       A,#0x18
   \   00012C   12....       LCALL     ?XSTACK_DISP101_8
   \   00012F   12....       LCALL     `??sAddrExtCmp::?relay`; Banked call to: sAddrExtCmp
   \   000132   E9           MOV       A,R1
   \   000133   601D         JZ        ??ZDO_ProcessDeviceAnnce_6
   2204              {
   2205                AddrMgrExtAddrSet( addrEntry.extAddr, Annce.extAddr );
   \   000135                ; Setup parameters for call to function AddrMgrExtAddrSet
   \   000135   7402         MOV       A,#0x2
   \   000137   12....       LCALL     ?XSTACK_DISP0_8
   \   00013A   AC82         MOV       R4,DPL
   \   00013C   AD83         MOV       R5,DPH
   \   00013E   740E         MOV       A,#0xe
   \   000140   12....       LCALL     ?XSTACK_DISP0_8
   \   000143   AA82         MOV       R2,DPL
   \   000145   AB83         MOV       R3,DPH
   \   000147   12....       LCALL     `??AddrMgrExtAddrSet::?relay`; Banked call to: AddrMgrExtAddrSet
   2206                AddrMgrEntryUpdate( &addrEntry );
   \   00014A                ; Setup parameters for call to function AddrMgrEntryUpdate
   \   00014A   740B         MOV       A,#0xb
   \   00014C   12....       LCALL     ?XSTACK_DISP101_8
   \   00014F   12....       LCALL     `??AddrMgrEntryUpdate::?relay`; Banked call to: AddrMgrEntryUpdate
   2207              }
   2208            }
   2209          
   2210            // Update the short address in address manager if it's been changed
   2211            AddrMgrExtAddrSet( addrEntry.extAddr, Annce.extAddr );
   \                     ??ZDO_ProcessDeviceAnnce_6:
   \   000152                ; Setup parameters for call to function AddrMgrExtAddrSet
   \   000152   7402         MOV       A,#0x2
   \   000154   12....       LCALL     ?XSTACK_DISP0_8
   \   000157   AC82         MOV       R4,DPL
   \   000159   AD83         MOV       R5,DPH
   \   00015B   740E         MOV       A,#0xe
   \   00015D   12....       LCALL     ?XSTACK_DISP0_8
   \   000160   AA82         MOV       R2,DPL
   \   000162   AB83         MOV       R3,DPH
   \   000164   12....       LCALL     `??AddrMgrExtAddrSet::?relay`; Banked call to: AddrMgrExtAddrSet
   2212            if ( AddrMgrEntryLookupExt( &addrEntry ) )
   \   000167                ; Setup parameters for call to function AddrMgrEntryLookupExt
   \   000167   740B         MOV       A,#0xb
   \   000169   12....       LCALL     ?XSTACK_DISP101_8
   \   00016C   12....       LCALL     `??AddrMgrEntryLookupExt::?relay`; Banked call to: AddrMgrEntryLookupExt
   \   00016F   E9           MOV       A,R1
   \   000170   6036         JZ        ??ZDO_ProcessDeviceAnnce_1
   2213            {
   2214              if ( addrEntry.nwkAddr != Annce.nwkAddr )
   \   000172   740C         MOV       A,#0xc
   \   000174   12....       LCALL     ?XSTACK_DISP0_8
   \   000177   E0           MOVX      A,@DPTR
   \   000178   F8           MOV       R0,A
   \   000179   A3           INC       DPTR
   \   00017A   E0           MOVX      A,@DPTR
   \   00017B   F9           MOV       R1,A
   \   00017C   85..82       MOV       DPL,?XSP + 0
   \   00017F   85..83       MOV       DPH,?XSP + 1
   \   000182   E0           MOVX      A,@DPTR
   \   000183   68           XRL       A,R0
   \   000184   7003         JNZ       ??ZDO_ProcessDeviceAnnce_7
   \   000186   A3           INC       DPTR
   \   000187   E0           MOVX      A,@DPTR
   \   000188   69           XRL       A,R1
   \                     ??ZDO_ProcessDeviceAnnce_7:
   \   000189   601D         JZ        ??ZDO_ProcessDeviceAnnce_1
   2215              {
   2216                addrEntry.nwkAddr = Annce.nwkAddr;
   \   00018B   85..82       MOV       DPL,?XSP + 0
   \   00018E   85..83       MOV       DPH,?XSP + 1
   \   000191   E0           MOVX      A,@DPTR
   \   000192   F8           MOV       R0,A
   \   000193   A3           INC       DPTR
   \   000194   E0           MOVX      A,@DPTR
   \   000195   F9           MOV       R1,A
   \   000196   740C         MOV       A,#0xc
   \   000198   12....       LCALL     ?XSTACK_DISP0_8
   \   00019B   E8           MOV       A,R0
   \   00019C   F0           MOVX      @DPTR,A
   \   00019D   A3           INC       DPTR
   \   00019E   E9           MOV       A,R1
   \   00019F   F0           MOVX      @DPTR,A
   2217                AddrMgrEntryUpdate( &addrEntry );
   \   0001A0                ; Setup parameters for call to function AddrMgrEntryUpdate
   \   0001A0   740B         MOV       A,#0xb
   \   0001A2   12....       LCALL     ?XSTACK_DISP101_8
   \   0001A5   12....       LCALL     `??AddrMgrEntryUpdate::?relay`; Banked call to: AddrMgrEntryUpdate
   2218              }
   2219            }
   2220          
   2221          #if !defined (DISABLE_GREENPOWER_BASIC_PROXY) && (ZG_BUILD_RTR_TYPE)
   2222            if(ZG_DEVICE_RTR_TYPE)
   2223            {
   2224              uint32 timeout;
   2225              uint8 invalidAddr;
   2226              uint8 sameAnnce;
   2227              
   2228              timeout = osal_get_timeoutEx( gp_TaskID, GP_PROXY_ALIAS_CONFLICT_TIMEOUT );
   2229              invalidAddr = osal_memcmp( Annce.extAddr, invalidIEEE, Z_EXTADDR_LEN );
   2230              sameAnnce = osal_memcmp( &Annce, &GP_aliasConflictAnnce, sizeof( ZDO_DeviceAnnce_t ) );
   2231                  
   2232              // Check GP proxy table to update the entry if necesary
   2233              if( timeout && ( invalidAddr && sameAnnce ) )
   2234              {
   2235                osal_stop_timerEx( gp_TaskID, GP_PROXY_ALIAS_CONFLICT_TIMEOUT );
   2236              }
   2237              else if(GP_CheckAnnouncedDeviceGCB != NULL)
   2238              {
   2239                GP_CheckAnnouncedDeviceGCB( Annce.extAddr, Annce.nwkAddr );       
   2240              }
   2241            }
   2242          #endif
   2243          }
   \                     ??ZDO_ProcessDeviceAnnce_1:
   \   0001A8   7420         MOV       A,#0x20
   \   0001AA   12....       LCALL     ?DEALLOC_XSTACK8
   \   0001AD   7F02         MOV       R7,#0x2
   \   0001AF   02....       LJMP      ?BANKED_LEAVE_XDATA
   2244          
   2245          /*********************************************************************
   2246           * @fn          ZDO_ProcessParentAnnce
   2247           *
   2248           * @brief       This function processes a Parent annouce message.
   2249           *
   2250           * @param       inMsg - incoming message
   2251           *
   2252           * @return      none
   2253           */

   \                                 In  segment BANKED_CODE, align 1, keep-with-next
   2254          void ZDO_ProcessParentAnnce( zdoIncomingMsg_t *inMsg )
   \                     ZDO_ProcessParentAnnce:
   2255          {
   \   000000                REQUIRE ?V0
   \   000000                REQUIRE ?V1
   \   000000                REQUIRE ?V2
   \   000000                REQUIRE ?V3
   \   000000                REQUIRE ?V4
   \   000000                REQUIRE ?V5
   \   000000                REQUIRE ?V6
   \   000000                REQUIRE ?V7
   \   000000                REQUIRE ?V8
   \   000000                REQUIRE ?V9
   \   000000                REQUIRE ?V10
   \   000000                REQUIRE ?V11
   \   000000                REQUIRE ?V12
   \   000000                REQUIRE ?V13
   \   000000   74EA         MOV       A,#-0x16
   \   000002   12....       LCALL     ?BANKED_ENTER_XDATA
   \   000005                ; Saved register size: 22
   \   000005                ; Auto size: 9
   \   000005   74F7         MOV       A,#-0x9
   \   000007   12....       LCALL     ?ALLOC_XSTACK8
   \   00000A   8A..         MOV       ?V8,R2
   \   00000C   8B..         MOV       ?V9,R3
   2256            ZDO_ParentAnnce_t *parentAnnce;
   2257            uint8 x;
   2258            uint8 childCount = 0;
   \   00000E   75..00       MOV       ?V7,#0x0
   2259          
   2260            ZDO_ChildInfoList_t *listHead = NULL;
   \   000011   75..00       MOV       ?V0,#0x0
   \   000014   75..00       MOV       ?V1,#0x0
   2261            ZDO_ChildInfoList_t *listTail;
   2262            ZDO_ChildInfoList_t *newNode;
   2263          
   2264            // Parse incoming message, memory is allocated by the parse function,
   2265            // it should be free after processing the message
   2266            parentAnnce = ZDO_ParseParentAnnce( inMsg );
   \   000017                ; Setup parameters for call to function ZDO_ParseParentAnnce
   \   000017   12....       LCALL     `??ZDO_ParseParentAnnce::?relay`; Banked call to: ZDO_ParseParentAnnce
   \   00001A   8A..         MOV       ?V4,R2
   \   00001C   8B..         MOV       ?V5,R3
   2267          
   2268            if ( parentAnnce != NULL )
   \   00001E   EA           MOV       A,R2
   \   00001F   4B           ORL       A,R3
   \   000020   7003         JNZ       $+5
   \   000022   02....       LJMP      ??ZDO_ProcessParentAnnce_0 & 0xFFFF
   2269            {
   2270              for ( x = 0; x < parentAnnce->numOfChildren; x++ )
   \   000025   75..00       MOV       ?V6,#0x0
   \   000028   801A         SJMP      ??ZDO_ProcessParentAnnce_1
   2271              {
   2272                associated_devices_t *dev_ptr;
   2273          
   2274                // If it's an End Device child
   2275                dev_ptr = AssocGetWithExt( parentAnnce->childInfo[x].extAddr );
   2276          
   2277                if ( dev_ptr )
   2278                {
   2279                  if ( dev_ptr->nodeRelation == CHILD_RFD ||
   2280                       dev_ptr->nodeRelation == CHILD_RFD_RX_IDLE )
   2281                  {
   2282                    if ( dev_ptr->keepaliveRcv == TRUE )
   2283                    {
   2284                      // Add one element to the list
   2285                      newNode = (ZDO_ChildInfoList_t *)osal_mem_alloc( sizeof(ZDO_ChildInfoList_t) );
   2286          
   2287                      osal_cpyExtAddr( newNode->child.extAddr, parentAnnce->childInfo[x].extAddr );
   2288          
   2289                      newNode->next = NULL;
   2290          
   2291                      if ( listHead == NULL )
   \                     ??ZDO_ProcessParentAnnce_2:
   \   00002A   8E82         MOV       DPL,R6
   \   00002C   8F83         MOV       DPH,R7
   \   00002E   A3           INC       DPTR
   \   00002F   A3           INC       DPTR
   \   000030   A3           INC       DPTR
   \   000031   A3           INC       DPTR
   \   000032   A3           INC       DPTR
   \   000033   A3           INC       DPTR
   \   000034   A3           INC       DPTR
   \   000035   A3           INC       DPTR
   \   000036   E5..         MOV       A,?V2
   \   000038   F0           MOVX      @DPTR,A
   \   000039   A3           INC       DPTR
   \   00003A   E5..         MOV       A,?V3
   \   00003C   F0           MOVX      @DPTR,A
   2292                      {
   2293                        // Initialize the head of the list
   2294                        listHead = listTail = newNode;
   2295                      }
   2296                      else
   2297                      {
   2298                        // Add new element to the end
   2299                        listTail->next = newNode;
   2300          
   2301                        listTail = listTail->next;
   \   00003D   AE..         MOV       R6,?V12
   \   00003F   FF           MOV       R7,A
   2302                      }
   2303          
   2304                      childCount++;
   \                     ??ZDO_ProcessParentAnnce_3:
   \   000040   05..         INC       ?V7
   \                     ??ZDO_ProcessParentAnnce_4:
   \   000042   05..         INC       ?V6
   \                     ??ZDO_ProcessParentAnnce_1:
   \   000044   85..82       MOV       DPL,?V4
   \   000047   85..83       MOV       DPH,?V5
   \   00004A   E0           MOVX      A,@DPTR
   \   00004B   F8           MOV       R0,A
   \   00004C   E5..         MOV       A,?V6
   \   00004E   C3           CLR       C
   \   00004F   98           SUBB      A,R0
   \   000050   4003         JC        $+5
   \   000052   02....       LJMP      ??ZDO_ProcessParentAnnce_5 & 0xFFFF
   \   000055   E5..         MOV       A,?V6
   \   000057   F5..         MOV       ?V2,A
   \   000059   75..00       MOV       ?V3,#0x0
   \   00005C   7403         MOV       A,#0x3
   \   00005E   78..         MOV       R0,#?V2
   \   000060   12....       LCALL     ?S_SHL
   \   000063   E5..         MOV       A,?V4
   \   000065   25..         ADD       A,?V2
   \   000067   F582         MOV       DPL,A
   \   000069   E5..         MOV       A,?V5
   \   00006B   35..         ADDC      A,?V3
   \   00006D   F583         MOV       DPH,A
   \   00006F   A3           INC       DPTR
   \   000070   8582..       MOV       ?V10,DPL
   \   000073   8583..       MOV       ?V11,DPH
   \   000076                ; Setup parameters for call to function AssocGetWithExt
   \   000076   AA..         MOV       R2,?V10
   \   000078   AB..         MOV       R3,?V11
   \   00007A   12....       LCALL     `??AssocGetWithExt::?relay`; Banked call to: AssocGetWithExt
   \   00007D   8A..         MOV       ?V2,R2
   \   00007F   8B..         MOV       ?V3,R3
   \   000081   A9..         MOV       R1,?V3
   \   000083   EA           MOV       A,R2
   \   000084   49           ORL       A,R1
   \   000085   60BB         JZ        ??ZDO_ProcessParentAnnce_4
   \   000087   8A82         MOV       DPL,R2
   \   000089   8B83         MOV       DPH,R3
   \   00008B   A3           INC       DPTR
   \   00008C   A3           INC       DPTR
   \   00008D   A3           INC       DPTR
   \   00008E   A3           INC       DPTR
   \   00008F   E0           MOVX      A,@DPTR
   \   000090   FA           MOV       R2,A
   \   000091   7401         MOV       A,#0x1
   \   000093   6A           XRL       A,R2
   \   000094   6005         JZ        ??ZDO_ProcessParentAnnce_6
   \   000096   7402         MOV       A,#0x2
   \   000098   6A           XRL       A,R2
   \   000099   70A7         JNZ       ??ZDO_ProcessParentAnnce_4
   \                     ??ZDO_ProcessParentAnnce_6:
   \   00009B   E5..         MOV       A,?V2
   \   00009D   241B         ADD       A,#0x1b
   \   00009F   F582         MOV       DPL,A
   \   0000A1   E4           CLR       A
   \   0000A2   39           ADDC      A,R1
   \   0000A3   F583         MOV       DPH,A
   \   0000A5   E0           MOVX      A,@DPTR
   \   0000A6   6401         XRL       A,#0x1
   \   0000A8   7098         JNZ       ??ZDO_ProcessParentAnnce_4
   \   0000AA                ; Setup parameters for call to function osal_mem_alloc
   \   0000AA   7A0A         MOV       R2,#0xa
   \   0000AC   7B00         MOV       R3,#0x0
   \   0000AE   12....       LCALL     `??osal_mem_alloc::?relay`; Banked call to: osal_mem_alloc
   \   0000B1   8A..         MOV       ?V2,R2
   \   0000B3   8B..         MOV       ?V3,R3
   \   0000B5   8A..         MOV       ?V12,R2
   \   0000B7                ; Setup parameters for call to function sAddrExtCpy
   \   0000B7   AC..         MOV       R4,?V10
   \   0000B9   AD..         MOV       R5,?V11
   \   0000BB   12....       LCALL     `??sAddrExtCpy::?relay`; Banked call to: sAddrExtCpy
   \   0000BE   85..82       MOV       DPL,?V2
   \   0000C1   85..83       MOV       DPH,?V3
   \   0000C4   A3           INC       DPTR
   \   0000C5   A3           INC       DPTR
   \   0000C6   A3           INC       DPTR
   \   0000C7   A3           INC       DPTR
   \   0000C8   A3           INC       DPTR
   \   0000C9   A3           INC       DPTR
   \   0000CA   A3           INC       DPTR
   \   0000CB   A3           INC       DPTR
   \   0000CC   E4           CLR       A
   \   0000CD   F0           MOVX      @DPTR,A
   \   0000CE   A3           INC       DPTR
   \   0000CF   F0           MOVX      @DPTR,A
   \   0000D0   E5..         MOV       A,?V0
   \   0000D2   45..         ORL       A,?V1
   \   0000D4   6003         JZ        $+5
   \   0000D6   02....       LJMP      ??ZDO_ProcessParentAnnce_2 & 0xFFFF
   \   0000D9   AE..         MOV       R6,?V2
   \   0000DB   AF..         MOV       R7,?V3
   \   0000DD   8E..         MOV       ?V0,R6
   \   0000DF   8F..         MOV       ?V1,R7
   \   0000E1   02....       LJMP      ??ZDO_ProcessParentAnnce_3 & 0xFFFF
   2305                    }
   2306                  }
   2307                }
   2308              }
   2309          
   2310              // If the device has children that match some in the received list,
   2311              // it should send a unicast Parent_Annce_rsp message.
   2312              if ( childCount > 0 )
   \                     ??ZDO_ProcessParentAnnce_5:
   \   0000E4   E5..         MOV       A,?V7
   \   0000E6   7003         JNZ       $+5
   \   0000E8   02....       LJMP      ??ZDO_ProcessParentAnnce_7 & 0xFFFF
   2313              {
   2314                ZDO_ChildInfo_t *childInfo;
   2315                zAddrType_t dstAddr;
   2316          
   2317                dstAddr.addrMode = (afAddrMode_t)Addr16Bit;
   \   0000EB   7408         MOV       A,#0x8
   \   0000ED   12....       LCALL     ?XSTACK_DISP0_8
   \   0000F0   7402         MOV       A,#0x2
   \   0000F2   F0           MOVX      @DPTR,A
   2318                dstAddr.addr.shortAddr = inMsg->srcAddr.addr.shortAddr;
   \   0000F3   85..82       MOV       DPL,?V8
   \   0000F6   85..83       MOV       DPH,?V9
   \   0000F9   A3           INC       DPTR
   \   0000FA   A3           INC       DPTR
   \   0000FB   E0           MOVX      A,@DPTR
   \   0000FC   F8           MOV       R0,A
   \   0000FD   A3           INC       DPTR
   \   0000FE   E0           MOVX      A,@DPTR
   \   0000FF   F9           MOV       R1,A
   \   000100   85..82       MOV       DPL,?XSP + 0
   \   000103   85..83       MOV       DPH,?XSP + 1
   \   000106   E8           MOV       A,R0
   \   000107   F0           MOVX      @DPTR,A
   \   000108   A3           INC       DPTR
   \   000109   E9           MOV       A,R1
   \   00010A   F0           MOVX      @DPTR,A
   2319          
   2320                x = 0;
   \   00010B   75..00       MOV       ?V6,#0x0
   2321          
   2322                childInfo = (ZDO_ChildInfo_t *)osal_mem_alloc( childCount * sizeof(ZDO_ChildInfo_t) );
   \   00010E                ; Setup parameters for call to function osal_mem_alloc
   \   00010E   E5..         MOV       A,?V7
   \   000110   F5..         MOV       ?V2,A
   \   000112   75..00       MOV       ?V3,#0x0
   \   000115   7403         MOV       A,#0x3
   \   000117   78..         MOV       R0,#?V2
   \   000119   12....       LCALL     ?S_SHL
   \   00011C   AA..         MOV       R2,?V2
   \   00011E   AB..         MOV       R3,?V3
   \   000120   12....       LCALL     `??osal_mem_alloc::?relay`; Banked call to: osal_mem_alloc
   \   000123   8A..         MOV       ?V2,R2
   \   000125   8B..         MOV       ?V3,R3
   2323          
   2324                if ( childInfo != NULL )
   \   000127   EA           MOV       A,R2
   \   000128   4B           ORL       A,R3
   \   000129   7003         JNZ       $+5
   \   00012B   02....       LJMP      ??ZDO_ProcessParentAnnce_8 & 0xFFFF
   \   00012E   803F         SJMP      ??ZDO_ProcessParentAnnce_9
   2325                {
   2326                  // Copy the content of the link list into this buffer
   2327                  while ( listHead != NULL )
   2328                  {
   2329                    listTail = listHead;
   \                     ??ZDO_ProcessParentAnnce_10:
   \   000130   AE..         MOV       R6,?V0
   \   000132   AF..         MOV       R7,?V1
   2330          
   2331                    osal_cpyExtAddr( childInfo[x].extAddr,  listHead->child.extAddr );
   \   000134                ; Setup parameters for call to function sAddrExtCpy
   \   000134   AC..         MOV       R4,?V0
   \   000136   AD..         MOV       R5,?V1
   \   000138   E5..         MOV       A,?V6
   \   00013A   F5..         MOV       ?V0,A
   \   00013C   75..00       MOV       ?V1,#0x0
   \   00013F   7403         MOV       A,#0x3
   \   000141   78..         MOV       R0,#?V0
   \   000143   12....       LCALL     ?S_SHL
   \   000146   E5..         MOV       A,?V2
   \   000148   25..         ADD       A,?V0
   \   00014A   FA           MOV       R2,A
   \   00014B   E5..         MOV       A,?V3
   \   00014D   35..         ADDC      A,?V1
   \   00014F   FB           MOV       R3,A
   \   000150   12....       LCALL     `??sAddrExtCpy::?relay`; Banked call to: sAddrExtCpy
   2332          
   2333                    x++;
   \   000153   05..         INC       ?V6
   2334          
   2335                    listHead = listTail->next;
   \   000155   8E82         MOV       DPL,R6
   \   000157   8F83         MOV       DPH,R7
   \   000159   A3           INC       DPTR
   \   00015A   A3           INC       DPTR
   \   00015B   A3           INC       DPTR
   \   00015C   A3           INC       DPTR
   \   00015D   A3           INC       DPTR
   \   00015E   A3           INC       DPTR
   \   00015F   A3           INC       DPTR
   \   000160   A3           INC       DPTR
   \   000161   E0           MOVX      A,@DPTR
   \   000162   F5..         MOV       ?V0,A
   \   000164   A3           INC       DPTR
   \   000165   E0           MOVX      A,@DPTR
   \   000166   F5..         MOV       ?V1,A
   2336          
   2337                    // Free this element of the link list
   2338                    osal_mem_free( listTail );
   \   000168                ; Setup parameters for call to function osal_mem_free
   \   000168   EE           MOV       A,R6
   \   000169   FA           MOV       R2,A
   \   00016A   EF           MOV       A,R7
   \   00016B   FB           MOV       R3,A
   \   00016C   12....       LCALL     `??osal_mem_free::?relay`; Banked call to: osal_mem_free
   2339                  }
   \                     ??ZDO_ProcessParentAnnce_9:
   \   00016F   E5..         MOV       A,?V0
   \   000171   45..         ORL       A,?V1
   \   000173   70BB         JNZ       ??ZDO_ProcessParentAnnce_10
   2340          
   2341                  ZDP_ParentAnnceRsp( (inMsg->TransSeq), dstAddr, childCount,
   2342                                      ((uint8 *)childInfo), 0 );
   \   000175                ; Setup parameters for call to function ZDP_ParentAnnce
   \   000175   75..00       MOV       ?V0,#0x0
   \   000178   78..         MOV       R0,#?V0
   \   00017A   12....       LCALL     ?PUSH_XSTACK_I_ONE
   \   00017D   75..1F       MOV       ?V0,#0x1f
   \   000180   75..80       MOV       ?V1,#-0x80
   \   000183   78..         MOV       R0,#?V0
   \   000185   12....       LCALL     ?PUSH_XSTACK_I_TWO
   \   000188   78..         MOV       R0,#?V2
   \   00018A   12....       LCALL     ?PUSH_XSTACK_I_TWO
   \   00018D   A9..         MOV       R1,?V7
   \   00018F   7405         MOV       A,#0x5
   \   000191   12....       LCALL     ?XSTACK_DISP102_8
   \   000194   E5..         MOV       A,?V8
   \   000196   240F         ADD       A,#0xf
   \   000198   FA           MOV       R2,A
   \   000199   E4           CLR       A
   \   00019A   35..         ADDC      A,?V9
   \   00019C   FB           MOV       R3,A
   \   00019D   12....       LCALL     `??ZDP_ParentAnnce::?relay`; Banked call to: ZDP_ParentAnnce
   \   0001A0   7405         MOV       A,#0x5
   \   0001A2   12....       LCALL     ?DEALLOC_XSTACK8
   2343                  
   2344                  
   2345                  osal_mem_free(childInfo);
   \   0001A5                ; Setup parameters for call to function osal_mem_free
   \   0001A5   AA..         MOV       R2,?V2
   \   0001A7   AB..         MOV       R3,?V3
   \   0001A9   12....       LCALL     `??osal_mem_free::?relay`; Banked call to: osal_mem_free
   \   0001AC   8024         SJMP      ??ZDO_ProcessParentAnnce_7
   2346                }
   2347                else
   2348                {
   2349                  while(listHead != NULL)
   2350                  {
   2351                    listTail = listHead;
   \                     ??ZDO_ProcessParentAnnce_11:
   \   0001AE   AE..         MOV       R6,?V0
   \   0001B0   AF..         MOV       R7,?V1
   2352                    listHead = listTail->next;
   \   0001B2   8E82         MOV       DPL,R6
   \   0001B4   8F83         MOV       DPH,R7
   \   0001B6   A3           INC       DPTR
   \   0001B7   A3           INC       DPTR
   \   0001B8   A3           INC       DPTR
   \   0001B9   A3           INC       DPTR
   \   0001BA   A3           INC       DPTR
   \   0001BB   A3           INC       DPTR
   \   0001BC   A3           INC       DPTR
   \   0001BD   A3           INC       DPTR
   \   0001BE   E0           MOVX      A,@DPTR
   \   0001BF   F5..         MOV       ?V0,A
   \   0001C1   A3           INC       DPTR
   \   0001C2   E0           MOVX      A,@DPTR
   \   0001C3   F5..         MOV       ?V1,A
   2353          
   2354                    // Free this element of the link list
   2355                    osal_mem_free( listTail );
   \   0001C5                ; Setup parameters for call to function osal_mem_free
   \   0001C5   EE           MOV       A,R6
   \   0001C6   FA           MOV       R2,A
   \   0001C7   EF           MOV       A,R7
   \   0001C8   FB           MOV       R3,A
   \   0001C9   12....       LCALL     `??osal_mem_free::?relay`; Banked call to: osal_mem_free
   2356                  }  
   \                     ??ZDO_ProcessParentAnnce_8:
   \   0001CC   E5..         MOV       A,?V0
   \   0001CE   45..         ORL       A,?V1
   \   0001D0   70DC         JNZ       ??ZDO_ProcessParentAnnce_11
   2357                }
   2358              }
   2359              
   2360              // Free memory allocated by parsing function
   2361              osal_mem_free( parentAnnce );
   \                     ??ZDO_ProcessParentAnnce_7:
   \   0001D2                ; Setup parameters for call to function osal_mem_free
   \   0001D2   AA..         MOV       R2,?V4
   \   0001D4   AB..         MOV       R3,?V5
   \   0001D6   12....       LCALL     `??osal_mem_free::?relay`; Banked call to: osal_mem_free
   2362            }
   2363          }
   \                     ??ZDO_ProcessParentAnnce_0:
   \   0001D9   7409         MOV       A,#0x9
   \   0001DB   12....       LCALL     ?DEALLOC_XSTACK8
   \   0001DE   7F0E         MOV       R7,#0xe
   \   0001E0   02....       LJMP      ?BANKED_LEAVE_XDATA
   2364          
   2365          /*********************************************************************
   2366           * @fn          ZDO_ProcessParentAnnceRsp
   2367           *
   2368           * @brief       This function processes a Parent annouce response message.
   2369           *
   2370           * @param       inMsg - incoming message
   2371           *
   2372           * @return      none
   2373           */

   \                                 In  segment BANKED_CODE, align 1, keep-with-next
   2374          void ZDO_ProcessParentAnnceRsp( zdoIncomingMsg_t *inMsg )
   \                     ZDO_ProcessParentAnnceRsp:
   2375          {
   \   000000                REQUIRE ?V0
   \   000000                REQUIRE ?V1
   \   000000                REQUIRE ?V2
   \   000000                REQUIRE ?V3
   \   000000                REQUIRE ?V4
   \   000000                REQUIRE ?V5
   \   000000   74F2         MOV       A,#-0xe
   \   000002   12....       LCALL     ?BANKED_ENTER_XDATA
   \   000005                ; Saved register size: 14
   \   000005                ; Auto size: 0
   2376            ZDO_ParentAnnce_t *parentAnnce;
   2377            uint8 x;
   2378          
   2379            // Parse incoming message, memory is allocated by the parse function,
   2380            // it should be free after processing the message
   2381            parentAnnce = ZDO_ParseParentAnnce( inMsg );
   \   000005                ; Setup parameters for call to function ZDO_ParseParentAnnce
   \   000005   12....       LCALL     `??ZDO_ParseParentAnnce::?relay`; Banked call to: ZDO_ParseParentAnnce
   \   000008   8A..         MOV       ?V0,R2
   \   00000A   8B..         MOV       ?V1,R3
   2382          
   2383            if ( parentAnnce != NULL )
   \   00000C   EA           MOV       A,R2
   \   00000D   4B           ORL       A,R3
   \   00000E   6063         JZ        ??ZDO_ProcessParentAnnceRsp_0
   2384            {
   2385              for ( x = 0; x < parentAnnce->numOfChildren; x++ )
   \   000010   75..00       MOV       ?V2,#0x0
   \   000013   8049         SJMP      ??ZDO_ProcessParentAnnceRsp_1
   2386              {
   2387                associated_devices_t *dev_ptr;
   2388          
   2389                // If it's an End Device child
   2390                dev_ptr = AssocGetWithExt( parentAnnce->childInfo[x].extAddr );
   \                     ??ZDO_ProcessParentAnnceRsp_2:
   \   000015   E5..         MOV       A,?V2
   \   000017   F5..         MOV       ?V4,A
   \   000019   75..00       MOV       ?V5,#0x0
   \   00001C   7403         MOV       A,#0x3
   \   00001E   78..         MOV       R0,#?V4
   \   000020   12....       LCALL     ?S_SHL
   \   000023   E5..         MOV       A,?V0
   \   000025   25..         ADD       A,?V4
   \   000027   F582         MOV       DPL,A
   \   000029   E5..         MOV       A,?V1
   \   00002B   35..         ADDC      A,?V5
   \   00002D   F583         MOV       DPH,A
   \   00002F   A3           INC       DPTR
   \   000030   AE82         MOV       R6,DPL
   \   000032   AF83         MOV       R7,DPH
   \   000034                ; Setup parameters for call to function AssocGetWithExt
   \   000034   EE           MOV       A,R6
   \   000035   FA           MOV       R2,A
   \   000036   EF           MOV       A,R7
   \   000037   FB           MOV       R3,A
   \   000038   12....       LCALL     `??AssocGetWithExt::?relay`; Banked call to: AssocGetWithExt
   \   00003B   8A82         MOV       DPL,R2
   \   00003D   8B83         MOV       DPH,R3
   2391          
   2392                if ( dev_ptr )
   \   00003F   E582         MOV       A,DPL
   \   000041   4583         ORL       A,DPH
   \   000043   6017         JZ        ??ZDO_ProcessParentAnnceRsp_3
   2393                {
   2394                  if ( dev_ptr->nodeRelation == CHILD_RFD ||
   2395                       dev_ptr->nodeRelation == CHILD_RFD_RX_IDLE )
   \   000045   A3           INC       DPTR
   \   000046   A3           INC       DPTR
   \   000047   A3           INC       DPTR
   \   000048   A3           INC       DPTR
   \   000049   E0           MOVX      A,@DPTR
   \   00004A   F8           MOV       R0,A
   \   00004B   7401         MOV       A,#0x1
   \   00004D   68           XRL       A,R0
   \   00004E   6005         JZ        ??ZDO_ProcessParentAnnceRsp_4
   \   000050   7402         MOV       A,#0x2
   \   000052   68           XRL       A,R0
   \   000053   7007         JNZ       ??ZDO_ProcessParentAnnceRsp_3
   2396                  {
   2397                    AssocRemove( parentAnnce->childInfo[x].extAddr );
   \                     ??ZDO_ProcessParentAnnceRsp_4:
   \   000055                ; Setup parameters for call to function AssocRemove
   \   000055   EE           MOV       A,R6
   \   000056   FA           MOV       R2,A
   \   000057   EF           MOV       A,R7
   \   000058   FB           MOV       R3,A
   \   000059   12....       LCALL     `??AssocRemove::?relay`; Banked call to: AssocRemove
   2398                  }
   2399                }
   2400              }
   \                     ??ZDO_ProcessParentAnnceRsp_3:
   \   00005C   05..         INC       ?V2
   \                     ??ZDO_ProcessParentAnnceRsp_1:
   \   00005E   85..82       MOV       DPL,?V0
   \   000061   85..83       MOV       DPH,?V1
   \   000064   E0           MOVX      A,@DPTR
   \   000065   F8           MOV       R0,A
   \   000066   E5..         MOV       A,?V2
   \   000068   C3           CLR       C
   \   000069   98           SUBB      A,R0
   \   00006A   40A9         JC        ??ZDO_ProcessParentAnnceRsp_2
   2401          
   2402              // Free memory allocated by parsing function
   2403              osal_mem_free( parentAnnce );
   \   00006C                ; Setup parameters for call to function osal_mem_free
   \   00006C   AA..         MOV       R2,?V0
   \   00006E   AB..         MOV       R3,?V1
   \   000070   12....       LCALL     `??osal_mem_free::?relay`; Banked call to: osal_mem_free
   2404            }
   2405          }
   \                     ??ZDO_ProcessParentAnnceRsp_0:
   \   000073   7F06         MOV       R7,#0x6
   \   000075   02....       LJMP      ?BANKED_LEAVE_XDATA
   2406          
   2407          /*********************************************************************
   2408           * @fn          ZDO_BuildSimpleDescBuf
   2409           *
   2410           * @brief       Build a byte sequence representation of a Simple Descriptor.
   2411           *
   2412           * @param       buf  - pointer to a byte array big enough for data.
   2413           * @param       desc - SimpleDescriptionFormat_t *
   2414           *
   2415           * @return      none
   2416           */

   \                                 In  segment BANKED_CODE, align 1, keep-with-next
   2417          void ZDO_BuildSimpleDescBuf( uint8 *buf, SimpleDescriptionFormat_t *desc )
   \                     ZDO_BuildSimpleDescBuf:
   2418          {
   \   000000                REQUIRE ?V0
   \   000000                REQUIRE ?V1
   \   000000                REQUIRE ?V2
   \   000000                REQUIRE ?V3
   \   000000                REQUIRE ?V4
   \   000000                REQUIRE ?V5
   \   000000   74F2         MOV       A,#-0xe
   \   000002   12....       LCALL     ?BANKED_ENTER_XDATA
   \   000005                ; Saved register size: 14
   \   000005                ; Auto size: 0
   2419            byte cnt;
   2420            uint16 *ptr;
   2421          
   2422            *buf++ = desc->EndPoint;
   \   000005   8C82         MOV       DPL,R4
   \   000007   8D83         MOV       DPH,R5
   \   000009   E0           MOVX      A,@DPTR
   \   00000A   8A82         MOV       DPL,R2
   \   00000C   8B83         MOV       DPH,R3
   \   00000E   F0           MOVX      @DPTR,A
   2423            *buf++ = HI_UINT16( desc->AppProfId );
   \   00000F   8C82         MOV       DPL,R4
   \   000011   8D83         MOV       DPH,R5
   \   000013   A3           INC       DPTR
   \   000014   A882         MOV       R0,DPL
   \   000016   A983         MOV       R1,DPH
   \   000018   A3           INC       DPTR
   \   000019   E0           MOVX      A,@DPTR
   \   00001A   8A82         MOV       DPL,R2
   \   00001C   8B83         MOV       DPH,R3
   \   00001E   A3           INC       DPTR
   \   00001F   F0           MOVX      @DPTR,A
   2424            *buf++ = LO_UINT16( desc->AppProfId );
   \   000020   8882         MOV       DPL,R0
   \   000022   8983         MOV       DPH,R1
   \   000024   E0           MOVX      A,@DPTR
   \   000025   8A82         MOV       DPL,R2
   \   000027   8B83         MOV       DPH,R3
   \   000029   A3           INC       DPTR
   \   00002A   A3           INC       DPTR
   \   00002B   F0           MOVX      @DPTR,A
   2425            *buf++ = HI_UINT16( desc->AppDeviceId );
   \   00002C   EC           MOV       A,R4
   \   00002D   2403         ADD       A,#0x3
   \   00002F   F8           MOV       R0,A
   \   000030   E4           CLR       A
   \   000031   3D           ADDC      A,R5
   \   000032   F9           MOV       R1,A
   \   000033   8882         MOV       DPL,R0
   \   000035   F583         MOV       DPH,A
   \   000037   A3           INC       DPTR
   \   000038   E0           MOVX      A,@DPTR
   \   000039   8A82         MOV       DPL,R2
   \   00003B   8B83         MOV       DPH,R3
   \   00003D   A3           INC       DPTR
   \   00003E   A3           INC       DPTR
   \   00003F   A3           INC       DPTR
   \   000040   F0           MOVX      @DPTR,A
   2426            *buf++ = LO_UINT16( desc->AppDeviceId );
   \   000041   8882         MOV       DPL,R0
   \   000043   8983         MOV       DPH,R1
   \   000045   E0           MOVX      A,@DPTR
   \   000046   8A82         MOV       DPL,R2
   \   000048   8B83         MOV       DPH,R3
   \   00004A   A3           INC       DPTR
   \   00004B   A3           INC       DPTR
   \   00004C   A3           INC       DPTR
   \   00004D   A3           INC       DPTR
   \   00004E   F0           MOVX      @DPTR,A
   2427          
   2428            *buf++ = (byte)(desc->AppDevVer << 4);
   \   00004F   8C82         MOV       DPL,R4
   \   000051   8D83         MOV       DPH,R5
   \   000053   A3           INC       DPTR
   \   000054   A3           INC       DPTR
   \   000055   A3           INC       DPTR
   \   000056   A3           INC       DPTR
   \   000057   A3           INC       DPTR
   \   000058   E0           MOVX      A,@DPTR
   \   000059   C4           SWAP      A
   \   00005A   54F0         ANL       A,#0xf0
   \   00005C   8A82         MOV       DPL,R2
   \   00005E   8B83         MOV       DPH,R3
   \   000060   A3           INC       DPTR
   \   000061   A3           INC       DPTR
   \   000062   A3           INC       DPTR
   \   000063   A3           INC       DPTR
   \   000064   A3           INC       DPTR
   \   000065   F0           MOVX      @DPTR,A
   2429          
   2430            *buf++ = desc->AppNumInClusters;
   \   000066   EC           MOV       A,R4
   \   000067   2406         ADD       A,#0x6
   \   000069   F8           MOV       R0,A
   \   00006A   E4           CLR       A
   \   00006B   3D           ADDC      A,R5
   \   00006C   88..         MOV       ?V2,R0
   \   00006E   F5..         MOV       ?V3,A
   \   000070   8882         MOV       DPL,R0
   \   000072   F583         MOV       DPH,A
   \   000074   E0           MOVX      A,@DPTR
   \   000075   8A82         MOV       DPL,R2
   \   000077   8B83         MOV       DPH,R3
   \   000079   A3           INC       DPTR
   \   00007A   A3           INC       DPTR
   \   00007B   A3           INC       DPTR
   \   00007C   A3           INC       DPTR
   \   00007D   A3           INC       DPTR
   \   00007E   A3           INC       DPTR
   \   00007F   F0           MOVX      @DPTR,A
   \   000080   EA           MOV       A,R2
   \   000081   2407         ADD       A,#0x7
   \   000083   FA           MOV       R2,A
   \   000084   5001         JNC       ??ZDO_BuildSimpleDescBuf_0
   \   000086   0B           INC       R3
   2431            ptr = desc->pAppInClusterList;
   \                     ??ZDO_BuildSimpleDescBuf_0:
   \   000087   8C82         MOV       DPL,R4
   \   000089   8D83         MOV       DPH,R5
   \   00008B   A3           INC       DPTR
   \   00008C   A3           INC       DPTR
   \   00008D   A3           INC       DPTR
   \   00008E   A3           INC       DPTR
   \   00008F   A3           INC       DPTR
   \   000090   A3           INC       DPTR
   \   000091   A3           INC       DPTR
   \   000092   E0           MOVX      A,@DPTR
   \   000093   FE           MOV       R6,A
   \   000094   A3           INC       DPTR
   \   000095   E0           MOVX      A,@DPTR
   \   000096   FF           MOV       R7,A
   2432            for ( cnt = 0; cnt < desc->AppNumInClusters; ptr++, cnt++ )
   \   000097   75..00       MOV       ?V0,#0x0
   \   00009A   8025         SJMP      ??ZDO_BuildSimpleDescBuf_1
   2433            {
   2434              *buf++ = HI_UINT16( *ptr );
   \                     ??ZDO_BuildSimpleDescBuf_2:
   \   00009C   8E82         MOV       DPL,R6
   \   00009E   8F83         MOV       DPH,R7
   \   0000A0   A3           INC       DPTR
   \   0000A1   E0           MOVX      A,@DPTR
   \   0000A2   8A82         MOV       DPL,R2
   \   0000A4   8B83         MOV       DPH,R3
   \   0000A6   F0           MOVX      @DPTR,A
   2435              *buf++ = LO_UINT16( *ptr );
   \   0000A7   8E82         MOV       DPL,R6
   \   0000A9   8F83         MOV       DPH,R7
   \   0000AB   E0           MOVX      A,@DPTR
   \   0000AC   8882         MOV       DPL,R0
   \   0000AE   8983         MOV       DPH,R1
   \   0000B0   F0           MOVX      @DPTR,A
   \   0000B1   EA           MOV       A,R2
   \   0000B2   2402         ADD       A,#0x2
   \   0000B4   FA           MOV       R2,A
   \   0000B5   5001         JNC       ??ZDO_BuildSimpleDescBuf_3
   \   0000B7   0B           INC       R3
   2436            }
   \                     ??ZDO_BuildSimpleDescBuf_3:
   \   0000B8   EE           MOV       A,R6
   \   0000B9   2402         ADD       A,#0x2
   \   0000BB   FE           MOV       R6,A
   \   0000BC   5001         JNC       ??ZDO_BuildSimpleDescBuf_4
   \   0000BE   0F           INC       R7
   \                     ??ZDO_BuildSimpleDescBuf_4:
   \   0000BF   05..         INC       ?V0
   \                     ??ZDO_BuildSimpleDescBuf_1:
   \   0000C1   8A82         MOV       DPL,R2
   \   0000C3   8B83         MOV       DPH,R3
   \   0000C5   A3           INC       DPTR
   \   0000C6   A882         MOV       R0,DPL
   \   0000C8   A983         MOV       R1,DPH
   \   0000CA   85..82       MOV       DPL,?V2
   \   0000CD   85..83       MOV       DPH,?V3
   \   0000D0   E0           MOVX      A,@DPTR
   \   0000D1   F5..         MOV       ?V1,A
   \   0000D3   E5..         MOV       A,?V0
   \   0000D5   C3           CLR       C
   \   0000D6   95..         SUBB      A,?V1
   \   0000D8   40C2         JC        ??ZDO_BuildSimpleDescBuf_2
   2437          
   2438            *buf++ = desc->AppNumOutClusters;
   \   0000DA   EC           MOV       A,R4
   \   0000DB   2409         ADD       A,#0x9
   \   0000DD   FE           MOV       R6,A
   \   0000DE   E4           CLR       A
   \   0000DF   3D           ADDC      A,R5
   \   0000E0   8E..         MOV       ?V2,R6
   \   0000E2   F5..         MOV       ?V3,A
   \   0000E4   8E82         MOV       DPL,R6
   \   0000E6   F583         MOV       DPH,A
   \   0000E8   E0           MOVX      A,@DPTR
   \   0000E9   8A82         MOV       DPL,R2
   \   0000EB   8B83         MOV       DPH,R3
   \   0000ED   F0           MOVX      @DPTR,A
   \   0000EE   E8           MOV       A,R0
   \   0000EF   FA           MOV       R2,A
   \   0000F0   E9           MOV       A,R1
   \   0000F1   FB           MOV       R3,A
   2439            ptr = desc->pAppOutClusterList;
   \   0000F2   8C82         MOV       DPL,R4
   \   0000F4   8D83         MOV       DPH,R5
   \   0000F6   A3           INC       DPTR
   \   0000F7   A3           INC       DPTR
   \   0000F8   A3           INC       DPTR
   \   0000F9   A3           INC       DPTR
   \   0000FA   A3           INC       DPTR
   \   0000FB   A3           INC       DPTR
   \   0000FC   A3           INC       DPTR
   \   0000FD   A3           INC       DPTR
   \   0000FE   A3           INC       DPTR
   \   0000FF   A3           INC       DPTR
   \   000100   E0           MOVX      A,@DPTR
   \   000101   FE           MOV       R6,A
   \   000102   A3           INC       DPTR
   \   000103   E0           MOVX      A,@DPTR
   \   000104   FF           MOV       R7,A
   2440            for ( cnt = 0; cnt < desc->AppNumOutClusters; ptr++, cnt++ )
   \   000105   75..00       MOV       ?V0,#0x0
   \   000108   8026         SJMP      ??ZDO_BuildSimpleDescBuf_5
   2441            {
   2442              *buf++ = HI_UINT16( *ptr );
   \                     ??ZDO_BuildSimpleDescBuf_6:
   \   00010A   8E82         MOV       DPL,R6
   \   00010C   8F83         MOV       DPH,R7
   \   00010E   A3           INC       DPTR
   \   00010F   E0           MOVX      A,@DPTR
   \   000110   8A82         MOV       DPL,R2
   \   000112   8B83         MOV       DPH,R3
   \   000114   F0           MOVX      @DPTR,A
   2443              *buf++ = LO_UINT16( *ptr );
   \   000115   8E82         MOV       DPL,R6
   \   000117   8F83         MOV       DPH,R7
   \   000119   E0           MOVX      A,@DPTR
   \   00011A   8A82         MOV       DPL,R2
   \   00011C   8B83         MOV       DPH,R3
   \   00011E   A3           INC       DPTR
   \   00011F   F0           MOVX      @DPTR,A
   \   000120   EA           MOV       A,R2
   \   000121   2402         ADD       A,#0x2
   \   000123   FA           MOV       R2,A
   \   000124   5001         JNC       ??ZDO_BuildSimpleDescBuf_7
   \   000126   0B           INC       R3
   2444            }
   \                     ??ZDO_BuildSimpleDescBuf_7:
   \   000127   EE           MOV       A,R6
   \   000128   2402         ADD       A,#0x2
   \   00012A   FE           MOV       R6,A
   \   00012B   5001         JNC       ??ZDO_BuildSimpleDescBuf_8
   \   00012D   0F           INC       R7
   \                     ??ZDO_BuildSimpleDescBuf_8:
   \   00012E   05..         INC       ?V0
   \                     ??ZDO_BuildSimpleDescBuf_5:
   \   000130   85..82       MOV       DPL,?V2
   \   000133   85..83       MOV       DPH,?V3
   \   000136   E0           MOVX      A,@DPTR
   \   000137   F8           MOV       R0,A
   \   000138   E5..         MOV       A,?V0
   \   00013A   C3           CLR       C
   \   00013B   98           SUBB      A,R0
   \   00013C   40CC         JC        ??ZDO_BuildSimpleDescBuf_6
   2445          }
   \   00013E   7F06         MOV       R7,#0x6
   \   000140   02....       LJMP      ?BANKED_LEAVE_XDATA
   2446          
   2447          #if ( ZG_BUILD_COORDINATOR_TYPE )
   2448          #ifdef ZDO_ENDDEVICEBIND_RESPONSE
   2449          /*********************************************************************
   2450           * @fn      ZDO_MatchEndDeviceBind()
   2451           *
   2452           * @brief
   2453           *
   2454           *   Called to match end device binding requests
   2455           *
   2456           * @param  bindReq  - binding request information
   2457           * @param  SecurityUse - Security enable/disable
   2458           *
   2459           * @return  none
   2460           */
   2461          void ZDO_MatchEndDeviceBind( ZDEndDeviceBind_t *bindReq )
   2462          {
   2463            zAddrType_t dstAddr;
   2464            uint8 sendRsp = FALSE;
   2465            uint8 status;
   2466          
   2467            // Is this the first request?
   2468            if ( matchED == NULL )
   2469            {
   2470              // Create match info structure
   2471              matchED = (ZDMatchEndDeviceBind_t *)osal_mem_alloc( sizeof ( ZDMatchEndDeviceBind_t ) );
   2472              if ( matchED )
   2473              {
   2474                // Clear the structure
   2475                osal_memset( (uint8 *)matchED, 0, sizeof ( ZDMatchEndDeviceBind_t ) );
   2476          
   2477                // Copy the first request's information
   2478                if ( !ZDO_CopyMatchInfo( &(matchED->ed1), bindReq ) )
   2479                {
   2480                  status = ZDP_NO_ENTRY;
   2481                  sendRsp = TRUE;
   2482                }
   2483              }
   2484              else
   2485              {
   2486                status = ZDP_NO_ENTRY;
   2487                sendRsp = TRUE;
   2488              }
   2489          
   2490              if ( !sendRsp )
   2491              {
   2492                // Set into the correct state
   2493                matchED->state = ZDMATCH_WAIT_REQ;
   2494          
   2495                // Setup the timeout
   2496                APS_SetEndDeviceBindTimeout( AIB_MaxBindingTime, ZDO_EndDeviceBindMatchTimeoutCB );
   2497              }
   2498            }
   2499            else
   2500            {
   2501              if(matchED->state == ZDMATCH_WAIT_REQ)//when bind is running,refuse new end-device-bind-req
   2502              {
   2503                matchED->state = ZDMATCH_SENDING_BINDS;
   2504          
   2505                // Copy the 2nd request's information
   2506                if ( !ZDO_CopyMatchInfo( &(matchED->ed2), bindReq ) )
   2507                {
   2508                  status = ZDP_NO_ENTRY;
   2509                  sendRsp = TRUE;
   2510                }
   2511          
   2512                // Make a source match for ed1
   2513                matchED->ed1numMatched = ZDO_CompareClusterLists(
   2514                matchED->ed1.numOutClusters, matchED->ed1.outClusters,
   2515                matchED->ed2.numInClusters, matchED->ed2.inClusters, ZDOBuildBuf );
   2516                if ( matchED->ed1numMatched )
   2517                {
   2518                  // Save the match list
   2519                  matchED->ed1Matched = osal_mem_alloc( (short)(matchED->ed1numMatched * sizeof ( uint16 )) );
   2520                  if ( matchED->ed1Matched )
   2521                  {
   2522                    osal_memcpy( matchED->ed1Matched, ZDOBuildBuf, (matchED->ed1numMatched * sizeof ( uint16 )) );
   2523                  }
   2524                  else
   2525                  {
   2526                    // Allocation error, stop
   2527                    status = ZDP_NO_ENTRY;
   2528                    sendRsp = TRUE;
   2529                  }
   2530                }
   2531          
   2532                // Make a source match for ed2
   2533                matchED->ed2numMatched = ZDO_CompareClusterLists(
   2534                matchED->ed2.numOutClusters, matchED->ed2.outClusters,
   2535                matchED->ed1.numInClusters, matchED->ed1.inClusters, ZDOBuildBuf );
   2536                if ( matchED->ed2numMatched )
   2537                {
   2538                  // Save the match list
   2539                  matchED->ed2Matched = osal_mem_alloc( (short)(matchED->ed2numMatched * sizeof ( uint16 )) );
   2540                  if ( matchED->ed2Matched )
   2541                  {
   2542                    osal_memcpy( matchED->ed2Matched, ZDOBuildBuf, (matchED->ed2numMatched * sizeof ( uint16 )) );
   2543                  }
   2544                  else
   2545                  {
   2546                    // Allocation error, stop
   2547                    status = ZDP_NO_ENTRY;
   2548                    sendRsp = TRUE;
   2549                  }
   2550                }
   2551          
   2552                if ( (sendRsp == FALSE) && (matchED->ed1numMatched || matchED->ed2numMatched) )
   2553                {
   2554                  // Do the first unbind/bind state
   2555                  ZDMatchSendState( ZDMATCH_REASON_START, ZDP_SUCCESS, 0 );
   2556                }
   2557                else
   2558                {
   2559                  status = ZDP_NO_MATCH;
   2560                  sendRsp = TRUE;
   2561                }
   2562              }
   2563              else
   2564              {
   2565                status = ZDP_NO_ENTRY;
   2566                dstAddr.addrMode = Addr16Bit;
   2567                dstAddr.addr.shortAddr = bindReq->srcAddr;
   2568                ZDP_EndDeviceBindRsp( bindReq->TransSeq, &dstAddr, status, bindReq->SecurityUse );
   2569                return;
   2570              }
   2571            }
   2572          
   2573            if ( sendRsp )
   2574            {
   2575              // send response to this requester
   2576              dstAddr.addrMode = Addr16Bit;
   2577              dstAddr.addr.shortAddr = bindReq->srcAddr;
   2578              ZDP_EndDeviceBindRsp( bindReq->TransSeq, &dstAddr, status, bindReq->SecurityUse );
   2579          
   2580              if ( matchED->state == ZDMATCH_SENDING_BINDS )
   2581              {
   2582                // send response to first requester
   2583                dstAddr.addrMode = Addr16Bit;
   2584                dstAddr.addr.shortAddr = matchED->ed1.srcAddr;
   2585                ZDP_EndDeviceBindRsp( matchED->ed1.TransSeq, &dstAddr, status, matchED->ed1.SecurityUse );
   2586              }
   2587          
   2588              // Process ended - release memory used
   2589              ZDO_RemoveMatchMemory();
   2590            }
   2591          }
   2592          #endif
   2593          
   2594          /*********************************************************************
   2595           * @fn      ZDO_RemoveMatchMemory()
   2596           *
   2597           * @brief   Called to clear the memory used for the end device bind.
   2598           *
   2599           * @param  none
   2600           *
   2601           * @return  none
   2602           */
   2603          static void ZDO_RemoveMatchMemory( void )
   2604          {
   2605            if ( matchED != NULL )
   2606            {
   2607              if ( matchED->ed2Matched != NULL )
   2608              {
   2609                osal_mem_free( matchED->ed2Matched );
   2610              }
   2611              if ( matchED->ed1Matched != NULL )
   2612              {
   2613                osal_mem_free( matchED->ed1Matched );
   2614              }
   2615              if ( matchED->ed1.inClusters != NULL )
   2616              {
   2617                osal_mem_free( matchED->ed1.inClusters );
   2618              }
   2619              if ( matchED->ed1.outClusters != NULL )
   2620              {
   2621                osal_mem_free( matchED->ed1.outClusters );
   2622              }
   2623              if ( matchED->ed2.inClusters != NULL )
   2624              {
   2625                osal_mem_free( matchED->ed2.inClusters );
   2626              }
   2627              if ( matchED->ed2.outClusters != NULL )
   2628              {
   2629                osal_mem_free( matchED->ed2.outClusters );
   2630              }
   2631          
   2632              osal_mem_free( matchED );
   2633              matchED = (ZDMatchEndDeviceBind_t *)NULL;
   2634            }
   2635          }
   2636          
   2637          /*********************************************************************
   2638           * @fn      ZDO_CopyMatchInfo()
   2639           *
   2640           * @brief   Called to copy memory used for the end device bind.
   2641           *
   2642           * @param  srcReq - source information
   2643           * @param  dstReq - destination location
   2644           *
   2645           * @return  TRUE if copy was successful.
   2646           */
   2647          static uint8 ZDO_CopyMatchInfo( ZDEndDeviceBind_t *destReq, ZDEndDeviceBind_t *srcReq )
   2648          {
   2649            uint8 allOK = TRUE;
   2650          
   2651            // Copy bind information into the match info structure
   2652            osal_memcpy( (uint8 *)destReq, srcReq, sizeof ( ZDEndDeviceBind_t ) );
   2653          
   2654            // Initialize the destination cluster pointers
   2655            destReq->inClusters = NULL;
   2656            destReq->outClusters = NULL;
   2657          
   2658            // Copy input cluster IDs
   2659            if ( srcReq->numInClusters )
   2660            {
   2661              destReq->inClusters = osal_mem_alloc( (short)(srcReq->numInClusters * sizeof ( uint16 )) );
   2662              if ( destReq->inClusters )
   2663              {
   2664                // Copy the clusters
   2665                osal_memcpy( (uint8*)(destReq->inClusters), (uint8 *)(srcReq->inClusters),
   2666                                (srcReq->numInClusters * sizeof ( uint16 )) );
   2667              }
   2668              else
   2669              {
   2670                allOK = FALSE;
   2671              }
   2672            }
   2673          
   2674            // Copy output cluster IDs
   2675            if ( srcReq->numOutClusters )
   2676            {
   2677              destReq->outClusters = osal_mem_alloc( (short)(srcReq->numOutClusters * sizeof ( uint16 )) );
   2678              if ( destReq->outClusters )
   2679              {
   2680                // Copy the clusters
   2681                osal_memcpy( (uint8 *)(destReq->outClusters), (uint8 *)(srcReq->outClusters),
   2682                                (srcReq->numOutClusters * sizeof ( uint16 )) );
   2683              }
   2684              else
   2685              {
   2686                allOK = FALSE;
   2687              }
   2688            }
   2689          
   2690            if ( allOK == FALSE )
   2691            {
   2692              if ( destReq->inClusters != NULL )
   2693              {
   2694                osal_mem_free( destReq->inClusters );
   2695              }
   2696              if ( destReq->outClusters != NULL )
   2697              {
   2698                osal_mem_free( destReq->outClusters );
   2699              }
   2700            }
   2701          
   2702            return ( allOK );
   2703          }
   2704          
   2705          /*********************************************************************
   2706           * @fn      ZDMatchSendState()
   2707           *
   2708           * @brief   State machine for the End device match message algorithm.
   2709           *
   2710           * @param  reason - state of algoritm
   2711           * @param  status - initial message status
   2712           * @param  TransSeq - next transaction sequence number
   2713           *
   2714           * @return  FALSE if error and we are not currently matching, TRUE
   2715           *          if success.
   2716           */
   2717          uint8 ZDMatchSendState( uint8 reason, uint8 status, uint8 TransSeq )
   2718          {
   2719            uint8 *dstIEEEAddr = NULL;
   2720            uint8 dstEP = 0xFF;
   2721            zAddrType_t dstAddr;
   2722            zAddrType_t destinationAddr;
   2723            uint16 msgType;
   2724            uint16 clusterID = 0xFFFF;
   2725            ZDEndDeviceBind_t *ed = NULL;
   2726            uint8 rspStatus = ZDP_SUCCESS;
   2727          
   2728            if ( matchED == NULL )
   2729            {
   2730              return ( FALSE );
   2731            }
   2732          
   2733            // Check sequence number
   2734            if ( reason == ZDMATCH_REASON_BIND_RSP || reason == ZDMATCH_REASON_UNBIND_RSP )
   2735            {
   2736              if ( TransSeq != matchED->transSeq )
   2737              {
   2738                return( FALSE ); // ignore the message
   2739              }
   2740            }
   2741          
   2742            // turn off timer
   2743            APS_SetEndDeviceBindTimeout( 0, ZDO_EndDeviceBindMatchTimeoutCB );
   2744          
   2745            if ( reason == ZDMATCH_REASON_TIMEOUT )
   2746            {
   2747              rspStatus = ZDP_TIMEOUT;    // The process will stop
   2748            }
   2749          
   2750            if ( reason == ZDMATCH_REASON_START || reason == ZDMATCH_REASON_BIND_RSP )
   2751            {
   2752              matchED->sending = ZDMATCH_SENDING_UNBIND;
   2753          
   2754              if ( reason == ZDMATCH_REASON_BIND_RSP && status != ZDP_SUCCESS )
   2755              {
   2756                rspStatus = status;
   2757              }
   2758            }
   2759            else if ( reason == ZDMATCH_REASON_UNBIND_RSP )
   2760            {
   2761              if ( status == ZDP_SUCCESS )
   2762              {
   2763                matchED->sending = ZDMATCH_SENDING_UNBIND;
   2764              }
   2765              else
   2766              {
   2767                matchED->sending = ZDMATCH_SENDING_BIND;
   2768              }
   2769            }
   2770          
   2771            if ( reason != ZDMATCH_REASON_START && matchED->sending == ZDMATCH_SENDING_UNBIND )
   2772            {
   2773              // Move to the next cluster ID
   2774              if ( matchED->ed1numMatched )
   2775              {
   2776                matchED->ed1numMatched--;
   2777              }
   2778              else if ( matchED->ed2numMatched )
   2779              {
   2780                matchED->ed2numMatched--;
   2781              }
   2782            }
   2783          
   2784            // What message do we send now
   2785            if ( matchED->ed1numMatched )
   2786            {
   2787              ed = &(matchED->ed1);
   2788              clusterID = matchED->ed1Matched[matchED->ed1numMatched-1];
   2789              dstIEEEAddr = matchED->ed2.ieeeAddr;
   2790              dstEP = matchED->ed2.endpoint;
   2791            }
   2792            else if ( matchED->ed2numMatched )
   2793            {
   2794              ed = &(matchED->ed2);
   2795              clusterID = matchED->ed2Matched[matchED->ed2numMatched-1];
   2796              dstIEEEAddr = matchED->ed1.ieeeAddr;
   2797              dstEP = matchED->ed1.endpoint;
   2798            }
   2799          
   2800            dstAddr.addrMode = Addr16Bit;
   2801          
   2802            // Send the next message
   2803            if ( (rspStatus == ZDP_SUCCESS) && ed )
   2804            {
   2805              // Send unbind/bind message to source
   2806              if ( matchED->sending == ZDMATCH_SENDING_UNBIND )
   2807              {
   2808                msgType = Unbind_req;
   2809              }
   2810              else
   2811              {
   2812                msgType = Bind_req;
   2813              }
   2814          
   2815              dstAddr.addr.shortAddr = ed->srcAddr;
   2816          
   2817              // Save off the transaction sequence number
   2818              matchED->transSeq = ZDP_TransID;
   2819          
   2820              destinationAddr.addrMode = Addr64Bit;
   2821              osal_cpyExtAddr( destinationAddr.addr.extAddr, dstIEEEAddr );
   2822          
   2823              ZDP_BindUnbindReq( msgType, &dstAddr, ed->ieeeAddr, ed->endpoint, clusterID,
   2824                  &destinationAddr, dstEP, ed->SecurityUse );
   2825          
   2826              // Set timeout for response
   2827              APS_SetEndDeviceBindTimeout( AIB_MaxBindingTime, ZDO_EndDeviceBindMatchTimeoutCB );
   2828            }
   2829            else
   2830            {
   2831              // Send the response messages to requesting devices
   2832              // send response to first requester
   2833              dstAddr.addr.shortAddr = matchED->ed1.srcAddr;
   2834              ZDP_EndDeviceBindRsp( matchED->ed1.TransSeq, &dstAddr, rspStatus, matchED->ed1.SecurityUse );
   2835          
   2836              // send response to second requester
   2837              if ( matchED->state == ZDMATCH_SENDING_BINDS )
   2838              {
   2839                dstAddr.addr.shortAddr = matchED->ed2.srcAddr;
   2840                ZDP_EndDeviceBindRsp( matchED->ed2.TransSeq, &dstAddr, rspStatus, matchED->ed2.SecurityUse );
   2841              }
   2842          
   2843              // Process ended - release memory used
   2844              ZDO_RemoveMatchMemory();
   2845            }
   2846          
   2847            return ( TRUE );
   2848          }
   2849          
   2850          /*********************************************************************
   2851           * @fn      ZDO_EndDeviceBindMatchTimeoutCB()
   2852           *
   2853           * @brief   End device bind timeout.
   2854           *
   2855           * @param  none
   2856           *
   2857           * @return  none
   2858           */
   2859          static void ZDO_EndDeviceBindMatchTimeoutCB( void )
   2860          {
   2861            ZDMatchSendState( ZDMATCH_REASON_TIMEOUT, ZDP_TIMEOUT, 0 );
   2862          }
   2863          #endif // ZG_BUILD_COORDINATOR_TYPE
   2864          
   2865          /*********************************************************************
   2866           * ZDO MESSAGE PARSING API FUNCTIONS
   2867           */
   2868          
   2869          #ifdef ZDO_ENDDEVICEBIND_RESPONSE
   2870          /*********************************************************************
   2871           * @fn          ZDO_ParseEndDeviceBindReq
   2872           *
   2873           * @brief       This function parses the End_Device_Bind_req message.
   2874           *
   2875           *     NOTE:  The clusters lists in bindReq are allocated in this
   2876           *            function and must be freed by that calling function.
   2877           *
   2878           * @param       inMsg  - incoming message (request)
   2879           * @param       bindReq - pointer to place to parse message to
   2880           *
   2881           * @return      none
   2882           */

   \                                 In  segment BANKED_CODE, align 1, keep-with-next
   2883          void ZDO_ParseEndDeviceBindReq( zdoIncomingMsg_t *inMsg, ZDEndDeviceBind_t *bindReq )
   \                     ZDO_ParseEndDeviceBindReq:
   2884          {
   \   000000                REQUIRE ?V0
   \   000000                REQUIRE ?V1
   \   000000                REQUIRE ?V2
   \   000000                REQUIRE ?V3
   \   000000                REQUIRE ?V4
   \   000000                REQUIRE ?V5
   \   000000                REQUIRE ?V6
   \   000000                REQUIRE ?V7
   \   000000                REQUIRE ?V8
   \   000000                REQUIRE ?V9
   \   000000   74EE         MOV       A,#-0x12
   \   000002   12....       LCALL     ?BANKED_ENTER_XDATA
   \   000005                ; Saved register size: 18
   \   000005                ; Auto size: 0
   \   000005   EC           MOV       A,R4
   \   000006   FE           MOV       R6,A
   \   000007   ED           MOV       A,R5
   \   000008   FF           MOV       R7,A
   2885            uint8 *msg;
   2886          
   2887            // Parse the message
   2888            bindReq->TransSeq = inMsg->TransSeq;
   \   000009   EA           MOV       A,R2
   \   00000A   240F         ADD       A,#0xf
   \   00000C   F582         MOV       DPL,A
   \   00000E   E4           CLR       A
   \   00000F   3B           ADDC      A,R3
   \   000010   F583         MOV       DPH,A
   \   000012   E0           MOVX      A,@DPTR
   \   000013   8C82         MOV       DPL,R4
   \   000015   8D83         MOV       DPH,R5
   \   000017   F0           MOVX      @DPTR,A
   2889            bindReq->srcAddr = inMsg->srcAddr.addr.shortAddr;
   \   000018   8A82         MOV       DPL,R2
   \   00001A   8B83         MOV       DPH,R3
   \   00001C   A3           INC       DPTR
   \   00001D   A3           INC       DPTR
   \   00001E   E0           MOVX      A,@DPTR
   \   00001F   F8           MOV       R0,A
   \   000020   A3           INC       DPTR
   \   000021   E0           MOVX      A,@DPTR
   \   000022   F9           MOV       R1,A
   \   000023   8C82         MOV       DPL,R4
   \   000025   8D83         MOV       DPH,R5
   \   000027   A3           INC       DPTR
   \   000028   A3           INC       DPTR
   \   000029   E8           MOV       A,R0
   \   00002A   F0           MOVX      @DPTR,A
   \   00002B   A3           INC       DPTR
   \   00002C   E9           MOV       A,R1
   \   00002D   F0           MOVX      @DPTR,A
   2890            bindReq->SecurityUse = inMsg->SecurityUse;
   \   00002E   EA           MOV       A,R2
   \   00002F   240E         ADD       A,#0xe
   \   000031   F582         MOV       DPL,A
   \   000033   E4           CLR       A
   \   000034   3B           ADDC      A,R3
   \   000035   F583         MOV       DPH,A
   \   000037   E0           MOVX      A,@DPTR
   \   000038   8C82         MOV       DPL,R4
   \   00003A   8D83         MOV       DPH,R5
   \   00003C   A3           INC       DPTR
   \   00003D   F0           MOVX      @DPTR,A
   2891            msg = inMsg->asdu;
   \   00003E   EA           MOV       A,R2
   \   00003F   2413         ADD       A,#0x13
   \   000041   F582         MOV       DPL,A
   \   000043   E4           CLR       A
   \   000044   3B           ADDC      A,R3
   \   000045   F583         MOV       DPH,A
   \   000047   E0           MOVX      A,@DPTR
   \   000048   F5..         MOV       ?V2,A
   \   00004A   A3           INC       DPTR
   \   00004B   E0           MOVX      A,@DPTR
   \   00004C   F5..         MOV       ?V3,A
   2892          
   2893            bindReq->localCoordinator = BUILD_UINT16( msg[0], msg[1] );
   \   00004E   85..82       MOV       DPL,?V2
   \   000051   F583         MOV       DPH,A
   \   000053   E0           MOVX      A,@DPTR
   \   000054   FA           MOV       R2,A
   \   000055   A3           INC       DPTR
   \   000056   E0           MOVX      A,@DPTR
   \   000057   F9           MOV       R1,A
   \   000058   EA           MOV       A,R2
   \   000059   8C82         MOV       DPL,R4
   \   00005B   8D83         MOV       DPH,R5
   \   00005D   A3           INC       DPTR
   \   00005E   A3           INC       DPTR
   \   00005F   A3           INC       DPTR
   \   000060   A3           INC       DPTR
   \   000061   F0           MOVX      @DPTR,A
   \   000062   A3           INC       DPTR
   \   000063   E9           MOV       A,R1
   \   000064   F0           MOVX      @DPTR,A
   2894            msg += 2;
   \   000065   E5..         MOV       A,?V2
   \   000067   2402         ADD       A,#0x2
   \   000069   F5..         MOV       ?V2,A
   \   00006B   5002         JNC       ??ZDO_ParseEndDeviceBindReq_0
   \   00006D   05..         INC       ?V3
   2895          
   2896            osal_cpyExtAddr( bindReq->ieeeAddr, msg );
   \                     ??ZDO_ParseEndDeviceBindReq_0:
   \   00006F                ; Setup parameters for call to function sAddrExtCpy
   \   00006F   FC           MOV       R4,A
   \   000070   AD..         MOV       R5,?V3
   \   000072   EE           MOV       A,R6
   \   000073   2406         ADD       A,#0x6
   \   000075   FA           MOV       R2,A
   \   000076   E4           CLR       A
   \   000077   3F           ADDC      A,R7
   \   000078   FB           MOV       R3,A
   \   000079   12....       LCALL     `??sAddrExtCpy::?relay`; Banked call to: sAddrExtCpy
   2897            msg += Z_EXTADDR_LEN;
   2898          
   2899            bindReq->endpoint = *msg++;
   \   00007C   85..82       MOV       DPL,?V2
   \   00007F   85..83       MOV       DPH,?V3
   \   000082   A3           INC       DPTR
   \   000083   A3           INC       DPTR
   \   000084   A3           INC       DPTR
   \   000085   A3           INC       DPTR
   \   000086   A3           INC       DPTR
   \   000087   A3           INC       DPTR
   \   000088   A3           INC       DPTR
   \   000089   A3           INC       DPTR
   \   00008A   E0           MOVX      A,@DPTR
   \   00008B   C0E0         PUSH      A
   \   00008D   EE           MOV       A,R6
   \   00008E   240E         ADD       A,#0xe
   \   000090   F582         MOV       DPL,A
   \   000092   E4           CLR       A
   \   000093   3F           ADDC      A,R7
   \   000094   F583         MOV       DPH,A
   \   000096   D0E0         POP       A
   \   000098   F0           MOVX      @DPTR,A
   \   000099   E5..         MOV       A,?V2
   \   00009B   2409         ADD       A,#0x9
   \   00009D   F5..         MOV       ?V2,A
   \   00009F   5002         JNC       ??ZDO_ParseEndDeviceBindReq_1
   \   0000A1   05..         INC       ?V3
   2900            bindReq->profileID = BUILD_UINT16( msg[0], msg[1] );
   \                     ??ZDO_ParseEndDeviceBindReq_1:
   \   0000A3   F582         MOV       DPL,A
   \   0000A5   85..83       MOV       DPH,?V3
   \   0000A8   E0           MOVX      A,@DPTR
   \   0000A9   FA           MOV       R2,A
   \   0000AA   A3           INC       DPTR
   \   0000AB   E0           MOVX      A,@DPTR
   \   0000AC   F9           MOV       R1,A
   \   0000AD   EE           MOV       A,R6
   \   0000AE   240F         ADD       A,#0xf
   \   0000B0   F582         MOV       DPL,A
   \   0000B2   E4           CLR       A
   \   0000B3   3F           ADDC      A,R7
   \   0000B4   F583         MOV       DPH,A
   \   0000B6   EA           MOV       A,R2
   \   0000B7   F0           MOVX      @DPTR,A
   \   0000B8   A3           INC       DPTR
   \   0000B9   E9           MOV       A,R1
   \   0000BA   F0           MOVX      @DPTR,A
   2901            msg += 2;
   2902          
   2903            bindReq->inClusters = NULL;
   \   0000BB   EE           MOV       A,R6
   \   0000BC   2412         ADD       A,#0x12
   \   0000BE   F5..         MOV       ?V4,A
   \   0000C0   E4           CLR       A
   \   0000C1   3F           ADDC      A,R7
   \   0000C2   F5..         MOV       ?V5,A
   \   0000C4   85..82       MOV       DPL,?V4
   \   0000C7   F583         MOV       DPH,A
   \   0000C9   E4           CLR       A
   \   0000CA   F0           MOVX      @DPTR,A
   \   0000CB   A3           INC       DPTR
   \   0000CC   F0           MOVX      @DPTR,A
   2904            bindReq->outClusters = NULL;
   \   0000CD   EE           MOV       A,R6
   \   0000CE   2415         ADD       A,#0x15
   \   0000D0   F5..         MOV       ?V6,A
   \   0000D2   E4           CLR       A
   \   0000D3   3F           ADDC      A,R7
   \   0000D4   F5..         MOV       ?V7,A
   \   0000D6   85..82       MOV       DPL,?V6
   \   0000D9   F583         MOV       DPH,A
   \   0000DB   E4           CLR       A
   \   0000DC   F0           MOVX      @DPTR,A
   \   0000DD   A3           INC       DPTR
   \   0000DE   F0           MOVX      @DPTR,A
   2905          
   2906            if ((bindReq->numInClusters = *msg++) &&
   2907                (bindReq->inClusters = (uint16*)osal_mem_alloc( (bindReq->numInClusters * sizeof( uint16 )))))
   \   0000DF   85..82       MOV       DPL,?V2
   \   0000E2   85..83       MOV       DPH,?V3
   \   0000E5   A3           INC       DPTR
   \   0000E6   A3           INC       DPTR
   \   0000E7   E0           MOVX      A,@DPTR
   \   0000E8   F8           MOV       R0,A
   \   0000E9   EE           MOV       A,R6
   \   0000EA   2411         ADD       A,#0x11
   \   0000EC   F5..         MOV       ?V0,A
   \   0000EE   E4           CLR       A
   \   0000EF   3F           ADDC      A,R7
   \   0000F0   F5..         MOV       ?V1,A
   \   0000F2   E8           MOV       A,R0
   \   0000F3   85..82       MOV       DPL,?V0
   \   0000F6   85..83       MOV       DPH,?V1
   \   0000F9   F0           MOVX      @DPTR,A
   \   0000FA   E5..         MOV       A,?V2
   \   0000FC   2403         ADD       A,#0x3
   \   0000FE   F5..         MOV       ?V2,A
   \   000100   5002         JNC       ??ZDO_ParseEndDeviceBindReq_2
   \   000102   05..         INC       ?V3
   \                     ??ZDO_ParseEndDeviceBindReq_2:
   \   000104   E8           MOV       A,R0
   \   000105   6034         JZ        ??ZDO_ParseEndDeviceBindReq_3
   \   000107                ; Setup parameters for call to function osal_mem_alloc
   \   000107   28           ADD       A,R0
   \   000108   FA           MOV       R2,A
   \   000109   E4           CLR       A
   \   00010A   33           RLC       A
   \   00010B   FB           MOV       R3,A
   \   00010C   12....       LCALL     `??osal_mem_alloc::?relay`; Banked call to: osal_mem_alloc
   \   00010F   8A..         MOV       ?V8,R2
   \   000111   8B..         MOV       ?V9,R3
   \   000113   AC..         MOV       R4,?V8
   \   000115   AD..         MOV       R5,?V9
   \   000117   85..82       MOV       DPL,?V4
   \   00011A   85..83       MOV       DPH,?V5
   \   00011D   EA           MOV       A,R2
   \   00011E   F0           MOVX      @DPTR,A
   \   00011F   A3           INC       DPTR
   \   000120   EB           MOV       A,R3
   \   000121   F0           MOVX      @DPTR,A
   \   000122   EA           MOV       A,R2
   \   000123   4D           ORL       A,R5
   \   000124   6015         JZ        ??ZDO_ParseEndDeviceBindReq_3
   2908            {
   2909              msg = ZDO_ConvertOTAClusters( bindReq->numInClusters, msg, bindReq->inClusters );
   \   000126                ; Setup parameters for call to function ZDO_ConvertOTAClusters
   \   000126   AA..         MOV       R2,?V2
   \   000128   AB..         MOV       R3,?V3
   \   00012A   85..82       MOV       DPL,?V0
   \   00012D   85..83       MOV       DPH,?V1
   \   000130   E0           MOVX      A,@DPTR
   \   000131   F9           MOV       R1,A
   \   000132   12....       LCALL     `??ZDO_ConvertOTAClusters::?relay`; Banked call to: ZDO_ConvertOTAClusters
   \   000135   8A..         MOV       ?V2,R2
   \   000137   8B..         MOV       ?V3,R3
   \   000139   8008         SJMP      ??ZDO_ParseEndDeviceBindReq_4
   2910            }
   2911            else
   2912            {
   2913              bindReq->numInClusters = 0;
   \                     ??ZDO_ParseEndDeviceBindReq_3:
   \   00013B   85..82       MOV       DPL,?V0
   \   00013E   85..83       MOV       DPH,?V1
   \   000141   E4           CLR       A
   \   000142   F0           MOVX      @DPTR,A
   2914            }
   2915          
   2916            if ((bindReq->numOutClusters = *msg++) &&
   2917                (bindReq->outClusters = (uint16*)osal_mem_alloc((bindReq->numOutClusters * sizeof(uint16)))))
   \                     ??ZDO_ParseEndDeviceBindReq_4:
   \   000143   85..82       MOV       DPL,?V2
   \   000146   85..83       MOV       DPH,?V3
   \   000149   E0           MOVX      A,@DPTR
   \   00014A   FA           MOV       R2,A
   \   00014B   EE           MOV       A,R6
   \   00014C   2414         ADD       A,#0x14
   \   00014E   F8           MOV       R0,A
   \   00014F   E4           CLR       A
   \   000150   3F           ADDC      A,R7
   \   000151   F9           MOV       R1,A
   \   000152   E8           MOV       A,R0
   \   000153   FE           MOV       R6,A
   \   000154   E9           MOV       A,R1
   \   000155   FF           MOV       R7,A
   \   000156   EA           MOV       A,R2
   \   000157   8882         MOV       DPL,R0
   \   000159   8983         MOV       DPH,R1
   \   00015B   F0           MOVX      @DPTR,A
   \   00015C   85..82       MOV       DPL,?V2
   \   00015F   85..83       MOV       DPH,?V3
   \   000162   A3           INC       DPTR
   \   000163   8582..       MOV       ?V2,DPL
   \   000166   8583..       MOV       ?V3,DPH
   \   000169   602E         JZ        ??ZDO_ParseEndDeviceBindReq_5
   \   00016B                ; Setup parameters for call to function osal_mem_alloc
   \   00016B   2A           ADD       A,R2
   \   00016C   FA           MOV       R2,A
   \   00016D   E4           CLR       A
   \   00016E   33           RLC       A
   \   00016F   FB           MOV       R3,A
   \   000170   12....       LCALL     `??osal_mem_alloc::?relay`; Banked call to: osal_mem_alloc
   \   000173   8A..         MOV       ?V0,R2
   \   000175   8B..         MOV       ?V1,R3
   \   000177   AC..         MOV       R4,?V0
   \   000179   AD..         MOV       R5,?V1
   \   00017B   85..82       MOV       DPL,?V6
   \   00017E   85..83       MOV       DPH,?V7
   \   000181   EA           MOV       A,R2
   \   000182   F0           MOVX      @DPTR,A
   \   000183   A3           INC       DPTR
   \   000184   EB           MOV       A,R3
   \   000185   F0           MOVX      @DPTR,A
   \   000186   EA           MOV       A,R2
   \   000187   4D           ORL       A,R5
   \   000188   600F         JZ        ??ZDO_ParseEndDeviceBindReq_5
   2918            {
   2919              msg = ZDO_ConvertOTAClusters( bindReq->numOutClusters, msg, bindReq->outClusters );
   \   00018A                ; Setup parameters for call to function ZDO_ConvertOTAClusters
   \   00018A   AA..         MOV       R2,?V2
   \   00018C   AB..         MOV       R3,?V3
   \   00018E   8E82         MOV       DPL,R6
   \   000190   8F83         MOV       DPH,R7
   \   000192   E0           MOVX      A,@DPTR
   \   000193   F9           MOV       R1,A
   \   000194   12....       LCALL     `??ZDO_ConvertOTAClusters::?relay`; Banked call to: ZDO_ConvertOTAClusters
   \   000197   8006         SJMP      ??ZDO_ParseEndDeviceBindReq_6
   2920            }
   2921            else
   2922            {
   2923              bindReq->numOutClusters = 0;
   \                     ??ZDO_ParseEndDeviceBindReq_5:
   \   000199   8E82         MOV       DPL,R6
   \   00019B   8F83         MOV       DPH,R7
   \   00019D   E4           CLR       A
   \   00019E   F0           MOVX      @DPTR,A
   2924            }
   2925          }
   \                     ??ZDO_ParseEndDeviceBindReq_6:
   \   00019F   7F0A         MOV       R7,#0xa
   \   0001A1   02....       LJMP      ?BANKED_LEAVE_XDATA
   2926          #endif
   2927          
   2928          /*********************************************************************
   2929           * @fn          ZDO_ParseBindUnbindReq
   2930           *
   2931           * @brief       This function parses the Bind_req or Unbind_req message.
   2932           *
   2933           * @param       inMsg  - incoming message (request)
   2934           * @param       pReq - place to put parsed information
   2935           *
   2936           * @return      none
   2937           */

   \                                 In  segment BANKED_CODE, align 1, keep-with-next
   2938          void ZDO_ParseBindUnbindReq( zdoIncomingMsg_t *inMsg, ZDO_BindUnbindReq_t *pReq )
   \                     ZDO_ParseBindUnbindReq:
   2939          {
   \   000000                REQUIRE ?V0
   \   000000                REQUIRE ?V1
   \   000000   74F6         MOV       A,#-0xa
   \   000002   12....       LCALL     ?BANKED_ENTER_XDATA
   \   000005                ; Saved register size: 10
   \   000005                ; Auto size: 0
   \   000005   EC           MOV       A,R4
   \   000006   FE           MOV       R6,A
   \   000007   ED           MOV       A,R5
   \   000008   FF           MOV       R7,A
   2940            uint8 *msg;
   2941          
   2942            msg = inMsg->asdu;
   \   000009   EA           MOV       A,R2
   \   00000A   2413         ADD       A,#0x13
   \   00000C   F582         MOV       DPL,A
   \   00000E   E4           CLR       A
   \   00000F   3B           ADDC      A,R3
   \   000010   F583         MOV       DPH,A
   \   000012   E0           MOVX      A,@DPTR
   \   000013   F5..         MOV       ?V0,A
   \   000015   A3           INC       DPTR
   \   000016   E0           MOVX      A,@DPTR
   \   000017   F5..         MOV       ?V1,A
   2943            osal_cpyExtAddr( pReq->srcAddress, msg );
   \   000019                ; Setup parameters for call to function sAddrExtCpy
   \   000019   AC..         MOV       R4,?V0
   \   00001B   FD           MOV       R5,A
   \   00001C   EE           MOV       A,R6
   \   00001D   FA           MOV       R2,A
   \   00001E   EF           MOV       A,R7
   \   00001F   FB           MOV       R3,A
   \   000020   12....       LCALL     `??sAddrExtCpy::?relay`; Banked call to: sAddrExtCpy
   2944            msg += Z_EXTADDR_LEN;
   2945            pReq->srcEndpoint = *msg++;
   \   000023   85..82       MOV       DPL,?V0
   \   000026   85..83       MOV       DPH,?V1
   \   000029   A3           INC       DPTR
   \   00002A   A3           INC       DPTR
   \   00002B   A3           INC       DPTR
   \   00002C   A3           INC       DPTR
   \   00002D   A3           INC       DPTR
   \   00002E   A3           INC       DPTR
   \   00002F   A3           INC       DPTR
   \   000030   A3           INC       DPTR
   \   000031   E0           MOVX      A,@DPTR
   \   000032   8E82         MOV       DPL,R6
   \   000034   8F83         MOV       DPH,R7
   \   000036   A3           INC       DPTR
   \   000037   A3           INC       DPTR
   \   000038   A3           INC       DPTR
   \   000039   A3           INC       DPTR
   \   00003A   A3           INC       DPTR
   \   00003B   A3           INC       DPTR
   \   00003C   A3           INC       DPTR
   \   00003D   A3           INC       DPTR
   \   00003E   F0           MOVX      @DPTR,A
   \   00003F   E5..         MOV       A,?V0
   \   000041   2409         ADD       A,#0x9
   \   000043   F5..         MOV       ?V0,A
   \   000045   5002         JNC       ??ZDO_ParseBindUnbindReq_0
   \   000047   05..         INC       ?V1
   2946            pReq->clusterID = BUILD_UINT16( msg[0], msg[1] );
   \                     ??ZDO_ParseBindUnbindReq_0:
   \   000049   F582         MOV       DPL,A
   \   00004B   85..83       MOV       DPH,?V1
   \   00004E   E0           MOVX      A,@DPTR
   \   00004F   FA           MOV       R2,A
   \   000050   A3           INC       DPTR
   \   000051   E0           MOVX      A,@DPTR
   \   000052   F9           MOV       R1,A
   \   000053   EA           MOV       A,R2
   \   000054   8E82         MOV       DPL,R6
   \   000056   8F83         MOV       DPH,R7
   \   000058   A3           INC       DPTR
   \   000059   A3           INC       DPTR
   \   00005A   A3           INC       DPTR
   \   00005B   A3           INC       DPTR
   \   00005C   A3           INC       DPTR
   \   00005D   A3           INC       DPTR
   \   00005E   A3           INC       DPTR
   \   00005F   A3           INC       DPTR
   \   000060   A3           INC       DPTR
   \   000061   F0           MOVX      @DPTR,A
   \   000062   A3           INC       DPTR
   \   000063   E9           MOV       A,R1
   \   000064   F0           MOVX      @DPTR,A
   2947            msg += 2;
   2948            pReq->dstAddress.addrMode = *msg++;
   \   000065   85..82       MOV       DPL,?V0
   \   000068   85..83       MOV       DPH,?V1
   \   00006B   A3           INC       DPTR
   \   00006C   A3           INC       DPTR
   \   00006D   E0           MOVX      A,@DPTR
   \   00006E   F8           MOV       R0,A
   \   00006F   C0E0         PUSH      A
   \   000071   EE           MOV       A,R6
   \   000072   2413         ADD       A,#0x13
   \   000074   F582         MOV       DPL,A
   \   000076   E4           CLR       A
   \   000077   3F           ADDC      A,R7
   \   000078   F583         MOV       DPH,A
   \   00007A   D0E0         POP       A
   \   00007C   F0           MOVX      @DPTR,A
   \   00007D   E5..         MOV       A,?V0
   \   00007F   2403         ADD       A,#0x3
   \   000081   F5..         MOV       ?V0,A
   \   000083   5002         JNC       ??ZDO_ParseBindUnbindReq_1
   \   000085   05..         INC       ?V1
   2949            if ( pReq->dstAddress.addrMode == Addr64Bit )
   \                     ??ZDO_ParseBindUnbindReq_1:
   \   000087   EE           MOV       A,R6
   \   000088   240B         ADD       A,#0xb
   \   00008A   FA           MOV       R2,A
   \   00008B   E4           CLR       A
   \   00008C   3F           ADDC      A,R7
   \   00008D   FB           MOV       R3,A
   \   00008E   7403         MOV       A,#0x3
   \   000090   68           XRL       A,R0
   \   000091   7025         JNZ       ??ZDO_ParseBindUnbindReq_2
   2950            {
   2951              osal_cpyExtAddr( pReq->dstAddress.addr.extAddr, msg );
   \   000093                ; Setup parameters for call to function sAddrExtCpy
   \   000093   AC..         MOV       R4,?V0
   \   000095   AD..         MOV       R5,?V1
   \   000097   12....       LCALL     `??sAddrExtCpy::?relay`; Banked call to: sAddrExtCpy
   2952              msg += Z_EXTADDR_LEN;
   2953              pReq->dstEndpoint = *msg;
   \   00009A   85..82       MOV       DPL,?V0
   \   00009D   85..83       MOV       DPH,?V1
   \   0000A0   A3           INC       DPTR
   \   0000A1   A3           INC       DPTR
   \   0000A2   A3           INC       DPTR
   \   0000A3   A3           INC       DPTR
   \   0000A4   A3           INC       DPTR
   \   0000A5   A3           INC       DPTR
   \   0000A6   A3           INC       DPTR
   \   0000A7   A3           INC       DPTR
   \   0000A8   E0           MOVX      A,@DPTR
   \   0000A9   C0E0         PUSH      A
   \   0000AB   EE           MOV       A,R6
   \   0000AC   2414         ADD       A,#0x14
   \   0000AE   F582         MOV       DPL,A
   \   0000B0   E4           CLR       A
   \   0000B1   3F           ADDC      A,R7
   \   0000B2   F583         MOV       DPH,A
   \   0000B4   D0E0         POP       A
   \   0000B6   8013         SJMP      ??ZDO_ParseBindUnbindReq_3
   2954            }
   2955            else
   2956            {
   2957              // copy group address
   2958              pReq->dstAddress.addr.shortAddr = BUILD_UINT16( msg[0], msg[1] );
   \                     ??ZDO_ParseBindUnbindReq_2:
   \   0000B8   85..82       MOV       DPL,?V0
   \   0000BB   85..83       MOV       DPH,?V1
   \   0000BE   E0           MOVX      A,@DPTR
   \   0000BF   FC           MOV       R4,A
   \   0000C0   A3           INC       DPTR
   \   0000C1   E0           MOVX      A,@DPTR
   \   0000C2   F9           MOV       R1,A
   \   0000C3   EC           MOV       A,R4
   \   0000C4   8A82         MOV       DPL,R2
   \   0000C6   8B83         MOV       DPH,R3
   \   0000C8   F0           MOVX      @DPTR,A
   \   0000C9   A3           INC       DPTR
   \   0000CA   E9           MOV       A,R1
   \                     ??ZDO_ParseBindUnbindReq_3:
   \   0000CB   F0           MOVX      @DPTR,A
   2959            }
   2960          }
   \   0000CC   7F02         MOV       R7,#0x2
   \   0000CE   02....       LJMP      ?BANKED_LEAVE_XDATA
   2961          
   2962          /*********************************************************************
   2963           * @fn      ZDO_ParseAddrRsp
   2964           *
   2965           * @brief   Turns the inMsg (incoming message) into the out parsed
   2966           *          structure.
   2967           *
   2968           * @param   inMsg - incoming message
   2969           *
   2970           * @return  pointer to parsed structures.  This structure was
   2971           *          allocated using osal_mem_alloc, so it must be freed
   2972           *          by the calling function [osal_mem_free()].
   2973           */

   \                                 In  segment BANKED_CODE, align 1, keep-with-next
   2974          ZDO_NwkIEEEAddrResp_t *ZDO_ParseAddrRsp( zdoIncomingMsg_t *inMsg )
   \                     ZDO_ParseAddrRsp:
   2975          {
   \   000000                REQUIRE ?V0
   \   000000                REQUIRE ?V1
   \   000000                REQUIRE ?V2
   \   000000                REQUIRE ?V3
   \   000000                REQUIRE ?V4
   \   000000                REQUIRE ?V5
   \   000000   74F2         MOV       A,#-0xe
   \   000002   12....       LCALL     ?BANKED_ENTER_XDATA
   \   000005                ; Saved register size: 14
   \   000005                ; Auto size: 0
   \   000005   EA           MOV       A,R2
   \   000006   FE           MOV       R6,A
   \   000007   EB           MOV       A,R3
   \   000008   FF           MOV       R7,A
   2976            ZDO_NwkIEEEAddrResp_t *rsp;
   2977            uint8 *msg;
   2978            byte cnt = 0;
   \   000009   75..00       MOV       ?V2,#0x0
   2979          
   2980            // Calculate the number of items in the list
   2981            if ( inMsg->asduLen > (1 + Z_EXTADDR_LEN + 2) )
   \   00000C   EA           MOV       A,R2
   \   00000D   2410         ADD       A,#0x10
   \   00000F   F582         MOV       DPL,A
   \   000011   E4           CLR       A
   \   000012   3F           ADDC      A,R7
   \   000013   F583         MOV       DPH,A
   \   000015   E0           MOVX      A,@DPTR
   \   000016   C3           CLR       C
   \   000017   940C         SUBB      A,#0xc
   \   000019   4019         JC        ??ZDO_ParseAddrRsp_0
   2982            {
   2983              cnt = inMsg->asdu[1 + Z_EXTADDR_LEN + 2];
   \   00001B   EA           MOV       A,R2
   \   00001C   2413         ADD       A,#0x13
   \   00001E   F582         MOV       DPL,A
   \   000020   E4           CLR       A
   \   000021   3F           ADDC      A,R7
   \   000022   F583         MOV       DPH,A
   \   000024   E0           MOVX      A,@DPTR
   \   000025   F8           MOV       R0,A
   \   000026   A3           INC       DPTR
   \   000027   E0           MOVX      A,@DPTR
   \   000028   C8           XCH       A,R0
   \   000029   240B         ADD       A,#0xb
   \   00002B   F582         MOV       DPL,A
   \   00002D   E4           CLR       A
   \   00002E   38           ADDC      A,R0
   \   00002F   F583         MOV       DPH,A
   \   000031   E0           MOVX      A,@DPTR
   \   000032   F5..         MOV       ?V2,A
   2984            }
   2985            else
   2986            {
   2987              cnt = 0;
   2988            }
   2989          
   2990            // Make buffer
   2991            rsp = (ZDO_NwkIEEEAddrResp_t *)osal_mem_alloc( sizeof(ZDO_NwkIEEEAddrResp_t) + (cnt * sizeof ( uint16 )) );
   \                     ??ZDO_ParseAddrRsp_0:
   \   000034                ; Setup parameters for call to function osal_mem_alloc
   \   000034   A8..         MOV       R0,?V2
   \   000036   E8           MOV       A,R0
   \   000037   28           ADD       A,R0
   \   000038   F8           MOV       R0,A
   \   000039   E4           CLR       A
   \   00003A   33           RLC       A
   \   00003B   F9           MOV       R1,A
   \   00003C   E8           MOV       A,R0
   \   00003D   240D         ADD       A,#0xd
   \   00003F   FA           MOV       R2,A
   \   000040   E4           CLR       A
   \   000041   39           ADDC      A,R1
   \   000042   FB           MOV       R3,A
   \   000043   12....       LCALL     `??osal_mem_alloc::?relay`; Banked call to: osal_mem_alloc
   \   000046   8A..         MOV       ?V0,R2
   \   000048   8B..         MOV       ?V1,R3
   2992          
   2993            if ( rsp )
   \   00004A   EA           MOV       A,R2
   \   00004B   4B           ORL       A,R3
   \   00004C   7003         JNZ       $+5
   \   00004E   02....       LJMP      ??ZDO_ParseAddrRsp_1 & 0xFFFF
   2994            {
   2995              msg = inMsg->asdu;
   \   000051   EE           MOV       A,R6
   \   000052   2413         ADD       A,#0x13
   \   000054   F582         MOV       DPL,A
   \   000056   E4           CLR       A
   \   000057   3F           ADDC      A,R7
   \   000058   F583         MOV       DPH,A
   \   00005A   E0           MOVX      A,@DPTR
   \   00005B   FE           MOV       R6,A
   \   00005C   A3           INC       DPTR
   \   00005D   E0           MOVX      A,@DPTR
   \   00005E   FF           MOV       R7,A
   2996          
   2997              rsp->status = *msg++;
   \   00005F   8E82         MOV       DPL,R6
   \   000061   F583         MOV       DPH,A
   \   000063   E0           MOVX      A,@DPTR
   \   000064   F8           MOV       R0,A
   \   000065   8A82         MOV       DPL,R2
   \   000067   8B83         MOV       DPH,R3
   \   000069   F0           MOVX      @DPTR,A
   \   00006A   8E82         MOV       DPL,R6
   \   00006C   8F83         MOV       DPH,R7
   \   00006E   A3           INC       DPTR
   \   00006F   AE82         MOV       R6,DPL
   \   000071   AF83         MOV       R7,DPH
   2998              if ( rsp->status == ZDO_SUCCESS )
   \   000073   6003         JZ        $+5
   \   000075   02....       LJMP      ??ZDO_ParseAddrRsp_1 & 0xFFFF
   2999              {
   3000                osal_cpyExtAddr( rsp->extAddr, msg );
   \   000078                ; Setup parameters for call to function sAddrExtCpy
   \   000078   EE           MOV       A,R6
   \   000079   FC           MOV       R4,A
   \   00007A   EF           MOV       A,R7
   \   00007B   FD           MOV       R5,A
   \   00007C   EA           MOV       A,R2
   \   00007D   2403         ADD       A,#0x3
   \   00007F   FA           MOV       R2,A
   \   000080   E4           CLR       A
   \   000081   35..         ADDC      A,?V1
   \   000083   FB           MOV       R3,A
   \   000084   12....       LCALL     `??sAddrExtCpy::?relay`; Banked call to: sAddrExtCpy
   3001                msg += Z_EXTADDR_LEN;
   \   000087   EE           MOV       A,R6
   \   000088   2408         ADD       A,#0x8
   \   00008A   FE           MOV       R6,A
   \   00008B   5001         JNC       ??ZDO_ParseAddrRsp_2
   \   00008D   0F           INC       R7
   3002                rsp->nwkAddr = BUILD_UINT16( msg[0], msg[1] );
   \                     ??ZDO_ParseAddrRsp_2:
   \   00008E   F582         MOV       DPL,A
   \   000090   8F83         MOV       DPH,R7
   \   000092   E0           MOVX      A,@DPTR
   \   000093   FA           MOV       R2,A
   \   000094   A3           INC       DPTR
   \   000095   E0           MOVX      A,@DPTR
   \   000096   F9           MOV       R1,A
   \   000097   EA           MOV       A,R2
   \   000098   85..82       MOV       DPL,?V0
   \   00009B   85..83       MOV       DPH,?V1
   \   00009E   A3           INC       DPTR
   \   00009F   F0           MOVX      @DPTR,A
   \   0000A0   A3           INC       DPTR
   \   0000A1   E9           MOV       A,R1
   \   0000A2   F0           MOVX      @DPTR,A
   3003          
   3004                msg += 2;
   3005                rsp->numAssocDevs = 0;
   \   0000A3   E5..         MOV       A,?V0
   \   0000A5   240B         ADD       A,#0xb
   \   0000A7   F8           MOV       R0,A
   \   0000A8   E4           CLR       A
   \   0000A9   35..         ADDC      A,?V1
   \   0000AB   F9           MOV       R1,A
   \   0000AC   E8           MOV       A,R0
   \   0000AD   FA           MOV       R2,A
   \   0000AE   E9           MOV       A,R1
   \   0000AF   FB           MOV       R3,A
   \   0000B0   8882         MOV       DPL,R0
   \   0000B2   F583         MOV       DPH,A
   \   0000B4   E4           CLR       A
   \   0000B5   F0           MOVX      @DPTR,A
   3006          
   3007                // StartIndex field is only present if NumAssocDev field is non-zero.
   3008                if ( cnt > 0 )
   \   0000B6   E5..         MOV       A,?V2
   \   0000B8   605F         JZ        ??ZDO_ParseAddrRsp_1
   3009                {
   3010                  uint16 *pList = &(rsp->devList[0]);
   \   0000BA   E5..         MOV       A,?V0
   \   0000BC   240D         ADD       A,#0xd
   \   0000BE   F8           MOV       R0,A
   \   0000BF   E4           CLR       A
   \   0000C0   35..         ADDC      A,?V1
   \   0000C2   F9           MOV       R1,A
   3011                  byte n = cnt;
   \   0000C3   85....       MOV       ?V3,?V2
   3012          
   3013                  rsp->numAssocDevs = *msg++;
   \   0000C6   8E82         MOV       DPL,R6
   \   0000C8   8F83         MOV       DPH,R7
   \   0000CA   A3           INC       DPTR
   \   0000CB   A3           INC       DPTR
   \   0000CC   E0           MOVX      A,@DPTR
   \   0000CD   8A82         MOV       DPL,R2
   \   0000CF   8B83         MOV       DPH,R3
   \   0000D1   F0           MOVX      @DPTR,A
   3014                  rsp->startIndex = *msg++;
   \   0000D2   8E82         MOV       DPL,R6
   \   0000D4   8F83         MOV       DPH,R7
   \   0000D6   A3           INC       DPTR
   \   0000D7   A3           INC       DPTR
   \   0000D8   A3           INC       DPTR
   \   0000D9   E0           MOVX      A,@DPTR
   \   0000DA   C0E0         PUSH      A
   \   0000DC   E5..         MOV       A,?V0
   \   0000DE   240C         ADD       A,#0xc
   \   0000E0   F582         MOV       DPL,A
   \   0000E2   E4           CLR       A
   \   0000E3   35..         ADDC      A,?V1
   \   0000E5   F583         MOV       DPH,A
   \   0000E7   D0E0         POP       A
   \   0000E9   F0           MOVX      @DPTR,A
   \   0000EA   EE           MOV       A,R6
   \   0000EB   2404         ADD       A,#0x4
   \   0000ED   FE           MOV       R6,A
   \   0000EE   5025         JNC       ??ZDO_ParseAddrRsp_3
   \   0000F0   0F           INC       R7
   \   0000F1   8022         SJMP      ??ZDO_ParseAddrRsp_3
   3015          
   3016                  while ( n != 0 )
   3017                  {
   3018                    *pList++ = BUILD_UINT16( msg[0], msg[1] );
   \                     ??ZDO_ParseAddrRsp_4:
   \   0000F3   8E82         MOV       DPL,R6
   \   0000F5   8F83         MOV       DPH,R7
   \   0000F7   E0           MOVX      A,@DPTR
   \   0000F8   FC           MOV       R4,A
   \   0000F9   A3           INC       DPTR
   \   0000FA   E0           MOVX      A,@DPTR
   \   0000FB   FB           MOV       R3,A
   \   0000FC   EC           MOV       A,R4
   \   0000FD   8882         MOV       DPL,R0
   \   0000FF   8983         MOV       DPH,R1
   \   000101   F0           MOVX      @DPTR,A
   \   000102   A3           INC       DPTR
   \   000103   EB           MOV       A,R3
   \   000104   F0           MOVX      @DPTR,A
   \   000105   E8           MOV       A,R0
   \   000106   2402         ADD       A,#0x2
   \   000108   F8           MOV       R0,A
   \   000109   5001         JNC       ??ZDO_ParseAddrRsp_5
   \   00010B   09           INC       R1
   3019                    msg += sizeof( uint16 );
   \                     ??ZDO_ParseAddrRsp_5:
   \   00010C   EE           MOV       A,R6
   \   00010D   2402         ADD       A,#0x2
   \   00010F   FE           MOV       R6,A
   \   000110   5001         JNC       ??ZDO_ParseAddrRsp_6
   \   000112   0F           INC       R7
   3020                    n--;
   \                     ??ZDO_ParseAddrRsp_6:
   \   000113   15..         DEC       ?V3
   3021                  }
   \                     ??ZDO_ParseAddrRsp_3:
   \   000115   E5..         MOV       A,?V3
   \   000117   70DA         JNZ       ??ZDO_ParseAddrRsp_4
   3022                }
   3023              }
   3024            }
   3025          
   3026            return ( rsp );
   \                     ??ZDO_ParseAddrRsp_1:
   \   000119   AA..         MOV       R2,?V0
   \   00011B   AB..         MOV       R3,?V1
   \   00011D   7F06         MOV       R7,#0x6
   \   00011F   02....       LJMP      ?BANKED_LEAVE_XDATA
   3027          }
   3028          
   3029          /*********************************************************************
   3030           * @fn          ZDO_ParseNodeDescRsp
   3031           *
   3032           * @brief       This function parses the Node_Desc_rsp message.
   3033           *
   3034           * @param       inMsg - incoming message
   3035           * @param       pNDRsp - place to parse the message into
   3036           *
   3037           * @return      none
   3038           */

   \                                 In  segment BANKED_CODE, align 1, keep-with-next
   3039          void ZDO_ParseNodeDescRsp( zdoIncomingMsg_t *inMsg, ZDO_NodeDescRsp_t *pNDRsp )
   \                     ZDO_ParseNodeDescRsp:
   3040          {
   \   000000                REQUIRE ?V0
   \   000000                REQUIRE ?V1
   \   000000   74F6         MOV       A,#-0xa
   \   000002   12....       LCALL     ?BANKED_ENTER_XDATA
   \   000005                ; Saved register size: 10
   \   000005                ; Auto size: 0
   3041            uint8 *msg;
   3042          
   3043            msg = inMsg->asdu;
   \   000005   EA           MOV       A,R2
   \   000006   2413         ADD       A,#0x13
   \   000008   F582         MOV       DPL,A
   \   00000A   E4           CLR       A
   \   00000B   3B           ADDC      A,R3
   \   00000C   F583         MOV       DPH,A
   \   00000E   E0           MOVX      A,@DPTR
   \   00000F   F8           MOV       R0,A
   \   000010   A3           INC       DPTR
   \   000011   E0           MOVX      A,@DPTR
   \   000012   F9           MOV       R1,A
   3044          
   3045            pNDRsp->status = *msg++;
   \   000013   8882         MOV       DPL,R0
   \   000015   F583         MOV       DPH,A
   \   000017   E0           MOVX      A,@DPTR
   \   000018   8C82         MOV       DPL,R4
   \   00001A   8D83         MOV       DPH,R5
   \   00001C   F0           MOVX      @DPTR,A
   \   00001D   8882         MOV       DPL,R0
   \   00001F   8983         MOV       DPH,R1
   \   000021   A3           INC       DPTR
   \   000022   A882         MOV       R0,DPL
   \   000024   A983         MOV       R1,DPH
   3046            pNDRsp->nwkAddr = BUILD_UINT16( msg[0], msg[1] );
   \   000026   E0           MOVX      A,@DPTR
   \   000027   FE           MOV       R6,A
   \   000028   A3           INC       DPTR
   \   000029   E0           MOVX      A,@DPTR
   \   00002A   FB           MOV       R3,A
   \   00002B   EE           MOV       A,R6
   \   00002C   8C82         MOV       DPL,R4
   \   00002E   8D83         MOV       DPH,R5
   \   000030   A3           INC       DPTR
   \   000031   F0           MOVX      @DPTR,A
   \   000032   A3           INC       DPTR
   \   000033   EB           MOV       A,R3
   \   000034   F0           MOVX      @DPTR,A
   3047          
   3048            if ( pNDRsp->status == ZDP_SUCCESS )
   \   000035   8C82         MOV       DPL,R4
   \   000037   8D83         MOV       DPH,R5
   \   000039   E0           MOVX      A,@DPTR
   \   00003A   6003         JZ        $+5
   \   00003C   02....       LJMP      ??ZDO_ParseNodeDescRsp_0 & 0xFFFF
   3049            {
   3050              msg += 2;
   3051              pNDRsp->nodeDesc.LogicalType = *msg & 0x07;
   \   00003F   E8           MOV       A,R0
   \   000040   2402         ADD       A,#0x2
   \   000042   FA           MOV       R2,A
   \   000043   E4           CLR       A
   \   000044   39           ADDC      A,R1
   \   000045   FB           MOV       R3,A
   \   000046   8A82         MOV       DPL,R2
   \   000048   F583         MOV       DPH,A
   \   00004A   E0           MOVX      A,@DPTR
   \   00004B   5407         ANL       A,#0x7
   \   00004D   F5..         MOV       ?V0,A
   \   00004F   EC           MOV       A,R4
   \   000050   2403         ADD       A,#0x3
   \   000052   FE           MOV       R6,A
   \   000053   E4           CLR       A
   \   000054   3D           ADDC      A,R5
   \   000055   FF           MOV       R7,A
   \   000056   8E82         MOV       DPL,R6
   \   000058   F583         MOV       DPH,A
   \   00005A   E0           MOVX      A,@DPTR
   \   00005B   54F8         ANL       A,#0xf8
   \   00005D   45..         ORL       A,?V0
   \   00005F   F5..         MOV       ?V1,A
   \   000061   F0           MOVX      @DPTR,A
   3052          
   3053              pNDRsp->nodeDesc.ComplexDescAvail = ( *msg & 0x08 ) >> 3;
   \   000062   8A82         MOV       DPL,R2
   \   000064   8B83         MOV       DPH,R3
   \   000066   E0           MOVX      A,@DPTR
   \   000067   A2E3         MOV       C,0xE0 /* A   */.3
   \   000069   E4           CLR       A
   \   00006A   33           RLC       A
   \   00006B   F5..         MOV       ?V0,A
   \   00006D   A2E0         MOV       C,0xE0 /* A   */.0
   \   00006F   E4           CLR       A
   \   000070   33           RLC       A
   \   000071   33           RLC       A
   \   000072   33           RLC       A
   \   000073   33           RLC       A
   \   000074   F5..         MOV       ?V0,A
   \   000076   74F7         MOV       A,#-0x9
   \   000078   55..         ANL       A,?V1
   \   00007A   45..         ORL       A,?V0
   \   00007C   F5..         MOV       ?V0,A
   \   00007E   8E82         MOV       DPL,R6
   \   000080   8F83         MOV       DPH,R7
   \   000082   F0           MOVX      @DPTR,A
   3054              pNDRsp->nodeDesc.UserDescAvail = ( *msg & 0x10 ) >> 4;
   \   000083   8A82         MOV       DPL,R2
   \   000085   8B83         MOV       DPH,R3
   \   000087   E0           MOVX      A,@DPTR
   \   000088   A2E4         MOV       C,0xE0 /* A   */.4
   \   00008A   E4           CLR       A
   \   00008B   33           RLC       A
   \   00008C   FA           MOV       R2,A
   \   00008D   A2E0         MOV       C,0xE0 /* A   */.0
   \   00008F   E4           CLR       A
   \   000090   33           RLC       A
   \   000091   C4           SWAP      A
   \   000092   FA           MOV       R2,A
   \   000093   74EF         MOV       A,#-0x11
   \   000095   55..         ANL       A,?V0
   \   000097   4A           ORL       A,R2
   \   000098   8E82         MOV       DPL,R6
   \   00009A   8F83         MOV       DPH,R7
   \   00009C   F0           MOVX      @DPTR,A
   3055          
   3056              msg++;  // Reserved bits.
   3057              pNDRsp->nodeDesc.FrequencyBand = (*msg >> 3) & 0x1f;
   \   00009D   E8           MOV       A,R0
   \   00009E   2403         ADD       A,#0x3
   \   0000A0   FA           MOV       R2,A
   \   0000A1   E4           CLR       A
   \   0000A2   39           ADDC      A,R1
   \   0000A3   FB           MOV       R3,A
   \   0000A4   8A82         MOV       DPL,R2
   \   0000A6   F583         MOV       DPH,A
   \   0000A8   E0           MOVX      A,@DPTR
   \   0000A9   13           RRC       A
   \   0000AA   13           RRC       A
   \   0000AB   13           RRC       A
   \   0000AC   541F         ANL       A,#0x1f
   \   0000AE   F5..         MOV       ?V0,A
   \   0000B0   EC           MOV       A,R4
   \   0000B1   2404         ADD       A,#0x4
   \   0000B3   0E           INC       R6
   \   0000B4   E4           CLR       A
   \   0000B5   3D           ADDC      A,R5
   \   0000B6   FF           MOV       R7,A
   \   0000B7   E5..         MOV       A,?V0
   \   0000B9   33           RLC       A
   \   0000BA   33           RLC       A
   \   0000BB   33           RLC       A
   \   0000BC   54F8         ANL       A,#0xf8
   \   0000BE   F5..         MOV       ?V0,A
   \   0000C0   8E82         MOV       DPL,R6
   \   0000C2   8F83         MOV       DPH,R7
   \   0000C4   E0           MOVX      A,@DPTR
   \   0000C5   5407         ANL       A,#0x7
   \   0000C7   45..         ORL       A,?V0
   \   0000C9   F5..         MOV       ?V0,A
   \   0000CB   F0           MOVX      @DPTR,A
   3058              pNDRsp->nodeDesc.APSFlags = *msg++ & 0x07;
   \   0000CC   8A82         MOV       DPL,R2
   \   0000CE   8B83         MOV       DPH,R3
   \   0000D0   E0           MOVX      A,@DPTR
   \   0000D1   5407         ANL       A,#0x7
   \   0000D3   FA           MOV       R2,A
   \   0000D4   74F8         MOV       A,#-0x8
   \   0000D6   55..         ANL       A,?V0
   \   0000D8   4A           ORL       A,R2
   \   0000D9   8E82         MOV       DPL,R6
   \   0000DB   8F83         MOV       DPH,R7
   \   0000DD   F0           MOVX      @DPTR,A
   3059              pNDRsp->nodeDesc.CapabilityFlags = *msg++;
   \   0000DE   8882         MOV       DPL,R0
   \   0000E0   8983         MOV       DPH,R1
   \   0000E2   A3           INC       DPTR
   \   0000E3   A3           INC       DPTR
   \   0000E4   A3           INC       DPTR
   \   0000E5   A3           INC       DPTR
   \   0000E6   E0           MOVX      A,@DPTR
   \   0000E7   8C82         MOV       DPL,R4
   \   0000E9   8D83         MOV       DPH,R5
   \   0000EB   A3           INC       DPTR
   \   0000EC   A3           INC       DPTR
   \   0000ED   A3           INC       DPTR
   \   0000EE   A3           INC       DPTR
   \   0000EF   A3           INC       DPTR
   \   0000F0   F0           MOVX      @DPTR,A
   3060              pNDRsp->nodeDesc.ManufacturerCode[0] = *msg++;
   \   0000F1   8882         MOV       DPL,R0
   \   0000F3   8983         MOV       DPH,R1
   \   0000F5   A3           INC       DPTR
   \   0000F6   A3           INC       DPTR
   \   0000F7   A3           INC       DPTR
   \   0000F8   A3           INC       DPTR
   \   0000F9   A3           INC       DPTR
   \   0000FA   E0           MOVX      A,@DPTR
   \   0000FB   8C82         MOV       DPL,R4
   \   0000FD   8D83         MOV       DPH,R5
   \   0000FF   A3           INC       DPTR
   \   000100   A3           INC       DPTR
   \   000101   A3           INC       DPTR
   \   000102   A3           INC       DPTR
   \   000103   A3           INC       DPTR
   \   000104   A3           INC       DPTR
   \   000105   F0           MOVX      @DPTR,A
   3061              pNDRsp->nodeDesc.ManufacturerCode[1] = *msg++;
   \   000106   8882         MOV       DPL,R0
   \   000108   8983         MOV       DPH,R1
   \   00010A   A3           INC       DPTR
   \   00010B   A3           INC       DPTR
   \   00010C   A3           INC       DPTR
   \   00010D   A3           INC       DPTR
   \   00010E   A3           INC       DPTR
   \   00010F   A3           INC       DPTR
   \   000110   E0           MOVX      A,@DPTR
   \   000111   8C82         MOV       DPL,R4
   \   000113   8D83         MOV       DPH,R5
   \   000115   A3           INC       DPTR
   \   000116   A3           INC       DPTR
   \   000117   A3           INC       DPTR
   \   000118   A3           INC       DPTR
   \   000119   A3           INC       DPTR
   \   00011A   A3           INC       DPTR
   \   00011B   A3           INC       DPTR
   \   00011C   F0           MOVX      @DPTR,A
   3062              pNDRsp->nodeDesc.MaxBufferSize = *msg++;
   \   00011D   8882         MOV       DPL,R0
   \   00011F   8983         MOV       DPH,R1
   \   000121   A3           INC       DPTR
   \   000122   A3           INC       DPTR
   \   000123   A3           INC       DPTR
   \   000124   A3           INC       DPTR
   \   000125   A3           INC       DPTR
   \   000126   A3           INC       DPTR
   \   000127   A3           INC       DPTR
   \   000128   E0           MOVX      A,@DPTR
   \   000129   8C82         MOV       DPL,R4
   \   00012B   8D83         MOV       DPH,R5
   \   00012D   A3           INC       DPTR
   \   00012E   A3           INC       DPTR
   \   00012F   A3           INC       DPTR
   \   000130   A3           INC       DPTR
   \   000131   A3           INC       DPTR
   \   000132   A3           INC       DPTR
   \   000133   A3           INC       DPTR
   \   000134   A3           INC       DPTR
   \   000135   F0           MOVX      @DPTR,A
   3063              pNDRsp->nodeDesc.MaxInTransferSize[0] = *msg++;
   \   000136   8882         MOV       DPL,R0
   \   000138   8983         MOV       DPH,R1
   \   00013A   A3           INC       DPTR
   \   00013B   A3           INC       DPTR
   \   00013C   A3           INC       DPTR
   \   00013D   A3           INC       DPTR
   \   00013E   A3           INC       DPTR
   \   00013F   A3           INC       DPTR
   \   000140   A3           INC       DPTR
   \   000141   A3           INC       DPTR
   \   000142   E0           MOVX      A,@DPTR
   \   000143   8C82         MOV       DPL,R4
   \   000145   8D83         MOV       DPH,R5
   \   000147   A3           INC       DPTR
   \   000148   A3           INC       DPTR
   \   000149   A3           INC       DPTR
   \   00014A   A3           INC       DPTR
   \   00014B   A3           INC       DPTR
   \   00014C   A3           INC       DPTR
   \   00014D   A3           INC       DPTR
   \   00014E   A3           INC       DPTR
   \   00014F   A3           INC       DPTR
   \   000150   F0           MOVX      @DPTR,A
   3064              pNDRsp->nodeDesc.MaxInTransferSize[1] = *msg++;
   \   000151   8882         MOV       DPL,R0
   \   000153   8983         MOV       DPH,R1
   \   000155   A3           INC       DPTR
   \   000156   A3           INC       DPTR
   \   000157   A3           INC       DPTR
   \   000158   A3           INC       DPTR
   \   000159   A3           INC       DPTR
   \   00015A   A3           INC       DPTR
   \   00015B   A3           INC       DPTR
   \   00015C   A3           INC       DPTR
   \   00015D   A3           INC       DPTR
   \   00015E   E0           MOVX      A,@DPTR
   \   00015F   8C82         MOV       DPL,R4
   \   000161   8D83         MOV       DPH,R5
   \   000163   A3           INC       DPTR
   \   000164   A3           INC       DPTR
   \   000165   A3           INC       DPTR
   \   000166   A3           INC       DPTR
   \   000167   A3           INC       DPTR
   \   000168   A3           INC       DPTR
   \   000169   A3           INC       DPTR
   \   00016A   A3           INC       DPTR
   \   00016B   A3           INC       DPTR
   \   00016C   A3           INC       DPTR
   \   00016D   F0           MOVX      @DPTR,A
   \   00016E   E8           MOV       A,R0
   \   00016F   240A         ADD       A,#0xa
   \   000171   F8           MOV       R0,A
   \   000172   5001         JNC       ??ZDO_ParseNodeDescRsp_1
   \   000174   09           INC       R1
   3065              pNDRsp->nodeDesc.ServerMask = BUILD_UINT16( msg[0], msg[1] );
   \                     ??ZDO_ParseNodeDescRsp_1:
   \   000175   F582         MOV       DPL,A
   \   000177   8983         MOV       DPH,R1
   \   000179   E0           MOVX      A,@DPTR
   \   00017A   FE           MOV       R6,A
   \   00017B   A3           INC       DPTR
   \   00017C   E0           MOVX      A,@DPTR
   \   00017D   FB           MOV       R3,A
   \   00017E   EC           MOV       A,R4
   \   00017F   240B         ADD       A,#0xb
   \   000181   F582         MOV       DPL,A
   \   000183   E4           CLR       A
   \   000184   3D           ADDC      A,R5
   \   000185   F583         MOV       DPH,A
   \   000187   EE           MOV       A,R6
   \   000188   F0           MOVX      @DPTR,A
   \   000189   A3           INC       DPTR
   \   00018A   EB           MOV       A,R3
   \   00018B   F0           MOVX      @DPTR,A
   3066              msg += 2;
   3067              pNDRsp->nodeDesc.MaxOutTransferSize[0] = *msg++;
   \   00018C   8882         MOV       DPL,R0
   \   00018E   8983         MOV       DPH,R1
   \   000190   A3           INC       DPTR
   \   000191   A3           INC       DPTR
   \   000192   E0           MOVX      A,@DPTR
   \   000193   C0E0         PUSH      A
   \   000195   EC           MOV       A,R4
   \   000196   240D         ADD       A,#0xd
   \   000198   F582         MOV       DPL,A
   \   00019A   E4           CLR       A
   \   00019B   3D           ADDC      A,R5
   \   00019C   F583         MOV       DPH,A
   \   00019E   D0E0         POP       A
   \   0001A0   F0           MOVX      @DPTR,A
   3068              pNDRsp->nodeDesc.MaxOutTransferSize[1] = *msg++;
   \   0001A1   8882         MOV       DPL,R0
   \   0001A3   8983         MOV       DPH,R1
   \   0001A5   A3           INC       DPTR
   \   0001A6   A3           INC       DPTR
   \   0001A7   A3           INC       DPTR
   \   0001A8   E0           MOVX      A,@DPTR
   \   0001A9   C0E0         PUSH      A
   \   0001AB   EC           MOV       A,R4
   \   0001AC   240E         ADD       A,#0xe
   \   0001AE   F582         MOV       DPL,A
   \   0001B0   E4           CLR       A
   \   0001B1   3D           ADDC      A,R5
   \   0001B2   F583         MOV       DPH,A
   \   0001B4   D0E0         POP       A
   \   0001B6   F0           MOVX      @DPTR,A
   3069              pNDRsp->nodeDesc.DescriptorCapability = *msg;
   \   0001B7   8882         MOV       DPL,R0
   \   0001B9   8983         MOV       DPH,R1
   \   0001BB   A3           INC       DPTR
   \   0001BC   A3           INC       DPTR
   \   0001BD   A3           INC       DPTR
   \   0001BE   A3           INC       DPTR
   \   0001BF   E0           MOVX      A,@DPTR
   \   0001C0   C0E0         PUSH      A
   \   0001C2   EC           MOV       A,R4
   \   0001C3   240F         ADD       A,#0xf
   \   0001C5   F582         MOV       DPL,A
   \   0001C7   E4           CLR       A
   \   0001C8   3D           ADDC      A,R5
   \   0001C9   F583         MOV       DPH,A
   \   0001CB   D0E0         POP       A
   \   0001CD   F0           MOVX      @DPTR,A
   3070            }
   3071          }
   \                     ??ZDO_ParseNodeDescRsp_0:
   \   0001CE   7F02         MOV       R7,#0x2
   \   0001D0   02....       LJMP      ?BANKED_LEAVE_XDATA
   3072          
   3073          /*********************************************************************
   3074           * @fn          ZDO_ParsePowerDescRsp
   3075           *
   3076           * @brief       This function parses the Power_Desc_rsp message.
   3077           *
   3078           * @param       inMsg  - incoming message
   3079           * @param       pNPRsp - place to parse the message into
   3080           *
   3081           * @return      none
   3082           */

   \                                 In  segment BANKED_CODE, align 1, keep-with-next
   3083          void ZDO_ParsePowerDescRsp( zdoIncomingMsg_t *inMsg, ZDO_PowerRsp_t *pNPRsp )
   \                     ZDO_ParsePowerDescRsp:
   3084          {
   \   000000                REQUIRE ?V0
   \   000000                REQUIRE ?V1
   \   000000   74F6         MOV       A,#-0xa
   \   000002   12....       LCALL     ?BANKED_ENTER_XDATA
   \   000005                ; Saved register size: 10
   \   000005                ; Auto size: 0
   3085            uint8 *msg;
   3086          
   3087            msg = inMsg->asdu;
   \   000005   EA           MOV       A,R2
   \   000006   2413         ADD       A,#0x13
   \   000008   F582         MOV       DPL,A
   \   00000A   E4           CLR       A
   \   00000B   3B           ADDC      A,R3
   \   00000C   F583         MOV       DPH,A
   \   00000E   E0           MOVX      A,@DPTR
   \   00000F   FA           MOV       R2,A
   \   000010   A3           INC       DPTR
   \   000011   E0           MOVX      A,@DPTR
   \   000012   FB           MOV       R3,A
   3088            pNPRsp->status = *msg++;
   \   000013   8A82         MOV       DPL,R2
   \   000015   F583         MOV       DPH,A
   \   000017   E0           MOVX      A,@DPTR
   \   000018   8C82         MOV       DPL,R4
   \   00001A   8D83         MOV       DPH,R5
   \   00001C   F0           MOVX      @DPTR,A
   \   00001D   8A82         MOV       DPL,R2
   \   00001F   8B83         MOV       DPH,R3
   \   000021   A3           INC       DPTR
   \   000022   AA82         MOV       R2,DPL
   \   000024   AB83         MOV       R3,DPH
   3089            pNPRsp->nwkAddr = BUILD_UINT16( msg[0], msg[1] );
   \   000026   E0           MOVX      A,@DPTR
   \   000027   FE           MOV       R6,A
   \   000028   A3           INC       DPTR
   \   000029   E0           MOVX      A,@DPTR
   \   00002A   F9           MOV       R1,A
   \   00002B   EE           MOV       A,R6
   \   00002C   8C82         MOV       DPL,R4
   \   00002E   8D83         MOV       DPH,R5
   \   000030   A3           INC       DPTR
   \   000031   F0           MOVX      @DPTR,A
   \   000032   A3           INC       DPTR
   \   000033   E9           MOV       A,R1
   \   000034   F0           MOVX      @DPTR,A
   3090          
   3091            if ( pNPRsp->status == ZDP_SUCCESS )
   \   000035   8C82         MOV       DPL,R4
   \   000037   8D83         MOV       DPH,R5
   \   000039   E0           MOVX      A,@DPTR
   \   00003A   6003         JZ        $+5
   \   00003C   02....       LJMP      ??ZDO_ParsePowerDescRsp_0 & 0xFFFF
   3092            {
   3093              msg += 2;
   3094              pNPRsp->pwrDesc.AvailablePowerSources = *msg >> 4;
   \   00003F   EA           MOV       A,R2
   \   000040   2402         ADD       A,#0x2
   \   000042   F8           MOV       R0,A
   \   000043   E4           CLR       A
   \   000044   3B           ADDC      A,R3
   \   000045   F9           MOV       R1,A
   \   000046   E8           MOV       A,R0
   \   000047   FE           MOV       R6,A
   \   000048   E9           MOV       A,R1
   \   000049   FF           MOV       R7,A
   \   00004A   8882         MOV       DPL,R0
   \   00004C   F583         MOV       DPH,A
   \   00004E   E0           MOVX      A,@DPTR
   \   00004F   C4           SWAP      A
   \   000050   540F         ANL       A,#0xf
   \   000052   F5..         MOV       ?V0,A
   \   000054   75..00       MOV       ?V1,#0x0
   \   000057   EC           MOV       A,R4
   \   000058   2403         ADD       A,#0x3
   \   00005A   E4           CLR       A
   \   00005B   3D           ADDC      A,R5
   \   00005C   F9           MOV       R1,A
   \   00005D   0C           INC       R4
   \   00005E   0C           INC       R4
   \   00005F   0C           INC       R4
   \   000060   FD           MOV       R5,A
   \   000061   8C82         MOV       DPL,R4
   \   000063   F583         MOV       DPH,A
   \   000065   E0           MOVX      A,@DPTR
   \   000066   540F         ANL       A,#0xf
   \   000068   F0           MOVX      @DPTR,A
   \   000069   7404         MOV       A,#0x4
   \   00006B   78..         MOV       R0,#?V0
   \   00006D   12....       LCALL     ?S_SHL
   \   000070   A8..         MOV       R0,?V0
   \   000072   E0           MOVX      A,@DPTR
   \   000073   48           ORL       A,R0
   \   000074   F0           MOVX      @DPTR,A
   3095              pNPRsp->pwrDesc.PowerMode = *msg++ & 0x0F;
   \   000075   8E82         MOV       DPL,R6
   \   000077   8F83         MOV       DPH,R7
   \   000079   E0           MOVX      A,@DPTR
   \   00007A   540F         ANL       A,#0xf
   \   00007C   F8           MOV       R0,A
   \   00007D   8C82         MOV       DPL,R4
   \   00007F   8983         MOV       DPH,R1
   \   000081   E0           MOVX      A,@DPTR
   \   000082   54F0         ANL       A,#0xf0
   \   000084   F0           MOVX      @DPTR,A
   \   000085   E0           MOVX      A,@DPTR
   \   000086   48           ORL       A,R0
   \   000087   F0           MOVX      @DPTR,A
   3096              pNPRsp->pwrDesc.CurrentPowerSourceLevel = *msg >> 4;
   \   000088   EA           MOV       A,R2
   \   000089   2403         ADD       A,#0x3
   \   00008B   E4           CLR       A
   \   00008C   3B           ADDC      A,R3
   \   00008D   F9           MOV       R1,A
   \   00008E   0A           INC       R2
   \   00008F   0A           INC       R2
   \   000090   0A           INC       R2
   \   000091   8A82         MOV       DPL,R2
   \   000093   F583         MOV       DPH,A
   \   000095   E0           MOVX      A,@DPTR
   \   000096   C4           SWAP      A
   \   000097   540F         ANL       A,#0xf
   \   000099   F5..         MOV       ?V0,A
   \   00009B   8C82         MOV       DPL,R4
   \   00009D   8D83         MOV       DPH,R5
   \   00009F   A3           INC       DPTR
   \   0000A0   E0           MOVX      A,@DPTR
   \   0000A1   540F         ANL       A,#0xf
   \   0000A3   F0           MOVX      @DPTR,A
   \   0000A4   740C         MOV       A,#0xc
   \   0000A6   78..         MOV       R0,#?V0
   \   0000A8   12....       LCALL     ?S_SHL
   \   0000AB   8C82         MOV       DPL,R4
   \   0000AD   8D83         MOV       DPH,R5
   \   0000AF   A3           INC       DPTR
   \   0000B0   E0           MOVX      A,@DPTR
   \   0000B1   45..         ORL       A,?V1
   \   0000B3   F0           MOVX      @DPTR,A
   3097              pNPRsp->pwrDesc.CurrentPowerSource = *msg++ & 0x0F;
   \   0000B4   8A82         MOV       DPL,R2
   \   0000B6   8983         MOV       DPH,R1
   \   0000B8   E0           MOVX      A,@DPTR
   \   0000B9   540F         ANL       A,#0xf
   \   0000BB   F8           MOV       R0,A
   \   0000BC   8C82         MOV       DPL,R4
   \   0000BE   8D83         MOV       DPH,R5
   \   0000C0   A3           INC       DPTR
   \   0000C1   E0           MOVX      A,@DPTR
   \   0000C2   54F0         ANL       A,#0xf0
   \   0000C4   F0           MOVX      @DPTR,A
   \   0000C5   E8           MOV       A,R0
   \   0000C6   F9           MOV       R1,A
   \   0000C7   8C82         MOV       DPL,R4
   \   0000C9   8D83         MOV       DPH,R5
   \   0000CB   A3           INC       DPTR
   \   0000CC   E0           MOVX      A,@DPTR
   \   0000CD   49           ORL       A,R1
   \   0000CE   F0           MOVX      @DPTR,A
   3098            }
   3099          }
   \                     ??ZDO_ParsePowerDescRsp_0:
   \   0000CF   7F02         MOV       R7,#0x2
   \   0000D1   02....       LJMP      ?BANKED_LEAVE_XDATA
   3100          
   3101          /*********************************************************************
   3102           * @fn          ZDO_ParseSimpleDescRsp
   3103           *
   3104           * @brief       This function parse the Simple_Desc_rsp message.
   3105           *
   3106           *   NOTE: The pAppInClusterList and pAppOutClusterList fields
   3107           *         in the SimpleDescriptionFormat_t structure are allocated
   3108           *         and the calling function needs to free [osal_msg_free()]
   3109           *         these buffers.
   3110           *
   3111           * @param       inMsg  - incoming message
   3112           * @param       pSimpleDescRsp - place to parse the message into
   3113           *
   3114           * @return      none
   3115           */

   \                                 In  segment BANKED_CODE, align 1, keep-with-next
   3116          void ZDO_ParseSimpleDescRsp( zdoIncomingMsg_t *inMsg, ZDO_SimpleDescRsp_t *pSimpleDescRsp )
   \                     ZDO_ParseSimpleDescRsp:
   3117          {
   \   000000   74F7         MOV       A,#-0x9
   \   000002   12....       LCALL     ?BANKED_ENTER_XDATA
   \   000005                ; Saved register size: 9
   \   000005                ; Auto size: 0
   3118            uint8 *msg;
   3119          
   3120            msg = inMsg->asdu;
   \   000005   EA           MOV       A,R2
   \   000006   2413         ADD       A,#0x13
   \   000008   F582         MOV       DPL,A
   \   00000A   E4           CLR       A
   \   00000B   3B           ADDC      A,R3
   \   00000C   F583         MOV       DPH,A
   \   00000E   E0           MOVX      A,@DPTR
   \   00000F   F8           MOV       R0,A
   \   000010   A3           INC       DPTR
   \   000011   E0           MOVX      A,@DPTR
   \   000012   F9           MOV       R1,A
   3121            pSimpleDescRsp->status = *msg++;
   \   000013   8882         MOV       DPL,R0
   \   000015   F583         MOV       DPH,A
   \   000017   E0           MOVX      A,@DPTR
   \   000018   8C82         MOV       DPL,R4
   \   00001A   8D83         MOV       DPH,R5
   \   00001C   F0           MOVX      @DPTR,A
   \   00001D   8882         MOV       DPL,R0
   \   00001F   8983         MOV       DPH,R1
   \   000021   A3           INC       DPTR
   \   000022   A882         MOV       R0,DPL
   \   000024   A983         MOV       R1,DPH
   3122            pSimpleDescRsp->nwkAddr = BUILD_UINT16( msg[0], msg[1] );
   \   000026   E0           MOVX      A,@DPTR
   \   000027   FE           MOV       R6,A
   \   000028   A3           INC       DPTR
   \   000029   E0           MOVX      A,@DPTR
   \   00002A   FB           MOV       R3,A
   \   00002B   EE           MOV       A,R6
   \   00002C   8C82         MOV       DPL,R4
   \   00002E   8D83         MOV       DPH,R5
   \   000030   A3           INC       DPTR
   \   000031   F0           MOVX      @DPTR,A
   \   000032   A3           INC       DPTR
   \   000033   EB           MOV       A,R3
   \   000034   F0           MOVX      @DPTR,A
   3123            msg += sizeof ( uint16 );
   3124            msg++; // Skip past the length field.
   3125          
   3126            if ( pSimpleDescRsp->status == ZDP_SUCCESS )
   \   000035   8C82         MOV       DPL,R4
   \   000037   8D83         MOV       DPH,R5
   \   000039   E0           MOVX      A,@DPTR
   \   00003A   7011         JNZ       ??ZDO_ParseSimpleDescRsp_0
   3127            {
   3128              ZDO_ParseSimpleDescBuf( msg, &(pSimpleDescRsp->simpleDesc) );
   \   00003C                ; Setup parameters for call to function ZDO_ParseSimpleDescBuf
   \   00003C   EC           MOV       A,R4
   \   00003D   2403         ADD       A,#0x3
   \   00003F   FC           MOV       R4,A
   \   000040   5001         JNC       ??ZDO_ParseSimpleDescRsp_1
   \   000042   0D           INC       R5
   \                     ??ZDO_ParseSimpleDescRsp_1:
   \   000043   E8           MOV       A,R0
   \   000044   2403         ADD       A,#0x3
   \   000046   FA           MOV       R2,A
   \   000047   E4           CLR       A
   \   000048   39           ADDC      A,R1
   \   000049   FB           MOV       R3,A
   \   00004A   12....       LCALL     `??ZDO_ParseSimpleDescBuf::?relay`; Banked call to: ZDO_ParseSimpleDescBuf
   3129            }
   3130          }
   \                     ??ZDO_ParseSimpleDescRsp_0:
   \   00004D   7F01         MOV       R7,#0x1
   \   00004F   02....       LJMP      ?BANKED_LEAVE_XDATA
   3131          
   3132          /*********************************************************************
   3133           * @fn          ZDO_ParseEPListRsp
   3134           *
   3135           * @brief       This parse the Active_EP_rsp or Match_Desc_rsp message.
   3136           *
   3137           * @param       inMsg  - incoming message
   3138           *
   3139           * @return      none
   3140           */

   \                                 In  segment BANKED_CODE, align 1, keep-with-next
   3141          ZDO_ActiveEndpointRsp_t *ZDO_ParseEPListRsp( zdoIncomingMsg_t *inMsg )
   \                     ZDO_ParseEPListRsp:
   3142          {
   \   000000                REQUIRE ?V0
   \   000000                REQUIRE ?V1
   \   000000                REQUIRE ?V2
   \   000000                REQUIRE ?V3
   \   000000                REQUIRE ?V4
   \   000000                REQUIRE ?V5
   \   000000                REQUIRE ?V6
   \   000000                REQUIRE ?V7
   \   000000   74F0         MOV       A,#-0x10
   \   000002   12....       LCALL     ?BANKED_ENTER_XDATA
   \   000005                ; Saved register size: 16
   \   000005                ; Auto size: 0
   3143            ZDO_ActiveEndpointRsp_t *pRsp;
   3144            uint8 *msg;
   3145            uint8 Status;
   3146            uint8 cnt;
   3147          
   3148            msg = inMsg->asdu;
   \   000005   EA           MOV       A,R2
   \   000006   2413         ADD       A,#0x13
   \   000008   F582         MOV       DPL,A
   \   00000A   E4           CLR       A
   \   00000B   3B           ADDC      A,R3
   \   00000C   F583         MOV       DPH,A
   \   00000E   E0           MOVX      A,@DPTR
   \   00000F   F5..         MOV       ?V2,A
   \   000011   A3           INC       DPTR
   \   000012   E0           MOVX      A,@DPTR
   3149            Status = *msg++;
   \   000013   85..82       MOV       DPL,?V2
   \   000016   F583         MOV       DPH,A
   \   000018   E0           MOVX      A,@DPTR
   \   000019   F5..         MOV       ?V5,A
   \   00001B   A3           INC       DPTR
   \   00001C   8582..       MOV       ?V2,DPL
   \   00001F   8583..       MOV       ?V3,DPH
   3150            cnt = msg[2];
   \   000022   A3           INC       DPTR
   \   000023   A3           INC       DPTR
   \   000024   E0           MOVX      A,@DPTR
   \   000025   F5..         MOV       ?V4,A
   3151          
   3152            pRsp = (ZDO_ActiveEndpointRsp_t *)osal_mem_alloc( sizeof(  ZDO_ActiveEndpointRsp_t ) + cnt );
   \   000027   F5..         MOV       ?V0,A
   \   000029                ; Setup parameters for call to function osal_mem_alloc
   \   000029   2404         ADD       A,#0x4
   \   00002B   FA           MOV       R2,A
   \   00002C   E4           CLR       A
   \   00002D   3400         ADDC      A,#0x0
   \   00002F   FB           MOV       R3,A
   \   000030   12....       LCALL     `??osal_mem_alloc::?relay`; Banked call to: osal_mem_alloc
   \   000033   8A..         MOV       ?V6,R2
   \   000035   8B..         MOV       ?V7,R3
   \   000037   AE..         MOV       R6,?V6
   \   000039   AF..         MOV       R7,?V7
   3153            if ( pRsp )
   \   00003B   EA           MOV       A,R2
   \   00003C   4F           ORL       A,R7
   \   00003D   6054         JZ        ??ZDO_ParseEPListRsp_0
   3154            {
   3155              pRsp->status = Status;
   \   00003F   8A82         MOV       DPL,R2
   \   000041   8B83         MOV       DPH,R3
   \   000043   E5..         MOV       A,?V5
   \   000045   F0           MOVX      @DPTR,A
   3156              pRsp->nwkAddr = BUILD_UINT16( msg[0], msg[1] );
   \   000046   85..82       MOV       DPL,?V2
   \   000049   85..83       MOV       DPH,?V3
   \   00004C   E0           MOVX      A,@DPTR
   \   00004D   FA           MOV       R2,A
   \   00004E   A3           INC       DPTR
   \   00004F   E0           MOVX      A,@DPTR
   \   000050   F8           MOV       R0,A
   \   000051   E4           CLR       A
   \   000052   C8           XCH       A,R0
   \   000053   F9           MOV       R1,A
   \   000054   EA           MOV       A,R2
   \   000055   8E82         MOV       DPL,R6
   \   000057   8B83         MOV       DPH,R3
   \   000059   A3           INC       DPTR
   \   00005A   F0           MOVX      @DPTR,A
   \   00005B   A3           INC       DPTR
   \   00005C   E9           MOV       A,R1
   \   00005D   F0           MOVX      @DPTR,A
   3157              msg += sizeof( uint16 );
   3158              pRsp->cnt = cnt;
   \   00005E   8E82         MOV       DPL,R6
   \   000060   8B83         MOV       DPH,R3
   \   000062   A3           INC       DPTR
   \   000063   A3           INC       DPTR
   \   000064   A3           INC       DPTR
   \   000065   E5..         MOV       A,?V4
   \   000067   F0           MOVX      @DPTR,A
   3159              msg++; // pass cnt
   3160              osal_memcpy( pRsp->epList, msg, cnt );
   \   000068                ; Setup parameters for call to function osal_memcpy
   \   000068   85..82       MOV       DPL,?V2
   \   00006B   85..83       MOV       DPH,?V3
   \   00006E   A3           INC       DPTR
   \   00006F   A3           INC       DPTR
   \   000070   A3           INC       DPTR
   \   000071   A982         MOV       R1,DPL
   \   000073   AA83         MOV       R2,DPH
   \   000075   89..         MOV       ?V4,R1
   \   000077   8A..         MOV       ?V5,R2
   \   000079   88..         MOV       ?V6,R0
   \   00007B   78..         MOV       R0,#?V4
   \   00007D   12....       LCALL     ?PUSH_XSTACK_I_THREE
   \   000080   AC..         MOV       R4,?V0
   \   000082   7D00         MOV       R5,#0x0
   \   000084   EE           MOV       A,R6
   \   000085   2404         ADD       A,#0x4
   \   000087   FA           MOV       R2,A
   \   000088   E4           CLR       A
   \   000089   3F           ADDC      A,R7
   \   00008A   FB           MOV       R3,A
   \   00008B   12....       LCALL     `??osal_memcpy::?relay`; Banked call to: osal_memcpy
   \   00008E   7403         MOV       A,#0x3
   \   000090   12....       LCALL     ?DEALLOC_XSTACK8
   3161            }
   3162          
   3163            return ( pRsp );
   \                     ??ZDO_ParseEPListRsp_0:
   \   000093   EE           MOV       A,R6
   \   000094   FA           MOV       R2,A
   \   000095   EF           MOV       A,R7
   \   000096   FB           MOV       R3,A
   \   000097   7F08         MOV       R7,#0x8
   \   000099   02....       LJMP      ?BANKED_LEAVE_XDATA
   3164          }
   3165          
   3166          /*********************************************************************
   3167           * @fn          ZDO_ParseServerDiscRsp
   3168           *
   3169           * @brief       Parse the Server_Discovery_rsp message.
   3170           *
   3171           * @param       inMsg - incoming message.
   3172           * @param       pRsp - place to put the parsed information.
   3173           *
   3174           * @return      none
   3175           */

   \                                 In  segment BANKED_CODE, align 1, keep-with-next
   3176          void ZDO_ParseServerDiscRsp( zdoIncomingMsg_t *inMsg, ZDO_ServerDiscRsp_t *pRsp )
   \                     ZDO_ParseServerDiscRsp:
   3177          {
   \   000000   74F7         MOV       A,#-0x9
   \   000002   12....       LCALL     ?BANKED_ENTER_XDATA
   \   000005                ; Saved register size: 9
   \   000005                ; Auto size: 0
   3178            pRsp->status = inMsg->asdu[0];
   \   000005   EA           MOV       A,R2
   \   000006   2413         ADD       A,#0x13
   \   000008   F8           MOV       R0,A
   \   000009   E4           CLR       A
   \   00000A   3B           ADDC      A,R3
   \   00000B   F9           MOV       R1,A
   \   00000C   8882         MOV       DPL,R0
   \   00000E   F583         MOV       DPH,A
   \   000010   E0           MOVX      A,@DPTR
   \   000011   FA           MOV       R2,A
   \   000012   A3           INC       DPTR
   \   000013   E0           MOVX      A,@DPTR
   \   000014   F583         MOV       DPH,A
   \   000016   8A82         MOV       DPL,R2
   \   000018   E0           MOVX      A,@DPTR
   \   000019   8C82         MOV       DPL,R4
   \   00001B   8D83         MOV       DPH,R5
   \   00001D   F0           MOVX      @DPTR,A
   3179            pRsp->serverMask = BUILD_UINT16( inMsg->asdu[1], inMsg->asdu[2] );
   \   00001E   8882         MOV       DPL,R0
   \   000020   8983         MOV       DPH,R1
   \   000022   E0           MOVX      A,@DPTR
   \   000023   F8           MOV       R0,A
   \   000024   A3           INC       DPTR
   \   000025   E0           MOVX      A,@DPTR
   \   000026   F9           MOV       R1,A
   \   000027   8882         MOV       DPL,R0
   \   000029   F583         MOV       DPH,A
   \   00002B   A3           INC       DPTR
   \   00002C   E0           MOVX      A,@DPTR
   \   00002D   FA           MOV       R2,A
   \   00002E   8882         MOV       DPL,R0
   \   000030   8983         MOV       DPH,R1
   \   000032   A3           INC       DPTR
   \   000033   A3           INC       DPTR
   \   000034   E0           MOVX      A,@DPTR
   \   000035   F9           MOV       R1,A
   \   000036   EA           MOV       A,R2
   \   000037   8C82         MOV       DPL,R4
   \   000039   8D83         MOV       DPH,R5
   \   00003B   A3           INC       DPTR
   \   00003C   F0           MOVX      @DPTR,A
   \   00003D   A3           INC       DPTR
   \   00003E   E9           MOV       A,R1
   \   00003F   F0           MOVX      @DPTR,A
   3180          }
   \   000040   7F01         MOV       R7,#0x1
   \   000042   02....       LJMP      ?BANKED_LEAVE_XDATA
   3181          
   3182          /*********************************************************************
   3183           * @fn          ZDO_ParseMgmtLqiRsp
   3184           *
   3185           * @brief       This function parses the incoming Management
   3186           *              LQI response
   3187           *
   3188           * @param       inMsg - incoming message
   3189           *
   3190           * @return      a pointer to parsed response structure (NULL if not allocated).
   3191           *          This structure was allocated using osal_mem_alloc, so it must be freed
   3192           *          by the calling function [osal_mem_free()].
   3193           */

   \                                 In  segment BANKED_CODE, align 1, keep-with-next
   3194          ZDO_MgmtLqiRsp_t *ZDO_ParseMgmtLqiRsp( zdoIncomingMsg_t *inMsg )
   \                     ZDO_ParseMgmtLqiRsp:
   3195          {
   \   000000                REQUIRE ?V0
   \   000000                REQUIRE ?V1
   \   000000                REQUIRE ?V2
   \   000000                REQUIRE ?V3
   \   000000                REQUIRE ?V4
   \   000000                REQUIRE ?V5
   \   000000                REQUIRE ?V6
   \   000000                REQUIRE ?V7
   \   000000   74F0         MOV       A,#-0x10
   \   000002   12....       LCALL     ?BANKED_ENTER_XDATA
   \   000005                ; Saved register size: 16
   \   000005                ; Auto size: 0
   3196            ZDO_MgmtLqiRsp_t *pRsp;
   3197            uint8 status;
   3198            uint8 startIndex = 0;
   \   000005   75..00       MOV       ?V5,#0x0
   3199            uint8 neighborLqiCount = 0;
   \   000008   75..00       MOV       ?V4,#0x0
   3200            uint8 neighborLqiEntries = 0;
   \   00000B   75..00       MOV       ?V6,#0x0
   3201            uint8 *msg;
   3202          
   3203            msg = inMsg->asdu;
   \   00000E   EA           MOV       A,R2
   \   00000F   2413         ADD       A,#0x13
   \   000011   F582         MOV       DPL,A
   \   000013   E4           CLR       A
   \   000014   3B           ADDC      A,R3
   \   000015   F583         MOV       DPH,A
   \   000017   E0           MOVX      A,@DPTR
   \   000018   FE           MOV       R6,A
   \   000019   A3           INC       DPTR
   \   00001A   E0           MOVX      A,@DPTR
   3204          
   3205            status = *msg++;
   \   00001B   8E82         MOV       DPL,R6
   \   00001D   F583         MOV       DPH,A
   \   00001F   E0           MOVX      A,@DPTR
   \   000020   F5..         MOV       ?V7,A
   \   000022   A3           INC       DPTR
   \   000023   AE82         MOV       R6,DPL
   \   000025   AF83         MOV       R7,DPH
   3206            if ( status == ZSuccess )
   \   000027   7017         JNZ       ??ZDO_ParseMgmtLqiRsp_0
   3207            {
   3208              neighborLqiEntries = *msg++;
   \   000029   E0           MOVX      A,@DPTR
   \   00002A   F5..         MOV       ?V6,A
   3209              startIndex = *msg++;
   \   00002C   A3           INC       DPTR
   \   00002D   E0           MOVX      A,@DPTR
   \   00002E   F5..         MOV       ?V5,A
   3210              neighborLqiCount = *msg++;
   \   000030   8E82         MOV       DPL,R6
   \   000032   8F83         MOV       DPH,R7
   \   000034   A3           INC       DPTR
   \   000035   A3           INC       DPTR
   \   000036   E0           MOVX      A,@DPTR
   \   000037   F5..         MOV       ?V4,A
   \   000039   EE           MOV       A,R6
   \   00003A   2403         ADD       A,#0x3
   \   00003C   FE           MOV       R6,A
   \   00003D   5001         JNC       ??ZDO_ParseMgmtLqiRsp_0
   \   00003F   0F           INC       R7
   3211            }
   3212          
   3213            // Allocate a buffer big enough to handle the list.
   3214            pRsp = (ZDO_MgmtLqiRsp_t *)osal_mem_alloc(
   3215                      sizeof( ZDO_MgmtLqiRsp_t ) + (neighborLqiCount * sizeof( ZDP_MgmtLqiItem_t )) );
   \                     ??ZDO_ParseMgmtLqiRsp_0:
   \   000040                ; Setup parameters for call to function osal_mem_alloc
   \   000040   E5..         MOV       A,?V4
   \   000042   75F01A       MOV       B,#0x1a
   \   000045   A4           MUL       AB
   \   000046   A9F0         MOV       R1,B
   \   000048   2404         ADD       A,#0x4
   \   00004A   FA           MOV       R2,A
   \   00004B   E4           CLR       A
   \   00004C   39           ADDC      A,R1
   \   00004D   FB           MOV       R3,A
   \   00004E   12....       LCALL     `??osal_mem_alloc::?relay`; Banked call to: osal_mem_alloc
   \   000051   8A..         MOV       ?V2,R2
   \   000053   8B..         MOV       ?V3,R3
   3216            if ( pRsp )
   \   000055   EA           MOV       A,R2
   \   000056   4B           ORL       A,R3
   \   000057   7003         JNZ       $+5
   \   000059   02....       LJMP      ??ZDO_ParseMgmtLqiRsp_1 & 0xFFFF
   3217            {
   3218              uint8 x;
   3219              ZDP_MgmtLqiItem_t *pList = pRsp->list;
   \   00005C   EA           MOV       A,R2
   \   00005D   2404         ADD       A,#0x4
   \   00005F   F5..         MOV       ?V0,A
   \   000061   E4           CLR       A
   \   000062   35..         ADDC      A,?V3
   \   000064   F5..         MOV       ?V1,A
   3220              pRsp->status = status;
   \   000066   8A82         MOV       DPL,R2
   \   000068   8B83         MOV       DPH,R3
   \   00006A   E5..         MOV       A,?V7
   \   00006C   F0           MOVX      @DPTR,A
   3221              pRsp->neighborLqiEntries = neighborLqiEntries;
   \   00006D   A3           INC       DPTR
   \   00006E   E5..         MOV       A,?V6
   \   000070   F0           MOVX      @DPTR,A
   3222              pRsp->startIndex = startIndex;
   \   000071   8A82         MOV       DPL,R2
   \   000073   8B83         MOV       DPH,R3
   \   000075   A3           INC       DPTR
   \   000076   A3           INC       DPTR
   \   000077   E5..         MOV       A,?V5
   \   000079   F0           MOVX      @DPTR,A
   3223              pRsp->neighborLqiCount = neighborLqiCount;
   \   00007A   8A82         MOV       DPL,R2
   \   00007C   8B83         MOV       DPH,R3
   \   00007E   A3           INC       DPTR
   \   00007F   A3           INC       DPTR
   \   000080   A3           INC       DPTR
   \   000081   E5..         MOV       A,?V4
   \   000083   F0           MOVX      @DPTR,A
   3224          
   3225              for ( x = 0; x < neighborLqiCount; x++ )
   \   000084   75..00       MOV       ?V5,#0x0
   \   000087   02....       LJMP      ??ZDO_ParseMgmtLqiRsp_2 & 0xFFFF
   3226              {
   3227                uint8 tmp;
   3228          
   3229                pList->panID = 0; // This isn't in the record, why is it in the structure?
   \                     ??ZDO_ParseMgmtLqiRsp_3:
   \   00008A   85..82       MOV       DPL,?V0
   \   00008D   85..83       MOV       DPH,?V1
   \   000090   E4           CLR       A
   \   000091   F0           MOVX      @DPTR,A
   \   000092   A3           INC       DPTR
   \   000093   F0           MOVX      @DPTR,A
   3230                osal_cpyExtAddr(pList->extPanID, msg);   //Copy extended PAN ID
   \   000094                ; Setup parameters for call to function sAddrExtCpy
   \   000094   EE           MOV       A,R6
   \   000095   FC           MOV       R4,A
   \   000096   EF           MOV       A,R7
   \   000097   FD           MOV       R5,A
   \   000098   E5..         MOV       A,?V0
   \   00009A   2402         ADD       A,#0x2
   \   00009C   FA           MOV       R2,A
   \   00009D   E4           CLR       A
   \   00009E   35..         ADDC      A,?V1
   \   0000A0   FB           MOV       R3,A
   \   0000A1   12....       LCALL     `??sAddrExtCpy::?relay`; Banked call to: sAddrExtCpy
   3231                msg += Z_EXTADDR_LEN;
   \   0000A4   EE           MOV       A,R6
   \   0000A5   2408         ADD       A,#0x8
   \   0000A7   FE           MOV       R6,A
   \   0000A8   5001         JNC       ??ZDO_ParseMgmtLqiRsp_4
   \   0000AA   0F           INC       R7
   3232          
   3233                osal_cpyExtAddr(pList->extAddr, msg);   //Copy extended address
   \                     ??ZDO_ParseMgmtLqiRsp_4:
   \   0000AB                ; Setup parameters for call to function sAddrExtCpy
   \   0000AB   FC           MOV       R4,A
   \   0000AC   EF           MOV       A,R7
   \   0000AD   FD           MOV       R5,A
   \   0000AE   E5..         MOV       A,?V0
   \   0000B0   240A         ADD       A,#0xa
   \   0000B2   FA           MOV       R2,A
   \   0000B3   E4           CLR       A
   \   0000B4   35..         ADDC      A,?V1
   \   0000B6   FB           MOV       R3,A
   \   0000B7   12....       LCALL     `??sAddrExtCpy::?relay`; Banked call to: sAddrExtCpy
   3234                msg += Z_EXTADDR_LEN;
   \   0000BA   EE           MOV       A,R6
   \   0000BB   2408         ADD       A,#0x8
   \   0000BD   FE           MOV       R6,A
   \   0000BE   5001         JNC       ??ZDO_ParseMgmtLqiRsp_5
   \   0000C0   0F           INC       R7
   3235          
   3236                pList->nwkAddr = BUILD_UINT16( msg[0], msg[1] );
   \                     ??ZDO_ParseMgmtLqiRsp_5:
   \   0000C1   F582         MOV       DPL,A
   \   0000C3   8F83         MOV       DPH,R7
   \   0000C5   E0           MOVX      A,@DPTR
   \   0000C6   FA           MOV       R2,A
   \   0000C7   A3           INC       DPTR
   \   0000C8   E0           MOVX      A,@DPTR
   \   0000C9   F9           MOV       R1,A
   \   0000CA   E5..         MOV       A,?V0
   \   0000CC   2412         ADD       A,#0x12
   \   0000CE   F582         MOV       DPL,A
   \   0000D0   E4           CLR       A
   \   0000D1   35..         ADDC      A,?V1
   \   0000D3   F583         MOV       DPH,A
   \   0000D5   EA           MOV       A,R2
   \   0000D6   F0           MOVX      @DPTR,A
   \   0000D7   A3           INC       DPTR
   \   0000D8   E9           MOV       A,R1
   \   0000D9   F0           MOVX      @DPTR,A
   3237                msg += 2;
   3238          
   3239                tmp = *msg++;
   \   0000DA   8E82         MOV       DPL,R6
   \   0000DC   8F83         MOV       DPH,R7
   \   0000DE   A3           INC       DPTR
   \   0000DF   A3           INC       DPTR
   \   0000E0   E0           MOVX      A,@DPTR
   \   0000E1   F8           MOV       R0,A
   3240                pList->devType = tmp & 0x03;
   \   0000E2   7403         MOV       A,#0x3
   \   0000E4   58           ANL       A,R0
   \   0000E5   C0E0         PUSH      A
   \   0000E7   E5..         MOV       A,?V0
   \   0000E9   2414         ADD       A,#0x14
   \   0000EB   F582         MOV       DPL,A
   \   0000ED   E4           CLR       A
   \   0000EE   35..         ADDC      A,?V1
   \   0000F0   F583         MOV       DPH,A
   \   0000F2   D0E0         POP       A
   \   0000F4   F0           MOVX      @DPTR,A
   3241                pList->rxOnIdle = (tmp >> 2) & 0x03;
   \   0000F5   E8           MOV       A,R0
   \   0000F6   13           RRC       A
   \   0000F7   13           RRC       A
   \   0000F8   543F         ANL       A,#0x3f
   \   0000FA   5403         ANL       A,#0x3
   \   0000FC   C0E0         PUSH      A
   \   0000FE   E5..         MOV       A,?V0
   \   000100   2415         ADD       A,#0x15
   \   000102   F582         MOV       DPL,A
   \   000104   E4           CLR       A
   \   000105   35..         ADDC      A,?V1
   \   000107   F583         MOV       DPH,A
   \   000109   D0E0         POP       A
   \   00010B   F0           MOVX      @DPTR,A
   3242                pList->relation = (tmp >> 4) & 0x07;
   \   00010C   E8           MOV       A,R0
   \   00010D   C4           SWAP      A
   \   00010E   540F         ANL       A,#0xf
   \   000110   5407         ANL       A,#0x7
   \   000112   C0E0         PUSH      A
   \   000114   E5..         MOV       A,?V0
   \   000116   2416         ADD       A,#0x16
   \   000118   F582         MOV       DPL,A
   \   00011A   E4           CLR       A
   \   00011B   35..         ADDC      A,?V1
   \   00011D   F583         MOV       DPH,A
   \   00011F   D0E0         POP       A
   \   000121   F0           MOVX      @DPTR,A
   3243          
   3244                pList->permit = (*msg++) & 0x03;
   \   000122   8E82         MOV       DPL,R6
   \   000124   8F83         MOV       DPH,R7
   \   000126   A3           INC       DPTR
   \   000127   A3           INC       DPTR
   \   000128   A3           INC       DPTR
   \   000129   E0           MOVX      A,@DPTR
   \   00012A   5403         ANL       A,#0x3
   \   00012C   C0E0         PUSH      A
   \   00012E   E5..         MOV       A,?V0
   \   000130   2417         ADD       A,#0x17
   \   000132   F582         MOV       DPL,A
   \   000134   E4           CLR       A
   \   000135   35..         ADDC      A,?V1
   \   000137   F583         MOV       DPH,A
   \   000139   D0E0         POP       A
   \   00013B   F0           MOVX      @DPTR,A
   3245          
   3246                pList->depth = *msg++;
   \   00013C   8E82         MOV       DPL,R6
   \   00013E   8F83         MOV       DPH,R7
   \   000140   A3           INC       DPTR
   \   000141   A3           INC       DPTR
   \   000142   A3           INC       DPTR
   \   000143   A3           INC       DPTR
   \   000144   E0           MOVX      A,@DPTR
   \   000145   C0E0         PUSH      A
   \   000147   E5..         MOV       A,?V0
   \   000149   2418         ADD       A,#0x18
   \   00014B   F582         MOV       DPL,A
   \   00014D   E4           CLR       A
   \   00014E   35..         ADDC      A,?V1
   \   000150   F583         MOV       DPH,A
   \   000152   D0E0         POP       A
   \   000154   F0           MOVX      @DPTR,A
   3247          
   3248                pList->lqi = *msg++;
   \   000155   8E82         MOV       DPL,R6
   \   000157   8F83         MOV       DPH,R7
   \   000159   A3           INC       DPTR
   \   00015A   A3           INC       DPTR
   \   00015B   A3           INC       DPTR
   \   00015C   A3           INC       DPTR
   \   00015D   A3           INC       DPTR
   \   00015E   E0           MOVX      A,@DPTR
   \   00015F   C0E0         PUSH      A
   \   000161   E5..         MOV       A,?V0
   \   000163   2419         ADD       A,#0x19
   \   000165   F582         MOV       DPL,A
   \   000167   E4           CLR       A
   \   000168   35..         ADDC      A,?V1
   \   00016A   F583         MOV       DPH,A
   \   00016C   D0E0         POP       A
   \   00016E   F0           MOVX      @DPTR,A
   \   00016F   EE           MOV       A,R6
   \   000170   2406         ADD       A,#0x6
   \   000172   FE           MOV       R6,A
   \   000173   5001         JNC       ??ZDO_ParseMgmtLqiRsp_6
   \   000175   0F           INC       R7
   3249                pList++;
   \                     ??ZDO_ParseMgmtLqiRsp_6:
   \   000176   E5..         MOV       A,?V0
   \   000178   241A         ADD       A,#0x1a
   \   00017A   F5..         MOV       ?V0,A
   \   00017C   5002         JNC       ??ZDO_ParseMgmtLqiRsp_7
   \   00017E   05..         INC       ?V1
   3250              }
   \                     ??ZDO_ParseMgmtLqiRsp_7:
   \   000180   05..         INC       ?V5
   \                     ??ZDO_ParseMgmtLqiRsp_2:
   \   000182   E5..         MOV       A,?V5
   \   000184   C3           CLR       C
   \   000185   95..         SUBB      A,?V4
   \   000187   5003         JNC       $+5
   \   000189   02....       LJMP      ??ZDO_ParseMgmtLqiRsp_3 & 0xFFFF
   3251            }
   3252          
   3253            return ( pRsp );
   \                     ??ZDO_ParseMgmtLqiRsp_1:
   \   00018C   AA..         MOV       R2,?V2
   \   00018E   AB..         MOV       R3,?V3
   \   000190   7F08         MOV       R7,#0x8
   \   000192   02....       LJMP      ?BANKED_LEAVE_XDATA
   3254          }
   3255          
   3256          /*********************************************************************
   3257           * @fn          ZDO_ParseMgmNwkDiscRsp
   3258           *
   3259           * @brief       This function parses the incoming Management
   3260           *              Network Discover response.
   3261           *
   3262           * @param       inMsg - incoming message
   3263           *
   3264           * @return      pointer to parsed response.  This structure was
   3265           *          allocated using osal_mem_alloc, so it must be freed
   3266           *          by the calling function [osal_mem_free()].
   3267           */

   \                                 In  segment BANKED_CODE, align 1, keep-with-next
   3268          ZDO_MgmNwkDiscRsp_t *ZDO_ParseMgmNwkDiscRsp( zdoIncomingMsg_t *inMsg )
   \                     ZDO_ParseMgmNwkDiscRsp:
   3269          {
   \   000000                REQUIRE ?V0
   \   000000                REQUIRE ?V1
   \   000000                REQUIRE ?V2
   \   000000                REQUIRE ?V3
   \   000000                REQUIRE ?V4
   \   000000                REQUIRE ?V5
   \   000000                REQUIRE ?V6
   \   000000                REQUIRE ?V7
   \   000000   74F0         MOV       A,#-0x10
   \   000002   12....       LCALL     ?BANKED_ENTER_XDATA
   \   000005                ; Saved register size: 16
   \   000005                ; Auto size: 0
   3270            ZDO_MgmNwkDiscRsp_t *pRsp;
   3271            uint8 status;
   3272            uint8 networkCount = 0;
   \   000005   75..00       MOV       ?V1,#0x0
   3273            uint8 startIndex = 0;
   \   000008   75..00       MOV       ?V0,#0x0
   3274            uint8 networkListCount = 0;
   \   00000B   75..00       MOV       ?V4,#0x0
   3275            uint8 *msg;
   3276          
   3277            msg = inMsg->asdu;
   \   00000E   EA           MOV       A,R2
   \   00000F   2413         ADD       A,#0x13
   \   000011   F582         MOV       DPL,A
   \   000013   E4           CLR       A
   \   000014   3B           ADDC      A,R3
   \   000015   F583         MOV       DPH,A
   \   000017   E0           MOVX      A,@DPTR
   \   000018   FE           MOV       R6,A
   \   000019   A3           INC       DPTR
   \   00001A   E0           MOVX      A,@DPTR
   3278            status = *msg++;
   \   00001B   8E82         MOV       DPL,R6
   \   00001D   F583         MOV       DPH,A
   \   00001F   E0           MOVX      A,@DPTR
   \   000020   F5..         MOV       ?V5,A
   \   000022   A3           INC       DPTR
   \   000023   AE82         MOV       R6,DPL
   \   000025   AF83         MOV       R7,DPH
   3279          
   3280            if ( status == ZSuccess )
   \   000027   7017         JNZ       ??ZDO_ParseMgmNwkDiscRsp_0
   3281            {
   3282              networkCount = *msg++;
   \   000029   E0           MOVX      A,@DPTR
   \   00002A   F5..         MOV       ?V1,A
   3283              startIndex = *msg++;
   \   00002C   A3           INC       DPTR
   \   00002D   E0           MOVX      A,@DPTR
   \   00002E   F5..         MOV       ?V0,A
   3284              networkListCount = *msg++;
   \   000030   8E82         MOV       DPL,R6
   \   000032   8F83         MOV       DPH,R7
   \   000034   A3           INC       DPTR
   \   000035   A3           INC       DPTR
   \   000036   E0           MOVX      A,@DPTR
   \   000037   F5..         MOV       ?V4,A
   \   000039   EE           MOV       A,R6
   \   00003A   2403         ADD       A,#0x3
   \   00003C   FE           MOV       R6,A
   \   00003D   5001         JNC       ??ZDO_ParseMgmNwkDiscRsp_0
   \   00003F   0F           INC       R7
   3285            }
   3286          
   3287            // Allocate a buffer big enough to handle the list.
   3288            pRsp = (ZDO_MgmNwkDiscRsp_t *)osal_mem_alloc( sizeof( ZDO_MgmNwkDiscRsp_t )
   3289                                            + (networkListCount * sizeof( mgmtNwkDiscItem_t )) );
   \                     ??ZDO_ParseMgmNwkDiscRsp_0:
   \   000040                ; Setup parameters for call to function osal_mem_alloc
   \   000040   E5..         MOV       A,?V4
   \   000042   F5..         MOV       ?V2,A
   \   000044   75..00       MOV       ?V3,#0x0
   \   000047   7404         MOV       A,#0x4
   \   000049   78..         MOV       R0,#?V2
   \   00004B   12....       LCALL     ?S_SHL
   \   00004E   E5..         MOV       A,?V2
   \   000050   2404         ADD       A,#0x4
   \   000052   FA           MOV       R2,A
   \   000053   E4           CLR       A
   \   000054   35..         ADDC      A,?V3
   \   000056   FB           MOV       R3,A
   \   000057   12....       LCALL     `??osal_mem_alloc::?relay`; Banked call to: osal_mem_alloc
   \   00005A   8A..         MOV       ?V2,R2
   \   00005C   8B..         MOV       ?V3,R3
   3290            if ( pRsp )
   \   00005E   EA           MOV       A,R2
   \   00005F   4B           ORL       A,R3
   \   000060   7003         JNZ       $+5
   \   000062   02....       LJMP      ??ZDO_ParseMgmNwkDiscRsp_1 & 0xFFFF
   3291            {
   3292              uint8 x;
   3293              mgmtNwkDiscItem_t *pList;
   3294          
   3295              pRsp->status = status;
   \   000065   8A82         MOV       DPL,R2
   \   000067   8B83         MOV       DPH,R3
   \   000069   E5..         MOV       A,?V5
   \   00006B   F0           MOVX      @DPTR,A
   3296              pRsp->networkCount = networkCount;
   \   00006C   A3           INC       DPTR
   \   00006D   E5..         MOV       A,?V1
   \   00006F   F0           MOVX      @DPTR,A
   3297              pRsp->startIndex = startIndex;
   \   000070   8A82         MOV       DPL,R2
   \   000072   8B83         MOV       DPH,R3
   \   000074   A3           INC       DPTR
   \   000075   A3           INC       DPTR
   \   000076   E5..         MOV       A,?V0
   \   000078   F0           MOVX      @DPTR,A
   3298              pRsp->networkListCount = networkListCount;
   \   000079   8A82         MOV       DPL,R2
   \   00007B   8B83         MOV       DPH,R3
   \   00007D   A3           INC       DPTR
   \   00007E   A3           INC       DPTR
   \   00007F   A3           INC       DPTR
   \   000080   E5..         MOV       A,?V4
   \   000082   F0           MOVX      @DPTR,A
   3299              pList = pRsp->list;
   \   000083   EA           MOV       A,R2
   \   000084   2404         ADD       A,#0x4
   \   000086   F5..         MOV       ?V0,A
   \   000088   E4           CLR       A
   \   000089   35..         ADDC      A,?V3
   \   00008B   F5..         MOV       ?V1,A
   3300          
   3301              for ( x = 0; x < networkListCount; x++ )
   \   00008D   75..00       MOV       ?V5,#0x0
   \   000090   02....       LJMP      ??ZDO_ParseMgmNwkDiscRsp_2 & 0xFFFF
   3302              {
   3303                osal_cpyExtAddr(pList->extendedPANID, msg);   //Copy extended PAN ID
   \                     ??ZDO_ParseMgmNwkDiscRsp_3:
   \   000093                ; Setup parameters for call to function sAddrExtCpy
   \   000093   EE           MOV       A,R6
   \   000094   FC           MOV       R4,A
   \   000095   EF           MOV       A,R7
   \   000096   FD           MOV       R5,A
   \   000097   AA..         MOV       R2,?V0
   \   000099   AB..         MOV       R3,?V1
   \   00009B   12....       LCALL     `??sAddrExtCpy::?relay`; Banked call to: sAddrExtCpy
   3304                pList->PANId = BUILD_UINT16( msg[0], msg[1] );
   \   00009E   8E82         MOV       DPL,R6
   \   0000A0   8F83         MOV       DPH,R7
   \   0000A2   E0           MOVX      A,@DPTR
   \   0000A3   FA           MOV       R2,A
   \   0000A4   A3           INC       DPTR
   \   0000A5   E0           MOVX      A,@DPTR
   \   0000A6   F9           MOV       R1,A
   \   0000A7   EA           MOV       A,R2
   \   0000A8   85..82       MOV       DPL,?V0
   \   0000AB   85..83       MOV       DPH,?V1
   \   0000AE   A3           INC       DPTR
   \   0000AF   A3           INC       DPTR
   \   0000B0   A3           INC       DPTR
   \   0000B1   A3           INC       DPTR
   \   0000B2   A3           INC       DPTR
   \   0000B3   A3           INC       DPTR
   \   0000B4   A3           INC       DPTR
   \   0000B5   A3           INC       DPTR
   \   0000B6   F0           MOVX      @DPTR,A
   \   0000B7   A3           INC       DPTR
   \   0000B8   E9           MOV       A,R1
   \   0000B9   F0           MOVX      @DPTR,A
   3305                msg += Z_EXTADDR_LEN;
   3306          
   3307                pList->logicalChannel = *msg++;
   \   0000BA   8E82         MOV       DPL,R6
   \   0000BC   8F83         MOV       DPH,R7
   \   0000BE   A3           INC       DPTR
   \   0000BF   A3           INC       DPTR
   \   0000C0   A3           INC       DPTR
   \   0000C1   A3           INC       DPTR
   \   0000C2   A3           INC       DPTR
   \   0000C3   A3           INC       DPTR
   \   0000C4   A3           INC       DPTR
   \   0000C5   A3           INC       DPTR
   \   0000C6   E0           MOVX      A,@DPTR
   \   0000C7   85..82       MOV       DPL,?V0
   \   0000CA   85..83       MOV       DPH,?V1
   \   0000CD   A3           INC       DPTR
   \   0000CE   A3           INC       DPTR
   \   0000CF   A3           INC       DPTR
   \   0000D0   A3           INC       DPTR
   \   0000D1   A3           INC       DPTR
   \   0000D2   A3           INC       DPTR
   \   0000D3   A3           INC       DPTR
   \   0000D4   A3           INC       DPTR
   \   0000D5   A3           INC       DPTR
   \   0000D6   A3           INC       DPTR
   \   0000D7   F0           MOVX      @DPTR,A
   3308                pList->stackProfile = (*msg) & 0x0F;
   \   0000D8   EE           MOV       A,R6
   \   0000D9   2409         ADD       A,#0x9
   \   0000DB   F8           MOV       R0,A
   \   0000DC   E4           CLR       A
   \   0000DD   3F           ADDC      A,R7
   \   0000DE   F9           MOV       R1,A
   \   0000DF   8882         MOV       DPL,R0
   \   0000E1   F583         MOV       DPH,A
   \   0000E3   E0           MOVX      A,@DPTR
   \   0000E4   540F         ANL       A,#0xf
   \   0000E6   C0E0         PUSH      A
   \   0000E8   E5..         MOV       A,?V0
   \   0000EA   240B         ADD       A,#0xb
   \   0000EC   F582         MOV       DPL,A
   \   0000EE   E4           CLR       A
   \   0000EF   35..         ADDC      A,?V1
   \   0000F1   F583         MOV       DPH,A
   \   0000F3   D0E0         POP       A
   \   0000F5   F0           MOVX      @DPTR,A
   3309                pList->version = (*msg++ >> 4) & 0x0F;
   \   0000F6   8882         MOV       DPL,R0
   \   0000F8   8983         MOV       DPH,R1
   \   0000FA   E0           MOVX      A,@DPTR
   \   0000FB   C4           SWAP      A
   \   0000FC   540F         ANL       A,#0xf
   \   0000FE   C0E0         PUSH      A
   \   000100   E5..         MOV       A,?V0
   \   000102   240C         ADD       A,#0xc
   \   000104   F582         MOV       DPL,A
   \   000106   E4           CLR       A
   \   000107   35..         ADDC      A,?V1
   \   000109   F583         MOV       DPH,A
   \   00010B   D0E0         POP       A
   \   00010D   F0           MOVX      @DPTR,A
   3310                pList->beaconOrder = (*msg) & 0x0F;
   \   00010E   EE           MOV       A,R6
   \   00010F   240A         ADD       A,#0xa
   \   000111   08           INC       R0
   \   000112   E4           CLR       A
   \   000113   3F           ADDC      A,R7
   \   000114   F9           MOV       R1,A
   \   000115   8882         MOV       DPL,R0
   \   000117   F583         MOV       DPH,A
   \   000119   E0           MOVX      A,@DPTR
   \   00011A   540F         ANL       A,#0xf
   \   00011C   C0E0         PUSH      A
   \   00011E   E5..         MOV       A,?V0
   \   000120   240D         ADD       A,#0xd
   \   000122   F582         MOV       DPL,A
   \   000124   E4           CLR       A
   \   000125   35..         ADDC      A,?V1
   \   000127   F583         MOV       DPH,A
   \   000129   D0E0         POP       A
   \   00012B   F0           MOVX      @DPTR,A
   3311                pList->superFrameOrder = (*msg++ >> 4) & 0x0F;
   \   00012C   8882         MOV       DPL,R0
   \   00012E   8983         MOV       DPH,R1
   \   000130   E0           MOVX      A,@DPTR
   \   000131   C4           SWAP      A
   \   000132   540F         ANL       A,#0xf
   \   000134   C0E0         PUSH      A
   \   000136   E5..         MOV       A,?V0
   \   000138   240E         ADD       A,#0xe
   \   00013A   F582         MOV       DPL,A
   \   00013C   E4           CLR       A
   \   00013D   35..         ADDC      A,?V1
   \   00013F   F583         MOV       DPH,A
   \   000141   D0E0         POP       A
   \   000143   F0           MOVX      @DPTR,A
   3312                pList->permitJoining = *msg++;
   \   000144   EE           MOV       A,R6
   \   000145   240B         ADD       A,#0xb
   \   000147   F582         MOV       DPL,A
   \   000149   E4           CLR       A
   \   00014A   3F           ADDC      A,R7
   \   00014B   F583         MOV       DPH,A
   \   00014D   E0           MOVX      A,@DPTR
   \   00014E   C0E0         PUSH      A
   \   000150   E5..         MOV       A,?V0
   \   000152   240F         ADD       A,#0xf
   \   000154   F582         MOV       DPL,A
   \   000156   E4           CLR       A
   \   000157   35..         ADDC      A,?V1
   \   000159   F583         MOV       DPH,A
   \   00015B   D0E0         POP       A
   \   00015D   F0           MOVX      @DPTR,A
   \   00015E   EE           MOV       A,R6
   \   00015F   240C         ADD       A,#0xc
   \   000161   FE           MOV       R6,A
   \   000162   5001         JNC       ??ZDO_ParseMgmNwkDiscRsp_4
   \   000164   0F           INC       R7
   3313                pList++;
   \                     ??ZDO_ParseMgmNwkDiscRsp_4:
   \   000165   E5..         MOV       A,?V0
   \   000167   2410         ADD       A,#0x10
   \   000169   F5..         MOV       ?V0,A
   \   00016B   5002         JNC       ??ZDO_ParseMgmNwkDiscRsp_5
   \   00016D   05..         INC       ?V1
   3314              }
   \                     ??ZDO_ParseMgmNwkDiscRsp_5:
   \   00016F   05..         INC       ?V5
   \                     ??ZDO_ParseMgmNwkDiscRsp_2:
   \   000171   E5..         MOV       A,?V5
   \   000173   C3           CLR       C
   \   000174   95..         SUBB      A,?V4
   \   000176   5003         JNC       $+5
   \   000178   02....       LJMP      ??ZDO_ParseMgmNwkDiscRsp_3 & 0xFFFF
   3315            }
   3316          
   3317            return ( pRsp );
   \                     ??ZDO_ParseMgmNwkDiscRsp_1:
   \   00017B   AA..         MOV       R2,?V2
   \   00017D   AB..         MOV       R3,?V3
   \   00017F   7F08         MOV       R7,#0x8
   \   000181   02....       LJMP      ?BANKED_LEAVE_XDATA
   3318          }
   3319          
   3320          /*********************************************************************
   3321           * @fn          ZDO_ParseMgmtRtgRsp
   3322           *
   3323           * @brief       This function parses the incoming Management
   3324           *              Routing response.
   3325           *
   3326           * @param       inMsg - incoming message
   3327           *
   3328           * @return      a pointer to parsed response structure (NULL if not allocated).
   3329           *          This structure was allocated using osal_mem_alloc, so it must be freed
   3330           *          by the calling function [osal_mem_free()].
   3331           */

   \                                 In  segment BANKED_CODE, align 1, keep-with-next
   3332          ZDO_MgmtRtgRsp_t *ZDO_ParseMgmtRtgRsp( zdoIncomingMsg_t *inMsg )
   \                     ZDO_ParseMgmtRtgRsp:
   3333          {
   \   000000                REQUIRE ?V0
   \   000000                REQUIRE ?V1
   \   000000                REQUIRE ?V2
   \   000000                REQUIRE ?V3
   \   000000                REQUIRE ?V4
   \   000000                REQUIRE ?V5
   \   000000   74F2         MOV       A,#-0xe
   \   000002   12....       LCALL     ?BANKED_ENTER_XDATA
   \   000005                ; Saved register size: 14
   \   000005                ; Auto size: 0
   3334            ZDO_MgmtRtgRsp_t *pRsp;
   3335            uint8 status;
   3336            uint8 rtgCount = 0;
   \   000005   75..00       MOV       ?V2,#0x0
   3337            uint8 startIndex = 0;
   \   000008   75..00       MOV       ?V1,#0x0
   3338            uint8 rtgListCount = 0;
   \   00000B   75..00       MOV       ?V0,#0x0
   3339            uint8 *msg;
   3340          
   3341            msg = inMsg->asdu;
   \   00000E   EA           MOV       A,R2
   \   00000F   2413         ADD       A,#0x13
   \   000011   F582         MOV       DPL,A
   \   000013   E4           CLR       A
   \   000014   3B           ADDC      A,R3
   \   000015   F583         MOV       DPH,A
   \   000017   E0           MOVX      A,@DPTR
   \   000018   FE           MOV       R6,A
   \   000019   A3           INC       DPTR
   \   00001A   E0           MOVX      A,@DPTR
   3342          
   3343            status = *msg++;
   \   00001B   8E82         MOV       DPL,R6
   \   00001D   F583         MOV       DPH,A
   \   00001F   E0           MOVX      A,@DPTR
   \   000020   F5..         MOV       ?V3,A
   \   000022   A3           INC       DPTR
   \   000023   AE82         MOV       R6,DPL
   \   000025   AF83         MOV       R7,DPH
   3344            if ( status == ZSuccess )
   \   000027   7017         JNZ       ??ZDO_ParseMgmtRtgRsp_0
   3345            {
   3346              rtgCount = *msg++;
   \   000029   E0           MOVX      A,@DPTR
   \   00002A   F5..         MOV       ?V2,A
   3347              startIndex = *msg++;
   \   00002C   A3           INC       DPTR
   \   00002D   E0           MOVX      A,@DPTR
   \   00002E   F5..         MOV       ?V1,A
   3348              rtgListCount = *msg++;
   \   000030   8E82         MOV       DPL,R6
   \   000032   8F83         MOV       DPH,R7
   \   000034   A3           INC       DPTR
   \   000035   A3           INC       DPTR
   \   000036   E0           MOVX      A,@DPTR
   \   000037   F5..         MOV       ?V0,A
   \   000039   EE           MOV       A,R6
   \   00003A   2403         ADD       A,#0x3
   \   00003C   FE           MOV       R6,A
   \   00003D   5001         JNC       ??ZDO_ParseMgmtRtgRsp_0
   \   00003F   0F           INC       R7
   3349            }
   3350          
   3351            // Allocate a buffer big enough to handle the list
   3352            pRsp = (ZDO_MgmtRtgRsp_t *)osal_mem_alloc(
   3353                    sizeof( ZDO_MgmtRtgRsp_t ) + (rtgListCount * sizeof( rtgItem_t )) );
   \                     ??ZDO_ParseMgmtRtgRsp_0:
   \   000040                ; Setup parameters for call to function osal_mem_alloc
   \   000040   E5..         MOV       A,?V0
   \   000042   75F007       MOV       B,#0x7
   \   000045   A4           MUL       AB
   \   000046   A9F0         MOV       R1,B
   \   000048   2404         ADD       A,#0x4
   \   00004A   FA           MOV       R2,A
   \   00004B   E4           CLR       A
   \   00004C   39           ADDC      A,R1
   \   00004D   FB           MOV       R3,A
   \   00004E   12....       LCALL     `??osal_mem_alloc::?relay`; Banked call to: osal_mem_alloc
   3354            if ( pRsp )
   \   000051   EA           MOV       A,R2
   \   000052   4B           ORL       A,R3
   \   000053   7003         JNZ       $+5
   \   000055   02....       LJMP      ??ZDO_ParseMgmtRtgRsp_1 & 0xFFFF
   3355            {
   3356              uint8 x;
   3357              rtgItem_t *pList = pRsp->list;
   \   000058   EA           MOV       A,R2
   \   000059   2404         ADD       A,#0x4
   \   00005B   F8           MOV       R0,A
   \   00005C   E4           CLR       A
   \   00005D   3B           ADDC      A,R3
   \   00005E   F9           MOV       R1,A
   3358              pRsp->status = status;
   \   00005F   8A82         MOV       DPL,R2
   \   000061   8B83         MOV       DPH,R3
   \   000063   E5..         MOV       A,?V3
   \   000065   F0           MOVX      @DPTR,A
   3359              pRsp->rtgCount = rtgCount;
   \   000066   A3           INC       DPTR
   \   000067   E5..         MOV       A,?V2
   \   000069   F0           MOVX      @DPTR,A
   3360              pRsp->startIndex = startIndex;
   \   00006A   8A82         MOV       DPL,R2
   \   00006C   8B83         MOV       DPH,R3
   \   00006E   A3           INC       DPTR
   \   00006F   A3           INC       DPTR
   \   000070   E5..         MOV       A,?V1
   \   000072   F0           MOVX      @DPTR,A
   3361              pRsp->rtgListCount = rtgListCount;
   \   000073   8A82         MOV       DPL,R2
   \   000075   8B83         MOV       DPH,R3
   \   000077   A3           INC       DPTR
   \   000078   A3           INC       DPTR
   \   000079   A3           INC       DPTR
   \   00007A   E5..         MOV       A,?V0
   \   00007C   F0           MOVX      @DPTR,A
   3362          
   3363              for ( x = 0; x < rtgListCount; x++ )
   \   00007D   7C00         MOV       R4,#0x0
   \   00007F   806C         SJMP      ??ZDO_ParseMgmtRtgRsp_2
   3364              {
   3365                uint8 statOpt;
   3366          
   3367                pList->dstAddress = BUILD_UINT16( msg[0], msg[1] );
   \                     ??ZDO_ParseMgmtRtgRsp_3:
   \   000081   8E82         MOV       DPL,R6
   \   000083   8F83         MOV       DPH,R7
   \   000085   E0           MOVX      A,@DPTR
   \   000086   F5..         MOV       ?V4,A
   \   000088   A3           INC       DPTR
   \   000089   E0           MOVX      A,@DPTR
   \   00008A   F5..         MOV       ?V3,A
   \   00008C   E5..         MOV       A,?V4
   \   00008E   8882         MOV       DPL,R0
   \   000090   8983         MOV       DPH,R1
   \   000092   F0           MOVX      @DPTR,A
   \   000093   A3           INC       DPTR
   \   000094   E5..         MOV       A,?V3
   \   000096   F0           MOVX      @DPTR,A
   3368                msg += 2;
   3369                statOpt = *msg++;
   \   000097   8E82         MOV       DPL,R6
   \   000099   8F83         MOV       DPH,R7
   \   00009B   A3           INC       DPTR
   \   00009C   A3           INC       DPTR
   \   00009D   E0           MOVX      A,@DPTR
   \   00009E   FD           MOV       R5,A
   \   00009F   EE           MOV       A,R6
   \   0000A0   2403         ADD       A,#0x3
   \   0000A2   FE           MOV       R6,A
   \   0000A3   5001         JNC       ??ZDO_ParseMgmtRtgRsp_4
   \   0000A5   0F           INC       R7
   3370                pList->status = (statOpt & 0x07);
   \                     ??ZDO_ParseMgmtRtgRsp_4:
   \   0000A6   7407         MOV       A,#0x7
   \   0000A8   5D           ANL       A,R5
   \   0000A9   8882         MOV       DPL,R0
   \   0000AB   8983         MOV       DPH,R1
   \   0000AD   A3           INC       DPTR
   \   0000AE   A3           INC       DPTR
   \   0000AF   A3           INC       DPTR
   \   0000B0   A3           INC       DPTR
   \   0000B1   A3           INC       DPTR
   \   0000B2   F0           MOVX      @DPTR,A
   3371                pList->options = ((statOpt >> 3) & 0x07);
   \   0000B3   ED           MOV       A,R5
   \   0000B4   13           RRC       A
   \   0000B5   13           RRC       A
   \   0000B6   13           RRC       A
   \   0000B7   541F         ANL       A,#0x1f
   \   0000B9   5407         ANL       A,#0x7
   \   0000BB   8882         MOV       DPL,R0
   \   0000BD   8983         MOV       DPH,R1
   \   0000BF   A3           INC       DPTR
   \   0000C0   A3           INC       DPTR
   \   0000C1   A3           INC       DPTR
   \   0000C2   A3           INC       DPTR
   \   0000C3   A3           INC       DPTR
   \   0000C4   A3           INC       DPTR
   \   0000C5   F0           MOVX      @DPTR,A
   3372                pList->nextHopAddress = BUILD_UINT16( msg[0], msg[1] );
   \   0000C6   8E82         MOV       DPL,R6
   \   0000C8   8F83         MOV       DPH,R7
   \   0000CA   E0           MOVX      A,@DPTR
   \   0000CB   F5..         MOV       ?V4,A
   \   0000CD   A3           INC       DPTR
   \   0000CE   E0           MOVX      A,@DPTR
   \   0000CF   F5..         MOV       ?V3,A
   \   0000D1   E5..         MOV       A,?V4
   \   0000D3   8882         MOV       DPL,R0
   \   0000D5   8983         MOV       DPH,R1
   \   0000D7   A3           INC       DPTR
   \   0000D8   A3           INC       DPTR
   \   0000D9   F0           MOVX      @DPTR,A
   \   0000DA   A3           INC       DPTR
   \   0000DB   E5..         MOV       A,?V3
   \   0000DD   F0           MOVX      @DPTR,A
   3373                msg += 2;
   \   0000DE   EE           MOV       A,R6
   \   0000DF   2402         ADD       A,#0x2
   \   0000E1   FE           MOV       R6,A
   \   0000E2   5001         JNC       ??ZDO_ParseMgmtRtgRsp_5
   \   0000E4   0F           INC       R7
   3374                pList++;
   \                     ??ZDO_ParseMgmtRtgRsp_5:
   \   0000E5   E8           MOV       A,R0
   \   0000E6   2407         ADD       A,#0x7
   \   0000E8   F8           MOV       R0,A
   \   0000E9   5001         JNC       ??ZDO_ParseMgmtRtgRsp_6
   \   0000EB   09           INC       R1
   3375              }
   \                     ??ZDO_ParseMgmtRtgRsp_6:
   \   0000EC   0C           INC       R4
   \                     ??ZDO_ParseMgmtRtgRsp_2:
   \   0000ED   EC           MOV       A,R4
   \   0000EE   C3           CLR       C
   \   0000EF   95..         SUBB      A,?V0
   \   0000F1   408E         JC        ??ZDO_ParseMgmtRtgRsp_3
   3376            }
   3377          
   3378            return ( pRsp );
   \                     ??ZDO_ParseMgmtRtgRsp_1:
   \   0000F3   7F06         MOV       R7,#0x6
   \   0000F5   02....       LJMP      ?BANKED_LEAVE_XDATA
   3379          }
   3380          
   3381          /*********************************************************************
   3382           * @fn          ZDO_ParseMgmtBindRsp
   3383           *
   3384           * @brief       This function parses the incoming Management
   3385           *              Binding response.
   3386           *
   3387           * @param       inMsg - pointer to message to parse
   3388           *
   3389           * @return      a pointer to parsed response structure (NULL if not allocated).
   3390           *          This structure was allocated using osal_mem_alloc, so it must be freed
   3391           *          by the calling function [osal_mem_free()].
   3392           */

   \                                 In  segment BANKED_CODE, align 1, keep-with-next
   3393          ZDO_MgmtBindRsp_t *ZDO_ParseMgmtBindRsp( zdoIncomingMsg_t *inMsg )
   \                     ZDO_ParseMgmtBindRsp:
   3394          {
   \   000000                REQUIRE ?V0
   \   000000                REQUIRE ?V1
   \   000000                REQUIRE ?V2
   \   000000                REQUIRE ?V3
   \   000000                REQUIRE ?V4
   \   000000                REQUIRE ?V5
   \   000000                REQUIRE ?V6
   \   000000                REQUIRE ?V7
   \   000000                REQUIRE ?V8
   \   000000                REQUIRE ?V9
   \   000000   74EE         MOV       A,#-0x12
   \   000002   12....       LCALL     ?BANKED_ENTER_XDATA
   \   000005                ; Saved register size: 18
   \   000005                ; Auto size: 0
   3395            ZDO_MgmtBindRsp_t *pRsp;
   3396            uint8 status;
   3397            uint8 bindingCount = 0;
   \   000005   75..00       MOV       ?V6,#0x0
   3398            uint8 startIndex = 0;
   \   000008   75..00       MOV       ?V5,#0x0
   3399            uint8 bindingListCount = 0;
   \   00000B   75..00       MOV       ?V4,#0x0
   3400            uint8 *msg;
   3401          
   3402            msg = inMsg->asdu;
   \   00000E   EA           MOV       A,R2
   \   00000F   2413         ADD       A,#0x13
   \   000011   F582         MOV       DPL,A
   \   000013   E4           CLR       A
   \   000014   3B           ADDC      A,R3
   \   000015   F583         MOV       DPH,A
   \   000017   E0           MOVX      A,@DPTR
   \   000018   F5..         MOV       ?V2,A
   \   00001A   A3           INC       DPTR
   \   00001B   E0           MOVX      A,@DPTR
   3403          
   3404            status = *msg++;
   \   00001C   85..82       MOV       DPL,?V2
   \   00001F   F583         MOV       DPH,A
   \   000021   E0           MOVX      A,@DPTR
   \   000022   F5..         MOV       ?V7,A
   \   000024   A3           INC       DPTR
   \   000025   8582..       MOV       ?V2,DPL
   \   000028   8583..       MOV       ?V3,DPH
   3405            if ( status == ZSuccess )
   \   00002B   701C         JNZ       ??ZDO_ParseMgmtBindRsp_0
   3406            {
   3407              bindingCount = *msg++;
   \   00002D   E0           MOVX      A,@DPTR
   \   00002E   F5..         MOV       ?V6,A
   3408              startIndex = *msg++;
   \   000030   A3           INC       DPTR
   \   000031   E0           MOVX      A,@DPTR
   \   000032   F5..         MOV       ?V5,A
   3409              bindingListCount = *msg++;
   \   000034   85..82       MOV       DPL,?V2
   \   000037   85..83       MOV       DPH,?V3
   \   00003A   A3           INC       DPTR
   \   00003B   A3           INC       DPTR
   \   00003C   E0           MOVX      A,@DPTR
   \   00003D   F5..         MOV       ?V4,A
   \   00003F   E5..         MOV       A,?V2
   \   000041   2403         ADD       A,#0x3
   \   000043   F5..         MOV       ?V2,A
   \   000045   5002         JNC       ??ZDO_ParseMgmtBindRsp_0
   \   000047   05..         INC       ?V3
   3410            }
   3411          
   3412            // Allocate a buffer big enough to handle the list
   3413            pRsp = (ZDO_MgmtBindRsp_t *)osal_mem_alloc(
   3414                    (sizeof ( ZDO_MgmtBindRsp_t ) + (bindingListCount * sizeof( apsBindingItem_t ))) );
   \                     ??ZDO_ParseMgmtBindRsp_0:
   \   000049                ; Setup parameters for call to function osal_mem_alloc
   \   000049   E5..         MOV       A,?V4
   \   00004B   75F015       MOV       B,#0x15
   \   00004E   A4           MUL       AB
   \   00004F   A9F0         MOV       R1,B
   \   000051   2404         ADD       A,#0x4
   \   000053   FA           MOV       R2,A
   \   000054   E4           CLR       A
   \   000055   39           ADDC      A,R1
   \   000056   FB           MOV       R3,A
   \   000057   12....       LCALL     `??osal_mem_alloc::?relay`; Banked call to: osal_mem_alloc
   \   00005A   8A..         MOV       ?V0,R2
   \   00005C   8B..         MOV       ?V1,R3
   3415            if ( pRsp )
   \   00005E   EA           MOV       A,R2
   \   00005F   4B           ORL       A,R3
   \   000060   7003         JNZ       $+5
   \   000062   02....       LJMP      ??ZDO_ParseMgmtBindRsp_1 & 0xFFFF
   3416            {
   3417              uint8 x;
   3418              apsBindingItem_t *pList = pRsp->list;
   \   000065   EA           MOV       A,R2
   \   000066   2404         ADD       A,#0x4
   \   000068   FE           MOV       R6,A
   \   000069   E4           CLR       A
   \   00006A   35..         ADDC      A,?V1
   \   00006C   FF           MOV       R7,A
   3419              pRsp->status = status;
   \   00006D   8A82         MOV       DPL,R2
   \   00006F   8B83         MOV       DPH,R3
   \   000071   E5..         MOV       A,?V7
   \   000073   F0           MOVX      @DPTR,A
   3420              pRsp->bindingCount = bindingCount;
   \   000074   A3           INC       DPTR
   \   000075   E5..         MOV       A,?V6
   \   000077   F0           MOVX      @DPTR,A
   3421              pRsp->startIndex = startIndex;
   \   000078   8A82         MOV       DPL,R2
   \   00007A   8B83         MOV       DPH,R3
   \   00007C   A3           INC       DPTR
   \   00007D   A3           INC       DPTR
   \   00007E   E5..         MOV       A,?V5
   \   000080   F0           MOVX      @DPTR,A
   3422              pRsp->bindingListCount = bindingListCount;
   \   000081   8A82         MOV       DPL,R2
   \   000083   8B83         MOV       DPH,R3
   \   000085   A3           INC       DPTR
   \   000086   A3           INC       DPTR
   \   000087   A3           INC       DPTR
   \   000088   E5..         MOV       A,?V4
   \   00008A   F0           MOVX      @DPTR,A
   3423          
   3424              for ( x = 0; x < bindingListCount; x++ )
   \   00008B   75..00       MOV       ?V5,#0x0
   \   00008E   8027         SJMP      ??ZDO_ParseMgmtBindRsp_2
   3425              {
   3426                osal_cpyExtAddr( pList->srcAddr, msg );
   3427                msg += Z_EXTADDR_LEN;
   3428                pList->srcEP = *msg++;
   3429          
   3430                // Get the Cluster ID
   3431          
   3432                pList->clusterID = BUILD_UINT16( msg[0], msg[1] );
   3433                msg += 2;
   3434                pList->dstAddr.addrMode = *msg++;
   3435                if ( pList->dstAddr.addrMode == Addr64Bit )
   3436                {
   3437                  osal_cpyExtAddr( pList->dstAddr.addr.extAddr, msg );
   3438                  msg += Z_EXTADDR_LEN;
   3439                  pList->dstEP = *msg++;
   3440                }
   3441                else
   3442                {
   3443                  pList->dstAddr.addr.shortAddr = BUILD_UINT16( msg[0], msg[1] );
   \                     ??ZDO_ParseMgmtBindRsp_3:
   \   000090   85..82       MOV       DPL,?V2
   \   000093   85..83       MOV       DPH,?V3
   \   000096   E0           MOVX      A,@DPTR
   \   000097   FC           MOV       R4,A
   \   000098   A3           INC       DPTR
   \   000099   E0           MOVX      A,@DPTR
   \   00009A   F9           MOV       R1,A
   \   00009B   EC           MOV       A,R4
   \   00009C   8A82         MOV       DPL,R2
   \   00009E   8B83         MOV       DPH,R3
   \   0000A0   F0           MOVX      @DPTR,A
   \   0000A1   A3           INC       DPTR
   \   0000A2   E9           MOV       A,R1
   \   0000A3   F0           MOVX      @DPTR,A
   3444                  msg += 2;
   \   0000A4   E5..         MOV       A,?V2
   \   0000A6   2402         ADD       A,#0x2
   \   0000A8   F5..         MOV       ?V2,A
   \   0000AA   5002         JNC       ??ZDO_ParseMgmtBindRsp_4
   \   0000AC   05..         INC       ?V3
   3445                }
   3446          
   3447                pList++;
   \                     ??ZDO_ParseMgmtBindRsp_4:
   \   0000AE   EE           MOV       A,R6
   \   0000AF   2415         ADD       A,#0x15
   \   0000B1   FE           MOV       R6,A
   \   0000B2   5001         JNC       ??ZDO_ParseMgmtBindRsp_5
   \   0000B4   0F           INC       R7
   \                     ??ZDO_ParseMgmtBindRsp_5:
   \   0000B5   05..         INC       ?V5
   \                     ??ZDO_ParseMgmtBindRsp_2:
   \   0000B7   E5..         MOV       A,?V5
   \   0000B9   C3           CLR       C
   \   0000BA   95..         SUBB      A,?V4
   \   0000BC   4003         JC        $+5
   \   0000BE   02....       LJMP      ??ZDO_ParseMgmtBindRsp_1 & 0xFFFF
   \   0000C1                ; Setup parameters for call to function sAddrExtCpy
   \   0000C1   AC..         MOV       R4,?V2
   \   0000C3   AD..         MOV       R5,?V3
   \   0000C5   EE           MOV       A,R6
   \   0000C6   FA           MOV       R2,A
   \   0000C7   EF           MOV       A,R7
   \   0000C8   FB           MOV       R3,A
   \   0000C9   12....       LCALL     `??sAddrExtCpy::?relay`; Banked call to: sAddrExtCpy
   \   0000CC   85..82       MOV       DPL,?V2
   \   0000CF   85..83       MOV       DPH,?V3
   \   0000D2   A3           INC       DPTR
   \   0000D3   A3           INC       DPTR
   \   0000D4   A3           INC       DPTR
   \   0000D5   A3           INC       DPTR
   \   0000D6   A3           INC       DPTR
   \   0000D7   A3           INC       DPTR
   \   0000D8   A3           INC       DPTR
   \   0000D9   A3           INC       DPTR
   \   0000DA   E0           MOVX      A,@DPTR
   \   0000DB   8E82         MOV       DPL,R6
   \   0000DD   8F83         MOV       DPH,R7
   \   0000DF   A3           INC       DPTR
   \   0000E0   A3           INC       DPTR
   \   0000E1   A3           INC       DPTR
   \   0000E2   A3           INC       DPTR
   \   0000E3   A3           INC       DPTR
   \   0000E4   A3           INC       DPTR
   \   0000E5   A3           INC       DPTR
   \   0000E6   A3           INC       DPTR
   \   0000E7   F0           MOVX      @DPTR,A
   \   0000E8   E5..         MOV       A,?V2
   \   0000EA   2409         ADD       A,#0x9
   \   0000EC   F5..         MOV       ?V2,A
   \   0000EE   5002         JNC       ??ZDO_ParseMgmtBindRsp_6
   \   0000F0   05..         INC       ?V3
   \                     ??ZDO_ParseMgmtBindRsp_6:
   \   0000F2   F582         MOV       DPL,A
   \   0000F4   85..83       MOV       DPH,?V3
   \   0000F7   E0           MOVX      A,@DPTR
   \   0000F8   FA           MOV       R2,A
   \   0000F9   A3           INC       DPTR
   \   0000FA   E0           MOVX      A,@DPTR
   \   0000FB   F9           MOV       R1,A
   \   0000FC   EA           MOV       A,R2
   \   0000FD   8E82         MOV       DPL,R6
   \   0000FF   8F83         MOV       DPH,R7
   \   000101   A3           INC       DPTR
   \   000102   A3           INC       DPTR
   \   000103   A3           INC       DPTR
   \   000104   A3           INC       DPTR
   \   000105   A3           INC       DPTR
   \   000106   A3           INC       DPTR
   \   000107   A3           INC       DPTR
   \   000108   A3           INC       DPTR
   \   000109   A3           INC       DPTR
   \   00010A   F0           MOVX      @DPTR,A
   \   00010B   A3           INC       DPTR
   \   00010C   E9           MOV       A,R1
   \   00010D   F0           MOVX      @DPTR,A
   \   00010E   85..82       MOV       DPL,?V2
   \   000111   85..83       MOV       DPH,?V3
   \   000114   A3           INC       DPTR
   \   000115   A3           INC       DPTR
   \   000116   E0           MOVX      A,@DPTR
   \   000117   F8           MOV       R0,A
   \   000118   C0E0         PUSH      A
   \   00011A   EE           MOV       A,R6
   \   00011B   2413         ADD       A,#0x13
   \   00011D   F582         MOV       DPL,A
   \   00011F   E4           CLR       A
   \   000120   3F           ADDC      A,R7
   \   000121   F583         MOV       DPH,A
   \   000123   D0E0         POP       A
   \   000125   F0           MOVX      @DPTR,A
   \   000126   E5..         MOV       A,?V2
   \   000128   2403         ADD       A,#0x3
   \   00012A   F5..         MOV       ?V2,A
   \   00012C   5002         JNC       ??ZDO_ParseMgmtBindRsp_7
   \   00012E   05..         INC       ?V3
   \                     ??ZDO_ParseMgmtBindRsp_7:
   \   000130   EE           MOV       A,R6
   \   000131   240B         ADD       A,#0xb
   \   000133   FA           MOV       R2,A
   \   000134   E4           CLR       A
   \   000135   3F           ADDC      A,R7
   \   000136   FB           MOV       R3,A
   \   000137   7403         MOV       A,#0x3
   \   000139   68           XRL       A,R0
   \   00013A   6003         JZ        $+5
   \   00013C   02....       LJMP      ??ZDO_ParseMgmtBindRsp_3 & 0xFFFF
   \   00013F                ; Setup parameters for call to function sAddrExtCpy
   \   00013F   AC..         MOV       R4,?V2
   \   000141   AD..         MOV       R5,?V3
   \   000143   12....       LCALL     `??sAddrExtCpy::?relay`; Banked call to: sAddrExtCpy
   \   000146   85..82       MOV       DPL,?V2
   \   000149   85..83       MOV       DPH,?V3
   \   00014C   A3           INC       DPTR
   \   00014D   A3           INC       DPTR
   \   00014E   A3           INC       DPTR
   \   00014F   A3           INC       DPTR
   \   000150   A3           INC       DPTR
   \   000151   A3           INC       DPTR
   \   000152   A3           INC       DPTR
   \   000153   A3           INC       DPTR
   \   000154   E0           MOVX      A,@DPTR
   \   000155   C0E0         PUSH      A
   \   000157   EE           MOV       A,R6
   \   000158   2414         ADD       A,#0x14
   \   00015A   F582         MOV       DPL,A
   \   00015C   E4           CLR       A
   \   00015D   3F           ADDC      A,R7
   \   00015E   F583         MOV       DPH,A
   \   000160   D0E0         POP       A
   \   000162   F0           MOVX      @DPTR,A
   \   000163   E5..         MOV       A,?V2
   \   000165   2409         ADD       A,#0x9
   \   000167   F5..         MOV       ?V2,A
   \   000169   5002         JNC       ??ZDO_ParseMgmtBindRsp_8
   \   00016B   05..         INC       ?V3
   \                     ??ZDO_ParseMgmtBindRsp_8:
   \   00016D   02....       LJMP      ??ZDO_ParseMgmtBindRsp_4 & 0xFFFF
   3448              }
   3449            }
   3450          
   3451            return ( pRsp );
   \                     ??ZDO_ParseMgmtBindRsp_1:
   \   000170   AA..         MOV       R2,?V0
   \   000172   AB..         MOV       R3,?V1
   \   000174   7F0A         MOV       R7,#0xa
   \   000176   02....       LJMP      ?BANKED_LEAVE_XDATA
   3452          }
   3453          
   3454          /*********************************************************************
   3455           * @fn          ZDO_ParseUserDescRsp
   3456           *
   3457           * @brief       This function parses the incoming User
   3458           *              Descriptor Response.
   3459           *
   3460           * @param       inMsg - incoming response message
   3461           *
   3462           * @return      a pointer to parsed response structure (NULL if not allocated).
   3463           *          This structure was allocated using osal_mem_alloc, so it must be freed
   3464           *          by the calling function [osal_mem_free()].
   3465           */

   \                                 In  segment BANKED_CODE, align 1, keep-with-next
   3466          ZDO_UserDescRsp_t *ZDO_ParseUserDescRsp( zdoIncomingMsg_t *inMsg )
   \                     ZDO_ParseUserDescRsp:
   3467          {
   \   000000                REQUIRE ?V0
   \   000000                REQUIRE ?V1
   \   000000                REQUIRE ?V2
   \   000000                REQUIRE ?V3
   \   000000                REQUIRE ?V4
   \   000000                REQUIRE ?V5
   \   000000                REQUIRE ?V6
   \   000000                REQUIRE ?V7
   \   000000   74F0         MOV       A,#-0x10
   \   000002   12....       LCALL     ?BANKED_ENTER_XDATA
   \   000005                ; Saved register size: 16
   \   000005                ; Auto size: 0
   3468            ZDO_UserDescRsp_t *pRsp;
   3469            uint8 *msg;
   3470            uint8 descLen = 0;
   \   000005   75..00       MOV       ?V4,#0x0
   3471          
   3472            msg = inMsg->asdu;
   \   000008   EA           MOV       A,R2
   \   000009   2413         ADD       A,#0x13
   \   00000B   F582         MOV       DPL,A
   \   00000D   E4           CLR       A
   \   00000E   3B           ADDC      A,R3
   \   00000F   F583         MOV       DPH,A
   \   000011   E0           MOVX      A,@DPTR
   \   000012   F8           MOV       R0,A
   \   000013   A3           INC       DPTR
   \   000014   E0           MOVX      A,@DPTR
   \   000015   88..         MOV       ?V2,R0
   \   000017   F5..         MOV       ?V3,A
   3473          
   3474            if ( msg[0] == ZSuccess )
   \   000019   8882         MOV       DPL,R0
   \   00001B   F583         MOV       DPH,A
   \   00001D   E0           MOVX      A,@DPTR
   \   00001E   7006         JNZ       ??ZDO_ParseUserDescRsp_0
   3475            {
   3476              descLen = msg[3];
   \   000020   A3           INC       DPTR
   \   000021   A3           INC       DPTR
   \   000022   A3           INC       DPTR
   \   000023   E0           MOVX      A,@DPTR
   \   000024   F5..         MOV       ?V4,A
   3477            }
   3478          
   3479            pRsp = (ZDO_UserDescRsp_t *)osal_mem_alloc( sizeof ( ZDO_UserDescRsp_t ) + descLen );
   \                     ??ZDO_ParseUserDescRsp_0:
   \   000026   AE..         MOV       R6,?V4
   \   000028                ; Setup parameters for call to function osal_mem_alloc
   \   000028   EE           MOV       A,R6
   \   000029   2404         ADD       A,#0x4
   \   00002B   FA           MOV       R2,A
   \   00002C   E4           CLR       A
   \   00002D   3400         ADDC      A,#0x0
   \   00002F   FB           MOV       R3,A
   \   000030   12....       LCALL     `??osal_mem_alloc::?relay`; Banked call to: osal_mem_alloc
   \   000033   8A..         MOV       ?V0,R2
   \   000035   8B..         MOV       ?V1,R3
   3480            if ( pRsp )
   \   000037   EA           MOV       A,R2
   \   000038   4B           ORL       A,R3
   \   000039   6060         JZ        ??ZDO_ParseUserDescRsp_1
   3481            {
   3482              pRsp->status = msg[0];
   \   00003B   85..82       MOV       DPL,?V2
   \   00003E   85..83       MOV       DPH,?V3
   \   000041   E0           MOVX      A,@DPTR
   \   000042   8A82         MOV       DPL,R2
   \   000044   8B83         MOV       DPH,R3
   \   000046   F0           MOVX      @DPTR,A
   3483              pRsp->nwkAddr = BUILD_UINT16( msg[1], msg[2] );
   \   000047   85..82       MOV       DPL,?V2
   \   00004A   85..83       MOV       DPH,?V3
   \   00004D   A3           INC       DPTR
   \   00004E   E0           MOVX      A,@DPTR
   \   00004F   FA           MOV       R2,A
   \   000050   85..82       MOV       DPL,?V2
   \   000053   85..83       MOV       DPH,?V3
   \   000056   A3           INC       DPTR
   \   000057   A3           INC       DPTR
   \   000058   E0           MOVX      A,@DPTR
   \   000059   F8           MOV       R0,A
   \   00005A   E4           CLR       A
   \   00005B   C8           XCH       A,R0
   \   00005C   F9           MOV       R1,A
   \   00005D   EA           MOV       A,R2
   \   00005E   85..82       MOV       DPL,?V0
   \   000061   8B83         MOV       DPH,R3
   \   000063   A3           INC       DPTR
   \   000064   F0           MOVX      @DPTR,A
   \   000065   A3           INC       DPTR
   \   000066   E9           MOV       A,R1
   \   000067   F0           MOVX      @DPTR,A
   3484              pRsp->length = descLen;
   \   000068   85..82       MOV       DPL,?V0
   \   00006B   8B83         MOV       DPH,R3
   \   00006D   A3           INC       DPTR
   \   00006E   A3           INC       DPTR
   \   00006F   A3           INC       DPTR
   \   000070   EE           MOV       A,R6
   \   000071   F0           MOVX      @DPTR,A
   3485              if ( descLen )
   \   000072   6027         JZ        ??ZDO_ParseUserDescRsp_1
   3486              {
   3487                osal_memcpy( pRsp->desc, &msg[4], descLen );
   \   000074                ; Setup parameters for call to function osal_memcpy
   \   000074   E5..         MOV       A,?V2
   \   000076   2404         ADD       A,#0x4
   \   000078   F5..         MOV       ?V4,A
   \   00007A   E4           CLR       A
   \   00007B   35..         ADDC      A,?V3
   \   00007D   F5..         MOV       ?V5,A
   \   00007F   88..         MOV       ?V6,R0
   \   000081   78..         MOV       R0,#?V4
   \   000083   12....       LCALL     ?PUSH_XSTACK_I_THREE
   \   000086   EE           MOV       A,R6
   \   000087   FC           MOV       R4,A
   \   000088   7D00         MOV       R5,#0x0
   \   00008A   E5..         MOV       A,?V0
   \   00008C   2404         ADD       A,#0x4
   \   00008E   FA           MOV       R2,A
   \   00008F   E4           CLR       A
   \   000090   35..         ADDC      A,?V1
   \   000092   FB           MOV       R3,A
   \   000093   12....       LCALL     `??osal_memcpy::?relay`; Banked call to: osal_memcpy
   \   000096   7403         MOV       A,#0x3
   \   000098   12....       LCALL     ?DEALLOC_XSTACK8
   3488              }
   3489            }
   3490          
   3491            return ( pRsp );
   \                     ??ZDO_ParseUserDescRsp_1:
   \   00009B   AA..         MOV       R2,?V0
   \   00009D   AB..         MOV       R3,?V1
   \   00009F   7F08         MOV       R7,#0x8
   \   0000A1   02....       LJMP      ?BANKED_LEAVE_XDATA
   3492          }
   3493          
   3494          /*********************************************************************
   3495           * @fn          ZDO_ParseSimpleDescBuf
   3496           *
   3497           * @brief       Parse a byte sequence representation of a Simple Descriptor.
   3498           *
   3499           * @param       buf  - pointer to a byte array representing a Simple Desc.
   3500           * @param       desc - SimpleDescriptionFormat_t *
   3501           *
   3502           *              This routine allocates storage for the cluster IDs because
   3503           *              they are 16-bit and need to be aligned to be properly processed.
   3504           *              This routine returns non-zero if an allocation fails.
   3505           *
   3506           *              NOTE: This means that the caller or user of the input structure
   3507           *                    is responsible for freeing the memory
   3508           *
   3509           * @return      0: success
   3510           *              1: failure due to malloc failure.
   3511           */

   \                                 In  segment BANKED_CODE, align 1, keep-with-next
   3512          uint8 ZDO_ParseSimpleDescBuf( uint8 *buf, SimpleDescriptionFormat_t *desc )
   \                     ZDO_ParseSimpleDescBuf:
   3513          {
   \   000000                REQUIRE ?V0
   \   000000                REQUIRE ?V1
   \   000000                REQUIRE ?V2
   \   000000                REQUIRE ?V3
   \   000000                REQUIRE ?V4
   \   000000   74F3         MOV       A,#-0xd
   \   000002   12....       LCALL     ?BANKED_ENTER_XDATA
   \   000005                ; Saved register size: 13
   \   000005                ; Auto size: 0
   \   000005   EB           MOV       A,R3
   \   000006   8C..         MOV       ?V0,R4
   \   000008   8D..         MOV       ?V1,R5
   3514            uint8 num, i;
   3515          
   3516            desc->EndPoint = *buf++;
   \   00000A   8A82         MOV       DPL,R2
   \   00000C   F583         MOV       DPH,A
   \   00000E   E0           MOVX      A,@DPTR
   \   00000F   8C82         MOV       DPL,R4
   \   000011   8D83         MOV       DPH,R5
   \   000013   F0           MOVX      @DPTR,A
   \   000014   8A82         MOV       DPL,R2
   \   000016   8B83         MOV       DPH,R3
   \   000018   A3           INC       DPTR
   \   000019   AE82         MOV       R6,DPL
   \   00001B   AF83         MOV       R7,DPH
   3517            desc->AppProfId = BUILD_UINT16( buf[0], buf[1] );
   \   00001D   E0           MOVX      A,@DPTR
   \   00001E   FA           MOV       R2,A
   \   00001F   A3           INC       DPTR
   \   000020   E0           MOVX      A,@DPTR
   \   000021   F9           MOV       R1,A
   \   000022   EA           MOV       A,R2
   \   000023   8C82         MOV       DPL,R4
   \   000025   8D83         MOV       DPH,R5
   \   000027   A3           INC       DPTR
   \   000028   F0           MOVX      @DPTR,A
   \   000029   A3           INC       DPTR
   \   00002A   E9           MOV       A,R1
   \   00002B   F0           MOVX      @DPTR,A
   3518            buf += 2;
   \   00002C   EE           MOV       A,R6
   \   00002D   2402         ADD       A,#0x2
   \   00002F   FE           MOV       R6,A
   \   000030   5001         JNC       ??ZDO_ParseSimpleDescBuf_0
   \   000032   0F           INC       R7
   3519            desc->AppDeviceId = BUILD_UINT16( buf[0], buf[1] );
   \                     ??ZDO_ParseSimpleDescBuf_0:
   \   000033   F582         MOV       DPL,A
   \   000035   8F83         MOV       DPH,R7
   \   000037   E0           MOVX      A,@DPTR
   \   000038   FA           MOV       R2,A
   \   000039   A3           INC       DPTR
   \   00003A   E0           MOVX      A,@DPTR
   \   00003B   F9           MOV       R1,A
   \   00003C   EA           MOV       A,R2
   \   00003D   8C82         MOV       DPL,R4
   \   00003F   8D83         MOV       DPH,R5
   \   000041   A3           INC       DPTR
   \   000042   A3           INC       DPTR
   \   000043   A3           INC       DPTR
   \   000044   F0           MOVX      @DPTR,A
   \   000045   A3           INC       DPTR
   \   000046   E9           MOV       A,R1
   \   000047   F0           MOVX      @DPTR,A
   3520            buf += 2;
   3521            desc->AppDevVer = *buf >> 4;
   \   000048   8E82         MOV       DPL,R6
   \   00004A   8F83         MOV       DPH,R7
   \   00004C   A3           INC       DPTR
   \   00004D   A3           INC       DPTR
   \   00004E   E0           MOVX      A,@DPTR
   \   00004F   C4           SWAP      A
   \   000050   540F         ANL       A,#0xf
   \   000052   F8           MOV       R0,A
   \   000053   EC           MOV       A,R4
   \   000054   2405         ADD       A,#0x5
   \   000056   F582         MOV       DPL,A
   \   000058   E4           CLR       A
   \   000059   35..         ADDC      A,?V1
   \   00005B   F583         MOV       DPH,A
   \   00005D   E0           MOVX      A,@DPTR
   \   00005E   54F0         ANL       A,#0xf0
   \   000060   48           ORL       A,R0
   \   000061   F0           MOVX      @DPTR,A
   3522          
   3523            desc->Reserved = 0;
   \   000062   E0           MOVX      A,@DPTR
   \   000063   540F         ANL       A,#0xf
   \   000065   F0           MOVX      @DPTR,A
   3524            buf++;
   3525          
   3526            // move in input cluster list (if any). allocate aligned memory.
   3527            num = desc->AppNumInClusters = *buf++;
   \   000066   8E82         MOV       DPL,R6
   \   000068   8F83         MOV       DPH,R7
   \   00006A   A3           INC       DPTR
   \   00006B   A3           INC       DPTR
   \   00006C   A3           INC       DPTR
   \   00006D   E0           MOVX      A,@DPTR
   \   00006E   F8           MOV       R0,A
   \   00006F   EE           MOV       A,R6
   \   000070   2404         ADD       A,#0x4
   \   000072   FE           MOV       R6,A
   \   000073   5001         JNC       ??ZDO_ParseSimpleDescBuf_1
   \   000075   0F           INC       R7
   \                     ??ZDO_ParseSimpleDescBuf_1:
   \   000076   E8           MOV       A,R0
   \   000077   8C82         MOV       DPL,R4
   \   000079   8D83         MOV       DPH,R5
   \   00007B   A3           INC       DPTR
   \   00007C   A3           INC       DPTR
   \   00007D   A3           INC       DPTR
   \   00007E   A3           INC       DPTR
   \   00007F   A3           INC       DPTR
   \   000080   A3           INC       DPTR
   \   000081   F0           MOVX      @DPTR,A
   \   000082   88..         MOV       ?V4,R0
   3528            if ( num )
   \   000084   6063         JZ        ??ZDO_ParseSimpleDescBuf_2
   3529            {
   3530              if (!(desc->pAppInClusterList = (uint16 *)osal_mem_alloc(num*sizeof(uint16))))
   \   000086                ; Setup parameters for call to function osal_mem_alloc
   \   000086   28           ADD       A,R0
   \   000087   FA           MOV       R2,A
   \   000088   E4           CLR       A
   \   000089   33           RLC       A
   \   00008A   FB           MOV       R3,A
   \   00008B   12....       LCALL     `??osal_mem_alloc::?relay`; Banked call to: osal_mem_alloc
   \   00008E   E5..         MOV       A,?V0
   \   000090   2407         ADD       A,#0x7
   \   000092   F8           MOV       R0,A
   \   000093   E4           CLR       A
   \   000094   35..         ADDC      A,?V1
   \   000096   88..         MOV       ?V2,R0
   \   000098   F5..         MOV       ?V3,A
   \   00009A   8882         MOV       DPL,R0
   \   00009C   F583         MOV       DPH,A
   \   00009E   EA           MOV       A,R2
   \   00009F   F0           MOVX      @DPTR,A
   \   0000A0   A3           INC       DPTR
   \   0000A1   EB           MOV       A,R3
   \   0000A2   F0           MOVX      @DPTR,A
   \   0000A3   EA           MOV       A,R2
   \   0000A4   4B           ORL       A,R3
   \   0000A5   7003         JNZ       $+5
   \   0000A7   02....       LJMP      ??ZDO_ParseSimpleDescBuf_3 & 0xFFFF
   3531              {
   3532                // malloc failed. we're done.
   3533                return 1;
   3534              }
   3535              for (i=0; i<num; ++i)
   \   0000AA   7800         MOV       R0,#0x0
   \   0000AC   8035         SJMP      ??ZDO_ParseSimpleDescBuf_4
   3536              {
   3537                desc->pAppInClusterList[i] = BUILD_UINT16( buf[0], buf[1] );
   \                     ??ZDO_ParseSimpleDescBuf_5:
   \   0000AE   8E82         MOV       DPL,R6
   \   0000B0   8F83         MOV       DPH,R7
   \   0000B2   E0           MOVX      A,@DPTR
   \   0000B3   FC           MOV       R4,A
   \   0000B4   A3           INC       DPTR
   \   0000B5   E0           MOVX      A,@DPTR
   \   0000B6   FA           MOV       R2,A
   \   0000B7   E4           CLR       A
   \   0000B8   CA           XCH       A,R2
   \   0000B9   FB           MOV       R3,A
   \   0000BA   EC           MOV       A,R4
   \   0000BB   2A           ADD       A,R2
   \   0000BC   E4           CLR       A
   \   0000BD   3B           ADDC      A,R3
   \   0000BE   FD           MOV       R5,A
   \   0000BF   E8           MOV       A,R0
   \   0000C0   25E0         ADD       A,0xE0 /* A   */
   \   0000C2   FA           MOV       R2,A
   \   0000C3   E4           CLR       A
   \   0000C4   33           RLC       A
   \   0000C5   FB           MOV       R3,A
   \   0000C6   85..82       MOV       DPL,?V2
   \   0000C9   85..83       MOV       DPH,?V3
   \   0000CC   E0           MOVX      A,@DPTR
   \   0000CD   2A           ADD       A,R2
   \   0000CE   F9           MOV       R1,A
   \   0000CF   A3           INC       DPTR
   \   0000D0   E0           MOVX      A,@DPTR
   \   0000D1   3B           ADDC      A,R3
   \   0000D2   8982         MOV       DPL,R1
   \   0000D4   F583         MOV       DPH,A
   \   0000D6   EC           MOV       A,R4
   \   0000D7   F0           MOVX      @DPTR,A
   \   0000D8   A3           INC       DPTR
   \   0000D9   ED           MOV       A,R5
   \   0000DA   F0           MOVX      @DPTR,A
   3538                buf += 2;
   \   0000DB   EE           MOV       A,R6
   \   0000DC   2402         ADD       A,#0x2
   \   0000DE   FE           MOV       R6,A
   \   0000DF   5001         JNC       ??ZDO_ParseSimpleDescBuf_6
   \   0000E1   0F           INC       R7
   3539              }
   \                     ??ZDO_ParseSimpleDescBuf_6:
   \   0000E2   08           INC       R0
   \                     ??ZDO_ParseSimpleDescBuf_4:
   \   0000E3   E8           MOV       A,R0
   \   0000E4   C3           CLR       C
   \   0000E5   95..         SUBB      A,?V4
   \   0000E7   40C5         JC        ??ZDO_ParseSimpleDescBuf_5
   3540            }
   3541          
   3542            // move in output cluster list (if any). allocate aligned memory.
   3543            num = desc->AppNumOutClusters = *buf++;
   \                     ??ZDO_ParseSimpleDescBuf_2:
   \   0000E9   8E82         MOV       DPL,R6
   \   0000EB   8F83         MOV       DPH,R7
   \   0000ED   E0           MOVX      A,@DPTR
   \   0000EE   F8           MOV       R0,A
   \   0000EF   A3           INC       DPTR
   \   0000F0   AE82         MOV       R6,DPL
   \   0000F2   AF83         MOV       R7,DPH
   \   0000F4   85..82       MOV       DPL,?V0
   \   0000F7   85..83       MOV       DPH,?V1
   \   0000FA   A3           INC       DPTR
   \   0000FB   A3           INC       DPTR
   \   0000FC   A3           INC       DPTR
   \   0000FD   A3           INC       DPTR
   \   0000FE   A3           INC       DPTR
   \   0000FF   A3           INC       DPTR
   \   000100   A3           INC       DPTR
   \   000101   A3           INC       DPTR
   \   000102   A3           INC       DPTR
   \   000103   F0           MOVX      @DPTR,A
   \   000104   F5..         MOV       ?V4,A
   3544            if (num)
   \   000106   7003         JNZ       $+5
   \   000108   02....       LJMP      ??ZDO_ParseSimpleDescBuf_7 & 0xFFFF
   3545            {
   3546              if (!(desc->pAppOutClusterList = (uint16 *)osal_mem_alloc(num*sizeof(uint16))))
   \   00010B                ; Setup parameters for call to function osal_mem_alloc
   \   00010B   25E0         ADD       A,0xE0 /* A   */
   \   00010D   FA           MOV       R2,A
   \   00010E   E4           CLR       A
   \   00010F   33           RLC       A
   \   000110   FB           MOV       R3,A
   \   000111   12....       LCALL     `??osal_mem_alloc::?relay`; Banked call to: osal_mem_alloc
   \   000114   8A..         MOV       ?V2,R2
   \   000116   8B..         MOV       ?V3,R3
   \   000118   A8..         MOV       R0,?V2
   \   00011A   A9..         MOV       R1,?V3
   \   00011C   E5..         MOV       A,?V0
   \   00011E   240A         ADD       A,#0xa
   \   000120   FA           MOV       R2,A
   \   000121   E4           CLR       A
   \   000122   35..         ADDC      A,?V1
   \   000124   FB           MOV       R3,A
   \   000125   8A82         MOV       DPL,R2
   \   000127   F583         MOV       DPH,A
   \   000129   E8           MOV       A,R0
   \   00012A   F0           MOVX      @DPTR,A
   \   00012B   A3           INC       DPTR
   \   00012C   E9           MOV       A,R1
   \   00012D   F0           MOVX      @DPTR,A
   \   00012E   E8           MOV       A,R0
   \   00012F   49           ORL       A,R1
   \   000130   702A         JNZ       ??ZDO_ParseSimpleDescBuf_8
   3547              {
   3548                // malloc failed. free input cluster list memory if there is any
   3549                if ( desc->pAppInClusterList != NULL )
   \   000132   E5..         MOV       A,?V0
   \   000134   2407         ADD       A,#0x7
   \   000136   F5..         MOV       ?V2,A
   \   000138   E4           CLR       A
   \   000139   35..         ADDC      A,?V1
   \   00013B   F5..         MOV       ?V3,A
   \   00013D   85..82       MOV       DPL,?V2
   \   000140   F583         MOV       DPH,A
   \   000142   E0           MOVX      A,@DPTR
   \   000143   FA           MOV       R2,A
   \   000144   A3           INC       DPTR
   \   000145   E0           MOVX      A,@DPTR
   \   000146   FB           MOV       R3,A
   \   000147   EA           MOV       A,R2
   \   000148   4B           ORL       A,R3
   \   000149   600D         JZ        ??ZDO_ParseSimpleDescBuf_3
   3550                {
   3551                  osal_mem_free(desc->pAppInClusterList);
   \   00014B                ; Setup parameters for call to function osal_mem_free
   \   00014B   12....       LCALL     `??osal_mem_free::?relay`; Banked call to: osal_mem_free
   3552          
   3553                  desc->pAppInClusterList = NULL;
   \   00014E   85..82       MOV       DPL,?V2
   \   000151   85..83       MOV       DPH,?V3
   \   000154   E4           CLR       A
   \   000155   F0           MOVX      @DPTR,A
   \   000156   A3           INC       DPTR
   \   000157   F0           MOVX      @DPTR,A
   3554                }
   3555                return 1;
   \                     ??ZDO_ParseSimpleDescBuf_3:
   \   000158   7901         MOV       R1,#0x1
   \   00015A   8044         SJMP      ??ZDO_ParseSimpleDescBuf_9
   3556              }
   3557              for (i=0; i<num; ++i)
   \                     ??ZDO_ParseSimpleDescBuf_8:
   \   00015C   7800         MOV       R0,#0x0
   \   00015E   8038         SJMP      ??ZDO_ParseSimpleDescBuf_10
   3558              {
   3559                desc->pAppOutClusterList[i] = BUILD_UINT16( buf[0], buf[1] );
   \                     ??ZDO_ParseSimpleDescBuf_11:
   \   000160   8E82         MOV       DPL,R6
   \   000162   8F83         MOV       DPH,R7
   \   000164   E0           MOVX      A,@DPTR
   \   000165   F5..         MOV       ?V0,A
   \   000167   A3           INC       DPTR
   \   000168   E0           MOVX      A,@DPTR
   \   000169   FC           MOV       R4,A
   \   00016A   E4           CLR       A
   \   00016B   CC           XCH       A,R4
   \   00016C   FD           MOV       R5,A
   \   00016D   E5..         MOV       A,?V0
   \   00016F   2C           ADD       A,R4
   \   000170   E4           CLR       A
   \   000171   3D           ADDC      A,R5
   \   000172   F5..         MOV       ?V1,A
   \   000174   E8           MOV       A,R0
   \   000175   25E0         ADD       A,0xE0 /* A   */
   \   000177   FC           MOV       R4,A
   \   000178   E4           CLR       A
   \   000179   33           RLC       A
   \   00017A   FD           MOV       R5,A
   \   00017B   8A82         MOV       DPL,R2
   \   00017D   8B83         MOV       DPH,R3
   \   00017F   E0           MOVX      A,@DPTR
   \   000180   2C           ADD       A,R4
   \   000181   F9           MOV       R1,A
   \   000182   A3           INC       DPTR
   \   000183   E0           MOVX      A,@DPTR
   \   000184   3D           ADDC      A,R5
   \   000185   8982         MOV       DPL,R1
   \   000187   F583         MOV       DPH,A
   \   000189   E5..         MOV       A,?V0
   \   00018B   F0           MOVX      @DPTR,A
   \   00018C   A3           INC       DPTR
   \   00018D   E5..         MOV       A,?V1
   \   00018F   F0           MOVX      @DPTR,A
   3560                buf += 2;
   \   000190   EE           MOV       A,R6
   \   000191   2402         ADD       A,#0x2
   \   000193   FE           MOV       R6,A
   \   000194   5001         JNC       ??ZDO_ParseSimpleDescBuf_12
   \   000196   0F           INC       R7
   3561              }
   \                     ??ZDO_ParseSimpleDescBuf_12:
   \   000197   08           INC       R0
   \                     ??ZDO_ParseSimpleDescBuf_10:
   \   000198   E8           MOV       A,R0
   \   000199   C3           CLR       C
   \   00019A   95..         SUBB      A,?V4
   \   00019C   40C2         JC        ??ZDO_ParseSimpleDescBuf_11
   3562            }
   3563            return 0;
   \                     ??ZDO_ParseSimpleDescBuf_7:
   \   00019E   7900         MOV       R1,#0x0
   \                     ??ZDO_ParseSimpleDescBuf_9:
   \   0001A0   7F05         MOV       R7,#0x5
   \   0001A2   02....       LJMP      ?BANKED_LEAVE_XDATA
   3564          }
   3565          
   3566          /*********************************************************************
   3567           * @fn          ZDO_ParseDeviceAnnce
   3568           *
   3569           * @brief       Parse a Device Announce message.
   3570           *
   3571           * @param       inMsg - Incoming message
   3572           * @param       pAnnce - place to put the parsed information
   3573           *
   3574           * @return      none
   3575           */

   \                                 In  segment BANKED_CODE, align 1, keep-with-next
   3576          void ZDO_ParseDeviceAnnce( zdoIncomingMsg_t *inMsg, ZDO_DeviceAnnce_t *pAnnce )
   \                     ZDO_ParseDeviceAnnce:
   3577          {
   \   000000                REQUIRE ?V0
   \   000000                REQUIRE ?V1
   \   000000   74F6         MOV       A,#-0xa
   \   000002   12....       LCALL     ?BANKED_ENTER_XDATA
   \   000005                ; Saved register size: 10
   \   000005                ; Auto size: 0
   \   000005   8C..         MOV       ?V0,R4
   \   000007   8D..         MOV       ?V1,R5
   3578            uint8 *msg;
   3579          
   3580            // Parse incoming message
   3581            msg = inMsg->asdu;
   \   000009   EA           MOV       A,R2
   \   00000A   2413         ADD       A,#0x13
   \   00000C   F582         MOV       DPL,A
   \   00000E   E4           CLR       A
   \   00000F   3B           ADDC      A,R3
   \   000010   F583         MOV       DPH,A
   \   000012   E0           MOVX      A,@DPTR
   \   000013   F8           MOV       R0,A
   \   000014   A3           INC       DPTR
   \   000015   E0           MOVX      A,@DPTR
   \   000016   FF           MOV       R7,A
   3582            pAnnce->nwkAddr = BUILD_UINT16( msg[0], msg[1] );
   \   000017   8882         MOV       DPL,R0
   \   000019   F583         MOV       DPH,A
   \   00001B   E0           MOVX      A,@DPTR
   \   00001C   FA           MOV       R2,A
   \   00001D   A3           INC       DPTR
   \   00001E   E0           MOVX      A,@DPTR
   \   00001F   F9           MOV       R1,A
   \   000020   EA           MOV       A,R2
   \   000021   8C82         MOV       DPL,R4
   \   000023   8D83         MOV       DPH,R5
   \   000025   F0           MOVX      @DPTR,A
   \   000026   A3           INC       DPTR
   \   000027   E9           MOV       A,R1
   \   000028   F0           MOVX      @DPTR,A
   3583            msg += 2;
   \   000029   E8           MOV       A,R0
   \   00002A   2402         ADD       A,#0x2
   \   00002C   FE           MOV       R6,A
   \   00002D   5001         JNC       ??ZDO_ParseDeviceAnnce_0
   \   00002F   0F           INC       R7
   3584            osal_cpyExtAddr( pAnnce->extAddr, msg );
   \                     ??ZDO_ParseDeviceAnnce_0:
   \   000030                ; Setup parameters for call to function sAddrExtCpy
   \   000030   FC           MOV       R4,A
   \   000031   EF           MOV       A,R7
   \   000032   FD           MOV       R5,A
   \   000033   E5..         MOV       A,?V0
   \   000035   2402         ADD       A,#0x2
   \   000037   FA           MOV       R2,A
   \   000038   E4           CLR       A
   \   000039   35..         ADDC      A,?V1
   \   00003B   FB           MOV       R3,A
   \   00003C   12....       LCALL     `??sAddrExtCpy::?relay`; Banked call to: sAddrExtCpy
   3585            msg += Z_EXTADDR_LEN;
   3586            pAnnce->capabilities = *msg;
   \   00003F   8E82         MOV       DPL,R6
   \   000041   8F83         MOV       DPH,R7
   \   000043   A3           INC       DPTR
   \   000044   A3           INC       DPTR
   \   000045   A3           INC       DPTR
   \   000046   A3           INC       DPTR
   \   000047   A3           INC       DPTR
   \   000048   A3           INC       DPTR
   \   000049   A3           INC       DPTR
   \   00004A   A3           INC       DPTR
   \   00004B   E0           MOVX      A,@DPTR
   \   00004C   85..82       MOV       DPL,?V0
   \   00004F   85..83       MOV       DPH,?V1
   \   000052   A3           INC       DPTR
   \   000053   A3           INC       DPTR
   \   000054   A3           INC       DPTR
   \   000055   A3           INC       DPTR
   \   000056   A3           INC       DPTR
   \   000057   A3           INC       DPTR
   \   000058   A3           INC       DPTR
   \   000059   A3           INC       DPTR
   \   00005A   A3           INC       DPTR
   \   00005B   A3           INC       DPTR
   \   00005C   F0           MOVX      @DPTR,A
   3587          }
   \   00005D   7F02         MOV       R7,#0x2
   \   00005F   02....       LJMP      ?BANKED_LEAVE_XDATA
   3588          
   3589          /*********************************************************************
   3590           * @fn          ZDO_ParseParentAnnce
   3591           *
   3592           * @brief       Parse Parent Announce and Parent Announce Rsp messages,
   3593           *              both messages have the same payload.
   3594           *
   3595           * @param       inMsg - Incoming message
   3596           *
   3597           * @return      a pointer to parsed response structure (NULL if not allocated).
   3598           *          This structure was allocated using osal_mem_alloc, so it must be freed
   3599           *          by the calling function [osal_mem_free()].
   3600           */

   \                                 In  segment BANKED_CODE, align 1, keep-with-next
   3601          ZDO_ParentAnnce_t *ZDO_ParseParentAnnce( zdoIncomingMsg_t *inMsg )
   \                     ZDO_ParseParentAnnce:
   3602          {
   \   000000                REQUIRE ?V0
   \   000000                REQUIRE ?V1
   \   000000                REQUIRE ?V2
   \   000000                REQUIRE ?V3
   \   000000                REQUIRE ?V4
   \   000000                REQUIRE ?V5
   \   000000   74F2         MOV       A,#-0xe
   \   000002   12....       LCALL     ?BANKED_ENTER_XDATA
   \   000005                ; Saved register size: 14
   \   000005                ; Auto size: 0
   3603            ZDO_ParentAnnce_t *pRcvdMsg;
   3604            uint8 *msg;
   3605            uint8 numChildren;
   3606          
   3607            msg = inMsg->asdu;
   \   000005   EA           MOV       A,R2
   \   000006   2413         ADD       A,#0x13
   \   000008   F582         MOV       DPL,A
   \   00000A   E4           CLR       A
   \   00000B   3B           ADDC      A,R3
   \   00000C   F583         MOV       DPH,A
   \   00000E   E0           MOVX      A,@DPTR
   \   00000F   FE           MOV       R6,A
   \   000010   A3           INC       DPTR
   \   000011   E0           MOVX      A,@DPTR
   \   000012   FF           MOV       R7,A
   3608            if ( inMsg->clusterID == Parent_annce_rsp)
   \   000013   EA           MOV       A,R2
   \   000014   240C         ADD       A,#0xc
   \   000016   F582         MOV       DPL,A
   \   000018   E4           CLR       A
   \   000019   3B           ADDC      A,R3
   \   00001A   F583         MOV       DPH,A
   \   00001C   E0           MOVX      A,@DPTR
   \   00001D   641F         XRL       A,#0x1f
   \   00001F   7004         JNZ       ??ZDO_ParseParentAnnce_0
   \   000021   A3           INC       DPTR
   \   000022   E0           MOVX      A,@DPTR
   \   000023   6480         XRL       A,#0x80
   \                     ??ZDO_ParseParentAnnce_0:
   \   000025   7009         JNZ       ??ZDO_ParseParentAnnce_1
   3609            {
   3610              *msg++;
   \   000027   8E82         MOV       DPL,R6
   \   000029   8F83         MOV       DPH,R7
   \   00002B   A3           INC       DPTR
   \   00002C   AE82         MOV       R6,DPL
   \   00002E   AF83         MOV       R7,DPH
   3611            }
   3612            numChildren = *msg++;
   \                     ??ZDO_ParseParentAnnce_1:
   \   000030   8E82         MOV       DPL,R6
   \   000032   8F83         MOV       DPH,R7
   \   000034   E0           MOVX      A,@DPTR
   \   000035   F5..         MOV       ?V5,A
   \   000037   A3           INC       DPTR
   \   000038   AE82         MOV       R6,DPL
   \   00003A   AF83         MOV       R7,DPH
   3613          
   3614            // Allocate a buffer big enough to handle the list
   3615            pRcvdMsg = (ZDO_ParentAnnce_t *)osal_mem_alloc(
   3616                       (sizeof(ZDO_ParentAnnce_t) + (numChildren * sizeof(ZDO_ChildInfo_t))));
   \   00003C                ; Setup parameters for call to function osal_mem_alloc
   \   00003C   F5..         MOV       ?V0,A
   \   00003E   75..00       MOV       ?V1,#0x0
   \   000041   7403         MOV       A,#0x3
   \   000043   78..         MOV       R0,#?V0
   \   000045   12....       LCALL     ?S_SHL
   \   000048   E5..         MOV       A,?V0
   \   00004A   2401         ADD       A,#0x1
   \   00004C   FA           MOV       R2,A
   \   00004D   E4           CLR       A
   \   00004E   35..         ADDC      A,?V1
   \   000050   FB           MOV       R3,A
   \   000051   12....       LCALL     `??osal_mem_alloc::?relay`; Banked call to: osal_mem_alloc
   \   000054   8A..         MOV       ?V2,R2
   \   000056   8B..         MOV       ?V3,R3
   3617          
   3618            if ( pRcvdMsg )
   \   000058   EA           MOV       A,R2
   \   000059   4B           ORL       A,R3
   \   00005A   603C         JZ        ??ZDO_ParseParentAnnce_2
   3619            {
   3620              uint8 x;
   3621              ZDO_ChildInfo_t *pList = pRcvdMsg->childInfo;
   \   00005C   8A82         MOV       DPL,R2
   \   00005E   8B83         MOV       DPH,R3
   \   000060   A3           INC       DPTR
   \   000061   8582..       MOV       ?V0,DPL
   \   000064   8583..       MOV       ?V1,DPH
   3622          
   3623              pRcvdMsg->numOfChildren = numChildren;
   \   000067   8A82         MOV       DPL,R2
   \   000069   8B83         MOV       DPH,R3
   \   00006B   E5..         MOV       A,?V5
   \   00006D   F0           MOVX      @DPTR,A
   3624          
   3625              for ( x = 0; x < numChildren; x++ )
   \   00006E   75..00       MOV       ?V4,#0x0
   \   000071   801E         SJMP      ??ZDO_ParseParentAnnce_3
   3626              {
   3627                osal_cpyExtAddr( pList->extAddr, msg );
   \                     ??ZDO_ParseParentAnnce_4:
   \   000073                ; Setup parameters for call to function sAddrExtCpy
   \   000073   EE           MOV       A,R6
   \   000074   FC           MOV       R4,A
   \   000075   EF           MOV       A,R7
   \   000076   FD           MOV       R5,A
   \   000077   AA..         MOV       R2,?V0
   \   000079   AB..         MOV       R3,?V1
   \   00007B   12....       LCALL     `??sAddrExtCpy::?relay`; Banked call to: sAddrExtCpy
   3628                msg += Z_EXTADDR_LEN;
   \   00007E   EE           MOV       A,R6
   \   00007F   2408         ADD       A,#0x8
   \   000081   FE           MOV       R6,A
   \   000082   5001         JNC       ??ZDO_ParseParentAnnce_5
   \   000084   0F           INC       R7
   3629          
   3630                pList++;
   \                     ??ZDO_ParseParentAnnce_5:
   \   000085   E5..         MOV       A,?V0
   \   000087   2408         ADD       A,#0x8
   \   000089   F5..         MOV       ?V0,A
   \   00008B   5002         JNC       ??ZDO_ParseParentAnnce_6
   \   00008D   05..         INC       ?V1
   3631              }
   \                     ??ZDO_ParseParentAnnce_6:
   \   00008F   05..         INC       ?V4
   \                     ??ZDO_ParseParentAnnce_3:
   \   000091   E5..         MOV       A,?V4
   \   000093   C3           CLR       C
   \   000094   95..         SUBB      A,?V5
   \   000096   40DB         JC        ??ZDO_ParseParentAnnce_4
   3632            }
   3633          
   3634            return ( pRcvdMsg );
   \                     ??ZDO_ParseParentAnnce_2:
   \   000098   AA..         MOV       R2,?V2
   \   00009A   AB..         MOV       R3,?V3
   \   00009C   7F06         MOV       R7,#0x6
   \   00009E   02....       LJMP      ?BANKED_LEAVE_XDATA
   3635          }
   3636          
   3637          /*********************************************************************
   3638           * @fn          ZDO_ParseMgmtNwkUpdateNotify
   3639           *
   3640           * @brief       This function handles parsing of the incoming Management
   3641           *              Network Update notify.
   3642           *
   3643           * @param       inMsg - incoming message (request)
   3644           *
   3645           * @return      a pointer to parsed response structure (NULL if not allocated).
   3646           *          This structure was allocated using osal_mem_alloc, so it must be freed
   3647           *          by the calling function [osal_mem_free()].
   3648           */

   \                                 In  segment BANKED_CODE, align 1, keep-with-next
   3649          ZDO_MgmtNwkUpdateNotify_t *ZDO_ParseMgmtNwkUpdateNotify( zdoIncomingMsg_t *inMsg )
   \                     ZDO_ParseMgmtNwkUpdateNotify:
   3650          {
   \   000000                REQUIRE ?V0
   \   000000                REQUIRE ?V1
   \   000000                REQUIRE ?V2
   \   000000                REQUIRE ?V3
   \   000000                REQUIRE ?V4
   \   000000                REQUIRE ?V5
   \   000000                REQUIRE ?V6
   \   000000                REQUIRE ?V7
   \   000000                REQUIRE ?V8
   \   000000                REQUIRE ?V9
   \   000000                REQUIRE ?V10
   \   000000                REQUIRE ?V11
   \   000000                REQUIRE ?V12
   \   000000                REQUIRE ?V13
   \   000000                REQUIRE ?V14
   \   000000                REQUIRE ?V15
   \   000000   74E8         MOV       A,#-0x18
   \   000002   12....       LCALL     ?BANKED_ENTER_XDATA
   \   000005                ; Saved register size: 24
   \   000005                ; Auto size: 0
   3651            uint8 status;
   3652            uint32 scannedChannels = 0;
   \   000005   75..00       MOV       ?V4,#0x0
   \   000008   75..00       MOV       ?V5,#0x0
   \   00000B   75..00       MOV       ?V6,#0x0
   \   00000E   75..00       MOV       ?V7,#0x0
   3653            uint16 totalTransmissions = 0;
   \   000011   75..00       MOV       ?V0,#0x0
   \   000014   75..00       MOV       ?V1,#0x0
   3654            uint16 transmissionFailures = 0;
   \   000017   75..00       MOV       ?V2,#0x0
   \   00001A   75..00       MOV       ?V3,#0x0
   3655            uint8 listCount = 0;
   \   00001D   75..00       MOV       ?V10,#0x0
   3656            uint8 *msg = inMsg->asdu;
   \   000020   EA           MOV       A,R2
   \   000021   2413         ADD       A,#0x13
   \   000023   F582         MOV       DPL,A
   \   000025   E4           CLR       A
   \   000026   3B           ADDC      A,R3
   \   000027   F583         MOV       DPH,A
   \   000029   E0           MOVX      A,@DPTR
   \   00002A   F5..         MOV       ?V8,A
   \   00002C   A3           INC       DPTR
   \   00002D   E0           MOVX      A,@DPTR
   3657            ZDO_MgmtNwkUpdateNotify_t *pRsp;
   3658          
   3659            status = *msg++;
   \   00002E   85..82       MOV       DPL,?V8
   \   000031   F583         MOV       DPH,A
   \   000033   E0           MOVX      A,@DPTR
   \   000034   F5..         MOV       ?V11,A
   \   000036   A3           INC       DPTR
   \   000037   8582..       MOV       ?V8,DPL
   \   00003A   8583..       MOV       ?V9,DPH
   3660            if ( status == ZSuccess )
   \   00003D   7064         JNZ       ??ZDO_ParseMgmtNwkUpdateNotify_0
   3661            {
   3662              scannedChannels = osal_build_uint32( msg, 4 );
   \   00003F                ; Setup parameters for call to function osal_build_uint32
   \   00003F   7904         MOV       R1,#0x4
   \   000041   AA..         MOV       R2,?V8
   \   000043   AB..         MOV       R3,?V9
   \   000045   12....       LCALL     `??osal_build_uint32::?relay`; Banked call to: osal_build_uint32
   \   000048   8A..         MOV       ?V4,R2
   \   00004A   8B..         MOV       ?V5,R3
   \   00004C   8C..         MOV       ?V6,R4
   \   00004E   8D..         MOV       ?V7,R5
   3663              msg += 4;
   \   000050   E5..         MOV       A,?V8
   \   000052   2404         ADD       A,#0x4
   \   000054   F5..         MOV       ?V8,A
   \   000056   5002         JNC       ??ZDO_ParseMgmtNwkUpdateNotify_1
   \   000058   05..         INC       ?V9
   3664              totalTransmissions = BUILD_UINT16( msg[0], msg[1] );
   \                     ??ZDO_ParseMgmtNwkUpdateNotify_1:
   \   00005A   F582         MOV       DPL,A
   \   00005C   85..83       MOV       DPH,?V9
   \   00005F   E0           MOVX      A,@DPTR
   \   000060   FA           MOV       R2,A
   \   000061   A3           INC       DPTR
   \   000062   E0           MOVX      A,@DPTR
   \   000063   F8           MOV       R0,A
   \   000064   E4           CLR       A
   \   000065   C8           XCH       A,R0
   \   000066   F9           MOV       R1,A
   \   000067   EA           MOV       A,R2
   \   000068   28           ADD       A,R0
   \   000069   F5..         MOV       ?V0,A
   \   00006B   E4           CLR       A
   \   00006C   39           ADDC      A,R1
   \   00006D   F5..         MOV       ?V1,A
   3665              msg += 2;
   \   00006F   E5..         MOV       A,?V8
   \   000071   2402         ADD       A,#0x2
   \   000073   F5..         MOV       ?V8,A
   \   000075   5002         JNC       ??ZDO_ParseMgmtNwkUpdateNotify_2
   \   000077   05..         INC       ?V9
   3666              transmissionFailures = BUILD_UINT16( msg[0], msg[1] );
   \                     ??ZDO_ParseMgmtNwkUpdateNotify_2:
   \   000079   F582         MOV       DPL,A
   \   00007B   85..83       MOV       DPH,?V9
   \   00007E   E0           MOVX      A,@DPTR
   \   00007F   FA           MOV       R2,A
   \   000080   A3           INC       DPTR
   \   000081   E0           MOVX      A,@DPTR
   \   000082   F8           MOV       R0,A
   \   000083   E4           CLR       A
   \   000084   C8           XCH       A,R0
   \   000085   F9           MOV       R1,A
   \   000086   EA           MOV       A,R2
   \   000087   28           ADD       A,R0
   \   000088   F5..         MOV       ?V2,A
   \   00008A   E4           CLR       A
   \   00008B   39           ADDC      A,R1
   \   00008C   F5..         MOV       ?V3,A
   3667              msg += 2;
   3668              listCount = *msg++;
   \   00008E   85..82       MOV       DPL,?V8
   \   000091   85..83       MOV       DPH,?V9
   \   000094   A3           INC       DPTR
   \   000095   A3           INC       DPTR
   \   000096   E0           MOVX      A,@DPTR
   \   000097   F5..         MOV       ?V10,A
   \   000099   E5..         MOV       A,?V8
   \   00009B   2403         ADD       A,#0x3
   \   00009D   F5..         MOV       ?V8,A
   \   00009F   5002         JNC       ??ZDO_ParseMgmtNwkUpdateNotify_0
   \   0000A1   05..         INC       ?V9
   3669            }
   3670          
   3671            pRsp = (ZDO_MgmtNwkUpdateNotify_t *)osal_mem_alloc( sizeof ( ZDO_MgmtNwkUpdateNotify_t ) + listCount );
   \                     ??ZDO_ParseMgmtNwkUpdateNotify_0:
   \   0000A3   AE..         MOV       R6,?V10
   \   0000A5                ; Setup parameters for call to function osal_mem_alloc
   \   0000A5   EE           MOV       A,R6
   \   0000A6   240A         ADD       A,#0xa
   \   0000A8   FA           MOV       R2,A
   \   0000A9   E4           CLR       A
   \   0000AA   3400         ADDC      A,#0x0
   \   0000AC   FB           MOV       R3,A
   \   0000AD   12....       LCALL     `??osal_mem_alloc::?relay`; Banked call to: osal_mem_alloc
   \   0000B0   8A..         MOV       ?V14,R2
   \   0000B2   8B..         MOV       ?V15,R3
   3672          
   3673            if ( pRsp )
   \   0000B4   EA           MOV       A,R2
   \   0000B5   4B           ORL       A,R3
   \   0000B6   605C         JZ        ??ZDO_ParseMgmtNwkUpdateNotify_3
   3674            {
   3675              pRsp->status = status;
   \   0000B8   8A82         MOV       DPL,R2
   \   0000BA   8B83         MOV       DPH,R3
   \   0000BC   E5..         MOV       A,?V11
   \   0000BE   F0           MOVX      @DPTR,A
   3676              pRsp->scannedChannels = scannedChannels;
   \   0000BF   A3           INC       DPTR
   \   0000C0   78..         MOV       R0,#?V4
   \   0000C2   12....       LCALL     ?L_MOV_TO_X
   3677              pRsp->totalTransmissions = totalTransmissions;
   \   0000C5   8A82         MOV       DPL,R2
   \   0000C7   8B83         MOV       DPH,R3
   \   0000C9   A3           INC       DPTR
   \   0000CA   A3           INC       DPTR
   \   0000CB   A3           INC       DPTR
   \   0000CC   A3           INC       DPTR
   \   0000CD   A3           INC       DPTR
   \   0000CE   E5..         MOV       A,?V0
   \   0000D0   F0           MOVX      @DPTR,A
   \   0000D1   A3           INC       DPTR
   \   0000D2   E5..         MOV       A,?V1
   \   0000D4   F0           MOVX      @DPTR,A
   3678              pRsp->transmissionFailures = transmissionFailures;
   \   0000D5   8A82         MOV       DPL,R2
   \   0000D7   8B83         MOV       DPH,R3
   \   0000D9   A3           INC       DPTR
   \   0000DA   A3           INC       DPTR
   \   0000DB   A3           INC       DPTR
   \   0000DC   A3           INC       DPTR
   \   0000DD   A3           INC       DPTR
   \   0000DE   A3           INC       DPTR
   \   0000DF   A3           INC       DPTR
   \   0000E0   E5..         MOV       A,?V2
   \   0000E2   F0           MOVX      @DPTR,A
   \   0000E3   A3           INC       DPTR
   \   0000E4   E5..         MOV       A,?V3
   \   0000E6   F0           MOVX      @DPTR,A
   3679              pRsp->listCount = listCount;
   \   0000E7   8A82         MOV       DPL,R2
   \   0000E9   8B83         MOV       DPH,R3
   \   0000EB   A3           INC       DPTR
   \   0000EC   A3           INC       DPTR
   \   0000ED   A3           INC       DPTR
   \   0000EE   A3           INC       DPTR
   \   0000EF   A3           INC       DPTR
   \   0000F0   A3           INC       DPTR
   \   0000F1   A3           INC       DPTR
   \   0000F2   A3           INC       DPTR
   \   0000F3   A3           INC       DPTR
   \   0000F4   EE           MOV       A,R6
   \   0000F5   F0           MOVX      @DPTR,A
   3680          
   3681              // Allocate a buffer big enough to handle the list.
   3682              if ( listCount > 0 )
   \   0000F6   601C         JZ        ??ZDO_ParseMgmtNwkUpdateNotify_3
   3683              {
   3684                osal_memcpy( pRsp->energyValues, msg, listCount );
   \   0000F8                ; Setup parameters for call to function osal_memcpy
   \   0000F8   75..00       MOV       ?V10,#0x0
   \   0000FB   78..         MOV       R0,#?V8
   \   0000FD   12....       LCALL     ?PUSH_XSTACK_I_THREE
   \   000100   EE           MOV       A,R6
   \   000101   FC           MOV       R4,A
   \   000102   7D00         MOV       R5,#0x0
   \   000104   EA           MOV       A,R2
   \   000105   240A         ADD       A,#0xa
   \   000107   FA           MOV       R2,A
   \   000108   E4           CLR       A
   \   000109   35..         ADDC      A,?V15
   \   00010B   FB           MOV       R3,A
   \   00010C   12....       LCALL     `??osal_memcpy::?relay`; Banked call to: osal_memcpy
   \   00010F   7403         MOV       A,#0x3
   \   000111   12....       LCALL     ?DEALLOC_XSTACK8
   3685              }
   3686            }
   3687          
   3688            return ( pRsp );
   \                     ??ZDO_ParseMgmtNwkUpdateNotify_3:
   \   000114   AA..         MOV       R2,?V14
   \   000116   AB..         MOV       R3,?V15
   \   000118   7F10         MOV       R7,#0x10
   \   00011A   02....       LJMP      ?BANKED_LEAVE_XDATA
   3689          }
   3690          
   3691          /*********************************************************************
   3692           * @fn          ZDO_ParseMgmtNwkUpdateReq
   3693           *
   3694           * @brief       This function handles parsing the incoming Management
   3695           *              Network Update request and starts the request (if needed).
   3696           *
   3697           * @param       inMsg - incoming message (request)
   3698           * @param       pReq - pointer to place to parse message to
   3699           *
   3700           * @return      none
   3701           */

   \                                 In  segment BANKED_CODE, align 1, keep-with-next
   3702          void ZDO_ParseMgmtNwkUpdateReq( zdoIncomingMsg_t *inMsg, ZDO_MgmtNwkUpdateReq_t *pReq )
   \                     ZDO_ParseMgmtNwkUpdateReq:
   3703          {
   \   000000                REQUIRE ?V0
   \   000000                REQUIRE ?V1
   \   000000   74F6         MOV       A,#-0xa
   \   000002   12....       LCALL     ?BANKED_ENTER_XDATA
   \   000005                ; Saved register size: 10
   \   000005                ; Auto size: 0
   \   000005   8C..         MOV       ?V0,R4
   \   000007   8D..         MOV       ?V1,R5
   3704            uint8 *msg = inMsg->asdu;
   \   000009   EA           MOV       A,R2
   \   00000A   2413         ADD       A,#0x13
   \   00000C   F582         MOV       DPL,A
   \   00000E   E4           CLR       A
   \   00000F   3B           ADDC      A,R3
   \   000010   F583         MOV       DPH,A
   \   000012   E0           MOVX      A,@DPTR
   \   000013   FE           MOV       R6,A
   \   000014   A3           INC       DPTR
   \   000015   E0           MOVX      A,@DPTR
   \   000016   FF           MOV       R7,A
   3705          
   3706            pReq->channelMask = osal_build_uint32( msg, 4 );
   \   000017                ; Setup parameters for call to function osal_build_uint32
   \   000017   7904         MOV       R1,#0x4
   \   000019   EE           MOV       A,R6
   \   00001A   FA           MOV       R2,A
   \   00001B   EF           MOV       A,R7
   \   00001C   FB           MOV       R3,A
   \   00001D   12....       LCALL     `??osal_build_uint32::?relay`; Banked call to: osal_build_uint32
   \   000020   EA           MOV       A,R2
   \   000021   F8           MOV       R0,A
   \   000022   EB           MOV       A,R3
   \   000023   F9           MOV       R1,A
   \   000024   EC           MOV       A,R4
   \   000025   FA           MOV       R2,A
   \   000026   ED           MOV       A,R5
   \   000027   FB           MOV       R3,A
   \   000028   85..82       MOV       DPL,?V0
   \   00002B   85..83       MOV       DPH,?V1
   \   00002E   12....       LCALL     ?XSTORE_R0123
   3707            msg += 4;
   3708            pReq->scanDuration = *msg++;
   \   000031   8E82         MOV       DPL,R6
   \   000033   8F83         MOV       DPH,R7
   \   000035   A3           INC       DPTR
   \   000036   A3           INC       DPTR
   \   000037   A3           INC       DPTR
   \   000038   A3           INC       DPTR
   \   000039   E0           MOVX      A,@DPTR
   \   00003A   FA           MOV       R2,A
   \   00003B   E5..         MOV       A,?V0
   \   00003D   2404         ADD       A,#0x4
   \   00003F   F8           MOV       R0,A
   \   000040   E4           CLR       A
   \   000041   35..         ADDC      A,?V1
   \   000043   F9           MOV       R1,A
   \   000044   EA           MOV       A,R2
   \   000045   8882         MOV       DPL,R0
   \   000047   8983         MOV       DPH,R1
   \   000049   F0           MOVX      @DPTR,A
   3709          
   3710            if ( pReq->scanDuration <= 0x05 )
   \   00004A   C3           CLR       C
   \   00004B   9406         SUBB      A,#0x6
   \   00004D   5017         JNC       ??ZDO_ParseMgmtNwkUpdateReq_0
   3711            {
   3712              // Request is to scan over channelMask
   3713              pReq->scanCount = *msg;
   \   00004F   8E82         MOV       DPL,R6
   \   000051   8F83         MOV       DPH,R7
   \   000053   A3           INC       DPTR
   \   000054   A3           INC       DPTR
   \   000055   A3           INC       DPTR
   \   000056   A3           INC       DPTR
   \   000057   A3           INC       DPTR
   \   000058   E0           MOVX      A,@DPTR
   \   000059   85..82       MOV       DPL,?V0
   \   00005C   85..83       MOV       DPH,?V1
   \   00005F   A3           INC       DPTR
   \   000060   A3           INC       DPTR
   \   000061   A3           INC       DPTR
   \   000062   A3           INC       DPTR
   \   000063   A3           INC       DPTR
   \   000064   804A         SJMP      ??ZDO_ParseMgmtNwkUpdateReq_1
   3714            }
   3715            else if ( ( pReq->scanDuration == 0xFE ) || ( pReq->scanDuration == 0xFF ) )
   \                     ??ZDO_ParseMgmtNwkUpdateReq_0:
   \   000066   74FE         MOV       A,#-0x2
   \   000068   6A           XRL       A,R2
   \   000069   6005         JZ        ??ZDO_ParseMgmtNwkUpdateReq_2
   \   00006B   74FF         MOV       A,#-0x1
   \   00006D   6A           XRL       A,R2
   \   00006E   7041         JNZ       ??ZDO_ParseMgmtNwkUpdateReq_3
   3716            {
   3717              // Request is to change Channel (0xFE) or apsChannelMask and NwkManagerAddr (0xFF)
   3718              pReq->nwkUpdateId = *msg++;
   \                     ??ZDO_ParseMgmtNwkUpdateReq_2:
   \   000070   8E82         MOV       DPL,R6
   \   000072   8F83         MOV       DPH,R7
   \   000074   A3           INC       DPTR
   \   000075   A3           INC       DPTR
   \   000076   A3           INC       DPTR
   \   000077   A3           INC       DPTR
   \   000078   A3           INC       DPTR
   \   000079   E0           MOVX      A,@DPTR
   \   00007A   85..82       MOV       DPL,?V0
   \   00007D   85..83       MOV       DPH,?V1
   \   000080   A3           INC       DPTR
   \   000081   A3           INC       DPTR
   \   000082   A3           INC       DPTR
   \   000083   A3           INC       DPTR
   \   000084   A3           INC       DPTR
   \   000085   A3           INC       DPTR
   \   000086   F0           MOVX      @DPTR,A
   \   000087   EE           MOV       A,R6
   \   000088   2406         ADD       A,#0x6
   \   00008A   FE           MOV       R6,A
   \   00008B   5001         JNC       ??ZDO_ParseMgmtNwkUpdateReq_4
   \   00008D   0F           INC       R7
   3719          
   3720              if ( pReq->scanDuration == 0xFF )
   \                     ??ZDO_ParseMgmtNwkUpdateReq_4:
   \   00008E   8882         MOV       DPL,R0
   \   000090   8983         MOV       DPH,R1
   \   000092   E0           MOVX      A,@DPTR
   \   000093   F4           CPL       A
   \   000094   701B         JNZ       ??ZDO_ParseMgmtNwkUpdateReq_3
   3721              {
   3722                pReq->nwkManagerAddr = BUILD_UINT16( msg[0], msg[1] );
   \   000096   8E82         MOV       DPL,R6
   \   000098   8F83         MOV       DPH,R7
   \   00009A   E0           MOVX      A,@DPTR
   \   00009B   FA           MOV       R2,A
   \   00009C   A3           INC       DPTR
   \   00009D   E0           MOVX      A,@DPTR
   \   00009E   F9           MOV       R1,A
   \   00009F   EA           MOV       A,R2
   \   0000A0   85..82       MOV       DPL,?V0
   \   0000A3   85..83       MOV       DPH,?V1
   \   0000A6   A3           INC       DPTR
   \   0000A7   A3           INC       DPTR
   \   0000A8   A3           INC       DPTR
   \   0000A9   A3           INC       DPTR
   \   0000AA   A3           INC       DPTR
   \   0000AB   A3           INC       DPTR
   \   0000AC   A3           INC       DPTR
   \   0000AD   F0           MOVX      @DPTR,A
   \   0000AE   A3           INC       DPTR
   \   0000AF   E9           MOV       A,R1
   \                     ??ZDO_ParseMgmtNwkUpdateReq_1:
   \   0000B0   F0           MOVX      @DPTR,A
   3723              }
   3724            }
   3725          }
   \                     ??ZDO_ParseMgmtNwkUpdateReq_3:
   \   0000B1   7F02         MOV       R7,#0x2
   \   0000B3   02....       LJMP      ?BANKED_LEAVE_XDATA

   \                                 In  segment XDATA_ID, align 1, keep-with-next
   \                     `?<Initializer for zdpExternalStateTaskID>`:
   \   000000   FFFF         DW -1

   \                                 In  segment XDATA_ROM_C, align 1
   \                     `?<Constant "StartDevice ERR">`:
   \   000000   53746172     DB "StartDevice ERR"
   \            74446576
   \            69636520
   \            45525200

   \                                 In  segment XDATA_ROM_C, align 1
   \                     `?<Constant "MODE unknown">`:
   \   000000   4D4F4445     DB "MODE unknown"
   \            20756E6B
   \            6E6F776E
   \            00      

   \                                 In  segment XDATA_ROM_C, align 1
   \                     `?<Constant "End Device Bind">`:
   \   000000   456E6420     DB "End Device Bind"
   \            44657669
   \            63652042
   \            696E6400

   \                                 In  segment XDATA_ROM_C, align 1
   \                     `?<Constant "Success Sent">`:
   \   000000   53756363     DB "Success Sent"
   \            65737320
   \            53656E74
   \            00      

   \                                 In  segment XDATA_ROM_C, align 1
   \                     `?<Constant "Timeout">`:
   \   000000   54696D65     DB "Timeout"
   \            6F757400

   \                                 In  segment XDATA_ROM_C, align 1
   \                     `?<Constant "Match Desc Req">`:
   \   000000   4D617463     DB "Match Desc Req"
   \            68204465
   \            73632052
   \            657100  

   \                                 In  segment XDATA_ROM_C, align 1
   \                     `?<Constant "Rsp Sent">`:
   \   000000   52737020     DB "Rsp Sent"
   \            53656E74
   \            00      

   \                                 In  segment XDATA_ROM_C, align 1
   \                     `?<Constant "Rsp Non Matched">`:
   \   000000   52737020     DB "Rsp Non Matched"
   \            4E6F6E20
   \            4D617463
   \            68656400

   \                                 In  segment XDATA_ROM_C, align 1
   \                     `?<Constant "Non Matched">`:
   \   000000   4E6F6E20     DB "Non Matched"
   \            4D617463
   \            68656400

   \                                 In  segment XDATA_ROM_C, align 1
   \                     __Constant_3e8:
   \   000000   E8030000     DD 1000

   \                                 In  segment XDATA_ROM_C, align 1
   \                     __Constant_0:
   \   000000   00000000     DD 0
   3726          
   3727          /*********************************************************************
   3728          *********************************************************************/

   Maximum stack usage in bytes:

   ISTACK XSTACK Function
   ------ ------ --------
      0      0   NLME_PermitJoiningTimeout
      2      0   ZDODeviceSetup
        2      0   -> APS_ReflectorInit
        2      0   -> NLME_DeviceJoiningInit
      0     41   ZDO_AnyClusterMatches
      1     14   ZDO_BuildSimpleDescBuf
      0     37   ZDO_ConvertOTAClusters
      2      0   ZDO_EndDeviceTimeoutCB
        2      0   -> ZDO_RemoveEndDeviceBind
        2      0   -> ZDO_SendEDBindRsp
      2      0   ZDO_Init
        2      0   -> ZDODeviceSetup
        2      0   -> sAddrExtCpy
      1     14   ZDO_ParseAddrRsp
        0     14   -> osal_mem_alloc
        0     14   -> sAddrExtCpy
      1     10   ZDO_ParseBindUnbindReq
        0     10   -> sAddrExtCpy
      1     52   ZDO_ParseDeviceAnnce
        0     10   -> sAddrExtCpy
      1     19   ZDO_ParseEPListRsp
        0     16   -> osal_mem_alloc
        0     19   -> osal_memcpy
      1     18   ZDO_ParseEndDeviceBindReq
        0     18   -> ZDO_ConvertOTAClusters
        0     18   -> osal_mem_alloc
        0     18   -> sAddrExtCpy
      1     16   ZDO_ParseMgmNwkDiscRsp
        0     16   -> osal_mem_alloc
        0     16   -> sAddrExtCpy
      1     18   ZDO_ParseMgmtBindRsp
        0     18   -> osal_mem_alloc
        0     18   -> sAddrExtCpy
      1     16   ZDO_ParseMgmtLqiRsp
        0     16   -> osal_mem_alloc
        0     16   -> sAddrExtCpy
      1     27   ZDO_ParseMgmtNwkUpdateNotify
        0     24   -> osal_build_uint32
        0     24   -> osal_mem_alloc
        0     27   -> osal_memcpy
      1     10   ZDO_ParseMgmtNwkUpdateReq
        0     10   -> osal_build_uint32
      1     14   ZDO_ParseMgmtRtgRsp
        0     14   -> osal_mem_alloc
      1     10   ZDO_ParseNodeDescRsp
      1     45   ZDO_ParseParentAnnce
        0     14   -> osal_mem_alloc
        0     14   -> sAddrExtCpy
      1     10   ZDO_ParsePowerDescRsp
      1      9   ZDO_ParseServerDiscRsp
      1     22   ZDO_ParseSimpleDescBuf
        0     13   -> osal_mem_alloc
        0     13   -> osal_mem_free
      1      9   ZDO_ParseSimpleDescRsp
        0      9   -> ZDO_ParseSimpleDescBuf
      1     19   ZDO_ParseUserDescRsp
        0     16   -> osal_mem_alloc
        0     19   -> osal_memcpy
      0     21   ZDO_ProcessActiveEPReq
        0     14   -> NLME_GetShortAddr
        0     21   -> ZDP_EPRsp
        0     14   -> afEndPoints
        0     14   -> afNumEndPoints
      0     32   ZDO_ProcessBindUnbindReq
        0     28   -> APSME_BindRequest
        0     27   -> APSME_LookupNwkAddr
        0     28   -> APSME_UnBindRequest
        0     27   -> NLME_GetExtAddr
        0     27   -> ZDApp_NVUpdate
        0     27   -> ZDP_NwkAddrReq
        0     32   -> ZDP_SendData
        0     27   -> sAddrExtCmp
        0     27   -> sAddrExtCpy
      0     42   ZDO_ProcessDeviceAnnce
        0     42   -> AddrMgrEntryLookupExt
        0     42   -> AddrMgrEntryLookupNwk
        0     42   -> AddrMgrEntryUpdate
        0     42   -> AddrMgrExtAddrSet
        0     42   -> NLME_CheckNewAddrSet
        0     42   -> NLME_GetCoordExtAddr
        0     42   -> NLME_GetCoordShortAddr
        0     42   -> NLME_GetExtAddr
        0     42   -> NLME_GetShortAddr
        0     42   -> RTG_RemoveRtgEntry
        0     42   -> ZDO_ParseDeviceAnnce
        0     42   -> ZMacSetReq
        0     42   -> nwkNeighborRemove
        0     42   -> nwkNeighborRemoveAllStranded
        0     42   -> osal_memset
        0     42   -> sAddrExtCmp
      1     34   ZDO_ProcessMatchDescReq
        0     27   -> HalLcdWriteScreen
        0     27   -> NLME_IsAddressBroadcast
        0     29   -> ZDO_AnyClusterMatches
        0     27   -> ZDO_ConvertOTAClusters
        0     34   -> ZDP_EPRsp
        0     27   -> osal_mem_alloc
        0     27   -> osal_mem_free
        0     30   -> osal_memcpy
        0     27   -> osal_msg_allocate
        0     27   -> osal_msg_send
      0     25   ZDO_ProcessMgmtBindReq
        0     20   -> APSME_GetRequest
        0     25   -> ZDP_MgmtBindRsp
        0     20   -> osal_mem_alloc
        0     20   -> osal_mem_free
      1     16   ZDO_ProcessMgmtDirectJoinReq
        0     11   -> NLME_DirectJoinRequest
        0     16   -> ZDP_SendData
      0     23   ZDO_ProcessMgmtLeaveReq
        0     18   -> AddrMgrExtAddrValid
        0     18   -> NLME_GetExtAddr
        0     18   -> NLME_LeaveReq
        0     18   -> NLME_SetPollRate
        0     18   -> NLME_SetQueuedPollRate
        0     18   -> NLME_SetResponseRate
        0     23   -> ZDP_SendData
        0     18   -> bdb_setFN
        0     18   -> sAddrExtCmp
      1     66   ZDO_ProcessMgmtLqiReq
        0     61   -> AddrMgrEntryLookupNwk
        0     61   -> AssocCount
        0     61   -> AssocFindDevice
        0     61   -> NLME_GetRequest
        0     66   -> ZDP_MgmtLqiRsp
        0     61   -> osal_mem_alloc
        0     61   -> osal_mem_free
        0     61   -> osal_memset
        0     61   -> sAddrExtCpy
      1     17   ZDO_ProcessMgmtNwkDiscReq
        0     17   -> NLME_NwkDiscReq2
        0     17   -> NLME_NwkDiscTerm
        0     17   -> osal_build_uint32
      1     16   ZDO_ProcessMgmtPermitJoinReq
        0     11   -> APSME_IsDistributedSecurity
        0     11   -> NLME_PermitJoiningRequest
        0     16   -> ZDP_SendData
        0     11   -> ZDSecMgrPermitJoining
      0     22   ZDO_ProcessMgmtRtgReq
        0     17   -> NLME_GetRequest
        0     22   -> ZDP_MgmtRtgRsp
        0     17   -> osal_mem_alloc
        0     17   -> osal_mem_free
      0     14   ZDO_ProcessNodeDescReq
        0     14   -> ZDP_GenericRsp
        0     12   -> ZDP_NodeDescMsg
      0      0   ZDO_ProcessNodeDescRsp
      0     36   ZDO_ProcessParentAnnce
        0     31   -> AssocGetWithExt
        0     31   -> ZDO_ParseParentAnnce
        0     36   -> ZDP_ParentAnnce
        0     31   -> osal_mem_alloc
        0     31   -> osal_mem_free
        0     31   -> sAddrExtCpy
      0     14   ZDO_ProcessParentAnnceRsp
        0     14   -> AssocGetWithExt
        0     14   -> AssocRemove
        0     14   -> ZDO_ParseParentAnnce
        0     14   -> osal_mem_free
      0     14   ZDO_ProcessPowerDescReq
        0     14   -> ZDP_GenericRsp
        0     12   -> ZDP_PowerDescMsg
      0     14   ZDO_ProcessServerDiscReq
        0     14   -> ZDP_ServerDiscRsp
      0     12   ZDO_ProcessSimpleDescReq
        0     12   -> ZDP_SimpleDescMsg
        0     12   -> afFindSimpleDesc
        0     12   -> osal_mem_free
      0      0   ZDO_ProcessSimpleDescRsp
      0     33   ZDO_ProcessUserDescReq
        0     33   -> ZDP_GenericRsp
        0     32   -> ZDP_UserDescRsp
        0     33   -> osal_nv_read
      1     41   ZDO_ProcessUserDescSet
        0     41   -> ZDP_SendData
        0     39   -> osal_memcpy
        0     40   -> osal_nv_write
      2      0   ZDO_RemoveEndDeviceBind
        2      0   -> osal_mem_free
      1     17   ZDO_SendEDBindRsp
        0     12   -> HalLcdWriteString
        0     17   -> ZDP_SendData
      0     26   ZDO_StartDevice
        0     16   -> APSME_IsDistributedSecurity
        0     16   -> HalLcdWriteScreen
        0     16   -> NLME_JoinConfirm
        0     16   -> NLME_NetworkDiscoveryRequest
        0     26   -> NLME_NetworkFormationRequest
        0     16   -> NLME_OrphanJoinRequest
        0     16   -> ZDApp_ChangeState
        0     16   -> ZMacGetReq
        0     16   -> osal_rand
        0     20   -> osal_start_timerEx
        0     16   -> osal_stop_timerEx
      2     13   ZDO_UpdateAddrManager
        2     13   -> AddrMgrEntryUpdate
        2     13   -> AddrMgrExtAddrSet
      0      9   ZDO_UpdateNwkStatus
        0      9   -> NLME_GetExtAddr
        0      9   -> NLME_GetShortAddr
        0      9   -> zdoSendStateChangeMsg
      1     19   zdoSendStateChangeMsg
        0     10   -> osal_msg_allocate
        0     10   -> osal_msg_find
        0     10   -> osal_msg_send
        0     10   -> osal_set_event


   Segment part sizes:

   Bytes  Function/Label
   -----  --------------
      16  ?<Constant "End Device Bind">
      13  ?<Constant "MODE unknown">
      15  ?<Constant "Match Desc Req">
      12  ?<Constant "Non Matched">
      16  ?<Constant "Rsp Non Matched">
       9  ?<Constant "Rsp Sent">
      16  ?<Constant "StartDevice ERR">
      13  ?<Constant "Success Sent">
       8  ?<Constant "Timeout">
       2  ?<Initializer for zdpExternalStateTaskID>
       3  NLME_PermitJoiningTimeout
      52  ZDOBuildBuf
      17  ZDODeviceSetup
     101  ZDO_AnyClusterMatches
     323  ZDO_BuildSimpleDescBuf
      71  ZDO_ConvertOTAClusters
       2  ZDO_EDBind
      90  ZDO_EndDeviceTimeoutCB
      32  ZDO_Init
     290  ZDO_ParseAddrRsp
     209  ZDO_ParseBindUnbindReq
      98  ZDO_ParseDeviceAnnce
     156  ZDO_ParseEPListRsp
     420  ZDO_ParseEndDeviceBindReq
     388  ZDO_ParseMgmNwkDiscRsp
     377  ZDO_ParseMgmtBindRsp
     405  ZDO_ParseMgmtLqiRsp
     285  ZDO_ParseMgmtNwkUpdateNotify
     182  ZDO_ParseMgmtNwkUpdateReq
     248  ZDO_ParseMgmtRtgRsp
     467  ZDO_ParseNodeDescRsp
     161  ZDO_ParseParentAnnce
     212  ZDO_ParsePowerDescRsp
      69  ZDO_ParseServerDiscRsp
     421  ZDO_ParseSimpleDescBuf
      82  ZDO_ParseSimpleDescRsp
     164  ZDO_ParseUserDescRsp
     164  ZDO_ProcessActiveEPReq
     448  ZDO_ProcessBindUnbindReq
     434  ZDO_ProcessDeviceAnnce
    1250  ZDO_ProcessMatchDescReq
     295  ZDO_ProcessMgmtBindReq
     120  ZDO_ProcessMgmtDirectJoinReq
     282  ZDO_ProcessMgmtLeaveReq
     963  ZDO_ProcessMgmtLqiReq
     175  ZDO_ProcessMgmtNwkDiscReq
     146  ZDO_ProcessMgmtPermitJoinReq
     270  ZDO_ProcessMgmtRtgReq
     149  ZDO_ProcessNodeDescReq
       3  ZDO_ProcessNodeDescRsp
     483  ZDO_ProcessParentAnnce
     120  ZDO_ProcessParentAnnceRsp
     149  ZDO_ProcessPowerDescReq
     106  ZDO_ProcessServerDiscReq
     183  ZDO_ProcessSimpleDescReq
       3  ZDO_ProcessSimpleDescRsp
     221  ZDO_ProcessUserDescReq
     332  ZDO_ProcessUserDescSet
      97  ZDO_RemoveEndDeviceBind
     124  ZDO_SendEDBindRsp
     370  ZDO_StartDevice
      57  ZDO_UpdateAddrManager
     108  ZDO_UpdateNwkStatus
       4  __Constant_0
       4  __Constant_3e8
       4  apsChannelMask
       2  matchED
       1  scanCnt
      73  zdoSendStateChangeMsg
       2  zdpExternalStateTaskID
     312  -- Other

 
 12 396 bytes in segment BANKED_CODE
    312 bytes in segment BANK_RELAYS
      2 bytes in segment XDATA_I
      2 bytes in segment XDATA_ID
    126 bytes in segment XDATA_ROM_C
     61 bytes in segment XDATA_Z
 
    314 bytes of CODE     memory
    118 bytes of CONST    memory (+ 8 bytes shared)
 12 396 bytes of HUGECODE memory
     63 bytes of XDATA    memory

Errors: none
Warnings: none
